ARM GAS  /tmp/ccu8DzYi.s 			page 1


   1              		.cpu cortex-m4
   2              		.arch armv7e-m
   3              		.fpu fpv4-sp-d16
   4              		.eabi_attribute 27, 1
   5              		.eabi_attribute 28, 1
   6              		.eabi_attribute 20, 1
   7              		.eabi_attribute 21, 1
   8              		.eabi_attribute 23, 3
   9              		.eabi_attribute 24, 1
  10              		.eabi_attribute 25, 1
  11              		.eabi_attribute 26, 1
  12              		.eabi_attribute 30, 6
  13              		.eabi_attribute 34, 1
  14              		.eabi_attribute 18, 4
  15              		.file	"heap_4.c"
  16              		.text
  17              	.Ltext0:
  18              		.cfi_sections	.debug_frame
  19              		.file 1 "Middlewares/FreeRTOS/portable/heap_4.c"
  20              		.section	.bss.ucHeap,"aw",%nobits
  21              		.align	2
  24              	ucHeap:
  25 0000 00000000 		.space	15360
  25      00000000 
  25      00000000 
  25      00000000 
  25      00000000 
  26              		.section	.rodata.xHeapStructSize,"a"
  27              		.align	2
  30              	xHeapStructSize:
  31 0000 08000000 		.word	8
  32              		.section	.bss.xStart,"aw",%nobits
  33              		.align	2
  36              	xStart:
  37 0000 00000000 		.space	8
  37      00000000 
  38              		.section	.bss.pxEnd,"aw",%nobits
  39              		.align	2
  42              	pxEnd:
  43 0000 00000000 		.space	4
  44              		.section	.bss.xFreeBytesRemaining,"aw",%nobits
  45              		.align	2
  48              	xFreeBytesRemaining:
  49 0000 00000000 		.space	4
  50              		.section	.bss.xMinimumEverFreeBytesRemaining,"aw",%nobits
  51              		.align	2
  54              	xMinimumEverFreeBytesRemaining:
  55 0000 00000000 		.space	4
  56              		.section	.bss.xNumberOfSuccessfulAllocations,"aw",%nobits
  57              		.align	2
  60              	xNumberOfSuccessfulAllocations:
  61 0000 00000000 		.space	4
  62              		.section	.bss.xNumberOfSuccessfulFrees,"aw",%nobits
  63              		.align	2
  66              	xNumberOfSuccessfulFrees:
  67 0000 00000000 		.space	4
  68              		.section	.text.pvPortMalloc,"ax",%progbits
ARM GAS  /tmp/ccu8DzYi.s 			page 2


  69              		.align	1
  70              		.global	pvPortMalloc
  71              		.syntax unified
  72              		.thumb
  73              		.thumb_func
  75              	pvPortMalloc:
  76              	.LFB4:
   1:Middlewares/FreeRTOS/portable/heap_4.c **** /*
   2:Middlewares/FreeRTOS/portable/heap_4.c ****  * FreeRTOS Kernel V11.1.0
   3:Middlewares/FreeRTOS/portable/heap_4.c ****  * Copyright (C) 2021 Amazon.com, Inc. or its affiliates. All Rights Reserved.
   4:Middlewares/FreeRTOS/portable/heap_4.c ****  *
   5:Middlewares/FreeRTOS/portable/heap_4.c ****  * SPDX-License-Identifier: MIT
   6:Middlewares/FreeRTOS/portable/heap_4.c ****  *
   7:Middlewares/FreeRTOS/portable/heap_4.c ****  * Permission is hereby granted, free of charge, to any person obtaining a copy of
   8:Middlewares/FreeRTOS/portable/heap_4.c ****  * this software and associated documentation files (the "Software"), to deal in
   9:Middlewares/FreeRTOS/portable/heap_4.c ****  * the Software without restriction, including without limitation the rights to
  10:Middlewares/FreeRTOS/portable/heap_4.c ****  * use, copy, modify, merge, publish, distribute, sublicense, and/or sell copies of
  11:Middlewares/FreeRTOS/portable/heap_4.c ****  * the Software, and to permit persons to whom the Software is furnished to do so,
  12:Middlewares/FreeRTOS/portable/heap_4.c ****  * subject to the following conditions:
  13:Middlewares/FreeRTOS/portable/heap_4.c ****  *
  14:Middlewares/FreeRTOS/portable/heap_4.c ****  * The above copyright notice and this permission notice shall be included in all
  15:Middlewares/FreeRTOS/portable/heap_4.c ****  * copies or substantial portions of the Software.
  16:Middlewares/FreeRTOS/portable/heap_4.c ****  *
  17:Middlewares/FreeRTOS/portable/heap_4.c ****  * THE SOFTWARE IS PROVIDED "AS IS", WITHOUT WARRANTY OF ANY KIND, EXPRESS OR
  18:Middlewares/FreeRTOS/portable/heap_4.c ****  * IMPLIED, INCLUDING BUT NOT LIMITED TO THE WARRANTIES OF MERCHANTABILITY, FITNESS
  19:Middlewares/FreeRTOS/portable/heap_4.c ****  * FOR A PARTICULAR PURPOSE AND NONINFRINGEMENT. IN NO EVENT SHALL THE AUTHORS OR
  20:Middlewares/FreeRTOS/portable/heap_4.c ****  * COPYRIGHT HOLDERS BE LIABLE FOR ANY CLAIM, DAMAGES OR OTHER LIABILITY, WHETHER
  21:Middlewares/FreeRTOS/portable/heap_4.c ****  * IN AN ACTION OF CONTRACT, TORT OR OTHERWISE, ARISING FROM, OUT OF OR IN
  22:Middlewares/FreeRTOS/portable/heap_4.c ****  * CONNECTION WITH THE SOFTWARE OR THE USE OR OTHER DEALINGS IN THE SOFTWARE.
  23:Middlewares/FreeRTOS/portable/heap_4.c ****  *
  24:Middlewares/FreeRTOS/portable/heap_4.c ****  * https://www.FreeRTOS.org
  25:Middlewares/FreeRTOS/portable/heap_4.c ****  * https://github.com/FreeRTOS
  26:Middlewares/FreeRTOS/portable/heap_4.c ****  *
  27:Middlewares/FreeRTOS/portable/heap_4.c ****  */
  28:Middlewares/FreeRTOS/portable/heap_4.c **** 
  29:Middlewares/FreeRTOS/portable/heap_4.c **** /*
  30:Middlewares/FreeRTOS/portable/heap_4.c ****  * A sample implementation of pvPortMalloc() and vPortFree() that combines
  31:Middlewares/FreeRTOS/portable/heap_4.c ****  * (coalescences) adjacent memory blocks as they are freed, and in so doing
  32:Middlewares/FreeRTOS/portable/heap_4.c ****  * limits memory fragmentation.
  33:Middlewares/FreeRTOS/portable/heap_4.c ****  *
  34:Middlewares/FreeRTOS/portable/heap_4.c ****  * See heap_1.c, heap_2.c and heap_3.c for alternative implementations, and the
  35:Middlewares/FreeRTOS/portable/heap_4.c ****  * memory management pages of https://www.FreeRTOS.org for more information.
  36:Middlewares/FreeRTOS/portable/heap_4.c ****  */
  37:Middlewares/FreeRTOS/portable/heap_4.c **** #include <stdlib.h>
  38:Middlewares/FreeRTOS/portable/heap_4.c **** #include <string.h>
  39:Middlewares/FreeRTOS/portable/heap_4.c **** 
  40:Middlewares/FreeRTOS/portable/heap_4.c **** /* Defining MPU_WRAPPERS_INCLUDED_FROM_API_FILE prevents task.h from redefining
  41:Middlewares/FreeRTOS/portable/heap_4.c ****  * all the API functions to use the MPU wrappers.  That should only be done when
  42:Middlewares/FreeRTOS/portable/heap_4.c ****  * task.h is included from an application file. */
  43:Middlewares/FreeRTOS/portable/heap_4.c **** #define MPU_WRAPPERS_INCLUDED_FROM_API_FILE
  44:Middlewares/FreeRTOS/portable/heap_4.c **** 
  45:Middlewares/FreeRTOS/portable/heap_4.c **** #include "FreeRTOS.h"
  46:Middlewares/FreeRTOS/portable/heap_4.c **** #include "task.h"
  47:Middlewares/FreeRTOS/portable/heap_4.c **** 
  48:Middlewares/FreeRTOS/portable/heap_4.c **** #undef MPU_WRAPPERS_INCLUDED_FROM_API_FILE
  49:Middlewares/FreeRTOS/portable/heap_4.c **** 
  50:Middlewares/FreeRTOS/portable/heap_4.c **** #if ( configSUPPORT_DYNAMIC_ALLOCATION == 0 )
ARM GAS  /tmp/ccu8DzYi.s 			page 3


  51:Middlewares/FreeRTOS/portable/heap_4.c ****     #error This file must not be used if configSUPPORT_DYNAMIC_ALLOCATION is 0
  52:Middlewares/FreeRTOS/portable/heap_4.c **** #endif
  53:Middlewares/FreeRTOS/portable/heap_4.c **** 
  54:Middlewares/FreeRTOS/portable/heap_4.c **** #ifndef configHEAP_CLEAR_MEMORY_ON_FREE
  55:Middlewares/FreeRTOS/portable/heap_4.c ****     #define configHEAP_CLEAR_MEMORY_ON_FREE    0
  56:Middlewares/FreeRTOS/portable/heap_4.c **** #endif
  57:Middlewares/FreeRTOS/portable/heap_4.c **** 
  58:Middlewares/FreeRTOS/portable/heap_4.c **** /* Block sizes must not get too small. */
  59:Middlewares/FreeRTOS/portable/heap_4.c **** #define heapMINIMUM_BLOCK_SIZE    ( ( size_t ) ( xHeapStructSize << 1 ) )
  60:Middlewares/FreeRTOS/portable/heap_4.c **** 
  61:Middlewares/FreeRTOS/portable/heap_4.c **** /* Assumes 8bit bytes! */
  62:Middlewares/FreeRTOS/portable/heap_4.c **** #define heapBITS_PER_BYTE         ( ( size_t ) 8 )
  63:Middlewares/FreeRTOS/portable/heap_4.c **** 
  64:Middlewares/FreeRTOS/portable/heap_4.c **** /* Max value that fits in a size_t type. */
  65:Middlewares/FreeRTOS/portable/heap_4.c **** #define heapSIZE_MAX              ( ~( ( size_t ) 0 ) )
  66:Middlewares/FreeRTOS/portable/heap_4.c **** 
  67:Middlewares/FreeRTOS/portable/heap_4.c **** /* Check if multiplying a and b will result in overflow. */
  68:Middlewares/FreeRTOS/portable/heap_4.c **** #define heapMULTIPLY_WILL_OVERFLOW( a, b )     ( ( ( a ) > 0 ) && ( ( b ) > ( heapSIZE_MAX / ( a ) 
  69:Middlewares/FreeRTOS/portable/heap_4.c **** 
  70:Middlewares/FreeRTOS/portable/heap_4.c **** /* Check if adding a and b will result in overflow. */
  71:Middlewares/FreeRTOS/portable/heap_4.c **** #define heapADD_WILL_OVERFLOW( a, b )          ( ( a ) > ( heapSIZE_MAX - ( b ) ) )
  72:Middlewares/FreeRTOS/portable/heap_4.c **** 
  73:Middlewares/FreeRTOS/portable/heap_4.c **** /* Check if the subtraction operation ( a - b ) will result in underflow. */
  74:Middlewares/FreeRTOS/portable/heap_4.c **** #define heapSUBTRACT_WILL_UNDERFLOW( a, b )    ( ( a ) < ( b ) )
  75:Middlewares/FreeRTOS/portable/heap_4.c **** 
  76:Middlewares/FreeRTOS/portable/heap_4.c **** /* MSB of the xBlockSize member of an BlockLink_t structure is used to track
  77:Middlewares/FreeRTOS/portable/heap_4.c ****  * the allocation status of a block.  When MSB of the xBlockSize member of
  78:Middlewares/FreeRTOS/portable/heap_4.c ****  * an BlockLink_t structure is set then the block belongs to the application.
  79:Middlewares/FreeRTOS/portable/heap_4.c ****  * When the bit is free the block is still part of the free heap space. */
  80:Middlewares/FreeRTOS/portable/heap_4.c **** #define heapBLOCK_ALLOCATED_BITMASK    ( ( ( size_t ) 1 ) << ( ( sizeof( size_t ) * heapBITS_PER_BY
  81:Middlewares/FreeRTOS/portable/heap_4.c **** #define heapBLOCK_SIZE_IS_VALID( xBlockSize )    ( ( ( xBlockSize ) & heapBLOCK_ALLOCATED_BITMASK )
  82:Middlewares/FreeRTOS/portable/heap_4.c **** #define heapBLOCK_IS_ALLOCATED( pxBlock )        ( ( ( pxBlock->xBlockSize ) & heapBLOCK_ALLOCATED_
  83:Middlewares/FreeRTOS/portable/heap_4.c **** #define heapALLOCATE_BLOCK( pxBlock )            ( ( pxBlock->xBlockSize ) |= heapBLOCK_ALLOCATED_B
  84:Middlewares/FreeRTOS/portable/heap_4.c **** #define heapFREE_BLOCK( pxBlock )                ( ( pxBlock->xBlockSize ) &= ~heapBLOCK_ALLOCATED_
  85:Middlewares/FreeRTOS/portable/heap_4.c **** 
  86:Middlewares/FreeRTOS/portable/heap_4.c **** /*-----------------------------------------------------------*/
  87:Middlewares/FreeRTOS/portable/heap_4.c **** 
  88:Middlewares/FreeRTOS/portable/heap_4.c **** /* Allocate the memory for the heap. */
  89:Middlewares/FreeRTOS/portable/heap_4.c **** #if ( configAPPLICATION_ALLOCATED_HEAP == 1 )
  90:Middlewares/FreeRTOS/portable/heap_4.c **** 
  91:Middlewares/FreeRTOS/portable/heap_4.c **** /* The application writer has already defined the array used for the RTOS
  92:Middlewares/FreeRTOS/portable/heap_4.c **** * heap - probably so it can be placed in a special segment or address. */
  93:Middlewares/FreeRTOS/portable/heap_4.c ****     extern uint8_t ucHeap[ configTOTAL_HEAP_SIZE ];
  94:Middlewares/FreeRTOS/portable/heap_4.c **** #else
  95:Middlewares/FreeRTOS/portable/heap_4.c ****     PRIVILEGED_DATA static uint8_t ucHeap[ configTOTAL_HEAP_SIZE ];
  96:Middlewares/FreeRTOS/portable/heap_4.c **** #endif /* configAPPLICATION_ALLOCATED_HEAP */
  97:Middlewares/FreeRTOS/portable/heap_4.c **** 
  98:Middlewares/FreeRTOS/portable/heap_4.c **** /* Define the linked list structure.  This is used to link free blocks in order
  99:Middlewares/FreeRTOS/portable/heap_4.c ****  * of their memory address. */
 100:Middlewares/FreeRTOS/portable/heap_4.c **** typedef struct A_BLOCK_LINK
 101:Middlewares/FreeRTOS/portable/heap_4.c **** {
 102:Middlewares/FreeRTOS/portable/heap_4.c ****     struct A_BLOCK_LINK * pxNextFreeBlock; /**< The next free block in the list. */
 103:Middlewares/FreeRTOS/portable/heap_4.c ****     size_t xBlockSize;                     /**< The size of the free block. */
 104:Middlewares/FreeRTOS/portable/heap_4.c **** } BlockLink_t;
 105:Middlewares/FreeRTOS/portable/heap_4.c **** 
 106:Middlewares/FreeRTOS/portable/heap_4.c **** /* Setting configENABLE_HEAP_PROTECTOR to 1 enables heap block pointers
 107:Middlewares/FreeRTOS/portable/heap_4.c ****  * protection using an application supplied canary value to catch heap
ARM GAS  /tmp/ccu8DzYi.s 			page 4


 108:Middlewares/FreeRTOS/portable/heap_4.c ****  * corruption should a heap buffer overflow occur.
 109:Middlewares/FreeRTOS/portable/heap_4.c ****  */
 110:Middlewares/FreeRTOS/portable/heap_4.c **** #if ( configENABLE_HEAP_PROTECTOR == 1 )
 111:Middlewares/FreeRTOS/portable/heap_4.c **** 
 112:Middlewares/FreeRTOS/portable/heap_4.c **** /**
 113:Middlewares/FreeRTOS/portable/heap_4.c ****  * @brief Application provided function to get a random value to be used as canary.
 114:Middlewares/FreeRTOS/portable/heap_4.c ****  *
 115:Middlewares/FreeRTOS/portable/heap_4.c ****  * @param pxHeapCanary [out] Output parameter to return the canary value.
 116:Middlewares/FreeRTOS/portable/heap_4.c ****  */
 117:Middlewares/FreeRTOS/portable/heap_4.c ****     extern void vApplicationGetRandomHeapCanary( portPOINTER_SIZE_TYPE * pxHeapCanary );
 118:Middlewares/FreeRTOS/portable/heap_4.c **** 
 119:Middlewares/FreeRTOS/portable/heap_4.c **** /* Canary value for protecting internal heap pointers. */
 120:Middlewares/FreeRTOS/portable/heap_4.c ****     PRIVILEGED_DATA static portPOINTER_SIZE_TYPE xHeapCanary;
 121:Middlewares/FreeRTOS/portable/heap_4.c **** 
 122:Middlewares/FreeRTOS/portable/heap_4.c **** /* Macro to load/store BlockLink_t pointers to memory. By XORing the
 123:Middlewares/FreeRTOS/portable/heap_4.c ****  * pointers with a random canary value, heap overflows will result
 124:Middlewares/FreeRTOS/portable/heap_4.c ****  * in randomly unpredictable pointer values which will be caught by
 125:Middlewares/FreeRTOS/portable/heap_4.c ****  * heapVALIDATE_BLOCK_POINTER assert. */
 126:Middlewares/FreeRTOS/portable/heap_4.c ****     #define heapPROTECT_BLOCK_POINTER( pxBlock )    ( ( BlockLink_t * ) ( ( ( portPOINTER_SIZE_TYPE
 127:Middlewares/FreeRTOS/portable/heap_4.c **** #else
 128:Middlewares/FreeRTOS/portable/heap_4.c **** 
 129:Middlewares/FreeRTOS/portable/heap_4.c ****     #define heapPROTECT_BLOCK_POINTER( pxBlock )    ( pxBlock )
 130:Middlewares/FreeRTOS/portable/heap_4.c **** 
 131:Middlewares/FreeRTOS/portable/heap_4.c **** #endif /* configENABLE_HEAP_PROTECTOR */
 132:Middlewares/FreeRTOS/portable/heap_4.c **** 
 133:Middlewares/FreeRTOS/portable/heap_4.c **** /* Assert that a heap block pointer is within the heap bounds. */
 134:Middlewares/FreeRTOS/portable/heap_4.c **** #define heapVALIDATE_BLOCK_POINTER( pxBlock )                          \
 135:Middlewares/FreeRTOS/portable/heap_4.c ****     configASSERT( ( ( uint8_t * ) ( pxBlock ) >= &( ucHeap[ 0 ] ) ) && \
 136:Middlewares/FreeRTOS/portable/heap_4.c ****                   ( ( uint8_t * ) ( pxBlock ) <= &( ucHeap[ configTOTAL_HEAP_SIZE - 1 ] ) ) )
 137:Middlewares/FreeRTOS/portable/heap_4.c **** 
 138:Middlewares/FreeRTOS/portable/heap_4.c **** /*-----------------------------------------------------------*/
 139:Middlewares/FreeRTOS/portable/heap_4.c **** 
 140:Middlewares/FreeRTOS/portable/heap_4.c **** /*
 141:Middlewares/FreeRTOS/portable/heap_4.c ****  * Inserts a block of memory that is being freed into the correct position in
 142:Middlewares/FreeRTOS/portable/heap_4.c ****  * the list of free memory blocks.  The block being freed will be merged with
 143:Middlewares/FreeRTOS/portable/heap_4.c ****  * the block in front it and/or the block behind it if the memory blocks are
 144:Middlewares/FreeRTOS/portable/heap_4.c ****  * adjacent to each other.
 145:Middlewares/FreeRTOS/portable/heap_4.c ****  */
 146:Middlewares/FreeRTOS/portable/heap_4.c **** static void prvInsertBlockIntoFreeList( BlockLink_t * pxBlockToInsert ) PRIVILEGED_FUNCTION;
 147:Middlewares/FreeRTOS/portable/heap_4.c **** 
 148:Middlewares/FreeRTOS/portable/heap_4.c **** /*
 149:Middlewares/FreeRTOS/portable/heap_4.c ****  * Called automatically to setup the required heap structures the first time
 150:Middlewares/FreeRTOS/portable/heap_4.c ****  * pvPortMalloc() is called.
 151:Middlewares/FreeRTOS/portable/heap_4.c ****  */
 152:Middlewares/FreeRTOS/portable/heap_4.c **** static void prvHeapInit( void ) PRIVILEGED_FUNCTION;
 153:Middlewares/FreeRTOS/portable/heap_4.c **** 
 154:Middlewares/FreeRTOS/portable/heap_4.c **** /*-----------------------------------------------------------*/
 155:Middlewares/FreeRTOS/portable/heap_4.c **** 
 156:Middlewares/FreeRTOS/portable/heap_4.c **** /* The size of the structure placed at the beginning of each allocated memory
 157:Middlewares/FreeRTOS/portable/heap_4.c ****  * block must by correctly byte aligned. */
 158:Middlewares/FreeRTOS/portable/heap_4.c **** static const size_t xHeapStructSize = ( sizeof( BlockLink_t ) + ( ( size_t ) ( portBYTE_ALIGNMENT -
 159:Middlewares/FreeRTOS/portable/heap_4.c **** 
 160:Middlewares/FreeRTOS/portable/heap_4.c **** /* Create a couple of list links to mark the start and end of the list. */
 161:Middlewares/FreeRTOS/portable/heap_4.c **** PRIVILEGED_DATA static BlockLink_t xStart;
 162:Middlewares/FreeRTOS/portable/heap_4.c **** PRIVILEGED_DATA static BlockLink_t * pxEnd = NULL;
 163:Middlewares/FreeRTOS/portable/heap_4.c **** 
 164:Middlewares/FreeRTOS/portable/heap_4.c **** /* Keeps track of the number of calls to allocate and free memory as well as the
ARM GAS  /tmp/ccu8DzYi.s 			page 5


 165:Middlewares/FreeRTOS/portable/heap_4.c ****  * number of free bytes remaining, but says nothing about fragmentation. */
 166:Middlewares/FreeRTOS/portable/heap_4.c **** PRIVILEGED_DATA static size_t xFreeBytesRemaining = ( size_t ) 0U;
 167:Middlewares/FreeRTOS/portable/heap_4.c **** PRIVILEGED_DATA static size_t xMinimumEverFreeBytesRemaining = ( size_t ) 0U;
 168:Middlewares/FreeRTOS/portable/heap_4.c **** PRIVILEGED_DATA static size_t xNumberOfSuccessfulAllocations = ( size_t ) 0U;
 169:Middlewares/FreeRTOS/portable/heap_4.c **** PRIVILEGED_DATA static size_t xNumberOfSuccessfulFrees = ( size_t ) 0U;
 170:Middlewares/FreeRTOS/portable/heap_4.c **** 
 171:Middlewares/FreeRTOS/portable/heap_4.c **** /*-----------------------------------------------------------*/
 172:Middlewares/FreeRTOS/portable/heap_4.c **** 
 173:Middlewares/FreeRTOS/portable/heap_4.c **** void * pvPortMalloc( size_t xWantedSize )
 174:Middlewares/FreeRTOS/portable/heap_4.c **** {
  77              		.loc 1 174 1
  78              		.cfi_startproc
  79              		@ args = 0, pretend = 0, frame = 32
  80              		@ frame_needed = 1, uses_anonymous_args = 0
  81 0000 80B5     		push	{r7, lr}
  82              		.cfi_def_cfa_offset 8
  83              		.cfi_offset 7, -8
  84              		.cfi_offset 14, -4
  85 0002 88B0     		sub	sp, sp, #32
  86              		.cfi_def_cfa_offset 40
  87 0004 00AF     		add	r7, sp, #0
  88              		.cfi_def_cfa_register 7
  89 0006 7860     		str	r0, [r7, #4]
 175:Middlewares/FreeRTOS/portable/heap_4.c ****     BlockLink_t * pxBlock;
 176:Middlewares/FreeRTOS/portable/heap_4.c ****     BlockLink_t * pxPreviousBlock;
 177:Middlewares/FreeRTOS/portable/heap_4.c ****     BlockLink_t * pxNewBlockLink;
 178:Middlewares/FreeRTOS/portable/heap_4.c ****     void * pvReturn = NULL;
  90              		.loc 1 178 12
  91 0008 0023     		movs	r3, #0
  92 000a 7B61     		str	r3, [r7, #20]
 179:Middlewares/FreeRTOS/portable/heap_4.c ****     size_t xAdditionalRequiredSize;
 180:Middlewares/FreeRTOS/portable/heap_4.c **** 
 181:Middlewares/FreeRTOS/portable/heap_4.c ****     if( xWantedSize > 0 )
  93              		.loc 1 181 7
  94 000c 7B68     		ldr	r3, [r7, #4]
  95 000e 002B     		cmp	r3, #0
  96 0010 22D0     		beq	.L2
 182:Middlewares/FreeRTOS/portable/heap_4.c ****     {
 183:Middlewares/FreeRTOS/portable/heap_4.c ****         /* The wanted size must be increased so it can contain a BlockLink_t
 184:Middlewares/FreeRTOS/portable/heap_4.c ****          * structure in addition to the requested amount of bytes. */
 185:Middlewares/FreeRTOS/portable/heap_4.c ****         if( heapADD_WILL_OVERFLOW( xWantedSize, xHeapStructSize ) == 0 )
  97              		.loc 1 185 13
  98 0012 0823     		movs	r3, #8
  99 0014 DB43     		mvns	r3, r3
 100              		.loc 1 185 11
 101 0016 7A68     		ldr	r2, [r7, #4]
 102 0018 9A42     		cmp	r2, r3
 103 001a 1BD8     		bhi	.L3
 186:Middlewares/FreeRTOS/portable/heap_4.c ****         {
 187:Middlewares/FreeRTOS/portable/heap_4.c ****             xWantedSize += xHeapStructSize;
 104              		.loc 1 187 25
 105 001c 0822     		movs	r2, #8
 106 001e 7B68     		ldr	r3, [r7, #4]
 107 0020 1344     		add	r3, r3, r2
 108 0022 7B60     		str	r3, [r7, #4]
 188:Middlewares/FreeRTOS/portable/heap_4.c **** 
 189:Middlewares/FreeRTOS/portable/heap_4.c ****             /* Ensure that blocks are always aligned to the required number
ARM GAS  /tmp/ccu8DzYi.s 			page 6


 190:Middlewares/FreeRTOS/portable/heap_4.c ****              * of bytes. */
 191:Middlewares/FreeRTOS/portable/heap_4.c ****             if( ( xWantedSize & portBYTE_ALIGNMENT_MASK ) != 0x00 )
 109              		.loc 1 191 31
 110 0024 7B68     		ldr	r3, [r7, #4]
 111 0026 03F00703 		and	r3, r3, #7
 112              		.loc 1 191 15
 113 002a 002B     		cmp	r3, #0
 114 002c 14D0     		beq	.L2
 192:Middlewares/FreeRTOS/portable/heap_4.c ****             {
 193:Middlewares/FreeRTOS/portable/heap_4.c ****                 /* Byte alignment required. */
 194:Middlewares/FreeRTOS/portable/heap_4.c ****                 xAdditionalRequiredSize = portBYTE_ALIGNMENT - ( xWantedSize & portBYTE_ALIGNMENT_M
 115              		.loc 1 194 78
 116 002e 7B68     		ldr	r3, [r7, #4]
 117 0030 03F00703 		and	r3, r3, #7
 118              		.loc 1 194 41
 119 0034 C3F10803 		rsb	r3, r3, #8
 120 0038 3B61     		str	r3, [r7, #16]
 195:Middlewares/FreeRTOS/portable/heap_4.c **** 
 196:Middlewares/FreeRTOS/portable/heap_4.c ****                 if( heapADD_WILL_OVERFLOW( xWantedSize, xAdditionalRequiredSize ) == 0 )
 121              		.loc 1 196 21
 122 003a 3B69     		ldr	r3, [r7, #16]
 123 003c DB43     		mvns	r3, r3
 124              		.loc 1 196 19
 125 003e 7A68     		ldr	r2, [r7, #4]
 126 0040 9A42     		cmp	r2, r3
 127 0042 04D8     		bhi	.L4
 197:Middlewares/FreeRTOS/portable/heap_4.c ****                 {
 198:Middlewares/FreeRTOS/portable/heap_4.c ****                     xWantedSize += xAdditionalRequiredSize;
 128              		.loc 1 198 33
 129 0044 7A68     		ldr	r2, [r7, #4]
 130 0046 3B69     		ldr	r3, [r7, #16]
 131 0048 1344     		add	r3, r3, r2
 132 004a 7B60     		str	r3, [r7, #4]
 133 004c 04E0     		b	.L2
 134              	.L4:
 199:Middlewares/FreeRTOS/portable/heap_4.c ****                 }
 200:Middlewares/FreeRTOS/portable/heap_4.c ****                 else
 201:Middlewares/FreeRTOS/portable/heap_4.c ****                 {
 202:Middlewares/FreeRTOS/portable/heap_4.c ****                     xWantedSize = 0;
 135              		.loc 1 202 33
 136 004e 0023     		movs	r3, #0
 137 0050 7B60     		str	r3, [r7, #4]
 138 0052 01E0     		b	.L2
 139              	.L3:
 203:Middlewares/FreeRTOS/portable/heap_4.c ****                 }
 204:Middlewares/FreeRTOS/portable/heap_4.c ****             }
 205:Middlewares/FreeRTOS/portable/heap_4.c ****             else
 206:Middlewares/FreeRTOS/portable/heap_4.c ****             {
 207:Middlewares/FreeRTOS/portable/heap_4.c ****                 mtCOVERAGE_TEST_MARKER();
 208:Middlewares/FreeRTOS/portable/heap_4.c ****             }
 209:Middlewares/FreeRTOS/portable/heap_4.c ****         }
 210:Middlewares/FreeRTOS/portable/heap_4.c ****         else
 211:Middlewares/FreeRTOS/portable/heap_4.c ****         {
 212:Middlewares/FreeRTOS/portable/heap_4.c ****             xWantedSize = 0;
 140              		.loc 1 212 25
 141 0054 0023     		movs	r3, #0
 142 0056 7B60     		str	r3, [r7, #4]
ARM GAS  /tmp/ccu8DzYi.s 			page 7


 143              	.L2:
 213:Middlewares/FreeRTOS/portable/heap_4.c ****         }
 214:Middlewares/FreeRTOS/portable/heap_4.c ****     }
 215:Middlewares/FreeRTOS/portable/heap_4.c ****     else
 216:Middlewares/FreeRTOS/portable/heap_4.c ****     {
 217:Middlewares/FreeRTOS/portable/heap_4.c ****         mtCOVERAGE_TEST_MARKER();
 218:Middlewares/FreeRTOS/portable/heap_4.c ****     }
 219:Middlewares/FreeRTOS/portable/heap_4.c **** 
 220:Middlewares/FreeRTOS/portable/heap_4.c ****     vTaskSuspendAll();
 144              		.loc 1 220 5
 145 0058 FFF7FEFF 		bl	vTaskSuspendAll
 221:Middlewares/FreeRTOS/portable/heap_4.c ****     {
 222:Middlewares/FreeRTOS/portable/heap_4.c ****         /* If this is the first call to malloc then the heap will require
 223:Middlewares/FreeRTOS/portable/heap_4.c ****          * initialisation to setup the list of free blocks. */
 224:Middlewares/FreeRTOS/portable/heap_4.c ****         if( pxEnd == NULL )
 146              		.loc 1 224 19
 147 005c 3A4B     		ldr	r3, .L13
 148 005e 1B68     		ldr	r3, [r3]
 149              		.loc 1 224 11
 150 0060 002B     		cmp	r3, #0
 151 0062 01D1     		bne	.L5
 225:Middlewares/FreeRTOS/portable/heap_4.c ****         {
 226:Middlewares/FreeRTOS/portable/heap_4.c ****             prvHeapInit();
 152              		.loc 1 226 13
 153 0064 FFF7FEFF 		bl	prvHeapInit
 154              	.L5:
 227:Middlewares/FreeRTOS/portable/heap_4.c ****         }
 228:Middlewares/FreeRTOS/portable/heap_4.c ****         else
 229:Middlewares/FreeRTOS/portable/heap_4.c ****         {
 230:Middlewares/FreeRTOS/portable/heap_4.c ****             mtCOVERAGE_TEST_MARKER();
 231:Middlewares/FreeRTOS/portable/heap_4.c ****         }
 232:Middlewares/FreeRTOS/portable/heap_4.c **** 
 233:Middlewares/FreeRTOS/portable/heap_4.c ****         /* Check the block size we are trying to allocate is not so large that the
 234:Middlewares/FreeRTOS/portable/heap_4.c ****          * top bit is set.  The top bit of the block size member of the BlockLink_t
 235:Middlewares/FreeRTOS/portable/heap_4.c ****          * structure is used to determine who owns the block - the application or
 236:Middlewares/FreeRTOS/portable/heap_4.c ****          * the kernel, so it must be free. */
 237:Middlewares/FreeRTOS/portable/heap_4.c ****         if( heapBLOCK_SIZE_IS_VALID( xWantedSize ) != 0 )
 155              		.loc 1 237 13
 156 0068 7B68     		ldr	r3, [r7, #4]
 157              		.loc 1 237 11
 158 006a 002B     		cmp	r3, #0
 159 006c 64DB     		blt	.L6
 238:Middlewares/FreeRTOS/portable/heap_4.c ****         {
 239:Middlewares/FreeRTOS/portable/heap_4.c ****             if( ( xWantedSize > 0 ) && ( xWantedSize <= xFreeBytesRemaining ) )
 160              		.loc 1 239 15
 161 006e 7B68     		ldr	r3, [r7, #4]
 162 0070 002B     		cmp	r3, #0
 163 0072 61D0     		beq	.L6
 164              		.loc 1 239 54 discriminator 1
 165 0074 354B     		ldr	r3, .L13+4
 166 0076 1B68     		ldr	r3, [r3]
 167              		.loc 1 239 37 discriminator 1
 168 0078 7A68     		ldr	r2, [r7, #4]
 169 007a 9A42     		cmp	r2, r3
 170 007c 5CD8     		bhi	.L6
 240:Middlewares/FreeRTOS/portable/heap_4.c ****             {
 241:Middlewares/FreeRTOS/portable/heap_4.c ****                 /* Traverse the list from the start (lowest address) block until
ARM GAS  /tmp/ccu8DzYi.s 			page 8


 242:Middlewares/FreeRTOS/portable/heap_4.c ****                  * one of adequate size is found. */
 243:Middlewares/FreeRTOS/portable/heap_4.c ****                 pxPreviousBlock = &xStart;
 171              		.loc 1 243 33
 172 007e 344B     		ldr	r3, .L13+8
 173 0080 BB61     		str	r3, [r7, #24]
 244:Middlewares/FreeRTOS/portable/heap_4.c ****                 pxBlock = heapPROTECT_BLOCK_POINTER( xStart.pxNextFreeBlock );
 174              		.loc 1 244 25
 175 0082 334B     		ldr	r3, .L13+8
 176 0084 1B68     		ldr	r3, [r3]
 177 0086 FB61     		str	r3, [r7, #28]
 245:Middlewares/FreeRTOS/portable/heap_4.c ****                 heapVALIDATE_BLOCK_POINTER( pxBlock );
 246:Middlewares/FreeRTOS/portable/heap_4.c **** 
 247:Middlewares/FreeRTOS/portable/heap_4.c ****                 while( ( pxBlock->xBlockSize < xWantedSize ) && ( pxBlock->pxNextFreeBlock != heapP
 178              		.loc 1 247 22
 179 0088 04E0     		b	.L7
 180              	.L9:
 248:Middlewares/FreeRTOS/portable/heap_4.c ****                 {
 249:Middlewares/FreeRTOS/portable/heap_4.c ****                     pxPreviousBlock = pxBlock;
 181              		.loc 1 249 37
 182 008a FB69     		ldr	r3, [r7, #28]
 183 008c BB61     		str	r3, [r7, #24]
 250:Middlewares/FreeRTOS/portable/heap_4.c ****                     pxBlock = heapPROTECT_BLOCK_POINTER( pxBlock->pxNextFreeBlock );
 184              		.loc 1 250 29
 185 008e FB69     		ldr	r3, [r7, #28]
 186 0090 1B68     		ldr	r3, [r3]
 187 0092 FB61     		str	r3, [r7, #28]
 188              	.L7:
 247:Middlewares/FreeRTOS/portable/heap_4.c ****                 {
 189              		.loc 1 247 33
 190 0094 FB69     		ldr	r3, [r7, #28]
 191 0096 5B68     		ldr	r3, [r3, #4]
 247:Middlewares/FreeRTOS/portable/heap_4.c ****                 {
 192              		.loc 1 247 62
 193 0098 7A68     		ldr	r2, [r7, #4]
 194 009a 9A42     		cmp	r2, r3
 195 009c 03D9     		bls	.L8
 247:Middlewares/FreeRTOS/portable/heap_4.c ****                 {
 196              		.loc 1 247 74 discriminator 1
 197 009e FB69     		ldr	r3, [r7, #28]
 198 00a0 1B68     		ldr	r3, [r3]
 247:Middlewares/FreeRTOS/portable/heap_4.c ****                 {
 199              		.loc 1 247 62 discriminator 1
 200 00a2 002B     		cmp	r3, #0
 201 00a4 F1D1     		bne	.L9
 202              	.L8:
 251:Middlewares/FreeRTOS/portable/heap_4.c ****                     heapVALIDATE_BLOCK_POINTER( pxBlock );
 252:Middlewares/FreeRTOS/portable/heap_4.c ****                 }
 253:Middlewares/FreeRTOS/portable/heap_4.c **** 
 254:Middlewares/FreeRTOS/portable/heap_4.c ****                 /* If the end marker was reached then a block of adequate size
 255:Middlewares/FreeRTOS/portable/heap_4.c ****                  * was not found. */
 256:Middlewares/FreeRTOS/portable/heap_4.c ****                 if( pxBlock != pxEnd )
 203              		.loc 1 256 29
 204 00a6 284B     		ldr	r3, .L13
 205 00a8 1B68     		ldr	r3, [r3]
 206              		.loc 1 256 19
 207 00aa FA69     		ldr	r2, [r7, #28]
 208 00ac 9A42     		cmp	r2, r3
ARM GAS  /tmp/ccu8DzYi.s 			page 9


 209 00ae 43D0     		beq	.L6
 257:Middlewares/FreeRTOS/portable/heap_4.c ****                 {
 258:Middlewares/FreeRTOS/portable/heap_4.c ****                     /* Return the memory space pointed to - jumping over the
 259:Middlewares/FreeRTOS/portable/heap_4.c ****                      * BlockLink_t structure at its start. */
 260:Middlewares/FreeRTOS/portable/heap_4.c ****                     pvReturn = ( void * ) ( ( ( uint8_t * ) heapPROTECT_BLOCK_POINTER( pxPreviousBl
 210              		.loc 1 260 61
 211 00b0 BB69     		ldr	r3, [r7, #24]
 212 00b2 1B68     		ldr	r3, [r3]
 213              		.loc 1 260 32
 214 00b4 0822     		movs	r2, #8
 215              		.loc 1 260 30
 216 00b6 1344     		add	r3, r3, r2
 217 00b8 7B61     		str	r3, [r7, #20]
 261:Middlewares/FreeRTOS/portable/heap_4.c ****                     heapVALIDATE_BLOCK_POINTER( pvReturn );
 262:Middlewares/FreeRTOS/portable/heap_4.c **** 
 263:Middlewares/FreeRTOS/portable/heap_4.c ****                     /* This block is being returned for use so must be taken out
 264:Middlewares/FreeRTOS/portable/heap_4.c ****                      * of the list of free blocks. */
 265:Middlewares/FreeRTOS/portable/heap_4.c ****                     pxPreviousBlock->pxNextFreeBlock = pxBlock->pxNextFreeBlock;
 218              		.loc 1 265 63
 219 00ba FB69     		ldr	r3, [r7, #28]
 220 00bc 1A68     		ldr	r2, [r3]
 221              		.loc 1 265 54
 222 00be BB69     		ldr	r3, [r7, #24]
 223 00c0 1A60     		str	r2, [r3]
 266:Middlewares/FreeRTOS/portable/heap_4.c **** 
 267:Middlewares/FreeRTOS/portable/heap_4.c ****                     /* If the block is larger than required it can be split into
 268:Middlewares/FreeRTOS/portable/heap_4.c ****                      * two. */
 269:Middlewares/FreeRTOS/portable/heap_4.c ****                     configASSERT( heapSUBTRACT_WILL_UNDERFLOW( pxBlock->xBlockSize, xWantedSize ) =
 270:Middlewares/FreeRTOS/portable/heap_4.c **** 
 271:Middlewares/FreeRTOS/portable/heap_4.c ****                     if( ( pxBlock->xBlockSize - xWantedSize ) > heapMINIMUM_BLOCK_SIZE )
 224              		.loc 1 271 34
 225 00c2 FB69     		ldr	r3, [r7, #28]
 226 00c4 5A68     		ldr	r2, [r3, #4]
 227              		.loc 1 271 47
 228 00c6 7B68     		ldr	r3, [r7, #4]
 229 00c8 D21A     		subs	r2, r2, r3
 230              		.loc 1 271 65
 231 00ca 0823     		movs	r3, #8
 232 00cc 5B00     		lsls	r3, r3, #1
 233              		.loc 1 271 23
 234 00ce 9A42     		cmp	r2, r3
 235 00d0 13D9     		bls	.L10
 272:Middlewares/FreeRTOS/portable/heap_4.c ****                     {
 273:Middlewares/FreeRTOS/portable/heap_4.c ****                         /* This block is to be split into two.  Create a new
 274:Middlewares/FreeRTOS/portable/heap_4.c ****                          * block following the number of bytes requested. The void
 275:Middlewares/FreeRTOS/portable/heap_4.c ****                          * cast is used to prevent byte alignment warnings from the
 276:Middlewares/FreeRTOS/portable/heap_4.c ****                          * compiler. */
 277:Middlewares/FreeRTOS/portable/heap_4.c ****                         pxNewBlockLink = ( void * ) ( ( ( uint8_t * ) pxBlock ) + xWantedSize );
 236              		.loc 1 277 40
 237 00d2 FA69     		ldr	r2, [r7, #28]
 238 00d4 7B68     		ldr	r3, [r7, #4]
 239 00d6 1344     		add	r3, r3, r2
 240 00d8 FB60     		str	r3, [r7, #12]
 278:Middlewares/FreeRTOS/portable/heap_4.c ****                         configASSERT( ( ( ( size_t ) pxNewBlockLink ) & portBYTE_ALIGNMENT_MASK ) =
 279:Middlewares/FreeRTOS/portable/heap_4.c **** 
 280:Middlewares/FreeRTOS/portable/heap_4.c ****                         /* Calculate the sizes of two blocks split from the
 281:Middlewares/FreeRTOS/portable/heap_4.c ****                          * single block. */
ARM GAS  /tmp/ccu8DzYi.s 			page 10


 282:Middlewares/FreeRTOS/portable/heap_4.c ****                         pxNewBlockLink->xBlockSize = pxBlock->xBlockSize - xWantedSize;
 241              		.loc 1 282 61
 242 00da FB69     		ldr	r3, [r7, #28]
 243 00dc 5A68     		ldr	r2, [r3, #4]
 244              		.loc 1 282 74
 245 00de 7B68     		ldr	r3, [r7, #4]
 246 00e0 D21A     		subs	r2, r2, r3
 247              		.loc 1 282 52
 248 00e2 FB68     		ldr	r3, [r7, #12]
 249 00e4 5A60     		str	r2, [r3, #4]
 283:Middlewares/FreeRTOS/portable/heap_4.c ****                         pxBlock->xBlockSize = xWantedSize;
 250              		.loc 1 283 45
 251 00e6 FB69     		ldr	r3, [r7, #28]
 252 00e8 7A68     		ldr	r2, [r7, #4]
 253 00ea 5A60     		str	r2, [r3, #4]
 284:Middlewares/FreeRTOS/portable/heap_4.c **** 
 285:Middlewares/FreeRTOS/portable/heap_4.c ****                         /* Insert the new block into the list of free blocks. */
 286:Middlewares/FreeRTOS/portable/heap_4.c ****                         pxNewBlockLink->pxNextFreeBlock = pxPreviousBlock->pxNextFreeBlock;
 254              		.loc 1 286 74
 255 00ec BB69     		ldr	r3, [r7, #24]
 256 00ee 1A68     		ldr	r2, [r3]
 257              		.loc 1 286 57
 258 00f0 FB68     		ldr	r3, [r7, #12]
 259 00f2 1A60     		str	r2, [r3]
 287:Middlewares/FreeRTOS/portable/heap_4.c ****                         pxPreviousBlock->pxNextFreeBlock = heapPROTECT_BLOCK_POINTER( pxNewBlockLin
 260              		.loc 1 287 58
 261 00f4 BB69     		ldr	r3, [r7, #24]
 262 00f6 FA68     		ldr	r2, [r7, #12]
 263 00f8 1A60     		str	r2, [r3]
 264              	.L10:
 288:Middlewares/FreeRTOS/portable/heap_4.c ****                     }
 289:Middlewares/FreeRTOS/portable/heap_4.c ****                     else
 290:Middlewares/FreeRTOS/portable/heap_4.c ****                     {
 291:Middlewares/FreeRTOS/portable/heap_4.c ****                         mtCOVERAGE_TEST_MARKER();
 292:Middlewares/FreeRTOS/portable/heap_4.c ****                     }
 293:Middlewares/FreeRTOS/portable/heap_4.c **** 
 294:Middlewares/FreeRTOS/portable/heap_4.c ****                     xFreeBytesRemaining -= pxBlock->xBlockSize;
 265              		.loc 1 294 41
 266 00fa 144B     		ldr	r3, .L13+4
 267 00fc 1A68     		ldr	r2, [r3]
 268              		.loc 1 294 51
 269 00fe FB69     		ldr	r3, [r7, #28]
 270 0100 5B68     		ldr	r3, [r3, #4]
 271              		.loc 1 294 41
 272 0102 D31A     		subs	r3, r2, r3
 273 0104 114A     		ldr	r2, .L13+4
 274 0106 1360     		str	r3, [r2]
 295:Middlewares/FreeRTOS/portable/heap_4.c **** 
 296:Middlewares/FreeRTOS/portable/heap_4.c ****                     if( xFreeBytesRemaining < xMinimumEverFreeBytesRemaining )
 275              		.loc 1 296 45
 276 0108 104B     		ldr	r3, .L13+4
 277 010a 1A68     		ldr	r2, [r3]
 278 010c 114B     		ldr	r3, .L13+12
 279 010e 1B68     		ldr	r3, [r3]
 280              		.loc 1 296 23
 281 0110 9A42     		cmp	r2, r3
 282 0112 03D2     		bcs	.L11
ARM GAS  /tmp/ccu8DzYi.s 			page 11


 297:Middlewares/FreeRTOS/portable/heap_4.c ****                     {
 298:Middlewares/FreeRTOS/portable/heap_4.c ****                         xMinimumEverFreeBytesRemaining = xFreeBytesRemaining;
 283              		.loc 1 298 56
 284 0114 0D4B     		ldr	r3, .L13+4
 285 0116 1B68     		ldr	r3, [r3]
 286 0118 0E4A     		ldr	r2, .L13+12
 287 011a 1360     		str	r3, [r2]
 288              	.L11:
 299:Middlewares/FreeRTOS/portable/heap_4.c ****                     }
 300:Middlewares/FreeRTOS/portable/heap_4.c ****                     else
 301:Middlewares/FreeRTOS/portable/heap_4.c ****                     {
 302:Middlewares/FreeRTOS/portable/heap_4.c ****                         mtCOVERAGE_TEST_MARKER();
 303:Middlewares/FreeRTOS/portable/heap_4.c ****                     }
 304:Middlewares/FreeRTOS/portable/heap_4.c **** 
 305:Middlewares/FreeRTOS/portable/heap_4.c ****                     /* The block is being returned - it is allocated and owned
 306:Middlewares/FreeRTOS/portable/heap_4.c ****                      * by the application and has no "next" block. */
 307:Middlewares/FreeRTOS/portable/heap_4.c ****                     heapALLOCATE_BLOCK( pxBlock );
 289              		.loc 1 307 21
 290 011c FB69     		ldr	r3, [r7, #28]
 291 011e 5B68     		ldr	r3, [r3, #4]
 292 0120 43F00042 		orr	r2, r3, #-2147483648
 293 0124 FB69     		ldr	r3, [r7, #28]
 294 0126 5A60     		str	r2, [r3, #4]
 308:Middlewares/FreeRTOS/portable/heap_4.c ****                     pxBlock->pxNextFreeBlock = NULL;
 295              		.loc 1 308 46
 296 0128 FB69     		ldr	r3, [r7, #28]
 297 012a 0022     		movs	r2, #0
 298 012c 1A60     		str	r2, [r3]
 309:Middlewares/FreeRTOS/portable/heap_4.c ****                     xNumberOfSuccessfulAllocations++;
 299              		.loc 1 309 51
 300 012e 0A4B     		ldr	r3, .L13+16
 301 0130 1B68     		ldr	r3, [r3]
 302 0132 0133     		adds	r3, r3, #1
 303 0134 084A     		ldr	r2, .L13+16
 304 0136 1360     		str	r3, [r2]
 305              	.L6:
 310:Middlewares/FreeRTOS/portable/heap_4.c ****                 }
 311:Middlewares/FreeRTOS/portable/heap_4.c ****                 else
 312:Middlewares/FreeRTOS/portable/heap_4.c ****                 {
 313:Middlewares/FreeRTOS/portable/heap_4.c ****                     mtCOVERAGE_TEST_MARKER();
 314:Middlewares/FreeRTOS/portable/heap_4.c ****                 }
 315:Middlewares/FreeRTOS/portable/heap_4.c ****             }
 316:Middlewares/FreeRTOS/portable/heap_4.c ****             else
 317:Middlewares/FreeRTOS/portable/heap_4.c ****             {
 318:Middlewares/FreeRTOS/portable/heap_4.c ****                 mtCOVERAGE_TEST_MARKER();
 319:Middlewares/FreeRTOS/portable/heap_4.c ****             }
 320:Middlewares/FreeRTOS/portable/heap_4.c ****         }
 321:Middlewares/FreeRTOS/portable/heap_4.c ****         else
 322:Middlewares/FreeRTOS/portable/heap_4.c ****         {
 323:Middlewares/FreeRTOS/portable/heap_4.c ****             mtCOVERAGE_TEST_MARKER();
 324:Middlewares/FreeRTOS/portable/heap_4.c ****         }
 325:Middlewares/FreeRTOS/portable/heap_4.c **** 
 326:Middlewares/FreeRTOS/portable/heap_4.c ****         traceMALLOC( pvReturn, xWantedSize );
 327:Middlewares/FreeRTOS/portable/heap_4.c ****     }
 328:Middlewares/FreeRTOS/portable/heap_4.c ****     ( void ) xTaskResumeAll();
 306              		.loc 1 328 14
 307 0138 FFF7FEFF 		bl	xTaskResumeAll
ARM GAS  /tmp/ccu8DzYi.s 			page 12


 329:Middlewares/FreeRTOS/portable/heap_4.c **** 
 330:Middlewares/FreeRTOS/portable/heap_4.c ****     #if ( configUSE_MALLOC_FAILED_HOOK == 1 )
 331:Middlewares/FreeRTOS/portable/heap_4.c ****     {
 332:Middlewares/FreeRTOS/portable/heap_4.c ****         if( pvReturn == NULL )
 333:Middlewares/FreeRTOS/portable/heap_4.c ****         {
 334:Middlewares/FreeRTOS/portable/heap_4.c ****             vApplicationMallocFailedHook();
 335:Middlewares/FreeRTOS/portable/heap_4.c ****         }
 336:Middlewares/FreeRTOS/portable/heap_4.c ****         else
 337:Middlewares/FreeRTOS/portable/heap_4.c ****         {
 338:Middlewares/FreeRTOS/portable/heap_4.c ****             mtCOVERAGE_TEST_MARKER();
 339:Middlewares/FreeRTOS/portable/heap_4.c ****         }
 340:Middlewares/FreeRTOS/portable/heap_4.c ****     }
 341:Middlewares/FreeRTOS/portable/heap_4.c ****     #endif /* if ( configUSE_MALLOC_FAILED_HOOK == 1 ) */
 342:Middlewares/FreeRTOS/portable/heap_4.c **** 
 343:Middlewares/FreeRTOS/portable/heap_4.c ****     configASSERT( ( ( ( size_t ) pvReturn ) & ( size_t ) portBYTE_ALIGNMENT_MASK ) == 0 );
 344:Middlewares/FreeRTOS/portable/heap_4.c ****     return pvReturn;
 308              		.loc 1 344 12
 309 013c 7B69     		ldr	r3, [r7, #20]
 345:Middlewares/FreeRTOS/portable/heap_4.c **** }
 310              		.loc 1 345 1
 311 013e 1846     		mov	r0, r3
 312 0140 2037     		adds	r7, r7, #32
 313              		.cfi_def_cfa_offset 8
 314 0142 BD46     		mov	sp, r7
 315              		.cfi_def_cfa_register 13
 316              		@ sp needed
 317 0144 80BD     		pop	{r7, pc}
 318              	.L14:
 319 0146 00BF     		.align	2
 320              	.L13:
 321 0148 00000000 		.word	pxEnd
 322 014c 00000000 		.word	xFreeBytesRemaining
 323 0150 00000000 		.word	xStart
 324 0154 00000000 		.word	xMinimumEverFreeBytesRemaining
 325 0158 00000000 		.word	xNumberOfSuccessfulAllocations
 326              		.cfi_endproc
 327              	.LFE4:
 329              		.section	.text.vPortFree,"ax",%progbits
 330              		.align	1
 331              		.global	vPortFree
 332              		.syntax unified
 333              		.thumb
 334              		.thumb_func
 336              	vPortFree:
 337              	.LFB5:
 346:Middlewares/FreeRTOS/portable/heap_4.c **** /*-----------------------------------------------------------*/
 347:Middlewares/FreeRTOS/portable/heap_4.c **** 
 348:Middlewares/FreeRTOS/portable/heap_4.c **** void vPortFree( void * pv )
 349:Middlewares/FreeRTOS/portable/heap_4.c **** {
 338              		.loc 1 349 1
 339              		.cfi_startproc
 340              		@ args = 0, pretend = 0, frame = 16
 341              		@ frame_needed = 1, uses_anonymous_args = 0
 342 0000 80B5     		push	{r7, lr}
 343              		.cfi_def_cfa_offset 8
 344              		.cfi_offset 7, -8
 345              		.cfi_offset 14, -4
ARM GAS  /tmp/ccu8DzYi.s 			page 13


 346 0002 84B0     		sub	sp, sp, #16
 347              		.cfi_def_cfa_offset 24
 348 0004 00AF     		add	r7, sp, #0
 349              		.cfi_def_cfa_register 7
 350 0006 7860     		str	r0, [r7, #4]
 350:Middlewares/FreeRTOS/portable/heap_4.c ****     uint8_t * puc = ( uint8_t * ) pv;
 351              		.loc 1 350 15
 352 0008 7B68     		ldr	r3, [r7, #4]
 353 000a FB60     		str	r3, [r7, #12]
 351:Middlewares/FreeRTOS/portable/heap_4.c ****     BlockLink_t * pxLink;
 352:Middlewares/FreeRTOS/portable/heap_4.c **** 
 353:Middlewares/FreeRTOS/portable/heap_4.c ****     if( pv != NULL )
 354              		.loc 1 353 7
 355 000c 7B68     		ldr	r3, [r7, #4]
 356 000e 002B     		cmp	r3, #0
 357 0010 27D0     		beq	.L17
 354:Middlewares/FreeRTOS/portable/heap_4.c ****     {
 355:Middlewares/FreeRTOS/portable/heap_4.c ****         /* The memory being freed will have an BlockLink_t structure immediately
 356:Middlewares/FreeRTOS/portable/heap_4.c ****          * before it. */
 357:Middlewares/FreeRTOS/portable/heap_4.c ****         puc -= xHeapStructSize;
 358              		.loc 1 357 13
 359 0012 0823     		movs	r3, #8
 360 0014 5B42     		rsbs	r3, r3, #0
 361 0016 FA68     		ldr	r2, [r7, #12]
 362 0018 1344     		add	r3, r3, r2
 363 001a FB60     		str	r3, [r7, #12]
 358:Middlewares/FreeRTOS/portable/heap_4.c **** 
 359:Middlewares/FreeRTOS/portable/heap_4.c ****         /* This casting is to keep the compiler from issuing warnings. */
 360:Middlewares/FreeRTOS/portable/heap_4.c ****         pxLink = ( void * ) puc;
 364              		.loc 1 360 16
 365 001c FB68     		ldr	r3, [r7, #12]
 366 001e BB60     		str	r3, [r7, #8]
 361:Middlewares/FreeRTOS/portable/heap_4.c **** 
 362:Middlewares/FreeRTOS/portable/heap_4.c ****         heapVALIDATE_BLOCK_POINTER( pxLink );
 363:Middlewares/FreeRTOS/portable/heap_4.c ****         configASSERT( heapBLOCK_IS_ALLOCATED( pxLink ) != 0 );
 364:Middlewares/FreeRTOS/portable/heap_4.c ****         configASSERT( pxLink->pxNextFreeBlock == NULL );
 365:Middlewares/FreeRTOS/portable/heap_4.c **** 
 366:Middlewares/FreeRTOS/portable/heap_4.c ****         if( heapBLOCK_IS_ALLOCATED( pxLink ) != 0 )
 367              		.loc 1 366 13
 368 0020 BB68     		ldr	r3, [r7, #8]
 369 0022 5B68     		ldr	r3, [r3, #4]
 370              		.loc 1 366 11
 371 0024 002B     		cmp	r3, #0
 372 0026 1CDA     		bge	.L17
 367:Middlewares/FreeRTOS/portable/heap_4.c ****         {
 368:Middlewares/FreeRTOS/portable/heap_4.c ****             if( pxLink->pxNextFreeBlock == NULL )
 373              		.loc 1 368 23
 374 0028 BB68     		ldr	r3, [r7, #8]
 375 002a 1B68     		ldr	r3, [r3]
 376              		.loc 1 368 15
 377 002c 002B     		cmp	r3, #0
 378 002e 18D1     		bne	.L17
 369:Middlewares/FreeRTOS/portable/heap_4.c ****             {
 370:Middlewares/FreeRTOS/portable/heap_4.c ****                 /* The block is being returned to the heap - it is no longer
 371:Middlewares/FreeRTOS/portable/heap_4.c ****                  * allocated. */
 372:Middlewares/FreeRTOS/portable/heap_4.c ****                 heapFREE_BLOCK( pxLink );
 379              		.loc 1 372 17
ARM GAS  /tmp/ccu8DzYi.s 			page 14


 380 0030 BB68     		ldr	r3, [r7, #8]
 381 0032 5B68     		ldr	r3, [r3, #4]
 382 0034 23F00042 		bic	r2, r3, #-2147483648
 383 0038 BB68     		ldr	r3, [r7, #8]
 384 003a 5A60     		str	r2, [r3, #4]
 373:Middlewares/FreeRTOS/portable/heap_4.c ****                 #if ( configHEAP_CLEAR_MEMORY_ON_FREE == 1 )
 374:Middlewares/FreeRTOS/portable/heap_4.c ****                 {
 375:Middlewares/FreeRTOS/portable/heap_4.c ****                     /* Check for underflow as this can occur if xBlockSize is
 376:Middlewares/FreeRTOS/portable/heap_4.c ****                      * overwritten in a heap block. */
 377:Middlewares/FreeRTOS/portable/heap_4.c ****                     if( heapSUBTRACT_WILL_UNDERFLOW( pxLink->xBlockSize, xHeapStructSize ) == 0 )
 378:Middlewares/FreeRTOS/portable/heap_4.c ****                     {
 379:Middlewares/FreeRTOS/portable/heap_4.c ****                         ( void ) memset( puc + xHeapStructSize, 0, pxLink->xBlockSize - xHeapStruct
 380:Middlewares/FreeRTOS/portable/heap_4.c ****                     }
 381:Middlewares/FreeRTOS/portable/heap_4.c ****                 }
 382:Middlewares/FreeRTOS/portable/heap_4.c ****                 #endif
 383:Middlewares/FreeRTOS/portable/heap_4.c **** 
 384:Middlewares/FreeRTOS/portable/heap_4.c ****                 vTaskSuspendAll();
 385              		.loc 1 384 17
 386 003c FFF7FEFF 		bl	vTaskSuspendAll
 385:Middlewares/FreeRTOS/portable/heap_4.c ****                 {
 386:Middlewares/FreeRTOS/portable/heap_4.c ****                     /* Add this block to the list of free blocks. */
 387:Middlewares/FreeRTOS/portable/heap_4.c ****                     xFreeBytesRemaining += pxLink->xBlockSize;
 387              		.loc 1 387 50
 388 0040 BB68     		ldr	r3, [r7, #8]
 389 0042 5A68     		ldr	r2, [r3, #4]
 390              		.loc 1 387 41
 391 0044 094B     		ldr	r3, .L18
 392 0046 1B68     		ldr	r3, [r3]
 393 0048 1344     		add	r3, r3, r2
 394 004a 084A     		ldr	r2, .L18
 395 004c 1360     		str	r3, [r2]
 388:Middlewares/FreeRTOS/portable/heap_4.c ****                     traceFREE( pv, pxLink->xBlockSize );
 389:Middlewares/FreeRTOS/portable/heap_4.c ****                     prvInsertBlockIntoFreeList( ( ( BlockLink_t * ) pxLink ) );
 396              		.loc 1 389 21
 397 004e B868     		ldr	r0, [r7, #8]
 398 0050 FFF7FEFF 		bl	prvInsertBlockIntoFreeList
 390:Middlewares/FreeRTOS/portable/heap_4.c ****                     xNumberOfSuccessfulFrees++;
 399              		.loc 1 390 45
 400 0054 064B     		ldr	r3, .L18+4
 401 0056 1B68     		ldr	r3, [r3]
 402 0058 0133     		adds	r3, r3, #1
 403 005a 054A     		ldr	r2, .L18+4
 404 005c 1360     		str	r3, [r2]
 391:Middlewares/FreeRTOS/portable/heap_4.c ****                 }
 392:Middlewares/FreeRTOS/portable/heap_4.c ****                 ( void ) xTaskResumeAll();
 405              		.loc 1 392 26
 406 005e FFF7FEFF 		bl	xTaskResumeAll
 407              	.L17:
 393:Middlewares/FreeRTOS/portable/heap_4.c ****             }
 394:Middlewares/FreeRTOS/portable/heap_4.c ****             else
 395:Middlewares/FreeRTOS/portable/heap_4.c ****             {
 396:Middlewares/FreeRTOS/portable/heap_4.c ****                 mtCOVERAGE_TEST_MARKER();
 397:Middlewares/FreeRTOS/portable/heap_4.c ****             }
 398:Middlewares/FreeRTOS/portable/heap_4.c ****         }
 399:Middlewares/FreeRTOS/portable/heap_4.c ****         else
 400:Middlewares/FreeRTOS/portable/heap_4.c ****         {
 401:Middlewares/FreeRTOS/portable/heap_4.c ****             mtCOVERAGE_TEST_MARKER();
ARM GAS  /tmp/ccu8DzYi.s 			page 15


 402:Middlewares/FreeRTOS/portable/heap_4.c ****         }
 403:Middlewares/FreeRTOS/portable/heap_4.c ****     }
 404:Middlewares/FreeRTOS/portable/heap_4.c **** }
 408              		.loc 1 404 1
 409 0062 00BF     		nop
 410 0064 1037     		adds	r7, r7, #16
 411              		.cfi_def_cfa_offset 8
 412 0066 BD46     		mov	sp, r7
 413              		.cfi_def_cfa_register 13
 414              		@ sp needed
 415 0068 80BD     		pop	{r7, pc}
 416              	.L19:
 417 006a 00BF     		.align	2
 418              	.L18:
 419 006c 00000000 		.word	xFreeBytesRemaining
 420 0070 00000000 		.word	xNumberOfSuccessfulFrees
 421              		.cfi_endproc
 422              	.LFE5:
 424              		.section	.text.xPortGetFreeHeapSize,"ax",%progbits
 425              		.align	1
 426              		.global	xPortGetFreeHeapSize
 427              		.syntax unified
 428              		.thumb
 429              		.thumb_func
 431              	xPortGetFreeHeapSize:
 432              	.LFB6:
 405:Middlewares/FreeRTOS/portable/heap_4.c **** /*-----------------------------------------------------------*/
 406:Middlewares/FreeRTOS/portable/heap_4.c **** 
 407:Middlewares/FreeRTOS/portable/heap_4.c **** size_t xPortGetFreeHeapSize( void )
 408:Middlewares/FreeRTOS/portable/heap_4.c **** {
 433              		.loc 1 408 1
 434              		.cfi_startproc
 435              		@ args = 0, pretend = 0, frame = 0
 436              		@ frame_needed = 1, uses_anonymous_args = 0
 437              		@ link register save eliminated.
 438 0000 80B4     		push	{r7}
 439              		.cfi_def_cfa_offset 4
 440              		.cfi_offset 7, -4
 441 0002 00AF     		add	r7, sp, #0
 442              		.cfi_def_cfa_register 7
 409:Middlewares/FreeRTOS/portable/heap_4.c ****     return xFreeBytesRemaining;
 443              		.loc 1 409 12
 444 0004 034B     		ldr	r3, .L22
 445 0006 1B68     		ldr	r3, [r3]
 410:Middlewares/FreeRTOS/portable/heap_4.c **** }
 446              		.loc 1 410 1
 447 0008 1846     		mov	r0, r3
 448 000a BD46     		mov	sp, r7
 449              		.cfi_def_cfa_register 13
 450              		@ sp needed
 451 000c 5DF8047B 		ldr	r7, [sp], #4
 452              		.cfi_restore 7
 453              		.cfi_def_cfa_offset 0
 454 0010 7047     		bx	lr
 455              	.L23:
 456 0012 00BF     		.align	2
 457              	.L22:
ARM GAS  /tmp/ccu8DzYi.s 			page 16


 458 0014 00000000 		.word	xFreeBytesRemaining
 459              		.cfi_endproc
 460              	.LFE6:
 462              		.section	.text.xPortGetMinimumEverFreeHeapSize,"ax",%progbits
 463              		.align	1
 464              		.global	xPortGetMinimumEverFreeHeapSize
 465              		.syntax unified
 466              		.thumb
 467              		.thumb_func
 469              	xPortGetMinimumEverFreeHeapSize:
 470              	.LFB7:
 411:Middlewares/FreeRTOS/portable/heap_4.c **** /*-----------------------------------------------------------*/
 412:Middlewares/FreeRTOS/portable/heap_4.c **** 
 413:Middlewares/FreeRTOS/portable/heap_4.c **** size_t xPortGetMinimumEverFreeHeapSize( void )
 414:Middlewares/FreeRTOS/portable/heap_4.c **** {
 471              		.loc 1 414 1
 472              		.cfi_startproc
 473              		@ args = 0, pretend = 0, frame = 0
 474              		@ frame_needed = 1, uses_anonymous_args = 0
 475              		@ link register save eliminated.
 476 0000 80B4     		push	{r7}
 477              		.cfi_def_cfa_offset 4
 478              		.cfi_offset 7, -4
 479 0002 00AF     		add	r7, sp, #0
 480              		.cfi_def_cfa_register 7
 415:Middlewares/FreeRTOS/portable/heap_4.c ****     return xMinimumEverFreeBytesRemaining;
 481              		.loc 1 415 12
 482 0004 034B     		ldr	r3, .L26
 483 0006 1B68     		ldr	r3, [r3]
 416:Middlewares/FreeRTOS/portable/heap_4.c **** }
 484              		.loc 1 416 1
 485 0008 1846     		mov	r0, r3
 486 000a BD46     		mov	sp, r7
 487              		.cfi_def_cfa_register 13
 488              		@ sp needed
 489 000c 5DF8047B 		ldr	r7, [sp], #4
 490              		.cfi_restore 7
 491              		.cfi_def_cfa_offset 0
 492 0010 7047     		bx	lr
 493              	.L27:
 494 0012 00BF     		.align	2
 495              	.L26:
 496 0014 00000000 		.word	xMinimumEverFreeBytesRemaining
 497              		.cfi_endproc
 498              	.LFE7:
 500              		.section	.text.vPortInitialiseBlocks,"ax",%progbits
 501              		.align	1
 502              		.global	vPortInitialiseBlocks
 503              		.syntax unified
 504              		.thumb
 505              		.thumb_func
 507              	vPortInitialiseBlocks:
 508              	.LFB8:
 417:Middlewares/FreeRTOS/portable/heap_4.c **** /*-----------------------------------------------------------*/
 418:Middlewares/FreeRTOS/portable/heap_4.c **** 
 419:Middlewares/FreeRTOS/portable/heap_4.c **** void vPortInitialiseBlocks( void )
 420:Middlewares/FreeRTOS/portable/heap_4.c **** {
ARM GAS  /tmp/ccu8DzYi.s 			page 17


 509              		.loc 1 420 1
 510              		.cfi_startproc
 511              		@ args = 0, pretend = 0, frame = 0
 512              		@ frame_needed = 1, uses_anonymous_args = 0
 513              		@ link register save eliminated.
 514 0000 80B4     		push	{r7}
 515              		.cfi_def_cfa_offset 4
 516              		.cfi_offset 7, -4
 517 0002 00AF     		add	r7, sp, #0
 518              		.cfi_def_cfa_register 7
 421:Middlewares/FreeRTOS/portable/heap_4.c ****     /* This just exists to keep the linker quiet. */
 422:Middlewares/FreeRTOS/portable/heap_4.c **** }
 519              		.loc 1 422 1
 520 0004 00BF     		nop
 521 0006 BD46     		mov	sp, r7
 522              		.cfi_def_cfa_register 13
 523              		@ sp needed
 524 0008 5DF8047B 		ldr	r7, [sp], #4
 525              		.cfi_restore 7
 526              		.cfi_def_cfa_offset 0
 527 000c 7047     		bx	lr
 528              		.cfi_endproc
 529              	.LFE8:
 531              		.section	.text.pvPortCalloc,"ax",%progbits
 532              		.align	1
 533              		.global	pvPortCalloc
 534              		.syntax unified
 535              		.thumb
 536              		.thumb_func
 538              	pvPortCalloc:
 539              	.LFB9:
 423:Middlewares/FreeRTOS/portable/heap_4.c **** /*-----------------------------------------------------------*/
 424:Middlewares/FreeRTOS/portable/heap_4.c **** 
 425:Middlewares/FreeRTOS/portable/heap_4.c **** void * pvPortCalloc( size_t xNum,
 426:Middlewares/FreeRTOS/portable/heap_4.c ****                      size_t xSize )
 427:Middlewares/FreeRTOS/portable/heap_4.c **** {
 540              		.loc 1 427 1
 541              		.cfi_startproc
 542              		@ args = 0, pretend = 0, frame = 16
 543              		@ frame_needed = 1, uses_anonymous_args = 0
 544 0000 80B5     		push	{r7, lr}
 545              		.cfi_def_cfa_offset 8
 546              		.cfi_offset 7, -8
 547              		.cfi_offset 14, -4
 548 0002 84B0     		sub	sp, sp, #16
 549              		.cfi_def_cfa_offset 24
 550 0004 00AF     		add	r7, sp, #0
 551              		.cfi_def_cfa_register 7
 552 0006 7860     		str	r0, [r7, #4]
 553 0008 3960     		str	r1, [r7]
 428:Middlewares/FreeRTOS/portable/heap_4.c ****     void * pv = NULL;
 554              		.loc 1 428 12
 555 000a 0023     		movs	r3, #0
 556 000c FB60     		str	r3, [r7, #12]
 429:Middlewares/FreeRTOS/portable/heap_4.c **** 
 430:Middlewares/FreeRTOS/portable/heap_4.c ****     if( heapMULTIPLY_WILL_OVERFLOW( xNum, xSize ) == 0 )
 557              		.loc 1 430 9
ARM GAS  /tmp/ccu8DzYi.s 			page 18


 558 000e 7B68     		ldr	r3, [r7, #4]
 559 0010 002B     		cmp	r3, #0
 560 0012 09D0     		beq	.L30
 561              		.loc 1 430 9 is_stmt 0 discriminator 1
 562 0014 4FF0FF32 		mov	r2, #-1
 563 0018 7B68     		ldr	r3, [r7, #4]
 564 001a B2FBF3F3 		udiv	r3, r2, r3
 565 001e 3A68     		ldr	r2, [r7]
 566 0020 9A42     		cmp	r2, r3
 567 0022 01D9     		bls	.L30
 568              		.loc 1 430 9 discriminator 3
 569 0024 0123     		movs	r3, #1
 570              		.loc 1 430 9
 571 0026 00E0     		b	.L31
 572              	.L30:
 573              		.loc 1 430 9 discriminator 4
 574 0028 0023     		movs	r3, #0
 575              	.L31:
 576              		.loc 1 430 7 is_stmt 1 discriminator 6
 577 002a 002B     		cmp	r3, #0
 578 002c 13D1     		bne	.L32
 431:Middlewares/FreeRTOS/portable/heap_4.c ****     {
 432:Middlewares/FreeRTOS/portable/heap_4.c ****         pv = pvPortMalloc( xNum * xSize );
 579              		.loc 1 432 14
 580 002e 7B68     		ldr	r3, [r7, #4]
 581 0030 3A68     		ldr	r2, [r7]
 582 0032 02FB03F3 		mul	r3, r2, r3
 583 0036 1846     		mov	r0, r3
 584 0038 FFF7FEFF 		bl	pvPortMalloc
 585 003c F860     		str	r0, [r7, #12]
 433:Middlewares/FreeRTOS/portable/heap_4.c **** 
 434:Middlewares/FreeRTOS/portable/heap_4.c ****         if( pv != NULL )
 586              		.loc 1 434 11
 587 003e FB68     		ldr	r3, [r7, #12]
 588 0040 002B     		cmp	r3, #0
 589 0042 08D0     		beq	.L32
 435:Middlewares/FreeRTOS/portable/heap_4.c ****         {
 436:Middlewares/FreeRTOS/portable/heap_4.c ****             ( void ) memset( pv, 0, xNum * xSize );
 590              		.loc 1 436 22
 591 0044 7B68     		ldr	r3, [r7, #4]
 592 0046 3A68     		ldr	r2, [r7]
 593 0048 02FB03F3 		mul	r3, r2, r3
 594 004c 1A46     		mov	r2, r3
 595 004e 0021     		movs	r1, #0
 596 0050 F868     		ldr	r0, [r7, #12]
 597 0052 FFF7FEFF 		bl	memset
 598              	.L32:
 437:Middlewares/FreeRTOS/portable/heap_4.c ****         }
 438:Middlewares/FreeRTOS/portable/heap_4.c ****     }
 439:Middlewares/FreeRTOS/portable/heap_4.c **** 
 440:Middlewares/FreeRTOS/portable/heap_4.c ****     return pv;
 599              		.loc 1 440 12
 600 0056 FB68     		ldr	r3, [r7, #12]
 441:Middlewares/FreeRTOS/portable/heap_4.c **** }
 601              		.loc 1 441 1
 602 0058 1846     		mov	r0, r3
 603 005a 1037     		adds	r7, r7, #16
ARM GAS  /tmp/ccu8DzYi.s 			page 19


 604              		.cfi_def_cfa_offset 8
 605 005c BD46     		mov	sp, r7
 606              		.cfi_def_cfa_register 13
 607              		@ sp needed
 608 005e 80BD     		pop	{r7, pc}
 609              		.cfi_endproc
 610              	.LFE9:
 612              		.section	.text.prvHeapInit,"ax",%progbits
 613              		.align	1
 614              		.syntax unified
 615              		.thumb
 616              		.thumb_func
 618              	prvHeapInit:
 619              	.LFB10:
 442:Middlewares/FreeRTOS/portable/heap_4.c **** /*-----------------------------------------------------------*/
 443:Middlewares/FreeRTOS/portable/heap_4.c **** 
 444:Middlewares/FreeRTOS/portable/heap_4.c **** static void prvHeapInit( void ) /* PRIVILEGED_FUNCTION */
 445:Middlewares/FreeRTOS/portable/heap_4.c **** {
 620              		.loc 1 445 1
 621              		.cfi_startproc
 622              		@ args = 0, pretend = 0, frame = 16
 623              		@ frame_needed = 1, uses_anonymous_args = 0
 624              		@ link register save eliminated.
 625 0000 80B4     		push	{r7}
 626              		.cfi_def_cfa_offset 4
 627              		.cfi_offset 7, -4
 628 0002 85B0     		sub	sp, sp, #20
 629              		.cfi_def_cfa_offset 24
 630 0004 00AF     		add	r7, sp, #0
 631              		.cfi_def_cfa_register 7
 446:Middlewares/FreeRTOS/portable/heap_4.c ****     BlockLink_t * pxFirstFreeBlock;
 447:Middlewares/FreeRTOS/portable/heap_4.c ****     portPOINTER_SIZE_TYPE uxStartAddress, uxEndAddress;
 448:Middlewares/FreeRTOS/portable/heap_4.c ****     size_t xTotalHeapSize = configTOTAL_HEAP_SIZE;
 632              		.loc 1 448 12
 633 0006 4FF47053 		mov	r3, #15360
 634 000a BB60     		str	r3, [r7, #8]
 449:Middlewares/FreeRTOS/portable/heap_4.c **** 
 450:Middlewares/FreeRTOS/portable/heap_4.c ****     /* Ensure the heap starts on a correctly aligned boundary. */
 451:Middlewares/FreeRTOS/portable/heap_4.c ****     uxStartAddress = ( portPOINTER_SIZE_TYPE ) ucHeap;
 635              		.loc 1 451 20
 636 000c 244B     		ldr	r3, .L36
 637 000e FB60     		str	r3, [r7, #12]
 452:Middlewares/FreeRTOS/portable/heap_4.c **** 
 453:Middlewares/FreeRTOS/portable/heap_4.c ****     if( ( uxStartAddress & portBYTE_ALIGNMENT_MASK ) != 0 )
 638              		.loc 1 453 26
 639 0010 FB68     		ldr	r3, [r7, #12]
 640 0012 03F00703 		and	r3, r3, #7
 641              		.loc 1 453 7
 642 0016 002B     		cmp	r3, #0
 643 0018 0CD0     		beq	.L35
 454:Middlewares/FreeRTOS/portable/heap_4.c ****     {
 455:Middlewares/FreeRTOS/portable/heap_4.c ****         uxStartAddress += ( portBYTE_ALIGNMENT - 1 );
 644              		.loc 1 455 24
 645 001a FB68     		ldr	r3, [r7, #12]
 646 001c 0733     		adds	r3, r3, #7
 647 001e FB60     		str	r3, [r7, #12]
 456:Middlewares/FreeRTOS/portable/heap_4.c ****         uxStartAddress &= ~( ( portPOINTER_SIZE_TYPE ) portBYTE_ALIGNMENT_MASK );
ARM GAS  /tmp/ccu8DzYi.s 			page 20


 648              		.loc 1 456 24
 649 0020 FB68     		ldr	r3, [r7, #12]
 650 0022 23F00703 		bic	r3, r3, #7
 651 0026 FB60     		str	r3, [r7, #12]
 457:Middlewares/FreeRTOS/portable/heap_4.c ****         xTotalHeapSize -= ( size_t ) ( uxStartAddress - ( portPOINTER_SIZE_TYPE ) ucHeap );
 652              		.loc 1 457 24
 653 0028 BA68     		ldr	r2, [r7, #8]
 654 002a FB68     		ldr	r3, [r7, #12]
 655 002c D31A     		subs	r3, r2, r3
 656 002e 1C4A     		ldr	r2, .L36
 657 0030 1344     		add	r3, r3, r2
 658 0032 BB60     		str	r3, [r7, #8]
 659              	.L35:
 458:Middlewares/FreeRTOS/portable/heap_4.c ****     }
 459:Middlewares/FreeRTOS/portable/heap_4.c **** 
 460:Middlewares/FreeRTOS/portable/heap_4.c ****     #if ( configENABLE_HEAP_PROTECTOR == 1 )
 461:Middlewares/FreeRTOS/portable/heap_4.c ****     {
 462:Middlewares/FreeRTOS/portable/heap_4.c ****         vApplicationGetRandomHeapCanary( &( xHeapCanary ) );
 463:Middlewares/FreeRTOS/portable/heap_4.c ****     }
 464:Middlewares/FreeRTOS/portable/heap_4.c ****     #endif
 465:Middlewares/FreeRTOS/portable/heap_4.c **** 
 466:Middlewares/FreeRTOS/portable/heap_4.c ****     /* xStart is used to hold a pointer to the first item in the list of free
 467:Middlewares/FreeRTOS/portable/heap_4.c ****      * blocks.  The void cast is used to prevent compiler warnings. */
 468:Middlewares/FreeRTOS/portable/heap_4.c ****     xStart.pxNextFreeBlock = ( void * ) heapPROTECT_BLOCK_POINTER( uxStartAddress );
 660              		.loc 1 468 30
 661 0034 FB68     		ldr	r3, [r7, #12]
 662              		.loc 1 468 28
 663 0036 1B4A     		ldr	r2, .L36+4
 664 0038 1360     		str	r3, [r2]
 469:Middlewares/FreeRTOS/portable/heap_4.c ****     xStart.xBlockSize = ( size_t ) 0;
 665              		.loc 1 469 23
 666 003a 1A4B     		ldr	r3, .L36+4
 667 003c 0022     		movs	r2, #0
 668 003e 5A60     		str	r2, [r3, #4]
 470:Middlewares/FreeRTOS/portable/heap_4.c **** 
 471:Middlewares/FreeRTOS/portable/heap_4.c ****     /* pxEnd is used to mark the end of the list of free blocks and is inserted
 472:Middlewares/FreeRTOS/portable/heap_4.c ****      * at the end of the heap space. */
 473:Middlewares/FreeRTOS/portable/heap_4.c ****     uxEndAddress = uxStartAddress + ( portPOINTER_SIZE_TYPE ) xTotalHeapSize;
 669              		.loc 1 473 18
 670 0040 FA68     		ldr	r2, [r7, #12]
 671 0042 BB68     		ldr	r3, [r7, #8]
 672 0044 1344     		add	r3, r3, r2
 673 0046 7B60     		str	r3, [r7, #4]
 474:Middlewares/FreeRTOS/portable/heap_4.c ****     uxEndAddress -= ( portPOINTER_SIZE_TYPE ) xHeapStructSize;
 674              		.loc 1 474 21
 675 0048 0822     		movs	r2, #8
 676              		.loc 1 474 18
 677 004a 7B68     		ldr	r3, [r7, #4]
 678 004c 9B1A     		subs	r3, r3, r2
 679 004e 7B60     		str	r3, [r7, #4]
 475:Middlewares/FreeRTOS/portable/heap_4.c ****     uxEndAddress &= ~( ( portPOINTER_SIZE_TYPE ) portBYTE_ALIGNMENT_MASK );
 680              		.loc 1 475 18
 681 0050 7B68     		ldr	r3, [r7, #4]
 682 0052 23F00703 		bic	r3, r3, #7
 683 0056 7B60     		str	r3, [r7, #4]
 476:Middlewares/FreeRTOS/portable/heap_4.c ****     pxEnd = ( BlockLink_t * ) uxEndAddress;
 684              		.loc 1 476 13
ARM GAS  /tmp/ccu8DzYi.s 			page 21


 685 0058 7B68     		ldr	r3, [r7, #4]
 686              		.loc 1 476 11
 687 005a 134A     		ldr	r2, .L36+8
 688 005c 1360     		str	r3, [r2]
 477:Middlewares/FreeRTOS/portable/heap_4.c ****     pxEnd->xBlockSize = 0;
 689              		.loc 1 477 10
 690 005e 124B     		ldr	r3, .L36+8
 691 0060 1B68     		ldr	r3, [r3]
 692              		.loc 1 477 23
 693 0062 0022     		movs	r2, #0
 694 0064 5A60     		str	r2, [r3, #4]
 478:Middlewares/FreeRTOS/portable/heap_4.c ****     pxEnd->pxNextFreeBlock = heapPROTECT_BLOCK_POINTER( NULL );
 695              		.loc 1 478 10
 696 0066 104B     		ldr	r3, .L36+8
 697 0068 1B68     		ldr	r3, [r3]
 698              		.loc 1 478 28
 699 006a 0022     		movs	r2, #0
 700 006c 1A60     		str	r2, [r3]
 479:Middlewares/FreeRTOS/portable/heap_4.c **** 
 480:Middlewares/FreeRTOS/portable/heap_4.c ****     /* To start with there is a single free block that is sized to take up the
 481:Middlewares/FreeRTOS/portable/heap_4.c ****      * entire heap space, minus the space taken by pxEnd. */
 482:Middlewares/FreeRTOS/portable/heap_4.c ****     pxFirstFreeBlock = ( BlockLink_t * ) uxStartAddress;
 701              		.loc 1 482 22
 702 006e FB68     		ldr	r3, [r7, #12]
 703 0070 3B60     		str	r3, [r7]
 483:Middlewares/FreeRTOS/portable/heap_4.c ****     pxFirstFreeBlock->xBlockSize = ( size_t ) ( uxEndAddress - ( portPOINTER_SIZE_TYPE ) pxFirstFre
 704              		.loc 1 483 64
 705 0072 3B68     		ldr	r3, [r7]
 706              		.loc 1 483 62
 707 0074 7A68     		ldr	r2, [r7, #4]
 708 0076 D21A     		subs	r2, r2, r3
 709              		.loc 1 483 34
 710 0078 3B68     		ldr	r3, [r7]
 711 007a 5A60     		str	r2, [r3, #4]
 484:Middlewares/FreeRTOS/portable/heap_4.c ****     pxFirstFreeBlock->pxNextFreeBlock = heapPROTECT_BLOCK_POINTER( pxEnd );
 712              		.loc 1 484 39
 713 007c 0A4B     		ldr	r3, .L36+8
 714 007e 1A68     		ldr	r2, [r3]
 715 0080 3B68     		ldr	r3, [r7]
 716 0082 1A60     		str	r2, [r3]
 485:Middlewares/FreeRTOS/portable/heap_4.c **** 
 486:Middlewares/FreeRTOS/portable/heap_4.c ****     /* Only one block exists - and it covers the entire usable heap space. */
 487:Middlewares/FreeRTOS/portable/heap_4.c ****     xMinimumEverFreeBytesRemaining = pxFirstFreeBlock->xBlockSize;
 717              		.loc 1 487 54
 718 0084 3B68     		ldr	r3, [r7]
 719 0086 5B68     		ldr	r3, [r3, #4]
 720              		.loc 1 487 36
 721 0088 084A     		ldr	r2, .L36+12
 722 008a 1360     		str	r3, [r2]
 488:Middlewares/FreeRTOS/portable/heap_4.c ****     xFreeBytesRemaining = pxFirstFreeBlock->xBlockSize;
 723              		.loc 1 488 43
 724 008c 3B68     		ldr	r3, [r7]
 725 008e 5B68     		ldr	r3, [r3, #4]
 726              		.loc 1 488 25
 727 0090 074A     		ldr	r2, .L36+16
 728 0092 1360     		str	r3, [r2]
 489:Middlewares/FreeRTOS/portable/heap_4.c **** }
ARM GAS  /tmp/ccu8DzYi.s 			page 22


 729              		.loc 1 489 1
 730 0094 00BF     		nop
 731 0096 1437     		adds	r7, r7, #20
 732              		.cfi_def_cfa_offset 4
 733 0098 BD46     		mov	sp, r7
 734              		.cfi_def_cfa_register 13
 735              		@ sp needed
 736 009a 5DF8047B 		ldr	r7, [sp], #4
 737              		.cfi_restore 7
 738              		.cfi_def_cfa_offset 0
 739 009e 7047     		bx	lr
 740              	.L37:
 741              		.align	2
 742              	.L36:
 743 00a0 00000000 		.word	ucHeap
 744 00a4 00000000 		.word	xStart
 745 00a8 00000000 		.word	pxEnd
 746 00ac 00000000 		.word	xMinimumEverFreeBytesRemaining
 747 00b0 00000000 		.word	xFreeBytesRemaining
 748              		.cfi_endproc
 749              	.LFE10:
 751              		.section	.text.prvInsertBlockIntoFreeList,"ax",%progbits
 752              		.align	1
 753              		.syntax unified
 754              		.thumb
 755              		.thumb_func
 757              	prvInsertBlockIntoFreeList:
 758              	.LFB11:
 490:Middlewares/FreeRTOS/portable/heap_4.c **** /*-----------------------------------------------------------*/
 491:Middlewares/FreeRTOS/portable/heap_4.c **** 
 492:Middlewares/FreeRTOS/portable/heap_4.c **** static void prvInsertBlockIntoFreeList( BlockLink_t * pxBlockToInsert ) /* PRIVILEGED_FUNCTION */
 493:Middlewares/FreeRTOS/portable/heap_4.c **** {
 759              		.loc 1 493 1
 760              		.cfi_startproc
 761              		@ args = 0, pretend = 0, frame = 16
 762              		@ frame_needed = 1, uses_anonymous_args = 0
 763              		@ link register save eliminated.
 764 0000 80B4     		push	{r7}
 765              		.cfi_def_cfa_offset 4
 766              		.cfi_offset 7, -4
 767 0002 85B0     		sub	sp, sp, #20
 768              		.cfi_def_cfa_offset 24
 769 0004 00AF     		add	r7, sp, #0
 770              		.cfi_def_cfa_register 7
 771 0006 7860     		str	r0, [r7, #4]
 494:Middlewares/FreeRTOS/portable/heap_4.c ****     BlockLink_t * pxIterator;
 495:Middlewares/FreeRTOS/portable/heap_4.c ****     uint8_t * puc;
 496:Middlewares/FreeRTOS/portable/heap_4.c **** 
 497:Middlewares/FreeRTOS/portable/heap_4.c ****     /* Iterate through the list until a block is found that has a higher address
 498:Middlewares/FreeRTOS/portable/heap_4.c ****      * than the block being inserted. */
 499:Middlewares/FreeRTOS/portable/heap_4.c ****     for( pxIterator = &xStart; heapPROTECT_BLOCK_POINTER( pxIterator->pxNextFreeBlock ) < pxBlockTo
 772              		.loc 1 499 21
 773 0008 284B     		ldr	r3, .L47
 774 000a FB60     		str	r3, [r7, #12]
 775              		.loc 1 499 5
 776 000c 02E0     		b	.L39
 777              	.L40:
ARM GAS  /tmp/ccu8DzYi.s 			page 23


 778              		.loc 1 499 119 discriminator 3
 779 000e FB68     		ldr	r3, [r7, #12]
 780 0010 1B68     		ldr	r3, [r3]
 781 0012 FB60     		str	r3, [r7, #12]
 782              	.L39:
 783              		.loc 1 499 32 discriminator 1
 784 0014 FB68     		ldr	r3, [r7, #12]
 785 0016 1B68     		ldr	r3, [r3]
 786              		.loc 1 499 89 discriminator 1
 787 0018 7A68     		ldr	r2, [r7, #4]
 788 001a 9A42     		cmp	r2, r3
 789 001c F7D8     		bhi	.L40
 500:Middlewares/FreeRTOS/portable/heap_4.c ****     {
 501:Middlewares/FreeRTOS/portable/heap_4.c ****         /* Nothing to do here, just iterate to the right position. */
 502:Middlewares/FreeRTOS/portable/heap_4.c ****     }
 503:Middlewares/FreeRTOS/portable/heap_4.c **** 
 504:Middlewares/FreeRTOS/portable/heap_4.c ****     if( pxIterator != &xStart )
 505:Middlewares/FreeRTOS/portable/heap_4.c ****     {
 506:Middlewares/FreeRTOS/portable/heap_4.c ****         heapVALIDATE_BLOCK_POINTER( pxIterator );
 507:Middlewares/FreeRTOS/portable/heap_4.c ****     }
 508:Middlewares/FreeRTOS/portable/heap_4.c **** 
 509:Middlewares/FreeRTOS/portable/heap_4.c ****     /* Do the block being inserted, and the block it is being inserted after
 510:Middlewares/FreeRTOS/portable/heap_4.c ****      * make a contiguous block of memory? */
 511:Middlewares/FreeRTOS/portable/heap_4.c ****     puc = ( uint8_t * ) pxIterator;
 790              		.loc 1 511 9
 791 001e FB68     		ldr	r3, [r7, #12]
 792 0020 BB60     		str	r3, [r7, #8]
 512:Middlewares/FreeRTOS/portable/heap_4.c **** 
 513:Middlewares/FreeRTOS/portable/heap_4.c ****     if( ( puc + pxIterator->xBlockSize ) == ( uint8_t * ) pxBlockToInsert )
 793              		.loc 1 513 27
 794 0022 FB68     		ldr	r3, [r7, #12]
 795 0024 5B68     		ldr	r3, [r3, #4]
 796              		.loc 1 513 15
 797 0026 BA68     		ldr	r2, [r7, #8]
 798 0028 1344     		add	r3, r3, r2
 799              		.loc 1 513 7
 800 002a 7A68     		ldr	r2, [r7, #4]
 801 002c 9A42     		cmp	r2, r3
 802 002e 08D1     		bne	.L41
 514:Middlewares/FreeRTOS/portable/heap_4.c ****     {
 515:Middlewares/FreeRTOS/portable/heap_4.c ****         pxIterator->xBlockSize += pxBlockToInsert->xBlockSize;
 803              		.loc 1 515 19
 804 0030 FB68     		ldr	r3, [r7, #12]
 805 0032 5A68     		ldr	r2, [r3, #4]
 806              		.loc 1 515 50
 807 0034 7B68     		ldr	r3, [r7, #4]
 808 0036 5B68     		ldr	r3, [r3, #4]
 809              		.loc 1 515 32
 810 0038 1A44     		add	r2, r2, r3
 811 003a FB68     		ldr	r3, [r7, #12]
 812 003c 5A60     		str	r2, [r3, #4]
 516:Middlewares/FreeRTOS/portable/heap_4.c ****         pxBlockToInsert = pxIterator;
 813              		.loc 1 516 25
 814 003e FB68     		ldr	r3, [r7, #12]
 815 0040 7B60     		str	r3, [r7, #4]
 816              	.L41:
 517:Middlewares/FreeRTOS/portable/heap_4.c ****     }
ARM GAS  /tmp/ccu8DzYi.s 			page 24


 518:Middlewares/FreeRTOS/portable/heap_4.c ****     else
 519:Middlewares/FreeRTOS/portable/heap_4.c ****     {
 520:Middlewares/FreeRTOS/portable/heap_4.c ****         mtCOVERAGE_TEST_MARKER();
 521:Middlewares/FreeRTOS/portable/heap_4.c ****     }
 522:Middlewares/FreeRTOS/portable/heap_4.c **** 
 523:Middlewares/FreeRTOS/portable/heap_4.c ****     /* Do the block being inserted, and the block it is being inserted before
 524:Middlewares/FreeRTOS/portable/heap_4.c ****      * make a contiguous block of memory? */
 525:Middlewares/FreeRTOS/portable/heap_4.c ****     puc = ( uint8_t * ) pxBlockToInsert;
 817              		.loc 1 525 9
 818 0042 7B68     		ldr	r3, [r7, #4]
 819 0044 BB60     		str	r3, [r7, #8]
 526:Middlewares/FreeRTOS/portable/heap_4.c **** 
 527:Middlewares/FreeRTOS/portable/heap_4.c ****     if( ( puc + pxBlockToInsert->xBlockSize ) == ( uint8_t * ) heapPROTECT_BLOCK_POINTER( pxIterato
 820              		.loc 1 527 32
 821 0046 7B68     		ldr	r3, [r7, #4]
 822 0048 5B68     		ldr	r3, [r3, #4]
 823              		.loc 1 527 15
 824 004a BA68     		ldr	r2, [r7, #8]
 825 004c 1A44     		add	r2, r2, r3
 826              		.loc 1 527 64
 827 004e FB68     		ldr	r3, [r7, #12]
 828 0050 1B68     		ldr	r3, [r3]
 829              		.loc 1 527 7
 830 0052 9A42     		cmp	r2, r3
 831 0054 18D1     		bne	.L42
 528:Middlewares/FreeRTOS/portable/heap_4.c ****     {
 529:Middlewares/FreeRTOS/portable/heap_4.c ****         if( heapPROTECT_BLOCK_POINTER( pxIterator->pxNextFreeBlock ) != pxEnd )
 832              		.loc 1 529 13
 833 0056 FB68     		ldr	r3, [r7, #12]
 834 0058 1A68     		ldr	r2, [r3]
 835              		.loc 1 529 70
 836 005a 154B     		ldr	r3, .L47+4
 837 005c 1B68     		ldr	r3, [r3]
 838              		.loc 1 529 11
 839 005e 9A42     		cmp	r2, r3
 840 0060 0DD0     		beq	.L43
 530:Middlewares/FreeRTOS/portable/heap_4.c ****         {
 531:Middlewares/FreeRTOS/portable/heap_4.c ****             /* Form one big block from the two blocks. */
 532:Middlewares/FreeRTOS/portable/heap_4.c ****             pxBlockToInsert->xBlockSize += heapPROTECT_BLOCK_POINTER( pxIterator->pxNextFreeBlock )
 841              		.loc 1 532 28
 842 0062 7B68     		ldr	r3, [r7, #4]
 843 0064 5A68     		ldr	r2, [r3, #4]
 844              		.loc 1 532 44
 845 0066 FB68     		ldr	r3, [r7, #12]
 846 0068 1B68     		ldr	r3, [r3]
 847              		.loc 1 532 100
 848 006a 5B68     		ldr	r3, [r3, #4]
 849              		.loc 1 532 41
 850 006c 1A44     		add	r2, r2, r3
 851 006e 7B68     		ldr	r3, [r7, #4]
 852 0070 5A60     		str	r2, [r3, #4]
 533:Middlewares/FreeRTOS/portable/heap_4.c ****             pxBlockToInsert->pxNextFreeBlock = heapPROTECT_BLOCK_POINTER( pxIterator->pxNextFreeBlo
 853              		.loc 1 533 48
 854 0072 FB68     		ldr	r3, [r7, #12]
 855 0074 1B68     		ldr	r3, [r3]
 856              		.loc 1 533 104
 857 0076 1A68     		ldr	r2, [r3]
ARM GAS  /tmp/ccu8DzYi.s 			page 25


 858              		.loc 1 533 46
 859 0078 7B68     		ldr	r3, [r7, #4]
 860 007a 1A60     		str	r2, [r3]
 861 007c 08E0     		b	.L44
 862              	.L43:
 534:Middlewares/FreeRTOS/portable/heap_4.c ****         }
 535:Middlewares/FreeRTOS/portable/heap_4.c ****         else
 536:Middlewares/FreeRTOS/portable/heap_4.c ****         {
 537:Middlewares/FreeRTOS/portable/heap_4.c ****             pxBlockToInsert->pxNextFreeBlock = heapPROTECT_BLOCK_POINTER( pxEnd );
 863              		.loc 1 537 46
 864 007e 0C4B     		ldr	r3, .L47+4
 865 0080 1A68     		ldr	r2, [r3]
 866 0082 7B68     		ldr	r3, [r7, #4]
 867 0084 1A60     		str	r2, [r3]
 868 0086 03E0     		b	.L44
 869              	.L42:
 538:Middlewares/FreeRTOS/portable/heap_4.c ****         }
 539:Middlewares/FreeRTOS/portable/heap_4.c ****     }
 540:Middlewares/FreeRTOS/portable/heap_4.c ****     else
 541:Middlewares/FreeRTOS/portable/heap_4.c ****     {
 542:Middlewares/FreeRTOS/portable/heap_4.c ****         pxBlockToInsert->pxNextFreeBlock = pxIterator->pxNextFreeBlock;
 870              		.loc 1 542 54
 871 0088 FB68     		ldr	r3, [r7, #12]
 872 008a 1A68     		ldr	r2, [r3]
 873              		.loc 1 542 42
 874 008c 7B68     		ldr	r3, [r7, #4]
 875 008e 1A60     		str	r2, [r3]
 876              	.L44:
 543:Middlewares/FreeRTOS/portable/heap_4.c ****     }
 544:Middlewares/FreeRTOS/portable/heap_4.c **** 
 545:Middlewares/FreeRTOS/portable/heap_4.c ****     /* If the block being inserted plugged a gab, so was merged with the block
 546:Middlewares/FreeRTOS/portable/heap_4.c ****      * before and the block after, then it's pxNextFreeBlock pointer will have
 547:Middlewares/FreeRTOS/portable/heap_4.c ****      * already been set, and should not be set here as that would make it point
 548:Middlewares/FreeRTOS/portable/heap_4.c ****      * to itself. */
 549:Middlewares/FreeRTOS/portable/heap_4.c ****     if( pxIterator != pxBlockToInsert )
 877              		.loc 1 549 7
 878 0090 FA68     		ldr	r2, [r7, #12]
 879 0092 7B68     		ldr	r3, [r7, #4]
 880 0094 9A42     		cmp	r2, r3
 881 0096 02D0     		beq	.L46
 550:Middlewares/FreeRTOS/portable/heap_4.c ****     {
 551:Middlewares/FreeRTOS/portable/heap_4.c ****         pxIterator->pxNextFreeBlock = heapPROTECT_BLOCK_POINTER( pxBlockToInsert );
 882              		.loc 1 551 37
 883 0098 FB68     		ldr	r3, [r7, #12]
 884 009a 7A68     		ldr	r2, [r7, #4]
 885 009c 1A60     		str	r2, [r3]
 886              	.L46:
 552:Middlewares/FreeRTOS/portable/heap_4.c ****     }
 553:Middlewares/FreeRTOS/portable/heap_4.c ****     else
 554:Middlewares/FreeRTOS/portable/heap_4.c ****     {
 555:Middlewares/FreeRTOS/portable/heap_4.c ****         mtCOVERAGE_TEST_MARKER();
 556:Middlewares/FreeRTOS/portable/heap_4.c ****     }
 557:Middlewares/FreeRTOS/portable/heap_4.c **** }
 887              		.loc 1 557 1
 888 009e 00BF     		nop
 889 00a0 1437     		adds	r7, r7, #20
 890              		.cfi_def_cfa_offset 4
ARM GAS  /tmp/ccu8DzYi.s 			page 26


 891 00a2 BD46     		mov	sp, r7
 892              		.cfi_def_cfa_register 13
 893              		@ sp needed
 894 00a4 5DF8047B 		ldr	r7, [sp], #4
 895              		.cfi_restore 7
 896              		.cfi_def_cfa_offset 0
 897 00a8 7047     		bx	lr
 898              	.L48:
 899 00aa 00BF     		.align	2
 900              	.L47:
 901 00ac 00000000 		.word	xStart
 902 00b0 00000000 		.word	pxEnd
 903              		.cfi_endproc
 904              	.LFE11:
 906              		.section	.text.vPortGetHeapStats,"ax",%progbits
 907              		.align	1
 908              		.global	vPortGetHeapStats
 909              		.syntax unified
 910              		.thumb
 911              		.thumb_func
 913              	vPortGetHeapStats:
 914              	.LFB12:
 558:Middlewares/FreeRTOS/portable/heap_4.c **** /*-----------------------------------------------------------*/
 559:Middlewares/FreeRTOS/portable/heap_4.c **** 
 560:Middlewares/FreeRTOS/portable/heap_4.c **** void vPortGetHeapStats( HeapStats_t * pxHeapStats )
 561:Middlewares/FreeRTOS/portable/heap_4.c **** {
 915              		.loc 1 561 1
 916              		.cfi_startproc
 917              		@ args = 0, pretend = 0, frame = 24
 918              		@ frame_needed = 1, uses_anonymous_args = 0
 919 0000 80B5     		push	{r7, lr}
 920              		.cfi_def_cfa_offset 8
 921              		.cfi_offset 7, -8
 922              		.cfi_offset 14, -4
 923 0002 86B0     		sub	sp, sp, #24
 924              		.cfi_def_cfa_offset 32
 925 0004 00AF     		add	r7, sp, #0
 926              		.cfi_def_cfa_register 7
 927 0006 7860     		str	r0, [r7, #4]
 562:Middlewares/FreeRTOS/portable/heap_4.c ****     BlockLink_t * pxBlock;
 563:Middlewares/FreeRTOS/portable/heap_4.c ****     size_t xBlocks = 0, xMaxSize = 0, xMinSize = portMAX_DELAY; /* portMAX_DELAY used as a portable
 928              		.loc 1 563 12
 929 0008 0023     		movs	r3, #0
 930 000a 3B61     		str	r3, [r7, #16]
 931              		.loc 1 563 25
 932 000c 0023     		movs	r3, #0
 933 000e FB60     		str	r3, [r7, #12]
 934              		.loc 1 563 39
 935 0010 4FF0FF33 		mov	r3, #-1
 936 0014 BB60     		str	r3, [r7, #8]
 564:Middlewares/FreeRTOS/portable/heap_4.c **** 
 565:Middlewares/FreeRTOS/portable/heap_4.c ****     vTaskSuspendAll();
 937              		.loc 1 565 5
 938 0016 FFF7FEFF 		bl	vTaskSuspendAll
 566:Middlewares/FreeRTOS/portable/heap_4.c ****     {
 567:Middlewares/FreeRTOS/portable/heap_4.c ****         pxBlock = heapPROTECT_BLOCK_POINTER( xStart.pxNextFreeBlock );
 939              		.loc 1 567 17
ARM GAS  /tmp/ccu8DzYi.s 			page 27


 940 001a 224B     		ldr	r3, .L55
 941 001c 1B68     		ldr	r3, [r3]
 942 001e 7B61     		str	r3, [r7, #20]
 568:Middlewares/FreeRTOS/portable/heap_4.c **** 
 569:Middlewares/FreeRTOS/portable/heap_4.c ****         /* pxBlock will be NULL if the heap has not been initialised.  The heap
 570:Middlewares/FreeRTOS/portable/heap_4.c ****          * is initialised automatically when the first allocation is made. */
 571:Middlewares/FreeRTOS/portable/heap_4.c ****         if( pxBlock != NULL )
 943              		.loc 1 571 11
 944 0020 7B69     		ldr	r3, [r7, #20]
 945 0022 002B     		cmp	r3, #0
 946 0024 1BD0     		beq	.L50
 572:Middlewares/FreeRTOS/portable/heap_4.c ****         {
 573:Middlewares/FreeRTOS/portable/heap_4.c ****             while( pxBlock != pxEnd )
 947              		.loc 1 573 18
 948 0026 15E0     		b	.L51
 949              	.L54:
 574:Middlewares/FreeRTOS/portable/heap_4.c ****             {
 575:Middlewares/FreeRTOS/portable/heap_4.c ****                 /* Increment the number of blocks and record the largest block seen
 576:Middlewares/FreeRTOS/portable/heap_4.c ****                  * so far. */
 577:Middlewares/FreeRTOS/portable/heap_4.c ****                 xBlocks++;
 950              		.loc 1 577 24
 951 0028 3B69     		ldr	r3, [r7, #16]
 952 002a 0133     		adds	r3, r3, #1
 953 002c 3B61     		str	r3, [r7, #16]
 578:Middlewares/FreeRTOS/portable/heap_4.c **** 
 579:Middlewares/FreeRTOS/portable/heap_4.c ****                 if( pxBlock->xBlockSize > xMaxSize )
 954              		.loc 1 579 28
 955 002e 7B69     		ldr	r3, [r7, #20]
 956 0030 5B68     		ldr	r3, [r3, #4]
 957              		.loc 1 579 19
 958 0032 FA68     		ldr	r2, [r7, #12]
 959 0034 9A42     		cmp	r2, r3
 960 0036 02D2     		bcs	.L52
 580:Middlewares/FreeRTOS/portable/heap_4.c ****                 {
 581:Middlewares/FreeRTOS/portable/heap_4.c ****                     xMaxSize = pxBlock->xBlockSize;
 961              		.loc 1 581 30
 962 0038 7B69     		ldr	r3, [r7, #20]
 963 003a 5B68     		ldr	r3, [r3, #4]
 964 003c FB60     		str	r3, [r7, #12]
 965              	.L52:
 582:Middlewares/FreeRTOS/portable/heap_4.c ****                 }
 583:Middlewares/FreeRTOS/portable/heap_4.c **** 
 584:Middlewares/FreeRTOS/portable/heap_4.c ****                 if( pxBlock->xBlockSize < xMinSize )
 966              		.loc 1 584 28
 967 003e 7B69     		ldr	r3, [r7, #20]
 968 0040 5B68     		ldr	r3, [r3, #4]
 969              		.loc 1 584 19
 970 0042 BA68     		ldr	r2, [r7, #8]
 971 0044 9A42     		cmp	r2, r3
 972 0046 02D9     		bls	.L53
 585:Middlewares/FreeRTOS/portable/heap_4.c ****                 {
 586:Middlewares/FreeRTOS/portable/heap_4.c ****                     xMinSize = pxBlock->xBlockSize;
 973              		.loc 1 586 30
 974 0048 7B69     		ldr	r3, [r7, #20]
 975 004a 5B68     		ldr	r3, [r3, #4]
 976 004c BB60     		str	r3, [r7, #8]
 977              	.L53:
ARM GAS  /tmp/ccu8DzYi.s 			page 28


 587:Middlewares/FreeRTOS/portable/heap_4.c ****                 }
 588:Middlewares/FreeRTOS/portable/heap_4.c **** 
 589:Middlewares/FreeRTOS/portable/heap_4.c ****                 /* Move to the next block in the chain until the last block is
 590:Middlewares/FreeRTOS/portable/heap_4.c ****                  * reached. */
 591:Middlewares/FreeRTOS/portable/heap_4.c ****                 pxBlock = heapPROTECT_BLOCK_POINTER( pxBlock->pxNextFreeBlock );
 978              		.loc 1 591 25
 979 004e 7B69     		ldr	r3, [r7, #20]
 980 0050 1B68     		ldr	r3, [r3]
 981 0052 7B61     		str	r3, [r7, #20]
 982              	.L51:
 573:Middlewares/FreeRTOS/portable/heap_4.c ****             {
 983              		.loc 1 573 28
 984 0054 144B     		ldr	r3, .L55+4
 985 0056 1B68     		ldr	r3, [r3]
 986 0058 7A69     		ldr	r2, [r7, #20]
 987 005a 9A42     		cmp	r2, r3
 988 005c E4D1     		bne	.L54
 989              	.L50:
 592:Middlewares/FreeRTOS/portable/heap_4.c ****             }
 593:Middlewares/FreeRTOS/portable/heap_4.c ****         }
 594:Middlewares/FreeRTOS/portable/heap_4.c ****     }
 595:Middlewares/FreeRTOS/portable/heap_4.c ****     ( void ) xTaskResumeAll();
 990              		.loc 1 595 14
 991 005e FFF7FEFF 		bl	xTaskResumeAll
 596:Middlewares/FreeRTOS/portable/heap_4.c **** 
 597:Middlewares/FreeRTOS/portable/heap_4.c ****     pxHeapStats->xSizeOfLargestFreeBlockInBytes = xMaxSize;
 992              		.loc 1 597 49
 993 0062 7B68     		ldr	r3, [r7, #4]
 994 0064 FA68     		ldr	r2, [r7, #12]
 995 0066 5A60     		str	r2, [r3, #4]
 598:Middlewares/FreeRTOS/portable/heap_4.c ****     pxHeapStats->xSizeOfSmallestFreeBlockInBytes = xMinSize;
 996              		.loc 1 598 50
 997 0068 7B68     		ldr	r3, [r7, #4]
 998 006a BA68     		ldr	r2, [r7, #8]
 999 006c 9A60     		str	r2, [r3, #8]
 599:Middlewares/FreeRTOS/portable/heap_4.c ****     pxHeapStats->xNumberOfFreeBlocks = xBlocks;
 1000              		.loc 1 599 38
 1001 006e 7B68     		ldr	r3, [r7, #4]
 1002 0070 3A69     		ldr	r2, [r7, #16]
 1003 0072 DA60     		str	r2, [r3, #12]
 600:Middlewares/FreeRTOS/portable/heap_4.c **** 
 601:Middlewares/FreeRTOS/portable/heap_4.c ****     taskENTER_CRITICAL();
 1004              		.loc 1 601 5
 1005 0074 FFF7FEFF 		bl	vPortEnterCritical
 602:Middlewares/FreeRTOS/portable/heap_4.c ****     {
 603:Middlewares/FreeRTOS/portable/heap_4.c ****         pxHeapStats->xAvailableHeapSpaceInBytes = xFreeBytesRemaining;
 1006              		.loc 1 603 49
 1007 0078 0C4B     		ldr	r3, .L55+8
 1008 007a 1A68     		ldr	r2, [r3]
 1009 007c 7B68     		ldr	r3, [r7, #4]
 1010 007e 1A60     		str	r2, [r3]
 604:Middlewares/FreeRTOS/portable/heap_4.c ****         pxHeapStats->xNumberOfSuccessfulAllocations = xNumberOfSuccessfulAllocations;
 1011              		.loc 1 604 53
 1012 0080 0B4B     		ldr	r3, .L55+12
 1013 0082 1A68     		ldr	r2, [r3]
 1014 0084 7B68     		ldr	r3, [r7, #4]
 1015 0086 5A61     		str	r2, [r3, #20]
ARM GAS  /tmp/ccu8DzYi.s 			page 29


 605:Middlewares/FreeRTOS/portable/heap_4.c ****         pxHeapStats->xNumberOfSuccessfulFrees = xNumberOfSuccessfulFrees;
 1016              		.loc 1 605 47
 1017 0088 0A4B     		ldr	r3, .L55+16
 1018 008a 1A68     		ldr	r2, [r3]
 1019 008c 7B68     		ldr	r3, [r7, #4]
 1020 008e 9A61     		str	r2, [r3, #24]
 606:Middlewares/FreeRTOS/portable/heap_4.c ****         pxHeapStats->xMinimumEverFreeBytesRemaining = xMinimumEverFreeBytesRemaining;
 1021              		.loc 1 606 53
 1022 0090 094B     		ldr	r3, .L55+20
 1023 0092 1A68     		ldr	r2, [r3]
 1024 0094 7B68     		ldr	r3, [r7, #4]
 1025 0096 1A61     		str	r2, [r3, #16]
 607:Middlewares/FreeRTOS/portable/heap_4.c ****     }
 608:Middlewares/FreeRTOS/portable/heap_4.c ****     taskEXIT_CRITICAL();
 1026              		.loc 1 608 5
 1027 0098 FFF7FEFF 		bl	vPortExitCritical
 609:Middlewares/FreeRTOS/portable/heap_4.c **** }
 1028              		.loc 1 609 1
 1029 009c 00BF     		nop
 1030 009e 1837     		adds	r7, r7, #24
 1031              		.cfi_def_cfa_offset 8
 1032 00a0 BD46     		mov	sp, r7
 1033              		.cfi_def_cfa_register 13
 1034              		@ sp needed
 1035 00a2 80BD     		pop	{r7, pc}
 1036              	.L56:
 1037              		.align	2
 1038              	.L55:
 1039 00a4 00000000 		.word	xStart
 1040 00a8 00000000 		.word	pxEnd
 1041 00ac 00000000 		.word	xFreeBytesRemaining
 1042 00b0 00000000 		.word	xNumberOfSuccessfulAllocations
 1043 00b4 00000000 		.word	xNumberOfSuccessfulFrees
 1044 00b8 00000000 		.word	xMinimumEverFreeBytesRemaining
 1045              		.cfi_endproc
 1046              	.LFE12:
 1048              		.section	.text.vPortHeapResetState,"ax",%progbits
 1049              		.align	1
 1050              		.global	vPortHeapResetState
 1051              		.syntax unified
 1052              		.thumb
 1053              		.thumb_func
 1055              	vPortHeapResetState:
 1056              	.LFB13:
 610:Middlewares/FreeRTOS/portable/heap_4.c **** /*-----------------------------------------------------------*/
 611:Middlewares/FreeRTOS/portable/heap_4.c **** 
 612:Middlewares/FreeRTOS/portable/heap_4.c **** /*
 613:Middlewares/FreeRTOS/portable/heap_4.c ****  * Reset the state in this file. This state is normally initialized at start up.
 614:Middlewares/FreeRTOS/portable/heap_4.c ****  * This function must be called by the application before restarting the
 615:Middlewares/FreeRTOS/portable/heap_4.c ****  * scheduler.
 616:Middlewares/FreeRTOS/portable/heap_4.c ****  */
 617:Middlewares/FreeRTOS/portable/heap_4.c **** void vPortHeapResetState( void )
 618:Middlewares/FreeRTOS/portable/heap_4.c **** {
 1057              		.loc 1 618 1
 1058              		.cfi_startproc
 1059              		@ args = 0, pretend = 0, frame = 0
 1060              		@ frame_needed = 1, uses_anonymous_args = 0
ARM GAS  /tmp/ccu8DzYi.s 			page 30


 1061              		@ link register save eliminated.
 1062 0000 80B4     		push	{r7}
 1063              		.cfi_def_cfa_offset 4
 1064              		.cfi_offset 7, -4
 1065 0002 00AF     		add	r7, sp, #0
 1066              		.cfi_def_cfa_register 7
 619:Middlewares/FreeRTOS/portable/heap_4.c ****     pxEnd = NULL;
 1067              		.loc 1 619 11
 1068 0004 094B     		ldr	r3, .L58
 1069 0006 0022     		movs	r2, #0
 1070 0008 1A60     		str	r2, [r3]
 620:Middlewares/FreeRTOS/portable/heap_4.c **** 
 621:Middlewares/FreeRTOS/portable/heap_4.c ****     xFreeBytesRemaining = ( size_t ) 0U;
 1071              		.loc 1 621 25
 1072 000a 094B     		ldr	r3, .L58+4
 1073 000c 0022     		movs	r2, #0
 1074 000e 1A60     		str	r2, [r3]
 622:Middlewares/FreeRTOS/portable/heap_4.c ****     xMinimumEverFreeBytesRemaining = ( size_t ) 0U;
 1075              		.loc 1 622 36
 1076 0010 084B     		ldr	r3, .L58+8
 1077 0012 0022     		movs	r2, #0
 1078 0014 1A60     		str	r2, [r3]
 623:Middlewares/FreeRTOS/portable/heap_4.c ****     xNumberOfSuccessfulAllocations = ( size_t ) 0U;
 1079              		.loc 1 623 36
 1080 0016 084B     		ldr	r3, .L58+12
 1081 0018 0022     		movs	r2, #0
 1082 001a 1A60     		str	r2, [r3]
 624:Middlewares/FreeRTOS/portable/heap_4.c ****     xNumberOfSuccessfulFrees = ( size_t ) 0U;
 1083              		.loc 1 624 30
 1084 001c 074B     		ldr	r3, .L58+16
 1085 001e 0022     		movs	r2, #0
 1086 0020 1A60     		str	r2, [r3]
 625:Middlewares/FreeRTOS/portable/heap_4.c **** }
 1087              		.loc 1 625 1
 1088 0022 00BF     		nop
 1089 0024 BD46     		mov	sp, r7
 1090              		.cfi_def_cfa_register 13
 1091              		@ sp needed
 1092 0026 5DF8047B 		ldr	r7, [sp], #4
 1093              		.cfi_restore 7
 1094              		.cfi_def_cfa_offset 0
 1095 002a 7047     		bx	lr
 1096              	.L59:
 1097              		.align	2
 1098              	.L58:
 1099 002c 00000000 		.word	pxEnd
 1100 0030 00000000 		.word	xFreeBytesRemaining
 1101 0034 00000000 		.word	xMinimumEverFreeBytesRemaining
 1102 0038 00000000 		.word	xNumberOfSuccessfulAllocations
 1103 003c 00000000 		.word	xNumberOfSuccessfulFrees
 1104              		.cfi_endproc
 1105              	.LFE13:
 1107              		.text
 1108              	.Letext0:
 1109              		.file 2 "/usr/lib/gcc/arm-none-eabi/13.2.1/include/stddef.h"
 1110              		.file 3 "/usr/lib/gcc/arm-none-eabi/13.2.1/include/stdint.h"
 1111              		.file 4 "Middlewares/FreeRTOS/portable/portmacro.h"
ARM GAS  /tmp/ccu8DzYi.s 			page 31


 1112              		.file 5 "Middlewares/FreeRTOS/include/portable.h"
 1113              		.file 6 "Middlewares/FreeRTOS/include/task.h"
 1114              		.file 7 "/usr/include/newlib/string.h"
ARM GAS  /tmp/ccu8DzYi.s 			page 32

