ARM GAS  /tmp/ccN8TWIV.s 			page 1


   1              		.cpu cortex-m4
   2              		.arch armv7e-m
   3              		.fpu fpv4-sp-d16
   4              		.eabi_attribute 27, 1
   5              		.eabi_attribute 28, 1
   6              		.eabi_attribute 20, 1
   7              		.eabi_attribute 21, 1
   8              		.eabi_attribute 23, 3
   9              		.eabi_attribute 24, 1
  10              		.eabi_attribute 25, 1
  11              		.eabi_attribute 26, 1
  12              		.eabi_attribute 30, 6
  13              		.eabi_attribute 34, 1
  14              		.eabi_attribute 18, 4
  15              		.file	"list.c"
  16              		.text
  17              	.Ltext0:
  18              		.cfi_sections	.debug_frame
  19              		.file 1 "Middlewares/FreeRTOS/list.c"
  20              		.section	.text.vListInitialise,"ax",%progbits
  21              		.align	1
  22              		.global	vListInitialise
  23              		.syntax unified
  24              		.thumb
  25              		.thumb_func
  27              	vListInitialise:
  28              	.LFB4:
   1:Middlewares/FreeRTOS/list.c **** /*
   2:Middlewares/FreeRTOS/list.c ****  * FreeRTOS Kernel V11.1.0
   3:Middlewares/FreeRTOS/list.c ****  * Copyright (C) 2021 Amazon.com, Inc. or its affiliates. All Rights Reserved.
   4:Middlewares/FreeRTOS/list.c ****  *
   5:Middlewares/FreeRTOS/list.c ****  * SPDX-License-Identifier: MIT
   6:Middlewares/FreeRTOS/list.c ****  *
   7:Middlewares/FreeRTOS/list.c ****  * Permission is hereby granted, free of charge, to any person obtaining a copy of
   8:Middlewares/FreeRTOS/list.c ****  * this software and associated documentation files (the "Software"), to deal in
   9:Middlewares/FreeRTOS/list.c ****  * the Software without restriction, including without limitation the rights to
  10:Middlewares/FreeRTOS/list.c ****  * use, copy, modify, merge, publish, distribute, sublicense, and/or sell copies of
  11:Middlewares/FreeRTOS/list.c ****  * the Software, and to permit persons to whom the Software is furnished to do so,
  12:Middlewares/FreeRTOS/list.c ****  * subject to the following conditions:
  13:Middlewares/FreeRTOS/list.c ****  *
  14:Middlewares/FreeRTOS/list.c ****  * The above copyright notice and this permission notice shall be included in all
  15:Middlewares/FreeRTOS/list.c ****  * copies or substantial portions of the Software.
  16:Middlewares/FreeRTOS/list.c ****  *
  17:Middlewares/FreeRTOS/list.c ****  * THE SOFTWARE IS PROVIDED "AS IS", WITHOUT WARRANTY OF ANY KIND, EXPRESS OR
  18:Middlewares/FreeRTOS/list.c ****  * IMPLIED, INCLUDING BUT NOT LIMITED TO THE WARRANTIES OF MERCHANTABILITY, FITNESS
  19:Middlewares/FreeRTOS/list.c ****  * FOR A PARTICULAR PURPOSE AND NONINFRINGEMENT. IN NO EVENT SHALL THE AUTHORS OR
  20:Middlewares/FreeRTOS/list.c ****  * COPYRIGHT HOLDERS BE LIABLE FOR ANY CLAIM, DAMAGES OR OTHER LIABILITY, WHETHER
  21:Middlewares/FreeRTOS/list.c ****  * IN AN ACTION OF CONTRACT, TORT OR OTHERWISE, ARISING FROM, OUT OF OR IN
  22:Middlewares/FreeRTOS/list.c ****  * CONNECTION WITH THE SOFTWARE OR THE USE OR OTHER DEALINGS IN THE SOFTWARE.
  23:Middlewares/FreeRTOS/list.c ****  *
  24:Middlewares/FreeRTOS/list.c ****  * https://www.FreeRTOS.org
  25:Middlewares/FreeRTOS/list.c ****  * https://github.com/FreeRTOS
  26:Middlewares/FreeRTOS/list.c ****  *
  27:Middlewares/FreeRTOS/list.c ****  */
  28:Middlewares/FreeRTOS/list.c **** 
  29:Middlewares/FreeRTOS/list.c **** 
  30:Middlewares/FreeRTOS/list.c **** #include <stdlib.h>
ARM GAS  /tmp/ccN8TWIV.s 			page 2


  31:Middlewares/FreeRTOS/list.c **** 
  32:Middlewares/FreeRTOS/list.c **** /* Defining MPU_WRAPPERS_INCLUDED_FROM_API_FILE prevents task.h from redefining
  33:Middlewares/FreeRTOS/list.c ****  * all the API functions to use the MPU wrappers.  That should only be done when
  34:Middlewares/FreeRTOS/list.c ****  * task.h is included from an application file. */
  35:Middlewares/FreeRTOS/list.c **** #define MPU_WRAPPERS_INCLUDED_FROM_API_FILE
  36:Middlewares/FreeRTOS/list.c **** 
  37:Middlewares/FreeRTOS/list.c **** #include "FreeRTOS.h"
  38:Middlewares/FreeRTOS/list.c **** #include "list.h"
  39:Middlewares/FreeRTOS/list.c **** 
  40:Middlewares/FreeRTOS/list.c **** /* The MPU ports require MPU_WRAPPERS_INCLUDED_FROM_API_FILE to be
  41:Middlewares/FreeRTOS/list.c ****  * defined for the header files above, but not in this file, in order to
  42:Middlewares/FreeRTOS/list.c ****  * generate the correct privileged Vs unprivileged linkage and placement. */
  43:Middlewares/FreeRTOS/list.c **** #undef MPU_WRAPPERS_INCLUDED_FROM_API_FILE
  44:Middlewares/FreeRTOS/list.c **** 
  45:Middlewares/FreeRTOS/list.c **** /*-----------------------------------------------------------
  46:Middlewares/FreeRTOS/list.c **** * PUBLIC LIST API documented in list.h
  47:Middlewares/FreeRTOS/list.c **** *----------------------------------------------------------*/
  48:Middlewares/FreeRTOS/list.c **** 
  49:Middlewares/FreeRTOS/list.c **** void vListInitialise( List_t * const pxList )
  50:Middlewares/FreeRTOS/list.c **** {
  29              		.loc 1 50 1
  30              		.cfi_startproc
  31              		@ args = 0, pretend = 0, frame = 8
  32              		@ frame_needed = 1, uses_anonymous_args = 0
  33              		@ link register save eliminated.
  34 0000 80B4     		push	{r7}
  35              		.cfi_def_cfa_offset 4
  36              		.cfi_offset 7, -4
  37 0002 83B0     		sub	sp, sp, #12
  38              		.cfi_def_cfa_offset 16
  39 0004 00AF     		add	r7, sp, #0
  40              		.cfi_def_cfa_register 7
  41 0006 7860     		str	r0, [r7, #4]
  51:Middlewares/FreeRTOS/list.c ****     traceENTER_vListInitialise( pxList );
  52:Middlewares/FreeRTOS/list.c **** 
  53:Middlewares/FreeRTOS/list.c ****     /* The list structure contains a list item which is used to mark the
  54:Middlewares/FreeRTOS/list.c ****      * end of the list.  To initialise the list the list end is inserted
  55:Middlewares/FreeRTOS/list.c ****      * as the only list entry. */
  56:Middlewares/FreeRTOS/list.c ****     pxList->pxIndex = ( ListItem_t * ) &( pxList->xListEnd );
  42              		.loc 1 56 40
  43 0008 7B68     		ldr	r3, [r7, #4]
  44 000a 03F10802 		add	r2, r3, #8
  45              		.loc 1 56 21
  46 000e 7B68     		ldr	r3, [r7, #4]
  47 0010 5A60     		str	r2, [r3, #4]
  57:Middlewares/FreeRTOS/list.c **** 
  58:Middlewares/FreeRTOS/list.c ****     listSET_FIRST_LIST_ITEM_INTEGRITY_CHECK_VALUE( &( pxList->xListEnd ) );
  59:Middlewares/FreeRTOS/list.c **** 
  60:Middlewares/FreeRTOS/list.c ****     /* The list end value is the highest possible value in the list to
  61:Middlewares/FreeRTOS/list.c ****      * ensure it remains at the end of the list. */
  62:Middlewares/FreeRTOS/list.c ****     pxList->xListEnd.xItemValue = portMAX_DELAY;
  48              		.loc 1 62 33
  49 0012 7B68     		ldr	r3, [r7, #4]
  50 0014 4FF0FF32 		mov	r2, #-1
  51 0018 9A60     		str	r2, [r3, #8]
  63:Middlewares/FreeRTOS/list.c **** 
  64:Middlewares/FreeRTOS/list.c ****     /* The list end next and previous pointers point to itself so we know
ARM GAS  /tmp/ccN8TWIV.s 			page 3


  65:Middlewares/FreeRTOS/list.c ****      * when the list is empty. */
  66:Middlewares/FreeRTOS/list.c ****     pxList->xListEnd.pxNext = ( ListItem_t * ) &( pxList->xListEnd );
  52              		.loc 1 66 48
  53 001a 7B68     		ldr	r3, [r7, #4]
  54 001c 03F10802 		add	r2, r3, #8
  55              		.loc 1 66 29
  56 0020 7B68     		ldr	r3, [r7, #4]
  57 0022 DA60     		str	r2, [r3, #12]
  67:Middlewares/FreeRTOS/list.c ****     pxList->xListEnd.pxPrevious = ( ListItem_t * ) &( pxList->xListEnd );
  58              		.loc 1 67 52
  59 0024 7B68     		ldr	r3, [r7, #4]
  60 0026 03F10802 		add	r2, r3, #8
  61              		.loc 1 67 33
  62 002a 7B68     		ldr	r3, [r7, #4]
  63 002c 1A61     		str	r2, [r3, #16]
  68:Middlewares/FreeRTOS/list.c **** 
  69:Middlewares/FreeRTOS/list.c ****     /* Initialize the remaining fields of xListEnd when it is a proper ListItem_t */
  70:Middlewares/FreeRTOS/list.c ****     #if ( configUSE_MINI_LIST_ITEM == 0 )
  71:Middlewares/FreeRTOS/list.c ****     {
  72:Middlewares/FreeRTOS/list.c ****         pxList->xListEnd.pvOwner = NULL;
  73:Middlewares/FreeRTOS/list.c ****         pxList->xListEnd.pxContainer = NULL;
  74:Middlewares/FreeRTOS/list.c ****         listSET_SECOND_LIST_ITEM_INTEGRITY_CHECK_VALUE( &( pxList->xListEnd ) );
  75:Middlewares/FreeRTOS/list.c ****     }
  76:Middlewares/FreeRTOS/list.c ****     #endif
  77:Middlewares/FreeRTOS/list.c **** 
  78:Middlewares/FreeRTOS/list.c ****     pxList->uxNumberOfItems = ( UBaseType_t ) 0U;
  64              		.loc 1 78 29
  65 002e 7B68     		ldr	r3, [r7, #4]
  66 0030 0022     		movs	r2, #0
  67 0032 1A60     		str	r2, [r3]
  79:Middlewares/FreeRTOS/list.c **** 
  80:Middlewares/FreeRTOS/list.c ****     /* Write known values into the list if
  81:Middlewares/FreeRTOS/list.c ****      * configUSE_LIST_DATA_INTEGRITY_CHECK_BYTES is set to 1. */
  82:Middlewares/FreeRTOS/list.c ****     listSET_LIST_INTEGRITY_CHECK_1_VALUE( pxList );
  83:Middlewares/FreeRTOS/list.c ****     listSET_LIST_INTEGRITY_CHECK_2_VALUE( pxList );
  84:Middlewares/FreeRTOS/list.c **** 
  85:Middlewares/FreeRTOS/list.c ****     traceRETURN_vListInitialise();
  86:Middlewares/FreeRTOS/list.c **** }
  68              		.loc 1 86 1
  69 0034 00BF     		nop
  70 0036 0C37     		adds	r7, r7, #12
  71              		.cfi_def_cfa_offset 4
  72 0038 BD46     		mov	sp, r7
  73              		.cfi_def_cfa_register 13
  74              		@ sp needed
  75 003a 5DF8047B 		ldr	r7, [sp], #4
  76              		.cfi_restore 7
  77              		.cfi_def_cfa_offset 0
  78 003e 7047     		bx	lr
  79              		.cfi_endproc
  80              	.LFE4:
  82              		.section	.text.vListInitialiseItem,"ax",%progbits
  83              		.align	1
  84              		.global	vListInitialiseItem
  85              		.syntax unified
  86              		.thumb
  87              		.thumb_func
ARM GAS  /tmp/ccN8TWIV.s 			page 4


  89              	vListInitialiseItem:
  90              	.LFB5:
  87:Middlewares/FreeRTOS/list.c **** /*-----------------------------------------------------------*/
  88:Middlewares/FreeRTOS/list.c **** 
  89:Middlewares/FreeRTOS/list.c **** void vListInitialiseItem( ListItem_t * const pxItem )
  90:Middlewares/FreeRTOS/list.c **** {
  91              		.loc 1 90 1
  92              		.cfi_startproc
  93              		@ args = 0, pretend = 0, frame = 8
  94              		@ frame_needed = 1, uses_anonymous_args = 0
  95              		@ link register save eliminated.
  96 0000 80B4     		push	{r7}
  97              		.cfi_def_cfa_offset 4
  98              		.cfi_offset 7, -4
  99 0002 83B0     		sub	sp, sp, #12
 100              		.cfi_def_cfa_offset 16
 101 0004 00AF     		add	r7, sp, #0
 102              		.cfi_def_cfa_register 7
 103 0006 7860     		str	r0, [r7, #4]
  91:Middlewares/FreeRTOS/list.c ****     traceENTER_vListInitialiseItem( pxItem );
  92:Middlewares/FreeRTOS/list.c **** 
  93:Middlewares/FreeRTOS/list.c ****     /* Make sure the list item is not recorded as being on a list. */
  94:Middlewares/FreeRTOS/list.c ****     pxItem->pxContainer = NULL;
 104              		.loc 1 94 25
 105 0008 7B68     		ldr	r3, [r7, #4]
 106 000a 0022     		movs	r2, #0
 107 000c 1A61     		str	r2, [r3, #16]
  95:Middlewares/FreeRTOS/list.c **** 
  96:Middlewares/FreeRTOS/list.c ****     /* Write known values into the list item if
  97:Middlewares/FreeRTOS/list.c ****      * configUSE_LIST_DATA_INTEGRITY_CHECK_BYTES is set to 1. */
  98:Middlewares/FreeRTOS/list.c ****     listSET_FIRST_LIST_ITEM_INTEGRITY_CHECK_VALUE( pxItem );
  99:Middlewares/FreeRTOS/list.c ****     listSET_SECOND_LIST_ITEM_INTEGRITY_CHECK_VALUE( pxItem );
 100:Middlewares/FreeRTOS/list.c **** 
 101:Middlewares/FreeRTOS/list.c ****     traceRETURN_vListInitialiseItem();
 102:Middlewares/FreeRTOS/list.c **** }
 108              		.loc 1 102 1
 109 000e 00BF     		nop
 110 0010 0C37     		adds	r7, r7, #12
 111              		.cfi_def_cfa_offset 4
 112 0012 BD46     		mov	sp, r7
 113              		.cfi_def_cfa_register 13
 114              		@ sp needed
 115 0014 5DF8047B 		ldr	r7, [sp], #4
 116              		.cfi_restore 7
 117              		.cfi_def_cfa_offset 0
 118 0018 7047     		bx	lr
 119              		.cfi_endproc
 120              	.LFE5:
 122              		.section	.text.vListInsertEnd,"ax",%progbits
 123              		.align	1
 124              		.global	vListInsertEnd
 125              		.syntax unified
 126              		.thumb
 127              		.thumb_func
 129              	vListInsertEnd:
 130              	.LFB6:
 103:Middlewares/FreeRTOS/list.c **** /*-----------------------------------------------------------*/
ARM GAS  /tmp/ccN8TWIV.s 			page 5


 104:Middlewares/FreeRTOS/list.c **** 
 105:Middlewares/FreeRTOS/list.c **** void vListInsertEnd( List_t * const pxList,
 106:Middlewares/FreeRTOS/list.c ****                      ListItem_t * const pxNewListItem )
 107:Middlewares/FreeRTOS/list.c **** {
 131              		.loc 1 107 1
 132              		.cfi_startproc
 133              		@ args = 0, pretend = 0, frame = 16
 134              		@ frame_needed = 1, uses_anonymous_args = 0
 135              		@ link register save eliminated.
 136 0000 80B4     		push	{r7}
 137              		.cfi_def_cfa_offset 4
 138              		.cfi_offset 7, -4
 139 0002 85B0     		sub	sp, sp, #20
 140              		.cfi_def_cfa_offset 24
 141 0004 00AF     		add	r7, sp, #0
 142              		.cfi_def_cfa_register 7
 143 0006 7860     		str	r0, [r7, #4]
 144 0008 3960     		str	r1, [r7]
 108:Middlewares/FreeRTOS/list.c ****     ListItem_t * const pxIndex = pxList->pxIndex;
 145              		.loc 1 108 24
 146 000a 7B68     		ldr	r3, [r7, #4]
 147 000c 5B68     		ldr	r3, [r3, #4]
 148 000e FB60     		str	r3, [r7, #12]
 109:Middlewares/FreeRTOS/list.c **** 
 110:Middlewares/FreeRTOS/list.c ****     traceENTER_vListInsertEnd( pxList, pxNewListItem );
 111:Middlewares/FreeRTOS/list.c **** 
 112:Middlewares/FreeRTOS/list.c ****     /* Only effective when configASSERT() is also defined, these tests may catch
 113:Middlewares/FreeRTOS/list.c ****      * the list data structures being overwritten in memory.  They will not catch
 114:Middlewares/FreeRTOS/list.c ****      * data errors caused by incorrect configuration or use of FreeRTOS. */
 115:Middlewares/FreeRTOS/list.c ****     listTEST_LIST_INTEGRITY( pxList );
 116:Middlewares/FreeRTOS/list.c ****     listTEST_LIST_ITEM_INTEGRITY( pxNewListItem );
 117:Middlewares/FreeRTOS/list.c **** 
 118:Middlewares/FreeRTOS/list.c ****     /* Insert a new list item into pxList, but rather than sort the list,
 119:Middlewares/FreeRTOS/list.c ****      * makes the new list item the last item to be removed by a call to
 120:Middlewares/FreeRTOS/list.c ****      * listGET_OWNER_OF_NEXT_ENTRY(). */
 121:Middlewares/FreeRTOS/list.c ****     pxNewListItem->pxNext = pxIndex;
 149              		.loc 1 121 27
 150 0010 3B68     		ldr	r3, [r7]
 151 0012 FA68     		ldr	r2, [r7, #12]
 152 0014 5A60     		str	r2, [r3, #4]
 122:Middlewares/FreeRTOS/list.c ****     pxNewListItem->pxPrevious = pxIndex->pxPrevious;
 153              		.loc 1 122 40
 154 0016 FB68     		ldr	r3, [r7, #12]
 155 0018 9A68     		ldr	r2, [r3, #8]
 156              		.loc 1 122 31
 157 001a 3B68     		ldr	r3, [r7]
 158 001c 9A60     		str	r2, [r3, #8]
 123:Middlewares/FreeRTOS/list.c **** 
 124:Middlewares/FreeRTOS/list.c ****     /* Only used during decision coverage testing. */
 125:Middlewares/FreeRTOS/list.c ****     mtCOVERAGE_TEST_DELAY();
 126:Middlewares/FreeRTOS/list.c **** 
 127:Middlewares/FreeRTOS/list.c ****     pxIndex->pxPrevious->pxNext = pxNewListItem;
 159              		.loc 1 127 12
 160 001e FB68     		ldr	r3, [r7, #12]
 161 0020 9B68     		ldr	r3, [r3, #8]
 162              		.loc 1 127 33
 163 0022 3A68     		ldr	r2, [r7]
ARM GAS  /tmp/ccN8TWIV.s 			page 6


 164 0024 5A60     		str	r2, [r3, #4]
 128:Middlewares/FreeRTOS/list.c ****     pxIndex->pxPrevious = pxNewListItem;
 165              		.loc 1 128 25
 166 0026 FB68     		ldr	r3, [r7, #12]
 167 0028 3A68     		ldr	r2, [r7]
 168 002a 9A60     		str	r2, [r3, #8]
 129:Middlewares/FreeRTOS/list.c **** 
 130:Middlewares/FreeRTOS/list.c ****     /* Remember which list the item is in. */
 131:Middlewares/FreeRTOS/list.c ****     pxNewListItem->pxContainer = pxList;
 169              		.loc 1 131 32
 170 002c 3B68     		ldr	r3, [r7]
 171 002e 7A68     		ldr	r2, [r7, #4]
 172 0030 1A61     		str	r2, [r3, #16]
 132:Middlewares/FreeRTOS/list.c **** 
 133:Middlewares/FreeRTOS/list.c ****     ( pxList->uxNumberOfItems ) = ( UBaseType_t ) ( pxList->uxNumberOfItems + 1U );
 173              		.loc 1 133 59
 174 0032 7B68     		ldr	r3, [r7, #4]
 175 0034 1B68     		ldr	r3, [r3]
 176              		.loc 1 133 35
 177 0036 5A1C     		adds	r2, r3, #1
 178              		.loc 1 133 33
 179 0038 7B68     		ldr	r3, [r7, #4]
 180 003a 1A60     		str	r2, [r3]
 134:Middlewares/FreeRTOS/list.c **** 
 135:Middlewares/FreeRTOS/list.c ****     traceRETURN_vListInsertEnd();
 136:Middlewares/FreeRTOS/list.c **** }
 181              		.loc 1 136 1
 182 003c 00BF     		nop
 183 003e 1437     		adds	r7, r7, #20
 184              		.cfi_def_cfa_offset 4
 185 0040 BD46     		mov	sp, r7
 186              		.cfi_def_cfa_register 13
 187              		@ sp needed
 188 0042 5DF8047B 		ldr	r7, [sp], #4
 189              		.cfi_restore 7
 190              		.cfi_def_cfa_offset 0
 191 0046 7047     		bx	lr
 192              		.cfi_endproc
 193              	.LFE6:
 195              		.section	.text.vListInsert,"ax",%progbits
 196              		.align	1
 197              		.global	vListInsert
 198              		.syntax unified
 199              		.thumb
 200              		.thumb_func
 202              	vListInsert:
 203              	.LFB7:
 137:Middlewares/FreeRTOS/list.c **** /*-----------------------------------------------------------*/
 138:Middlewares/FreeRTOS/list.c **** 
 139:Middlewares/FreeRTOS/list.c **** void vListInsert( List_t * const pxList,
 140:Middlewares/FreeRTOS/list.c ****                   ListItem_t * const pxNewListItem )
 141:Middlewares/FreeRTOS/list.c **** {
 204              		.loc 1 141 1
 205              		.cfi_startproc
 206              		@ args = 0, pretend = 0, frame = 16
 207              		@ frame_needed = 1, uses_anonymous_args = 0
 208              		@ link register save eliminated.
ARM GAS  /tmp/ccN8TWIV.s 			page 7


 209 0000 80B4     		push	{r7}
 210              		.cfi_def_cfa_offset 4
 211              		.cfi_offset 7, -4
 212 0002 85B0     		sub	sp, sp, #20
 213              		.cfi_def_cfa_offset 24
 214 0004 00AF     		add	r7, sp, #0
 215              		.cfi_def_cfa_register 7
 216 0006 7860     		str	r0, [r7, #4]
 217 0008 3960     		str	r1, [r7]
 142:Middlewares/FreeRTOS/list.c ****     ListItem_t * pxIterator;
 143:Middlewares/FreeRTOS/list.c ****     const TickType_t xValueOfInsertion = pxNewListItem->xItemValue;
 218              		.loc 1 143 22
 219 000a 3B68     		ldr	r3, [r7]
 220 000c 1B68     		ldr	r3, [r3]
 221 000e BB60     		str	r3, [r7, #8]
 144:Middlewares/FreeRTOS/list.c **** 
 145:Middlewares/FreeRTOS/list.c ****     traceENTER_vListInsert( pxList, pxNewListItem );
 146:Middlewares/FreeRTOS/list.c **** 
 147:Middlewares/FreeRTOS/list.c ****     /* Only effective when configASSERT() is also defined, these tests may catch
 148:Middlewares/FreeRTOS/list.c ****      * the list data structures being overwritten in memory.  They will not catch
 149:Middlewares/FreeRTOS/list.c ****      * data errors caused by incorrect configuration or use of FreeRTOS. */
 150:Middlewares/FreeRTOS/list.c ****     listTEST_LIST_INTEGRITY( pxList );
 151:Middlewares/FreeRTOS/list.c ****     listTEST_LIST_ITEM_INTEGRITY( pxNewListItem );
 152:Middlewares/FreeRTOS/list.c **** 
 153:Middlewares/FreeRTOS/list.c ****     /* Insert the new list item into the list, sorted in xItemValue order.
 154:Middlewares/FreeRTOS/list.c ****      *
 155:Middlewares/FreeRTOS/list.c ****      * If the list already contains a list item with the same item value then the
 156:Middlewares/FreeRTOS/list.c ****      * new list item should be placed after it.  This ensures that TCBs which are
 157:Middlewares/FreeRTOS/list.c ****      * stored in ready lists (all of which have the same xItemValue value) get a
 158:Middlewares/FreeRTOS/list.c ****      * share of the CPU.  However, if the xItemValue is the same as the back marker
 159:Middlewares/FreeRTOS/list.c ****      * the iteration loop below will not end.  Therefore the value is checked
 160:Middlewares/FreeRTOS/list.c ****      * first, and the algorithm slightly modified if necessary. */
 161:Middlewares/FreeRTOS/list.c ****     if( xValueOfInsertion == portMAX_DELAY )
 222              		.loc 1 161 7
 223 0010 BB68     		ldr	r3, [r7, #8]
 224 0012 B3F1FF3F 		cmp	r3, #-1
 225 0016 03D1     		bne	.L5
 162:Middlewares/FreeRTOS/list.c ****     {
 163:Middlewares/FreeRTOS/list.c ****         pxIterator = pxList->xListEnd.pxPrevious;
 226              		.loc 1 163 20
 227 0018 7B68     		ldr	r3, [r7, #4]
 228 001a 1B69     		ldr	r3, [r3, #16]
 229 001c FB60     		str	r3, [r7, #12]
 230 001e 0CE0     		b	.L6
 231              	.L5:
 164:Middlewares/FreeRTOS/list.c ****     }
 165:Middlewares/FreeRTOS/list.c ****     else
 166:Middlewares/FreeRTOS/list.c ****     {
 167:Middlewares/FreeRTOS/list.c ****         /* *** NOTE ***********************************************************
 168:Middlewares/FreeRTOS/list.c ****         *  If you find your application is crashing here then likely causes are
 169:Middlewares/FreeRTOS/list.c ****         *  listed below.  In addition see https://www.FreeRTOS.org/FAQHelp.html for
 170:Middlewares/FreeRTOS/list.c ****         *  more tips, and ensure configASSERT() is defined!
 171:Middlewares/FreeRTOS/list.c ****         *  https://www.FreeRTOS.org/a00110.html#configASSERT
 172:Middlewares/FreeRTOS/list.c ****         *
 173:Middlewares/FreeRTOS/list.c ****         *   1) Stack overflow -
 174:Middlewares/FreeRTOS/list.c ****         *      see https://www.FreeRTOS.org/Stacks-and-stack-overflow-checking.html
 175:Middlewares/FreeRTOS/list.c ****         *   2) Incorrect interrupt priority assignment, especially on Cortex-M
ARM GAS  /tmp/ccN8TWIV.s 			page 8


 176:Middlewares/FreeRTOS/list.c ****         *      parts where numerically high priority values denote low actual
 177:Middlewares/FreeRTOS/list.c ****         *      interrupt priorities, which can seem counter intuitive.  See
 178:Middlewares/FreeRTOS/list.c ****         *      https://www.FreeRTOS.org/RTOS-Cortex-M3-M4.html and the definition
 179:Middlewares/FreeRTOS/list.c ****         *      of configMAX_SYSCALL_INTERRUPT_PRIORITY on
 180:Middlewares/FreeRTOS/list.c ****         *      https://www.FreeRTOS.org/a00110.html
 181:Middlewares/FreeRTOS/list.c ****         *   3) Calling an API function from within a critical section or when
 182:Middlewares/FreeRTOS/list.c ****         *      the scheduler is suspended, or calling an API function that does
 183:Middlewares/FreeRTOS/list.c ****         *      not end in "FromISR" from an interrupt.
 184:Middlewares/FreeRTOS/list.c ****         *   4) Using a queue or semaphore before it has been initialised or
 185:Middlewares/FreeRTOS/list.c ****         *      before the scheduler has been started (are interrupts firing
 186:Middlewares/FreeRTOS/list.c ****         *      before vTaskStartScheduler() has been called?).
 187:Middlewares/FreeRTOS/list.c ****         *   5) If the FreeRTOS port supports interrupt nesting then ensure that
 188:Middlewares/FreeRTOS/list.c ****         *      the priority of the tick interrupt is at or below
 189:Middlewares/FreeRTOS/list.c ****         *      configMAX_SYSCALL_INTERRUPT_PRIORITY.
 190:Middlewares/FreeRTOS/list.c ****         **********************************************************************/
 191:Middlewares/FreeRTOS/list.c **** 
 192:Middlewares/FreeRTOS/list.c ****         for( pxIterator = ( ListItem_t * ) &( pxList->xListEnd ); pxIterator->pxNext->xItemValue <=
 232              		.loc 1 192 25
 233 0020 7B68     		ldr	r3, [r7, #4]
 234 0022 0833     		adds	r3, r3, #8
 235 0024 FB60     		str	r3, [r7, #12]
 236              		.loc 1 192 9
 237 0026 02E0     		b	.L7
 238              	.L8:
 239              		.loc 1 192 131 discriminator 3
 240 0028 FB68     		ldr	r3, [r7, #12]
 241 002a 5B68     		ldr	r3, [r3, #4]
 242 002c FB60     		str	r3, [r7, #12]
 243              	.L7:
 244              		.loc 1 192 77 discriminator 1
 245 002e FB68     		ldr	r3, [r7, #12]
 246 0030 5B68     		ldr	r3, [r3, #4]
 247              		.loc 1 192 85 discriminator 1
 248 0032 1B68     		ldr	r3, [r3]
 249              		.loc 1 192 98 discriminator 1
 250 0034 BA68     		ldr	r2, [r7, #8]
 251 0036 9A42     		cmp	r2, r3
 252 0038 F6D2     		bcs	.L8
 253              	.L6:
 193:Middlewares/FreeRTOS/list.c ****         {
 194:Middlewares/FreeRTOS/list.c ****             /* There is nothing to do here, just iterating to the wanted
 195:Middlewares/FreeRTOS/list.c ****              * insertion position. */
 196:Middlewares/FreeRTOS/list.c ****         }
 197:Middlewares/FreeRTOS/list.c ****     }
 198:Middlewares/FreeRTOS/list.c **** 
 199:Middlewares/FreeRTOS/list.c ****     pxNewListItem->pxNext = pxIterator->pxNext;
 254              		.loc 1 199 39
 255 003a FB68     		ldr	r3, [r7, #12]
 256 003c 5A68     		ldr	r2, [r3, #4]
 257              		.loc 1 199 27
 258 003e 3B68     		ldr	r3, [r7]
 259 0040 5A60     		str	r2, [r3, #4]
 200:Middlewares/FreeRTOS/list.c ****     pxNewListItem->pxNext->pxPrevious = pxNewListItem;
 260              		.loc 1 200 18
 261 0042 3B68     		ldr	r3, [r7]
 262 0044 5B68     		ldr	r3, [r3, #4]
 263              		.loc 1 200 39
ARM GAS  /tmp/ccN8TWIV.s 			page 9


 264 0046 3A68     		ldr	r2, [r7]
 265 0048 9A60     		str	r2, [r3, #8]
 201:Middlewares/FreeRTOS/list.c ****     pxNewListItem->pxPrevious = pxIterator;
 266              		.loc 1 201 31
 267 004a 3B68     		ldr	r3, [r7]
 268 004c FA68     		ldr	r2, [r7, #12]
 269 004e 9A60     		str	r2, [r3, #8]
 202:Middlewares/FreeRTOS/list.c ****     pxIterator->pxNext = pxNewListItem;
 270              		.loc 1 202 24
 271 0050 FB68     		ldr	r3, [r7, #12]
 272 0052 3A68     		ldr	r2, [r7]
 273 0054 5A60     		str	r2, [r3, #4]
 203:Middlewares/FreeRTOS/list.c **** 
 204:Middlewares/FreeRTOS/list.c ****     /* Remember which list the item is in.  This allows fast removal of the
 205:Middlewares/FreeRTOS/list.c ****      * item later. */
 206:Middlewares/FreeRTOS/list.c ****     pxNewListItem->pxContainer = pxList;
 274              		.loc 1 206 32
 275 0056 3B68     		ldr	r3, [r7]
 276 0058 7A68     		ldr	r2, [r7, #4]
 277 005a 1A61     		str	r2, [r3, #16]
 207:Middlewares/FreeRTOS/list.c **** 
 208:Middlewares/FreeRTOS/list.c ****     ( pxList->uxNumberOfItems ) = ( UBaseType_t ) ( pxList->uxNumberOfItems + 1U );
 278              		.loc 1 208 59
 279 005c 7B68     		ldr	r3, [r7, #4]
 280 005e 1B68     		ldr	r3, [r3]
 281              		.loc 1 208 35
 282 0060 5A1C     		adds	r2, r3, #1
 283              		.loc 1 208 33
 284 0062 7B68     		ldr	r3, [r7, #4]
 285 0064 1A60     		str	r2, [r3]
 209:Middlewares/FreeRTOS/list.c **** 
 210:Middlewares/FreeRTOS/list.c ****     traceRETURN_vListInsert();
 211:Middlewares/FreeRTOS/list.c **** }
 286              		.loc 1 211 1
 287 0066 00BF     		nop
 288 0068 1437     		adds	r7, r7, #20
 289              		.cfi_def_cfa_offset 4
 290 006a BD46     		mov	sp, r7
 291              		.cfi_def_cfa_register 13
 292              		@ sp needed
 293 006c 5DF8047B 		ldr	r7, [sp], #4
 294              		.cfi_restore 7
 295              		.cfi_def_cfa_offset 0
 296 0070 7047     		bx	lr
 297              		.cfi_endproc
 298              	.LFE7:
 300              		.section	.text.uxListRemove,"ax",%progbits
 301              		.align	1
 302              		.global	uxListRemove
 303              		.syntax unified
 304              		.thumb
 305              		.thumb_func
 307              	uxListRemove:
 308              	.LFB8:
 212:Middlewares/FreeRTOS/list.c **** /*-----------------------------------------------------------*/
 213:Middlewares/FreeRTOS/list.c **** 
 214:Middlewares/FreeRTOS/list.c **** 
ARM GAS  /tmp/ccN8TWIV.s 			page 10


 215:Middlewares/FreeRTOS/list.c **** UBaseType_t uxListRemove( ListItem_t * const pxItemToRemove )
 216:Middlewares/FreeRTOS/list.c **** {
 309              		.loc 1 216 1
 310              		.cfi_startproc
 311              		@ args = 0, pretend = 0, frame = 16
 312              		@ frame_needed = 1, uses_anonymous_args = 0
 313              		@ link register save eliminated.
 314 0000 80B4     		push	{r7}
 315              		.cfi_def_cfa_offset 4
 316              		.cfi_offset 7, -4
 317 0002 85B0     		sub	sp, sp, #20
 318              		.cfi_def_cfa_offset 24
 319 0004 00AF     		add	r7, sp, #0
 320              		.cfi_def_cfa_register 7
 321 0006 7860     		str	r0, [r7, #4]
 217:Middlewares/FreeRTOS/list.c ****     /* The list item knows which list it is in.  Obtain the list from the list
 218:Middlewares/FreeRTOS/list.c ****      * item. */
 219:Middlewares/FreeRTOS/list.c ****     List_t * const pxList = pxItemToRemove->pxContainer;
 322              		.loc 1 219 20
 323 0008 7B68     		ldr	r3, [r7, #4]
 324 000a 1B69     		ldr	r3, [r3, #16]
 325 000c FB60     		str	r3, [r7, #12]
 220:Middlewares/FreeRTOS/list.c **** 
 221:Middlewares/FreeRTOS/list.c ****     traceENTER_uxListRemove( pxItemToRemove );
 222:Middlewares/FreeRTOS/list.c **** 
 223:Middlewares/FreeRTOS/list.c ****     pxItemToRemove->pxNext->pxPrevious = pxItemToRemove->pxPrevious;
 326              		.loc 1 223 19
 327 000e 7B68     		ldr	r3, [r7, #4]
 328 0010 5B68     		ldr	r3, [r3, #4]
 329              		.loc 1 223 56
 330 0012 7A68     		ldr	r2, [r7, #4]
 331 0014 9268     		ldr	r2, [r2, #8]
 332              		.loc 1 223 40
 333 0016 9A60     		str	r2, [r3, #8]
 224:Middlewares/FreeRTOS/list.c ****     pxItemToRemove->pxPrevious->pxNext = pxItemToRemove->pxNext;
 334              		.loc 1 224 19
 335 0018 7B68     		ldr	r3, [r7, #4]
 336 001a 9B68     		ldr	r3, [r3, #8]
 337              		.loc 1 224 56
 338 001c 7A68     		ldr	r2, [r7, #4]
 339 001e 5268     		ldr	r2, [r2, #4]
 340              		.loc 1 224 40
 341 0020 5A60     		str	r2, [r3, #4]
 225:Middlewares/FreeRTOS/list.c **** 
 226:Middlewares/FreeRTOS/list.c ****     /* Only used during decision coverage testing. */
 227:Middlewares/FreeRTOS/list.c ****     mtCOVERAGE_TEST_DELAY();
 228:Middlewares/FreeRTOS/list.c **** 
 229:Middlewares/FreeRTOS/list.c ****     /* Make sure the index is left pointing to a valid item. */
 230:Middlewares/FreeRTOS/list.c ****     if( pxList->pxIndex == pxItemToRemove )
 342              		.loc 1 230 15
 343 0022 FB68     		ldr	r3, [r7, #12]
 344 0024 5B68     		ldr	r3, [r3, #4]
 345              		.loc 1 230 7
 346 0026 7A68     		ldr	r2, [r7, #4]
 347 0028 9A42     		cmp	r2, r3
 348 002a 03D1     		bne	.L10
 231:Middlewares/FreeRTOS/list.c ****     {
ARM GAS  /tmp/ccN8TWIV.s 			page 11


 232:Middlewares/FreeRTOS/list.c ****         pxList->pxIndex = pxItemToRemove->pxPrevious;
 349              		.loc 1 232 41
 350 002c 7B68     		ldr	r3, [r7, #4]
 351 002e 9A68     		ldr	r2, [r3, #8]
 352              		.loc 1 232 25
 353 0030 FB68     		ldr	r3, [r7, #12]
 354 0032 5A60     		str	r2, [r3, #4]
 355              	.L10:
 233:Middlewares/FreeRTOS/list.c ****     }
 234:Middlewares/FreeRTOS/list.c ****     else
 235:Middlewares/FreeRTOS/list.c ****     {
 236:Middlewares/FreeRTOS/list.c ****         mtCOVERAGE_TEST_MARKER();
 237:Middlewares/FreeRTOS/list.c ****     }
 238:Middlewares/FreeRTOS/list.c **** 
 239:Middlewares/FreeRTOS/list.c ****     pxItemToRemove->pxContainer = NULL;
 356              		.loc 1 239 33
 357 0034 7B68     		ldr	r3, [r7, #4]
 358 0036 0022     		movs	r2, #0
 359 0038 1A61     		str	r2, [r3, #16]
 240:Middlewares/FreeRTOS/list.c ****     ( pxList->uxNumberOfItems ) = ( UBaseType_t ) ( pxList->uxNumberOfItems - 1U );
 360              		.loc 1 240 59
 361 003a FB68     		ldr	r3, [r7, #12]
 362 003c 1B68     		ldr	r3, [r3]
 363              		.loc 1 240 35
 364 003e 5A1E     		subs	r2, r3, #1
 365              		.loc 1 240 33
 366 0040 FB68     		ldr	r3, [r7, #12]
 367 0042 1A60     		str	r2, [r3]
 241:Middlewares/FreeRTOS/list.c **** 
 242:Middlewares/FreeRTOS/list.c ****     traceRETURN_uxListRemove( pxList->uxNumberOfItems );
 243:Middlewares/FreeRTOS/list.c **** 
 244:Middlewares/FreeRTOS/list.c ****     return pxList->uxNumberOfItems;
 368              		.loc 1 244 18
 369 0044 FB68     		ldr	r3, [r7, #12]
 370 0046 1B68     		ldr	r3, [r3]
 245:Middlewares/FreeRTOS/list.c **** }
 371              		.loc 1 245 1
 372 0048 1846     		mov	r0, r3
 373 004a 1437     		adds	r7, r7, #20
 374              		.cfi_def_cfa_offset 4
 375 004c BD46     		mov	sp, r7
 376              		.cfi_def_cfa_register 13
 377              		@ sp needed
 378 004e 5DF8047B 		ldr	r7, [sp], #4
 379              		.cfi_restore 7
 380              		.cfi_def_cfa_offset 0
 381 0052 7047     		bx	lr
 382              		.cfi_endproc
 383              	.LFE8:
 385              		.text
 386              	.Letext0:
 387              		.file 2 "/usr/lib/gcc/arm-none-eabi/13.2.1/include/stdint.h"
 388              		.file 3 "Middlewares/FreeRTOS/portable/portmacro.h"
 389              		.file 4 "Middlewares/FreeRTOS/include/list.h"
ARM GAS  /tmp/ccN8TWIV.s 			page 12

