ARM GAS  /tmp/ccm7atEP.s 			page 1


   1              		.cpu cortex-m4
   2              		.arch armv7e-m
   3              		.fpu fpv4-sp-d16
   4              		.eabi_attribute 27, 1
   5              		.eabi_attribute 28, 1
   6              		.eabi_attribute 20, 1
   7              		.eabi_attribute 21, 1
   8              		.eabi_attribute 23, 3
   9              		.eabi_attribute 24, 1
  10              		.eabi_attribute 25, 1
  11              		.eabi_attribute 26, 1
  12              		.eabi_attribute 30, 6
  13              		.eabi_attribute 34, 1
  14              		.eabi_attribute 18, 4
  15              		.file	"main.c"
  16              		.text
  17              	.Ltext0:
  18              		.cfi_sections	.debug_frame
  19              		.file 1 "App/main.c"
  20              		.section	.rodata.CHANNEL_OFFSET_TAB,"a"
  21              		.align	2
  24              	CHANNEL_OFFSET_TAB:
  25 0000 081C3044 		.ascii	"\010\0340DXl\200"
  25      586C80
  26              		.global	xBlinkHandle
  27              		.section	.bss.xBlinkHandle,"aw",%nobits
  28              		.align	2
  31              	xBlinkHandle:
  32 0000 00000000 		.space	4
  33              		.section	.text.vBlinkTask,"ax",%progbits
  34              		.align	1
  35              		.global	vBlinkTask
  36              		.syntax unified
  37              		.thumb
  38              		.thumb_func
  40              	vBlinkTask:
  41              	.LFB449:
   1:App/main.c    **** #include "stm32l4xx_hal.h"
   2:App/main.c    **** #include "FreeRTOS.h"
   3:App/main.c    **** #include "task.h"
   4:App/main.c    **** 
   5:App/main.c    **** // Task Handle
   6:App/main.c    **** TaskHandle_t xBlinkHandle = NULL;
   7:App/main.c    **** 
   8:App/main.c    **** // Hardware Setup
   9:App/main.c    **** void SystemClock_Config(void);
  10:App/main.c    **** static void MX_GPIO_Init(void);
  11:App/main.c    **** 
  12:App/main.c    **** // Blink Task Function
  13:App/main.c    **** void vBlinkTask(void *pvParameters) {
  42              		.loc 1 13 37
  43              		.cfi_startproc
  44              		@ args = 0, pretend = 0, frame = 8
  45              		@ frame_needed = 1, uses_anonymous_args = 0
  46 0000 80B5     		push	{r7, lr}
  47              		.cfi_def_cfa_offset 8
  48              		.cfi_offset 7, -8
ARM GAS  /tmp/ccm7atEP.s 			page 2


  49              		.cfi_offset 14, -4
  50 0002 82B0     		sub	sp, sp, #8
  51              		.cfi_def_cfa_offset 16
  52 0004 00AF     		add	r7, sp, #0
  53              		.cfi_def_cfa_register 7
  54 0006 7860     		str	r0, [r7, #4]
  55              	.L2:
  14:App/main.c    ****     for (;;) {
  15:App/main.c    ****         HAL_GPIO_TogglePin(GPIOB, GPIO_PIN_14);
  56              		.loc 1 15 9
  57 0008 4FF48041 		mov	r1, #16384
  58 000c 0448     		ldr	r0, .L3
  59 000e FFF7FEFF 		bl	HAL_GPIO_TogglePin
  16:App/main.c    ****         vTaskDelay(pdMS_TO_TICKS(500)); // 500ms delay
  60              		.loc 1 16 9 discriminator 1
  61 0012 4FF4FA70 		mov	r0, #500
  62 0016 FFF7FEFF 		bl	vTaskDelay
  15:App/main.c    ****         vTaskDelay(pdMS_TO_TICKS(500)); // 500ms delay
  63              		.loc 1 15 9
  64 001a 00BF     		nop
  65 001c F4E7     		b	.L2
  66              	.L4:
  67 001e 00BF     		.align	2
  68              	.L3:
  69 0020 00040048 		.word	1207960576
  70              		.cfi_endproc
  71              	.LFE449:
  73              		.section	.rodata
  74              		.align	2
  75              	.LC0:
  76 0000 426C696E 		.ascii	"Blinky\000"
  76      6B7900
  77              		.section	.text.main,"ax",%progbits
  78              		.align	1
  79              		.global	main
  80              		.syntax unified
  81              		.thumb
  82              		.thumb_func
  84              	main:
  85              	.LFB450:
  17:App/main.c    ****     }
  18:App/main.c    **** }
  19:App/main.c    **** 
  20:App/main.c    **** int main(void) {
  86              		.loc 1 20 16
  87              		.cfi_startproc
  88              		@ args = 0, pretend = 0, frame = 0
  89              		@ frame_needed = 1, uses_anonymous_args = 0
  90 0000 80B5     		push	{r7, lr}
  91              		.cfi_def_cfa_offset 8
  92              		.cfi_offset 7, -8
  93              		.cfi_offset 14, -4
  94 0002 82B0     		sub	sp, sp, #8
  95              		.cfi_def_cfa_offset 16
  96 0004 02AF     		add	r7, sp, #8
  97              		.cfi_def_cfa 7, 8
  21:App/main.c    ****     // 1. Initialize HAL
ARM GAS  /tmp/ccm7atEP.s 			page 3


  22:App/main.c    ****     HAL_Init();
  98              		.loc 1 22 5
  99 0006 FFF7FEFF 		bl	HAL_Init
  23:App/main.c    **** 
  24:App/main.c    ****     // 2. Configure System Clock (Standard MSI -> PLL 80MHz)
  25:App/main.c    ****     SystemClock_Config();
 100              		.loc 1 25 5
 101 000a FFF7FEFF 		bl	SystemClock_Config
  26:App/main.c    **** 
  27:App/main.c    ****     // 3. Initialize GPIO (LED)
  28:App/main.c    ****     MX_GPIO_Init();
 102              		.loc 1 28 5
 103 000e FFF7FEFF 		bl	MX_GPIO_Init
  29:App/main.c    **** 
  30:App/main.c    ****     // 4. Create Task
  31:App/main.c    ****     xTaskCreate(vBlinkTask, "Blinky", 128, NULL, 1, &xBlinkHandle);
 104              		.loc 1 31 5
 105 0012 074B     		ldr	r3, .L7
 106 0014 0193     		str	r3, [sp, #4]
 107 0016 0123     		movs	r3, #1
 108 0018 0093     		str	r3, [sp]
 109 001a 0023     		movs	r3, #0
 110 001c 8022     		movs	r2, #128
 111 001e 0549     		ldr	r1, .L7+4
 112 0020 0548     		ldr	r0, .L7+8
 113 0022 FFF7FEFF 		bl	xTaskCreate
  32:App/main.c    **** 
  33:App/main.c    ****     // 5. Start Scheduler (Should not return)
  34:App/main.c    ****     vTaskStartScheduler();
 114              		.loc 1 34 5
 115 0026 FFF7FEFF 		bl	vTaskStartScheduler
 116              	.L6:
  35:App/main.c    **** 
  36:App/main.c    ****     // Loop forever if scheduler fails
  37:App/main.c    ****     while (1);
 117              		.loc 1 37 11
 118 002a 00BF     		nop
 119 002c FDE7     		b	.L6
 120              	.L8:
 121 002e 00BF     		.align	2
 122              	.L7:
 123 0030 00000000 		.word	xBlinkHandle
 124 0034 00000000 		.word	.LC0
 125 0038 00000000 		.word	vBlinkTask
 126              		.cfi_endproc
 127              	.LFE450:
 129              		.section	.text.MX_GPIO_Init,"ax",%progbits
 130              		.align	1
 131              		.syntax unified
 132              		.thumb
 133              		.thumb_func
 135              	MX_GPIO_Init:
 136              	.LFB451:
  38:App/main.c    **** }
  39:App/main.c    **** 
  40:App/main.c    **** // Minimal SysTick Hook if needed by HAL before Scheduler
  41:App/main.c    **** // Note: We mapped SysTick to FreeRTOS in Config, so FreeRTOS handles it.
ARM GAS  /tmp/ccm7atEP.s 			page 4


  42:App/main.c    **** // Don't use HAL_Delay() inside tasks!
  43:App/main.c    **** 
  44:App/main.c    **** static void MX_GPIO_Init(void) {
 137              		.loc 1 44 32
 138              		.cfi_startproc
 139              		@ args = 0, pretend = 0, frame = 24
 140              		@ frame_needed = 1, uses_anonymous_args = 0
 141 0000 80B5     		push	{r7, lr}
 142              		.cfi_def_cfa_offset 8
 143              		.cfi_offset 7, -8
 144              		.cfi_offset 14, -4
 145 0002 86B0     		sub	sp, sp, #24
 146              		.cfi_def_cfa_offset 32
 147 0004 00AF     		add	r7, sp, #0
 148              		.cfi_def_cfa_register 7
  45:App/main.c    ****     GPIO_InitTypeDef GPIO_InitStruct = {0};
 149              		.loc 1 45 22
 150 0006 3B1D     		adds	r3, r7, #4
 151 0008 0022     		movs	r2, #0
 152 000a 1A60     		str	r2, [r3]
 153 000c 5A60     		str	r2, [r3, #4]
 154 000e 9A60     		str	r2, [r3, #8]
 155 0010 DA60     		str	r2, [r3, #12]
 156 0012 1A61     		str	r2, [r3, #16]
 157              	.LBB2:
  46:App/main.c    **** 
  47:App/main.c    ****     __HAL_RCC_GPIOB_CLK_ENABLE();
 158              		.loc 1 47 5
 159 0014 0E4B     		ldr	r3, .L10
 160 0016 DB6C     		ldr	r3, [r3, #76]
 161 0018 0D4A     		ldr	r2, .L10
 162 001a 43F00203 		orr	r3, r3, #2
 163 001e D364     		str	r3, [r2, #76]
 164 0020 0B4B     		ldr	r3, .L10
 165 0022 DB6C     		ldr	r3, [r3, #76]
 166 0024 03F00203 		and	r3, r3, #2
 167 0028 3B60     		str	r3, [r7]
 168 002a 3B68     		ldr	r3, [r7]
 169              	.LBE2:
  48:App/main.c    **** 
  49:App/main.c    ****     /* Configure GPIO pin : PB14 (LED2) */
  50:App/main.c    ****     GPIO_InitStruct.Pin = GPIO_PIN_14;
 170              		.loc 1 50 25
 171 002c 4FF48043 		mov	r3, #16384
 172 0030 7B60     		str	r3, [r7, #4]
  51:App/main.c    ****     GPIO_InitStruct.Mode = GPIO_MODE_OUTPUT_PP;
 173              		.loc 1 51 26
 174 0032 0123     		movs	r3, #1
 175 0034 BB60     		str	r3, [r7, #8]
  52:App/main.c    ****     GPIO_InitStruct.Pull = GPIO_NOPULL;
 176              		.loc 1 52 26
 177 0036 0023     		movs	r3, #0
 178 0038 FB60     		str	r3, [r7, #12]
  53:App/main.c    ****     GPIO_InitStruct.Speed = GPIO_SPEED_FREQ_LOW;
 179              		.loc 1 53 27
 180 003a 0023     		movs	r3, #0
 181 003c 3B61     		str	r3, [r7, #16]
ARM GAS  /tmp/ccm7atEP.s 			page 5


  54:App/main.c    ****     HAL_GPIO_Init(GPIOB, &GPIO_InitStruct);
 182              		.loc 1 54 5
 183 003e 3B1D     		adds	r3, r7, #4
 184 0040 1946     		mov	r1, r3
 185 0042 0448     		ldr	r0, .L10+4
 186 0044 FFF7FEFF 		bl	HAL_GPIO_Init
  55:App/main.c    **** }
 187              		.loc 1 55 1
 188 0048 00BF     		nop
 189 004a 1837     		adds	r7, r7, #24
 190              		.cfi_def_cfa_offset 8
 191 004c BD46     		mov	sp, r7
 192              		.cfi_def_cfa_register 13
 193              		@ sp needed
 194 004e 80BD     		pop	{r7, pc}
 195              	.L11:
 196              		.align	2
 197              	.L10:
 198 0050 00100240 		.word	1073876992
 199 0054 00040048 		.word	1207960576
 200              		.cfi_endproc
 201              	.LFE451:
 203              		.section	.text.SystemClock_Config,"ax",%progbits
 204              		.align	1
 205              		.global	SystemClock_Config
 206              		.syntax unified
 207              		.thumb
 208              		.thumb_func
 210              	SystemClock_Config:
 211              	.LFB452:
  56:App/main.c    **** 
  57:App/main.c    **** void SystemClock_Config(void) {
 212              		.loc 1 57 31
 213              		.cfi_startproc
 214              		@ args = 0, pretend = 0, frame = 8
 215              		@ frame_needed = 1, uses_anonymous_args = 0
 216 0000 80B5     		push	{r7, lr}
 217              		.cfi_def_cfa_offset 8
 218              		.cfi_offset 7, -8
 219              		.cfi_offset 14, -4
 220 0002 82B0     		sub	sp, sp, #8
 221              		.cfi_def_cfa_offset 16
 222 0004 00AF     		add	r7, sp, #0
 223              		.cfi_def_cfa_register 7
 224              	.LBB3:
  58:App/main.c    ****     // Use default MSI or HSI configuration usually provided in system_stm32l4xx.c 
  59:App/main.c    ****     // or simple config here. For brevity, we assume MSI is running approx 4MHz default.
  60:App/main.c    ****     // For proper 80MHz, you need a larger struct setup here.
  61:App/main.c    ****     // This simple call enables power for the board.
  62:App/main.c    ****     __HAL_RCC_PWR_CLK_ENABLE();
 225              		.loc 1 62 5
 226 0006 0A4B     		ldr	r3, .L13
 227 0008 9B6D     		ldr	r3, [r3, #88]
 228 000a 094A     		ldr	r2, .L13
 229 000c 43F08053 		orr	r3, r3, #268435456
 230 0010 9365     		str	r3, [r2, #88]
 231 0012 074B     		ldr	r3, .L13
ARM GAS  /tmp/ccm7atEP.s 			page 6


 232 0014 9B6D     		ldr	r3, [r3, #88]
 233 0016 03F08053 		and	r3, r3, #268435456
 234 001a 7B60     		str	r3, [r7, #4]
 235 001c 7B68     		ldr	r3, [r7, #4]
 236              	.LBE3:
  63:App/main.c    ****     HAL_PWREx_ControlVoltageScaling(PWR_REGULATOR_VOLTAGE_SCALE1);
 237              		.loc 1 63 5
 238 001e 4FF40070 		mov	r0, #512
 239 0022 FFF7FEFF 		bl	HAL_PWREx_ControlVoltageScaling
  64:App/main.c    **** }...
 240              		.loc 1 64 1
 241 0026 00BF     		nop
 242 0028 0837     		adds	r7, r7, #8
 243              		.cfi_def_cfa_offset 8
 244 002a BD46     		mov	sp, r7
 245              		.cfi_def_cfa_register 13
 246              		@ sp needed
 247 002c 80BD     		pop	{r7, pc}
 248              	.L14:
 249 002e 00BF     		.align	2
 250              	.L13:
 251 0030 00100240 		.word	1073876992
 252              		.cfi_endproc
 253              	.LFE452:
 255              		.text
 256              	.Letext0:
 257              		.file 2 "/usr/lib/gcc/arm-none-eabi/13.2.1/include/stdint.h"
 258              		.file 3 "Drivers/CMSIS/Device/ST/STM32L4xx/Include/stm32l475xx.h"
 259              		.file 4 "Drivers/STM32L4xx_HAL_Driver/Inc/stm32l4xx_hal_def.h"
 260              		.file 5 "Drivers/STM32L4xx_HAL_Driver/Inc/stm32l4xx_hal_gpio.h"
 261              		.file 6 "Middlewares/FreeRTOS/include/projdefs.h"
 262              		.file 7 "Middlewares/FreeRTOS/portable/portmacro.h"
 263              		.file 8 "Middlewares/FreeRTOS/include/task.h"
 264              		.file 9 "Drivers/STM32L4xx_HAL_Driver/Inc/stm32l4xx_hal_pwr_ex.h"
 265              		.file 10 "Drivers/STM32L4xx_HAL_Driver/Inc/stm32l4xx_ll_dma.h"
 266              		.file 11 "Drivers/STM32L4xx_HAL_Driver/Inc/stm32l4xx_hal.h"
ARM GAS  /tmp/ccm7atEP.s 			page 7


DEFINED SYMBOLS
                            *ABS*:00000000 main.c
     /tmp/ccm7atEP.s:21     .rodata.CHANNEL_OFFSET_TAB:00000000 $d
     /tmp/ccm7atEP.s:24     .rodata.CHANNEL_OFFSET_TAB:00000000 CHANNEL_OFFSET_TAB
     /tmp/ccm7atEP.s:31     .bss.xBlinkHandle:00000000 xBlinkHandle
     /tmp/ccm7atEP.s:28     .bss.xBlinkHandle:00000000 $d
     /tmp/ccm7atEP.s:34     .text.vBlinkTask:00000000 $t
     /tmp/ccm7atEP.s:40     .text.vBlinkTask:00000000 vBlinkTask
     /tmp/ccm7atEP.s:69     .text.vBlinkTask:00000020 $d
     /tmp/ccm7atEP.s:74     .rodata:00000000 $d
     /tmp/ccm7atEP.s:78     .text.main:00000000 $t
     /tmp/ccm7atEP.s:84     .text.main:00000000 main
     /tmp/ccm7atEP.s:210    .text.SystemClock_Config:00000000 SystemClock_Config
     /tmp/ccm7atEP.s:135    .text.MX_GPIO_Init:00000000 MX_GPIO_Init
     /tmp/ccm7atEP.s:123    .text.main:00000030 $d
     /tmp/ccm7atEP.s:130    .text.MX_GPIO_Init:00000000 $t
     /tmp/ccm7atEP.s:198    .text.MX_GPIO_Init:00000050 $d
     /tmp/ccm7atEP.s:204    .text.SystemClock_Config:00000000 $t
     /tmp/ccm7atEP.s:251    .text.SystemClock_Config:00000030 $d
                           .group:00000000 wm4.0.e7b64c2c371cf922f2c8028878d5c18e
                           .group:00000000 wm4.stm32l4xx_hal_conf.h.23.286c2f63aaa73ed97ffb4d26f7caa6e9
                           .group:00000000 wm4.stm32l4xx.h.38.9f5830373ca31b8a3cd182fdc6c7b69a
                           .group:00000000 wm4.stm32l475xx.h.34.2f1a75aed66751e299f09004aef64973
                           .group:00000000 wm4.stdint.h.29.6d480f4ba0f60596e88234283d42444f
                           .group:00000000 wm4.cmsis_version.h.32.46e8eccfa2cfeaae11d008bb2823a3ed
                           .group:00000000 wm4.core_cm4.h.66.e4ff136c4a17abc46741866f64f8e729
                           .group:00000000 wm4.cmsis_gcc.h.26.78077cef1206e937f7b56043ffca496a
                           .group:00000000 wm4.core_cm4.h.174.fcddd62df80231752fa39eb9b61dadfe
                           .group:00000000 wm4.mpu_armv7.h.32.4049752bb5792d4e15357775e9506cfc
                           .group:00000000 wm4.stm32l475xx.h.423.4d783859c9ac66890c9807dd7bd3a4db
                           .group:00000000 wm4.stm32l4xx.h.196.f5ae8047c57b6175c94f246ef967a286
                           .group:00000000 wm4.stm32_hal_legacy.h.22.08b8350ccf512ba8d98002fb33e7cbe5
                           .group:00000000 wm4.stddef.h.39.0dc9006b34572d4d9cae4c8b422c4971
                           .group:00000000 wm4.stm32l4xx_hal_def.h.58.1058a33f7217e935f2a6b51956d66a69
                           .group:00000000 wm4.stm32l4xx_hal_rcc.h.156.ab8eecc4e10f4827a2aa75d3549a356d
                           .group:00000000 wm4.stm32l4xx_hal_rcc_ex.h.20.4a82a27d561b6d42fa16a54f82e29067
                           .group:00000000 wm4.stm32l4xx_hal_gpio.h.21.2d2b1fd6aa6afa7b6dcc89cf752a9a25
                           .group:00000000 wm4.stm32l4xx_hal_gpio_ex.h.21.7ea705f5185dd3c6b8ea336f2858cd46
                           .group:00000000 wm4.stm32l4xx_ll_dma.h.21.b30e7f48d60d1fc53041ec1e3fd6e54a
                           .group:00000000 wm4.stm32l4xx_hal_dma.h.166.54a7f8d65cee6f051d541dc010387b5a
                           .group:00000000 wm4.stm32l4xx_hal_dfsdm.h.21.6785e38d00075079c7f2e5657def82ae
                           .group:00000000 wm4.stm32l4xx_hal_cortex.h.21.cb491126bd2d6f44e90b66f27acb8434
                           .group:00000000 wm4.stm32l4xx_ll_adc.h.21.0c578f71501c74365c67044efed214d6
                           .group:00000000 wm4.stm32l4xx_hal_adc.h.411.68f60682cdb20556089756a482f23764
                           .group:00000000 wm4.stm32l4xx_hal_adc_ex.h.21.7b82cb80166a21dfa8cb3e2fa8f8e654
                           .group:00000000 wm4.stm32l4xx_hal_can.h.21.5019586d8e7137c0cec16eb1f9d6677b
                           .group:00000000 wm4.stm32l4xx_ll_exti.h.21.d866eff070d6f999af2ce4ea60aa40ac
                           .group:00000000 wm4.stm32l4xx_hal_comp.h.87.7f14cb673a463359c83faa552328844d
                           .group:00000000 wm4.stm32l4xx_hal_crc.h.21.4c36a140cca35e6a8e478e76c6ad98e3
                           .group:00000000 wm4.stm32l4xx_hal_crc_ex.h.21.9cc3dead436542d416ee5572c231a242
                           .group:00000000 wm4.stm32l4xx_hal_dac.h.21.69feba704135531cf3d9b92de27b71d5
                           .group:00000000 wm4.stm32l4xx_hal_dac_ex.h.21.c86699169bead5415cc3e94027b67df4
                           .group:00000000 wm4.stm32l4xx_hal_exti.h.21.242e0410874d91d6d7523948fff74125
                           .group:00000000 wm4.stm32l4xx_hal_firewall.h.21.7ed44f4228fcc2ef96d2177dd8632645
                           .group:00000000 wm4.stm32l4xx_hal_flash.h.20.5e337018ccfa211b4afe888a79aae9f5
                           .group:00000000 wm4.stm32l4xx_hal_flash.h.846.0445f6ea07a3f9aac82891c8687d96fb
                           .group:00000000 wm4.stm32l4xx_ll_usb.h.21.5b5e42fb72a33dd326d7b20064953946
ARM GAS  /tmp/ccm7atEP.s 			page 8


                           .group:00000000 wm4.stm32l4xx_hal_hcd.h.107.73f2fd24f57e8822da5cc86bd5ad3dfd
                           .group:00000000 wm4.stm32l4xx_hal_i2c.h.21.e7fc2065051c77019a818818e4a637d8
                           .group:00000000 wm4.stm32l4xx_hal_i2c_ex.h.21.ad4ad4e558d4fec06df87d163a6927d7
                           .group:00000000 wm4.stm32l4xx_hal_i2c.h.737.fa3908c81294cf0f9894ae336466002c
                           .group:00000000 wm4.stm32l4xx_hal_irda.h.21.136c042f9eef333167a549cc099df0c9
                           .group:00000000 wm4.stm32l4xx_hal_irda_ex.h.21.e0ada4e6d2b2cadfb512dd3c8ac0a637
                           .group:00000000 wm4.stm32l4xx_hal_iwdg.h.21.f94ca75f2fe1ebc7a2a8d0f5b58d8430
                           .group:00000000 wm4.stm32l4xx_hal_lptim.h.21.78222ea6639fc8c02789d293a048991e
                           .group:00000000 wm4.stm32l4xx_ll_sdmmc.h.21.65a5a8696b6ca7b87cc93d218084d702
                           .group:00000000 wm4.stm32l4xx_hal_mmc.h.69.8f4159f0a88ef1ebc33c58a8f10362b9
                           .group:00000000 wm4.stm32l4xx_ll_fmc.h.21.156a244c55010643ee92c6119049cb68
                           .group:00000000 wm4.stm32l4xx_hal_nand.h.176.9bfeac6e4e757991088bbd0df44e2be9
                           .group:00000000 wm4.stm32l4xx_hal_nor.h.21.d47e91e825f466bbac02fac0a7845a7a
                           .group:00000000 wm4.stm32l4xx_hal_opamp.h.21.9d841e1eaccee939f247b3f973f8af5f
                           .group:00000000 wm4.stm32l4xx_hal_pcd.h.169.addb1fac652268a18a0707cfcb5e2e47
                           .group:00000000 wm4.stm32l4xx_hal_pwr.h.21.7ddab2caa97243c36e496eca17b27618
                           .group:00000000 wm4.stm32l4xx_hal_pwr_ex.h.21.65ad8bbdbcb1950d945c0de10f22dc80
                           .group:00000000 wm4.stm32l4xx_hal_qspi.h.21.0291dad4eaa82101f2f77d76315c9b12
                           .group:00000000 wm4.stm32l4xx_hal_rng.h.21.96593715bdeab0c74ac9dfc538fb2feb
                           .group:00000000 wm4.stm32l4xx_hal_rtc.h.21.9da6b1aeebde99930891f803cb7f9678
                           .group:00000000 wm4.stm32l4xx_hal_rtc_ex.h.21.c692539378320719c7f2a2da1ca64502
                           .group:00000000 wm4.stm32l4xx_hal_rtc.h.999.c8bd9450c783628bd606ecb31bea5cc9
                           .group:00000000 wm4.stm32l4xx_hal_sai.h.21.c1165aaf2bbde65fae28ed4817be5cc5
                           .group:00000000 wm4.stm32l4xx_hal_sd.h.21.b395c90a87e82f7e8d77d4a518036063
                           .group:00000000 wm4.stm32l4xx_hal_smartcard.h.21.423c3ad63e0df35b864303e89e6d253c
                           .group:00000000 wm4.stm32l4xx_hal_smartcard_ex.h.21.801a2ce9252a785aec000b3fc7667a74
                           .group:00000000 wm4.stm32l4xx_hal_smbus.h.21.7480adb16468bfdce819ee591f21299e
                           .group:00000000 wm4.stm32l4xx_hal_smbus_ex.h.21.bdc715f5f6fb6612a871d3c03c3b871f
                           .group:00000000 wm4.stm32l4xx_hal_spi.h.21.3b51f9f7b241962f6b3483c47a43334f
                           .group:00000000 wm4.stm32l4xx_hal_sram.h.21.285210181e158bddc1cdde63dde572fd
                           .group:00000000 wm4.stm32l4xx_hal_swpmi.h.21.787f994f40b117a62aad9a6dd408b8fc
                           .group:00000000 wm4.stm32l4xx_hal_tim.h.21.d190832030e7505384ad081daa7ba8d6
                           .group:00000000 wm4.stm32l4xx_hal_tim_ex.h.21.1d0860218366ee9f64a97fd8af0ddee1
                           .group:00000000 wm4.stm32l4xx_hal_tsc.h.21.e9010049847ea38297d4b95a5ede0d8c
                           .group:00000000 wm4.stm32l4xx_hal_uart.h.21.480c0a64ca01596a921cda9dceb01df4
                           .group:00000000 wm4.stm32l4xx_hal_uart_ex.h.21.d793e64693c93af07c90464aef42bd83
                           .group:00000000 wm4.stm32l4xx_hal_usart.h.21.561c0058e33cb8df6671dcd29d5d25f9
                           .group:00000000 wm4.stm32l4xx_hal_usart_ex.h.21.111da650523691ebc80d64103d7b26e5
                           .group:00000000 wm4.stm32l4xx_hal_wwdg.h.21.073aa79d58120ae4fb8590c46b210051
                           .group:00000000 wm4.stm32l4xx_hal.h.75.d364b3778b3801d2f66bb409c48d396d
                           .group:00000000 wm4.FreeRTOS.h.59.647b1b0da38e4e98108aae13c8abe9ee
                           .group:00000000 wm4.FreeRTOSConfig.h.3.0236bfbc143c83f33d1e297da0d17c4b
                           .group:00000000 wm4.FreeRTOS.h.80.9a03152afd9cd416d9ab2abfdad37c9b
                           .group:00000000 wm4.projdefs.h.30.aa35d7b594916c060d2a891e32dea137
                           .group:00000000 wm4.portmacro.h.31.e33b7e559875bcc469c70605da17b58f
                           .group:00000000 wm4.portable.h.61.05b23d6f46f623c8ade29ce5eacb329c
                           .group:00000000 wm4.mpu_wrappers.h.30.5ad41bb447b8a1fc377f3ff5365e3b43
                           .group:00000000 wm4.portable.h.193.36e79dfed0030429d07d873c91c7277e
                           .group:00000000 wm4.FreeRTOS.h.111.6daad733ba046b297d537354d32aec60
                           .group:00000000 wm4.list.h.59.51b351582e53f1c2c45529a43c6ffaaf
                           .group:00000000 wm4.task.h.56.6d40654270ebd8aede87d7ae52c162f1

UNDEFINED SYMBOLS
HAL_GPIO_TogglePin
vTaskDelay
HAL_Init
xTaskCreate
ARM GAS  /tmp/ccm7atEP.s 			page 9


vTaskStartScheduler
HAL_GPIO_Init
HAL_PWREx_ControlVoltageScaling
