ARM GAS  /tmp/ccHphArz.s 			page 1


   1              		.cpu cortex-m4
   2              		.arch armv7e-m
   3              		.fpu fpv4-sp-d16
   4              		.eabi_attribute 27, 1
   5              		.eabi_attribute 28, 1
   6              		.eabi_attribute 20, 1
   7              		.eabi_attribute 21, 1
   8              		.eabi_attribute 23, 3
   9              		.eabi_attribute 24, 1
  10              		.eabi_attribute 25, 1
  11              		.eabi_attribute 26, 1
  12              		.eabi_attribute 30, 6
  13              		.eabi_attribute 34, 1
  14              		.eabi_attribute 18, 4
  15              		.file	"stm32l4xx_hal_sram.c"
  16              		.text
  17              	.Ltext0:
  18              		.cfi_sections	.debug_frame
  19              		.file 1 "Drivers/STM32L4xx_HAL_Driver/Src/stm32l4xx_hal_sram.c"
  20              		.section	.rodata.CHANNEL_OFFSET_TAB,"a"
  21              		.align	2
  24              	CHANNEL_OFFSET_TAB:
  25 0000 081C3044 		.ascii	"\010\0340DXl\200"
  25      586C80
  26              		.section	.text.HAL_SRAM_Init,"ax",%progbits
  27              		.align	1
  28              		.global	HAL_SRAM_Init
  29              		.syntax unified
  30              		.thumb
  31              		.thumb_func
  33              	HAL_SRAM_Init:
  34              	.LFB445:
   1:Drivers/STM32L4xx_HAL_Driver/Src/stm32l4xx_hal_sram.c **** /**
   2:Drivers/STM32L4xx_HAL_Driver/Src/stm32l4xx_hal_sram.c ****   ******************************************************************************
   3:Drivers/STM32L4xx_HAL_Driver/Src/stm32l4xx_hal_sram.c ****   * @file    stm32l4xx_hal_sram.c
   4:Drivers/STM32L4xx_HAL_Driver/Src/stm32l4xx_hal_sram.c ****   * @author  MCD Application Team
   5:Drivers/STM32L4xx_HAL_Driver/Src/stm32l4xx_hal_sram.c ****   * @brief   SRAM HAL module driver.
   6:Drivers/STM32L4xx_HAL_Driver/Src/stm32l4xx_hal_sram.c ****   *          This file provides a generic firmware to drive SRAM memories
   7:Drivers/STM32L4xx_HAL_Driver/Src/stm32l4xx_hal_sram.c ****   *          mounted as external device.
   8:Drivers/STM32L4xx_HAL_Driver/Src/stm32l4xx_hal_sram.c ****   *
   9:Drivers/STM32L4xx_HAL_Driver/Src/stm32l4xx_hal_sram.c ****   ******************************************************************************
  10:Drivers/STM32L4xx_HAL_Driver/Src/stm32l4xx_hal_sram.c ****   * @attention
  11:Drivers/STM32L4xx_HAL_Driver/Src/stm32l4xx_hal_sram.c ****   *
  12:Drivers/STM32L4xx_HAL_Driver/Src/stm32l4xx_hal_sram.c ****   * Copyright (c) 2017 STMicroelectronics.
  13:Drivers/STM32L4xx_HAL_Driver/Src/stm32l4xx_hal_sram.c ****   * All rights reserved.
  14:Drivers/STM32L4xx_HAL_Driver/Src/stm32l4xx_hal_sram.c ****   *
  15:Drivers/STM32L4xx_HAL_Driver/Src/stm32l4xx_hal_sram.c ****   * This software is licensed under terms that can be found in the LICENSE file
  16:Drivers/STM32L4xx_HAL_Driver/Src/stm32l4xx_hal_sram.c ****   * in the root directory of this software component.
  17:Drivers/STM32L4xx_HAL_Driver/Src/stm32l4xx_hal_sram.c ****   * If no LICENSE file comes with this software, it is provided AS-IS.
  18:Drivers/STM32L4xx_HAL_Driver/Src/stm32l4xx_hal_sram.c ****   *
  19:Drivers/STM32L4xx_HAL_Driver/Src/stm32l4xx_hal_sram.c ****   ******************************************************************************
  20:Drivers/STM32L4xx_HAL_Driver/Src/stm32l4xx_hal_sram.c ****   @verbatim
  21:Drivers/STM32L4xx_HAL_Driver/Src/stm32l4xx_hal_sram.c ****   ==============================================================================
  22:Drivers/STM32L4xx_HAL_Driver/Src/stm32l4xx_hal_sram.c ****                           ##### How to use this driver #####
  23:Drivers/STM32L4xx_HAL_Driver/Src/stm32l4xx_hal_sram.c ****   ==============================================================================
  24:Drivers/STM32L4xx_HAL_Driver/Src/stm32l4xx_hal_sram.c ****   [..]
  25:Drivers/STM32L4xx_HAL_Driver/Src/stm32l4xx_hal_sram.c ****     This driver is a generic layered driver which contains a set of APIs used to
ARM GAS  /tmp/ccHphArz.s 			page 2


  26:Drivers/STM32L4xx_HAL_Driver/Src/stm32l4xx_hal_sram.c ****     control SRAM memories. It uses the FMC layer functions to interface
  27:Drivers/STM32L4xx_HAL_Driver/Src/stm32l4xx_hal_sram.c ****     with SRAM devices.
  28:Drivers/STM32L4xx_HAL_Driver/Src/stm32l4xx_hal_sram.c ****     The following sequence should be followed to configure the FMC to interface
  29:Drivers/STM32L4xx_HAL_Driver/Src/stm32l4xx_hal_sram.c ****     with SRAM/PSRAM memories:
  30:Drivers/STM32L4xx_HAL_Driver/Src/stm32l4xx_hal_sram.c **** 
  31:Drivers/STM32L4xx_HAL_Driver/Src/stm32l4xx_hal_sram.c ****    (#) Declare a SRAM_HandleTypeDef handle structure, for example:
  32:Drivers/STM32L4xx_HAL_Driver/Src/stm32l4xx_hal_sram.c ****           SRAM_HandleTypeDef  hsram; and:
  33:Drivers/STM32L4xx_HAL_Driver/Src/stm32l4xx_hal_sram.c **** 
  34:Drivers/STM32L4xx_HAL_Driver/Src/stm32l4xx_hal_sram.c ****        (++) Fill the SRAM_HandleTypeDef handle "Init" field with the allowed
  35:Drivers/STM32L4xx_HAL_Driver/Src/stm32l4xx_hal_sram.c ****             values of the structure member.
  36:Drivers/STM32L4xx_HAL_Driver/Src/stm32l4xx_hal_sram.c **** 
  37:Drivers/STM32L4xx_HAL_Driver/Src/stm32l4xx_hal_sram.c ****        (++) Fill the SRAM_HandleTypeDef handle "Instance" field with a predefined
  38:Drivers/STM32L4xx_HAL_Driver/Src/stm32l4xx_hal_sram.c ****             base register instance for NOR or SRAM device
  39:Drivers/STM32L4xx_HAL_Driver/Src/stm32l4xx_hal_sram.c **** 
  40:Drivers/STM32L4xx_HAL_Driver/Src/stm32l4xx_hal_sram.c ****        (++) Fill the SRAM_HandleTypeDef handle "Extended" field with a predefined
  41:Drivers/STM32L4xx_HAL_Driver/Src/stm32l4xx_hal_sram.c ****             base register instance for NOR or SRAM extended mode
  42:Drivers/STM32L4xx_HAL_Driver/Src/stm32l4xx_hal_sram.c **** 
  43:Drivers/STM32L4xx_HAL_Driver/Src/stm32l4xx_hal_sram.c ****    (#) Declare two FMC_NORSRAM_TimingTypeDef structures, for both normal and extended
  44:Drivers/STM32L4xx_HAL_Driver/Src/stm32l4xx_hal_sram.c ****        mode timings; for example:
  45:Drivers/STM32L4xx_HAL_Driver/Src/stm32l4xx_hal_sram.c ****           FMC_NORSRAM_TimingTypeDef  Timing and FMC_NORSRAM_TimingTypeDef  ExTiming;
  46:Drivers/STM32L4xx_HAL_Driver/Src/stm32l4xx_hal_sram.c ****       and fill its fields with the allowed values of the structure member.
  47:Drivers/STM32L4xx_HAL_Driver/Src/stm32l4xx_hal_sram.c **** 
  48:Drivers/STM32L4xx_HAL_Driver/Src/stm32l4xx_hal_sram.c ****    (#) Initialize the SRAM Controller by calling the function HAL_SRAM_Init(). This function
  49:Drivers/STM32L4xx_HAL_Driver/Src/stm32l4xx_hal_sram.c ****        performs the following sequence:
  50:Drivers/STM32L4xx_HAL_Driver/Src/stm32l4xx_hal_sram.c **** 
  51:Drivers/STM32L4xx_HAL_Driver/Src/stm32l4xx_hal_sram.c ****        (##) MSP hardware layer configuration using the function HAL_SRAM_MspInit()
  52:Drivers/STM32L4xx_HAL_Driver/Src/stm32l4xx_hal_sram.c ****        (##) Control register configuration using the FMC NORSRAM interface function
  53:Drivers/STM32L4xx_HAL_Driver/Src/stm32l4xx_hal_sram.c ****             FMC_NORSRAM_Init()
  54:Drivers/STM32L4xx_HAL_Driver/Src/stm32l4xx_hal_sram.c ****        (##) Timing register configuration using the FMC NORSRAM interface function
  55:Drivers/STM32L4xx_HAL_Driver/Src/stm32l4xx_hal_sram.c ****             FMC_NORSRAM_Timing_Init()
  56:Drivers/STM32L4xx_HAL_Driver/Src/stm32l4xx_hal_sram.c ****        (##) Extended mode Timing register configuration using the FMC NORSRAM interface function
  57:Drivers/STM32L4xx_HAL_Driver/Src/stm32l4xx_hal_sram.c ****             FMC_NORSRAM_Extended_Timing_Init()
  58:Drivers/STM32L4xx_HAL_Driver/Src/stm32l4xx_hal_sram.c ****        (##) Enable the SRAM device using the macro __FMC_NORSRAM_ENABLE()
  59:Drivers/STM32L4xx_HAL_Driver/Src/stm32l4xx_hal_sram.c **** 
  60:Drivers/STM32L4xx_HAL_Driver/Src/stm32l4xx_hal_sram.c ****    (#) At this stage you can perform read/write accesses from/to the memory connected
  61:Drivers/STM32L4xx_HAL_Driver/Src/stm32l4xx_hal_sram.c ****        to the NOR/SRAM Bank. You can perform either polling or DMA transfer using the
  62:Drivers/STM32L4xx_HAL_Driver/Src/stm32l4xx_hal_sram.c ****        following APIs:
  63:Drivers/STM32L4xx_HAL_Driver/Src/stm32l4xx_hal_sram.c ****        (++) HAL_SRAM_Read()/HAL_SRAM_Write() for polling read/write access
  64:Drivers/STM32L4xx_HAL_Driver/Src/stm32l4xx_hal_sram.c ****        (++) HAL_SRAM_Read_DMA()/HAL_SRAM_Write_DMA() for DMA read/write transfer
  65:Drivers/STM32L4xx_HAL_Driver/Src/stm32l4xx_hal_sram.c **** 
  66:Drivers/STM32L4xx_HAL_Driver/Src/stm32l4xx_hal_sram.c ****    (#) You can also control the SRAM device by calling the control APIs HAL_SRAM_WriteOperation_Ena
  67:Drivers/STM32L4xx_HAL_Driver/Src/stm32l4xx_hal_sram.c ****        HAL_SRAM_WriteOperation_Disable() to respectively enable/disable the SRAM write operation
  68:Drivers/STM32L4xx_HAL_Driver/Src/stm32l4xx_hal_sram.c **** 
  69:Drivers/STM32L4xx_HAL_Driver/Src/stm32l4xx_hal_sram.c ****    (#) You can continuously monitor the SRAM device HAL state by calling the function
  70:Drivers/STM32L4xx_HAL_Driver/Src/stm32l4xx_hal_sram.c ****        HAL_SRAM_GetState()
  71:Drivers/STM32L4xx_HAL_Driver/Src/stm32l4xx_hal_sram.c **** 
  72:Drivers/STM32L4xx_HAL_Driver/Src/stm32l4xx_hal_sram.c ****        *** Callback registration ***
  73:Drivers/STM32L4xx_HAL_Driver/Src/stm32l4xx_hal_sram.c ****     =============================================
  74:Drivers/STM32L4xx_HAL_Driver/Src/stm32l4xx_hal_sram.c ****     [..]
  75:Drivers/STM32L4xx_HAL_Driver/Src/stm32l4xx_hal_sram.c ****       The compilation define  USE_HAL_SRAM_REGISTER_CALLBACKS when set to 1
  76:Drivers/STM32L4xx_HAL_Driver/Src/stm32l4xx_hal_sram.c ****       allows the user to configure dynamically the driver callbacks.
  77:Drivers/STM32L4xx_HAL_Driver/Src/stm32l4xx_hal_sram.c **** 
  78:Drivers/STM32L4xx_HAL_Driver/Src/stm32l4xx_hal_sram.c ****       Use Functions HAL_SRAM_RegisterCallback() to register a user callback,
  79:Drivers/STM32L4xx_HAL_Driver/Src/stm32l4xx_hal_sram.c ****       it allows to register following callbacks:
  80:Drivers/STM32L4xx_HAL_Driver/Src/stm32l4xx_hal_sram.c ****         (+) MspInitCallback    : SRAM MspInit.
  81:Drivers/STM32L4xx_HAL_Driver/Src/stm32l4xx_hal_sram.c ****         (+) MspDeInitCallback  : SRAM MspDeInit.
  82:Drivers/STM32L4xx_HAL_Driver/Src/stm32l4xx_hal_sram.c ****       This function takes as parameters the HAL peripheral handle, the Callback ID
ARM GAS  /tmp/ccHphArz.s 			page 3


  83:Drivers/STM32L4xx_HAL_Driver/Src/stm32l4xx_hal_sram.c ****       and a pointer to the user callback function.
  84:Drivers/STM32L4xx_HAL_Driver/Src/stm32l4xx_hal_sram.c **** 
  85:Drivers/STM32L4xx_HAL_Driver/Src/stm32l4xx_hal_sram.c ****       Use function HAL_SRAM_UnRegisterCallback() to reset a callback to the default
  86:Drivers/STM32L4xx_HAL_Driver/Src/stm32l4xx_hal_sram.c ****       weak (overridden) function. It allows to reset following callbacks:
  87:Drivers/STM32L4xx_HAL_Driver/Src/stm32l4xx_hal_sram.c ****         (+) MspInitCallback    : SRAM MspInit.
  88:Drivers/STM32L4xx_HAL_Driver/Src/stm32l4xx_hal_sram.c ****         (+) MspDeInitCallback  : SRAM MspDeInit.
  89:Drivers/STM32L4xx_HAL_Driver/Src/stm32l4xx_hal_sram.c ****       This function) takes as parameters the HAL peripheral handle and the Callback ID.
  90:Drivers/STM32L4xx_HAL_Driver/Src/stm32l4xx_hal_sram.c **** 
  91:Drivers/STM32L4xx_HAL_Driver/Src/stm32l4xx_hal_sram.c ****       By default, after the HAL_SRAM_Init and if the state is HAL_SRAM_STATE_RESET
  92:Drivers/STM32L4xx_HAL_Driver/Src/stm32l4xx_hal_sram.c ****       all callbacks are reset to the corresponding legacy weak (overridden) functions.
  93:Drivers/STM32L4xx_HAL_Driver/Src/stm32l4xx_hal_sram.c ****       Exception done for MspInit and MspDeInit callbacks that are respectively
  94:Drivers/STM32L4xx_HAL_Driver/Src/stm32l4xx_hal_sram.c ****       reset to the legacy weak (overridden) functions in the HAL_SRAM_Init
  95:Drivers/STM32L4xx_HAL_Driver/Src/stm32l4xx_hal_sram.c ****       and  HAL_SRAM_DeInit only when these callbacks are null (not registered beforehand).
  96:Drivers/STM32L4xx_HAL_Driver/Src/stm32l4xx_hal_sram.c ****       If not, MspInit or MspDeInit are not null, the HAL_SRAM_Init and HAL_SRAM_DeInit
  97:Drivers/STM32L4xx_HAL_Driver/Src/stm32l4xx_hal_sram.c ****       keep and use the user MspInit/MspDeInit callbacks (registered beforehand)
  98:Drivers/STM32L4xx_HAL_Driver/Src/stm32l4xx_hal_sram.c **** 
  99:Drivers/STM32L4xx_HAL_Driver/Src/stm32l4xx_hal_sram.c ****       Callbacks can be registered/unregistered in READY state only.
 100:Drivers/STM32L4xx_HAL_Driver/Src/stm32l4xx_hal_sram.c ****       Exception done for MspInit/MspDeInit callbacks that can be registered/unregistered
 101:Drivers/STM32L4xx_HAL_Driver/Src/stm32l4xx_hal_sram.c ****       in READY or RESET state, thus registered (user) MspInit/DeInit callbacks can be used
 102:Drivers/STM32L4xx_HAL_Driver/Src/stm32l4xx_hal_sram.c ****       during the Init/DeInit.
 103:Drivers/STM32L4xx_HAL_Driver/Src/stm32l4xx_hal_sram.c ****       In that case first register the MspInit/MspDeInit user callbacks
 104:Drivers/STM32L4xx_HAL_Driver/Src/stm32l4xx_hal_sram.c ****       using HAL_SRAM_RegisterCallback before calling HAL_SRAM_DeInit
 105:Drivers/STM32L4xx_HAL_Driver/Src/stm32l4xx_hal_sram.c ****       or HAL_SRAM_Init function.
 106:Drivers/STM32L4xx_HAL_Driver/Src/stm32l4xx_hal_sram.c **** 
 107:Drivers/STM32L4xx_HAL_Driver/Src/stm32l4xx_hal_sram.c ****       When The compilation define USE_HAL_SRAM_REGISTER_CALLBACKS is set to 0 or
 108:Drivers/STM32L4xx_HAL_Driver/Src/stm32l4xx_hal_sram.c ****       not defined, the callback registering feature is not available
 109:Drivers/STM32L4xx_HAL_Driver/Src/stm32l4xx_hal_sram.c ****       and weak (overridden) callbacks are used.
 110:Drivers/STM32L4xx_HAL_Driver/Src/stm32l4xx_hal_sram.c **** 
 111:Drivers/STM32L4xx_HAL_Driver/Src/stm32l4xx_hal_sram.c ****   @endverbatim
 112:Drivers/STM32L4xx_HAL_Driver/Src/stm32l4xx_hal_sram.c ****   ******************************************************************************
 113:Drivers/STM32L4xx_HAL_Driver/Src/stm32l4xx_hal_sram.c ****   */
 114:Drivers/STM32L4xx_HAL_Driver/Src/stm32l4xx_hal_sram.c **** 
 115:Drivers/STM32L4xx_HAL_Driver/Src/stm32l4xx_hal_sram.c **** /* Includes ------------------------------------------------------------------*/
 116:Drivers/STM32L4xx_HAL_Driver/Src/stm32l4xx_hal_sram.c **** #include "stm32l4xx_hal.h"
 117:Drivers/STM32L4xx_HAL_Driver/Src/stm32l4xx_hal_sram.c **** 
 118:Drivers/STM32L4xx_HAL_Driver/Src/stm32l4xx_hal_sram.c **** #if defined(FMC_BANK1)
 119:Drivers/STM32L4xx_HAL_Driver/Src/stm32l4xx_hal_sram.c **** 
 120:Drivers/STM32L4xx_HAL_Driver/Src/stm32l4xx_hal_sram.c **** /** @addtogroup STM32L4xx_HAL_Driver
 121:Drivers/STM32L4xx_HAL_Driver/Src/stm32l4xx_hal_sram.c ****   * @{
 122:Drivers/STM32L4xx_HAL_Driver/Src/stm32l4xx_hal_sram.c ****   */
 123:Drivers/STM32L4xx_HAL_Driver/Src/stm32l4xx_hal_sram.c **** 
 124:Drivers/STM32L4xx_HAL_Driver/Src/stm32l4xx_hal_sram.c **** #ifdef HAL_SRAM_MODULE_ENABLED
 125:Drivers/STM32L4xx_HAL_Driver/Src/stm32l4xx_hal_sram.c **** 
 126:Drivers/STM32L4xx_HAL_Driver/Src/stm32l4xx_hal_sram.c **** /** @defgroup SRAM SRAM
 127:Drivers/STM32L4xx_HAL_Driver/Src/stm32l4xx_hal_sram.c ****   * @brief SRAM driver modules
 128:Drivers/STM32L4xx_HAL_Driver/Src/stm32l4xx_hal_sram.c ****   * @{
 129:Drivers/STM32L4xx_HAL_Driver/Src/stm32l4xx_hal_sram.c ****   */
 130:Drivers/STM32L4xx_HAL_Driver/Src/stm32l4xx_hal_sram.c **** 
 131:Drivers/STM32L4xx_HAL_Driver/Src/stm32l4xx_hal_sram.c **** /* Private typedef -----------------------------------------------------------*/
 132:Drivers/STM32L4xx_HAL_Driver/Src/stm32l4xx_hal_sram.c **** /* Private define ------------------------------------------------------------*/
 133:Drivers/STM32L4xx_HAL_Driver/Src/stm32l4xx_hal_sram.c **** /* Private macro -------------------------------------------------------------*/
 134:Drivers/STM32L4xx_HAL_Driver/Src/stm32l4xx_hal_sram.c **** /* Private variables ---------------------------------------------------------*/
 135:Drivers/STM32L4xx_HAL_Driver/Src/stm32l4xx_hal_sram.c **** /* Private function prototypes -----------------------------------------------*/
 136:Drivers/STM32L4xx_HAL_Driver/Src/stm32l4xx_hal_sram.c **** /** @addtogroup SRAM_Private_Functions SRAM Private Functions
 137:Drivers/STM32L4xx_HAL_Driver/Src/stm32l4xx_hal_sram.c ****   * @{
 138:Drivers/STM32L4xx_HAL_Driver/Src/stm32l4xx_hal_sram.c ****   */
 139:Drivers/STM32L4xx_HAL_Driver/Src/stm32l4xx_hal_sram.c **** static void SRAM_DMACplt(DMA_HandleTypeDef *hdma);
ARM GAS  /tmp/ccHphArz.s 			page 4


 140:Drivers/STM32L4xx_HAL_Driver/Src/stm32l4xx_hal_sram.c **** static void SRAM_DMACpltProt(DMA_HandleTypeDef *hdma);
 141:Drivers/STM32L4xx_HAL_Driver/Src/stm32l4xx_hal_sram.c **** static void SRAM_DMAError(DMA_HandleTypeDef *hdma);
 142:Drivers/STM32L4xx_HAL_Driver/Src/stm32l4xx_hal_sram.c **** /**
 143:Drivers/STM32L4xx_HAL_Driver/Src/stm32l4xx_hal_sram.c ****   * @}
 144:Drivers/STM32L4xx_HAL_Driver/Src/stm32l4xx_hal_sram.c ****   */
 145:Drivers/STM32L4xx_HAL_Driver/Src/stm32l4xx_hal_sram.c **** 
 146:Drivers/STM32L4xx_HAL_Driver/Src/stm32l4xx_hal_sram.c **** /* Exported functions --------------------------------------------------------*/
 147:Drivers/STM32L4xx_HAL_Driver/Src/stm32l4xx_hal_sram.c **** 
 148:Drivers/STM32L4xx_HAL_Driver/Src/stm32l4xx_hal_sram.c **** /** @defgroup SRAM_Exported_Functions SRAM Exported Functions
 149:Drivers/STM32L4xx_HAL_Driver/Src/stm32l4xx_hal_sram.c ****   * @{
 150:Drivers/STM32L4xx_HAL_Driver/Src/stm32l4xx_hal_sram.c ****   */
 151:Drivers/STM32L4xx_HAL_Driver/Src/stm32l4xx_hal_sram.c **** 
 152:Drivers/STM32L4xx_HAL_Driver/Src/stm32l4xx_hal_sram.c **** /** @defgroup SRAM_Exported_Functions_Group1 Initialization and de-initialization functions
 153:Drivers/STM32L4xx_HAL_Driver/Src/stm32l4xx_hal_sram.c ****   * @brief    Initialization and Configuration functions.
 154:Drivers/STM32L4xx_HAL_Driver/Src/stm32l4xx_hal_sram.c ****   *
 155:Drivers/STM32L4xx_HAL_Driver/Src/stm32l4xx_hal_sram.c ****   @verbatim
 156:Drivers/STM32L4xx_HAL_Driver/Src/stm32l4xx_hal_sram.c ****   ==============================================================================
 157:Drivers/STM32L4xx_HAL_Driver/Src/stm32l4xx_hal_sram.c ****            ##### SRAM Initialization and de_initialization functions #####
 158:Drivers/STM32L4xx_HAL_Driver/Src/stm32l4xx_hal_sram.c ****   ==============================================================================
 159:Drivers/STM32L4xx_HAL_Driver/Src/stm32l4xx_hal_sram.c ****     [..]  This section provides functions allowing to initialize/de-initialize
 160:Drivers/STM32L4xx_HAL_Driver/Src/stm32l4xx_hal_sram.c ****           the SRAM memory
 161:Drivers/STM32L4xx_HAL_Driver/Src/stm32l4xx_hal_sram.c **** 
 162:Drivers/STM32L4xx_HAL_Driver/Src/stm32l4xx_hal_sram.c **** @endverbatim
 163:Drivers/STM32L4xx_HAL_Driver/Src/stm32l4xx_hal_sram.c ****   * @{
 164:Drivers/STM32L4xx_HAL_Driver/Src/stm32l4xx_hal_sram.c ****   */
 165:Drivers/STM32L4xx_HAL_Driver/Src/stm32l4xx_hal_sram.c **** 
 166:Drivers/STM32L4xx_HAL_Driver/Src/stm32l4xx_hal_sram.c **** /**
 167:Drivers/STM32L4xx_HAL_Driver/Src/stm32l4xx_hal_sram.c ****   * @brief  Performs the SRAM device initialization sequence
 168:Drivers/STM32L4xx_HAL_Driver/Src/stm32l4xx_hal_sram.c ****   * @param  hsram pointer to a SRAM_HandleTypeDef structure that contains
 169:Drivers/STM32L4xx_HAL_Driver/Src/stm32l4xx_hal_sram.c ****   *                the configuration information for SRAM module.
 170:Drivers/STM32L4xx_HAL_Driver/Src/stm32l4xx_hal_sram.c ****   * @param  Timing Pointer to SRAM control timing structure
 171:Drivers/STM32L4xx_HAL_Driver/Src/stm32l4xx_hal_sram.c ****   * @param  ExtTiming Pointer to SRAM extended mode timing structure
 172:Drivers/STM32L4xx_HAL_Driver/Src/stm32l4xx_hal_sram.c ****   * @retval HAL status
 173:Drivers/STM32L4xx_HAL_Driver/Src/stm32l4xx_hal_sram.c ****   */
 174:Drivers/STM32L4xx_HAL_Driver/Src/stm32l4xx_hal_sram.c **** HAL_StatusTypeDef HAL_SRAM_Init(SRAM_HandleTypeDef *hsram, FMC_NORSRAM_TimingTypeDef *Timing,
 175:Drivers/STM32L4xx_HAL_Driver/Src/stm32l4xx_hal_sram.c ****                                 FMC_NORSRAM_TimingTypeDef *ExtTiming)
 176:Drivers/STM32L4xx_HAL_Driver/Src/stm32l4xx_hal_sram.c **** {
  35              		.loc 1 176 1
  36              		.cfi_startproc
  37              		@ args = 0, pretend = 0, frame = 16
  38              		@ frame_needed = 1, uses_anonymous_args = 0
  39 0000 80B5     		push	{r7, lr}
  40              		.cfi_def_cfa_offset 8
  41              		.cfi_offset 7, -8
  42              		.cfi_offset 14, -4
  43 0002 84B0     		sub	sp, sp, #16
  44              		.cfi_def_cfa_offset 24
  45 0004 00AF     		add	r7, sp, #0
  46              		.cfi_def_cfa_register 7
  47 0006 F860     		str	r0, [r7, #12]
  48 0008 B960     		str	r1, [r7, #8]
  49 000a 7A60     		str	r2, [r7, #4]
 177:Drivers/STM32L4xx_HAL_Driver/Src/stm32l4xx_hal_sram.c ****   /* Check the SRAM handle parameter */
 178:Drivers/STM32L4xx_HAL_Driver/Src/stm32l4xx_hal_sram.c ****   if (hsram == NULL)
  50              		.loc 1 178 6
  51 000c FB68     		ldr	r3, [r7, #12]
  52 000e 002B     		cmp	r3, #0
ARM GAS  /tmp/ccHphArz.s 			page 5


  53 0010 01D1     		bne	.L2
 179:Drivers/STM32L4xx_HAL_Driver/Src/stm32l4xx_hal_sram.c ****   {
 180:Drivers/STM32L4xx_HAL_Driver/Src/stm32l4xx_hal_sram.c ****     return HAL_ERROR;
  54              		.loc 1 180 12
  55 0012 0123     		movs	r3, #1
  56 0014 38E0     		b	.L3
  57              	.L2:
 181:Drivers/STM32L4xx_HAL_Driver/Src/stm32l4xx_hal_sram.c ****   }
 182:Drivers/STM32L4xx_HAL_Driver/Src/stm32l4xx_hal_sram.c **** 
 183:Drivers/STM32L4xx_HAL_Driver/Src/stm32l4xx_hal_sram.c ****   if (hsram->State == HAL_SRAM_STATE_RESET)
  58              		.loc 1 183 12
  59 0016 FB68     		ldr	r3, [r7, #12]
  60 0018 93F84930 		ldrb	r3, [r3, #73]
  61 001c DBB2     		uxtb	r3, r3
  62              		.loc 1 183 6
  63 001e 002B     		cmp	r3, #0
  64 0020 06D1     		bne	.L4
 184:Drivers/STM32L4xx_HAL_Driver/Src/stm32l4xx_hal_sram.c ****   {
 185:Drivers/STM32L4xx_HAL_Driver/Src/stm32l4xx_hal_sram.c ****     /* Allocate lock resource and initialize it */
 186:Drivers/STM32L4xx_HAL_Driver/Src/stm32l4xx_hal_sram.c ****     hsram->Lock = HAL_UNLOCKED;
  65              		.loc 1 186 17
  66 0022 FB68     		ldr	r3, [r7, #12]
  67 0024 0022     		movs	r2, #0
  68 0026 83F84820 		strb	r2, [r3, #72]
 187:Drivers/STM32L4xx_HAL_Driver/Src/stm32l4xx_hal_sram.c **** 
 188:Drivers/STM32L4xx_HAL_Driver/Src/stm32l4xx_hal_sram.c **** #if (USE_HAL_SRAM_REGISTER_CALLBACKS == 1)
 189:Drivers/STM32L4xx_HAL_Driver/Src/stm32l4xx_hal_sram.c ****     if (hsram->MspInitCallback == NULL)
 190:Drivers/STM32L4xx_HAL_Driver/Src/stm32l4xx_hal_sram.c ****     {
 191:Drivers/STM32L4xx_HAL_Driver/Src/stm32l4xx_hal_sram.c ****       hsram->MspInitCallback = HAL_SRAM_MspInit;
 192:Drivers/STM32L4xx_HAL_Driver/Src/stm32l4xx_hal_sram.c ****     }
 193:Drivers/STM32L4xx_HAL_Driver/Src/stm32l4xx_hal_sram.c ****     hsram->DmaXferCpltCallback = HAL_SRAM_DMA_XferCpltCallback;
 194:Drivers/STM32L4xx_HAL_Driver/Src/stm32l4xx_hal_sram.c ****     hsram->DmaXferErrorCallback = HAL_SRAM_DMA_XferErrorCallback;
 195:Drivers/STM32L4xx_HAL_Driver/Src/stm32l4xx_hal_sram.c **** 
 196:Drivers/STM32L4xx_HAL_Driver/Src/stm32l4xx_hal_sram.c ****     /* Init the low level hardware */
 197:Drivers/STM32L4xx_HAL_Driver/Src/stm32l4xx_hal_sram.c ****     hsram->MspInitCallback(hsram);
 198:Drivers/STM32L4xx_HAL_Driver/Src/stm32l4xx_hal_sram.c **** #else
 199:Drivers/STM32L4xx_HAL_Driver/Src/stm32l4xx_hal_sram.c ****     /* Initialize the low level hardware (MSP) */
 200:Drivers/STM32L4xx_HAL_Driver/Src/stm32l4xx_hal_sram.c ****     HAL_SRAM_MspInit(hsram);
  69              		.loc 1 200 5
  70 002a F868     		ldr	r0, [r7, #12]
  71 002c FFF7FEFF 		bl	HAL_SRAM_MspInit
  72              	.L4:
 201:Drivers/STM32L4xx_HAL_Driver/Src/stm32l4xx_hal_sram.c **** #endif /* USE_HAL_SRAM_REGISTER_CALLBACKS */
 202:Drivers/STM32L4xx_HAL_Driver/Src/stm32l4xx_hal_sram.c ****   }
 203:Drivers/STM32L4xx_HAL_Driver/Src/stm32l4xx_hal_sram.c **** 
 204:Drivers/STM32L4xx_HAL_Driver/Src/stm32l4xx_hal_sram.c ****   /* Initialize SRAM control Interface */
 205:Drivers/STM32L4xx_HAL_Driver/Src/stm32l4xx_hal_sram.c ****   (void)FMC_NORSRAM_Init(hsram->Instance, &(hsram->Init));
  73              		.loc 1 205 9
  74 0030 FB68     		ldr	r3, [r7, #12]
  75 0032 1A68     		ldr	r2, [r3]
  76              		.loc 1 205 43
  77 0034 FB68     		ldr	r3, [r7, #12]
  78 0036 0833     		adds	r3, r3, #8
  79              		.loc 1 205 9
  80 0038 1946     		mov	r1, r3
  81 003a 1046     		mov	r0, r2
  82 003c FFF7FEFF 		bl	FMC_NORSRAM_Init
ARM GAS  /tmp/ccHphArz.s 			page 6


 206:Drivers/STM32L4xx_HAL_Driver/Src/stm32l4xx_hal_sram.c **** 
 207:Drivers/STM32L4xx_HAL_Driver/Src/stm32l4xx_hal_sram.c ****   /* Initialize SRAM timing Interface */
 208:Drivers/STM32L4xx_HAL_Driver/Src/stm32l4xx_hal_sram.c ****   (void)FMC_NORSRAM_Timing_Init(hsram->Instance, Timing, hsram->Init.NSBank);
  83              		.loc 1 208 9
  84 0040 FB68     		ldr	r3, [r7, #12]
  85 0042 1868     		ldr	r0, [r3]
  86 0044 FB68     		ldr	r3, [r7, #12]
  87 0046 9B68     		ldr	r3, [r3, #8]
  88 0048 1A46     		mov	r2, r3
  89 004a B968     		ldr	r1, [r7, #8]
  90 004c FFF7FEFF 		bl	FMC_NORSRAM_Timing_Init
 209:Drivers/STM32L4xx_HAL_Driver/Src/stm32l4xx_hal_sram.c **** 
 210:Drivers/STM32L4xx_HAL_Driver/Src/stm32l4xx_hal_sram.c ****   /* Initialize SRAM extended mode timing Interface */
 211:Drivers/STM32L4xx_HAL_Driver/Src/stm32l4xx_hal_sram.c ****   (void)FMC_NORSRAM_Extended_Timing_Init(hsram->Extended, ExtTiming, hsram->Init.NSBank,
  91              		.loc 1 211 9
  92 0050 FB68     		ldr	r3, [r7, #12]
  93 0052 5868     		ldr	r0, [r3, #4]
  94 0054 FB68     		ldr	r3, [r7, #12]
  95 0056 9A68     		ldr	r2, [r3, #8]
  96 0058 FB68     		ldr	r3, [r7, #12]
  97 005a DB6A     		ldr	r3, [r3, #44]
  98 005c 7968     		ldr	r1, [r7, #4]
  99 005e FFF7FEFF 		bl	FMC_NORSRAM_Extended_Timing_Init
 212:Drivers/STM32L4xx_HAL_Driver/Src/stm32l4xx_hal_sram.c ****                                          hsram->Init.ExtendedMode);
 213:Drivers/STM32L4xx_HAL_Driver/Src/stm32l4xx_hal_sram.c **** 
 214:Drivers/STM32L4xx_HAL_Driver/Src/stm32l4xx_hal_sram.c ****   /* Enable the NORSRAM device */
 215:Drivers/STM32L4xx_HAL_Driver/Src/stm32l4xx_hal_sram.c ****   __FMC_NORSRAM_ENABLE(hsram->Instance, hsram->Init.NSBank);
 100              		.loc 1 215 3
 101 0062 FB68     		ldr	r3, [r7, #12]
 102 0064 1B68     		ldr	r3, [r3]
 103 0066 FA68     		ldr	r2, [r7, #12]
 104 0068 9268     		ldr	r2, [r2, #8]
 105 006a 53F82210 		ldr	r1, [r3, r2, lsl #2]
 106 006e FB68     		ldr	r3, [r7, #12]
 107 0070 1B68     		ldr	r3, [r3]
 108 0072 FA68     		ldr	r2, [r7, #12]
 109 0074 9268     		ldr	r2, [r2, #8]
 110 0076 41F00101 		orr	r1, r1, #1
 111 007a 43F82210 		str	r1, [r3, r2, lsl #2]
 216:Drivers/STM32L4xx_HAL_Driver/Src/stm32l4xx_hal_sram.c **** 
 217:Drivers/STM32L4xx_HAL_Driver/Src/stm32l4xx_hal_sram.c ****   /* Initialize the SRAM controller state */
 218:Drivers/STM32L4xx_HAL_Driver/Src/stm32l4xx_hal_sram.c ****   hsram->State = HAL_SRAM_STATE_READY;
 112              		.loc 1 218 16
 113 007e FB68     		ldr	r3, [r7, #12]
 114 0080 0122     		movs	r2, #1
 115 0082 83F84920 		strb	r2, [r3, #73]
 219:Drivers/STM32L4xx_HAL_Driver/Src/stm32l4xx_hal_sram.c **** 
 220:Drivers/STM32L4xx_HAL_Driver/Src/stm32l4xx_hal_sram.c ****   return HAL_OK;
 116              		.loc 1 220 10
 117 0086 0023     		movs	r3, #0
 118              	.L3:
 221:Drivers/STM32L4xx_HAL_Driver/Src/stm32l4xx_hal_sram.c **** }
 119              		.loc 1 221 1
 120 0088 1846     		mov	r0, r3
 121 008a 1037     		adds	r7, r7, #16
 122              		.cfi_def_cfa_offset 8
 123 008c BD46     		mov	sp, r7
ARM GAS  /tmp/ccHphArz.s 			page 7


 124              		.cfi_def_cfa_register 13
 125              		@ sp needed
 126 008e 80BD     		pop	{r7, pc}
 127              		.cfi_endproc
 128              	.LFE445:
 130              		.section	.text.HAL_SRAM_DeInit,"ax",%progbits
 131              		.align	1
 132              		.global	HAL_SRAM_DeInit
 133              		.syntax unified
 134              		.thumb
 135              		.thumb_func
 137              	HAL_SRAM_DeInit:
 138              	.LFB446:
 222:Drivers/STM32L4xx_HAL_Driver/Src/stm32l4xx_hal_sram.c **** 
 223:Drivers/STM32L4xx_HAL_Driver/Src/stm32l4xx_hal_sram.c **** /**
 224:Drivers/STM32L4xx_HAL_Driver/Src/stm32l4xx_hal_sram.c ****   * @brief  Performs the SRAM device De-initialization sequence.
 225:Drivers/STM32L4xx_HAL_Driver/Src/stm32l4xx_hal_sram.c ****   * @param  hsram pointer to a SRAM_HandleTypeDef structure that contains
 226:Drivers/STM32L4xx_HAL_Driver/Src/stm32l4xx_hal_sram.c ****   *                the configuration information for SRAM module.
 227:Drivers/STM32L4xx_HAL_Driver/Src/stm32l4xx_hal_sram.c ****   * @retval HAL status
 228:Drivers/STM32L4xx_HAL_Driver/Src/stm32l4xx_hal_sram.c ****   */
 229:Drivers/STM32L4xx_HAL_Driver/Src/stm32l4xx_hal_sram.c **** HAL_StatusTypeDef HAL_SRAM_DeInit(SRAM_HandleTypeDef *hsram)
 230:Drivers/STM32L4xx_HAL_Driver/Src/stm32l4xx_hal_sram.c **** {
 139              		.loc 1 230 1
 140              		.cfi_startproc
 141              		@ args = 0, pretend = 0, frame = 8
 142              		@ frame_needed = 1, uses_anonymous_args = 0
 143 0000 80B5     		push	{r7, lr}
 144              		.cfi_def_cfa_offset 8
 145              		.cfi_offset 7, -8
 146              		.cfi_offset 14, -4
 147 0002 82B0     		sub	sp, sp, #8
 148              		.cfi_def_cfa_offset 16
 149 0004 00AF     		add	r7, sp, #0
 150              		.cfi_def_cfa_register 7
 151 0006 7860     		str	r0, [r7, #4]
 231:Drivers/STM32L4xx_HAL_Driver/Src/stm32l4xx_hal_sram.c **** #if (USE_HAL_SRAM_REGISTER_CALLBACKS == 1)
 232:Drivers/STM32L4xx_HAL_Driver/Src/stm32l4xx_hal_sram.c ****   if (hsram->MspDeInitCallback == NULL)
 233:Drivers/STM32L4xx_HAL_Driver/Src/stm32l4xx_hal_sram.c ****   {
 234:Drivers/STM32L4xx_HAL_Driver/Src/stm32l4xx_hal_sram.c ****     hsram->MspDeInitCallback = HAL_SRAM_MspDeInit;
 235:Drivers/STM32L4xx_HAL_Driver/Src/stm32l4xx_hal_sram.c ****   }
 236:Drivers/STM32L4xx_HAL_Driver/Src/stm32l4xx_hal_sram.c **** 
 237:Drivers/STM32L4xx_HAL_Driver/Src/stm32l4xx_hal_sram.c ****   /* DeInit the low level hardware */
 238:Drivers/STM32L4xx_HAL_Driver/Src/stm32l4xx_hal_sram.c ****   hsram->MspDeInitCallback(hsram);
 239:Drivers/STM32L4xx_HAL_Driver/Src/stm32l4xx_hal_sram.c **** #else
 240:Drivers/STM32L4xx_HAL_Driver/Src/stm32l4xx_hal_sram.c ****   /* De-Initialize the low level hardware (MSP) */
 241:Drivers/STM32L4xx_HAL_Driver/Src/stm32l4xx_hal_sram.c ****   HAL_SRAM_MspDeInit(hsram);
 152              		.loc 1 241 3
 153 0008 7868     		ldr	r0, [r7, #4]
 154 000a FFF7FEFF 		bl	HAL_SRAM_MspDeInit
 242:Drivers/STM32L4xx_HAL_Driver/Src/stm32l4xx_hal_sram.c **** #endif /* USE_HAL_SRAM_REGISTER_CALLBACKS */
 243:Drivers/STM32L4xx_HAL_Driver/Src/stm32l4xx_hal_sram.c **** 
 244:Drivers/STM32L4xx_HAL_Driver/Src/stm32l4xx_hal_sram.c ****   /* Configure the SRAM registers with their reset values */
 245:Drivers/STM32L4xx_HAL_Driver/Src/stm32l4xx_hal_sram.c ****   (void)FMC_NORSRAM_DeInit(hsram->Instance, hsram->Extended, hsram->Init.NSBank);
 155              		.loc 1 245 9
 156 000e 7B68     		ldr	r3, [r7, #4]
 157 0010 1868     		ldr	r0, [r3]
 158 0012 7B68     		ldr	r3, [r7, #4]
ARM GAS  /tmp/ccHphArz.s 			page 8


 159 0014 5968     		ldr	r1, [r3, #4]
 160 0016 7B68     		ldr	r3, [r7, #4]
 161 0018 9B68     		ldr	r3, [r3, #8]
 162 001a 1A46     		mov	r2, r3
 163 001c FFF7FEFF 		bl	FMC_NORSRAM_DeInit
 246:Drivers/STM32L4xx_HAL_Driver/Src/stm32l4xx_hal_sram.c **** 
 247:Drivers/STM32L4xx_HAL_Driver/Src/stm32l4xx_hal_sram.c ****   /* Reset the SRAM controller state */
 248:Drivers/STM32L4xx_HAL_Driver/Src/stm32l4xx_hal_sram.c ****   hsram->State = HAL_SRAM_STATE_RESET;
 164              		.loc 1 248 16
 165 0020 7B68     		ldr	r3, [r7, #4]
 166 0022 0022     		movs	r2, #0
 167 0024 83F84920 		strb	r2, [r3, #73]
 249:Drivers/STM32L4xx_HAL_Driver/Src/stm32l4xx_hal_sram.c **** 
 250:Drivers/STM32L4xx_HAL_Driver/Src/stm32l4xx_hal_sram.c ****   /* Release Lock */
 251:Drivers/STM32L4xx_HAL_Driver/Src/stm32l4xx_hal_sram.c ****   __HAL_UNLOCK(hsram);
 168              		.loc 1 251 3
 169 0028 7B68     		ldr	r3, [r7, #4]
 170 002a 0022     		movs	r2, #0
 171 002c 83F84820 		strb	r2, [r3, #72]
 252:Drivers/STM32L4xx_HAL_Driver/Src/stm32l4xx_hal_sram.c **** 
 253:Drivers/STM32L4xx_HAL_Driver/Src/stm32l4xx_hal_sram.c ****   return HAL_OK;
 172              		.loc 1 253 10
 173 0030 0023     		movs	r3, #0
 254:Drivers/STM32L4xx_HAL_Driver/Src/stm32l4xx_hal_sram.c **** }
 174              		.loc 1 254 1
 175 0032 1846     		mov	r0, r3
 176 0034 0837     		adds	r7, r7, #8
 177              		.cfi_def_cfa_offset 8
 178 0036 BD46     		mov	sp, r7
 179              		.cfi_def_cfa_register 13
 180              		@ sp needed
 181 0038 80BD     		pop	{r7, pc}
 182              		.cfi_endproc
 183              	.LFE446:
 185              		.section	.text.HAL_SRAM_MspInit,"ax",%progbits
 186              		.align	1
 187              		.weak	HAL_SRAM_MspInit
 188              		.syntax unified
 189              		.thumb
 190              		.thumb_func
 192              	HAL_SRAM_MspInit:
 193              	.LFB447:
 255:Drivers/STM32L4xx_HAL_Driver/Src/stm32l4xx_hal_sram.c **** 
 256:Drivers/STM32L4xx_HAL_Driver/Src/stm32l4xx_hal_sram.c **** /**
 257:Drivers/STM32L4xx_HAL_Driver/Src/stm32l4xx_hal_sram.c ****   * @brief  SRAM MSP Init.
 258:Drivers/STM32L4xx_HAL_Driver/Src/stm32l4xx_hal_sram.c ****   * @param  hsram pointer to a SRAM_HandleTypeDef structure that contains
 259:Drivers/STM32L4xx_HAL_Driver/Src/stm32l4xx_hal_sram.c ****   *                the configuration information for SRAM module.
 260:Drivers/STM32L4xx_HAL_Driver/Src/stm32l4xx_hal_sram.c ****   * @retval None
 261:Drivers/STM32L4xx_HAL_Driver/Src/stm32l4xx_hal_sram.c ****   */
 262:Drivers/STM32L4xx_HAL_Driver/Src/stm32l4xx_hal_sram.c **** __weak void HAL_SRAM_MspInit(SRAM_HandleTypeDef *hsram)
 263:Drivers/STM32L4xx_HAL_Driver/Src/stm32l4xx_hal_sram.c **** {
 194              		.loc 1 263 1
 195              		.cfi_startproc
 196              		@ args = 0, pretend = 0, frame = 8
 197              		@ frame_needed = 1, uses_anonymous_args = 0
 198              		@ link register save eliminated.
 199 0000 80B4     		push	{r7}
ARM GAS  /tmp/ccHphArz.s 			page 9


 200              		.cfi_def_cfa_offset 4
 201              		.cfi_offset 7, -4
 202 0002 83B0     		sub	sp, sp, #12
 203              		.cfi_def_cfa_offset 16
 204 0004 00AF     		add	r7, sp, #0
 205              		.cfi_def_cfa_register 7
 206 0006 7860     		str	r0, [r7, #4]
 264:Drivers/STM32L4xx_HAL_Driver/Src/stm32l4xx_hal_sram.c ****   /* Prevent unused argument(s) compilation warning */
 265:Drivers/STM32L4xx_HAL_Driver/Src/stm32l4xx_hal_sram.c ****   UNUSED(hsram);
 266:Drivers/STM32L4xx_HAL_Driver/Src/stm32l4xx_hal_sram.c **** 
 267:Drivers/STM32L4xx_HAL_Driver/Src/stm32l4xx_hal_sram.c ****   /* NOTE : This function Should not be modified, when the callback is needed,
 268:Drivers/STM32L4xx_HAL_Driver/Src/stm32l4xx_hal_sram.c ****             the HAL_SRAM_MspInit could be implemented in the user file
 269:Drivers/STM32L4xx_HAL_Driver/Src/stm32l4xx_hal_sram.c ****    */
 270:Drivers/STM32L4xx_HAL_Driver/Src/stm32l4xx_hal_sram.c **** }
 207              		.loc 1 270 1
 208 0008 00BF     		nop
 209 000a 0C37     		adds	r7, r7, #12
 210              		.cfi_def_cfa_offset 4
 211 000c BD46     		mov	sp, r7
 212              		.cfi_def_cfa_register 13
 213              		@ sp needed
 214 000e 5DF8047B 		ldr	r7, [sp], #4
 215              		.cfi_restore 7
 216              		.cfi_def_cfa_offset 0
 217 0012 7047     		bx	lr
 218              		.cfi_endproc
 219              	.LFE447:
 221              		.section	.text.HAL_SRAM_MspDeInit,"ax",%progbits
 222              		.align	1
 223              		.weak	HAL_SRAM_MspDeInit
 224              		.syntax unified
 225              		.thumb
 226              		.thumb_func
 228              	HAL_SRAM_MspDeInit:
 229              	.LFB448:
 271:Drivers/STM32L4xx_HAL_Driver/Src/stm32l4xx_hal_sram.c **** 
 272:Drivers/STM32L4xx_HAL_Driver/Src/stm32l4xx_hal_sram.c **** /**
 273:Drivers/STM32L4xx_HAL_Driver/Src/stm32l4xx_hal_sram.c ****   * @brief  SRAM MSP DeInit.
 274:Drivers/STM32L4xx_HAL_Driver/Src/stm32l4xx_hal_sram.c ****   * @param  hsram pointer to a SRAM_HandleTypeDef structure that contains
 275:Drivers/STM32L4xx_HAL_Driver/Src/stm32l4xx_hal_sram.c ****   *                the configuration information for SRAM module.
 276:Drivers/STM32L4xx_HAL_Driver/Src/stm32l4xx_hal_sram.c ****   * @retval None
 277:Drivers/STM32L4xx_HAL_Driver/Src/stm32l4xx_hal_sram.c ****   */
 278:Drivers/STM32L4xx_HAL_Driver/Src/stm32l4xx_hal_sram.c **** __weak void HAL_SRAM_MspDeInit(SRAM_HandleTypeDef *hsram)
 279:Drivers/STM32L4xx_HAL_Driver/Src/stm32l4xx_hal_sram.c **** {
 230              		.loc 1 279 1
 231              		.cfi_startproc
 232              		@ args = 0, pretend = 0, frame = 8
 233              		@ frame_needed = 1, uses_anonymous_args = 0
 234              		@ link register save eliminated.
 235 0000 80B4     		push	{r7}
 236              		.cfi_def_cfa_offset 4
 237              		.cfi_offset 7, -4
 238 0002 83B0     		sub	sp, sp, #12
 239              		.cfi_def_cfa_offset 16
 240 0004 00AF     		add	r7, sp, #0
 241              		.cfi_def_cfa_register 7
 242 0006 7860     		str	r0, [r7, #4]
ARM GAS  /tmp/ccHphArz.s 			page 10


 280:Drivers/STM32L4xx_HAL_Driver/Src/stm32l4xx_hal_sram.c ****   /* Prevent unused argument(s) compilation warning */
 281:Drivers/STM32L4xx_HAL_Driver/Src/stm32l4xx_hal_sram.c ****   UNUSED(hsram);
 282:Drivers/STM32L4xx_HAL_Driver/Src/stm32l4xx_hal_sram.c **** 
 283:Drivers/STM32L4xx_HAL_Driver/Src/stm32l4xx_hal_sram.c ****   /* NOTE : This function Should not be modified, when the callback is needed,
 284:Drivers/STM32L4xx_HAL_Driver/Src/stm32l4xx_hal_sram.c ****             the HAL_SRAM_MspDeInit could be implemented in the user file
 285:Drivers/STM32L4xx_HAL_Driver/Src/stm32l4xx_hal_sram.c ****    */
 286:Drivers/STM32L4xx_HAL_Driver/Src/stm32l4xx_hal_sram.c **** }
 243              		.loc 1 286 1
 244 0008 00BF     		nop
 245 000a 0C37     		adds	r7, r7, #12
 246              		.cfi_def_cfa_offset 4
 247 000c BD46     		mov	sp, r7
 248              		.cfi_def_cfa_register 13
 249              		@ sp needed
 250 000e 5DF8047B 		ldr	r7, [sp], #4
 251              		.cfi_restore 7
 252              		.cfi_def_cfa_offset 0
 253 0012 7047     		bx	lr
 254              		.cfi_endproc
 255              	.LFE448:
 257              		.section	.text.HAL_SRAM_DMA_XferCpltCallback,"ax",%progbits
 258              		.align	1
 259              		.weak	HAL_SRAM_DMA_XferCpltCallback
 260              		.syntax unified
 261              		.thumb
 262              		.thumb_func
 264              	HAL_SRAM_DMA_XferCpltCallback:
 265              	.LFB449:
 287:Drivers/STM32L4xx_HAL_Driver/Src/stm32l4xx_hal_sram.c **** 
 288:Drivers/STM32L4xx_HAL_Driver/Src/stm32l4xx_hal_sram.c **** /**
 289:Drivers/STM32L4xx_HAL_Driver/Src/stm32l4xx_hal_sram.c ****   * @brief  DMA transfer complete callback.
 290:Drivers/STM32L4xx_HAL_Driver/Src/stm32l4xx_hal_sram.c ****   * @param  hdma pointer to a SRAM_HandleTypeDef structure that contains
 291:Drivers/STM32L4xx_HAL_Driver/Src/stm32l4xx_hal_sram.c ****   *                the configuration information for SRAM module.
 292:Drivers/STM32L4xx_HAL_Driver/Src/stm32l4xx_hal_sram.c ****   * @retval None
 293:Drivers/STM32L4xx_HAL_Driver/Src/stm32l4xx_hal_sram.c ****   */
 294:Drivers/STM32L4xx_HAL_Driver/Src/stm32l4xx_hal_sram.c **** __weak void HAL_SRAM_DMA_XferCpltCallback(DMA_HandleTypeDef *hdma)
 295:Drivers/STM32L4xx_HAL_Driver/Src/stm32l4xx_hal_sram.c **** {
 266              		.loc 1 295 1
 267              		.cfi_startproc
 268              		@ args = 0, pretend = 0, frame = 8
 269              		@ frame_needed = 1, uses_anonymous_args = 0
 270              		@ link register save eliminated.
 271 0000 80B4     		push	{r7}
 272              		.cfi_def_cfa_offset 4
 273              		.cfi_offset 7, -4
 274 0002 83B0     		sub	sp, sp, #12
 275              		.cfi_def_cfa_offset 16
 276 0004 00AF     		add	r7, sp, #0
 277              		.cfi_def_cfa_register 7
 278 0006 7860     		str	r0, [r7, #4]
 296:Drivers/STM32L4xx_HAL_Driver/Src/stm32l4xx_hal_sram.c ****   /* Prevent unused argument(s) compilation warning */
 297:Drivers/STM32L4xx_HAL_Driver/Src/stm32l4xx_hal_sram.c ****   UNUSED(hdma);
 298:Drivers/STM32L4xx_HAL_Driver/Src/stm32l4xx_hal_sram.c **** 
 299:Drivers/STM32L4xx_HAL_Driver/Src/stm32l4xx_hal_sram.c ****   /* NOTE : This function Should not be modified, when the callback is needed,
 300:Drivers/STM32L4xx_HAL_Driver/Src/stm32l4xx_hal_sram.c ****             the HAL_SRAM_DMA_XferCpltCallback could be implemented in the user file
 301:Drivers/STM32L4xx_HAL_Driver/Src/stm32l4xx_hal_sram.c ****    */
 302:Drivers/STM32L4xx_HAL_Driver/Src/stm32l4xx_hal_sram.c **** }
ARM GAS  /tmp/ccHphArz.s 			page 11


 279              		.loc 1 302 1
 280 0008 00BF     		nop
 281 000a 0C37     		adds	r7, r7, #12
 282              		.cfi_def_cfa_offset 4
 283 000c BD46     		mov	sp, r7
 284              		.cfi_def_cfa_register 13
 285              		@ sp needed
 286 000e 5DF8047B 		ldr	r7, [sp], #4
 287              		.cfi_restore 7
 288              		.cfi_def_cfa_offset 0
 289 0012 7047     		bx	lr
 290              		.cfi_endproc
 291              	.LFE449:
 293              		.section	.text.HAL_SRAM_DMA_XferErrorCallback,"ax",%progbits
 294              		.align	1
 295              		.weak	HAL_SRAM_DMA_XferErrorCallback
 296              		.syntax unified
 297              		.thumb
 298              		.thumb_func
 300              	HAL_SRAM_DMA_XferErrorCallback:
 301              	.LFB450:
 303:Drivers/STM32L4xx_HAL_Driver/Src/stm32l4xx_hal_sram.c **** 
 304:Drivers/STM32L4xx_HAL_Driver/Src/stm32l4xx_hal_sram.c **** /**
 305:Drivers/STM32L4xx_HAL_Driver/Src/stm32l4xx_hal_sram.c ****   * @brief  DMA transfer complete error callback.
 306:Drivers/STM32L4xx_HAL_Driver/Src/stm32l4xx_hal_sram.c ****   * @param  hdma pointer to a SRAM_HandleTypeDef structure that contains
 307:Drivers/STM32L4xx_HAL_Driver/Src/stm32l4xx_hal_sram.c ****   *                the configuration information for SRAM module.
 308:Drivers/STM32L4xx_HAL_Driver/Src/stm32l4xx_hal_sram.c ****   * @retval None
 309:Drivers/STM32L4xx_HAL_Driver/Src/stm32l4xx_hal_sram.c ****   */
 310:Drivers/STM32L4xx_HAL_Driver/Src/stm32l4xx_hal_sram.c **** __weak void HAL_SRAM_DMA_XferErrorCallback(DMA_HandleTypeDef *hdma)
 311:Drivers/STM32L4xx_HAL_Driver/Src/stm32l4xx_hal_sram.c **** {
 302              		.loc 1 311 1
 303              		.cfi_startproc
 304              		@ args = 0, pretend = 0, frame = 8
 305              		@ frame_needed = 1, uses_anonymous_args = 0
 306              		@ link register save eliminated.
 307 0000 80B4     		push	{r7}
 308              		.cfi_def_cfa_offset 4
 309              		.cfi_offset 7, -4
 310 0002 83B0     		sub	sp, sp, #12
 311              		.cfi_def_cfa_offset 16
 312 0004 00AF     		add	r7, sp, #0
 313              		.cfi_def_cfa_register 7
 314 0006 7860     		str	r0, [r7, #4]
 312:Drivers/STM32L4xx_HAL_Driver/Src/stm32l4xx_hal_sram.c ****   /* Prevent unused argument(s) compilation warning */
 313:Drivers/STM32L4xx_HAL_Driver/Src/stm32l4xx_hal_sram.c ****   UNUSED(hdma);
 314:Drivers/STM32L4xx_HAL_Driver/Src/stm32l4xx_hal_sram.c **** 
 315:Drivers/STM32L4xx_HAL_Driver/Src/stm32l4xx_hal_sram.c ****   /* NOTE : This function Should not be modified, when the callback is needed,
 316:Drivers/STM32L4xx_HAL_Driver/Src/stm32l4xx_hal_sram.c ****             the HAL_SRAM_DMA_XferErrorCallback could be implemented in the user file
 317:Drivers/STM32L4xx_HAL_Driver/Src/stm32l4xx_hal_sram.c ****    */
 318:Drivers/STM32L4xx_HAL_Driver/Src/stm32l4xx_hal_sram.c **** }
 315              		.loc 1 318 1
 316 0008 00BF     		nop
 317 000a 0C37     		adds	r7, r7, #12
 318              		.cfi_def_cfa_offset 4
 319 000c BD46     		mov	sp, r7
 320              		.cfi_def_cfa_register 13
 321              		@ sp needed
ARM GAS  /tmp/ccHphArz.s 			page 12


 322 000e 5DF8047B 		ldr	r7, [sp], #4
 323              		.cfi_restore 7
 324              		.cfi_def_cfa_offset 0
 325 0012 7047     		bx	lr
 326              		.cfi_endproc
 327              	.LFE450:
 329              		.section	.text.HAL_SRAM_Read_8b,"ax",%progbits
 330              		.align	1
 331              		.global	HAL_SRAM_Read_8b
 332              		.syntax unified
 333              		.thumb
 334              		.thumb_func
 336              	HAL_SRAM_Read_8b:
 337              	.LFB451:
 319:Drivers/STM32L4xx_HAL_Driver/Src/stm32l4xx_hal_sram.c **** 
 320:Drivers/STM32L4xx_HAL_Driver/Src/stm32l4xx_hal_sram.c **** /**
 321:Drivers/STM32L4xx_HAL_Driver/Src/stm32l4xx_hal_sram.c ****   * @}
 322:Drivers/STM32L4xx_HAL_Driver/Src/stm32l4xx_hal_sram.c ****   */
 323:Drivers/STM32L4xx_HAL_Driver/Src/stm32l4xx_hal_sram.c **** 
 324:Drivers/STM32L4xx_HAL_Driver/Src/stm32l4xx_hal_sram.c **** /** @defgroup SRAM_Exported_Functions_Group2 Input Output and memory control functions
 325:Drivers/STM32L4xx_HAL_Driver/Src/stm32l4xx_hal_sram.c ****   * @brief    Input Output and memory control functions
 326:Drivers/STM32L4xx_HAL_Driver/Src/stm32l4xx_hal_sram.c ****   *
 327:Drivers/STM32L4xx_HAL_Driver/Src/stm32l4xx_hal_sram.c ****   @verbatim
 328:Drivers/STM32L4xx_HAL_Driver/Src/stm32l4xx_hal_sram.c ****   ==============================================================================
 329:Drivers/STM32L4xx_HAL_Driver/Src/stm32l4xx_hal_sram.c ****                   ##### SRAM Input and Output functions #####
 330:Drivers/STM32L4xx_HAL_Driver/Src/stm32l4xx_hal_sram.c ****   ==============================================================================
 331:Drivers/STM32L4xx_HAL_Driver/Src/stm32l4xx_hal_sram.c ****   [..]
 332:Drivers/STM32L4xx_HAL_Driver/Src/stm32l4xx_hal_sram.c ****     This section provides functions allowing to use and control the SRAM memory
 333:Drivers/STM32L4xx_HAL_Driver/Src/stm32l4xx_hal_sram.c **** 
 334:Drivers/STM32L4xx_HAL_Driver/Src/stm32l4xx_hal_sram.c **** @endverbatim
 335:Drivers/STM32L4xx_HAL_Driver/Src/stm32l4xx_hal_sram.c ****   * @{
 336:Drivers/STM32L4xx_HAL_Driver/Src/stm32l4xx_hal_sram.c ****   */
 337:Drivers/STM32L4xx_HAL_Driver/Src/stm32l4xx_hal_sram.c **** 
 338:Drivers/STM32L4xx_HAL_Driver/Src/stm32l4xx_hal_sram.c **** /**
 339:Drivers/STM32L4xx_HAL_Driver/Src/stm32l4xx_hal_sram.c ****   * @brief  Reads 8-bit buffer from SRAM memory.
 340:Drivers/STM32L4xx_HAL_Driver/Src/stm32l4xx_hal_sram.c ****   * @param  hsram pointer to a SRAM_HandleTypeDef structure that contains
 341:Drivers/STM32L4xx_HAL_Driver/Src/stm32l4xx_hal_sram.c ****   *                the configuration information for SRAM module.
 342:Drivers/STM32L4xx_HAL_Driver/Src/stm32l4xx_hal_sram.c ****   * @param  pAddress Pointer to read start address
 343:Drivers/STM32L4xx_HAL_Driver/Src/stm32l4xx_hal_sram.c ****   * @param  pDstBuffer Pointer to destination buffer
 344:Drivers/STM32L4xx_HAL_Driver/Src/stm32l4xx_hal_sram.c ****   * @param  BufferSize Size of the buffer to read from memory
 345:Drivers/STM32L4xx_HAL_Driver/Src/stm32l4xx_hal_sram.c ****   * @retval HAL status
 346:Drivers/STM32L4xx_HAL_Driver/Src/stm32l4xx_hal_sram.c ****   */
 347:Drivers/STM32L4xx_HAL_Driver/Src/stm32l4xx_hal_sram.c **** HAL_StatusTypeDef HAL_SRAM_Read_8b(SRAM_HandleTypeDef *hsram, uint32_t *pAddress, uint8_t *pDstBuff
 348:Drivers/STM32L4xx_HAL_Driver/Src/stm32l4xx_hal_sram.c ****                                    uint32_t BufferSize)
 349:Drivers/STM32L4xx_HAL_Driver/Src/stm32l4xx_hal_sram.c **** {
 338              		.loc 1 349 1
 339              		.cfi_startproc
 340              		@ args = 0, pretend = 0, frame = 32
 341              		@ frame_needed = 1, uses_anonymous_args = 0
 342              		@ link register save eliminated.
 343 0000 80B4     		push	{r7}
 344              		.cfi_def_cfa_offset 4
 345              		.cfi_offset 7, -4
 346 0002 89B0     		sub	sp, sp, #36
 347              		.cfi_def_cfa_offset 40
 348 0004 00AF     		add	r7, sp, #0
 349              		.cfi_def_cfa_register 7
ARM GAS  /tmp/ccHphArz.s 			page 13


 350 0006 F860     		str	r0, [r7, #12]
 351 0008 B960     		str	r1, [r7, #8]
 352 000a 7A60     		str	r2, [r7, #4]
 353 000c 3B60     		str	r3, [r7]
 350:Drivers/STM32L4xx_HAL_Driver/Src/stm32l4xx_hal_sram.c ****   uint32_t size;
 351:Drivers/STM32L4xx_HAL_Driver/Src/stm32l4xx_hal_sram.c ****   __IO uint8_t *psramaddress = (uint8_t *)pAddress;
 354              		.loc 1 351 17
 355 000e BB68     		ldr	r3, [r7, #8]
 356 0010 BB61     		str	r3, [r7, #24]
 352:Drivers/STM32L4xx_HAL_Driver/Src/stm32l4xx_hal_sram.c ****   uint8_t *pdestbuff = pDstBuffer;
 357              		.loc 1 352 12
 358 0012 7B68     		ldr	r3, [r7, #4]
 359 0014 7B61     		str	r3, [r7, #20]
 353:Drivers/STM32L4xx_HAL_Driver/Src/stm32l4xx_hal_sram.c ****   HAL_SRAM_StateTypeDef state = hsram->State;
 360              		.loc 1 353 25
 361 0016 FB68     		ldr	r3, [r7, #12]
 362 0018 93F84930 		ldrb	r3, [r3, #73]
 363 001c FB74     		strb	r3, [r7, #19]
 354:Drivers/STM32L4xx_HAL_Driver/Src/stm32l4xx_hal_sram.c **** 
 355:Drivers/STM32L4xx_HAL_Driver/Src/stm32l4xx_hal_sram.c ****   /* Check the SRAM controller state */
 356:Drivers/STM32L4xx_HAL_Driver/Src/stm32l4xx_hal_sram.c ****   if ((state == HAL_SRAM_STATE_READY) || (state == HAL_SRAM_STATE_PROTECTED))
 364              		.loc 1 356 6
 365 001e FB7C     		ldrb	r3, [r7, #19]	@ zero_extendqisi2
 366 0020 012B     		cmp	r3, #1
 367 0022 02D0     		beq	.L12
 368              		.loc 1 356 39 discriminator 1
 369 0024 FB7C     		ldrb	r3, [r7, #19]	@ zero_extendqisi2
 370 0026 042B     		cmp	r3, #4
 371 0028 2CD1     		bne	.L13
 372              	.L12:
 357:Drivers/STM32L4xx_HAL_Driver/Src/stm32l4xx_hal_sram.c ****   {
 358:Drivers/STM32L4xx_HAL_Driver/Src/stm32l4xx_hal_sram.c ****     /* Process Locked */
 359:Drivers/STM32L4xx_HAL_Driver/Src/stm32l4xx_hal_sram.c ****     __HAL_LOCK(hsram);
 373              		.loc 1 359 5
 374 002a FB68     		ldr	r3, [r7, #12]
 375 002c 93F84830 		ldrb	r3, [r3, #72]	@ zero_extendqisi2
 376 0030 012B     		cmp	r3, #1
 377 0032 01D1     		bne	.L14
 378              		.loc 1 359 5 is_stmt 0 discriminator 1
 379 0034 0223     		movs	r3, #2
 380              		.loc 1 359 5
 381 0036 26E0     		b	.L15
 382              	.L14:
 383              		.loc 1 359 5 discriminator 2
 384 0038 FB68     		ldr	r3, [r7, #12]
 385 003a 0122     		movs	r2, #1
 386 003c 83F84820 		strb	r2, [r3, #72]
 360:Drivers/STM32L4xx_HAL_Driver/Src/stm32l4xx_hal_sram.c **** 
 361:Drivers/STM32L4xx_HAL_Driver/Src/stm32l4xx_hal_sram.c ****     /* Update the SRAM controller state */
 362:Drivers/STM32L4xx_HAL_Driver/Src/stm32l4xx_hal_sram.c ****     hsram->State = HAL_SRAM_STATE_BUSY;
 387              		.loc 1 362 18 is_stmt 1
 388 0040 FB68     		ldr	r3, [r7, #12]
 389 0042 0222     		movs	r2, #2
 390 0044 83F84920 		strb	r2, [r3, #73]
 363:Drivers/STM32L4xx_HAL_Driver/Src/stm32l4xx_hal_sram.c **** 
 364:Drivers/STM32L4xx_HAL_Driver/Src/stm32l4xx_hal_sram.c ****     /* Read data from memory */
 365:Drivers/STM32L4xx_HAL_Driver/Src/stm32l4xx_hal_sram.c ****     for (size = BufferSize; size != 0U; size--)
ARM GAS  /tmp/ccHphArz.s 			page 14


 391              		.loc 1 365 15
 392 0048 3B68     		ldr	r3, [r7]
 393 004a FB61     		str	r3, [r7, #28]
 394              		.loc 1 365 5
 395 004c 0DE0     		b	.L16
 396              	.L17:
 366:Drivers/STM32L4xx_HAL_Driver/Src/stm32l4xx_hal_sram.c ****     {
 367:Drivers/STM32L4xx_HAL_Driver/Src/stm32l4xx_hal_sram.c ****       *pdestbuff = *psramaddress;
 397              		.loc 1 367 20
 398 004e BB69     		ldr	r3, [r7, #24]
 399 0050 1B78     		ldrb	r3, [r3]
 400 0052 DAB2     		uxtb	r2, r3
 401              		.loc 1 367 18
 402 0054 7B69     		ldr	r3, [r7, #20]
 403 0056 1A70     		strb	r2, [r3]
 368:Drivers/STM32L4xx_HAL_Driver/Src/stm32l4xx_hal_sram.c ****       pdestbuff++;
 404              		.loc 1 368 16
 405 0058 7B69     		ldr	r3, [r7, #20]
 406 005a 0133     		adds	r3, r3, #1
 407 005c 7B61     		str	r3, [r7, #20]
 369:Drivers/STM32L4xx_HAL_Driver/Src/stm32l4xx_hal_sram.c ****       psramaddress++;
 408              		.loc 1 369 19
 409 005e BB69     		ldr	r3, [r7, #24]
 410 0060 0133     		adds	r3, r3, #1
 411 0062 BB61     		str	r3, [r7, #24]
 365:Drivers/STM32L4xx_HAL_Driver/Src/stm32l4xx_hal_sram.c ****     {
 412              		.loc 1 365 45 discriminator 3
 413 0064 FB69     		ldr	r3, [r7, #28]
 414 0066 013B     		subs	r3, r3, #1
 415 0068 FB61     		str	r3, [r7, #28]
 416              	.L16:
 365:Drivers/STM32L4xx_HAL_Driver/Src/stm32l4xx_hal_sram.c ****     {
 417              		.loc 1 365 34 discriminator 1
 418 006a FB69     		ldr	r3, [r7, #28]
 419 006c 002B     		cmp	r3, #0
 420 006e EED1     		bne	.L17
 370:Drivers/STM32L4xx_HAL_Driver/Src/stm32l4xx_hal_sram.c ****     }
 371:Drivers/STM32L4xx_HAL_Driver/Src/stm32l4xx_hal_sram.c **** 
 372:Drivers/STM32L4xx_HAL_Driver/Src/stm32l4xx_hal_sram.c ****     /* Update the SRAM controller state */
 373:Drivers/STM32L4xx_HAL_Driver/Src/stm32l4xx_hal_sram.c ****     hsram->State = state;
 421              		.loc 1 373 18
 422 0070 FB68     		ldr	r3, [r7, #12]
 423 0072 FA7C     		ldrb	r2, [r7, #19]
 424 0074 83F84920 		strb	r2, [r3, #73]
 374:Drivers/STM32L4xx_HAL_Driver/Src/stm32l4xx_hal_sram.c **** 
 375:Drivers/STM32L4xx_HAL_Driver/Src/stm32l4xx_hal_sram.c ****     /* Process unlocked */
 376:Drivers/STM32L4xx_HAL_Driver/Src/stm32l4xx_hal_sram.c ****     __HAL_UNLOCK(hsram);
 425              		.loc 1 376 5
 426 0078 FB68     		ldr	r3, [r7, #12]
 427 007a 0022     		movs	r2, #0
 428 007c 83F84820 		strb	r2, [r3, #72]
 377:Drivers/STM32L4xx_HAL_Driver/Src/stm32l4xx_hal_sram.c ****   }
 378:Drivers/STM32L4xx_HAL_Driver/Src/stm32l4xx_hal_sram.c ****   else
 379:Drivers/STM32L4xx_HAL_Driver/Src/stm32l4xx_hal_sram.c ****   {
 380:Drivers/STM32L4xx_HAL_Driver/Src/stm32l4xx_hal_sram.c ****     return HAL_ERROR;
 381:Drivers/STM32L4xx_HAL_Driver/Src/stm32l4xx_hal_sram.c ****   }
 382:Drivers/STM32L4xx_HAL_Driver/Src/stm32l4xx_hal_sram.c **** 
ARM GAS  /tmp/ccHphArz.s 			page 15


 383:Drivers/STM32L4xx_HAL_Driver/Src/stm32l4xx_hal_sram.c ****   return HAL_OK;
 429              		.loc 1 383 10
 430 0080 0023     		movs	r3, #0
 431 0082 00E0     		b	.L15
 432              	.L13:
 380:Drivers/STM32L4xx_HAL_Driver/Src/stm32l4xx_hal_sram.c ****   }
 433              		.loc 1 380 12
 434 0084 0123     		movs	r3, #1
 435              	.L15:
 384:Drivers/STM32L4xx_HAL_Driver/Src/stm32l4xx_hal_sram.c **** }
 436              		.loc 1 384 1
 437 0086 1846     		mov	r0, r3
 438 0088 2437     		adds	r7, r7, #36
 439              		.cfi_def_cfa_offset 4
 440 008a BD46     		mov	sp, r7
 441              		.cfi_def_cfa_register 13
 442              		@ sp needed
 443 008c 5DF8047B 		ldr	r7, [sp], #4
 444              		.cfi_restore 7
 445              		.cfi_def_cfa_offset 0
 446 0090 7047     		bx	lr
 447              		.cfi_endproc
 448              	.LFE451:
 450              		.section	.text.HAL_SRAM_Write_8b,"ax",%progbits
 451              		.align	1
 452              		.global	HAL_SRAM_Write_8b
 453              		.syntax unified
 454              		.thumb
 455              		.thumb_func
 457              	HAL_SRAM_Write_8b:
 458              	.LFB452:
 385:Drivers/STM32L4xx_HAL_Driver/Src/stm32l4xx_hal_sram.c **** 
 386:Drivers/STM32L4xx_HAL_Driver/Src/stm32l4xx_hal_sram.c **** /**
 387:Drivers/STM32L4xx_HAL_Driver/Src/stm32l4xx_hal_sram.c ****   * @brief  Writes 8-bit buffer to SRAM memory.
 388:Drivers/STM32L4xx_HAL_Driver/Src/stm32l4xx_hal_sram.c ****   * @param  hsram pointer to a SRAM_HandleTypeDef structure that contains
 389:Drivers/STM32L4xx_HAL_Driver/Src/stm32l4xx_hal_sram.c ****   *                the configuration information for SRAM module.
 390:Drivers/STM32L4xx_HAL_Driver/Src/stm32l4xx_hal_sram.c ****   * @param  pAddress Pointer to write start address
 391:Drivers/STM32L4xx_HAL_Driver/Src/stm32l4xx_hal_sram.c ****   * @param  pSrcBuffer Pointer to source buffer to write
 392:Drivers/STM32L4xx_HAL_Driver/Src/stm32l4xx_hal_sram.c ****   * @param  BufferSize Size of the buffer to write to memory
 393:Drivers/STM32L4xx_HAL_Driver/Src/stm32l4xx_hal_sram.c ****   * @retval HAL status
 394:Drivers/STM32L4xx_HAL_Driver/Src/stm32l4xx_hal_sram.c ****   */
 395:Drivers/STM32L4xx_HAL_Driver/Src/stm32l4xx_hal_sram.c **** HAL_StatusTypeDef HAL_SRAM_Write_8b(SRAM_HandleTypeDef *hsram, uint32_t *pAddress, uint8_t *pSrcBuf
 396:Drivers/STM32L4xx_HAL_Driver/Src/stm32l4xx_hal_sram.c ****                                     uint32_t BufferSize)
 397:Drivers/STM32L4xx_HAL_Driver/Src/stm32l4xx_hal_sram.c **** {
 459              		.loc 1 397 1
 460              		.cfi_startproc
 461              		@ args = 0, pretend = 0, frame = 32
 462              		@ frame_needed = 1, uses_anonymous_args = 0
 463              		@ link register save eliminated.
 464 0000 80B4     		push	{r7}
 465              		.cfi_def_cfa_offset 4
 466              		.cfi_offset 7, -4
 467 0002 89B0     		sub	sp, sp, #36
 468              		.cfi_def_cfa_offset 40
 469 0004 00AF     		add	r7, sp, #0
 470              		.cfi_def_cfa_register 7
 471 0006 F860     		str	r0, [r7, #12]
ARM GAS  /tmp/ccHphArz.s 			page 16


 472 0008 B960     		str	r1, [r7, #8]
 473 000a 7A60     		str	r2, [r7, #4]
 474 000c 3B60     		str	r3, [r7]
 398:Drivers/STM32L4xx_HAL_Driver/Src/stm32l4xx_hal_sram.c ****   uint32_t size;
 399:Drivers/STM32L4xx_HAL_Driver/Src/stm32l4xx_hal_sram.c ****   __IO uint8_t *psramaddress = (uint8_t *)pAddress;
 475              		.loc 1 399 17
 476 000e BB68     		ldr	r3, [r7, #8]
 477 0010 BB61     		str	r3, [r7, #24]
 400:Drivers/STM32L4xx_HAL_Driver/Src/stm32l4xx_hal_sram.c ****   uint8_t *psrcbuff = pSrcBuffer;
 478              		.loc 1 400 12
 479 0012 7B68     		ldr	r3, [r7, #4]
 480 0014 7B61     		str	r3, [r7, #20]
 401:Drivers/STM32L4xx_HAL_Driver/Src/stm32l4xx_hal_sram.c **** 
 402:Drivers/STM32L4xx_HAL_Driver/Src/stm32l4xx_hal_sram.c ****   /* Check the SRAM controller state */
 403:Drivers/STM32L4xx_HAL_Driver/Src/stm32l4xx_hal_sram.c ****   if (hsram->State == HAL_SRAM_STATE_READY)
 481              		.loc 1 403 12
 482 0016 FB68     		ldr	r3, [r7, #12]
 483 0018 93F84930 		ldrb	r3, [r3, #73]
 484 001c DBB2     		uxtb	r3, r3
 485              		.loc 1 403 6
 486 001e 012B     		cmp	r3, #1
 487 0020 2BD1     		bne	.L19
 404:Drivers/STM32L4xx_HAL_Driver/Src/stm32l4xx_hal_sram.c ****   {
 405:Drivers/STM32L4xx_HAL_Driver/Src/stm32l4xx_hal_sram.c ****     /* Process Locked */
 406:Drivers/STM32L4xx_HAL_Driver/Src/stm32l4xx_hal_sram.c ****     __HAL_LOCK(hsram);
 488              		.loc 1 406 5
 489 0022 FB68     		ldr	r3, [r7, #12]
 490 0024 93F84830 		ldrb	r3, [r3, #72]	@ zero_extendqisi2
 491 0028 012B     		cmp	r3, #1
 492 002a 01D1     		bne	.L20
 493              		.loc 1 406 5 is_stmt 0 discriminator 1
 494 002c 0223     		movs	r3, #2
 495              		.loc 1 406 5
 496 002e 25E0     		b	.L21
 497              	.L20:
 498              		.loc 1 406 5 discriminator 2
 499 0030 FB68     		ldr	r3, [r7, #12]
 500 0032 0122     		movs	r2, #1
 501 0034 83F84820 		strb	r2, [r3, #72]
 407:Drivers/STM32L4xx_HAL_Driver/Src/stm32l4xx_hal_sram.c **** 
 408:Drivers/STM32L4xx_HAL_Driver/Src/stm32l4xx_hal_sram.c ****     /* Update the SRAM controller state */
 409:Drivers/STM32L4xx_HAL_Driver/Src/stm32l4xx_hal_sram.c ****     hsram->State = HAL_SRAM_STATE_BUSY;
 502              		.loc 1 409 18 is_stmt 1
 503 0038 FB68     		ldr	r3, [r7, #12]
 504 003a 0222     		movs	r2, #2
 505 003c 83F84920 		strb	r2, [r3, #73]
 410:Drivers/STM32L4xx_HAL_Driver/Src/stm32l4xx_hal_sram.c **** 
 411:Drivers/STM32L4xx_HAL_Driver/Src/stm32l4xx_hal_sram.c ****     /* Write data to memory */
 412:Drivers/STM32L4xx_HAL_Driver/Src/stm32l4xx_hal_sram.c ****     for (size = BufferSize; size != 0U; size--)
 506              		.loc 1 412 15
 507 0040 3B68     		ldr	r3, [r7]
 508 0042 FB61     		str	r3, [r7, #28]
 509              		.loc 1 412 5
 510 0044 0CE0     		b	.L22
 511              	.L23:
 413:Drivers/STM32L4xx_HAL_Driver/Src/stm32l4xx_hal_sram.c ****     {
 414:Drivers/STM32L4xx_HAL_Driver/Src/stm32l4xx_hal_sram.c ****       *psramaddress = *psrcbuff;
ARM GAS  /tmp/ccHphArz.s 			page 17


 512              		.loc 1 414 23
 513 0046 7B69     		ldr	r3, [r7, #20]
 514 0048 1A78     		ldrb	r2, [r3]	@ zero_extendqisi2
 515              		.loc 1 414 21
 516 004a BB69     		ldr	r3, [r7, #24]
 517 004c 1A70     		strb	r2, [r3]
 415:Drivers/STM32L4xx_HAL_Driver/Src/stm32l4xx_hal_sram.c ****       psrcbuff++;
 518              		.loc 1 415 15
 519 004e 7B69     		ldr	r3, [r7, #20]
 520 0050 0133     		adds	r3, r3, #1
 521 0052 7B61     		str	r3, [r7, #20]
 416:Drivers/STM32L4xx_HAL_Driver/Src/stm32l4xx_hal_sram.c ****       psramaddress++;
 522              		.loc 1 416 19
 523 0054 BB69     		ldr	r3, [r7, #24]
 524 0056 0133     		adds	r3, r3, #1
 525 0058 BB61     		str	r3, [r7, #24]
 412:Drivers/STM32L4xx_HAL_Driver/Src/stm32l4xx_hal_sram.c ****     {
 526              		.loc 1 412 45 discriminator 3
 527 005a FB69     		ldr	r3, [r7, #28]
 528 005c 013B     		subs	r3, r3, #1
 529 005e FB61     		str	r3, [r7, #28]
 530              	.L22:
 412:Drivers/STM32L4xx_HAL_Driver/Src/stm32l4xx_hal_sram.c ****     {
 531              		.loc 1 412 34 discriminator 1
 532 0060 FB69     		ldr	r3, [r7, #28]
 533 0062 002B     		cmp	r3, #0
 534 0064 EFD1     		bne	.L23
 417:Drivers/STM32L4xx_HAL_Driver/Src/stm32l4xx_hal_sram.c ****     }
 418:Drivers/STM32L4xx_HAL_Driver/Src/stm32l4xx_hal_sram.c **** 
 419:Drivers/STM32L4xx_HAL_Driver/Src/stm32l4xx_hal_sram.c ****     /* Update the SRAM controller state */
 420:Drivers/STM32L4xx_HAL_Driver/Src/stm32l4xx_hal_sram.c ****     hsram->State = HAL_SRAM_STATE_READY;
 535              		.loc 1 420 18
 536 0066 FB68     		ldr	r3, [r7, #12]
 537 0068 0122     		movs	r2, #1
 538 006a 83F84920 		strb	r2, [r3, #73]
 421:Drivers/STM32L4xx_HAL_Driver/Src/stm32l4xx_hal_sram.c **** 
 422:Drivers/STM32L4xx_HAL_Driver/Src/stm32l4xx_hal_sram.c ****     /* Process unlocked */
 423:Drivers/STM32L4xx_HAL_Driver/Src/stm32l4xx_hal_sram.c ****     __HAL_UNLOCK(hsram);
 539              		.loc 1 423 5
 540 006e FB68     		ldr	r3, [r7, #12]
 541 0070 0022     		movs	r2, #0
 542 0072 83F84820 		strb	r2, [r3, #72]
 424:Drivers/STM32L4xx_HAL_Driver/Src/stm32l4xx_hal_sram.c ****   }
 425:Drivers/STM32L4xx_HAL_Driver/Src/stm32l4xx_hal_sram.c ****   else
 426:Drivers/STM32L4xx_HAL_Driver/Src/stm32l4xx_hal_sram.c ****   {
 427:Drivers/STM32L4xx_HAL_Driver/Src/stm32l4xx_hal_sram.c ****     return HAL_ERROR;
 428:Drivers/STM32L4xx_HAL_Driver/Src/stm32l4xx_hal_sram.c ****   }
 429:Drivers/STM32L4xx_HAL_Driver/Src/stm32l4xx_hal_sram.c **** 
 430:Drivers/STM32L4xx_HAL_Driver/Src/stm32l4xx_hal_sram.c ****   return HAL_OK;
 543              		.loc 1 430 10
 544 0076 0023     		movs	r3, #0
 545 0078 00E0     		b	.L21
 546              	.L19:
 427:Drivers/STM32L4xx_HAL_Driver/Src/stm32l4xx_hal_sram.c ****   }
 547              		.loc 1 427 12
 548 007a 0123     		movs	r3, #1
 549              	.L21:
ARM GAS  /tmp/ccHphArz.s 			page 18


 431:Drivers/STM32L4xx_HAL_Driver/Src/stm32l4xx_hal_sram.c **** }
 550              		.loc 1 431 1
 551 007c 1846     		mov	r0, r3
 552 007e 2437     		adds	r7, r7, #36
 553              		.cfi_def_cfa_offset 4
 554 0080 BD46     		mov	sp, r7
 555              		.cfi_def_cfa_register 13
 556              		@ sp needed
 557 0082 5DF8047B 		ldr	r7, [sp], #4
 558              		.cfi_restore 7
 559              		.cfi_def_cfa_offset 0
 560 0086 7047     		bx	lr
 561              		.cfi_endproc
 562              	.LFE452:
 564              		.section	.text.HAL_SRAM_Read_16b,"ax",%progbits
 565              		.align	1
 566              		.global	HAL_SRAM_Read_16b
 567              		.syntax unified
 568              		.thumb
 569              		.thumb_func
 571              	HAL_SRAM_Read_16b:
 572              	.LFB453:
 432:Drivers/STM32L4xx_HAL_Driver/Src/stm32l4xx_hal_sram.c **** 
 433:Drivers/STM32L4xx_HAL_Driver/Src/stm32l4xx_hal_sram.c **** /**
 434:Drivers/STM32L4xx_HAL_Driver/Src/stm32l4xx_hal_sram.c ****   * @brief  Reads 16-bit buffer from SRAM memory.
 435:Drivers/STM32L4xx_HAL_Driver/Src/stm32l4xx_hal_sram.c ****   * @param  hsram pointer to a SRAM_HandleTypeDef structure that contains
 436:Drivers/STM32L4xx_HAL_Driver/Src/stm32l4xx_hal_sram.c ****   *                the configuration information for SRAM module.
 437:Drivers/STM32L4xx_HAL_Driver/Src/stm32l4xx_hal_sram.c ****   * @param  pAddress Pointer to read start address
 438:Drivers/STM32L4xx_HAL_Driver/Src/stm32l4xx_hal_sram.c ****   * @param  pDstBuffer Pointer to destination buffer
 439:Drivers/STM32L4xx_HAL_Driver/Src/stm32l4xx_hal_sram.c ****   * @param  BufferSize Size of the buffer to read from memory
 440:Drivers/STM32L4xx_HAL_Driver/Src/stm32l4xx_hal_sram.c ****   * @retval HAL status
 441:Drivers/STM32L4xx_HAL_Driver/Src/stm32l4xx_hal_sram.c ****   */
 442:Drivers/STM32L4xx_HAL_Driver/Src/stm32l4xx_hal_sram.c **** HAL_StatusTypeDef HAL_SRAM_Read_16b(SRAM_HandleTypeDef *hsram, uint32_t *pAddress, uint16_t *pDstBu
 443:Drivers/STM32L4xx_HAL_Driver/Src/stm32l4xx_hal_sram.c ****                                     uint32_t BufferSize)
 444:Drivers/STM32L4xx_HAL_Driver/Src/stm32l4xx_hal_sram.c **** {
 573              		.loc 1 444 1
 574              		.cfi_startproc
 575              		@ args = 0, pretend = 0, frame = 32
 576              		@ frame_needed = 1, uses_anonymous_args = 0
 577              		@ link register save eliminated.
 578 0000 80B4     		push	{r7}
 579              		.cfi_def_cfa_offset 4
 580              		.cfi_offset 7, -4
 581 0002 89B0     		sub	sp, sp, #36
 582              		.cfi_def_cfa_offset 40
 583 0004 00AF     		add	r7, sp, #0
 584              		.cfi_def_cfa_register 7
 585 0006 F860     		str	r0, [r7, #12]
 586 0008 B960     		str	r1, [r7, #8]
 587 000a 7A60     		str	r2, [r7, #4]
 588 000c 3B60     		str	r3, [r7]
 445:Drivers/STM32L4xx_HAL_Driver/Src/stm32l4xx_hal_sram.c ****   uint32_t size;
 446:Drivers/STM32L4xx_HAL_Driver/Src/stm32l4xx_hal_sram.c ****   __IO uint32_t *psramaddress = pAddress;
 589              		.loc 1 446 18
 590 000e BB68     		ldr	r3, [r7, #8]
 591 0010 BB61     		str	r3, [r7, #24]
 447:Drivers/STM32L4xx_HAL_Driver/Src/stm32l4xx_hal_sram.c ****   uint16_t *pdestbuff = pDstBuffer;
ARM GAS  /tmp/ccHphArz.s 			page 19


 592              		.loc 1 447 13
 593 0012 7B68     		ldr	r3, [r7, #4]
 594 0014 7B61     		str	r3, [r7, #20]
 448:Drivers/STM32L4xx_HAL_Driver/Src/stm32l4xx_hal_sram.c ****   uint8_t limit;
 449:Drivers/STM32L4xx_HAL_Driver/Src/stm32l4xx_hal_sram.c ****   HAL_SRAM_StateTypeDef state = hsram->State;
 595              		.loc 1 449 25
 596 0016 FB68     		ldr	r3, [r7, #12]
 597 0018 93F84930 		ldrb	r3, [r3, #73]
 598 001c FB74     		strb	r3, [r7, #19]
 450:Drivers/STM32L4xx_HAL_Driver/Src/stm32l4xx_hal_sram.c **** 
 451:Drivers/STM32L4xx_HAL_Driver/Src/stm32l4xx_hal_sram.c ****   /* Check the SRAM controller state */
 452:Drivers/STM32L4xx_HAL_Driver/Src/stm32l4xx_hal_sram.c ****   if ((state == HAL_SRAM_STATE_READY) || (state == HAL_SRAM_STATE_PROTECTED))
 599              		.loc 1 452 6
 600 001e FB7C     		ldrb	r3, [r7, #19]	@ zero_extendqisi2
 601 0020 012B     		cmp	r3, #1
 602 0022 02D0     		beq	.L26
 603              		.loc 1 452 39 discriminator 1
 604 0024 FB7C     		ldrb	r3, [r7, #19]	@ zero_extendqisi2
 605 0026 042B     		cmp	r3, #4
 606 0028 43D1     		bne	.L27
 607              	.L26:
 453:Drivers/STM32L4xx_HAL_Driver/Src/stm32l4xx_hal_sram.c ****   {
 454:Drivers/STM32L4xx_HAL_Driver/Src/stm32l4xx_hal_sram.c ****     /* Process Locked */
 455:Drivers/STM32L4xx_HAL_Driver/Src/stm32l4xx_hal_sram.c ****     __HAL_LOCK(hsram);
 608              		.loc 1 455 5
 609 002a FB68     		ldr	r3, [r7, #12]
 610 002c 93F84830 		ldrb	r3, [r3, #72]	@ zero_extendqisi2
 611 0030 012B     		cmp	r3, #1
 612 0032 01D1     		bne	.L28
 613              		.loc 1 455 5 is_stmt 0 discriminator 1
 614 0034 0223     		movs	r3, #2
 615              		.loc 1 455 5
 616 0036 3DE0     		b	.L29
 617              	.L28:
 618              		.loc 1 455 5 discriminator 2
 619 0038 FB68     		ldr	r3, [r7, #12]
 620 003a 0122     		movs	r2, #1
 621 003c 83F84820 		strb	r2, [r3, #72]
 456:Drivers/STM32L4xx_HAL_Driver/Src/stm32l4xx_hal_sram.c **** 
 457:Drivers/STM32L4xx_HAL_Driver/Src/stm32l4xx_hal_sram.c ****     /* Update the SRAM controller state */
 458:Drivers/STM32L4xx_HAL_Driver/Src/stm32l4xx_hal_sram.c ****     hsram->State = HAL_SRAM_STATE_BUSY;
 622              		.loc 1 458 18 is_stmt 1
 623 0040 FB68     		ldr	r3, [r7, #12]
 624 0042 0222     		movs	r2, #2
 625 0044 83F84920 		strb	r2, [r3, #73]
 459:Drivers/STM32L4xx_HAL_Driver/Src/stm32l4xx_hal_sram.c **** 
 460:Drivers/STM32L4xx_HAL_Driver/Src/stm32l4xx_hal_sram.c ****     /* Check if the size is a 32-bits multiple */
 461:Drivers/STM32L4xx_HAL_Driver/Src/stm32l4xx_hal_sram.c ****     limit = (((BufferSize % 2U) != 0U) ? 1U : 0U);
 626              		.loc 1 461 45
 627 0048 3B68     		ldr	r3, [r7]
 628 004a DBB2     		uxtb	r3, r3
 629              		.loc 1 461 11
 630 004c 03F00103 		and	r3, r3, #1
 631 0050 BB74     		strb	r3, [r7, #18]
 462:Drivers/STM32L4xx_HAL_Driver/Src/stm32l4xx_hal_sram.c **** 
 463:Drivers/STM32L4xx_HAL_Driver/Src/stm32l4xx_hal_sram.c ****     /* Read data from memory */
 464:Drivers/STM32L4xx_HAL_Driver/Src/stm32l4xx_hal_sram.c ****     for (size = BufferSize; size != limit; size -= 2U)
ARM GAS  /tmp/ccHphArz.s 			page 20


 632              		.loc 1 464 15
 633 0052 3B68     		ldr	r3, [r7]
 634 0054 FB61     		str	r3, [r7, #28]
 635              		.loc 1 464 5
 636 0056 16E0     		b	.L30
 637              	.L31:
 465:Drivers/STM32L4xx_HAL_Driver/Src/stm32l4xx_hal_sram.c ****     {
 466:Drivers/STM32L4xx_HAL_Driver/Src/stm32l4xx_hal_sram.c ****       *pdestbuff = (uint16_t)((*psramaddress) & 0x0000FFFFU);
 638              		.loc 1 466 32
 639 0058 BB69     		ldr	r3, [r7, #24]
 640 005a 1B68     		ldr	r3, [r3]
 641              		.loc 1 466 20
 642 005c 9AB2     		uxth	r2, r3
 643              		.loc 1 466 18
 644 005e 7B69     		ldr	r3, [r7, #20]
 645 0060 1A80     		strh	r2, [r3]	@ movhi
 467:Drivers/STM32L4xx_HAL_Driver/Src/stm32l4xx_hal_sram.c ****       pdestbuff++;
 646              		.loc 1 467 16
 647 0062 7B69     		ldr	r3, [r7, #20]
 648 0064 0233     		adds	r3, r3, #2
 649 0066 7B61     		str	r3, [r7, #20]
 468:Drivers/STM32L4xx_HAL_Driver/Src/stm32l4xx_hal_sram.c ****       *pdestbuff = (uint16_t)(((*psramaddress) & 0xFFFF0000U) >> 16U);
 650              		.loc 1 468 33
 651 0068 BB69     		ldr	r3, [r7, #24]
 652 006a 1B68     		ldr	r3, [r3]
 653              		.loc 1 468 63
 654 006c 1B0C     		lsrs	r3, r3, #16
 655              		.loc 1 468 20
 656 006e 9AB2     		uxth	r2, r3
 657              		.loc 1 468 18
 658 0070 7B69     		ldr	r3, [r7, #20]
 659 0072 1A80     		strh	r2, [r3]	@ movhi
 469:Drivers/STM32L4xx_HAL_Driver/Src/stm32l4xx_hal_sram.c ****       pdestbuff++;
 660              		.loc 1 469 16
 661 0074 7B69     		ldr	r3, [r7, #20]
 662 0076 0233     		adds	r3, r3, #2
 663 0078 7B61     		str	r3, [r7, #20]
 470:Drivers/STM32L4xx_HAL_Driver/Src/stm32l4xx_hal_sram.c ****       psramaddress++;
 664              		.loc 1 470 19
 665 007a BB69     		ldr	r3, [r7, #24]
 666 007c 0433     		adds	r3, r3, #4
 667 007e BB61     		str	r3, [r7, #24]
 464:Drivers/STM32L4xx_HAL_Driver/Src/stm32l4xx_hal_sram.c ****     {
 668              		.loc 1 464 49 discriminator 3
 669 0080 FB69     		ldr	r3, [r7, #28]
 670 0082 023B     		subs	r3, r3, #2
 671 0084 FB61     		str	r3, [r7, #28]
 672              	.L30:
 464:Drivers/STM32L4xx_HAL_Driver/Src/stm32l4xx_hal_sram.c ****     {
 673              		.loc 1 464 34 discriminator 1
 674 0086 BB7C     		ldrb	r3, [r7, #18]	@ zero_extendqisi2
 675 0088 FA69     		ldr	r2, [r7, #28]
 676 008a 9A42     		cmp	r2, r3
 677 008c E4D1     		bne	.L31
 471:Drivers/STM32L4xx_HAL_Driver/Src/stm32l4xx_hal_sram.c ****     }
 472:Drivers/STM32L4xx_HAL_Driver/Src/stm32l4xx_hal_sram.c **** 
 473:Drivers/STM32L4xx_HAL_Driver/Src/stm32l4xx_hal_sram.c ****     /* Read last 16-bits if size is not 32-bits multiple */
ARM GAS  /tmp/ccHphArz.s 			page 21


 474:Drivers/STM32L4xx_HAL_Driver/Src/stm32l4xx_hal_sram.c ****     if (limit != 0U)
 678              		.loc 1 474 8
 679 008e BB7C     		ldrb	r3, [r7, #18]	@ zero_extendqisi2
 680 0090 002B     		cmp	r3, #0
 681 0092 04D0     		beq	.L32
 475:Drivers/STM32L4xx_HAL_Driver/Src/stm32l4xx_hal_sram.c ****     {
 476:Drivers/STM32L4xx_HAL_Driver/Src/stm32l4xx_hal_sram.c ****       *pdestbuff = (uint16_t)((*psramaddress) & 0x0000FFFFU);
 682              		.loc 1 476 32
 683 0094 BB69     		ldr	r3, [r7, #24]
 684 0096 1B68     		ldr	r3, [r3]
 685              		.loc 1 476 20
 686 0098 9AB2     		uxth	r2, r3
 687              		.loc 1 476 18
 688 009a 7B69     		ldr	r3, [r7, #20]
 689 009c 1A80     		strh	r2, [r3]	@ movhi
 690              	.L32:
 477:Drivers/STM32L4xx_HAL_Driver/Src/stm32l4xx_hal_sram.c ****     }
 478:Drivers/STM32L4xx_HAL_Driver/Src/stm32l4xx_hal_sram.c **** 
 479:Drivers/STM32L4xx_HAL_Driver/Src/stm32l4xx_hal_sram.c ****     /* Update the SRAM controller state */
 480:Drivers/STM32L4xx_HAL_Driver/Src/stm32l4xx_hal_sram.c ****     hsram->State = state;
 691              		.loc 1 480 18
 692 009e FB68     		ldr	r3, [r7, #12]
 693 00a0 FA7C     		ldrb	r2, [r7, #19]
 694 00a2 83F84920 		strb	r2, [r3, #73]
 481:Drivers/STM32L4xx_HAL_Driver/Src/stm32l4xx_hal_sram.c **** 
 482:Drivers/STM32L4xx_HAL_Driver/Src/stm32l4xx_hal_sram.c ****     /* Process unlocked */
 483:Drivers/STM32L4xx_HAL_Driver/Src/stm32l4xx_hal_sram.c ****     __HAL_UNLOCK(hsram);
 695              		.loc 1 483 5
 696 00a6 FB68     		ldr	r3, [r7, #12]
 697 00a8 0022     		movs	r2, #0
 698 00aa 83F84820 		strb	r2, [r3, #72]
 484:Drivers/STM32L4xx_HAL_Driver/Src/stm32l4xx_hal_sram.c ****   }
 485:Drivers/STM32L4xx_HAL_Driver/Src/stm32l4xx_hal_sram.c ****   else
 486:Drivers/STM32L4xx_HAL_Driver/Src/stm32l4xx_hal_sram.c ****   {
 487:Drivers/STM32L4xx_HAL_Driver/Src/stm32l4xx_hal_sram.c ****     return HAL_ERROR;
 488:Drivers/STM32L4xx_HAL_Driver/Src/stm32l4xx_hal_sram.c ****   }
 489:Drivers/STM32L4xx_HAL_Driver/Src/stm32l4xx_hal_sram.c **** 
 490:Drivers/STM32L4xx_HAL_Driver/Src/stm32l4xx_hal_sram.c ****   return HAL_OK;
 699              		.loc 1 490 10
 700 00ae 0023     		movs	r3, #0
 701 00b0 00E0     		b	.L29
 702              	.L27:
 487:Drivers/STM32L4xx_HAL_Driver/Src/stm32l4xx_hal_sram.c ****   }
 703              		.loc 1 487 12
 704 00b2 0123     		movs	r3, #1
 705              	.L29:
 491:Drivers/STM32L4xx_HAL_Driver/Src/stm32l4xx_hal_sram.c **** }
 706              		.loc 1 491 1
 707 00b4 1846     		mov	r0, r3
 708 00b6 2437     		adds	r7, r7, #36
 709              		.cfi_def_cfa_offset 4
 710 00b8 BD46     		mov	sp, r7
 711              		.cfi_def_cfa_register 13
 712              		@ sp needed
 713 00ba 5DF8047B 		ldr	r7, [sp], #4
 714              		.cfi_restore 7
 715              		.cfi_def_cfa_offset 0
ARM GAS  /tmp/ccHphArz.s 			page 22


 716 00be 7047     		bx	lr
 717              		.cfi_endproc
 718              	.LFE453:
 720              		.section	.text.HAL_SRAM_Write_16b,"ax",%progbits
 721              		.align	1
 722              		.global	HAL_SRAM_Write_16b
 723              		.syntax unified
 724              		.thumb
 725              		.thumb_func
 727              	HAL_SRAM_Write_16b:
 728              	.LFB454:
 492:Drivers/STM32L4xx_HAL_Driver/Src/stm32l4xx_hal_sram.c **** 
 493:Drivers/STM32L4xx_HAL_Driver/Src/stm32l4xx_hal_sram.c **** /**
 494:Drivers/STM32L4xx_HAL_Driver/Src/stm32l4xx_hal_sram.c ****   * @brief  Writes 16-bit buffer to SRAM memory.
 495:Drivers/STM32L4xx_HAL_Driver/Src/stm32l4xx_hal_sram.c ****   * @param  hsram pointer to a SRAM_HandleTypeDef structure that contains
 496:Drivers/STM32L4xx_HAL_Driver/Src/stm32l4xx_hal_sram.c ****   *                the configuration information for SRAM module.
 497:Drivers/STM32L4xx_HAL_Driver/Src/stm32l4xx_hal_sram.c ****   * @param  pAddress Pointer to write start address
 498:Drivers/STM32L4xx_HAL_Driver/Src/stm32l4xx_hal_sram.c ****   * @param  pSrcBuffer Pointer to source buffer to write
 499:Drivers/STM32L4xx_HAL_Driver/Src/stm32l4xx_hal_sram.c ****   * @param  BufferSize Size of the buffer to write to memory
 500:Drivers/STM32L4xx_HAL_Driver/Src/stm32l4xx_hal_sram.c ****   * @retval HAL status
 501:Drivers/STM32L4xx_HAL_Driver/Src/stm32l4xx_hal_sram.c ****   */
 502:Drivers/STM32L4xx_HAL_Driver/Src/stm32l4xx_hal_sram.c **** HAL_StatusTypeDef HAL_SRAM_Write_16b(SRAM_HandleTypeDef *hsram, uint32_t *pAddress, uint16_t *pSrcB
 503:Drivers/STM32L4xx_HAL_Driver/Src/stm32l4xx_hal_sram.c ****                                      uint32_t BufferSize)
 504:Drivers/STM32L4xx_HAL_Driver/Src/stm32l4xx_hal_sram.c **** {
 729              		.loc 1 504 1
 730              		.cfi_startproc
 731              		@ args = 0, pretend = 0, frame = 32
 732              		@ frame_needed = 1, uses_anonymous_args = 0
 733              		@ link register save eliminated.
 734 0000 80B4     		push	{r7}
 735              		.cfi_def_cfa_offset 4
 736              		.cfi_offset 7, -4
 737 0002 89B0     		sub	sp, sp, #36
 738              		.cfi_def_cfa_offset 40
 739 0004 00AF     		add	r7, sp, #0
 740              		.cfi_def_cfa_register 7
 741 0006 F860     		str	r0, [r7, #12]
 742 0008 B960     		str	r1, [r7, #8]
 743 000a 7A60     		str	r2, [r7, #4]
 744 000c 3B60     		str	r3, [r7]
 505:Drivers/STM32L4xx_HAL_Driver/Src/stm32l4xx_hal_sram.c ****   uint32_t size;
 506:Drivers/STM32L4xx_HAL_Driver/Src/stm32l4xx_hal_sram.c ****   __IO uint32_t *psramaddress = pAddress;
 745              		.loc 1 506 18
 746 000e BB68     		ldr	r3, [r7, #8]
 747 0010 BB61     		str	r3, [r7, #24]
 507:Drivers/STM32L4xx_HAL_Driver/Src/stm32l4xx_hal_sram.c ****   uint16_t *psrcbuff = pSrcBuffer;
 748              		.loc 1 507 13
 749 0012 7B68     		ldr	r3, [r7, #4]
 750 0014 7B61     		str	r3, [r7, #20]
 508:Drivers/STM32L4xx_HAL_Driver/Src/stm32l4xx_hal_sram.c ****   uint8_t limit;
 509:Drivers/STM32L4xx_HAL_Driver/Src/stm32l4xx_hal_sram.c **** 
 510:Drivers/STM32L4xx_HAL_Driver/Src/stm32l4xx_hal_sram.c ****   /* Check the SRAM controller state */
 511:Drivers/STM32L4xx_HAL_Driver/Src/stm32l4xx_hal_sram.c ****   if (hsram->State == HAL_SRAM_STATE_READY)
 751              		.loc 1 511 12
 752 0016 FB68     		ldr	r3, [r7, #12]
 753 0018 93F84930 		ldrb	r3, [r3, #73]
 754 001c DBB2     		uxtb	r3, r3
ARM GAS  /tmp/ccHphArz.s 			page 23


 755              		.loc 1 511 6
 756 001e 012B     		cmp	r3, #1
 757 0020 4AD1     		bne	.L34
 512:Drivers/STM32L4xx_HAL_Driver/Src/stm32l4xx_hal_sram.c ****   {
 513:Drivers/STM32L4xx_HAL_Driver/Src/stm32l4xx_hal_sram.c ****     /* Process Locked */
 514:Drivers/STM32L4xx_HAL_Driver/Src/stm32l4xx_hal_sram.c ****     __HAL_LOCK(hsram);
 758              		.loc 1 514 5
 759 0022 FB68     		ldr	r3, [r7, #12]
 760 0024 93F84830 		ldrb	r3, [r3, #72]	@ zero_extendqisi2
 761 0028 012B     		cmp	r3, #1
 762 002a 01D1     		bne	.L35
 763              		.loc 1 514 5 is_stmt 0 discriminator 1
 764 002c 0223     		movs	r3, #2
 765              		.loc 1 514 5
 766 002e 44E0     		b	.L36
 767              	.L35:
 768              		.loc 1 514 5 discriminator 2
 769 0030 FB68     		ldr	r3, [r7, #12]
 770 0032 0122     		movs	r2, #1
 771 0034 83F84820 		strb	r2, [r3, #72]
 515:Drivers/STM32L4xx_HAL_Driver/Src/stm32l4xx_hal_sram.c **** 
 516:Drivers/STM32L4xx_HAL_Driver/Src/stm32l4xx_hal_sram.c ****     /* Update the SRAM controller state */
 517:Drivers/STM32L4xx_HAL_Driver/Src/stm32l4xx_hal_sram.c ****     hsram->State = HAL_SRAM_STATE_BUSY;
 772              		.loc 1 517 18 is_stmt 1
 773 0038 FB68     		ldr	r3, [r7, #12]
 774 003a 0222     		movs	r2, #2
 775 003c 83F84920 		strb	r2, [r3, #73]
 518:Drivers/STM32L4xx_HAL_Driver/Src/stm32l4xx_hal_sram.c **** 
 519:Drivers/STM32L4xx_HAL_Driver/Src/stm32l4xx_hal_sram.c ****     /* Check if the size is a 32-bits multiple */
 520:Drivers/STM32L4xx_HAL_Driver/Src/stm32l4xx_hal_sram.c ****     limit = (((BufferSize % 2U) != 0U) ? 1U : 0U);
 776              		.loc 1 520 45
 777 0040 3B68     		ldr	r3, [r7]
 778 0042 DBB2     		uxtb	r3, r3
 779              		.loc 1 520 11
 780 0044 03F00103 		and	r3, r3, #1
 781 0048 FB74     		strb	r3, [r7, #19]
 521:Drivers/STM32L4xx_HAL_Driver/Src/stm32l4xx_hal_sram.c **** 
 522:Drivers/STM32L4xx_HAL_Driver/Src/stm32l4xx_hal_sram.c ****     /* Write data to memory */
 523:Drivers/STM32L4xx_HAL_Driver/Src/stm32l4xx_hal_sram.c ****     for (size = BufferSize; size != limit; size -= 2U)
 782              		.loc 1 523 15
 783 004a 3B68     		ldr	r3, [r7]
 784 004c FB61     		str	r3, [r7, #28]
 785              		.loc 1 523 5
 786 004e 18E0     		b	.L37
 787              	.L38:
 524:Drivers/STM32L4xx_HAL_Driver/Src/stm32l4xx_hal_sram.c ****     {
 525:Drivers/STM32L4xx_HAL_Driver/Src/stm32l4xx_hal_sram.c ****       *psramaddress = (uint32_t)(*psrcbuff);
 788              		.loc 1 525 34
 789 0050 7B69     		ldr	r3, [r7, #20]
 790 0052 1B88     		ldrh	r3, [r3]
 791              		.loc 1 525 23
 792 0054 1A46     		mov	r2, r3
 793              		.loc 1 525 21
 794 0056 BB69     		ldr	r3, [r7, #24]
 795 0058 1A60     		str	r2, [r3]
 526:Drivers/STM32L4xx_HAL_Driver/Src/stm32l4xx_hal_sram.c ****       psrcbuff++;
 796              		.loc 1 526 15
ARM GAS  /tmp/ccHphArz.s 			page 24


 797 005a 7B69     		ldr	r3, [r7, #20]
 798 005c 0233     		adds	r3, r3, #2
 799 005e 7B61     		str	r3, [r7, #20]
 527:Drivers/STM32L4xx_HAL_Driver/Src/stm32l4xx_hal_sram.c ****       *psramaddress |= ((uint32_t)(*psrcbuff) << 16U);
 800              		.loc 1 527 7
 801 0060 BB69     		ldr	r3, [r7, #24]
 802 0062 1A68     		ldr	r2, [r3]
 803              		.loc 1 527 36
 804 0064 7B69     		ldr	r3, [r7, #20]
 805 0066 1B88     		ldrh	r3, [r3]
 806              		.loc 1 527 47
 807 0068 1B04     		lsls	r3, r3, #16
 808              		.loc 1 527 21
 809 006a 1A43     		orrs	r2, r2, r3
 810 006c BB69     		ldr	r3, [r7, #24]
 811 006e 1A60     		str	r2, [r3]
 528:Drivers/STM32L4xx_HAL_Driver/Src/stm32l4xx_hal_sram.c ****       psrcbuff++;
 812              		.loc 1 528 15
 813 0070 7B69     		ldr	r3, [r7, #20]
 814 0072 0233     		adds	r3, r3, #2
 815 0074 7B61     		str	r3, [r7, #20]
 529:Drivers/STM32L4xx_HAL_Driver/Src/stm32l4xx_hal_sram.c ****       psramaddress++;
 816              		.loc 1 529 19
 817 0076 BB69     		ldr	r3, [r7, #24]
 818 0078 0433     		adds	r3, r3, #4
 819 007a BB61     		str	r3, [r7, #24]
 523:Drivers/STM32L4xx_HAL_Driver/Src/stm32l4xx_hal_sram.c ****     {
 820              		.loc 1 523 49 discriminator 3
 821 007c FB69     		ldr	r3, [r7, #28]
 822 007e 023B     		subs	r3, r3, #2
 823 0080 FB61     		str	r3, [r7, #28]
 824              	.L37:
 523:Drivers/STM32L4xx_HAL_Driver/Src/stm32l4xx_hal_sram.c ****     {
 825              		.loc 1 523 34 discriminator 1
 826 0082 FB7C     		ldrb	r3, [r7, #19]	@ zero_extendqisi2
 827 0084 FA69     		ldr	r2, [r7, #28]
 828 0086 9A42     		cmp	r2, r3
 829 0088 E2D1     		bne	.L38
 530:Drivers/STM32L4xx_HAL_Driver/Src/stm32l4xx_hal_sram.c ****     }
 531:Drivers/STM32L4xx_HAL_Driver/Src/stm32l4xx_hal_sram.c **** 
 532:Drivers/STM32L4xx_HAL_Driver/Src/stm32l4xx_hal_sram.c ****     /* Write last 16-bits if size is not 32-bits multiple */
 533:Drivers/STM32L4xx_HAL_Driver/Src/stm32l4xx_hal_sram.c ****     if (limit != 0U)
 830              		.loc 1 533 8
 831 008a FB7C     		ldrb	r3, [r7, #19]	@ zero_extendqisi2
 832 008c 002B     		cmp	r3, #0
 833 008e 09D0     		beq	.L39
 534:Drivers/STM32L4xx_HAL_Driver/Src/stm32l4xx_hal_sram.c ****     {
 535:Drivers/STM32L4xx_HAL_Driver/Src/stm32l4xx_hal_sram.c ****       *psramaddress = ((uint32_t)(*psrcbuff) & 0x0000FFFFU) | ((*psramaddress) & 0xFFFF0000U);
 834              		.loc 1 535 35
 835 0090 7B69     		ldr	r3, [r7, #20]
 836 0092 1B88     		ldrh	r3, [r3]
 837              		.loc 1 535 46
 838 0094 1A46     		mov	r2, r3
 839              		.loc 1 535 65
 840 0096 BB69     		ldr	r3, [r7, #24]
 841 0098 1B68     		ldr	r3, [r3]
 842              		.loc 1 535 80
ARM GAS  /tmp/ccHphArz.s 			page 25


 843 009a 1B0C     		lsrs	r3, r3, #16
 844 009c 1B04     		lsls	r3, r3, #16
 845              		.loc 1 535 61
 846 009e 1A43     		orrs	r2, r2, r3
 847              		.loc 1 535 21
 848 00a0 BB69     		ldr	r3, [r7, #24]
 849 00a2 1A60     		str	r2, [r3]
 850              	.L39:
 536:Drivers/STM32L4xx_HAL_Driver/Src/stm32l4xx_hal_sram.c ****     }
 537:Drivers/STM32L4xx_HAL_Driver/Src/stm32l4xx_hal_sram.c **** 
 538:Drivers/STM32L4xx_HAL_Driver/Src/stm32l4xx_hal_sram.c ****     /* Update the SRAM controller state */
 539:Drivers/STM32L4xx_HAL_Driver/Src/stm32l4xx_hal_sram.c ****     hsram->State = HAL_SRAM_STATE_READY;
 851              		.loc 1 539 18
 852 00a4 FB68     		ldr	r3, [r7, #12]
 853 00a6 0122     		movs	r2, #1
 854 00a8 83F84920 		strb	r2, [r3, #73]
 540:Drivers/STM32L4xx_HAL_Driver/Src/stm32l4xx_hal_sram.c **** 
 541:Drivers/STM32L4xx_HAL_Driver/Src/stm32l4xx_hal_sram.c ****     /* Process unlocked */
 542:Drivers/STM32L4xx_HAL_Driver/Src/stm32l4xx_hal_sram.c ****     __HAL_UNLOCK(hsram);
 855              		.loc 1 542 5
 856 00ac FB68     		ldr	r3, [r7, #12]
 857 00ae 0022     		movs	r2, #0
 858 00b0 83F84820 		strb	r2, [r3, #72]
 543:Drivers/STM32L4xx_HAL_Driver/Src/stm32l4xx_hal_sram.c ****   }
 544:Drivers/STM32L4xx_HAL_Driver/Src/stm32l4xx_hal_sram.c ****   else
 545:Drivers/STM32L4xx_HAL_Driver/Src/stm32l4xx_hal_sram.c ****   {
 546:Drivers/STM32L4xx_HAL_Driver/Src/stm32l4xx_hal_sram.c ****     return HAL_ERROR;
 547:Drivers/STM32L4xx_HAL_Driver/Src/stm32l4xx_hal_sram.c ****   }
 548:Drivers/STM32L4xx_HAL_Driver/Src/stm32l4xx_hal_sram.c **** 
 549:Drivers/STM32L4xx_HAL_Driver/Src/stm32l4xx_hal_sram.c ****   return HAL_OK;
 859              		.loc 1 549 10
 860 00b4 0023     		movs	r3, #0
 861 00b6 00E0     		b	.L36
 862              	.L34:
 546:Drivers/STM32L4xx_HAL_Driver/Src/stm32l4xx_hal_sram.c ****   }
 863              		.loc 1 546 12
 864 00b8 0123     		movs	r3, #1
 865              	.L36:
 550:Drivers/STM32L4xx_HAL_Driver/Src/stm32l4xx_hal_sram.c **** }
 866              		.loc 1 550 1
 867 00ba 1846     		mov	r0, r3
 868 00bc 2437     		adds	r7, r7, #36
 869              		.cfi_def_cfa_offset 4
 870 00be BD46     		mov	sp, r7
 871              		.cfi_def_cfa_register 13
 872              		@ sp needed
 873 00c0 5DF8047B 		ldr	r7, [sp], #4
 874              		.cfi_restore 7
 875              		.cfi_def_cfa_offset 0
 876 00c4 7047     		bx	lr
 877              		.cfi_endproc
 878              	.LFE454:
 880              		.section	.text.HAL_SRAM_Read_32b,"ax",%progbits
 881              		.align	1
 882              		.global	HAL_SRAM_Read_32b
 883              		.syntax unified
 884              		.thumb
ARM GAS  /tmp/ccHphArz.s 			page 26


 885              		.thumb_func
 887              	HAL_SRAM_Read_32b:
 888              	.LFB455:
 551:Drivers/STM32L4xx_HAL_Driver/Src/stm32l4xx_hal_sram.c **** 
 552:Drivers/STM32L4xx_HAL_Driver/Src/stm32l4xx_hal_sram.c **** /**
 553:Drivers/STM32L4xx_HAL_Driver/Src/stm32l4xx_hal_sram.c ****   * @brief  Reads 32-bit buffer from SRAM memory.
 554:Drivers/STM32L4xx_HAL_Driver/Src/stm32l4xx_hal_sram.c ****   * @param  hsram pointer to a SRAM_HandleTypeDef structure that contains
 555:Drivers/STM32L4xx_HAL_Driver/Src/stm32l4xx_hal_sram.c ****   *                the configuration information for SRAM module.
 556:Drivers/STM32L4xx_HAL_Driver/Src/stm32l4xx_hal_sram.c ****   * @param  pAddress Pointer to read start address
 557:Drivers/STM32L4xx_HAL_Driver/Src/stm32l4xx_hal_sram.c ****   * @param  pDstBuffer Pointer to destination buffer
 558:Drivers/STM32L4xx_HAL_Driver/Src/stm32l4xx_hal_sram.c ****   * @param  BufferSize Size of the buffer to read from memory
 559:Drivers/STM32L4xx_HAL_Driver/Src/stm32l4xx_hal_sram.c ****   * @retval HAL status
 560:Drivers/STM32L4xx_HAL_Driver/Src/stm32l4xx_hal_sram.c ****   */
 561:Drivers/STM32L4xx_HAL_Driver/Src/stm32l4xx_hal_sram.c **** HAL_StatusTypeDef HAL_SRAM_Read_32b(SRAM_HandleTypeDef *hsram, uint32_t *pAddress, uint32_t *pDstBu
 562:Drivers/STM32L4xx_HAL_Driver/Src/stm32l4xx_hal_sram.c ****                                     uint32_t BufferSize)
 563:Drivers/STM32L4xx_HAL_Driver/Src/stm32l4xx_hal_sram.c **** {
 889              		.loc 1 563 1
 890              		.cfi_startproc
 891              		@ args = 0, pretend = 0, frame = 32
 892              		@ frame_needed = 1, uses_anonymous_args = 0
 893              		@ link register save eliminated.
 894 0000 80B4     		push	{r7}
 895              		.cfi_def_cfa_offset 4
 896              		.cfi_offset 7, -4
 897 0002 89B0     		sub	sp, sp, #36
 898              		.cfi_def_cfa_offset 40
 899 0004 00AF     		add	r7, sp, #0
 900              		.cfi_def_cfa_register 7
 901 0006 F860     		str	r0, [r7, #12]
 902 0008 B960     		str	r1, [r7, #8]
 903 000a 7A60     		str	r2, [r7, #4]
 904 000c 3B60     		str	r3, [r7]
 564:Drivers/STM32L4xx_HAL_Driver/Src/stm32l4xx_hal_sram.c ****   uint32_t size;
 565:Drivers/STM32L4xx_HAL_Driver/Src/stm32l4xx_hal_sram.c ****   __IO uint32_t *psramaddress = pAddress;
 905              		.loc 1 565 18
 906 000e BB68     		ldr	r3, [r7, #8]
 907 0010 BB61     		str	r3, [r7, #24]
 566:Drivers/STM32L4xx_HAL_Driver/Src/stm32l4xx_hal_sram.c ****   uint32_t *pdestbuff = pDstBuffer;
 908              		.loc 1 566 13
 909 0012 7B68     		ldr	r3, [r7, #4]
 910 0014 7B61     		str	r3, [r7, #20]
 567:Drivers/STM32L4xx_HAL_Driver/Src/stm32l4xx_hal_sram.c ****   HAL_SRAM_StateTypeDef state = hsram->State;
 911              		.loc 1 567 25
 912 0016 FB68     		ldr	r3, [r7, #12]
 913 0018 93F84930 		ldrb	r3, [r3, #73]
 914 001c FB74     		strb	r3, [r7, #19]
 568:Drivers/STM32L4xx_HAL_Driver/Src/stm32l4xx_hal_sram.c **** 
 569:Drivers/STM32L4xx_HAL_Driver/Src/stm32l4xx_hal_sram.c ****   /* Check the SRAM controller state */
 570:Drivers/STM32L4xx_HAL_Driver/Src/stm32l4xx_hal_sram.c ****   if ((state == HAL_SRAM_STATE_READY) || (state == HAL_SRAM_STATE_PROTECTED))
 915              		.loc 1 570 6
 916 001e FB7C     		ldrb	r3, [r7, #19]	@ zero_extendqisi2
 917 0020 012B     		cmp	r3, #1
 918 0022 02D0     		beq	.L42
 919              		.loc 1 570 39 discriminator 1
 920 0024 FB7C     		ldrb	r3, [r7, #19]	@ zero_extendqisi2
 921 0026 042B     		cmp	r3, #4
 922 0028 2BD1     		bne	.L43
ARM GAS  /tmp/ccHphArz.s 			page 27


 923              	.L42:
 571:Drivers/STM32L4xx_HAL_Driver/Src/stm32l4xx_hal_sram.c ****   {
 572:Drivers/STM32L4xx_HAL_Driver/Src/stm32l4xx_hal_sram.c ****     /* Process Locked */
 573:Drivers/STM32L4xx_HAL_Driver/Src/stm32l4xx_hal_sram.c ****     __HAL_LOCK(hsram);
 924              		.loc 1 573 5
 925 002a FB68     		ldr	r3, [r7, #12]
 926 002c 93F84830 		ldrb	r3, [r3, #72]	@ zero_extendqisi2
 927 0030 012B     		cmp	r3, #1
 928 0032 01D1     		bne	.L44
 929              		.loc 1 573 5 is_stmt 0 discriminator 1
 930 0034 0223     		movs	r3, #2
 931              		.loc 1 573 5
 932 0036 25E0     		b	.L45
 933              	.L44:
 934              		.loc 1 573 5 discriminator 2
 935 0038 FB68     		ldr	r3, [r7, #12]
 936 003a 0122     		movs	r2, #1
 937 003c 83F84820 		strb	r2, [r3, #72]
 574:Drivers/STM32L4xx_HAL_Driver/Src/stm32l4xx_hal_sram.c **** 
 575:Drivers/STM32L4xx_HAL_Driver/Src/stm32l4xx_hal_sram.c ****     /* Update the SRAM controller state */
 576:Drivers/STM32L4xx_HAL_Driver/Src/stm32l4xx_hal_sram.c ****     hsram->State = HAL_SRAM_STATE_BUSY;
 938              		.loc 1 576 18 is_stmt 1
 939 0040 FB68     		ldr	r3, [r7, #12]
 940 0042 0222     		movs	r2, #2
 941 0044 83F84920 		strb	r2, [r3, #73]
 577:Drivers/STM32L4xx_HAL_Driver/Src/stm32l4xx_hal_sram.c **** 
 578:Drivers/STM32L4xx_HAL_Driver/Src/stm32l4xx_hal_sram.c ****     /* Read data from memory */
 579:Drivers/STM32L4xx_HAL_Driver/Src/stm32l4xx_hal_sram.c ****     for (size = BufferSize; size != 0U; size--)
 942              		.loc 1 579 15
 943 0048 3B68     		ldr	r3, [r7]
 944 004a FB61     		str	r3, [r7, #28]
 945              		.loc 1 579 5
 946 004c 0CE0     		b	.L46
 947              	.L47:
 580:Drivers/STM32L4xx_HAL_Driver/Src/stm32l4xx_hal_sram.c ****     {
 581:Drivers/STM32L4xx_HAL_Driver/Src/stm32l4xx_hal_sram.c ****       *pdestbuff = *psramaddress;
 948              		.loc 1 581 20
 949 004e BB69     		ldr	r3, [r7, #24]
 950 0050 1A68     		ldr	r2, [r3]
 951              		.loc 1 581 18
 952 0052 7B69     		ldr	r3, [r7, #20]
 953 0054 1A60     		str	r2, [r3]
 582:Drivers/STM32L4xx_HAL_Driver/Src/stm32l4xx_hal_sram.c ****       pdestbuff++;
 954              		.loc 1 582 16
 955 0056 7B69     		ldr	r3, [r7, #20]
 956 0058 0433     		adds	r3, r3, #4
 957 005a 7B61     		str	r3, [r7, #20]
 583:Drivers/STM32L4xx_HAL_Driver/Src/stm32l4xx_hal_sram.c ****       psramaddress++;
 958              		.loc 1 583 19
 959 005c BB69     		ldr	r3, [r7, #24]
 960 005e 0433     		adds	r3, r3, #4
 961 0060 BB61     		str	r3, [r7, #24]
 579:Drivers/STM32L4xx_HAL_Driver/Src/stm32l4xx_hal_sram.c ****     {
 962              		.loc 1 579 45 discriminator 3
 963 0062 FB69     		ldr	r3, [r7, #28]
 964 0064 013B     		subs	r3, r3, #1
 965 0066 FB61     		str	r3, [r7, #28]
ARM GAS  /tmp/ccHphArz.s 			page 28


 966              	.L46:
 579:Drivers/STM32L4xx_HAL_Driver/Src/stm32l4xx_hal_sram.c ****     {
 967              		.loc 1 579 34 discriminator 1
 968 0068 FB69     		ldr	r3, [r7, #28]
 969 006a 002B     		cmp	r3, #0
 970 006c EFD1     		bne	.L47
 584:Drivers/STM32L4xx_HAL_Driver/Src/stm32l4xx_hal_sram.c ****     }
 585:Drivers/STM32L4xx_HAL_Driver/Src/stm32l4xx_hal_sram.c **** 
 586:Drivers/STM32L4xx_HAL_Driver/Src/stm32l4xx_hal_sram.c ****     /* Update the SRAM controller state */
 587:Drivers/STM32L4xx_HAL_Driver/Src/stm32l4xx_hal_sram.c ****     hsram->State = state;
 971              		.loc 1 587 18
 972 006e FB68     		ldr	r3, [r7, #12]
 973 0070 FA7C     		ldrb	r2, [r7, #19]
 974 0072 83F84920 		strb	r2, [r3, #73]
 588:Drivers/STM32L4xx_HAL_Driver/Src/stm32l4xx_hal_sram.c **** 
 589:Drivers/STM32L4xx_HAL_Driver/Src/stm32l4xx_hal_sram.c ****     /* Process unlocked */
 590:Drivers/STM32L4xx_HAL_Driver/Src/stm32l4xx_hal_sram.c ****     __HAL_UNLOCK(hsram);
 975              		.loc 1 590 5
 976 0076 FB68     		ldr	r3, [r7, #12]
 977 0078 0022     		movs	r2, #0
 978 007a 83F84820 		strb	r2, [r3, #72]
 591:Drivers/STM32L4xx_HAL_Driver/Src/stm32l4xx_hal_sram.c ****   }
 592:Drivers/STM32L4xx_HAL_Driver/Src/stm32l4xx_hal_sram.c ****   else
 593:Drivers/STM32L4xx_HAL_Driver/Src/stm32l4xx_hal_sram.c ****   {
 594:Drivers/STM32L4xx_HAL_Driver/Src/stm32l4xx_hal_sram.c ****     return HAL_ERROR;
 595:Drivers/STM32L4xx_HAL_Driver/Src/stm32l4xx_hal_sram.c ****   }
 596:Drivers/STM32L4xx_HAL_Driver/Src/stm32l4xx_hal_sram.c **** 
 597:Drivers/STM32L4xx_HAL_Driver/Src/stm32l4xx_hal_sram.c ****   return HAL_OK;
 979              		.loc 1 597 10
 980 007e 0023     		movs	r3, #0
 981 0080 00E0     		b	.L45
 982              	.L43:
 594:Drivers/STM32L4xx_HAL_Driver/Src/stm32l4xx_hal_sram.c ****   }
 983              		.loc 1 594 12
 984 0082 0123     		movs	r3, #1
 985              	.L45:
 598:Drivers/STM32L4xx_HAL_Driver/Src/stm32l4xx_hal_sram.c **** }
 986              		.loc 1 598 1
 987 0084 1846     		mov	r0, r3
 988 0086 2437     		adds	r7, r7, #36
 989              		.cfi_def_cfa_offset 4
 990 0088 BD46     		mov	sp, r7
 991              		.cfi_def_cfa_register 13
 992              		@ sp needed
 993 008a 5DF8047B 		ldr	r7, [sp], #4
 994              		.cfi_restore 7
 995              		.cfi_def_cfa_offset 0
 996 008e 7047     		bx	lr
 997              		.cfi_endproc
 998              	.LFE455:
 1000              		.section	.text.HAL_SRAM_Write_32b,"ax",%progbits
 1001              		.align	1
 1002              		.global	HAL_SRAM_Write_32b
 1003              		.syntax unified
 1004              		.thumb
 1005              		.thumb_func
 1007              	HAL_SRAM_Write_32b:
ARM GAS  /tmp/ccHphArz.s 			page 29


 1008              	.LFB456:
 599:Drivers/STM32L4xx_HAL_Driver/Src/stm32l4xx_hal_sram.c **** 
 600:Drivers/STM32L4xx_HAL_Driver/Src/stm32l4xx_hal_sram.c **** /**
 601:Drivers/STM32L4xx_HAL_Driver/Src/stm32l4xx_hal_sram.c ****   * @brief  Writes 32-bit buffer to SRAM memory.
 602:Drivers/STM32L4xx_HAL_Driver/Src/stm32l4xx_hal_sram.c ****   * @param  hsram pointer to a SRAM_HandleTypeDef structure that contains
 603:Drivers/STM32L4xx_HAL_Driver/Src/stm32l4xx_hal_sram.c ****   *                the configuration information for SRAM module.
 604:Drivers/STM32L4xx_HAL_Driver/Src/stm32l4xx_hal_sram.c ****   * @param  pAddress Pointer to write start address
 605:Drivers/STM32L4xx_HAL_Driver/Src/stm32l4xx_hal_sram.c ****   * @param  pSrcBuffer Pointer to source buffer to write
 606:Drivers/STM32L4xx_HAL_Driver/Src/stm32l4xx_hal_sram.c ****   * @param  BufferSize Size of the buffer to write to memory
 607:Drivers/STM32L4xx_HAL_Driver/Src/stm32l4xx_hal_sram.c ****   * @retval HAL status
 608:Drivers/STM32L4xx_HAL_Driver/Src/stm32l4xx_hal_sram.c ****   */
 609:Drivers/STM32L4xx_HAL_Driver/Src/stm32l4xx_hal_sram.c **** HAL_StatusTypeDef HAL_SRAM_Write_32b(SRAM_HandleTypeDef *hsram, uint32_t *pAddress, uint32_t *pSrcB
 610:Drivers/STM32L4xx_HAL_Driver/Src/stm32l4xx_hal_sram.c ****                                      uint32_t BufferSize)
 611:Drivers/STM32L4xx_HAL_Driver/Src/stm32l4xx_hal_sram.c **** {
 1009              		.loc 1 611 1
 1010              		.cfi_startproc
 1011              		@ args = 0, pretend = 0, frame = 32
 1012              		@ frame_needed = 1, uses_anonymous_args = 0
 1013              		@ link register save eliminated.
 1014 0000 80B4     		push	{r7}
 1015              		.cfi_def_cfa_offset 4
 1016              		.cfi_offset 7, -4
 1017 0002 89B0     		sub	sp, sp, #36
 1018              		.cfi_def_cfa_offset 40
 1019 0004 00AF     		add	r7, sp, #0
 1020              		.cfi_def_cfa_register 7
 1021 0006 F860     		str	r0, [r7, #12]
 1022 0008 B960     		str	r1, [r7, #8]
 1023 000a 7A60     		str	r2, [r7, #4]
 1024 000c 3B60     		str	r3, [r7]
 612:Drivers/STM32L4xx_HAL_Driver/Src/stm32l4xx_hal_sram.c ****   uint32_t size;
 613:Drivers/STM32L4xx_HAL_Driver/Src/stm32l4xx_hal_sram.c ****   __IO uint32_t *psramaddress = pAddress;
 1025              		.loc 1 613 18
 1026 000e BB68     		ldr	r3, [r7, #8]
 1027 0010 BB61     		str	r3, [r7, #24]
 614:Drivers/STM32L4xx_HAL_Driver/Src/stm32l4xx_hal_sram.c ****   uint32_t *psrcbuff = pSrcBuffer;
 1028              		.loc 1 614 13
 1029 0012 7B68     		ldr	r3, [r7, #4]
 1030 0014 7B61     		str	r3, [r7, #20]
 615:Drivers/STM32L4xx_HAL_Driver/Src/stm32l4xx_hal_sram.c **** 
 616:Drivers/STM32L4xx_HAL_Driver/Src/stm32l4xx_hal_sram.c ****   /* Check the SRAM controller state */
 617:Drivers/STM32L4xx_HAL_Driver/Src/stm32l4xx_hal_sram.c ****   if (hsram->State == HAL_SRAM_STATE_READY)
 1031              		.loc 1 617 12
 1032 0016 FB68     		ldr	r3, [r7, #12]
 1033 0018 93F84930 		ldrb	r3, [r3, #73]
 1034 001c DBB2     		uxtb	r3, r3
 1035              		.loc 1 617 6
 1036 001e 012B     		cmp	r3, #1
 1037 0020 2BD1     		bne	.L49
 618:Drivers/STM32L4xx_HAL_Driver/Src/stm32l4xx_hal_sram.c ****   {
 619:Drivers/STM32L4xx_HAL_Driver/Src/stm32l4xx_hal_sram.c ****     /* Process Locked */
 620:Drivers/STM32L4xx_HAL_Driver/Src/stm32l4xx_hal_sram.c ****     __HAL_LOCK(hsram);
 1038              		.loc 1 620 5
 1039 0022 FB68     		ldr	r3, [r7, #12]
 1040 0024 93F84830 		ldrb	r3, [r3, #72]	@ zero_extendqisi2
 1041 0028 012B     		cmp	r3, #1
 1042 002a 01D1     		bne	.L50
ARM GAS  /tmp/ccHphArz.s 			page 30


 1043              		.loc 1 620 5 is_stmt 0 discriminator 1
 1044 002c 0223     		movs	r3, #2
 1045              		.loc 1 620 5
 1046 002e 25E0     		b	.L51
 1047              	.L50:
 1048              		.loc 1 620 5 discriminator 2
 1049 0030 FB68     		ldr	r3, [r7, #12]
 1050 0032 0122     		movs	r2, #1
 1051 0034 83F84820 		strb	r2, [r3, #72]
 621:Drivers/STM32L4xx_HAL_Driver/Src/stm32l4xx_hal_sram.c **** 
 622:Drivers/STM32L4xx_HAL_Driver/Src/stm32l4xx_hal_sram.c ****     /* Update the SRAM controller state */
 623:Drivers/STM32L4xx_HAL_Driver/Src/stm32l4xx_hal_sram.c ****     hsram->State = HAL_SRAM_STATE_BUSY;
 1052              		.loc 1 623 18 is_stmt 1
 1053 0038 FB68     		ldr	r3, [r7, #12]
 1054 003a 0222     		movs	r2, #2
 1055 003c 83F84920 		strb	r2, [r3, #73]
 624:Drivers/STM32L4xx_HAL_Driver/Src/stm32l4xx_hal_sram.c **** 
 625:Drivers/STM32L4xx_HAL_Driver/Src/stm32l4xx_hal_sram.c ****     /* Write data to memory */
 626:Drivers/STM32L4xx_HAL_Driver/Src/stm32l4xx_hal_sram.c ****     for (size = BufferSize; size != 0U; size--)
 1056              		.loc 1 626 15
 1057 0040 3B68     		ldr	r3, [r7]
 1058 0042 FB61     		str	r3, [r7, #28]
 1059              		.loc 1 626 5
 1060 0044 0CE0     		b	.L52
 1061              	.L53:
 627:Drivers/STM32L4xx_HAL_Driver/Src/stm32l4xx_hal_sram.c ****     {
 628:Drivers/STM32L4xx_HAL_Driver/Src/stm32l4xx_hal_sram.c ****       *psramaddress = *psrcbuff;
 1062              		.loc 1 628 23
 1063 0046 7B69     		ldr	r3, [r7, #20]
 1064 0048 1A68     		ldr	r2, [r3]
 1065              		.loc 1 628 21
 1066 004a BB69     		ldr	r3, [r7, #24]
 1067 004c 1A60     		str	r2, [r3]
 629:Drivers/STM32L4xx_HAL_Driver/Src/stm32l4xx_hal_sram.c ****       psrcbuff++;
 1068              		.loc 1 629 15
 1069 004e 7B69     		ldr	r3, [r7, #20]
 1070 0050 0433     		adds	r3, r3, #4
 1071 0052 7B61     		str	r3, [r7, #20]
 630:Drivers/STM32L4xx_HAL_Driver/Src/stm32l4xx_hal_sram.c ****       psramaddress++;
 1072              		.loc 1 630 19
 1073 0054 BB69     		ldr	r3, [r7, #24]
 1074 0056 0433     		adds	r3, r3, #4
 1075 0058 BB61     		str	r3, [r7, #24]
 626:Drivers/STM32L4xx_HAL_Driver/Src/stm32l4xx_hal_sram.c ****     {
 1076              		.loc 1 626 45 discriminator 3
 1077 005a FB69     		ldr	r3, [r7, #28]
 1078 005c 013B     		subs	r3, r3, #1
 1079 005e FB61     		str	r3, [r7, #28]
 1080              	.L52:
 626:Drivers/STM32L4xx_HAL_Driver/Src/stm32l4xx_hal_sram.c ****     {
 1081              		.loc 1 626 34 discriminator 1
 1082 0060 FB69     		ldr	r3, [r7, #28]
 1083 0062 002B     		cmp	r3, #0
 1084 0064 EFD1     		bne	.L53
 631:Drivers/STM32L4xx_HAL_Driver/Src/stm32l4xx_hal_sram.c ****     }
 632:Drivers/STM32L4xx_HAL_Driver/Src/stm32l4xx_hal_sram.c **** 
 633:Drivers/STM32L4xx_HAL_Driver/Src/stm32l4xx_hal_sram.c ****     /* Update the SRAM controller state */
ARM GAS  /tmp/ccHphArz.s 			page 31


 634:Drivers/STM32L4xx_HAL_Driver/Src/stm32l4xx_hal_sram.c ****     hsram->State = HAL_SRAM_STATE_READY;
 1085              		.loc 1 634 18
 1086 0066 FB68     		ldr	r3, [r7, #12]
 1087 0068 0122     		movs	r2, #1
 1088 006a 83F84920 		strb	r2, [r3, #73]
 635:Drivers/STM32L4xx_HAL_Driver/Src/stm32l4xx_hal_sram.c **** 
 636:Drivers/STM32L4xx_HAL_Driver/Src/stm32l4xx_hal_sram.c ****     /* Process unlocked */
 637:Drivers/STM32L4xx_HAL_Driver/Src/stm32l4xx_hal_sram.c ****     __HAL_UNLOCK(hsram);
 1089              		.loc 1 637 5
 1090 006e FB68     		ldr	r3, [r7, #12]
 1091 0070 0022     		movs	r2, #0
 1092 0072 83F84820 		strb	r2, [r3, #72]
 638:Drivers/STM32L4xx_HAL_Driver/Src/stm32l4xx_hal_sram.c ****   }
 639:Drivers/STM32L4xx_HAL_Driver/Src/stm32l4xx_hal_sram.c ****   else
 640:Drivers/STM32L4xx_HAL_Driver/Src/stm32l4xx_hal_sram.c ****   {
 641:Drivers/STM32L4xx_HAL_Driver/Src/stm32l4xx_hal_sram.c ****     return HAL_ERROR;
 642:Drivers/STM32L4xx_HAL_Driver/Src/stm32l4xx_hal_sram.c ****   }
 643:Drivers/STM32L4xx_HAL_Driver/Src/stm32l4xx_hal_sram.c **** 
 644:Drivers/STM32L4xx_HAL_Driver/Src/stm32l4xx_hal_sram.c ****   return HAL_OK;
 1093              		.loc 1 644 10
 1094 0076 0023     		movs	r3, #0
 1095 0078 00E0     		b	.L51
 1096              	.L49:
 641:Drivers/STM32L4xx_HAL_Driver/Src/stm32l4xx_hal_sram.c ****   }
 1097              		.loc 1 641 12
 1098 007a 0123     		movs	r3, #1
 1099              	.L51:
 645:Drivers/STM32L4xx_HAL_Driver/Src/stm32l4xx_hal_sram.c **** }
 1100              		.loc 1 645 1
 1101 007c 1846     		mov	r0, r3
 1102 007e 2437     		adds	r7, r7, #36
 1103              		.cfi_def_cfa_offset 4
 1104 0080 BD46     		mov	sp, r7
 1105              		.cfi_def_cfa_register 13
 1106              		@ sp needed
 1107 0082 5DF8047B 		ldr	r7, [sp], #4
 1108              		.cfi_restore 7
 1109              		.cfi_def_cfa_offset 0
 1110 0086 7047     		bx	lr
 1111              		.cfi_endproc
 1112              	.LFE456:
 1114              		.section	.text.HAL_SRAM_Read_DMA,"ax",%progbits
 1115              		.align	1
 1116              		.global	HAL_SRAM_Read_DMA
 1117              		.syntax unified
 1118              		.thumb
 1119              		.thumb_func
 1121              	HAL_SRAM_Read_DMA:
 1122              	.LFB457:
 646:Drivers/STM32L4xx_HAL_Driver/Src/stm32l4xx_hal_sram.c **** 
 647:Drivers/STM32L4xx_HAL_Driver/Src/stm32l4xx_hal_sram.c **** /**
 648:Drivers/STM32L4xx_HAL_Driver/Src/stm32l4xx_hal_sram.c ****   * @brief  Reads a Words data from the SRAM memory using DMA transfer.
 649:Drivers/STM32L4xx_HAL_Driver/Src/stm32l4xx_hal_sram.c ****   * @param  hsram pointer to a SRAM_HandleTypeDef structure that contains
 650:Drivers/STM32L4xx_HAL_Driver/Src/stm32l4xx_hal_sram.c ****   *                the configuration information for SRAM module.
 651:Drivers/STM32L4xx_HAL_Driver/Src/stm32l4xx_hal_sram.c ****   * @param  pAddress Pointer to read start address
 652:Drivers/STM32L4xx_HAL_Driver/Src/stm32l4xx_hal_sram.c ****   * @param  pDstBuffer Pointer to destination buffer
 653:Drivers/STM32L4xx_HAL_Driver/Src/stm32l4xx_hal_sram.c ****   * @param  BufferSize Size of the buffer to read from memory
ARM GAS  /tmp/ccHphArz.s 			page 32


 654:Drivers/STM32L4xx_HAL_Driver/Src/stm32l4xx_hal_sram.c ****   * @retval HAL status
 655:Drivers/STM32L4xx_HAL_Driver/Src/stm32l4xx_hal_sram.c ****   */
 656:Drivers/STM32L4xx_HAL_Driver/Src/stm32l4xx_hal_sram.c **** HAL_StatusTypeDef HAL_SRAM_Read_DMA(SRAM_HandleTypeDef *hsram, uint32_t *pAddress, uint32_t *pDstBu
 657:Drivers/STM32L4xx_HAL_Driver/Src/stm32l4xx_hal_sram.c ****                                     uint32_t BufferSize)
 658:Drivers/STM32L4xx_HAL_Driver/Src/stm32l4xx_hal_sram.c **** {
 1123              		.loc 1 658 1
 1124              		.cfi_startproc
 1125              		@ args = 0, pretend = 0, frame = 24
 1126              		@ frame_needed = 1, uses_anonymous_args = 0
 1127 0000 80B5     		push	{r7, lr}
 1128              		.cfi_def_cfa_offset 8
 1129              		.cfi_offset 7, -8
 1130              		.cfi_offset 14, -4
 1131 0002 86B0     		sub	sp, sp, #24
 1132              		.cfi_def_cfa_offset 32
 1133 0004 00AF     		add	r7, sp, #0
 1134              		.cfi_def_cfa_register 7
 1135 0006 F860     		str	r0, [r7, #12]
 1136 0008 B960     		str	r1, [r7, #8]
 1137 000a 7A60     		str	r2, [r7, #4]
 1138 000c 3B60     		str	r3, [r7]
 659:Drivers/STM32L4xx_HAL_Driver/Src/stm32l4xx_hal_sram.c ****   HAL_StatusTypeDef status;
 660:Drivers/STM32L4xx_HAL_Driver/Src/stm32l4xx_hal_sram.c ****   HAL_SRAM_StateTypeDef state = hsram->State;
 1139              		.loc 1 660 25
 1140 000e FB68     		ldr	r3, [r7, #12]
 1141 0010 93F84930 		ldrb	r3, [r3, #73]
 1142 0014 BB75     		strb	r3, [r7, #22]
 661:Drivers/STM32L4xx_HAL_Driver/Src/stm32l4xx_hal_sram.c **** 
 662:Drivers/STM32L4xx_HAL_Driver/Src/stm32l4xx_hal_sram.c ****   /* Check the SRAM controller state */
 663:Drivers/STM32L4xx_HAL_Driver/Src/stm32l4xx_hal_sram.c ****   if ((state == HAL_SRAM_STATE_READY) || (state == HAL_SRAM_STATE_PROTECTED))
 1143              		.loc 1 663 6
 1144 0016 BB7D     		ldrb	r3, [r7, #22]	@ zero_extendqisi2
 1145 0018 012B     		cmp	r3, #1
 1146 001a 02D0     		beq	.L56
 1147              		.loc 1 663 39 discriminator 1
 1148 001c BB7D     		ldrb	r3, [r7, #22]	@ zero_extendqisi2
 1149 001e 042B     		cmp	r3, #4
 1150 0020 2CD1     		bne	.L57
 1151              	.L56:
 664:Drivers/STM32L4xx_HAL_Driver/Src/stm32l4xx_hal_sram.c ****   {
 665:Drivers/STM32L4xx_HAL_Driver/Src/stm32l4xx_hal_sram.c ****     /* Process Locked */
 666:Drivers/STM32L4xx_HAL_Driver/Src/stm32l4xx_hal_sram.c ****     __HAL_LOCK(hsram);
 1152              		.loc 1 666 5
 1153 0022 FB68     		ldr	r3, [r7, #12]
 1154 0024 93F84830 		ldrb	r3, [r3, #72]	@ zero_extendqisi2
 1155 0028 012B     		cmp	r3, #1
 1156 002a 01D1     		bne	.L58
 1157              		.loc 1 666 5 is_stmt 0 discriminator 1
 1158 002c 0223     		movs	r3, #2
 1159              		.loc 1 666 5
 1160 002e 28E0     		b	.L59
 1161              	.L58:
 1162              		.loc 1 666 5 discriminator 2
 1163 0030 FB68     		ldr	r3, [r7, #12]
 1164 0032 0122     		movs	r2, #1
 1165 0034 83F84820 		strb	r2, [r3, #72]
 667:Drivers/STM32L4xx_HAL_Driver/Src/stm32l4xx_hal_sram.c **** 
ARM GAS  /tmp/ccHphArz.s 			page 33


 668:Drivers/STM32L4xx_HAL_Driver/Src/stm32l4xx_hal_sram.c ****     /* Update the SRAM controller state */
 669:Drivers/STM32L4xx_HAL_Driver/Src/stm32l4xx_hal_sram.c ****     hsram->State = HAL_SRAM_STATE_BUSY;
 1166              		.loc 1 669 18 is_stmt 1
 1167 0038 FB68     		ldr	r3, [r7, #12]
 1168 003a 0222     		movs	r2, #2
 1169 003c 83F84920 		strb	r2, [r3, #73]
 670:Drivers/STM32L4xx_HAL_Driver/Src/stm32l4xx_hal_sram.c **** 
 671:Drivers/STM32L4xx_HAL_Driver/Src/stm32l4xx_hal_sram.c ****     /* Configure DMA user callbacks */
 672:Drivers/STM32L4xx_HAL_Driver/Src/stm32l4xx_hal_sram.c ****     if (state == HAL_SRAM_STATE_READY)
 1170              		.loc 1 672 8
 1171 0040 BB7D     		ldrb	r3, [r7, #22]	@ zero_extendqisi2
 1172 0042 012B     		cmp	r3, #1
 1173 0044 04D1     		bne	.L60
 673:Drivers/STM32L4xx_HAL_Driver/Src/stm32l4xx_hal_sram.c ****     {
 674:Drivers/STM32L4xx_HAL_Driver/Src/stm32l4xx_hal_sram.c ****       hsram->hdma->XferCpltCallback = SRAM_DMACplt;
 1174              		.loc 1 674 12
 1175 0046 FB68     		ldr	r3, [r7, #12]
 1176 0048 DB6C     		ldr	r3, [r3, #76]
 1177              		.loc 1 674 37
 1178 004a 104A     		ldr	r2, .L63
 1179 004c DA62     		str	r2, [r3, #44]
 1180 004e 03E0     		b	.L61
 1181              	.L60:
 675:Drivers/STM32L4xx_HAL_Driver/Src/stm32l4xx_hal_sram.c ****     }
 676:Drivers/STM32L4xx_HAL_Driver/Src/stm32l4xx_hal_sram.c ****     else
 677:Drivers/STM32L4xx_HAL_Driver/Src/stm32l4xx_hal_sram.c ****     {
 678:Drivers/STM32L4xx_HAL_Driver/Src/stm32l4xx_hal_sram.c ****       hsram->hdma->XferCpltCallback = SRAM_DMACpltProt;
 1182              		.loc 1 678 12
 1183 0050 FB68     		ldr	r3, [r7, #12]
 1184 0052 DB6C     		ldr	r3, [r3, #76]
 1185              		.loc 1 678 37
 1186 0054 0E4A     		ldr	r2, .L63+4
 1187 0056 DA62     		str	r2, [r3, #44]
 1188              	.L61:
 679:Drivers/STM32L4xx_HAL_Driver/Src/stm32l4xx_hal_sram.c ****     }
 680:Drivers/STM32L4xx_HAL_Driver/Src/stm32l4xx_hal_sram.c ****     hsram->hdma->XferErrorCallback = SRAM_DMAError;
 1189              		.loc 1 680 10
 1190 0058 FB68     		ldr	r3, [r7, #12]
 1191 005a DB6C     		ldr	r3, [r3, #76]
 1192              		.loc 1 680 36
 1193 005c 0D4A     		ldr	r2, .L63+8
 1194 005e 5A63     		str	r2, [r3, #52]
 681:Drivers/STM32L4xx_HAL_Driver/Src/stm32l4xx_hal_sram.c **** 
 682:Drivers/STM32L4xx_HAL_Driver/Src/stm32l4xx_hal_sram.c ****     /* Enable the DMA Stream */
 683:Drivers/STM32L4xx_HAL_Driver/Src/stm32l4xx_hal_sram.c ****     status = HAL_DMA_Start_IT(hsram->hdma, (uint32_t)pAddress, (uint32_t)pDstBuffer, (uint32_t)Buff
 1195              		.loc 1 683 14
 1196 0060 FB68     		ldr	r3, [r7, #12]
 1197 0062 D86C     		ldr	r0, [r3, #76]
 1198 0064 B968     		ldr	r1, [r7, #8]
 1199 0066 7A68     		ldr	r2, [r7, #4]
 1200 0068 3B68     		ldr	r3, [r7]
 1201 006a FFF7FEFF 		bl	HAL_DMA_Start_IT
 1202 006e 0346     		mov	r3, r0
 1203 0070 FB75     		strb	r3, [r7, #23]
 684:Drivers/STM32L4xx_HAL_Driver/Src/stm32l4xx_hal_sram.c **** 
 685:Drivers/STM32L4xx_HAL_Driver/Src/stm32l4xx_hal_sram.c ****     /* Process unlocked */
 686:Drivers/STM32L4xx_HAL_Driver/Src/stm32l4xx_hal_sram.c ****     __HAL_UNLOCK(hsram);
ARM GAS  /tmp/ccHphArz.s 			page 34


 1204              		.loc 1 686 5
 1205 0072 FB68     		ldr	r3, [r7, #12]
 1206 0074 0022     		movs	r2, #0
 1207 0076 83F84820 		strb	r2, [r3, #72]
 1208 007a 01E0     		b	.L62
 1209              	.L57:
 687:Drivers/STM32L4xx_HAL_Driver/Src/stm32l4xx_hal_sram.c ****   }
 688:Drivers/STM32L4xx_HAL_Driver/Src/stm32l4xx_hal_sram.c ****   else
 689:Drivers/STM32L4xx_HAL_Driver/Src/stm32l4xx_hal_sram.c ****   {
 690:Drivers/STM32L4xx_HAL_Driver/Src/stm32l4xx_hal_sram.c ****     status = HAL_ERROR;
 1210              		.loc 1 690 12
 1211 007c 0123     		movs	r3, #1
 1212 007e FB75     		strb	r3, [r7, #23]
 1213              	.L62:
 691:Drivers/STM32L4xx_HAL_Driver/Src/stm32l4xx_hal_sram.c ****   }
 692:Drivers/STM32L4xx_HAL_Driver/Src/stm32l4xx_hal_sram.c **** 
 693:Drivers/STM32L4xx_HAL_Driver/Src/stm32l4xx_hal_sram.c ****   return status;
 1214              		.loc 1 693 10
 1215 0080 FB7D     		ldrb	r3, [r7, #23]	@ zero_extendqisi2
 1216              	.L59:
 694:Drivers/STM32L4xx_HAL_Driver/Src/stm32l4xx_hal_sram.c **** }
 1217              		.loc 1 694 1
 1218 0082 1846     		mov	r0, r3
 1219 0084 1837     		adds	r7, r7, #24
 1220              		.cfi_def_cfa_offset 8
 1221 0086 BD46     		mov	sp, r7
 1222              		.cfi_def_cfa_register 13
 1223              		@ sp needed
 1224 0088 80BD     		pop	{r7, pc}
 1225              	.L64:
 1226 008a 00BF     		.align	2
 1227              	.L63:
 1228 008c 00000000 		.word	SRAM_DMACplt
 1229 0090 00000000 		.word	SRAM_DMACpltProt
 1230 0094 00000000 		.word	SRAM_DMAError
 1231              		.cfi_endproc
 1232              	.LFE457:
 1234              		.section	.text.HAL_SRAM_Write_DMA,"ax",%progbits
 1235              		.align	1
 1236              		.global	HAL_SRAM_Write_DMA
 1237              		.syntax unified
 1238              		.thumb
 1239              		.thumb_func
 1241              	HAL_SRAM_Write_DMA:
 1242              	.LFB458:
 695:Drivers/STM32L4xx_HAL_Driver/Src/stm32l4xx_hal_sram.c **** 
 696:Drivers/STM32L4xx_HAL_Driver/Src/stm32l4xx_hal_sram.c **** /**
 697:Drivers/STM32L4xx_HAL_Driver/Src/stm32l4xx_hal_sram.c ****   * @brief  Writes a Words data buffer to SRAM memory using DMA transfer.
 698:Drivers/STM32L4xx_HAL_Driver/Src/stm32l4xx_hal_sram.c ****   * @param  hsram pointer to a SRAM_HandleTypeDef structure that contains
 699:Drivers/STM32L4xx_HAL_Driver/Src/stm32l4xx_hal_sram.c ****   *                the configuration information for SRAM module.
 700:Drivers/STM32L4xx_HAL_Driver/Src/stm32l4xx_hal_sram.c ****   * @param  pAddress Pointer to write start address
 701:Drivers/STM32L4xx_HAL_Driver/Src/stm32l4xx_hal_sram.c ****   * @param  pSrcBuffer Pointer to source buffer to write
 702:Drivers/STM32L4xx_HAL_Driver/Src/stm32l4xx_hal_sram.c ****   * @param  BufferSize Size of the buffer to write to memory
 703:Drivers/STM32L4xx_HAL_Driver/Src/stm32l4xx_hal_sram.c ****   * @retval HAL status
 704:Drivers/STM32L4xx_HAL_Driver/Src/stm32l4xx_hal_sram.c ****   */
 705:Drivers/STM32L4xx_HAL_Driver/Src/stm32l4xx_hal_sram.c **** HAL_StatusTypeDef HAL_SRAM_Write_DMA(SRAM_HandleTypeDef *hsram, uint32_t *pAddress, uint32_t *pSrcB
 706:Drivers/STM32L4xx_HAL_Driver/Src/stm32l4xx_hal_sram.c ****                                      uint32_t BufferSize)
ARM GAS  /tmp/ccHphArz.s 			page 35


 707:Drivers/STM32L4xx_HAL_Driver/Src/stm32l4xx_hal_sram.c **** {
 1243              		.loc 1 707 1
 1244              		.cfi_startproc
 1245              		@ args = 0, pretend = 0, frame = 24
 1246              		@ frame_needed = 1, uses_anonymous_args = 0
 1247 0000 80B5     		push	{r7, lr}
 1248              		.cfi_def_cfa_offset 8
 1249              		.cfi_offset 7, -8
 1250              		.cfi_offset 14, -4
 1251 0002 86B0     		sub	sp, sp, #24
 1252              		.cfi_def_cfa_offset 32
 1253 0004 00AF     		add	r7, sp, #0
 1254              		.cfi_def_cfa_register 7
 1255 0006 F860     		str	r0, [r7, #12]
 1256 0008 B960     		str	r1, [r7, #8]
 1257 000a 7A60     		str	r2, [r7, #4]
 1258 000c 3B60     		str	r3, [r7]
 708:Drivers/STM32L4xx_HAL_Driver/Src/stm32l4xx_hal_sram.c ****   HAL_StatusTypeDef status;
 709:Drivers/STM32L4xx_HAL_Driver/Src/stm32l4xx_hal_sram.c **** 
 710:Drivers/STM32L4xx_HAL_Driver/Src/stm32l4xx_hal_sram.c ****   /* Check the SRAM controller state */
 711:Drivers/STM32L4xx_HAL_Driver/Src/stm32l4xx_hal_sram.c ****   if (hsram->State == HAL_SRAM_STATE_READY)
 1259              		.loc 1 711 12
 1260 000e FB68     		ldr	r3, [r7, #12]
 1261 0010 93F84930 		ldrb	r3, [r3, #73]
 1262 0014 DBB2     		uxtb	r3, r3
 1263              		.loc 1 711 6
 1264 0016 012B     		cmp	r3, #1
 1265 0018 24D1     		bne	.L66
 712:Drivers/STM32L4xx_HAL_Driver/Src/stm32l4xx_hal_sram.c ****   {
 713:Drivers/STM32L4xx_HAL_Driver/Src/stm32l4xx_hal_sram.c ****     /* Process Locked */
 714:Drivers/STM32L4xx_HAL_Driver/Src/stm32l4xx_hal_sram.c ****     __HAL_LOCK(hsram);
 1266              		.loc 1 714 5
 1267 001a FB68     		ldr	r3, [r7, #12]
 1268 001c 93F84830 		ldrb	r3, [r3, #72]	@ zero_extendqisi2
 1269 0020 012B     		cmp	r3, #1
 1270 0022 01D1     		bne	.L67
 1271              		.loc 1 714 5 is_stmt 0 discriminator 1
 1272 0024 0223     		movs	r3, #2
 1273              		.loc 1 714 5
 1274 0026 20E0     		b	.L68
 1275              	.L67:
 1276              		.loc 1 714 5 discriminator 2
 1277 0028 FB68     		ldr	r3, [r7, #12]
 1278 002a 0122     		movs	r2, #1
 1279 002c 83F84820 		strb	r2, [r3, #72]
 715:Drivers/STM32L4xx_HAL_Driver/Src/stm32l4xx_hal_sram.c **** 
 716:Drivers/STM32L4xx_HAL_Driver/Src/stm32l4xx_hal_sram.c ****     /* Update the SRAM controller state */
 717:Drivers/STM32L4xx_HAL_Driver/Src/stm32l4xx_hal_sram.c ****     hsram->State = HAL_SRAM_STATE_BUSY;
 1280              		.loc 1 717 18 is_stmt 1
 1281 0030 FB68     		ldr	r3, [r7, #12]
 1282 0032 0222     		movs	r2, #2
 1283 0034 83F84920 		strb	r2, [r3, #73]
 718:Drivers/STM32L4xx_HAL_Driver/Src/stm32l4xx_hal_sram.c **** 
 719:Drivers/STM32L4xx_HAL_Driver/Src/stm32l4xx_hal_sram.c ****     /* Configure DMA user callbacks */
 720:Drivers/STM32L4xx_HAL_Driver/Src/stm32l4xx_hal_sram.c ****     hsram->hdma->XferCpltCallback = SRAM_DMACplt;
 1284              		.loc 1 720 10
 1285 0038 FB68     		ldr	r3, [r7, #12]
ARM GAS  /tmp/ccHphArz.s 			page 36


 1286 003a DB6C     		ldr	r3, [r3, #76]
 1287              		.loc 1 720 35
 1288 003c 0D4A     		ldr	r2, .L70
 1289 003e DA62     		str	r2, [r3, #44]
 721:Drivers/STM32L4xx_HAL_Driver/Src/stm32l4xx_hal_sram.c ****     hsram->hdma->XferErrorCallback = SRAM_DMAError;
 1290              		.loc 1 721 10
 1291 0040 FB68     		ldr	r3, [r7, #12]
 1292 0042 DB6C     		ldr	r3, [r3, #76]
 1293              		.loc 1 721 36
 1294 0044 0C4A     		ldr	r2, .L70+4
 1295 0046 5A63     		str	r2, [r3, #52]
 722:Drivers/STM32L4xx_HAL_Driver/Src/stm32l4xx_hal_sram.c **** 
 723:Drivers/STM32L4xx_HAL_Driver/Src/stm32l4xx_hal_sram.c ****     /* Enable the DMA Stream */
 724:Drivers/STM32L4xx_HAL_Driver/Src/stm32l4xx_hal_sram.c ****     status = HAL_DMA_Start_IT(hsram->hdma, (uint32_t)pSrcBuffer, (uint32_t)pAddress, (uint32_t)Buff
 1296              		.loc 1 724 14
 1297 0048 FB68     		ldr	r3, [r7, #12]
 1298 004a D86C     		ldr	r0, [r3, #76]
 1299 004c 7968     		ldr	r1, [r7, #4]
 1300 004e BA68     		ldr	r2, [r7, #8]
 1301 0050 3B68     		ldr	r3, [r7]
 1302 0052 FFF7FEFF 		bl	HAL_DMA_Start_IT
 1303 0056 0346     		mov	r3, r0
 1304 0058 FB75     		strb	r3, [r7, #23]
 725:Drivers/STM32L4xx_HAL_Driver/Src/stm32l4xx_hal_sram.c **** 
 726:Drivers/STM32L4xx_HAL_Driver/Src/stm32l4xx_hal_sram.c ****     /* Process unlocked */
 727:Drivers/STM32L4xx_HAL_Driver/Src/stm32l4xx_hal_sram.c ****     __HAL_UNLOCK(hsram);
 1305              		.loc 1 727 5
 1306 005a FB68     		ldr	r3, [r7, #12]
 1307 005c 0022     		movs	r2, #0
 1308 005e 83F84820 		strb	r2, [r3, #72]
 1309 0062 01E0     		b	.L69
 1310              	.L66:
 728:Drivers/STM32L4xx_HAL_Driver/Src/stm32l4xx_hal_sram.c ****   }
 729:Drivers/STM32L4xx_HAL_Driver/Src/stm32l4xx_hal_sram.c ****   else
 730:Drivers/STM32L4xx_HAL_Driver/Src/stm32l4xx_hal_sram.c ****   {
 731:Drivers/STM32L4xx_HAL_Driver/Src/stm32l4xx_hal_sram.c ****     status = HAL_ERROR;
 1311              		.loc 1 731 12
 1312 0064 0123     		movs	r3, #1
 1313 0066 FB75     		strb	r3, [r7, #23]
 1314              	.L69:
 732:Drivers/STM32L4xx_HAL_Driver/Src/stm32l4xx_hal_sram.c ****   }
 733:Drivers/STM32L4xx_HAL_Driver/Src/stm32l4xx_hal_sram.c **** 
 734:Drivers/STM32L4xx_HAL_Driver/Src/stm32l4xx_hal_sram.c ****   return status;
 1315              		.loc 1 734 10
 1316 0068 FB7D     		ldrb	r3, [r7, #23]	@ zero_extendqisi2
 1317              	.L68:
 735:Drivers/STM32L4xx_HAL_Driver/Src/stm32l4xx_hal_sram.c **** }
 1318              		.loc 1 735 1
 1319 006a 1846     		mov	r0, r3
 1320 006c 1837     		adds	r7, r7, #24
 1321              		.cfi_def_cfa_offset 8
 1322 006e BD46     		mov	sp, r7
 1323              		.cfi_def_cfa_register 13
 1324              		@ sp needed
 1325 0070 80BD     		pop	{r7, pc}
 1326              	.L71:
 1327 0072 00BF     		.align	2
ARM GAS  /tmp/ccHphArz.s 			page 37


 1328              	.L70:
 1329 0074 00000000 		.word	SRAM_DMACplt
 1330 0078 00000000 		.word	SRAM_DMAError
 1331              		.cfi_endproc
 1332              	.LFE458:
 1334              		.section	.text.HAL_SRAM_WriteOperation_Enable,"ax",%progbits
 1335              		.align	1
 1336              		.global	HAL_SRAM_WriteOperation_Enable
 1337              		.syntax unified
 1338              		.thumb
 1339              		.thumb_func
 1341              	HAL_SRAM_WriteOperation_Enable:
 1342              	.LFB459:
 736:Drivers/STM32L4xx_HAL_Driver/Src/stm32l4xx_hal_sram.c **** 
 737:Drivers/STM32L4xx_HAL_Driver/Src/stm32l4xx_hal_sram.c **** #if (USE_HAL_SRAM_REGISTER_CALLBACKS == 1)
 738:Drivers/STM32L4xx_HAL_Driver/Src/stm32l4xx_hal_sram.c **** /**
 739:Drivers/STM32L4xx_HAL_Driver/Src/stm32l4xx_hal_sram.c ****   * @brief  Register a User SRAM Callback
 740:Drivers/STM32L4xx_HAL_Driver/Src/stm32l4xx_hal_sram.c ****   *         To be used to override the weak predefined callback
 741:Drivers/STM32L4xx_HAL_Driver/Src/stm32l4xx_hal_sram.c ****   * @param hsram : SRAM handle
 742:Drivers/STM32L4xx_HAL_Driver/Src/stm32l4xx_hal_sram.c ****   * @param CallbackId : ID of the callback to be registered
 743:Drivers/STM32L4xx_HAL_Driver/Src/stm32l4xx_hal_sram.c ****   *        This parameter can be one of the following values:
 744:Drivers/STM32L4xx_HAL_Driver/Src/stm32l4xx_hal_sram.c ****   *          @arg @ref HAL_SRAM_MSP_INIT_CB_ID       SRAM MspInit callback ID
 745:Drivers/STM32L4xx_HAL_Driver/Src/stm32l4xx_hal_sram.c ****   *          @arg @ref HAL_SRAM_MSP_DEINIT_CB_ID     SRAM MspDeInit callback ID
 746:Drivers/STM32L4xx_HAL_Driver/Src/stm32l4xx_hal_sram.c ****   * @param pCallback : pointer to the Callback function
 747:Drivers/STM32L4xx_HAL_Driver/Src/stm32l4xx_hal_sram.c ****   * @retval status
 748:Drivers/STM32L4xx_HAL_Driver/Src/stm32l4xx_hal_sram.c ****   */
 749:Drivers/STM32L4xx_HAL_Driver/Src/stm32l4xx_hal_sram.c **** HAL_StatusTypeDef HAL_SRAM_RegisterCallback(SRAM_HandleTypeDef *hsram, HAL_SRAM_CallbackIDTypeDef C
 750:Drivers/STM32L4xx_HAL_Driver/Src/stm32l4xx_hal_sram.c ****                                             pSRAM_CallbackTypeDef pCallback)
 751:Drivers/STM32L4xx_HAL_Driver/Src/stm32l4xx_hal_sram.c **** {
 752:Drivers/STM32L4xx_HAL_Driver/Src/stm32l4xx_hal_sram.c ****   HAL_StatusTypeDef status = HAL_OK;
 753:Drivers/STM32L4xx_HAL_Driver/Src/stm32l4xx_hal_sram.c ****   HAL_SRAM_StateTypeDef state;
 754:Drivers/STM32L4xx_HAL_Driver/Src/stm32l4xx_hal_sram.c **** 
 755:Drivers/STM32L4xx_HAL_Driver/Src/stm32l4xx_hal_sram.c ****   if (pCallback == NULL)
 756:Drivers/STM32L4xx_HAL_Driver/Src/stm32l4xx_hal_sram.c ****   {
 757:Drivers/STM32L4xx_HAL_Driver/Src/stm32l4xx_hal_sram.c ****     return HAL_ERROR;
 758:Drivers/STM32L4xx_HAL_Driver/Src/stm32l4xx_hal_sram.c ****   }
 759:Drivers/STM32L4xx_HAL_Driver/Src/stm32l4xx_hal_sram.c **** 
 760:Drivers/STM32L4xx_HAL_Driver/Src/stm32l4xx_hal_sram.c ****   state = hsram->State;
 761:Drivers/STM32L4xx_HAL_Driver/Src/stm32l4xx_hal_sram.c ****   if ((state == HAL_SRAM_STATE_READY) || (state == HAL_SRAM_STATE_RESET) || (state == HAL_SRAM_STAT
 762:Drivers/STM32L4xx_HAL_Driver/Src/stm32l4xx_hal_sram.c ****   {
 763:Drivers/STM32L4xx_HAL_Driver/Src/stm32l4xx_hal_sram.c ****     switch (CallbackId)
 764:Drivers/STM32L4xx_HAL_Driver/Src/stm32l4xx_hal_sram.c ****     {
 765:Drivers/STM32L4xx_HAL_Driver/Src/stm32l4xx_hal_sram.c ****       case HAL_SRAM_MSP_INIT_CB_ID :
 766:Drivers/STM32L4xx_HAL_Driver/Src/stm32l4xx_hal_sram.c ****         hsram->MspInitCallback = pCallback;
 767:Drivers/STM32L4xx_HAL_Driver/Src/stm32l4xx_hal_sram.c ****         break;
 768:Drivers/STM32L4xx_HAL_Driver/Src/stm32l4xx_hal_sram.c ****       case HAL_SRAM_MSP_DEINIT_CB_ID :
 769:Drivers/STM32L4xx_HAL_Driver/Src/stm32l4xx_hal_sram.c ****         hsram->MspDeInitCallback = pCallback;
 770:Drivers/STM32L4xx_HAL_Driver/Src/stm32l4xx_hal_sram.c ****         break;
 771:Drivers/STM32L4xx_HAL_Driver/Src/stm32l4xx_hal_sram.c ****       default :
 772:Drivers/STM32L4xx_HAL_Driver/Src/stm32l4xx_hal_sram.c ****         /* update return status */
 773:Drivers/STM32L4xx_HAL_Driver/Src/stm32l4xx_hal_sram.c ****         status =  HAL_ERROR;
 774:Drivers/STM32L4xx_HAL_Driver/Src/stm32l4xx_hal_sram.c ****         break;
 775:Drivers/STM32L4xx_HAL_Driver/Src/stm32l4xx_hal_sram.c ****     }
 776:Drivers/STM32L4xx_HAL_Driver/Src/stm32l4xx_hal_sram.c ****   }
 777:Drivers/STM32L4xx_HAL_Driver/Src/stm32l4xx_hal_sram.c ****   else
 778:Drivers/STM32L4xx_HAL_Driver/Src/stm32l4xx_hal_sram.c ****   {
 779:Drivers/STM32L4xx_HAL_Driver/Src/stm32l4xx_hal_sram.c ****     /* update return status */
ARM GAS  /tmp/ccHphArz.s 			page 38


 780:Drivers/STM32L4xx_HAL_Driver/Src/stm32l4xx_hal_sram.c ****     status =  HAL_ERROR;
 781:Drivers/STM32L4xx_HAL_Driver/Src/stm32l4xx_hal_sram.c ****   }
 782:Drivers/STM32L4xx_HAL_Driver/Src/stm32l4xx_hal_sram.c **** 
 783:Drivers/STM32L4xx_HAL_Driver/Src/stm32l4xx_hal_sram.c ****   return status;
 784:Drivers/STM32L4xx_HAL_Driver/Src/stm32l4xx_hal_sram.c **** }
 785:Drivers/STM32L4xx_HAL_Driver/Src/stm32l4xx_hal_sram.c **** 
 786:Drivers/STM32L4xx_HAL_Driver/Src/stm32l4xx_hal_sram.c **** /**
 787:Drivers/STM32L4xx_HAL_Driver/Src/stm32l4xx_hal_sram.c ****   * @brief  Unregister a User SRAM Callback
 788:Drivers/STM32L4xx_HAL_Driver/Src/stm32l4xx_hal_sram.c ****   *         SRAM Callback is redirected to the weak predefined callback
 789:Drivers/STM32L4xx_HAL_Driver/Src/stm32l4xx_hal_sram.c ****   * @param hsram : SRAM handle
 790:Drivers/STM32L4xx_HAL_Driver/Src/stm32l4xx_hal_sram.c ****   * @param CallbackId : ID of the callback to be unregistered
 791:Drivers/STM32L4xx_HAL_Driver/Src/stm32l4xx_hal_sram.c ****   *        This parameter can be one of the following values:
 792:Drivers/STM32L4xx_HAL_Driver/Src/stm32l4xx_hal_sram.c ****   *          @arg @ref HAL_SRAM_MSP_INIT_CB_ID       SRAM MspInit callback ID
 793:Drivers/STM32L4xx_HAL_Driver/Src/stm32l4xx_hal_sram.c ****   *          @arg @ref HAL_SRAM_MSP_DEINIT_CB_ID     SRAM MspDeInit callback ID
 794:Drivers/STM32L4xx_HAL_Driver/Src/stm32l4xx_hal_sram.c ****   *          @arg @ref HAL_SRAM_DMA_XFER_CPLT_CB_ID  SRAM DMA Xfer Complete callback ID
 795:Drivers/STM32L4xx_HAL_Driver/Src/stm32l4xx_hal_sram.c ****   *          @arg @ref HAL_SRAM_DMA_XFER_ERR_CB_ID   SRAM DMA Xfer Error callback ID
 796:Drivers/STM32L4xx_HAL_Driver/Src/stm32l4xx_hal_sram.c ****   * @retval status
 797:Drivers/STM32L4xx_HAL_Driver/Src/stm32l4xx_hal_sram.c ****   */
 798:Drivers/STM32L4xx_HAL_Driver/Src/stm32l4xx_hal_sram.c **** HAL_StatusTypeDef HAL_SRAM_UnRegisterCallback(SRAM_HandleTypeDef *hsram, HAL_SRAM_CallbackIDTypeDef
 799:Drivers/STM32L4xx_HAL_Driver/Src/stm32l4xx_hal_sram.c **** {
 800:Drivers/STM32L4xx_HAL_Driver/Src/stm32l4xx_hal_sram.c ****   HAL_StatusTypeDef status = HAL_OK;
 801:Drivers/STM32L4xx_HAL_Driver/Src/stm32l4xx_hal_sram.c ****   HAL_SRAM_StateTypeDef state;
 802:Drivers/STM32L4xx_HAL_Driver/Src/stm32l4xx_hal_sram.c **** 
 803:Drivers/STM32L4xx_HAL_Driver/Src/stm32l4xx_hal_sram.c ****   state = hsram->State;
 804:Drivers/STM32L4xx_HAL_Driver/Src/stm32l4xx_hal_sram.c ****   if ((state == HAL_SRAM_STATE_READY) || (state == HAL_SRAM_STATE_PROTECTED))
 805:Drivers/STM32L4xx_HAL_Driver/Src/stm32l4xx_hal_sram.c ****   {
 806:Drivers/STM32L4xx_HAL_Driver/Src/stm32l4xx_hal_sram.c ****     switch (CallbackId)
 807:Drivers/STM32L4xx_HAL_Driver/Src/stm32l4xx_hal_sram.c ****     {
 808:Drivers/STM32L4xx_HAL_Driver/Src/stm32l4xx_hal_sram.c ****       case HAL_SRAM_MSP_INIT_CB_ID :
 809:Drivers/STM32L4xx_HAL_Driver/Src/stm32l4xx_hal_sram.c ****         hsram->MspInitCallback = HAL_SRAM_MspInit;
 810:Drivers/STM32L4xx_HAL_Driver/Src/stm32l4xx_hal_sram.c ****         break;
 811:Drivers/STM32L4xx_HAL_Driver/Src/stm32l4xx_hal_sram.c ****       case HAL_SRAM_MSP_DEINIT_CB_ID :
 812:Drivers/STM32L4xx_HAL_Driver/Src/stm32l4xx_hal_sram.c ****         hsram->MspDeInitCallback = HAL_SRAM_MspDeInit;
 813:Drivers/STM32L4xx_HAL_Driver/Src/stm32l4xx_hal_sram.c ****         break;
 814:Drivers/STM32L4xx_HAL_Driver/Src/stm32l4xx_hal_sram.c ****       case HAL_SRAM_DMA_XFER_CPLT_CB_ID :
 815:Drivers/STM32L4xx_HAL_Driver/Src/stm32l4xx_hal_sram.c ****         hsram->DmaXferCpltCallback = HAL_SRAM_DMA_XferCpltCallback;
 816:Drivers/STM32L4xx_HAL_Driver/Src/stm32l4xx_hal_sram.c ****         break;
 817:Drivers/STM32L4xx_HAL_Driver/Src/stm32l4xx_hal_sram.c ****       case HAL_SRAM_DMA_XFER_ERR_CB_ID :
 818:Drivers/STM32L4xx_HAL_Driver/Src/stm32l4xx_hal_sram.c ****         hsram->DmaXferErrorCallback = HAL_SRAM_DMA_XferErrorCallback;
 819:Drivers/STM32L4xx_HAL_Driver/Src/stm32l4xx_hal_sram.c ****         break;
 820:Drivers/STM32L4xx_HAL_Driver/Src/stm32l4xx_hal_sram.c ****       default :
 821:Drivers/STM32L4xx_HAL_Driver/Src/stm32l4xx_hal_sram.c ****         /* update return status */
 822:Drivers/STM32L4xx_HAL_Driver/Src/stm32l4xx_hal_sram.c ****         status =  HAL_ERROR;
 823:Drivers/STM32L4xx_HAL_Driver/Src/stm32l4xx_hal_sram.c ****         break;
 824:Drivers/STM32L4xx_HAL_Driver/Src/stm32l4xx_hal_sram.c ****     }
 825:Drivers/STM32L4xx_HAL_Driver/Src/stm32l4xx_hal_sram.c ****   }
 826:Drivers/STM32L4xx_HAL_Driver/Src/stm32l4xx_hal_sram.c ****   else if (state == HAL_SRAM_STATE_RESET)
 827:Drivers/STM32L4xx_HAL_Driver/Src/stm32l4xx_hal_sram.c ****   {
 828:Drivers/STM32L4xx_HAL_Driver/Src/stm32l4xx_hal_sram.c ****     switch (CallbackId)
 829:Drivers/STM32L4xx_HAL_Driver/Src/stm32l4xx_hal_sram.c ****     {
 830:Drivers/STM32L4xx_HAL_Driver/Src/stm32l4xx_hal_sram.c ****       case HAL_SRAM_MSP_INIT_CB_ID :
 831:Drivers/STM32L4xx_HAL_Driver/Src/stm32l4xx_hal_sram.c ****         hsram->MspInitCallback = HAL_SRAM_MspInit;
 832:Drivers/STM32L4xx_HAL_Driver/Src/stm32l4xx_hal_sram.c ****         break;
 833:Drivers/STM32L4xx_HAL_Driver/Src/stm32l4xx_hal_sram.c ****       case HAL_SRAM_MSP_DEINIT_CB_ID :
 834:Drivers/STM32L4xx_HAL_Driver/Src/stm32l4xx_hal_sram.c ****         hsram->MspDeInitCallback = HAL_SRAM_MspDeInit;
 835:Drivers/STM32L4xx_HAL_Driver/Src/stm32l4xx_hal_sram.c ****         break;
 836:Drivers/STM32L4xx_HAL_Driver/Src/stm32l4xx_hal_sram.c ****       default :
ARM GAS  /tmp/ccHphArz.s 			page 39


 837:Drivers/STM32L4xx_HAL_Driver/Src/stm32l4xx_hal_sram.c ****         /* update return status */
 838:Drivers/STM32L4xx_HAL_Driver/Src/stm32l4xx_hal_sram.c ****         status =  HAL_ERROR;
 839:Drivers/STM32L4xx_HAL_Driver/Src/stm32l4xx_hal_sram.c ****         break;
 840:Drivers/STM32L4xx_HAL_Driver/Src/stm32l4xx_hal_sram.c ****     }
 841:Drivers/STM32L4xx_HAL_Driver/Src/stm32l4xx_hal_sram.c ****   }
 842:Drivers/STM32L4xx_HAL_Driver/Src/stm32l4xx_hal_sram.c ****   else
 843:Drivers/STM32L4xx_HAL_Driver/Src/stm32l4xx_hal_sram.c ****   {
 844:Drivers/STM32L4xx_HAL_Driver/Src/stm32l4xx_hal_sram.c ****     /* update return status */
 845:Drivers/STM32L4xx_HAL_Driver/Src/stm32l4xx_hal_sram.c ****     status =  HAL_ERROR;
 846:Drivers/STM32L4xx_HAL_Driver/Src/stm32l4xx_hal_sram.c ****   }
 847:Drivers/STM32L4xx_HAL_Driver/Src/stm32l4xx_hal_sram.c **** 
 848:Drivers/STM32L4xx_HAL_Driver/Src/stm32l4xx_hal_sram.c ****   return status;
 849:Drivers/STM32L4xx_HAL_Driver/Src/stm32l4xx_hal_sram.c **** }
 850:Drivers/STM32L4xx_HAL_Driver/Src/stm32l4xx_hal_sram.c **** 
 851:Drivers/STM32L4xx_HAL_Driver/Src/stm32l4xx_hal_sram.c **** /**
 852:Drivers/STM32L4xx_HAL_Driver/Src/stm32l4xx_hal_sram.c ****   * @brief  Register a User SRAM Callback for DMA transfers
 853:Drivers/STM32L4xx_HAL_Driver/Src/stm32l4xx_hal_sram.c ****   *         To be used to override the weak predefined callback
 854:Drivers/STM32L4xx_HAL_Driver/Src/stm32l4xx_hal_sram.c ****   * @param hsram : SRAM handle
 855:Drivers/STM32L4xx_HAL_Driver/Src/stm32l4xx_hal_sram.c ****   * @param CallbackId : ID of the callback to be registered
 856:Drivers/STM32L4xx_HAL_Driver/Src/stm32l4xx_hal_sram.c ****   *        This parameter can be one of the following values:
 857:Drivers/STM32L4xx_HAL_Driver/Src/stm32l4xx_hal_sram.c ****   *          @arg @ref HAL_SRAM_DMA_XFER_CPLT_CB_ID  SRAM DMA Xfer Complete callback ID
 858:Drivers/STM32L4xx_HAL_Driver/Src/stm32l4xx_hal_sram.c ****   *          @arg @ref HAL_SRAM_DMA_XFER_ERR_CB_ID   SRAM DMA Xfer Error callback ID
 859:Drivers/STM32L4xx_HAL_Driver/Src/stm32l4xx_hal_sram.c ****   * @param pCallback : pointer to the Callback function
 860:Drivers/STM32L4xx_HAL_Driver/Src/stm32l4xx_hal_sram.c ****   * @retval status
 861:Drivers/STM32L4xx_HAL_Driver/Src/stm32l4xx_hal_sram.c ****   */
 862:Drivers/STM32L4xx_HAL_Driver/Src/stm32l4xx_hal_sram.c **** HAL_StatusTypeDef HAL_SRAM_RegisterDmaCallback(SRAM_HandleTypeDef *hsram, HAL_SRAM_CallbackIDTypeDe
 863:Drivers/STM32L4xx_HAL_Driver/Src/stm32l4xx_hal_sram.c ****                                                pSRAM_DmaCallbackTypeDef pCallback)
 864:Drivers/STM32L4xx_HAL_Driver/Src/stm32l4xx_hal_sram.c **** {
 865:Drivers/STM32L4xx_HAL_Driver/Src/stm32l4xx_hal_sram.c ****   HAL_StatusTypeDef status = HAL_OK;
 866:Drivers/STM32L4xx_HAL_Driver/Src/stm32l4xx_hal_sram.c ****   HAL_SRAM_StateTypeDef state;
 867:Drivers/STM32L4xx_HAL_Driver/Src/stm32l4xx_hal_sram.c **** 
 868:Drivers/STM32L4xx_HAL_Driver/Src/stm32l4xx_hal_sram.c ****   if (pCallback == NULL)
 869:Drivers/STM32L4xx_HAL_Driver/Src/stm32l4xx_hal_sram.c ****   {
 870:Drivers/STM32L4xx_HAL_Driver/Src/stm32l4xx_hal_sram.c ****     return HAL_ERROR;
 871:Drivers/STM32L4xx_HAL_Driver/Src/stm32l4xx_hal_sram.c ****   }
 872:Drivers/STM32L4xx_HAL_Driver/Src/stm32l4xx_hal_sram.c **** 
 873:Drivers/STM32L4xx_HAL_Driver/Src/stm32l4xx_hal_sram.c ****   /* Process locked */
 874:Drivers/STM32L4xx_HAL_Driver/Src/stm32l4xx_hal_sram.c ****   __HAL_LOCK(hsram);
 875:Drivers/STM32L4xx_HAL_Driver/Src/stm32l4xx_hal_sram.c **** 
 876:Drivers/STM32L4xx_HAL_Driver/Src/stm32l4xx_hal_sram.c ****   state = hsram->State;
 877:Drivers/STM32L4xx_HAL_Driver/Src/stm32l4xx_hal_sram.c ****   if ((state == HAL_SRAM_STATE_READY) || (state == HAL_SRAM_STATE_PROTECTED))
 878:Drivers/STM32L4xx_HAL_Driver/Src/stm32l4xx_hal_sram.c ****   {
 879:Drivers/STM32L4xx_HAL_Driver/Src/stm32l4xx_hal_sram.c ****     switch (CallbackId)
 880:Drivers/STM32L4xx_HAL_Driver/Src/stm32l4xx_hal_sram.c ****     {
 881:Drivers/STM32L4xx_HAL_Driver/Src/stm32l4xx_hal_sram.c ****       case HAL_SRAM_DMA_XFER_CPLT_CB_ID :
 882:Drivers/STM32L4xx_HAL_Driver/Src/stm32l4xx_hal_sram.c ****         hsram->DmaXferCpltCallback = pCallback;
 883:Drivers/STM32L4xx_HAL_Driver/Src/stm32l4xx_hal_sram.c ****         break;
 884:Drivers/STM32L4xx_HAL_Driver/Src/stm32l4xx_hal_sram.c ****       case HAL_SRAM_DMA_XFER_ERR_CB_ID :
 885:Drivers/STM32L4xx_HAL_Driver/Src/stm32l4xx_hal_sram.c ****         hsram->DmaXferErrorCallback = pCallback;
 886:Drivers/STM32L4xx_HAL_Driver/Src/stm32l4xx_hal_sram.c ****         break;
 887:Drivers/STM32L4xx_HAL_Driver/Src/stm32l4xx_hal_sram.c ****       default :
 888:Drivers/STM32L4xx_HAL_Driver/Src/stm32l4xx_hal_sram.c ****         /* update return status */
 889:Drivers/STM32L4xx_HAL_Driver/Src/stm32l4xx_hal_sram.c ****         status =  HAL_ERROR;
 890:Drivers/STM32L4xx_HAL_Driver/Src/stm32l4xx_hal_sram.c ****         break;
 891:Drivers/STM32L4xx_HAL_Driver/Src/stm32l4xx_hal_sram.c ****     }
 892:Drivers/STM32L4xx_HAL_Driver/Src/stm32l4xx_hal_sram.c ****   }
 893:Drivers/STM32L4xx_HAL_Driver/Src/stm32l4xx_hal_sram.c ****   else
ARM GAS  /tmp/ccHphArz.s 			page 40


 894:Drivers/STM32L4xx_HAL_Driver/Src/stm32l4xx_hal_sram.c ****   {
 895:Drivers/STM32L4xx_HAL_Driver/Src/stm32l4xx_hal_sram.c ****     /* update return status */
 896:Drivers/STM32L4xx_HAL_Driver/Src/stm32l4xx_hal_sram.c ****     status =  HAL_ERROR;
 897:Drivers/STM32L4xx_HAL_Driver/Src/stm32l4xx_hal_sram.c ****   }
 898:Drivers/STM32L4xx_HAL_Driver/Src/stm32l4xx_hal_sram.c **** 
 899:Drivers/STM32L4xx_HAL_Driver/Src/stm32l4xx_hal_sram.c ****   /* Release Lock */
 900:Drivers/STM32L4xx_HAL_Driver/Src/stm32l4xx_hal_sram.c ****   __HAL_UNLOCK(hsram);
 901:Drivers/STM32L4xx_HAL_Driver/Src/stm32l4xx_hal_sram.c ****   return status;
 902:Drivers/STM32L4xx_HAL_Driver/Src/stm32l4xx_hal_sram.c **** }
 903:Drivers/STM32L4xx_HAL_Driver/Src/stm32l4xx_hal_sram.c **** #endif /* USE_HAL_SRAM_REGISTER_CALLBACKS */
 904:Drivers/STM32L4xx_HAL_Driver/Src/stm32l4xx_hal_sram.c **** 
 905:Drivers/STM32L4xx_HAL_Driver/Src/stm32l4xx_hal_sram.c **** /**
 906:Drivers/STM32L4xx_HAL_Driver/Src/stm32l4xx_hal_sram.c ****   * @}
 907:Drivers/STM32L4xx_HAL_Driver/Src/stm32l4xx_hal_sram.c ****   */
 908:Drivers/STM32L4xx_HAL_Driver/Src/stm32l4xx_hal_sram.c **** 
 909:Drivers/STM32L4xx_HAL_Driver/Src/stm32l4xx_hal_sram.c **** /** @defgroup SRAM_Exported_Functions_Group3 Control functions
 910:Drivers/STM32L4xx_HAL_Driver/Src/stm32l4xx_hal_sram.c ****   *  @brief   Control functions
 911:Drivers/STM32L4xx_HAL_Driver/Src/stm32l4xx_hal_sram.c ****   *
 912:Drivers/STM32L4xx_HAL_Driver/Src/stm32l4xx_hal_sram.c **** @verbatim
 913:Drivers/STM32L4xx_HAL_Driver/Src/stm32l4xx_hal_sram.c ****   ==============================================================================
 914:Drivers/STM32L4xx_HAL_Driver/Src/stm32l4xx_hal_sram.c ****                         ##### SRAM Control functions #####
 915:Drivers/STM32L4xx_HAL_Driver/Src/stm32l4xx_hal_sram.c ****   ==============================================================================
 916:Drivers/STM32L4xx_HAL_Driver/Src/stm32l4xx_hal_sram.c ****   [..]
 917:Drivers/STM32L4xx_HAL_Driver/Src/stm32l4xx_hal_sram.c ****     This subsection provides a set of functions allowing to control dynamically
 918:Drivers/STM32L4xx_HAL_Driver/Src/stm32l4xx_hal_sram.c ****     the SRAM interface.
 919:Drivers/STM32L4xx_HAL_Driver/Src/stm32l4xx_hal_sram.c **** 
 920:Drivers/STM32L4xx_HAL_Driver/Src/stm32l4xx_hal_sram.c **** @endverbatim
 921:Drivers/STM32L4xx_HAL_Driver/Src/stm32l4xx_hal_sram.c ****   * @{
 922:Drivers/STM32L4xx_HAL_Driver/Src/stm32l4xx_hal_sram.c ****   */
 923:Drivers/STM32L4xx_HAL_Driver/Src/stm32l4xx_hal_sram.c **** 
 924:Drivers/STM32L4xx_HAL_Driver/Src/stm32l4xx_hal_sram.c **** /**
 925:Drivers/STM32L4xx_HAL_Driver/Src/stm32l4xx_hal_sram.c ****   * @brief  Enables dynamically SRAM write operation.
 926:Drivers/STM32L4xx_HAL_Driver/Src/stm32l4xx_hal_sram.c ****   * @param  hsram pointer to a SRAM_HandleTypeDef structure that contains
 927:Drivers/STM32L4xx_HAL_Driver/Src/stm32l4xx_hal_sram.c ****   *                the configuration information for SRAM module.
 928:Drivers/STM32L4xx_HAL_Driver/Src/stm32l4xx_hal_sram.c ****   * @retval HAL status
 929:Drivers/STM32L4xx_HAL_Driver/Src/stm32l4xx_hal_sram.c ****   */
 930:Drivers/STM32L4xx_HAL_Driver/Src/stm32l4xx_hal_sram.c **** HAL_StatusTypeDef HAL_SRAM_WriteOperation_Enable(SRAM_HandleTypeDef *hsram)
 931:Drivers/STM32L4xx_HAL_Driver/Src/stm32l4xx_hal_sram.c **** {
 1343              		.loc 1 931 1
 1344              		.cfi_startproc
 1345              		@ args = 0, pretend = 0, frame = 8
 1346              		@ frame_needed = 1, uses_anonymous_args = 0
 1347 0000 80B5     		push	{r7, lr}
 1348              		.cfi_def_cfa_offset 8
 1349              		.cfi_offset 7, -8
 1350              		.cfi_offset 14, -4
 1351 0002 82B0     		sub	sp, sp, #8
 1352              		.cfi_def_cfa_offset 16
 1353 0004 00AF     		add	r7, sp, #0
 1354              		.cfi_def_cfa_register 7
 1355 0006 7860     		str	r0, [r7, #4]
 932:Drivers/STM32L4xx_HAL_Driver/Src/stm32l4xx_hal_sram.c ****   /* Check the SRAM controller state */
 933:Drivers/STM32L4xx_HAL_Driver/Src/stm32l4xx_hal_sram.c ****   if (hsram->State == HAL_SRAM_STATE_PROTECTED)
 1356              		.loc 1 933 12
 1357 0008 7B68     		ldr	r3, [r7, #4]
 1358 000a 93F84930 		ldrb	r3, [r3, #73]
 1359 000e DBB2     		uxtb	r3, r3
ARM GAS  /tmp/ccHphArz.s 			page 41


 1360              		.loc 1 933 6
 1361 0010 042B     		cmp	r3, #4
 1362 0012 20D1     		bne	.L73
 934:Drivers/STM32L4xx_HAL_Driver/Src/stm32l4xx_hal_sram.c ****   {
 935:Drivers/STM32L4xx_HAL_Driver/Src/stm32l4xx_hal_sram.c ****     /* Process Locked */
 936:Drivers/STM32L4xx_HAL_Driver/Src/stm32l4xx_hal_sram.c ****     __HAL_LOCK(hsram);
 1363              		.loc 1 936 5
 1364 0014 7B68     		ldr	r3, [r7, #4]
 1365 0016 93F84830 		ldrb	r3, [r3, #72]	@ zero_extendqisi2
 1366 001a 012B     		cmp	r3, #1
 1367 001c 01D1     		bne	.L74
 1368              		.loc 1 936 5 is_stmt 0 discriminator 1
 1369 001e 0223     		movs	r3, #2
 1370              		.loc 1 936 5
 1371 0020 1AE0     		b	.L75
 1372              	.L74:
 1373              		.loc 1 936 5 discriminator 2
 1374 0022 7B68     		ldr	r3, [r7, #4]
 1375 0024 0122     		movs	r2, #1
 1376 0026 83F84820 		strb	r2, [r3, #72]
 937:Drivers/STM32L4xx_HAL_Driver/Src/stm32l4xx_hal_sram.c **** 
 938:Drivers/STM32L4xx_HAL_Driver/Src/stm32l4xx_hal_sram.c ****     /* Update the SRAM controller state */
 939:Drivers/STM32L4xx_HAL_Driver/Src/stm32l4xx_hal_sram.c ****     hsram->State = HAL_SRAM_STATE_BUSY;
 1377              		.loc 1 939 18 is_stmt 1
 1378 002a 7B68     		ldr	r3, [r7, #4]
 1379 002c 0222     		movs	r2, #2
 1380 002e 83F84920 		strb	r2, [r3, #73]
 940:Drivers/STM32L4xx_HAL_Driver/Src/stm32l4xx_hal_sram.c **** 
 941:Drivers/STM32L4xx_HAL_Driver/Src/stm32l4xx_hal_sram.c ****     /* Enable write operation */
 942:Drivers/STM32L4xx_HAL_Driver/Src/stm32l4xx_hal_sram.c ****     (void)FMC_NORSRAM_WriteOperation_Enable(hsram->Instance, hsram->Init.NSBank);
 1381              		.loc 1 942 11
 1382 0032 7B68     		ldr	r3, [r7, #4]
 1383 0034 1A68     		ldr	r2, [r3]
 1384 0036 7B68     		ldr	r3, [r7, #4]
 1385 0038 9B68     		ldr	r3, [r3, #8]
 1386 003a 1946     		mov	r1, r3
 1387 003c 1046     		mov	r0, r2
 1388 003e FFF7FEFF 		bl	FMC_NORSRAM_WriteOperation_Enable
 943:Drivers/STM32L4xx_HAL_Driver/Src/stm32l4xx_hal_sram.c **** 
 944:Drivers/STM32L4xx_HAL_Driver/Src/stm32l4xx_hal_sram.c ****     /* Update the SRAM controller state */
 945:Drivers/STM32L4xx_HAL_Driver/Src/stm32l4xx_hal_sram.c ****     hsram->State = HAL_SRAM_STATE_READY;
 1389              		.loc 1 945 18
 1390 0042 7B68     		ldr	r3, [r7, #4]
 1391 0044 0122     		movs	r2, #1
 1392 0046 83F84920 		strb	r2, [r3, #73]
 946:Drivers/STM32L4xx_HAL_Driver/Src/stm32l4xx_hal_sram.c **** 
 947:Drivers/STM32L4xx_HAL_Driver/Src/stm32l4xx_hal_sram.c ****     /* Process unlocked */
 948:Drivers/STM32L4xx_HAL_Driver/Src/stm32l4xx_hal_sram.c ****     __HAL_UNLOCK(hsram);
 1393              		.loc 1 948 5
 1394 004a 7B68     		ldr	r3, [r7, #4]
 1395 004c 0022     		movs	r2, #0
 1396 004e 83F84820 		strb	r2, [r3, #72]
 949:Drivers/STM32L4xx_HAL_Driver/Src/stm32l4xx_hal_sram.c ****   }
 950:Drivers/STM32L4xx_HAL_Driver/Src/stm32l4xx_hal_sram.c ****   else
 951:Drivers/STM32L4xx_HAL_Driver/Src/stm32l4xx_hal_sram.c ****   {
 952:Drivers/STM32L4xx_HAL_Driver/Src/stm32l4xx_hal_sram.c ****     return HAL_ERROR;
 953:Drivers/STM32L4xx_HAL_Driver/Src/stm32l4xx_hal_sram.c ****   }
ARM GAS  /tmp/ccHphArz.s 			page 42


 954:Drivers/STM32L4xx_HAL_Driver/Src/stm32l4xx_hal_sram.c **** 
 955:Drivers/STM32L4xx_HAL_Driver/Src/stm32l4xx_hal_sram.c ****   return HAL_OK;
 1397              		.loc 1 955 10
 1398 0052 0023     		movs	r3, #0
 1399 0054 00E0     		b	.L75
 1400              	.L73:
 952:Drivers/STM32L4xx_HAL_Driver/Src/stm32l4xx_hal_sram.c ****   }
 1401              		.loc 1 952 12
 1402 0056 0123     		movs	r3, #1
 1403              	.L75:
 956:Drivers/STM32L4xx_HAL_Driver/Src/stm32l4xx_hal_sram.c **** }
 1404              		.loc 1 956 1
 1405 0058 1846     		mov	r0, r3
 1406 005a 0837     		adds	r7, r7, #8
 1407              		.cfi_def_cfa_offset 8
 1408 005c BD46     		mov	sp, r7
 1409              		.cfi_def_cfa_register 13
 1410              		@ sp needed
 1411 005e 80BD     		pop	{r7, pc}
 1412              		.cfi_endproc
 1413              	.LFE459:
 1415              		.section	.text.HAL_SRAM_WriteOperation_Disable,"ax",%progbits
 1416              		.align	1
 1417              		.global	HAL_SRAM_WriteOperation_Disable
 1418              		.syntax unified
 1419              		.thumb
 1420              		.thumb_func
 1422              	HAL_SRAM_WriteOperation_Disable:
 1423              	.LFB460:
 957:Drivers/STM32L4xx_HAL_Driver/Src/stm32l4xx_hal_sram.c **** 
 958:Drivers/STM32L4xx_HAL_Driver/Src/stm32l4xx_hal_sram.c **** /**
 959:Drivers/STM32L4xx_HAL_Driver/Src/stm32l4xx_hal_sram.c ****   * @brief  Disables dynamically SRAM write operation.
 960:Drivers/STM32L4xx_HAL_Driver/Src/stm32l4xx_hal_sram.c ****   * @param  hsram pointer to a SRAM_HandleTypeDef structure that contains
 961:Drivers/STM32L4xx_HAL_Driver/Src/stm32l4xx_hal_sram.c ****   *                the configuration information for SRAM module.
 962:Drivers/STM32L4xx_HAL_Driver/Src/stm32l4xx_hal_sram.c ****   * @retval HAL status
 963:Drivers/STM32L4xx_HAL_Driver/Src/stm32l4xx_hal_sram.c ****   */
 964:Drivers/STM32L4xx_HAL_Driver/Src/stm32l4xx_hal_sram.c **** HAL_StatusTypeDef HAL_SRAM_WriteOperation_Disable(SRAM_HandleTypeDef *hsram)
 965:Drivers/STM32L4xx_HAL_Driver/Src/stm32l4xx_hal_sram.c **** {
 1424              		.loc 1 965 1
 1425              		.cfi_startproc
 1426              		@ args = 0, pretend = 0, frame = 8
 1427              		@ frame_needed = 1, uses_anonymous_args = 0
 1428 0000 80B5     		push	{r7, lr}
 1429              		.cfi_def_cfa_offset 8
 1430              		.cfi_offset 7, -8
 1431              		.cfi_offset 14, -4
 1432 0002 82B0     		sub	sp, sp, #8
 1433              		.cfi_def_cfa_offset 16
 1434 0004 00AF     		add	r7, sp, #0
 1435              		.cfi_def_cfa_register 7
 1436 0006 7860     		str	r0, [r7, #4]
 966:Drivers/STM32L4xx_HAL_Driver/Src/stm32l4xx_hal_sram.c ****   /* Check the SRAM controller state */
 967:Drivers/STM32L4xx_HAL_Driver/Src/stm32l4xx_hal_sram.c ****   if (hsram->State == HAL_SRAM_STATE_READY)
 1437              		.loc 1 967 12
 1438 0008 7B68     		ldr	r3, [r7, #4]
 1439 000a 93F84930 		ldrb	r3, [r3, #73]
 1440 000e DBB2     		uxtb	r3, r3
ARM GAS  /tmp/ccHphArz.s 			page 43


 1441              		.loc 1 967 6
 1442 0010 012B     		cmp	r3, #1
 1443 0012 20D1     		bne	.L78
 968:Drivers/STM32L4xx_HAL_Driver/Src/stm32l4xx_hal_sram.c ****   {
 969:Drivers/STM32L4xx_HAL_Driver/Src/stm32l4xx_hal_sram.c ****     /* Process Locked */
 970:Drivers/STM32L4xx_HAL_Driver/Src/stm32l4xx_hal_sram.c ****     __HAL_LOCK(hsram);
 1444              		.loc 1 970 5
 1445 0014 7B68     		ldr	r3, [r7, #4]
 1446 0016 93F84830 		ldrb	r3, [r3, #72]	@ zero_extendqisi2
 1447 001a 012B     		cmp	r3, #1
 1448 001c 01D1     		bne	.L79
 1449              		.loc 1 970 5 is_stmt 0 discriminator 1
 1450 001e 0223     		movs	r3, #2
 1451              		.loc 1 970 5
 1452 0020 1AE0     		b	.L80
 1453              	.L79:
 1454              		.loc 1 970 5 discriminator 2
 1455 0022 7B68     		ldr	r3, [r7, #4]
 1456 0024 0122     		movs	r2, #1
 1457 0026 83F84820 		strb	r2, [r3, #72]
 971:Drivers/STM32L4xx_HAL_Driver/Src/stm32l4xx_hal_sram.c **** 
 972:Drivers/STM32L4xx_HAL_Driver/Src/stm32l4xx_hal_sram.c ****     /* Update the SRAM controller state */
 973:Drivers/STM32L4xx_HAL_Driver/Src/stm32l4xx_hal_sram.c ****     hsram->State = HAL_SRAM_STATE_BUSY;
 1458              		.loc 1 973 18 is_stmt 1
 1459 002a 7B68     		ldr	r3, [r7, #4]
 1460 002c 0222     		movs	r2, #2
 1461 002e 83F84920 		strb	r2, [r3, #73]
 974:Drivers/STM32L4xx_HAL_Driver/Src/stm32l4xx_hal_sram.c **** 
 975:Drivers/STM32L4xx_HAL_Driver/Src/stm32l4xx_hal_sram.c ****     /* Disable write operation */
 976:Drivers/STM32L4xx_HAL_Driver/Src/stm32l4xx_hal_sram.c ****     (void)FMC_NORSRAM_WriteOperation_Disable(hsram->Instance, hsram->Init.NSBank);
 1462              		.loc 1 976 11
 1463 0032 7B68     		ldr	r3, [r7, #4]
 1464 0034 1A68     		ldr	r2, [r3]
 1465 0036 7B68     		ldr	r3, [r7, #4]
 1466 0038 9B68     		ldr	r3, [r3, #8]
 1467 003a 1946     		mov	r1, r3
 1468 003c 1046     		mov	r0, r2
 1469 003e FFF7FEFF 		bl	FMC_NORSRAM_WriteOperation_Disable
 977:Drivers/STM32L4xx_HAL_Driver/Src/stm32l4xx_hal_sram.c **** 
 978:Drivers/STM32L4xx_HAL_Driver/Src/stm32l4xx_hal_sram.c ****     /* Update the SRAM controller state */
 979:Drivers/STM32L4xx_HAL_Driver/Src/stm32l4xx_hal_sram.c ****     hsram->State = HAL_SRAM_STATE_PROTECTED;
 1470              		.loc 1 979 18
 1471 0042 7B68     		ldr	r3, [r7, #4]
 1472 0044 0422     		movs	r2, #4
 1473 0046 83F84920 		strb	r2, [r3, #73]
 980:Drivers/STM32L4xx_HAL_Driver/Src/stm32l4xx_hal_sram.c **** 
 981:Drivers/STM32L4xx_HAL_Driver/Src/stm32l4xx_hal_sram.c ****     /* Process unlocked */
 982:Drivers/STM32L4xx_HAL_Driver/Src/stm32l4xx_hal_sram.c ****     __HAL_UNLOCK(hsram);
 1474              		.loc 1 982 5
 1475 004a 7B68     		ldr	r3, [r7, #4]
 1476 004c 0022     		movs	r2, #0
 1477 004e 83F84820 		strb	r2, [r3, #72]
 983:Drivers/STM32L4xx_HAL_Driver/Src/stm32l4xx_hal_sram.c ****   }
 984:Drivers/STM32L4xx_HAL_Driver/Src/stm32l4xx_hal_sram.c ****   else
 985:Drivers/STM32L4xx_HAL_Driver/Src/stm32l4xx_hal_sram.c ****   {
 986:Drivers/STM32L4xx_HAL_Driver/Src/stm32l4xx_hal_sram.c ****     return HAL_ERROR;
 987:Drivers/STM32L4xx_HAL_Driver/Src/stm32l4xx_hal_sram.c ****   }
ARM GAS  /tmp/ccHphArz.s 			page 44


 988:Drivers/STM32L4xx_HAL_Driver/Src/stm32l4xx_hal_sram.c **** 
 989:Drivers/STM32L4xx_HAL_Driver/Src/stm32l4xx_hal_sram.c ****   return HAL_OK;
 1478              		.loc 1 989 10
 1479 0052 0023     		movs	r3, #0
 1480 0054 00E0     		b	.L80
 1481              	.L78:
 986:Drivers/STM32L4xx_HAL_Driver/Src/stm32l4xx_hal_sram.c ****   }
 1482              		.loc 1 986 12
 1483 0056 0123     		movs	r3, #1
 1484              	.L80:
 990:Drivers/STM32L4xx_HAL_Driver/Src/stm32l4xx_hal_sram.c **** }
 1485              		.loc 1 990 1
 1486 0058 1846     		mov	r0, r3
 1487 005a 0837     		adds	r7, r7, #8
 1488              		.cfi_def_cfa_offset 8
 1489 005c BD46     		mov	sp, r7
 1490              		.cfi_def_cfa_register 13
 1491              		@ sp needed
 1492 005e 80BD     		pop	{r7, pc}
 1493              		.cfi_endproc
 1494              	.LFE460:
 1496              		.section	.text.HAL_SRAM_GetState,"ax",%progbits
 1497              		.align	1
 1498              		.global	HAL_SRAM_GetState
 1499              		.syntax unified
 1500              		.thumb
 1501              		.thumb_func
 1503              	HAL_SRAM_GetState:
 1504              	.LFB461:
 991:Drivers/STM32L4xx_HAL_Driver/Src/stm32l4xx_hal_sram.c **** 
 992:Drivers/STM32L4xx_HAL_Driver/Src/stm32l4xx_hal_sram.c **** /**
 993:Drivers/STM32L4xx_HAL_Driver/Src/stm32l4xx_hal_sram.c ****   * @}
 994:Drivers/STM32L4xx_HAL_Driver/Src/stm32l4xx_hal_sram.c ****   */
 995:Drivers/STM32L4xx_HAL_Driver/Src/stm32l4xx_hal_sram.c **** 
 996:Drivers/STM32L4xx_HAL_Driver/Src/stm32l4xx_hal_sram.c **** /** @defgroup SRAM_Exported_Functions_Group4 Peripheral State functions
 997:Drivers/STM32L4xx_HAL_Driver/Src/stm32l4xx_hal_sram.c ****   *  @brief   Peripheral State functions
 998:Drivers/STM32L4xx_HAL_Driver/Src/stm32l4xx_hal_sram.c ****   *
 999:Drivers/STM32L4xx_HAL_Driver/Src/stm32l4xx_hal_sram.c **** @verbatim
1000:Drivers/STM32L4xx_HAL_Driver/Src/stm32l4xx_hal_sram.c ****   ==============================================================================
1001:Drivers/STM32L4xx_HAL_Driver/Src/stm32l4xx_hal_sram.c ****                       ##### SRAM State functions #####
1002:Drivers/STM32L4xx_HAL_Driver/Src/stm32l4xx_hal_sram.c ****   ==============================================================================
1003:Drivers/STM32L4xx_HAL_Driver/Src/stm32l4xx_hal_sram.c ****   [..]
1004:Drivers/STM32L4xx_HAL_Driver/Src/stm32l4xx_hal_sram.c ****     This subsection permits to get in run-time the status of the SRAM controller
1005:Drivers/STM32L4xx_HAL_Driver/Src/stm32l4xx_hal_sram.c ****     and the data flow.
1006:Drivers/STM32L4xx_HAL_Driver/Src/stm32l4xx_hal_sram.c **** 
1007:Drivers/STM32L4xx_HAL_Driver/Src/stm32l4xx_hal_sram.c **** @endverbatim
1008:Drivers/STM32L4xx_HAL_Driver/Src/stm32l4xx_hal_sram.c ****   * @{
1009:Drivers/STM32L4xx_HAL_Driver/Src/stm32l4xx_hal_sram.c ****   */
1010:Drivers/STM32L4xx_HAL_Driver/Src/stm32l4xx_hal_sram.c **** 
1011:Drivers/STM32L4xx_HAL_Driver/Src/stm32l4xx_hal_sram.c **** /**
1012:Drivers/STM32L4xx_HAL_Driver/Src/stm32l4xx_hal_sram.c ****   * @brief  Returns the SRAM controller state
1013:Drivers/STM32L4xx_HAL_Driver/Src/stm32l4xx_hal_sram.c ****   * @param  hsram pointer to a SRAM_HandleTypeDef structure that contains
1014:Drivers/STM32L4xx_HAL_Driver/Src/stm32l4xx_hal_sram.c ****   *                the configuration information for SRAM module.
1015:Drivers/STM32L4xx_HAL_Driver/Src/stm32l4xx_hal_sram.c ****   * @retval HAL state
1016:Drivers/STM32L4xx_HAL_Driver/Src/stm32l4xx_hal_sram.c ****   */
1017:Drivers/STM32L4xx_HAL_Driver/Src/stm32l4xx_hal_sram.c **** HAL_SRAM_StateTypeDef HAL_SRAM_GetState(const SRAM_HandleTypeDef *hsram)
1018:Drivers/STM32L4xx_HAL_Driver/Src/stm32l4xx_hal_sram.c **** {
ARM GAS  /tmp/ccHphArz.s 			page 45


 1505              		.loc 1 1018 1
 1506              		.cfi_startproc
 1507              		@ args = 0, pretend = 0, frame = 8
 1508              		@ frame_needed = 1, uses_anonymous_args = 0
 1509              		@ link register save eliminated.
 1510 0000 80B4     		push	{r7}
 1511              		.cfi_def_cfa_offset 4
 1512              		.cfi_offset 7, -4
 1513 0002 83B0     		sub	sp, sp, #12
 1514              		.cfi_def_cfa_offset 16
 1515 0004 00AF     		add	r7, sp, #0
 1516              		.cfi_def_cfa_register 7
 1517 0006 7860     		str	r0, [r7, #4]
1019:Drivers/STM32L4xx_HAL_Driver/Src/stm32l4xx_hal_sram.c ****   return hsram->State;
 1518              		.loc 1 1019 15
 1519 0008 7B68     		ldr	r3, [r7, #4]
 1520 000a 93F84930 		ldrb	r3, [r3, #73]
 1521 000e DBB2     		uxtb	r3, r3
1020:Drivers/STM32L4xx_HAL_Driver/Src/stm32l4xx_hal_sram.c **** }
 1522              		.loc 1 1020 1
 1523 0010 1846     		mov	r0, r3
 1524 0012 0C37     		adds	r7, r7, #12
 1525              		.cfi_def_cfa_offset 4
 1526 0014 BD46     		mov	sp, r7
 1527              		.cfi_def_cfa_register 13
 1528              		@ sp needed
 1529 0016 5DF8047B 		ldr	r7, [sp], #4
 1530              		.cfi_restore 7
 1531              		.cfi_def_cfa_offset 0
 1532 001a 7047     		bx	lr
 1533              		.cfi_endproc
 1534              	.LFE461:
 1536              		.section	.text.SRAM_DMACplt,"ax",%progbits
 1537              		.align	1
 1538              		.syntax unified
 1539              		.thumb
 1540              		.thumb_func
 1542              	SRAM_DMACplt:
 1543              	.LFB462:
1021:Drivers/STM32L4xx_HAL_Driver/Src/stm32l4xx_hal_sram.c **** 
1022:Drivers/STM32L4xx_HAL_Driver/Src/stm32l4xx_hal_sram.c **** /**
1023:Drivers/STM32L4xx_HAL_Driver/Src/stm32l4xx_hal_sram.c ****   * @}
1024:Drivers/STM32L4xx_HAL_Driver/Src/stm32l4xx_hal_sram.c ****   */
1025:Drivers/STM32L4xx_HAL_Driver/Src/stm32l4xx_hal_sram.c **** 
1026:Drivers/STM32L4xx_HAL_Driver/Src/stm32l4xx_hal_sram.c **** /**
1027:Drivers/STM32L4xx_HAL_Driver/Src/stm32l4xx_hal_sram.c ****   * @}
1028:Drivers/STM32L4xx_HAL_Driver/Src/stm32l4xx_hal_sram.c ****   */
1029:Drivers/STM32L4xx_HAL_Driver/Src/stm32l4xx_hal_sram.c **** 
1030:Drivers/STM32L4xx_HAL_Driver/Src/stm32l4xx_hal_sram.c **** /** @addtogroup SRAM_Private_Functions SRAM Private Functions
1031:Drivers/STM32L4xx_HAL_Driver/Src/stm32l4xx_hal_sram.c ****   * @{
1032:Drivers/STM32L4xx_HAL_Driver/Src/stm32l4xx_hal_sram.c ****   */
1033:Drivers/STM32L4xx_HAL_Driver/Src/stm32l4xx_hal_sram.c **** 
1034:Drivers/STM32L4xx_HAL_Driver/Src/stm32l4xx_hal_sram.c **** /**
1035:Drivers/STM32L4xx_HAL_Driver/Src/stm32l4xx_hal_sram.c ****   * @brief  DMA SRAM process complete callback.
1036:Drivers/STM32L4xx_HAL_Driver/Src/stm32l4xx_hal_sram.c ****   * @param  hdma : DMA handle
1037:Drivers/STM32L4xx_HAL_Driver/Src/stm32l4xx_hal_sram.c ****   * @retval None
1038:Drivers/STM32L4xx_HAL_Driver/Src/stm32l4xx_hal_sram.c ****   */
ARM GAS  /tmp/ccHphArz.s 			page 46


1039:Drivers/STM32L4xx_HAL_Driver/Src/stm32l4xx_hal_sram.c **** static void SRAM_DMACplt(DMA_HandleTypeDef *hdma)
1040:Drivers/STM32L4xx_HAL_Driver/Src/stm32l4xx_hal_sram.c **** {
 1544              		.loc 1 1040 1
 1545              		.cfi_startproc
 1546              		@ args = 0, pretend = 0, frame = 16
 1547              		@ frame_needed = 1, uses_anonymous_args = 0
 1548 0000 80B5     		push	{r7, lr}
 1549              		.cfi_def_cfa_offset 8
 1550              		.cfi_offset 7, -8
 1551              		.cfi_offset 14, -4
 1552 0002 84B0     		sub	sp, sp, #16
 1553              		.cfi_def_cfa_offset 24
 1554 0004 00AF     		add	r7, sp, #0
 1555              		.cfi_def_cfa_register 7
 1556 0006 7860     		str	r0, [r7, #4]
1041:Drivers/STM32L4xx_HAL_Driver/Src/stm32l4xx_hal_sram.c ****   /* Derogation MISRAC2012-Rule-11.5 */
1042:Drivers/STM32L4xx_HAL_Driver/Src/stm32l4xx_hal_sram.c ****   SRAM_HandleTypeDef *hsram = (SRAM_HandleTypeDef *)(hdma->Parent);
 1557              		.loc 1 1042 23
 1558 0008 7B68     		ldr	r3, [r7, #4]
 1559 000a 9B6A     		ldr	r3, [r3, #40]
 1560 000c FB60     		str	r3, [r7, #12]
1043:Drivers/STM32L4xx_HAL_Driver/Src/stm32l4xx_hal_sram.c **** 
1044:Drivers/STM32L4xx_HAL_Driver/Src/stm32l4xx_hal_sram.c ****   /* Disable the DMA channel */
1045:Drivers/STM32L4xx_HAL_Driver/Src/stm32l4xx_hal_sram.c ****   __HAL_DMA_DISABLE(hdma);
 1561              		.loc 1 1045 3
 1562 000e 7B68     		ldr	r3, [r7, #4]
 1563 0010 1B68     		ldr	r3, [r3]
 1564 0012 1A68     		ldr	r2, [r3]
 1565 0014 7B68     		ldr	r3, [r7, #4]
 1566 0016 1B68     		ldr	r3, [r3]
 1567 0018 22F00102 		bic	r2, r2, #1
 1568 001c 1A60     		str	r2, [r3]
1046:Drivers/STM32L4xx_HAL_Driver/Src/stm32l4xx_hal_sram.c **** 
1047:Drivers/STM32L4xx_HAL_Driver/Src/stm32l4xx_hal_sram.c ****   /* Update the SRAM controller state */
1048:Drivers/STM32L4xx_HAL_Driver/Src/stm32l4xx_hal_sram.c ****   hsram->State = HAL_SRAM_STATE_READY;
 1569              		.loc 1 1048 16
 1570 001e FB68     		ldr	r3, [r7, #12]
 1571 0020 0122     		movs	r2, #1
 1572 0022 83F84920 		strb	r2, [r3, #73]
1049:Drivers/STM32L4xx_HAL_Driver/Src/stm32l4xx_hal_sram.c **** 
1050:Drivers/STM32L4xx_HAL_Driver/Src/stm32l4xx_hal_sram.c **** #if (USE_HAL_SRAM_REGISTER_CALLBACKS == 1)
1051:Drivers/STM32L4xx_HAL_Driver/Src/stm32l4xx_hal_sram.c ****   hsram->DmaXferCpltCallback(hdma);
1052:Drivers/STM32L4xx_HAL_Driver/Src/stm32l4xx_hal_sram.c **** #else
1053:Drivers/STM32L4xx_HAL_Driver/Src/stm32l4xx_hal_sram.c ****   HAL_SRAM_DMA_XferCpltCallback(hdma);
 1573              		.loc 1 1053 3
 1574 0026 7868     		ldr	r0, [r7, #4]
 1575 0028 FFF7FEFF 		bl	HAL_SRAM_DMA_XferCpltCallback
1054:Drivers/STM32L4xx_HAL_Driver/Src/stm32l4xx_hal_sram.c **** #endif /* USE_HAL_SRAM_REGISTER_CALLBACKS */
1055:Drivers/STM32L4xx_HAL_Driver/Src/stm32l4xx_hal_sram.c **** }
 1576              		.loc 1 1055 1
 1577 002c 00BF     		nop
 1578 002e 1037     		adds	r7, r7, #16
 1579              		.cfi_def_cfa_offset 8
 1580 0030 BD46     		mov	sp, r7
 1581              		.cfi_def_cfa_register 13
 1582              		@ sp needed
 1583 0032 80BD     		pop	{r7, pc}
ARM GAS  /tmp/ccHphArz.s 			page 47


 1584              		.cfi_endproc
 1585              	.LFE462:
 1587              		.section	.text.SRAM_DMACpltProt,"ax",%progbits
 1588              		.align	1
 1589              		.syntax unified
 1590              		.thumb
 1591              		.thumb_func
 1593              	SRAM_DMACpltProt:
 1594              	.LFB463:
1056:Drivers/STM32L4xx_HAL_Driver/Src/stm32l4xx_hal_sram.c **** 
1057:Drivers/STM32L4xx_HAL_Driver/Src/stm32l4xx_hal_sram.c **** /**
1058:Drivers/STM32L4xx_HAL_Driver/Src/stm32l4xx_hal_sram.c ****   * @brief  DMA SRAM process complete callback.
1059:Drivers/STM32L4xx_HAL_Driver/Src/stm32l4xx_hal_sram.c ****   * @param  hdma : DMA handle
1060:Drivers/STM32L4xx_HAL_Driver/Src/stm32l4xx_hal_sram.c ****   * @retval None
1061:Drivers/STM32L4xx_HAL_Driver/Src/stm32l4xx_hal_sram.c ****   */
1062:Drivers/STM32L4xx_HAL_Driver/Src/stm32l4xx_hal_sram.c **** static void SRAM_DMACpltProt(DMA_HandleTypeDef *hdma)
1063:Drivers/STM32L4xx_HAL_Driver/Src/stm32l4xx_hal_sram.c **** {
 1595              		.loc 1 1063 1
 1596              		.cfi_startproc
 1597              		@ args = 0, pretend = 0, frame = 16
 1598              		@ frame_needed = 1, uses_anonymous_args = 0
 1599 0000 80B5     		push	{r7, lr}
 1600              		.cfi_def_cfa_offset 8
 1601              		.cfi_offset 7, -8
 1602              		.cfi_offset 14, -4
 1603 0002 84B0     		sub	sp, sp, #16
 1604              		.cfi_def_cfa_offset 24
 1605 0004 00AF     		add	r7, sp, #0
 1606              		.cfi_def_cfa_register 7
 1607 0006 7860     		str	r0, [r7, #4]
1064:Drivers/STM32L4xx_HAL_Driver/Src/stm32l4xx_hal_sram.c ****   /* Derogation MISRAC2012-Rule-11.5 */
1065:Drivers/STM32L4xx_HAL_Driver/Src/stm32l4xx_hal_sram.c ****   SRAM_HandleTypeDef *hsram = (SRAM_HandleTypeDef *)(hdma->Parent);
 1608              		.loc 1 1065 23
 1609 0008 7B68     		ldr	r3, [r7, #4]
 1610 000a 9B6A     		ldr	r3, [r3, #40]
 1611 000c FB60     		str	r3, [r7, #12]
1066:Drivers/STM32L4xx_HAL_Driver/Src/stm32l4xx_hal_sram.c **** 
1067:Drivers/STM32L4xx_HAL_Driver/Src/stm32l4xx_hal_sram.c ****   /* Disable the DMA channel */
1068:Drivers/STM32L4xx_HAL_Driver/Src/stm32l4xx_hal_sram.c ****   __HAL_DMA_DISABLE(hdma);
 1612              		.loc 1 1068 3
 1613 000e 7B68     		ldr	r3, [r7, #4]
 1614 0010 1B68     		ldr	r3, [r3]
 1615 0012 1A68     		ldr	r2, [r3]
 1616 0014 7B68     		ldr	r3, [r7, #4]
 1617 0016 1B68     		ldr	r3, [r3]
 1618 0018 22F00102 		bic	r2, r2, #1
 1619 001c 1A60     		str	r2, [r3]
1069:Drivers/STM32L4xx_HAL_Driver/Src/stm32l4xx_hal_sram.c **** 
1070:Drivers/STM32L4xx_HAL_Driver/Src/stm32l4xx_hal_sram.c ****   /* Update the SRAM controller state */
1071:Drivers/STM32L4xx_HAL_Driver/Src/stm32l4xx_hal_sram.c ****   hsram->State = HAL_SRAM_STATE_PROTECTED;
 1620              		.loc 1 1071 16
 1621 001e FB68     		ldr	r3, [r7, #12]
 1622 0020 0422     		movs	r2, #4
 1623 0022 83F84920 		strb	r2, [r3, #73]
1072:Drivers/STM32L4xx_HAL_Driver/Src/stm32l4xx_hal_sram.c **** 
1073:Drivers/STM32L4xx_HAL_Driver/Src/stm32l4xx_hal_sram.c **** #if (USE_HAL_SRAM_REGISTER_CALLBACKS == 1)
1074:Drivers/STM32L4xx_HAL_Driver/Src/stm32l4xx_hal_sram.c ****   hsram->DmaXferCpltCallback(hdma);
ARM GAS  /tmp/ccHphArz.s 			page 48


1075:Drivers/STM32L4xx_HAL_Driver/Src/stm32l4xx_hal_sram.c **** #else
1076:Drivers/STM32L4xx_HAL_Driver/Src/stm32l4xx_hal_sram.c ****   HAL_SRAM_DMA_XferCpltCallback(hdma);
 1624              		.loc 1 1076 3
 1625 0026 7868     		ldr	r0, [r7, #4]
 1626 0028 FFF7FEFF 		bl	HAL_SRAM_DMA_XferCpltCallback
1077:Drivers/STM32L4xx_HAL_Driver/Src/stm32l4xx_hal_sram.c **** #endif /* USE_HAL_SRAM_REGISTER_CALLBACKS */
1078:Drivers/STM32L4xx_HAL_Driver/Src/stm32l4xx_hal_sram.c **** }
 1627              		.loc 1 1078 1
 1628 002c 00BF     		nop
 1629 002e 1037     		adds	r7, r7, #16
 1630              		.cfi_def_cfa_offset 8
 1631 0030 BD46     		mov	sp, r7
 1632              		.cfi_def_cfa_register 13
 1633              		@ sp needed
 1634 0032 80BD     		pop	{r7, pc}
 1635              		.cfi_endproc
 1636              	.LFE463:
 1638              		.section	.text.SRAM_DMAError,"ax",%progbits
 1639              		.align	1
 1640              		.syntax unified
 1641              		.thumb
 1642              		.thumb_func
 1644              	SRAM_DMAError:
 1645              	.LFB464:
1079:Drivers/STM32L4xx_HAL_Driver/Src/stm32l4xx_hal_sram.c **** 
1080:Drivers/STM32L4xx_HAL_Driver/Src/stm32l4xx_hal_sram.c **** /**
1081:Drivers/STM32L4xx_HAL_Driver/Src/stm32l4xx_hal_sram.c ****   * @brief  DMA SRAM error callback.
1082:Drivers/STM32L4xx_HAL_Driver/Src/stm32l4xx_hal_sram.c ****   * @param  hdma : DMA handle
1083:Drivers/STM32L4xx_HAL_Driver/Src/stm32l4xx_hal_sram.c ****   * @retval None
1084:Drivers/STM32L4xx_HAL_Driver/Src/stm32l4xx_hal_sram.c ****   */
1085:Drivers/STM32L4xx_HAL_Driver/Src/stm32l4xx_hal_sram.c **** static void SRAM_DMAError(DMA_HandleTypeDef *hdma)
1086:Drivers/STM32L4xx_HAL_Driver/Src/stm32l4xx_hal_sram.c **** {
 1646              		.loc 1 1086 1
 1647              		.cfi_startproc
 1648              		@ args = 0, pretend = 0, frame = 16
 1649              		@ frame_needed = 1, uses_anonymous_args = 0
 1650 0000 80B5     		push	{r7, lr}
 1651              		.cfi_def_cfa_offset 8
 1652              		.cfi_offset 7, -8
 1653              		.cfi_offset 14, -4
 1654 0002 84B0     		sub	sp, sp, #16
 1655              		.cfi_def_cfa_offset 24
 1656 0004 00AF     		add	r7, sp, #0
 1657              		.cfi_def_cfa_register 7
 1658 0006 7860     		str	r0, [r7, #4]
1087:Drivers/STM32L4xx_HAL_Driver/Src/stm32l4xx_hal_sram.c ****   /* Derogation MISRAC2012-Rule-11.5 */
1088:Drivers/STM32L4xx_HAL_Driver/Src/stm32l4xx_hal_sram.c ****   SRAM_HandleTypeDef *hsram = (SRAM_HandleTypeDef *)(hdma->Parent);
 1659              		.loc 1 1088 23
 1660 0008 7B68     		ldr	r3, [r7, #4]
 1661 000a 9B6A     		ldr	r3, [r3, #40]
 1662 000c FB60     		str	r3, [r7, #12]
1089:Drivers/STM32L4xx_HAL_Driver/Src/stm32l4xx_hal_sram.c **** 
1090:Drivers/STM32L4xx_HAL_Driver/Src/stm32l4xx_hal_sram.c ****   /* Disable the DMA channel */
1091:Drivers/STM32L4xx_HAL_Driver/Src/stm32l4xx_hal_sram.c ****   __HAL_DMA_DISABLE(hdma);
 1663              		.loc 1 1091 3
 1664 000e 7B68     		ldr	r3, [r7, #4]
 1665 0010 1B68     		ldr	r3, [r3]
ARM GAS  /tmp/ccHphArz.s 			page 49


 1666 0012 1A68     		ldr	r2, [r3]
 1667 0014 7B68     		ldr	r3, [r7, #4]
 1668 0016 1B68     		ldr	r3, [r3]
 1669 0018 22F00102 		bic	r2, r2, #1
 1670 001c 1A60     		str	r2, [r3]
1092:Drivers/STM32L4xx_HAL_Driver/Src/stm32l4xx_hal_sram.c **** 
1093:Drivers/STM32L4xx_HAL_Driver/Src/stm32l4xx_hal_sram.c ****   /* Update the SRAM controller state */
1094:Drivers/STM32L4xx_HAL_Driver/Src/stm32l4xx_hal_sram.c ****   hsram->State = HAL_SRAM_STATE_ERROR;
 1671              		.loc 1 1094 16
 1672 001e FB68     		ldr	r3, [r7, #12]
 1673 0020 0322     		movs	r2, #3
 1674 0022 83F84920 		strb	r2, [r3, #73]
1095:Drivers/STM32L4xx_HAL_Driver/Src/stm32l4xx_hal_sram.c **** 
1096:Drivers/STM32L4xx_HAL_Driver/Src/stm32l4xx_hal_sram.c **** #if (USE_HAL_SRAM_REGISTER_CALLBACKS == 1)
1097:Drivers/STM32L4xx_HAL_Driver/Src/stm32l4xx_hal_sram.c ****   hsram->DmaXferErrorCallback(hdma);
1098:Drivers/STM32L4xx_HAL_Driver/Src/stm32l4xx_hal_sram.c **** #else
1099:Drivers/STM32L4xx_HAL_Driver/Src/stm32l4xx_hal_sram.c ****   HAL_SRAM_DMA_XferErrorCallback(hdma);
 1675              		.loc 1 1099 3
 1676 0026 7868     		ldr	r0, [r7, #4]
 1677 0028 FFF7FEFF 		bl	HAL_SRAM_DMA_XferErrorCallback
1100:Drivers/STM32L4xx_HAL_Driver/Src/stm32l4xx_hal_sram.c **** #endif /* USE_HAL_SRAM_REGISTER_CALLBACKS */
1101:Drivers/STM32L4xx_HAL_Driver/Src/stm32l4xx_hal_sram.c **** }
 1678              		.loc 1 1101 1
 1679 002c 00BF     		nop
 1680 002e 1037     		adds	r7, r7, #16
 1681              		.cfi_def_cfa_offset 8
 1682 0030 BD46     		mov	sp, r7
 1683              		.cfi_def_cfa_register 13
 1684              		@ sp needed
 1685 0032 80BD     		pop	{r7, pc}
 1686              		.cfi_endproc
 1687              	.LFE464:
 1689              		.text
 1690              	.Letext0:
 1691              		.file 2 "/usr/lib/gcc/arm-none-eabi/13.2.1/include/stdint.h"
 1692              		.file 3 "Drivers/CMSIS/Device/ST/STM32L4xx/Include/stm32l475xx.h"
 1693              		.file 4 "Drivers/STM32L4xx_HAL_Driver/Inc/stm32l4xx_hal_def.h"
 1694              		.file 5 "Drivers/STM32L4xx_HAL_Driver/Inc/stm32l4xx_hal_dma.h"
 1695              		.file 6 "Drivers/STM32L4xx_HAL_Driver/Inc/stm32l4xx_ll_fmc.h"
 1696              		.file 7 "Drivers/STM32L4xx_HAL_Driver/Inc/stm32l4xx_hal_sram.h"
 1697              		.file 8 "Drivers/STM32L4xx_HAL_Driver/Inc/stm32l4xx_ll_dma.h"
ARM GAS  /tmp/ccHphArz.s 			page 50

