ARM GAS  /tmp/ccUr9KqT.s 			page 1


   1              		.cpu cortex-m4
   2              		.arch armv7e-m
   3              		.fpu fpv4-sp-d16
   4              		.eabi_attribute 27, 1
   5              		.eabi_attribute 28, 1
   6              		.eabi_attribute 20, 1
   7              		.eabi_attribute 21, 1
   8              		.eabi_attribute 23, 3
   9              		.eabi_attribute 24, 1
  10              		.eabi_attribute 25, 1
  11              		.eabi_attribute 26, 1
  12              		.eabi_attribute 30, 6
  13              		.eabi_attribute 34, 1
  14              		.eabi_attribute 18, 4
  15              		.file	"stm32l4xx_hal_nand.c"
  16              		.text
  17              	.Ltext0:
  18              		.cfi_sections	.debug_frame
  19              		.file 1 "Drivers/STM32L4xx_HAL_Driver/Src/stm32l4xx_hal_nand.c"
  20              		.section	.rodata.CHANNEL_OFFSET_TAB,"a"
  21              		.align	2
  24              	CHANNEL_OFFSET_TAB:
  25 0000 081C3044 		.ascii	"\010\0340DXl\200"
  25      586C80
  26              		.section	.text.HAL_NAND_Init,"ax",%progbits
  27              		.align	1
  28              		.global	HAL_NAND_Init
  29              		.syntax unified
  30              		.thumb
  31              		.thumb_func
  33              	HAL_NAND_Init:
  34              	.LFB445:
   1:Drivers/STM32L4xx_HAL_Driver/Src/stm32l4xx_hal_nand.c **** /**
   2:Drivers/STM32L4xx_HAL_Driver/Src/stm32l4xx_hal_nand.c ****   ******************************************************************************
   3:Drivers/STM32L4xx_HAL_Driver/Src/stm32l4xx_hal_nand.c ****   * @file    stm32l4xx_hal_nand.c
   4:Drivers/STM32L4xx_HAL_Driver/Src/stm32l4xx_hal_nand.c ****   * @author  MCD Application Team
   5:Drivers/STM32L4xx_HAL_Driver/Src/stm32l4xx_hal_nand.c ****   * @brief   NAND HAL module driver.
   6:Drivers/STM32L4xx_HAL_Driver/Src/stm32l4xx_hal_nand.c ****   *          This file provides a generic firmware to drive NAND memories mounted
   7:Drivers/STM32L4xx_HAL_Driver/Src/stm32l4xx_hal_nand.c ****   *          as external device.
   8:Drivers/STM32L4xx_HAL_Driver/Src/stm32l4xx_hal_nand.c ****   *
   9:Drivers/STM32L4xx_HAL_Driver/Src/stm32l4xx_hal_nand.c ****   ******************************************************************************
  10:Drivers/STM32L4xx_HAL_Driver/Src/stm32l4xx_hal_nand.c ****   * @attention
  11:Drivers/STM32L4xx_HAL_Driver/Src/stm32l4xx_hal_nand.c ****   *
  12:Drivers/STM32L4xx_HAL_Driver/Src/stm32l4xx_hal_nand.c ****   * Copyright (c) 2017 STMicroelectronics.
  13:Drivers/STM32L4xx_HAL_Driver/Src/stm32l4xx_hal_nand.c ****   * All rights reserved.
  14:Drivers/STM32L4xx_HAL_Driver/Src/stm32l4xx_hal_nand.c ****   *
  15:Drivers/STM32L4xx_HAL_Driver/Src/stm32l4xx_hal_nand.c ****   * This software is licensed under terms that can be found in the LICENSE file
  16:Drivers/STM32L4xx_HAL_Driver/Src/stm32l4xx_hal_nand.c ****   * in the root directory of this software component.
  17:Drivers/STM32L4xx_HAL_Driver/Src/stm32l4xx_hal_nand.c ****   * If no LICENSE file comes with this software, it is provided AS-IS.
  18:Drivers/STM32L4xx_HAL_Driver/Src/stm32l4xx_hal_nand.c ****   *
  19:Drivers/STM32L4xx_HAL_Driver/Src/stm32l4xx_hal_nand.c ****   ******************************************************************************
  20:Drivers/STM32L4xx_HAL_Driver/Src/stm32l4xx_hal_nand.c ****   @verbatim
  21:Drivers/STM32L4xx_HAL_Driver/Src/stm32l4xx_hal_nand.c ****   ==============================================================================
  22:Drivers/STM32L4xx_HAL_Driver/Src/stm32l4xx_hal_nand.c ****                          ##### How to use this driver #####
  23:Drivers/STM32L4xx_HAL_Driver/Src/stm32l4xx_hal_nand.c ****   ==============================================================================
  24:Drivers/STM32L4xx_HAL_Driver/Src/stm32l4xx_hal_nand.c ****     [..]
  25:Drivers/STM32L4xx_HAL_Driver/Src/stm32l4xx_hal_nand.c ****       This driver is a generic layered driver which contains a set of APIs used to
ARM GAS  /tmp/ccUr9KqT.s 			page 2


  26:Drivers/STM32L4xx_HAL_Driver/Src/stm32l4xx_hal_nand.c ****       control NAND flash memories. It uses the FMC layer functions to interface
  27:Drivers/STM32L4xx_HAL_Driver/Src/stm32l4xx_hal_nand.c ****       with NAND devices. This driver is used as follows:
  28:Drivers/STM32L4xx_HAL_Driver/Src/stm32l4xx_hal_nand.c **** 
  29:Drivers/STM32L4xx_HAL_Driver/Src/stm32l4xx_hal_nand.c ****       (+) NAND flash memory configuration sequence using the function HAL_NAND_Init()
  30:Drivers/STM32L4xx_HAL_Driver/Src/stm32l4xx_hal_nand.c ****           with control and timing parameters for both common and attribute spaces.
  31:Drivers/STM32L4xx_HAL_Driver/Src/stm32l4xx_hal_nand.c **** 
  32:Drivers/STM32L4xx_HAL_Driver/Src/stm32l4xx_hal_nand.c ****       (+) Read NAND flash memory maker and device IDs using the function
  33:Drivers/STM32L4xx_HAL_Driver/Src/stm32l4xx_hal_nand.c ****           HAL_NAND_Read_ID(). The read information is stored in the NAND_ID_TypeDef
  34:Drivers/STM32L4xx_HAL_Driver/Src/stm32l4xx_hal_nand.c ****           structure declared by the function caller.
  35:Drivers/STM32L4xx_HAL_Driver/Src/stm32l4xx_hal_nand.c **** 
  36:Drivers/STM32L4xx_HAL_Driver/Src/stm32l4xx_hal_nand.c ****       (+) Access NAND flash memory by read/write operations using the functions
  37:Drivers/STM32L4xx_HAL_Driver/Src/stm32l4xx_hal_nand.c ****           HAL_NAND_Read_Page_8b()/HAL_NAND_Read_SpareArea_8b(),
  38:Drivers/STM32L4xx_HAL_Driver/Src/stm32l4xx_hal_nand.c ****           HAL_NAND_Write_Page_8b()/HAL_NAND_Write_SpareArea_8b(),
  39:Drivers/STM32L4xx_HAL_Driver/Src/stm32l4xx_hal_nand.c ****           HAL_NAND_Read_Page_16b()/HAL_NAND_Read_SpareArea_16b(),
  40:Drivers/STM32L4xx_HAL_Driver/Src/stm32l4xx_hal_nand.c ****           HAL_NAND_Write_Page_16b()/HAL_NAND_Write_SpareArea_16b()
  41:Drivers/STM32L4xx_HAL_Driver/Src/stm32l4xx_hal_nand.c ****           to read/write page(s)/spare area(s). These functions use specific device
  42:Drivers/STM32L4xx_HAL_Driver/Src/stm32l4xx_hal_nand.c ****           information (Block, page size..) predefined by the user in the NAND_DeviceConfigTypeDef
  43:Drivers/STM32L4xx_HAL_Driver/Src/stm32l4xx_hal_nand.c ****           structure. The read/write address information is contained by the Nand_Address_Typedef
  44:Drivers/STM32L4xx_HAL_Driver/Src/stm32l4xx_hal_nand.c ****           structure passed as parameter.
  45:Drivers/STM32L4xx_HAL_Driver/Src/stm32l4xx_hal_nand.c **** 
  46:Drivers/STM32L4xx_HAL_Driver/Src/stm32l4xx_hal_nand.c ****       (+) Perform NAND flash Reset chip operation using the function HAL_NAND_Reset().
  47:Drivers/STM32L4xx_HAL_Driver/Src/stm32l4xx_hal_nand.c **** 
  48:Drivers/STM32L4xx_HAL_Driver/Src/stm32l4xx_hal_nand.c ****       (+) Perform NAND flash erase block operation using the function HAL_NAND_Erase_Block().
  49:Drivers/STM32L4xx_HAL_Driver/Src/stm32l4xx_hal_nand.c ****           The erase block address information is contained in the Nand_Address_Typedef
  50:Drivers/STM32L4xx_HAL_Driver/Src/stm32l4xx_hal_nand.c ****           structure passed as parameter.
  51:Drivers/STM32L4xx_HAL_Driver/Src/stm32l4xx_hal_nand.c **** 
  52:Drivers/STM32L4xx_HAL_Driver/Src/stm32l4xx_hal_nand.c ****       (+) Read the NAND flash status operation using the function HAL_NAND_Read_Status().
  53:Drivers/STM32L4xx_HAL_Driver/Src/stm32l4xx_hal_nand.c **** 
  54:Drivers/STM32L4xx_HAL_Driver/Src/stm32l4xx_hal_nand.c ****       (+) You can also control the NAND device by calling the control APIs HAL_NAND_ECC_Enable()/
  55:Drivers/STM32L4xx_HAL_Driver/Src/stm32l4xx_hal_nand.c ****           HAL_NAND_ECC_Disable() to respectively enable/disable the ECC code correction
  56:Drivers/STM32L4xx_HAL_Driver/Src/stm32l4xx_hal_nand.c ****           feature or the function HAL_NAND_GetECC() to get the ECC correction code.
  57:Drivers/STM32L4xx_HAL_Driver/Src/stm32l4xx_hal_nand.c **** 
  58:Drivers/STM32L4xx_HAL_Driver/Src/stm32l4xx_hal_nand.c ****       (+) You can monitor the NAND device HAL state by calling the function
  59:Drivers/STM32L4xx_HAL_Driver/Src/stm32l4xx_hal_nand.c ****           HAL_NAND_GetState()
  60:Drivers/STM32L4xx_HAL_Driver/Src/stm32l4xx_hal_nand.c **** 
  61:Drivers/STM32L4xx_HAL_Driver/Src/stm32l4xx_hal_nand.c ****     [..]
  62:Drivers/STM32L4xx_HAL_Driver/Src/stm32l4xx_hal_nand.c ****       (@) This driver is a set of generic APIs which handle standard NAND flash operations.
  63:Drivers/STM32L4xx_HAL_Driver/Src/stm32l4xx_hal_nand.c ****           If a NAND flash device contains different operations and/or implementations,
  64:Drivers/STM32L4xx_HAL_Driver/Src/stm32l4xx_hal_nand.c ****           it should be implemented separately.
  65:Drivers/STM32L4xx_HAL_Driver/Src/stm32l4xx_hal_nand.c **** 
  66:Drivers/STM32L4xx_HAL_Driver/Src/stm32l4xx_hal_nand.c ****     *** Callback registration ***
  67:Drivers/STM32L4xx_HAL_Driver/Src/stm32l4xx_hal_nand.c ****     =============================================
  68:Drivers/STM32L4xx_HAL_Driver/Src/stm32l4xx_hal_nand.c ****     [..]
  69:Drivers/STM32L4xx_HAL_Driver/Src/stm32l4xx_hal_nand.c ****       The compilation define  USE_HAL_NAND_REGISTER_CALLBACKS when set to 1
  70:Drivers/STM32L4xx_HAL_Driver/Src/stm32l4xx_hal_nand.c ****       allows the user to configure dynamically the driver callbacks.
  71:Drivers/STM32L4xx_HAL_Driver/Src/stm32l4xx_hal_nand.c **** 
  72:Drivers/STM32L4xx_HAL_Driver/Src/stm32l4xx_hal_nand.c ****       Use Functions HAL_NAND_RegisterCallback() to register a user callback,
  73:Drivers/STM32L4xx_HAL_Driver/Src/stm32l4xx_hal_nand.c ****       it allows to register following callbacks:
  74:Drivers/STM32L4xx_HAL_Driver/Src/stm32l4xx_hal_nand.c ****         (+) MspInitCallback    : NAND MspInit.
  75:Drivers/STM32L4xx_HAL_Driver/Src/stm32l4xx_hal_nand.c ****         (+) MspDeInitCallback  : NAND MspDeInit.
  76:Drivers/STM32L4xx_HAL_Driver/Src/stm32l4xx_hal_nand.c ****       This function takes as parameters the HAL peripheral handle, the Callback ID
  77:Drivers/STM32L4xx_HAL_Driver/Src/stm32l4xx_hal_nand.c ****       and a pointer to the user callback function.
  78:Drivers/STM32L4xx_HAL_Driver/Src/stm32l4xx_hal_nand.c **** 
  79:Drivers/STM32L4xx_HAL_Driver/Src/stm32l4xx_hal_nand.c ****       Use function HAL_NAND_UnRegisterCallback() to reset a callback to the default
  80:Drivers/STM32L4xx_HAL_Driver/Src/stm32l4xx_hal_nand.c ****       weak (overridden) function. It allows to reset following callbacks:
  81:Drivers/STM32L4xx_HAL_Driver/Src/stm32l4xx_hal_nand.c ****         (+) MspInitCallback    : NAND MspInit.
  82:Drivers/STM32L4xx_HAL_Driver/Src/stm32l4xx_hal_nand.c ****         (+) MspDeInitCallback  : NAND MspDeInit.
ARM GAS  /tmp/ccUr9KqT.s 			page 3


  83:Drivers/STM32L4xx_HAL_Driver/Src/stm32l4xx_hal_nand.c ****       This function) takes as parameters the HAL peripheral handle and the Callback ID.
  84:Drivers/STM32L4xx_HAL_Driver/Src/stm32l4xx_hal_nand.c **** 
  85:Drivers/STM32L4xx_HAL_Driver/Src/stm32l4xx_hal_nand.c ****       By default, after the HAL_NAND_Init and if the state is HAL_NAND_STATE_RESET
  86:Drivers/STM32L4xx_HAL_Driver/Src/stm32l4xx_hal_nand.c ****       all callbacks are reset to the corresponding legacy weak (overridden) functions.
  87:Drivers/STM32L4xx_HAL_Driver/Src/stm32l4xx_hal_nand.c ****       Exception done for MspInit and MspDeInit callbacks that are respectively
  88:Drivers/STM32L4xx_HAL_Driver/Src/stm32l4xx_hal_nand.c ****       reset to the legacy weak (overridden) functions in the HAL_NAND_Init
  89:Drivers/STM32L4xx_HAL_Driver/Src/stm32l4xx_hal_nand.c ****       and  HAL_NAND_DeInit only when these callbacks are null (not registered beforehand).
  90:Drivers/STM32L4xx_HAL_Driver/Src/stm32l4xx_hal_nand.c ****       If not, MspInit or MspDeInit are not null, the HAL_NAND_Init and HAL_NAND_DeInit
  91:Drivers/STM32L4xx_HAL_Driver/Src/stm32l4xx_hal_nand.c ****       keep and use the user MspInit/MspDeInit callbacks (registered beforehand)
  92:Drivers/STM32L4xx_HAL_Driver/Src/stm32l4xx_hal_nand.c **** 
  93:Drivers/STM32L4xx_HAL_Driver/Src/stm32l4xx_hal_nand.c ****       Callbacks can be registered/unregistered in READY state only.
  94:Drivers/STM32L4xx_HAL_Driver/Src/stm32l4xx_hal_nand.c ****       Exception done for MspInit/MspDeInit callbacks that can be registered/unregistered
  95:Drivers/STM32L4xx_HAL_Driver/Src/stm32l4xx_hal_nand.c ****       in READY or RESET state, thus registered (user) MspInit/DeInit callbacks can be used
  96:Drivers/STM32L4xx_HAL_Driver/Src/stm32l4xx_hal_nand.c ****       during the Init/DeInit.
  97:Drivers/STM32L4xx_HAL_Driver/Src/stm32l4xx_hal_nand.c ****       In that case first register the MspInit/MspDeInit user callbacks
  98:Drivers/STM32L4xx_HAL_Driver/Src/stm32l4xx_hal_nand.c ****       using HAL_NAND_RegisterCallback before calling HAL_NAND_DeInit
  99:Drivers/STM32L4xx_HAL_Driver/Src/stm32l4xx_hal_nand.c ****       or HAL_NAND_Init function.
 100:Drivers/STM32L4xx_HAL_Driver/Src/stm32l4xx_hal_nand.c **** 
 101:Drivers/STM32L4xx_HAL_Driver/Src/stm32l4xx_hal_nand.c ****       When The compilation define USE_HAL_NAND_REGISTER_CALLBACKS is set to 0 or
 102:Drivers/STM32L4xx_HAL_Driver/Src/stm32l4xx_hal_nand.c ****       not defined, the callback registering feature is not available
 103:Drivers/STM32L4xx_HAL_Driver/Src/stm32l4xx_hal_nand.c ****       and weak (overridden) callbacks are used.
 104:Drivers/STM32L4xx_HAL_Driver/Src/stm32l4xx_hal_nand.c **** 
 105:Drivers/STM32L4xx_HAL_Driver/Src/stm32l4xx_hal_nand.c ****   @endverbatim
 106:Drivers/STM32L4xx_HAL_Driver/Src/stm32l4xx_hal_nand.c ****   ******************************************************************************
 107:Drivers/STM32L4xx_HAL_Driver/Src/stm32l4xx_hal_nand.c ****   */
 108:Drivers/STM32L4xx_HAL_Driver/Src/stm32l4xx_hal_nand.c **** 
 109:Drivers/STM32L4xx_HAL_Driver/Src/stm32l4xx_hal_nand.c **** /* Includes ------------------------------------------------------------------*/
 110:Drivers/STM32L4xx_HAL_Driver/Src/stm32l4xx_hal_nand.c **** #include "stm32l4xx_hal.h"
 111:Drivers/STM32L4xx_HAL_Driver/Src/stm32l4xx_hal_nand.c **** 
 112:Drivers/STM32L4xx_HAL_Driver/Src/stm32l4xx_hal_nand.c **** #if defined(FMC_BANK3)
 113:Drivers/STM32L4xx_HAL_Driver/Src/stm32l4xx_hal_nand.c **** 
 114:Drivers/STM32L4xx_HAL_Driver/Src/stm32l4xx_hal_nand.c **** /** @addtogroup STM32L4xx_HAL_Driver
 115:Drivers/STM32L4xx_HAL_Driver/Src/stm32l4xx_hal_nand.c ****   * @{
 116:Drivers/STM32L4xx_HAL_Driver/Src/stm32l4xx_hal_nand.c ****   */
 117:Drivers/STM32L4xx_HAL_Driver/Src/stm32l4xx_hal_nand.c **** 
 118:Drivers/STM32L4xx_HAL_Driver/Src/stm32l4xx_hal_nand.c **** #ifdef HAL_NAND_MODULE_ENABLED
 119:Drivers/STM32L4xx_HAL_Driver/Src/stm32l4xx_hal_nand.c **** 
 120:Drivers/STM32L4xx_HAL_Driver/Src/stm32l4xx_hal_nand.c **** /** @defgroup NAND NAND
 121:Drivers/STM32L4xx_HAL_Driver/Src/stm32l4xx_hal_nand.c ****   * @brief NAND HAL module driver
 122:Drivers/STM32L4xx_HAL_Driver/Src/stm32l4xx_hal_nand.c ****   * @{
 123:Drivers/STM32L4xx_HAL_Driver/Src/stm32l4xx_hal_nand.c ****   */
 124:Drivers/STM32L4xx_HAL_Driver/Src/stm32l4xx_hal_nand.c **** 
 125:Drivers/STM32L4xx_HAL_Driver/Src/stm32l4xx_hal_nand.c **** /* Private typedef -----------------------------------------------------------*/
 126:Drivers/STM32L4xx_HAL_Driver/Src/stm32l4xx_hal_nand.c **** /* Private Constants ------------------------------------------------------------*/
 127:Drivers/STM32L4xx_HAL_Driver/Src/stm32l4xx_hal_nand.c **** /* Private macro -------------------------------------------------------------*/
 128:Drivers/STM32L4xx_HAL_Driver/Src/stm32l4xx_hal_nand.c **** /* Private variables ---------------------------------------------------------*/
 129:Drivers/STM32L4xx_HAL_Driver/Src/stm32l4xx_hal_nand.c **** /* Private function prototypes -----------------------------------------------*/
 130:Drivers/STM32L4xx_HAL_Driver/Src/stm32l4xx_hal_nand.c **** /* Exported functions ---------------------------------------------------------*/
 131:Drivers/STM32L4xx_HAL_Driver/Src/stm32l4xx_hal_nand.c **** 
 132:Drivers/STM32L4xx_HAL_Driver/Src/stm32l4xx_hal_nand.c **** /** @defgroup NAND_Exported_Functions NAND Exported Functions
 133:Drivers/STM32L4xx_HAL_Driver/Src/stm32l4xx_hal_nand.c ****   * @{
 134:Drivers/STM32L4xx_HAL_Driver/Src/stm32l4xx_hal_nand.c ****   */
 135:Drivers/STM32L4xx_HAL_Driver/Src/stm32l4xx_hal_nand.c **** 
 136:Drivers/STM32L4xx_HAL_Driver/Src/stm32l4xx_hal_nand.c **** /** @defgroup NAND_Exported_Functions_Group1 Initialization and de-initialization functions
 137:Drivers/STM32L4xx_HAL_Driver/Src/stm32l4xx_hal_nand.c ****   * @brief    Initialization and Configuration functions
 138:Drivers/STM32L4xx_HAL_Driver/Src/stm32l4xx_hal_nand.c ****   *
 139:Drivers/STM32L4xx_HAL_Driver/Src/stm32l4xx_hal_nand.c ****   @verbatim
ARM GAS  /tmp/ccUr9KqT.s 			page 4


 140:Drivers/STM32L4xx_HAL_Driver/Src/stm32l4xx_hal_nand.c ****   ==============================================================================
 141:Drivers/STM32L4xx_HAL_Driver/Src/stm32l4xx_hal_nand.c ****             ##### NAND Initialization and de-initialization functions #####
 142:Drivers/STM32L4xx_HAL_Driver/Src/stm32l4xx_hal_nand.c ****   ==============================================================================
 143:Drivers/STM32L4xx_HAL_Driver/Src/stm32l4xx_hal_nand.c ****   [..]
 144:Drivers/STM32L4xx_HAL_Driver/Src/stm32l4xx_hal_nand.c ****     This section provides functions allowing to initialize/de-initialize
 145:Drivers/STM32L4xx_HAL_Driver/Src/stm32l4xx_hal_nand.c ****     the NAND memory
 146:Drivers/STM32L4xx_HAL_Driver/Src/stm32l4xx_hal_nand.c **** 
 147:Drivers/STM32L4xx_HAL_Driver/Src/stm32l4xx_hal_nand.c **** @endverbatim
 148:Drivers/STM32L4xx_HAL_Driver/Src/stm32l4xx_hal_nand.c ****   * @{
 149:Drivers/STM32L4xx_HAL_Driver/Src/stm32l4xx_hal_nand.c ****   */
 150:Drivers/STM32L4xx_HAL_Driver/Src/stm32l4xx_hal_nand.c **** 
 151:Drivers/STM32L4xx_HAL_Driver/Src/stm32l4xx_hal_nand.c **** /**
 152:Drivers/STM32L4xx_HAL_Driver/Src/stm32l4xx_hal_nand.c ****   * @brief  Perform NAND memory Initialization sequence
 153:Drivers/STM32L4xx_HAL_Driver/Src/stm32l4xx_hal_nand.c ****   * @param  hnand pointer to a NAND_HandleTypeDef structure that contains
 154:Drivers/STM32L4xx_HAL_Driver/Src/stm32l4xx_hal_nand.c ****   *                the configuration information for NAND module.
 155:Drivers/STM32L4xx_HAL_Driver/Src/stm32l4xx_hal_nand.c ****   * @param  ComSpace_Timing pointer to Common space timing structure
 156:Drivers/STM32L4xx_HAL_Driver/Src/stm32l4xx_hal_nand.c ****   * @param  AttSpace_Timing pointer to Attribute space timing structure
 157:Drivers/STM32L4xx_HAL_Driver/Src/stm32l4xx_hal_nand.c ****   * @retval HAL status
 158:Drivers/STM32L4xx_HAL_Driver/Src/stm32l4xx_hal_nand.c ****   */
 159:Drivers/STM32L4xx_HAL_Driver/Src/stm32l4xx_hal_nand.c **** HAL_StatusTypeDef  HAL_NAND_Init(NAND_HandleTypeDef *hnand, FMC_NAND_PCC_TimingTypeDef *ComSpace_Ti
 160:Drivers/STM32L4xx_HAL_Driver/Src/stm32l4xx_hal_nand.c ****                                  FMC_NAND_PCC_TimingTypeDef *AttSpace_Timing)
 161:Drivers/STM32L4xx_HAL_Driver/Src/stm32l4xx_hal_nand.c **** {
  35              		.loc 1 161 1
  36              		.cfi_startproc
  37              		@ args = 0, pretend = 0, frame = 16
  38              		@ frame_needed = 1, uses_anonymous_args = 0
  39 0000 80B5     		push	{r7, lr}
  40              		.cfi_def_cfa_offset 8
  41              		.cfi_offset 7, -8
  42              		.cfi_offset 14, -4
  43 0002 84B0     		sub	sp, sp, #16
  44              		.cfi_def_cfa_offset 24
  45 0004 00AF     		add	r7, sp, #0
  46              		.cfi_def_cfa_register 7
  47 0006 F860     		str	r0, [r7, #12]
  48 0008 B960     		str	r1, [r7, #8]
  49 000a 7A60     		str	r2, [r7, #4]
 162:Drivers/STM32L4xx_HAL_Driver/Src/stm32l4xx_hal_nand.c ****   /* Check the NAND handle state */
 163:Drivers/STM32L4xx_HAL_Driver/Src/stm32l4xx_hal_nand.c ****   if (hnand == NULL)
  50              		.loc 1 163 6
  51 000c FB68     		ldr	r3, [r7, #12]
  52 000e 002B     		cmp	r3, #0
  53 0010 01D1     		bne	.L2
 164:Drivers/STM32L4xx_HAL_Driver/Src/stm32l4xx_hal_nand.c ****   {
 165:Drivers/STM32L4xx_HAL_Driver/Src/stm32l4xx_hal_nand.c ****     return HAL_ERROR;
  54              		.loc 1 165 12
  55 0012 0123     		movs	r3, #1
  56 0014 31E0     		b	.L3
  57              	.L2:
 166:Drivers/STM32L4xx_HAL_Driver/Src/stm32l4xx_hal_nand.c ****   }
 167:Drivers/STM32L4xx_HAL_Driver/Src/stm32l4xx_hal_nand.c **** 
 168:Drivers/STM32L4xx_HAL_Driver/Src/stm32l4xx_hal_nand.c ****   if (hnand->State == HAL_NAND_STATE_RESET)
  58              		.loc 1 168 12
  59 0016 FB68     		ldr	r3, [r7, #12]
  60 0018 93F82130 		ldrb	r3, [r3, #33]
  61 001c DBB2     		uxtb	r3, r3
  62              		.loc 1 168 6
ARM GAS  /tmp/ccUr9KqT.s 			page 5


  63 001e 002B     		cmp	r3, #0
  64 0020 06D1     		bne	.L4
 169:Drivers/STM32L4xx_HAL_Driver/Src/stm32l4xx_hal_nand.c ****   {
 170:Drivers/STM32L4xx_HAL_Driver/Src/stm32l4xx_hal_nand.c ****     /* Allocate lock resource and initialize it */
 171:Drivers/STM32L4xx_HAL_Driver/Src/stm32l4xx_hal_nand.c ****     hnand->Lock = HAL_UNLOCKED;
  65              		.loc 1 171 17
  66 0022 FB68     		ldr	r3, [r7, #12]
  67 0024 0022     		movs	r2, #0
  68 0026 83F82020 		strb	r2, [r3, #32]
 172:Drivers/STM32L4xx_HAL_Driver/Src/stm32l4xx_hal_nand.c **** 
 173:Drivers/STM32L4xx_HAL_Driver/Src/stm32l4xx_hal_nand.c **** #if (USE_HAL_NAND_REGISTER_CALLBACKS == 1)
 174:Drivers/STM32L4xx_HAL_Driver/Src/stm32l4xx_hal_nand.c ****     if (hnand->MspInitCallback == NULL)
 175:Drivers/STM32L4xx_HAL_Driver/Src/stm32l4xx_hal_nand.c ****     {
 176:Drivers/STM32L4xx_HAL_Driver/Src/stm32l4xx_hal_nand.c ****       hnand->MspInitCallback = HAL_NAND_MspInit;
 177:Drivers/STM32L4xx_HAL_Driver/Src/stm32l4xx_hal_nand.c ****     }
 178:Drivers/STM32L4xx_HAL_Driver/Src/stm32l4xx_hal_nand.c ****     hnand->ItCallback = HAL_NAND_ITCallback;
 179:Drivers/STM32L4xx_HAL_Driver/Src/stm32l4xx_hal_nand.c **** 
 180:Drivers/STM32L4xx_HAL_Driver/Src/stm32l4xx_hal_nand.c ****     /* Init the low level hardware */
 181:Drivers/STM32L4xx_HAL_Driver/Src/stm32l4xx_hal_nand.c ****     hnand->MspInitCallback(hnand);
 182:Drivers/STM32L4xx_HAL_Driver/Src/stm32l4xx_hal_nand.c **** #else
 183:Drivers/STM32L4xx_HAL_Driver/Src/stm32l4xx_hal_nand.c ****     /* Initialize the low level hardware (MSP) */
 184:Drivers/STM32L4xx_HAL_Driver/Src/stm32l4xx_hal_nand.c ****     HAL_NAND_MspInit(hnand);
  69              		.loc 1 184 5
  70 002a F868     		ldr	r0, [r7, #12]
  71 002c FFF7FEFF 		bl	HAL_NAND_MspInit
  72              	.L4:
 185:Drivers/STM32L4xx_HAL_Driver/Src/stm32l4xx_hal_nand.c **** #endif /* (USE_HAL_NAND_REGISTER_CALLBACKS) */
 186:Drivers/STM32L4xx_HAL_Driver/Src/stm32l4xx_hal_nand.c ****   }
 187:Drivers/STM32L4xx_HAL_Driver/Src/stm32l4xx_hal_nand.c **** 
 188:Drivers/STM32L4xx_HAL_Driver/Src/stm32l4xx_hal_nand.c ****   /* Initialize NAND control Interface */
 189:Drivers/STM32L4xx_HAL_Driver/Src/stm32l4xx_hal_nand.c ****   (void)FMC_NAND_Init(hnand->Instance, &(hnand->Init));
  73              		.loc 1 189 9
  74 0030 FB68     		ldr	r3, [r7, #12]
  75 0032 1A68     		ldr	r2, [r3]
  76              		.loc 1 189 40
  77 0034 FB68     		ldr	r3, [r7, #12]
  78 0036 0433     		adds	r3, r3, #4
  79              		.loc 1 189 9
  80 0038 1946     		mov	r1, r3
  81 003a 1046     		mov	r0, r2
  82 003c FFF7FEFF 		bl	FMC_NAND_Init
 190:Drivers/STM32L4xx_HAL_Driver/Src/stm32l4xx_hal_nand.c **** 
 191:Drivers/STM32L4xx_HAL_Driver/Src/stm32l4xx_hal_nand.c ****   /* Initialize NAND common space timing Interface */
 192:Drivers/STM32L4xx_HAL_Driver/Src/stm32l4xx_hal_nand.c ****   (void)FMC_NAND_CommonSpace_Timing_Init(hnand->Instance, ComSpace_Timing, hnand->Init.NandBank);
  83              		.loc 1 192 9
  84 0040 FB68     		ldr	r3, [r7, #12]
  85 0042 1868     		ldr	r0, [r3]
  86 0044 FB68     		ldr	r3, [r7, #12]
  87 0046 5B68     		ldr	r3, [r3, #4]
  88 0048 1A46     		mov	r2, r3
  89 004a B968     		ldr	r1, [r7, #8]
  90 004c FFF7FEFF 		bl	FMC_NAND_CommonSpace_Timing_Init
 193:Drivers/STM32L4xx_HAL_Driver/Src/stm32l4xx_hal_nand.c **** 
 194:Drivers/STM32L4xx_HAL_Driver/Src/stm32l4xx_hal_nand.c ****   /* Initialize NAND attribute space timing Interface */
 195:Drivers/STM32L4xx_HAL_Driver/Src/stm32l4xx_hal_nand.c ****   (void)FMC_NAND_AttributeSpace_Timing_Init(hnand->Instance, AttSpace_Timing, hnand->Init.NandBank)
  91              		.loc 1 195 9
  92 0050 FB68     		ldr	r3, [r7, #12]
ARM GAS  /tmp/ccUr9KqT.s 			page 6


  93 0052 1868     		ldr	r0, [r3]
  94 0054 FB68     		ldr	r3, [r7, #12]
  95 0056 5B68     		ldr	r3, [r3, #4]
  96 0058 1A46     		mov	r2, r3
  97 005a 7968     		ldr	r1, [r7, #4]
  98 005c FFF7FEFF 		bl	FMC_NAND_AttributeSpace_Timing_Init
 196:Drivers/STM32L4xx_HAL_Driver/Src/stm32l4xx_hal_nand.c **** 
 197:Drivers/STM32L4xx_HAL_Driver/Src/stm32l4xx_hal_nand.c ****   /* Enable the NAND device */
 198:Drivers/STM32L4xx_HAL_Driver/Src/stm32l4xx_hal_nand.c ****   __FMC_NAND_ENABLE(hnand->Instance);
  99              		.loc 1 198 3
 100 0060 FB68     		ldr	r3, [r7, #12]
 101 0062 1B68     		ldr	r3, [r3]
 102 0064 1A68     		ldr	r2, [r3]
 103 0066 FB68     		ldr	r3, [r7, #12]
 104 0068 1B68     		ldr	r3, [r3]
 105 006a 42F00402 		orr	r2, r2, #4
 106 006e 1A60     		str	r2, [r3]
 199:Drivers/STM32L4xx_HAL_Driver/Src/stm32l4xx_hal_nand.c **** 
 200:Drivers/STM32L4xx_HAL_Driver/Src/stm32l4xx_hal_nand.c ****   /* Update the NAND controller state */
 201:Drivers/STM32L4xx_HAL_Driver/Src/stm32l4xx_hal_nand.c ****   hnand->State = HAL_NAND_STATE_READY;
 107              		.loc 1 201 16
 108 0070 FB68     		ldr	r3, [r7, #12]
 109 0072 0122     		movs	r2, #1
 110 0074 83F82120 		strb	r2, [r3, #33]
 202:Drivers/STM32L4xx_HAL_Driver/Src/stm32l4xx_hal_nand.c **** 
 203:Drivers/STM32L4xx_HAL_Driver/Src/stm32l4xx_hal_nand.c ****   return HAL_OK;
 111              		.loc 1 203 10
 112 0078 0023     		movs	r3, #0
 113              	.L3:
 204:Drivers/STM32L4xx_HAL_Driver/Src/stm32l4xx_hal_nand.c **** }
 114              		.loc 1 204 1
 115 007a 1846     		mov	r0, r3
 116 007c 1037     		adds	r7, r7, #16
 117              		.cfi_def_cfa_offset 8
 118 007e BD46     		mov	sp, r7
 119              		.cfi_def_cfa_register 13
 120              		@ sp needed
 121 0080 80BD     		pop	{r7, pc}
 122              		.cfi_endproc
 123              	.LFE445:
 125              		.section	.text.HAL_NAND_DeInit,"ax",%progbits
 126              		.align	1
 127              		.global	HAL_NAND_DeInit
 128              		.syntax unified
 129              		.thumb
 130              		.thumb_func
 132              	HAL_NAND_DeInit:
 133              	.LFB446:
 205:Drivers/STM32L4xx_HAL_Driver/Src/stm32l4xx_hal_nand.c **** 
 206:Drivers/STM32L4xx_HAL_Driver/Src/stm32l4xx_hal_nand.c **** /**
 207:Drivers/STM32L4xx_HAL_Driver/Src/stm32l4xx_hal_nand.c ****   * @brief  Perform NAND memory De-Initialization sequence
 208:Drivers/STM32L4xx_HAL_Driver/Src/stm32l4xx_hal_nand.c ****   * @param  hnand pointer to a NAND_HandleTypeDef structure that contains
 209:Drivers/STM32L4xx_HAL_Driver/Src/stm32l4xx_hal_nand.c ****   *                the configuration information for NAND module.
 210:Drivers/STM32L4xx_HAL_Driver/Src/stm32l4xx_hal_nand.c ****   * @retval HAL status
 211:Drivers/STM32L4xx_HAL_Driver/Src/stm32l4xx_hal_nand.c ****   */
 212:Drivers/STM32L4xx_HAL_Driver/Src/stm32l4xx_hal_nand.c **** HAL_StatusTypeDef HAL_NAND_DeInit(NAND_HandleTypeDef *hnand)
 213:Drivers/STM32L4xx_HAL_Driver/Src/stm32l4xx_hal_nand.c **** {
ARM GAS  /tmp/ccUr9KqT.s 			page 7


 134              		.loc 1 213 1
 135              		.cfi_startproc
 136              		@ args = 0, pretend = 0, frame = 8
 137              		@ frame_needed = 1, uses_anonymous_args = 0
 138 0000 80B5     		push	{r7, lr}
 139              		.cfi_def_cfa_offset 8
 140              		.cfi_offset 7, -8
 141              		.cfi_offset 14, -4
 142 0002 82B0     		sub	sp, sp, #8
 143              		.cfi_def_cfa_offset 16
 144 0004 00AF     		add	r7, sp, #0
 145              		.cfi_def_cfa_register 7
 146 0006 7860     		str	r0, [r7, #4]
 214:Drivers/STM32L4xx_HAL_Driver/Src/stm32l4xx_hal_nand.c **** #if (USE_HAL_NAND_REGISTER_CALLBACKS == 1)
 215:Drivers/STM32L4xx_HAL_Driver/Src/stm32l4xx_hal_nand.c ****   if (hnand->MspDeInitCallback == NULL)
 216:Drivers/STM32L4xx_HAL_Driver/Src/stm32l4xx_hal_nand.c ****   {
 217:Drivers/STM32L4xx_HAL_Driver/Src/stm32l4xx_hal_nand.c ****     hnand->MspDeInitCallback = HAL_NAND_MspDeInit;
 218:Drivers/STM32L4xx_HAL_Driver/Src/stm32l4xx_hal_nand.c ****   }
 219:Drivers/STM32L4xx_HAL_Driver/Src/stm32l4xx_hal_nand.c **** 
 220:Drivers/STM32L4xx_HAL_Driver/Src/stm32l4xx_hal_nand.c ****   /* DeInit the low level hardware */
 221:Drivers/STM32L4xx_HAL_Driver/Src/stm32l4xx_hal_nand.c ****   hnand->MspDeInitCallback(hnand);
 222:Drivers/STM32L4xx_HAL_Driver/Src/stm32l4xx_hal_nand.c **** #else
 223:Drivers/STM32L4xx_HAL_Driver/Src/stm32l4xx_hal_nand.c ****   /* Initialize the low level hardware (MSP) */
 224:Drivers/STM32L4xx_HAL_Driver/Src/stm32l4xx_hal_nand.c ****   HAL_NAND_MspDeInit(hnand);
 147              		.loc 1 224 3
 148 0008 7868     		ldr	r0, [r7, #4]
 149 000a FFF7FEFF 		bl	HAL_NAND_MspDeInit
 225:Drivers/STM32L4xx_HAL_Driver/Src/stm32l4xx_hal_nand.c **** #endif /* (USE_HAL_NAND_REGISTER_CALLBACKS) */
 226:Drivers/STM32L4xx_HAL_Driver/Src/stm32l4xx_hal_nand.c **** 
 227:Drivers/STM32L4xx_HAL_Driver/Src/stm32l4xx_hal_nand.c ****   /* Configure the NAND registers with their reset values */
 228:Drivers/STM32L4xx_HAL_Driver/Src/stm32l4xx_hal_nand.c ****   (void)FMC_NAND_DeInit(hnand->Instance, hnand->Init.NandBank);
 150              		.loc 1 228 9
 151 000e 7B68     		ldr	r3, [r7, #4]
 152 0010 1A68     		ldr	r2, [r3]
 153 0012 7B68     		ldr	r3, [r7, #4]
 154 0014 5B68     		ldr	r3, [r3, #4]
 155 0016 1946     		mov	r1, r3
 156 0018 1046     		mov	r0, r2
 157 001a FFF7FEFF 		bl	FMC_NAND_DeInit
 229:Drivers/STM32L4xx_HAL_Driver/Src/stm32l4xx_hal_nand.c **** 
 230:Drivers/STM32L4xx_HAL_Driver/Src/stm32l4xx_hal_nand.c ****   /* Reset the NAND controller state */
 231:Drivers/STM32L4xx_HAL_Driver/Src/stm32l4xx_hal_nand.c ****   hnand->State = HAL_NAND_STATE_RESET;
 158              		.loc 1 231 16
 159 001e 7B68     		ldr	r3, [r7, #4]
 160 0020 0022     		movs	r2, #0
 161 0022 83F82120 		strb	r2, [r3, #33]
 232:Drivers/STM32L4xx_HAL_Driver/Src/stm32l4xx_hal_nand.c **** 
 233:Drivers/STM32L4xx_HAL_Driver/Src/stm32l4xx_hal_nand.c ****   /* Release Lock */
 234:Drivers/STM32L4xx_HAL_Driver/Src/stm32l4xx_hal_nand.c ****   __HAL_UNLOCK(hnand);
 162              		.loc 1 234 3
 163 0026 7B68     		ldr	r3, [r7, #4]
 164 0028 0022     		movs	r2, #0
 165 002a 83F82020 		strb	r2, [r3, #32]
 235:Drivers/STM32L4xx_HAL_Driver/Src/stm32l4xx_hal_nand.c **** 
 236:Drivers/STM32L4xx_HAL_Driver/Src/stm32l4xx_hal_nand.c ****   return HAL_OK;
 166              		.loc 1 236 10
 167 002e 0023     		movs	r3, #0
ARM GAS  /tmp/ccUr9KqT.s 			page 8


 237:Drivers/STM32L4xx_HAL_Driver/Src/stm32l4xx_hal_nand.c **** }
 168              		.loc 1 237 1
 169 0030 1846     		mov	r0, r3
 170 0032 0837     		adds	r7, r7, #8
 171              		.cfi_def_cfa_offset 8
 172 0034 BD46     		mov	sp, r7
 173              		.cfi_def_cfa_register 13
 174              		@ sp needed
 175 0036 80BD     		pop	{r7, pc}
 176              		.cfi_endproc
 177              	.LFE446:
 179              		.section	.text.HAL_NAND_MspInit,"ax",%progbits
 180              		.align	1
 181              		.weak	HAL_NAND_MspInit
 182              		.syntax unified
 183              		.thumb
 184              		.thumb_func
 186              	HAL_NAND_MspInit:
 187              	.LFB447:
 238:Drivers/STM32L4xx_HAL_Driver/Src/stm32l4xx_hal_nand.c **** 
 239:Drivers/STM32L4xx_HAL_Driver/Src/stm32l4xx_hal_nand.c **** /**
 240:Drivers/STM32L4xx_HAL_Driver/Src/stm32l4xx_hal_nand.c ****   * @brief  NAND MSP Init
 241:Drivers/STM32L4xx_HAL_Driver/Src/stm32l4xx_hal_nand.c ****   * @param  hnand pointer to a NAND_HandleTypeDef structure that contains
 242:Drivers/STM32L4xx_HAL_Driver/Src/stm32l4xx_hal_nand.c ****   *                the configuration information for NAND module.
 243:Drivers/STM32L4xx_HAL_Driver/Src/stm32l4xx_hal_nand.c ****   * @retval None
 244:Drivers/STM32L4xx_HAL_Driver/Src/stm32l4xx_hal_nand.c ****   */
 245:Drivers/STM32L4xx_HAL_Driver/Src/stm32l4xx_hal_nand.c **** __weak void HAL_NAND_MspInit(NAND_HandleTypeDef *hnand)
 246:Drivers/STM32L4xx_HAL_Driver/Src/stm32l4xx_hal_nand.c **** {
 188              		.loc 1 246 1
 189              		.cfi_startproc
 190              		@ args = 0, pretend = 0, frame = 8
 191              		@ frame_needed = 1, uses_anonymous_args = 0
 192              		@ link register save eliminated.
 193 0000 80B4     		push	{r7}
 194              		.cfi_def_cfa_offset 4
 195              		.cfi_offset 7, -4
 196 0002 83B0     		sub	sp, sp, #12
 197              		.cfi_def_cfa_offset 16
 198 0004 00AF     		add	r7, sp, #0
 199              		.cfi_def_cfa_register 7
 200 0006 7860     		str	r0, [r7, #4]
 247:Drivers/STM32L4xx_HAL_Driver/Src/stm32l4xx_hal_nand.c ****   /* Prevent unused argument(s) compilation warning */
 248:Drivers/STM32L4xx_HAL_Driver/Src/stm32l4xx_hal_nand.c ****   UNUSED(hnand);
 249:Drivers/STM32L4xx_HAL_Driver/Src/stm32l4xx_hal_nand.c **** 
 250:Drivers/STM32L4xx_HAL_Driver/Src/stm32l4xx_hal_nand.c ****   /* NOTE : This function Should not be modified, when the callback is needed,
 251:Drivers/STM32L4xx_HAL_Driver/Src/stm32l4xx_hal_nand.c ****             the HAL_NAND_MspInit could be implemented in the user file
 252:Drivers/STM32L4xx_HAL_Driver/Src/stm32l4xx_hal_nand.c ****    */
 253:Drivers/STM32L4xx_HAL_Driver/Src/stm32l4xx_hal_nand.c **** }
 201              		.loc 1 253 1
 202 0008 00BF     		nop
 203 000a 0C37     		adds	r7, r7, #12
 204              		.cfi_def_cfa_offset 4
 205 000c BD46     		mov	sp, r7
 206              		.cfi_def_cfa_register 13
 207              		@ sp needed
 208 000e 5DF8047B 		ldr	r7, [sp], #4
 209              		.cfi_restore 7
ARM GAS  /tmp/ccUr9KqT.s 			page 9


 210              		.cfi_def_cfa_offset 0
 211 0012 7047     		bx	lr
 212              		.cfi_endproc
 213              	.LFE447:
 215              		.section	.text.HAL_NAND_MspDeInit,"ax",%progbits
 216              		.align	1
 217              		.weak	HAL_NAND_MspDeInit
 218              		.syntax unified
 219              		.thumb
 220              		.thumb_func
 222              	HAL_NAND_MspDeInit:
 223              	.LFB448:
 254:Drivers/STM32L4xx_HAL_Driver/Src/stm32l4xx_hal_nand.c **** 
 255:Drivers/STM32L4xx_HAL_Driver/Src/stm32l4xx_hal_nand.c **** /**
 256:Drivers/STM32L4xx_HAL_Driver/Src/stm32l4xx_hal_nand.c ****   * @brief  NAND MSP DeInit
 257:Drivers/STM32L4xx_HAL_Driver/Src/stm32l4xx_hal_nand.c ****   * @param  hnand pointer to a NAND_HandleTypeDef structure that contains
 258:Drivers/STM32L4xx_HAL_Driver/Src/stm32l4xx_hal_nand.c ****   *                the configuration information for NAND module.
 259:Drivers/STM32L4xx_HAL_Driver/Src/stm32l4xx_hal_nand.c ****   * @retval None
 260:Drivers/STM32L4xx_HAL_Driver/Src/stm32l4xx_hal_nand.c ****   */
 261:Drivers/STM32L4xx_HAL_Driver/Src/stm32l4xx_hal_nand.c **** __weak void HAL_NAND_MspDeInit(NAND_HandleTypeDef *hnand)
 262:Drivers/STM32L4xx_HAL_Driver/Src/stm32l4xx_hal_nand.c **** {
 224              		.loc 1 262 1
 225              		.cfi_startproc
 226              		@ args = 0, pretend = 0, frame = 8
 227              		@ frame_needed = 1, uses_anonymous_args = 0
 228              		@ link register save eliminated.
 229 0000 80B4     		push	{r7}
 230              		.cfi_def_cfa_offset 4
 231              		.cfi_offset 7, -4
 232 0002 83B0     		sub	sp, sp, #12
 233              		.cfi_def_cfa_offset 16
 234 0004 00AF     		add	r7, sp, #0
 235              		.cfi_def_cfa_register 7
 236 0006 7860     		str	r0, [r7, #4]
 263:Drivers/STM32L4xx_HAL_Driver/Src/stm32l4xx_hal_nand.c ****   /* Prevent unused argument(s) compilation warning */
 264:Drivers/STM32L4xx_HAL_Driver/Src/stm32l4xx_hal_nand.c ****   UNUSED(hnand);
 265:Drivers/STM32L4xx_HAL_Driver/Src/stm32l4xx_hal_nand.c **** 
 266:Drivers/STM32L4xx_HAL_Driver/Src/stm32l4xx_hal_nand.c ****   /* NOTE : This function Should not be modified, when the callback is needed,
 267:Drivers/STM32L4xx_HAL_Driver/Src/stm32l4xx_hal_nand.c ****             the HAL_NAND_MspDeInit could be implemented in the user file
 268:Drivers/STM32L4xx_HAL_Driver/Src/stm32l4xx_hal_nand.c ****    */
 269:Drivers/STM32L4xx_HAL_Driver/Src/stm32l4xx_hal_nand.c **** }
 237              		.loc 1 269 1
 238 0008 00BF     		nop
 239 000a 0C37     		adds	r7, r7, #12
 240              		.cfi_def_cfa_offset 4
 241 000c BD46     		mov	sp, r7
 242              		.cfi_def_cfa_register 13
 243              		@ sp needed
 244 000e 5DF8047B 		ldr	r7, [sp], #4
 245              		.cfi_restore 7
 246              		.cfi_def_cfa_offset 0
 247 0012 7047     		bx	lr
 248              		.cfi_endproc
 249              	.LFE448:
 251              		.section	.text.HAL_NAND_IRQHandler,"ax",%progbits
 252              		.align	1
 253              		.global	HAL_NAND_IRQHandler
ARM GAS  /tmp/ccUr9KqT.s 			page 10


 254              		.syntax unified
 255              		.thumb
 256              		.thumb_func
 258              	HAL_NAND_IRQHandler:
 259              	.LFB449:
 270:Drivers/STM32L4xx_HAL_Driver/Src/stm32l4xx_hal_nand.c **** 
 271:Drivers/STM32L4xx_HAL_Driver/Src/stm32l4xx_hal_nand.c **** 
 272:Drivers/STM32L4xx_HAL_Driver/Src/stm32l4xx_hal_nand.c **** /**
 273:Drivers/STM32L4xx_HAL_Driver/Src/stm32l4xx_hal_nand.c ****   * @brief  This function handles NAND device interrupt request.
 274:Drivers/STM32L4xx_HAL_Driver/Src/stm32l4xx_hal_nand.c ****   * @param  hnand pointer to a NAND_HandleTypeDef structure that contains
 275:Drivers/STM32L4xx_HAL_Driver/Src/stm32l4xx_hal_nand.c ****   *                the configuration information for NAND module.
 276:Drivers/STM32L4xx_HAL_Driver/Src/stm32l4xx_hal_nand.c ****   * @retval HAL status
 277:Drivers/STM32L4xx_HAL_Driver/Src/stm32l4xx_hal_nand.c ****   */
 278:Drivers/STM32L4xx_HAL_Driver/Src/stm32l4xx_hal_nand.c **** void HAL_NAND_IRQHandler(NAND_HandleTypeDef *hnand)
 279:Drivers/STM32L4xx_HAL_Driver/Src/stm32l4xx_hal_nand.c **** {
 260              		.loc 1 279 1
 261              		.cfi_startproc
 262              		@ args = 0, pretend = 0, frame = 8
 263              		@ frame_needed = 1, uses_anonymous_args = 0
 264 0000 80B5     		push	{r7, lr}
 265              		.cfi_def_cfa_offset 8
 266              		.cfi_offset 7, -8
 267              		.cfi_offset 14, -4
 268 0002 82B0     		sub	sp, sp, #8
 269              		.cfi_def_cfa_offset 16
 270 0004 00AF     		add	r7, sp, #0
 271              		.cfi_def_cfa_register 7
 272 0006 7860     		str	r0, [r7, #4]
 280:Drivers/STM32L4xx_HAL_Driver/Src/stm32l4xx_hal_nand.c ****   /* Check NAND interrupt Rising edge flag */
 281:Drivers/STM32L4xx_HAL_Driver/Src/stm32l4xx_hal_nand.c ****   if (__FMC_NAND_GET_FLAG(hnand->Instance, hnand->Init.NandBank, FMC_FLAG_RISING_EDGE))
 273              		.loc 1 281 7
 274 0008 7B68     		ldr	r3, [r7, #4]
 275 000a 1B68     		ldr	r3, [r3]
 276 000c 5B68     		ldr	r3, [r3, #4]
 277 000e 03F00103 		and	r3, r3, #1
 278              		.loc 1 281 6
 279 0012 012B     		cmp	r3, #1
 280 0014 0AD1     		bne	.L10
 282:Drivers/STM32L4xx_HAL_Driver/Src/stm32l4xx_hal_nand.c ****   {
 283:Drivers/STM32L4xx_HAL_Driver/Src/stm32l4xx_hal_nand.c ****     /* NAND interrupt callback*/
 284:Drivers/STM32L4xx_HAL_Driver/Src/stm32l4xx_hal_nand.c **** #if (USE_HAL_NAND_REGISTER_CALLBACKS == 1)
 285:Drivers/STM32L4xx_HAL_Driver/Src/stm32l4xx_hal_nand.c ****     hnand->ItCallback(hnand);
 286:Drivers/STM32L4xx_HAL_Driver/Src/stm32l4xx_hal_nand.c **** #else
 287:Drivers/STM32L4xx_HAL_Driver/Src/stm32l4xx_hal_nand.c ****     HAL_NAND_ITCallback(hnand);
 281              		.loc 1 287 5
 282 0016 7868     		ldr	r0, [r7, #4]
 283 0018 FFF7FEFF 		bl	HAL_NAND_ITCallback
 288:Drivers/STM32L4xx_HAL_Driver/Src/stm32l4xx_hal_nand.c **** #endif /* (USE_HAL_NAND_REGISTER_CALLBACKS) */
 289:Drivers/STM32L4xx_HAL_Driver/Src/stm32l4xx_hal_nand.c **** 
 290:Drivers/STM32L4xx_HAL_Driver/Src/stm32l4xx_hal_nand.c ****     /* Clear NAND interrupt Rising edge pending bit */
 291:Drivers/STM32L4xx_HAL_Driver/Src/stm32l4xx_hal_nand.c ****     __FMC_NAND_CLEAR_FLAG(hnand->Instance, FMC_FLAG_RISING_EDGE);
 284              		.loc 1 291 5
 285 001c 7B68     		ldr	r3, [r7, #4]
 286 001e 1B68     		ldr	r3, [r3]
 287 0020 5A68     		ldr	r2, [r3, #4]
 288 0022 7B68     		ldr	r3, [r7, #4]
 289 0024 1B68     		ldr	r3, [r3]
ARM GAS  /tmp/ccUr9KqT.s 			page 11


 290 0026 22F00102 		bic	r2, r2, #1
 291 002a 5A60     		str	r2, [r3, #4]
 292              	.L10:
 292:Drivers/STM32L4xx_HAL_Driver/Src/stm32l4xx_hal_nand.c ****   }
 293:Drivers/STM32L4xx_HAL_Driver/Src/stm32l4xx_hal_nand.c **** 
 294:Drivers/STM32L4xx_HAL_Driver/Src/stm32l4xx_hal_nand.c ****   /* Check NAND interrupt Level flag */
 295:Drivers/STM32L4xx_HAL_Driver/Src/stm32l4xx_hal_nand.c ****   if (__FMC_NAND_GET_FLAG(hnand->Instance, hnand->Init.NandBank, FMC_FLAG_LEVEL))
 293              		.loc 1 295 7
 294 002c 7B68     		ldr	r3, [r7, #4]
 295 002e 1B68     		ldr	r3, [r3]
 296 0030 5B68     		ldr	r3, [r3, #4]
 297 0032 03F00203 		and	r3, r3, #2
 298              		.loc 1 295 6
 299 0036 022B     		cmp	r3, #2
 300 0038 0AD1     		bne	.L11
 296:Drivers/STM32L4xx_HAL_Driver/Src/stm32l4xx_hal_nand.c ****   {
 297:Drivers/STM32L4xx_HAL_Driver/Src/stm32l4xx_hal_nand.c ****     /* NAND interrupt callback*/
 298:Drivers/STM32L4xx_HAL_Driver/Src/stm32l4xx_hal_nand.c **** #if (USE_HAL_NAND_REGISTER_CALLBACKS == 1)
 299:Drivers/STM32L4xx_HAL_Driver/Src/stm32l4xx_hal_nand.c ****     hnand->ItCallback(hnand);
 300:Drivers/STM32L4xx_HAL_Driver/Src/stm32l4xx_hal_nand.c **** #else
 301:Drivers/STM32L4xx_HAL_Driver/Src/stm32l4xx_hal_nand.c ****     HAL_NAND_ITCallback(hnand);
 301              		.loc 1 301 5
 302 003a 7868     		ldr	r0, [r7, #4]
 303 003c FFF7FEFF 		bl	HAL_NAND_ITCallback
 302:Drivers/STM32L4xx_HAL_Driver/Src/stm32l4xx_hal_nand.c **** #endif /* (USE_HAL_NAND_REGISTER_CALLBACKS) */
 303:Drivers/STM32L4xx_HAL_Driver/Src/stm32l4xx_hal_nand.c **** 
 304:Drivers/STM32L4xx_HAL_Driver/Src/stm32l4xx_hal_nand.c ****     /* Clear NAND interrupt Level pending bit */
 305:Drivers/STM32L4xx_HAL_Driver/Src/stm32l4xx_hal_nand.c ****     __FMC_NAND_CLEAR_FLAG(hnand->Instance, FMC_FLAG_LEVEL);
 304              		.loc 1 305 5
 305 0040 7B68     		ldr	r3, [r7, #4]
 306 0042 1B68     		ldr	r3, [r3]
 307 0044 5A68     		ldr	r2, [r3, #4]
 308 0046 7B68     		ldr	r3, [r7, #4]
 309 0048 1B68     		ldr	r3, [r3]
 310 004a 22F00202 		bic	r2, r2, #2
 311 004e 5A60     		str	r2, [r3, #4]
 312              	.L11:
 306:Drivers/STM32L4xx_HAL_Driver/Src/stm32l4xx_hal_nand.c ****   }
 307:Drivers/STM32L4xx_HAL_Driver/Src/stm32l4xx_hal_nand.c **** 
 308:Drivers/STM32L4xx_HAL_Driver/Src/stm32l4xx_hal_nand.c ****   /* Check NAND interrupt Falling edge flag */
 309:Drivers/STM32L4xx_HAL_Driver/Src/stm32l4xx_hal_nand.c ****   if (__FMC_NAND_GET_FLAG(hnand->Instance, hnand->Init.NandBank, FMC_FLAG_FALLING_EDGE))
 313              		.loc 1 309 7
 314 0050 7B68     		ldr	r3, [r7, #4]
 315 0052 1B68     		ldr	r3, [r3]
 316 0054 5B68     		ldr	r3, [r3, #4]
 317 0056 03F00403 		and	r3, r3, #4
 318              		.loc 1 309 6
 319 005a 042B     		cmp	r3, #4
 320 005c 0AD1     		bne	.L12
 310:Drivers/STM32L4xx_HAL_Driver/Src/stm32l4xx_hal_nand.c ****   {
 311:Drivers/STM32L4xx_HAL_Driver/Src/stm32l4xx_hal_nand.c ****     /* NAND interrupt callback*/
 312:Drivers/STM32L4xx_HAL_Driver/Src/stm32l4xx_hal_nand.c **** #if (USE_HAL_NAND_REGISTER_CALLBACKS == 1)
 313:Drivers/STM32L4xx_HAL_Driver/Src/stm32l4xx_hal_nand.c ****     hnand->ItCallback(hnand);
 314:Drivers/STM32L4xx_HAL_Driver/Src/stm32l4xx_hal_nand.c **** #else
 315:Drivers/STM32L4xx_HAL_Driver/Src/stm32l4xx_hal_nand.c ****     HAL_NAND_ITCallback(hnand);
 321              		.loc 1 315 5
 322 005e 7868     		ldr	r0, [r7, #4]
ARM GAS  /tmp/ccUr9KqT.s 			page 12


 323 0060 FFF7FEFF 		bl	HAL_NAND_ITCallback
 316:Drivers/STM32L4xx_HAL_Driver/Src/stm32l4xx_hal_nand.c **** #endif /* (USE_HAL_NAND_REGISTER_CALLBACKS) */
 317:Drivers/STM32L4xx_HAL_Driver/Src/stm32l4xx_hal_nand.c **** 
 318:Drivers/STM32L4xx_HAL_Driver/Src/stm32l4xx_hal_nand.c ****     /* Clear NAND interrupt Falling edge pending bit */
 319:Drivers/STM32L4xx_HAL_Driver/Src/stm32l4xx_hal_nand.c ****     __FMC_NAND_CLEAR_FLAG(hnand->Instance, FMC_FLAG_FALLING_EDGE);
 324              		.loc 1 319 5
 325 0064 7B68     		ldr	r3, [r7, #4]
 326 0066 1B68     		ldr	r3, [r3]
 327 0068 5A68     		ldr	r2, [r3, #4]
 328 006a 7B68     		ldr	r3, [r7, #4]
 329 006c 1B68     		ldr	r3, [r3]
 330 006e 22F00402 		bic	r2, r2, #4
 331 0072 5A60     		str	r2, [r3, #4]
 332              	.L12:
 320:Drivers/STM32L4xx_HAL_Driver/Src/stm32l4xx_hal_nand.c ****   }
 321:Drivers/STM32L4xx_HAL_Driver/Src/stm32l4xx_hal_nand.c **** 
 322:Drivers/STM32L4xx_HAL_Driver/Src/stm32l4xx_hal_nand.c ****   /* Check NAND interrupt FIFO empty flag */
 323:Drivers/STM32L4xx_HAL_Driver/Src/stm32l4xx_hal_nand.c ****   if (__FMC_NAND_GET_FLAG(hnand->Instance, hnand->Init.NandBank, FMC_FLAG_FEMPT))
 333              		.loc 1 323 7
 334 0074 7B68     		ldr	r3, [r7, #4]
 335 0076 1B68     		ldr	r3, [r3]
 336 0078 5B68     		ldr	r3, [r3, #4]
 337 007a 03F04003 		and	r3, r3, #64
 338              		.loc 1 323 6
 339 007e 402B     		cmp	r3, #64
 340 0080 0AD1     		bne	.L14
 324:Drivers/STM32L4xx_HAL_Driver/Src/stm32l4xx_hal_nand.c ****   {
 325:Drivers/STM32L4xx_HAL_Driver/Src/stm32l4xx_hal_nand.c ****     /* NAND interrupt callback*/
 326:Drivers/STM32L4xx_HAL_Driver/Src/stm32l4xx_hal_nand.c **** #if (USE_HAL_NAND_REGISTER_CALLBACKS == 1)
 327:Drivers/STM32L4xx_HAL_Driver/Src/stm32l4xx_hal_nand.c ****     hnand->ItCallback(hnand);
 328:Drivers/STM32L4xx_HAL_Driver/Src/stm32l4xx_hal_nand.c **** #else
 329:Drivers/STM32L4xx_HAL_Driver/Src/stm32l4xx_hal_nand.c ****     HAL_NAND_ITCallback(hnand);
 341              		.loc 1 329 5
 342 0082 7868     		ldr	r0, [r7, #4]
 343 0084 FFF7FEFF 		bl	HAL_NAND_ITCallback
 330:Drivers/STM32L4xx_HAL_Driver/Src/stm32l4xx_hal_nand.c **** #endif /* (USE_HAL_NAND_REGISTER_CALLBACKS) */
 331:Drivers/STM32L4xx_HAL_Driver/Src/stm32l4xx_hal_nand.c **** 
 332:Drivers/STM32L4xx_HAL_Driver/Src/stm32l4xx_hal_nand.c ****     /* Clear NAND interrupt FIFO empty pending bit */
 333:Drivers/STM32L4xx_HAL_Driver/Src/stm32l4xx_hal_nand.c ****     __FMC_NAND_CLEAR_FLAG(hnand->Instance, FMC_FLAG_FEMPT);
 344              		.loc 1 333 5
 345 0088 7B68     		ldr	r3, [r7, #4]
 346 008a 1B68     		ldr	r3, [r3]
 347 008c 5A68     		ldr	r2, [r3, #4]
 348 008e 7B68     		ldr	r3, [r7, #4]
 349 0090 1B68     		ldr	r3, [r3]
 350 0092 22F04002 		bic	r2, r2, #64
 351 0096 5A60     		str	r2, [r3, #4]
 352              	.L14:
 334:Drivers/STM32L4xx_HAL_Driver/Src/stm32l4xx_hal_nand.c ****   }
 335:Drivers/STM32L4xx_HAL_Driver/Src/stm32l4xx_hal_nand.c **** 
 336:Drivers/STM32L4xx_HAL_Driver/Src/stm32l4xx_hal_nand.c **** }
 353              		.loc 1 336 1
 354 0098 00BF     		nop
 355 009a 0837     		adds	r7, r7, #8
 356              		.cfi_def_cfa_offset 8
 357 009c BD46     		mov	sp, r7
 358              		.cfi_def_cfa_register 13
ARM GAS  /tmp/ccUr9KqT.s 			page 13


 359              		@ sp needed
 360 009e 80BD     		pop	{r7, pc}
 361              		.cfi_endproc
 362              	.LFE449:
 364              		.section	.text.HAL_NAND_ITCallback,"ax",%progbits
 365              		.align	1
 366              		.weak	HAL_NAND_ITCallback
 367              		.syntax unified
 368              		.thumb
 369              		.thumb_func
 371              	HAL_NAND_ITCallback:
 372              	.LFB450:
 337:Drivers/STM32L4xx_HAL_Driver/Src/stm32l4xx_hal_nand.c **** 
 338:Drivers/STM32L4xx_HAL_Driver/Src/stm32l4xx_hal_nand.c **** /**
 339:Drivers/STM32L4xx_HAL_Driver/Src/stm32l4xx_hal_nand.c ****   * @brief  NAND interrupt feature callback
 340:Drivers/STM32L4xx_HAL_Driver/Src/stm32l4xx_hal_nand.c ****   * @param  hnand pointer to a NAND_HandleTypeDef structure that contains
 341:Drivers/STM32L4xx_HAL_Driver/Src/stm32l4xx_hal_nand.c ****   *                the configuration information for NAND module.
 342:Drivers/STM32L4xx_HAL_Driver/Src/stm32l4xx_hal_nand.c ****   * @retval None
 343:Drivers/STM32L4xx_HAL_Driver/Src/stm32l4xx_hal_nand.c ****   */
 344:Drivers/STM32L4xx_HAL_Driver/Src/stm32l4xx_hal_nand.c **** __weak void HAL_NAND_ITCallback(NAND_HandleTypeDef *hnand)
 345:Drivers/STM32L4xx_HAL_Driver/Src/stm32l4xx_hal_nand.c **** {
 373              		.loc 1 345 1
 374              		.cfi_startproc
 375              		@ args = 0, pretend = 0, frame = 8
 376              		@ frame_needed = 1, uses_anonymous_args = 0
 377              		@ link register save eliminated.
 378 0000 80B4     		push	{r7}
 379              		.cfi_def_cfa_offset 4
 380              		.cfi_offset 7, -4
 381 0002 83B0     		sub	sp, sp, #12
 382              		.cfi_def_cfa_offset 16
 383 0004 00AF     		add	r7, sp, #0
 384              		.cfi_def_cfa_register 7
 385 0006 7860     		str	r0, [r7, #4]
 346:Drivers/STM32L4xx_HAL_Driver/Src/stm32l4xx_hal_nand.c ****   /* Prevent unused argument(s) compilation warning */
 347:Drivers/STM32L4xx_HAL_Driver/Src/stm32l4xx_hal_nand.c ****   UNUSED(hnand);
 348:Drivers/STM32L4xx_HAL_Driver/Src/stm32l4xx_hal_nand.c **** 
 349:Drivers/STM32L4xx_HAL_Driver/Src/stm32l4xx_hal_nand.c ****   /* NOTE : This function Should not be modified, when the callback is needed,
 350:Drivers/STM32L4xx_HAL_Driver/Src/stm32l4xx_hal_nand.c ****             the HAL_NAND_ITCallback could be implemented in the user file
 351:Drivers/STM32L4xx_HAL_Driver/Src/stm32l4xx_hal_nand.c ****    */
 352:Drivers/STM32L4xx_HAL_Driver/Src/stm32l4xx_hal_nand.c **** }
 386              		.loc 1 352 1
 387 0008 00BF     		nop
 388 000a 0C37     		adds	r7, r7, #12
 389              		.cfi_def_cfa_offset 4
 390 000c BD46     		mov	sp, r7
 391              		.cfi_def_cfa_register 13
 392              		@ sp needed
 393 000e 5DF8047B 		ldr	r7, [sp], #4
 394              		.cfi_restore 7
 395              		.cfi_def_cfa_offset 0
 396 0012 7047     		bx	lr
 397              		.cfi_endproc
 398              	.LFE450:
 400              		.section	.text.HAL_NAND_Read_ID,"ax",%progbits
 401              		.align	1
 402              		.global	HAL_NAND_Read_ID
ARM GAS  /tmp/ccUr9KqT.s 			page 14


 403              		.syntax unified
 404              		.thumb
 405              		.thumb_func
 407              	HAL_NAND_Read_ID:
 408              	.LFB451:
 353:Drivers/STM32L4xx_HAL_Driver/Src/stm32l4xx_hal_nand.c **** 
 354:Drivers/STM32L4xx_HAL_Driver/Src/stm32l4xx_hal_nand.c **** /**
 355:Drivers/STM32L4xx_HAL_Driver/Src/stm32l4xx_hal_nand.c ****   * @}
 356:Drivers/STM32L4xx_HAL_Driver/Src/stm32l4xx_hal_nand.c ****   */
 357:Drivers/STM32L4xx_HAL_Driver/Src/stm32l4xx_hal_nand.c **** 
 358:Drivers/STM32L4xx_HAL_Driver/Src/stm32l4xx_hal_nand.c **** /** @defgroup NAND_Exported_Functions_Group2 Input and Output functions
 359:Drivers/STM32L4xx_HAL_Driver/Src/stm32l4xx_hal_nand.c ****   * @brief    Input Output and memory control functions
 360:Drivers/STM32L4xx_HAL_Driver/Src/stm32l4xx_hal_nand.c ****   *
 361:Drivers/STM32L4xx_HAL_Driver/Src/stm32l4xx_hal_nand.c ****   @verbatim
 362:Drivers/STM32L4xx_HAL_Driver/Src/stm32l4xx_hal_nand.c ****   ==============================================================================
 363:Drivers/STM32L4xx_HAL_Driver/Src/stm32l4xx_hal_nand.c ****                     ##### NAND Input and Output functions #####
 364:Drivers/STM32L4xx_HAL_Driver/Src/stm32l4xx_hal_nand.c ****   ==============================================================================
 365:Drivers/STM32L4xx_HAL_Driver/Src/stm32l4xx_hal_nand.c ****   [..]
 366:Drivers/STM32L4xx_HAL_Driver/Src/stm32l4xx_hal_nand.c ****     This section provides functions allowing to use and control the NAND
 367:Drivers/STM32L4xx_HAL_Driver/Src/stm32l4xx_hal_nand.c ****     memory
 368:Drivers/STM32L4xx_HAL_Driver/Src/stm32l4xx_hal_nand.c **** 
 369:Drivers/STM32L4xx_HAL_Driver/Src/stm32l4xx_hal_nand.c **** @endverbatim
 370:Drivers/STM32L4xx_HAL_Driver/Src/stm32l4xx_hal_nand.c ****   * @{
 371:Drivers/STM32L4xx_HAL_Driver/Src/stm32l4xx_hal_nand.c ****   */
 372:Drivers/STM32L4xx_HAL_Driver/Src/stm32l4xx_hal_nand.c **** 
 373:Drivers/STM32L4xx_HAL_Driver/Src/stm32l4xx_hal_nand.c **** /**
 374:Drivers/STM32L4xx_HAL_Driver/Src/stm32l4xx_hal_nand.c ****   * @brief  Read the NAND memory electronic signature
 375:Drivers/STM32L4xx_HAL_Driver/Src/stm32l4xx_hal_nand.c ****   * @param  hnand pointer to a NAND_HandleTypeDef structure that contains
 376:Drivers/STM32L4xx_HAL_Driver/Src/stm32l4xx_hal_nand.c ****   *                the configuration information for NAND module.
 377:Drivers/STM32L4xx_HAL_Driver/Src/stm32l4xx_hal_nand.c ****   * @param  pNAND_ID NAND ID structure
 378:Drivers/STM32L4xx_HAL_Driver/Src/stm32l4xx_hal_nand.c ****   * @retval HAL status
 379:Drivers/STM32L4xx_HAL_Driver/Src/stm32l4xx_hal_nand.c ****   */
 380:Drivers/STM32L4xx_HAL_Driver/Src/stm32l4xx_hal_nand.c **** HAL_StatusTypeDef HAL_NAND_Read_ID(NAND_HandleTypeDef *hnand, NAND_IDTypeDef *pNAND_ID)
 381:Drivers/STM32L4xx_HAL_Driver/Src/stm32l4xx_hal_nand.c **** {
 409              		.loc 1 381 1
 410              		.cfi_startproc
 411              		@ args = 0, pretend = 0, frame = 24
 412              		@ frame_needed = 1, uses_anonymous_args = 0
 413              		@ link register save eliminated.
 414 0000 80B4     		push	{r7}
 415              		.cfi_def_cfa_offset 4
 416              		.cfi_offset 7, -4
 417 0002 87B0     		sub	sp, sp, #28
 418              		.cfi_def_cfa_offset 32
 419 0004 00AF     		add	r7, sp, #0
 420              		.cfi_def_cfa_register 7
 421 0006 7860     		str	r0, [r7, #4]
 422 0008 3960     		str	r1, [r7]
 382:Drivers/STM32L4xx_HAL_Driver/Src/stm32l4xx_hal_nand.c ****   __IO uint32_t data = 0;
 423              		.loc 1 382 17
 424 000a 0023     		movs	r3, #0
 425 000c 3B61     		str	r3, [r7, #16]
 383:Drivers/STM32L4xx_HAL_Driver/Src/stm32l4xx_hal_nand.c ****   __IO uint32_t data1 = 0;
 426              		.loc 1 383 17
 427 000e 0023     		movs	r3, #0
 428 0010 FB60     		str	r3, [r7, #12]
 384:Drivers/STM32L4xx_HAL_Driver/Src/stm32l4xx_hal_nand.c ****   uint32_t deviceaddress;
ARM GAS  /tmp/ccUr9KqT.s 			page 15


 385:Drivers/STM32L4xx_HAL_Driver/Src/stm32l4xx_hal_nand.c **** 
 386:Drivers/STM32L4xx_HAL_Driver/Src/stm32l4xx_hal_nand.c ****   /* Check the NAND controller state */
 387:Drivers/STM32L4xx_HAL_Driver/Src/stm32l4xx_hal_nand.c ****   if (hnand->State == HAL_NAND_STATE_BUSY)
 429              		.loc 1 387 12
 430 0012 7B68     		ldr	r3, [r7, #4]
 431 0014 93F82130 		ldrb	r3, [r3, #33]
 432 0018 DBB2     		uxtb	r3, r3
 433              		.loc 1 387 6
 434 001a 022B     		cmp	r3, #2
 435 001c 01D1     		bne	.L17
 388:Drivers/STM32L4xx_HAL_Driver/Src/stm32l4xx_hal_nand.c ****   {
 389:Drivers/STM32L4xx_HAL_Driver/Src/stm32l4xx_hal_nand.c ****     return HAL_BUSY;
 436              		.loc 1 389 12
 437 001e 0223     		movs	r3, #2
 438 0020 66E0     		b	.L18
 439              	.L17:
 390:Drivers/STM32L4xx_HAL_Driver/Src/stm32l4xx_hal_nand.c ****   }
 391:Drivers/STM32L4xx_HAL_Driver/Src/stm32l4xx_hal_nand.c ****   else if (hnand->State == HAL_NAND_STATE_READY)
 440              		.loc 1 391 17
 441 0022 7B68     		ldr	r3, [r7, #4]
 442 0024 93F82130 		ldrb	r3, [r3, #33]
 443 0028 DBB2     		uxtb	r3, r3
 444              		.loc 1 391 11
 445 002a 012B     		cmp	r3, #1
 446 002c 5FD1     		bne	.L19
 392:Drivers/STM32L4xx_HAL_Driver/Src/stm32l4xx_hal_nand.c ****   {
 393:Drivers/STM32L4xx_HAL_Driver/Src/stm32l4xx_hal_nand.c ****     /* Process Locked */
 394:Drivers/STM32L4xx_HAL_Driver/Src/stm32l4xx_hal_nand.c ****     __HAL_LOCK(hnand);
 447              		.loc 1 394 5
 448 002e 7B68     		ldr	r3, [r7, #4]
 449 0030 93F82030 		ldrb	r3, [r3, #32]	@ zero_extendqisi2
 450 0034 012B     		cmp	r3, #1
 451 0036 01D1     		bne	.L20
 452              		.loc 1 394 5 is_stmt 0 discriminator 1
 453 0038 0223     		movs	r3, #2
 454              		.loc 1 394 5
 455 003a 59E0     		b	.L18
 456              	.L20:
 457              		.loc 1 394 5 discriminator 2
 458 003c 7B68     		ldr	r3, [r7, #4]
 459 003e 0122     		movs	r2, #1
 460 0040 83F82020 		strb	r2, [r3, #32]
 395:Drivers/STM32L4xx_HAL_Driver/Src/stm32l4xx_hal_nand.c **** 
 396:Drivers/STM32L4xx_HAL_Driver/Src/stm32l4xx_hal_nand.c ****     /* Update the NAND controller state */
 397:Drivers/STM32L4xx_HAL_Driver/Src/stm32l4xx_hal_nand.c ****     hnand->State = HAL_NAND_STATE_BUSY;
 461              		.loc 1 397 18 is_stmt 1
 462 0044 7B68     		ldr	r3, [r7, #4]
 463 0046 0222     		movs	r2, #2
 464 0048 83F82120 		strb	r2, [r3, #33]
 398:Drivers/STM32L4xx_HAL_Driver/Src/stm32l4xx_hal_nand.c **** 
 399:Drivers/STM32L4xx_HAL_Driver/Src/stm32l4xx_hal_nand.c ****     /* Identify the device address */
 400:Drivers/STM32L4xx_HAL_Driver/Src/stm32l4xx_hal_nand.c ****     deviceaddress = NAND_DEVICE;
 465              		.loc 1 400 19
 466 004c 4FF00043 		mov	r3, #-2147483648
 467 0050 7B61     		str	r3, [r7, #20]
 401:Drivers/STM32L4xx_HAL_Driver/Src/stm32l4xx_hal_nand.c **** 
 402:Drivers/STM32L4xx_HAL_Driver/Src/stm32l4xx_hal_nand.c ****     /* Send Read ID command sequence */
ARM GAS  /tmp/ccUr9KqT.s 			page 16


 403:Drivers/STM32L4xx_HAL_Driver/Src/stm32l4xx_hal_nand.c ****     *(__IO uint8_t *)((uint32_t)(deviceaddress | CMD_AREA))  = NAND_CMD_READID;
 468              		.loc 1 403 23
 469 0052 7B69     		ldr	r3, [r7, #20]
 470 0054 43F48033 		orr	r3, r3, #65536
 471              		.loc 1 403 62
 472 0058 9022     		movs	r2, #144
 473 005a 1A70     		strb	r2, [r3]
 474              	.LBB340:
 475              	.LBB341:
 476              		.file 2 "Drivers/CMSIS/Core/Include/cmsis_gcc.h"
   1:Drivers/CMSIS/Core/Include/cmsis_gcc.h **** /**************************************************************************//**
   2:Drivers/CMSIS/Core/Include/cmsis_gcc.h ****  * @file     cmsis_gcc.h
   3:Drivers/CMSIS/Core/Include/cmsis_gcc.h ****  * @brief    CMSIS compiler GCC header file
   4:Drivers/CMSIS/Core/Include/cmsis_gcc.h ****  * @version  V5.2.0
   5:Drivers/CMSIS/Core/Include/cmsis_gcc.h ****  * @date     08. May 2019
   6:Drivers/CMSIS/Core/Include/cmsis_gcc.h ****  ******************************************************************************/
   7:Drivers/CMSIS/Core/Include/cmsis_gcc.h **** /*
   8:Drivers/CMSIS/Core/Include/cmsis_gcc.h ****  * Copyright (c) 2009-2019 Arm Limited. All rights reserved.
   9:Drivers/CMSIS/Core/Include/cmsis_gcc.h ****  *
  10:Drivers/CMSIS/Core/Include/cmsis_gcc.h ****  * SPDX-License-Identifier: Apache-2.0
  11:Drivers/CMSIS/Core/Include/cmsis_gcc.h ****  *
  12:Drivers/CMSIS/Core/Include/cmsis_gcc.h ****  * Licensed under the Apache License, Version 2.0 (the License); you may
  13:Drivers/CMSIS/Core/Include/cmsis_gcc.h ****  * not use this file except in compliance with the License.
  14:Drivers/CMSIS/Core/Include/cmsis_gcc.h ****  * You may obtain a copy of the License at
  15:Drivers/CMSIS/Core/Include/cmsis_gcc.h ****  *
  16:Drivers/CMSIS/Core/Include/cmsis_gcc.h ****  * www.apache.org/licenses/LICENSE-2.0
  17:Drivers/CMSIS/Core/Include/cmsis_gcc.h ****  *
  18:Drivers/CMSIS/Core/Include/cmsis_gcc.h ****  * Unless required by applicable law or agreed to in writing, software
  19:Drivers/CMSIS/Core/Include/cmsis_gcc.h ****  * distributed under the License is distributed on an AS IS BASIS, WITHOUT
  20:Drivers/CMSIS/Core/Include/cmsis_gcc.h ****  * WARRANTIES OR CONDITIONS OF ANY KIND, either express or implied.
  21:Drivers/CMSIS/Core/Include/cmsis_gcc.h ****  * See the License for the specific language governing permissions and
  22:Drivers/CMSIS/Core/Include/cmsis_gcc.h ****  * limitations under the License.
  23:Drivers/CMSIS/Core/Include/cmsis_gcc.h ****  */
  24:Drivers/CMSIS/Core/Include/cmsis_gcc.h **** 
  25:Drivers/CMSIS/Core/Include/cmsis_gcc.h **** #ifndef __CMSIS_GCC_H
  26:Drivers/CMSIS/Core/Include/cmsis_gcc.h **** #define __CMSIS_GCC_H
  27:Drivers/CMSIS/Core/Include/cmsis_gcc.h **** 
  28:Drivers/CMSIS/Core/Include/cmsis_gcc.h **** /* ignore some GCC warnings */
  29:Drivers/CMSIS/Core/Include/cmsis_gcc.h **** #pragma GCC diagnostic push
  30:Drivers/CMSIS/Core/Include/cmsis_gcc.h **** #pragma GCC diagnostic ignored "-Wsign-conversion"
  31:Drivers/CMSIS/Core/Include/cmsis_gcc.h **** #pragma GCC diagnostic ignored "-Wconversion"
  32:Drivers/CMSIS/Core/Include/cmsis_gcc.h **** #pragma GCC diagnostic ignored "-Wunused-parameter"
  33:Drivers/CMSIS/Core/Include/cmsis_gcc.h **** 
  34:Drivers/CMSIS/Core/Include/cmsis_gcc.h **** /* Fallback for __has_builtin */
  35:Drivers/CMSIS/Core/Include/cmsis_gcc.h **** #ifndef __has_builtin
  36:Drivers/CMSIS/Core/Include/cmsis_gcc.h ****   #define __has_builtin(x) (0)
  37:Drivers/CMSIS/Core/Include/cmsis_gcc.h **** #endif
  38:Drivers/CMSIS/Core/Include/cmsis_gcc.h **** 
  39:Drivers/CMSIS/Core/Include/cmsis_gcc.h **** /* CMSIS compiler specific defines */
  40:Drivers/CMSIS/Core/Include/cmsis_gcc.h **** #ifndef   __ASM
  41:Drivers/CMSIS/Core/Include/cmsis_gcc.h ****   #define __ASM                                  __asm
  42:Drivers/CMSIS/Core/Include/cmsis_gcc.h **** #endif
  43:Drivers/CMSIS/Core/Include/cmsis_gcc.h **** #ifndef   __INLINE
  44:Drivers/CMSIS/Core/Include/cmsis_gcc.h ****   #define __INLINE                               inline
  45:Drivers/CMSIS/Core/Include/cmsis_gcc.h **** #endif
  46:Drivers/CMSIS/Core/Include/cmsis_gcc.h **** #ifndef   __STATIC_INLINE
  47:Drivers/CMSIS/Core/Include/cmsis_gcc.h ****   #define __STATIC_INLINE                        static inline
ARM GAS  /tmp/ccUr9KqT.s 			page 17


  48:Drivers/CMSIS/Core/Include/cmsis_gcc.h **** #endif
  49:Drivers/CMSIS/Core/Include/cmsis_gcc.h **** #ifndef   __STATIC_FORCEINLINE                 
  50:Drivers/CMSIS/Core/Include/cmsis_gcc.h ****   #define __STATIC_FORCEINLINE                   __attribute__((always_inline)) static inline
  51:Drivers/CMSIS/Core/Include/cmsis_gcc.h **** #endif                                           
  52:Drivers/CMSIS/Core/Include/cmsis_gcc.h **** #ifndef   __NO_RETURN
  53:Drivers/CMSIS/Core/Include/cmsis_gcc.h ****   #define __NO_RETURN                            __attribute__((__noreturn__))
  54:Drivers/CMSIS/Core/Include/cmsis_gcc.h **** #endif
  55:Drivers/CMSIS/Core/Include/cmsis_gcc.h **** #ifndef   __USED
  56:Drivers/CMSIS/Core/Include/cmsis_gcc.h ****   #define __USED                                 __attribute__((used))
  57:Drivers/CMSIS/Core/Include/cmsis_gcc.h **** #endif
  58:Drivers/CMSIS/Core/Include/cmsis_gcc.h **** #ifndef   __WEAK
  59:Drivers/CMSIS/Core/Include/cmsis_gcc.h ****   #define __WEAK                                 __attribute__((weak))
  60:Drivers/CMSIS/Core/Include/cmsis_gcc.h **** #endif
  61:Drivers/CMSIS/Core/Include/cmsis_gcc.h **** #ifndef   __PACKED
  62:Drivers/CMSIS/Core/Include/cmsis_gcc.h ****   #define __PACKED                               __attribute__((packed, aligned(1)))
  63:Drivers/CMSIS/Core/Include/cmsis_gcc.h **** #endif
  64:Drivers/CMSIS/Core/Include/cmsis_gcc.h **** #ifndef   __PACKED_STRUCT
  65:Drivers/CMSIS/Core/Include/cmsis_gcc.h ****   #define __PACKED_STRUCT                        struct __attribute__((packed, aligned(1)))
  66:Drivers/CMSIS/Core/Include/cmsis_gcc.h **** #endif
  67:Drivers/CMSIS/Core/Include/cmsis_gcc.h **** #ifndef   __PACKED_UNION
  68:Drivers/CMSIS/Core/Include/cmsis_gcc.h ****   #define __PACKED_UNION                         union __attribute__((packed, aligned(1)))
  69:Drivers/CMSIS/Core/Include/cmsis_gcc.h **** #endif
  70:Drivers/CMSIS/Core/Include/cmsis_gcc.h **** #ifndef   __UNALIGNED_UINT32        /* deprecated */
  71:Drivers/CMSIS/Core/Include/cmsis_gcc.h ****   #pragma GCC diagnostic push
  72:Drivers/CMSIS/Core/Include/cmsis_gcc.h ****   #pragma GCC diagnostic ignored "-Wpacked"
  73:Drivers/CMSIS/Core/Include/cmsis_gcc.h ****   #pragma GCC diagnostic ignored "-Wattributes"
  74:Drivers/CMSIS/Core/Include/cmsis_gcc.h ****   struct __attribute__((packed)) T_UINT32 { uint32_t v; };
  75:Drivers/CMSIS/Core/Include/cmsis_gcc.h ****   #pragma GCC diagnostic pop
  76:Drivers/CMSIS/Core/Include/cmsis_gcc.h ****   #define __UNALIGNED_UINT32(x)                  (((struct T_UINT32 *)(x))->v)
  77:Drivers/CMSIS/Core/Include/cmsis_gcc.h **** #endif
  78:Drivers/CMSIS/Core/Include/cmsis_gcc.h **** #ifndef   __UNALIGNED_UINT16_WRITE
  79:Drivers/CMSIS/Core/Include/cmsis_gcc.h ****   #pragma GCC diagnostic push
  80:Drivers/CMSIS/Core/Include/cmsis_gcc.h ****   #pragma GCC diagnostic ignored "-Wpacked"
  81:Drivers/CMSIS/Core/Include/cmsis_gcc.h ****   #pragma GCC diagnostic ignored "-Wattributes"
  82:Drivers/CMSIS/Core/Include/cmsis_gcc.h ****   __PACKED_STRUCT T_UINT16_WRITE { uint16_t v; };
  83:Drivers/CMSIS/Core/Include/cmsis_gcc.h ****   #pragma GCC diagnostic pop
  84:Drivers/CMSIS/Core/Include/cmsis_gcc.h ****   #define __UNALIGNED_UINT16_WRITE(addr, val)    (void)((((struct T_UINT16_WRITE *)(void *)(addr))-
  85:Drivers/CMSIS/Core/Include/cmsis_gcc.h **** #endif
  86:Drivers/CMSIS/Core/Include/cmsis_gcc.h **** #ifndef   __UNALIGNED_UINT16_READ
  87:Drivers/CMSIS/Core/Include/cmsis_gcc.h ****   #pragma GCC diagnostic push
  88:Drivers/CMSIS/Core/Include/cmsis_gcc.h ****   #pragma GCC diagnostic ignored "-Wpacked"
  89:Drivers/CMSIS/Core/Include/cmsis_gcc.h ****   #pragma GCC diagnostic ignored "-Wattributes"
  90:Drivers/CMSIS/Core/Include/cmsis_gcc.h ****   __PACKED_STRUCT T_UINT16_READ { uint16_t v; };
  91:Drivers/CMSIS/Core/Include/cmsis_gcc.h ****   #pragma GCC diagnostic pop
  92:Drivers/CMSIS/Core/Include/cmsis_gcc.h ****   #define __UNALIGNED_UINT16_READ(addr)          (((const struct T_UINT16_READ *)(const void *)(add
  93:Drivers/CMSIS/Core/Include/cmsis_gcc.h **** #endif
  94:Drivers/CMSIS/Core/Include/cmsis_gcc.h **** #ifndef   __UNALIGNED_UINT32_WRITE
  95:Drivers/CMSIS/Core/Include/cmsis_gcc.h ****   #pragma GCC diagnostic push
  96:Drivers/CMSIS/Core/Include/cmsis_gcc.h ****   #pragma GCC diagnostic ignored "-Wpacked"
  97:Drivers/CMSIS/Core/Include/cmsis_gcc.h ****   #pragma GCC diagnostic ignored "-Wattributes"
  98:Drivers/CMSIS/Core/Include/cmsis_gcc.h ****   __PACKED_STRUCT T_UINT32_WRITE { uint32_t v; };
  99:Drivers/CMSIS/Core/Include/cmsis_gcc.h ****   #pragma GCC diagnostic pop
 100:Drivers/CMSIS/Core/Include/cmsis_gcc.h ****   #define __UNALIGNED_UINT32_WRITE(addr, val)    (void)((((struct T_UINT32_WRITE *)(void *)(addr))-
 101:Drivers/CMSIS/Core/Include/cmsis_gcc.h **** #endif
 102:Drivers/CMSIS/Core/Include/cmsis_gcc.h **** #ifndef   __UNALIGNED_UINT32_READ
 103:Drivers/CMSIS/Core/Include/cmsis_gcc.h ****   #pragma GCC diagnostic push
 104:Drivers/CMSIS/Core/Include/cmsis_gcc.h ****   #pragma GCC diagnostic ignored "-Wpacked"
ARM GAS  /tmp/ccUr9KqT.s 			page 18


 105:Drivers/CMSIS/Core/Include/cmsis_gcc.h ****   #pragma GCC diagnostic ignored "-Wattributes"
 106:Drivers/CMSIS/Core/Include/cmsis_gcc.h ****   __PACKED_STRUCT T_UINT32_READ { uint32_t v; };
 107:Drivers/CMSIS/Core/Include/cmsis_gcc.h ****   #pragma GCC diagnostic pop
 108:Drivers/CMSIS/Core/Include/cmsis_gcc.h ****   #define __UNALIGNED_UINT32_READ(addr)          (((const struct T_UINT32_READ *)(const void *)(add
 109:Drivers/CMSIS/Core/Include/cmsis_gcc.h **** #endif
 110:Drivers/CMSIS/Core/Include/cmsis_gcc.h **** #ifndef   __ALIGNED
 111:Drivers/CMSIS/Core/Include/cmsis_gcc.h ****   #define __ALIGNED(x)                           __attribute__((aligned(x)))
 112:Drivers/CMSIS/Core/Include/cmsis_gcc.h **** #endif
 113:Drivers/CMSIS/Core/Include/cmsis_gcc.h **** #ifndef   __RESTRICT
 114:Drivers/CMSIS/Core/Include/cmsis_gcc.h ****   #define __RESTRICT                             __restrict
 115:Drivers/CMSIS/Core/Include/cmsis_gcc.h **** #endif
 116:Drivers/CMSIS/Core/Include/cmsis_gcc.h **** #ifndef   __COMPILER_BARRIER
 117:Drivers/CMSIS/Core/Include/cmsis_gcc.h ****   #define __COMPILER_BARRIER()                   __ASM volatile("":::"memory")
 118:Drivers/CMSIS/Core/Include/cmsis_gcc.h **** #endif
 119:Drivers/CMSIS/Core/Include/cmsis_gcc.h **** 
 120:Drivers/CMSIS/Core/Include/cmsis_gcc.h **** /* #########################  Startup and Lowlevel Init  ######################## */
 121:Drivers/CMSIS/Core/Include/cmsis_gcc.h **** 
 122:Drivers/CMSIS/Core/Include/cmsis_gcc.h **** #ifndef __PROGRAM_START
 123:Drivers/CMSIS/Core/Include/cmsis_gcc.h **** 
 124:Drivers/CMSIS/Core/Include/cmsis_gcc.h **** /**
 125:Drivers/CMSIS/Core/Include/cmsis_gcc.h ****   \brief   Initializes data and bss sections
 126:Drivers/CMSIS/Core/Include/cmsis_gcc.h ****   \details This default implementations initialized all data and additional bss
 127:Drivers/CMSIS/Core/Include/cmsis_gcc.h ****            sections relying on .copy.table and .zero.table specified properly
 128:Drivers/CMSIS/Core/Include/cmsis_gcc.h ****            in the used linker script.
 129:Drivers/CMSIS/Core/Include/cmsis_gcc.h ****   
 130:Drivers/CMSIS/Core/Include/cmsis_gcc.h ****  */
 131:Drivers/CMSIS/Core/Include/cmsis_gcc.h **** __STATIC_FORCEINLINE __NO_RETURN void __cmsis_start(void)
 132:Drivers/CMSIS/Core/Include/cmsis_gcc.h **** {
 133:Drivers/CMSIS/Core/Include/cmsis_gcc.h ****   extern void _start(void) __NO_RETURN;
 134:Drivers/CMSIS/Core/Include/cmsis_gcc.h ****   
 135:Drivers/CMSIS/Core/Include/cmsis_gcc.h ****   typedef struct {
 136:Drivers/CMSIS/Core/Include/cmsis_gcc.h ****     uint32_t const* src;
 137:Drivers/CMSIS/Core/Include/cmsis_gcc.h ****     uint32_t* dest;
 138:Drivers/CMSIS/Core/Include/cmsis_gcc.h ****     uint32_t  wlen;
 139:Drivers/CMSIS/Core/Include/cmsis_gcc.h ****   } __copy_table_t;
 140:Drivers/CMSIS/Core/Include/cmsis_gcc.h ****   
 141:Drivers/CMSIS/Core/Include/cmsis_gcc.h ****   typedef struct {
 142:Drivers/CMSIS/Core/Include/cmsis_gcc.h ****     uint32_t* dest;
 143:Drivers/CMSIS/Core/Include/cmsis_gcc.h ****     uint32_t  wlen;
 144:Drivers/CMSIS/Core/Include/cmsis_gcc.h ****   } __zero_table_t;
 145:Drivers/CMSIS/Core/Include/cmsis_gcc.h ****   
 146:Drivers/CMSIS/Core/Include/cmsis_gcc.h ****   extern const __copy_table_t __copy_table_start__;
 147:Drivers/CMSIS/Core/Include/cmsis_gcc.h ****   extern const __copy_table_t __copy_table_end__;
 148:Drivers/CMSIS/Core/Include/cmsis_gcc.h ****   extern const __zero_table_t __zero_table_start__;
 149:Drivers/CMSIS/Core/Include/cmsis_gcc.h ****   extern const __zero_table_t __zero_table_end__;
 150:Drivers/CMSIS/Core/Include/cmsis_gcc.h **** 
 151:Drivers/CMSIS/Core/Include/cmsis_gcc.h ****   for (__copy_table_t const* pTable = &__copy_table_start__; pTable < &__copy_table_end__; ++pTable
 152:Drivers/CMSIS/Core/Include/cmsis_gcc.h ****     for(uint32_t i=0u; i<pTable->wlen; ++i) {
 153:Drivers/CMSIS/Core/Include/cmsis_gcc.h ****       pTable->dest[i] = pTable->src[i];
 154:Drivers/CMSIS/Core/Include/cmsis_gcc.h ****     }
 155:Drivers/CMSIS/Core/Include/cmsis_gcc.h ****   }
 156:Drivers/CMSIS/Core/Include/cmsis_gcc.h ****  
 157:Drivers/CMSIS/Core/Include/cmsis_gcc.h ****   for (__zero_table_t const* pTable = &__zero_table_start__; pTable < &__zero_table_end__; ++pTable
 158:Drivers/CMSIS/Core/Include/cmsis_gcc.h ****     for(uint32_t i=0u; i<pTable->wlen; ++i) {
 159:Drivers/CMSIS/Core/Include/cmsis_gcc.h ****       pTable->dest[i] = 0u;
 160:Drivers/CMSIS/Core/Include/cmsis_gcc.h ****     }
 161:Drivers/CMSIS/Core/Include/cmsis_gcc.h ****   }
ARM GAS  /tmp/ccUr9KqT.s 			page 19


 162:Drivers/CMSIS/Core/Include/cmsis_gcc.h ****  
 163:Drivers/CMSIS/Core/Include/cmsis_gcc.h ****   _start();
 164:Drivers/CMSIS/Core/Include/cmsis_gcc.h **** }
 165:Drivers/CMSIS/Core/Include/cmsis_gcc.h ****   
 166:Drivers/CMSIS/Core/Include/cmsis_gcc.h **** #define __PROGRAM_START           __cmsis_start
 167:Drivers/CMSIS/Core/Include/cmsis_gcc.h **** #endif
 168:Drivers/CMSIS/Core/Include/cmsis_gcc.h **** 
 169:Drivers/CMSIS/Core/Include/cmsis_gcc.h **** #ifndef __INITIAL_SP
 170:Drivers/CMSIS/Core/Include/cmsis_gcc.h **** #define __INITIAL_SP              __StackTop
 171:Drivers/CMSIS/Core/Include/cmsis_gcc.h **** #endif
 172:Drivers/CMSIS/Core/Include/cmsis_gcc.h **** 
 173:Drivers/CMSIS/Core/Include/cmsis_gcc.h **** #ifndef __STACK_LIMIT
 174:Drivers/CMSIS/Core/Include/cmsis_gcc.h **** #define __STACK_LIMIT             __StackLimit
 175:Drivers/CMSIS/Core/Include/cmsis_gcc.h **** #endif
 176:Drivers/CMSIS/Core/Include/cmsis_gcc.h **** 
 177:Drivers/CMSIS/Core/Include/cmsis_gcc.h **** #ifndef __VECTOR_TABLE
 178:Drivers/CMSIS/Core/Include/cmsis_gcc.h **** #define __VECTOR_TABLE            __Vectors
 179:Drivers/CMSIS/Core/Include/cmsis_gcc.h **** #endif
 180:Drivers/CMSIS/Core/Include/cmsis_gcc.h **** 
 181:Drivers/CMSIS/Core/Include/cmsis_gcc.h **** #ifndef __VECTOR_TABLE_ATTRIBUTE
 182:Drivers/CMSIS/Core/Include/cmsis_gcc.h **** #define __VECTOR_TABLE_ATTRIBUTE  __attribute((used, section(".vectors")))
 183:Drivers/CMSIS/Core/Include/cmsis_gcc.h **** #endif
 184:Drivers/CMSIS/Core/Include/cmsis_gcc.h **** 
 185:Drivers/CMSIS/Core/Include/cmsis_gcc.h **** /* ###########################  Core Function Access  ########################### */
 186:Drivers/CMSIS/Core/Include/cmsis_gcc.h **** /** \ingroup  CMSIS_Core_FunctionInterface
 187:Drivers/CMSIS/Core/Include/cmsis_gcc.h ****     \defgroup CMSIS_Core_RegAccFunctions CMSIS Core Register Access Functions
 188:Drivers/CMSIS/Core/Include/cmsis_gcc.h ****   @{
 189:Drivers/CMSIS/Core/Include/cmsis_gcc.h ****  */
 190:Drivers/CMSIS/Core/Include/cmsis_gcc.h **** 
 191:Drivers/CMSIS/Core/Include/cmsis_gcc.h **** /**
 192:Drivers/CMSIS/Core/Include/cmsis_gcc.h ****   \brief   Enable IRQ Interrupts
 193:Drivers/CMSIS/Core/Include/cmsis_gcc.h ****   \details Enables IRQ interrupts by clearing the I-bit in the CPSR.
 194:Drivers/CMSIS/Core/Include/cmsis_gcc.h ****            Can only be executed in Privileged modes.
 195:Drivers/CMSIS/Core/Include/cmsis_gcc.h ****  */
 196:Drivers/CMSIS/Core/Include/cmsis_gcc.h **** __STATIC_FORCEINLINE void __enable_irq(void)
 197:Drivers/CMSIS/Core/Include/cmsis_gcc.h **** {
 198:Drivers/CMSIS/Core/Include/cmsis_gcc.h ****   __ASM volatile ("cpsie i" : : : "memory");
 199:Drivers/CMSIS/Core/Include/cmsis_gcc.h **** }
 200:Drivers/CMSIS/Core/Include/cmsis_gcc.h **** 
 201:Drivers/CMSIS/Core/Include/cmsis_gcc.h **** 
 202:Drivers/CMSIS/Core/Include/cmsis_gcc.h **** /**
 203:Drivers/CMSIS/Core/Include/cmsis_gcc.h ****   \brief   Disable IRQ Interrupts
 204:Drivers/CMSIS/Core/Include/cmsis_gcc.h ****   \details Disables IRQ interrupts by setting the I-bit in the CPSR.
 205:Drivers/CMSIS/Core/Include/cmsis_gcc.h ****            Can only be executed in Privileged modes.
 206:Drivers/CMSIS/Core/Include/cmsis_gcc.h ****  */
 207:Drivers/CMSIS/Core/Include/cmsis_gcc.h **** __STATIC_FORCEINLINE void __disable_irq(void)
 208:Drivers/CMSIS/Core/Include/cmsis_gcc.h **** {
 209:Drivers/CMSIS/Core/Include/cmsis_gcc.h ****   __ASM volatile ("cpsid i" : : : "memory");
 210:Drivers/CMSIS/Core/Include/cmsis_gcc.h **** }
 211:Drivers/CMSIS/Core/Include/cmsis_gcc.h **** 
 212:Drivers/CMSIS/Core/Include/cmsis_gcc.h **** 
 213:Drivers/CMSIS/Core/Include/cmsis_gcc.h **** /**
 214:Drivers/CMSIS/Core/Include/cmsis_gcc.h ****   \brief   Get Control Register
 215:Drivers/CMSIS/Core/Include/cmsis_gcc.h ****   \details Returns the content of the Control Register.
 216:Drivers/CMSIS/Core/Include/cmsis_gcc.h ****   \return               Control Register value
 217:Drivers/CMSIS/Core/Include/cmsis_gcc.h ****  */
 218:Drivers/CMSIS/Core/Include/cmsis_gcc.h **** __STATIC_FORCEINLINE uint32_t __get_CONTROL(void)
ARM GAS  /tmp/ccUr9KqT.s 			page 20


 219:Drivers/CMSIS/Core/Include/cmsis_gcc.h **** {
 220:Drivers/CMSIS/Core/Include/cmsis_gcc.h ****   uint32_t result;
 221:Drivers/CMSIS/Core/Include/cmsis_gcc.h **** 
 222:Drivers/CMSIS/Core/Include/cmsis_gcc.h ****   __ASM volatile ("MRS %0, control" : "=r" (result) );
 223:Drivers/CMSIS/Core/Include/cmsis_gcc.h ****   return(result);
 224:Drivers/CMSIS/Core/Include/cmsis_gcc.h **** }
 225:Drivers/CMSIS/Core/Include/cmsis_gcc.h **** 
 226:Drivers/CMSIS/Core/Include/cmsis_gcc.h **** 
 227:Drivers/CMSIS/Core/Include/cmsis_gcc.h **** #if (defined (__ARM_FEATURE_CMSE ) && (__ARM_FEATURE_CMSE == 3))
 228:Drivers/CMSIS/Core/Include/cmsis_gcc.h **** /**
 229:Drivers/CMSIS/Core/Include/cmsis_gcc.h ****   \brief   Get Control Register (non-secure)
 230:Drivers/CMSIS/Core/Include/cmsis_gcc.h ****   \details Returns the content of the non-secure Control Register when in secure mode.
 231:Drivers/CMSIS/Core/Include/cmsis_gcc.h ****   \return               non-secure Control Register value
 232:Drivers/CMSIS/Core/Include/cmsis_gcc.h ****  */
 233:Drivers/CMSIS/Core/Include/cmsis_gcc.h **** __STATIC_FORCEINLINE uint32_t __TZ_get_CONTROL_NS(void)
 234:Drivers/CMSIS/Core/Include/cmsis_gcc.h **** {
 235:Drivers/CMSIS/Core/Include/cmsis_gcc.h ****   uint32_t result;
 236:Drivers/CMSIS/Core/Include/cmsis_gcc.h **** 
 237:Drivers/CMSIS/Core/Include/cmsis_gcc.h ****   __ASM volatile ("MRS %0, control_ns" : "=r" (result) );
 238:Drivers/CMSIS/Core/Include/cmsis_gcc.h ****   return(result);
 239:Drivers/CMSIS/Core/Include/cmsis_gcc.h **** }
 240:Drivers/CMSIS/Core/Include/cmsis_gcc.h **** #endif
 241:Drivers/CMSIS/Core/Include/cmsis_gcc.h **** 
 242:Drivers/CMSIS/Core/Include/cmsis_gcc.h **** 
 243:Drivers/CMSIS/Core/Include/cmsis_gcc.h **** /**
 244:Drivers/CMSIS/Core/Include/cmsis_gcc.h ****   \brief   Set Control Register
 245:Drivers/CMSIS/Core/Include/cmsis_gcc.h ****   \details Writes the given value to the Control Register.
 246:Drivers/CMSIS/Core/Include/cmsis_gcc.h ****   \param [in]    control  Control Register value to set
 247:Drivers/CMSIS/Core/Include/cmsis_gcc.h ****  */
 248:Drivers/CMSIS/Core/Include/cmsis_gcc.h **** __STATIC_FORCEINLINE void __set_CONTROL(uint32_t control)
 249:Drivers/CMSIS/Core/Include/cmsis_gcc.h **** {
 250:Drivers/CMSIS/Core/Include/cmsis_gcc.h ****   __ASM volatile ("MSR control, %0" : : "r" (control) : "memory");
 251:Drivers/CMSIS/Core/Include/cmsis_gcc.h **** }
 252:Drivers/CMSIS/Core/Include/cmsis_gcc.h **** 
 253:Drivers/CMSIS/Core/Include/cmsis_gcc.h **** 
 254:Drivers/CMSIS/Core/Include/cmsis_gcc.h **** #if (defined (__ARM_FEATURE_CMSE ) && (__ARM_FEATURE_CMSE == 3))
 255:Drivers/CMSIS/Core/Include/cmsis_gcc.h **** /**
 256:Drivers/CMSIS/Core/Include/cmsis_gcc.h ****   \brief   Set Control Register (non-secure)
 257:Drivers/CMSIS/Core/Include/cmsis_gcc.h ****   \details Writes the given value to the non-secure Control Register when in secure state.
 258:Drivers/CMSIS/Core/Include/cmsis_gcc.h ****   \param [in]    control  Control Register value to set
 259:Drivers/CMSIS/Core/Include/cmsis_gcc.h ****  */
 260:Drivers/CMSIS/Core/Include/cmsis_gcc.h **** __STATIC_FORCEINLINE void __TZ_set_CONTROL_NS(uint32_t control)
 261:Drivers/CMSIS/Core/Include/cmsis_gcc.h **** {
 262:Drivers/CMSIS/Core/Include/cmsis_gcc.h ****   __ASM volatile ("MSR control_ns, %0" : : "r" (control) : "memory");
 263:Drivers/CMSIS/Core/Include/cmsis_gcc.h **** }
 264:Drivers/CMSIS/Core/Include/cmsis_gcc.h **** #endif
 265:Drivers/CMSIS/Core/Include/cmsis_gcc.h **** 
 266:Drivers/CMSIS/Core/Include/cmsis_gcc.h **** 
 267:Drivers/CMSIS/Core/Include/cmsis_gcc.h **** /**
 268:Drivers/CMSIS/Core/Include/cmsis_gcc.h ****   \brief   Get IPSR Register
 269:Drivers/CMSIS/Core/Include/cmsis_gcc.h ****   \details Returns the content of the IPSR Register.
 270:Drivers/CMSIS/Core/Include/cmsis_gcc.h ****   \return               IPSR Register value
 271:Drivers/CMSIS/Core/Include/cmsis_gcc.h ****  */
 272:Drivers/CMSIS/Core/Include/cmsis_gcc.h **** __STATIC_FORCEINLINE uint32_t __get_IPSR(void)
 273:Drivers/CMSIS/Core/Include/cmsis_gcc.h **** {
 274:Drivers/CMSIS/Core/Include/cmsis_gcc.h ****   uint32_t result;
 275:Drivers/CMSIS/Core/Include/cmsis_gcc.h **** 
ARM GAS  /tmp/ccUr9KqT.s 			page 21


 276:Drivers/CMSIS/Core/Include/cmsis_gcc.h ****   __ASM volatile ("MRS %0, ipsr" : "=r" (result) );
 277:Drivers/CMSIS/Core/Include/cmsis_gcc.h ****   return(result);
 278:Drivers/CMSIS/Core/Include/cmsis_gcc.h **** }
 279:Drivers/CMSIS/Core/Include/cmsis_gcc.h **** 
 280:Drivers/CMSIS/Core/Include/cmsis_gcc.h **** 
 281:Drivers/CMSIS/Core/Include/cmsis_gcc.h **** /**
 282:Drivers/CMSIS/Core/Include/cmsis_gcc.h ****   \brief   Get APSR Register
 283:Drivers/CMSIS/Core/Include/cmsis_gcc.h ****   \details Returns the content of the APSR Register.
 284:Drivers/CMSIS/Core/Include/cmsis_gcc.h ****   \return               APSR Register value
 285:Drivers/CMSIS/Core/Include/cmsis_gcc.h ****  */
 286:Drivers/CMSIS/Core/Include/cmsis_gcc.h **** __STATIC_FORCEINLINE uint32_t __get_APSR(void)
 287:Drivers/CMSIS/Core/Include/cmsis_gcc.h **** {
 288:Drivers/CMSIS/Core/Include/cmsis_gcc.h ****   uint32_t result;
 289:Drivers/CMSIS/Core/Include/cmsis_gcc.h **** 
 290:Drivers/CMSIS/Core/Include/cmsis_gcc.h ****   __ASM volatile ("MRS %0, apsr" : "=r" (result) );
 291:Drivers/CMSIS/Core/Include/cmsis_gcc.h ****   return(result);
 292:Drivers/CMSIS/Core/Include/cmsis_gcc.h **** }
 293:Drivers/CMSIS/Core/Include/cmsis_gcc.h **** 
 294:Drivers/CMSIS/Core/Include/cmsis_gcc.h **** 
 295:Drivers/CMSIS/Core/Include/cmsis_gcc.h **** /**
 296:Drivers/CMSIS/Core/Include/cmsis_gcc.h ****   \brief   Get xPSR Register
 297:Drivers/CMSIS/Core/Include/cmsis_gcc.h ****   \details Returns the content of the xPSR Register.
 298:Drivers/CMSIS/Core/Include/cmsis_gcc.h ****   \return               xPSR Register value
 299:Drivers/CMSIS/Core/Include/cmsis_gcc.h ****  */
 300:Drivers/CMSIS/Core/Include/cmsis_gcc.h **** __STATIC_FORCEINLINE uint32_t __get_xPSR(void)
 301:Drivers/CMSIS/Core/Include/cmsis_gcc.h **** {
 302:Drivers/CMSIS/Core/Include/cmsis_gcc.h ****   uint32_t result;
 303:Drivers/CMSIS/Core/Include/cmsis_gcc.h **** 
 304:Drivers/CMSIS/Core/Include/cmsis_gcc.h ****   __ASM volatile ("MRS %0, xpsr" : "=r" (result) );
 305:Drivers/CMSIS/Core/Include/cmsis_gcc.h ****   return(result);
 306:Drivers/CMSIS/Core/Include/cmsis_gcc.h **** }
 307:Drivers/CMSIS/Core/Include/cmsis_gcc.h **** 
 308:Drivers/CMSIS/Core/Include/cmsis_gcc.h **** 
 309:Drivers/CMSIS/Core/Include/cmsis_gcc.h **** /**
 310:Drivers/CMSIS/Core/Include/cmsis_gcc.h ****   \brief   Get Process Stack Pointer
 311:Drivers/CMSIS/Core/Include/cmsis_gcc.h ****   \details Returns the current value of the Process Stack Pointer (PSP).
 312:Drivers/CMSIS/Core/Include/cmsis_gcc.h ****   \return               PSP Register value
 313:Drivers/CMSIS/Core/Include/cmsis_gcc.h ****  */
 314:Drivers/CMSIS/Core/Include/cmsis_gcc.h **** __STATIC_FORCEINLINE uint32_t __get_PSP(void)
 315:Drivers/CMSIS/Core/Include/cmsis_gcc.h **** {
 316:Drivers/CMSIS/Core/Include/cmsis_gcc.h ****   uint32_t result;
 317:Drivers/CMSIS/Core/Include/cmsis_gcc.h **** 
 318:Drivers/CMSIS/Core/Include/cmsis_gcc.h ****   __ASM volatile ("MRS %0, psp"  : "=r" (result) );
 319:Drivers/CMSIS/Core/Include/cmsis_gcc.h ****   return(result);
 320:Drivers/CMSIS/Core/Include/cmsis_gcc.h **** }
 321:Drivers/CMSIS/Core/Include/cmsis_gcc.h **** 
 322:Drivers/CMSIS/Core/Include/cmsis_gcc.h **** 
 323:Drivers/CMSIS/Core/Include/cmsis_gcc.h **** #if (defined (__ARM_FEATURE_CMSE ) && (__ARM_FEATURE_CMSE == 3))
 324:Drivers/CMSIS/Core/Include/cmsis_gcc.h **** /**
 325:Drivers/CMSIS/Core/Include/cmsis_gcc.h ****   \brief   Get Process Stack Pointer (non-secure)
 326:Drivers/CMSIS/Core/Include/cmsis_gcc.h ****   \details Returns the current value of the non-secure Process Stack Pointer (PSP) when in secure s
 327:Drivers/CMSIS/Core/Include/cmsis_gcc.h ****   \return               PSP Register value
 328:Drivers/CMSIS/Core/Include/cmsis_gcc.h ****  */
 329:Drivers/CMSIS/Core/Include/cmsis_gcc.h **** __STATIC_FORCEINLINE uint32_t __TZ_get_PSP_NS(void)
 330:Drivers/CMSIS/Core/Include/cmsis_gcc.h **** {
 331:Drivers/CMSIS/Core/Include/cmsis_gcc.h ****   uint32_t result;
 332:Drivers/CMSIS/Core/Include/cmsis_gcc.h **** 
ARM GAS  /tmp/ccUr9KqT.s 			page 22


 333:Drivers/CMSIS/Core/Include/cmsis_gcc.h ****   __ASM volatile ("MRS %0, psp_ns"  : "=r" (result) );
 334:Drivers/CMSIS/Core/Include/cmsis_gcc.h ****   return(result);
 335:Drivers/CMSIS/Core/Include/cmsis_gcc.h **** }
 336:Drivers/CMSIS/Core/Include/cmsis_gcc.h **** #endif
 337:Drivers/CMSIS/Core/Include/cmsis_gcc.h **** 
 338:Drivers/CMSIS/Core/Include/cmsis_gcc.h **** 
 339:Drivers/CMSIS/Core/Include/cmsis_gcc.h **** /**
 340:Drivers/CMSIS/Core/Include/cmsis_gcc.h ****   \brief   Set Process Stack Pointer
 341:Drivers/CMSIS/Core/Include/cmsis_gcc.h ****   \details Assigns the given value to the Process Stack Pointer (PSP).
 342:Drivers/CMSIS/Core/Include/cmsis_gcc.h ****   \param [in]    topOfProcStack  Process Stack Pointer value to set
 343:Drivers/CMSIS/Core/Include/cmsis_gcc.h ****  */
 344:Drivers/CMSIS/Core/Include/cmsis_gcc.h **** __STATIC_FORCEINLINE void __set_PSP(uint32_t topOfProcStack)
 345:Drivers/CMSIS/Core/Include/cmsis_gcc.h **** {
 346:Drivers/CMSIS/Core/Include/cmsis_gcc.h ****   __ASM volatile ("MSR psp, %0" : : "r" (topOfProcStack) : );
 347:Drivers/CMSIS/Core/Include/cmsis_gcc.h **** }
 348:Drivers/CMSIS/Core/Include/cmsis_gcc.h **** 
 349:Drivers/CMSIS/Core/Include/cmsis_gcc.h **** 
 350:Drivers/CMSIS/Core/Include/cmsis_gcc.h **** #if (defined (__ARM_FEATURE_CMSE ) && (__ARM_FEATURE_CMSE == 3))
 351:Drivers/CMSIS/Core/Include/cmsis_gcc.h **** /**
 352:Drivers/CMSIS/Core/Include/cmsis_gcc.h ****   \brief   Set Process Stack Pointer (non-secure)
 353:Drivers/CMSIS/Core/Include/cmsis_gcc.h ****   \details Assigns the given value to the non-secure Process Stack Pointer (PSP) when in secure sta
 354:Drivers/CMSIS/Core/Include/cmsis_gcc.h ****   \param [in]    topOfProcStack  Process Stack Pointer value to set
 355:Drivers/CMSIS/Core/Include/cmsis_gcc.h ****  */
 356:Drivers/CMSIS/Core/Include/cmsis_gcc.h **** __STATIC_FORCEINLINE void __TZ_set_PSP_NS(uint32_t topOfProcStack)
 357:Drivers/CMSIS/Core/Include/cmsis_gcc.h **** {
 358:Drivers/CMSIS/Core/Include/cmsis_gcc.h ****   __ASM volatile ("MSR psp_ns, %0" : : "r" (topOfProcStack) : );
 359:Drivers/CMSIS/Core/Include/cmsis_gcc.h **** }
 360:Drivers/CMSIS/Core/Include/cmsis_gcc.h **** #endif
 361:Drivers/CMSIS/Core/Include/cmsis_gcc.h **** 
 362:Drivers/CMSIS/Core/Include/cmsis_gcc.h **** 
 363:Drivers/CMSIS/Core/Include/cmsis_gcc.h **** /**
 364:Drivers/CMSIS/Core/Include/cmsis_gcc.h ****   \brief   Get Main Stack Pointer
 365:Drivers/CMSIS/Core/Include/cmsis_gcc.h ****   \details Returns the current value of the Main Stack Pointer (MSP).
 366:Drivers/CMSIS/Core/Include/cmsis_gcc.h ****   \return               MSP Register value
 367:Drivers/CMSIS/Core/Include/cmsis_gcc.h ****  */
 368:Drivers/CMSIS/Core/Include/cmsis_gcc.h **** __STATIC_FORCEINLINE uint32_t __get_MSP(void)
 369:Drivers/CMSIS/Core/Include/cmsis_gcc.h **** {
 370:Drivers/CMSIS/Core/Include/cmsis_gcc.h ****   uint32_t result;
 371:Drivers/CMSIS/Core/Include/cmsis_gcc.h **** 
 372:Drivers/CMSIS/Core/Include/cmsis_gcc.h ****   __ASM volatile ("MRS %0, msp" : "=r" (result) );
 373:Drivers/CMSIS/Core/Include/cmsis_gcc.h ****   return(result);
 374:Drivers/CMSIS/Core/Include/cmsis_gcc.h **** }
 375:Drivers/CMSIS/Core/Include/cmsis_gcc.h **** 
 376:Drivers/CMSIS/Core/Include/cmsis_gcc.h **** 
 377:Drivers/CMSIS/Core/Include/cmsis_gcc.h **** #if (defined (__ARM_FEATURE_CMSE ) && (__ARM_FEATURE_CMSE == 3))
 378:Drivers/CMSIS/Core/Include/cmsis_gcc.h **** /**
 379:Drivers/CMSIS/Core/Include/cmsis_gcc.h ****   \brief   Get Main Stack Pointer (non-secure)
 380:Drivers/CMSIS/Core/Include/cmsis_gcc.h ****   \details Returns the current value of the non-secure Main Stack Pointer (MSP) when in secure stat
 381:Drivers/CMSIS/Core/Include/cmsis_gcc.h ****   \return               MSP Register value
 382:Drivers/CMSIS/Core/Include/cmsis_gcc.h ****  */
 383:Drivers/CMSIS/Core/Include/cmsis_gcc.h **** __STATIC_FORCEINLINE uint32_t __TZ_get_MSP_NS(void)
 384:Drivers/CMSIS/Core/Include/cmsis_gcc.h **** {
 385:Drivers/CMSIS/Core/Include/cmsis_gcc.h ****   uint32_t result;
 386:Drivers/CMSIS/Core/Include/cmsis_gcc.h **** 
 387:Drivers/CMSIS/Core/Include/cmsis_gcc.h ****   __ASM volatile ("MRS %0, msp_ns" : "=r" (result) );
 388:Drivers/CMSIS/Core/Include/cmsis_gcc.h ****   return(result);
 389:Drivers/CMSIS/Core/Include/cmsis_gcc.h **** }
ARM GAS  /tmp/ccUr9KqT.s 			page 23


 390:Drivers/CMSIS/Core/Include/cmsis_gcc.h **** #endif
 391:Drivers/CMSIS/Core/Include/cmsis_gcc.h **** 
 392:Drivers/CMSIS/Core/Include/cmsis_gcc.h **** 
 393:Drivers/CMSIS/Core/Include/cmsis_gcc.h **** /**
 394:Drivers/CMSIS/Core/Include/cmsis_gcc.h ****   \brief   Set Main Stack Pointer
 395:Drivers/CMSIS/Core/Include/cmsis_gcc.h ****   \details Assigns the given value to the Main Stack Pointer (MSP).
 396:Drivers/CMSIS/Core/Include/cmsis_gcc.h ****   \param [in]    topOfMainStack  Main Stack Pointer value to set
 397:Drivers/CMSIS/Core/Include/cmsis_gcc.h ****  */
 398:Drivers/CMSIS/Core/Include/cmsis_gcc.h **** __STATIC_FORCEINLINE void __set_MSP(uint32_t topOfMainStack)
 399:Drivers/CMSIS/Core/Include/cmsis_gcc.h **** {
 400:Drivers/CMSIS/Core/Include/cmsis_gcc.h ****   __ASM volatile ("MSR msp, %0" : : "r" (topOfMainStack) : );
 401:Drivers/CMSIS/Core/Include/cmsis_gcc.h **** }
 402:Drivers/CMSIS/Core/Include/cmsis_gcc.h **** 
 403:Drivers/CMSIS/Core/Include/cmsis_gcc.h **** 
 404:Drivers/CMSIS/Core/Include/cmsis_gcc.h **** #if (defined (__ARM_FEATURE_CMSE ) && (__ARM_FEATURE_CMSE == 3))
 405:Drivers/CMSIS/Core/Include/cmsis_gcc.h **** /**
 406:Drivers/CMSIS/Core/Include/cmsis_gcc.h ****   \brief   Set Main Stack Pointer (non-secure)
 407:Drivers/CMSIS/Core/Include/cmsis_gcc.h ****   \details Assigns the given value to the non-secure Main Stack Pointer (MSP) when in secure state.
 408:Drivers/CMSIS/Core/Include/cmsis_gcc.h ****   \param [in]    topOfMainStack  Main Stack Pointer value to set
 409:Drivers/CMSIS/Core/Include/cmsis_gcc.h ****  */
 410:Drivers/CMSIS/Core/Include/cmsis_gcc.h **** __STATIC_FORCEINLINE void __TZ_set_MSP_NS(uint32_t topOfMainStack)
 411:Drivers/CMSIS/Core/Include/cmsis_gcc.h **** {
 412:Drivers/CMSIS/Core/Include/cmsis_gcc.h ****   __ASM volatile ("MSR msp_ns, %0" : : "r" (topOfMainStack) : );
 413:Drivers/CMSIS/Core/Include/cmsis_gcc.h **** }
 414:Drivers/CMSIS/Core/Include/cmsis_gcc.h **** #endif
 415:Drivers/CMSIS/Core/Include/cmsis_gcc.h **** 
 416:Drivers/CMSIS/Core/Include/cmsis_gcc.h **** 
 417:Drivers/CMSIS/Core/Include/cmsis_gcc.h **** #if (defined (__ARM_FEATURE_CMSE ) && (__ARM_FEATURE_CMSE == 3))
 418:Drivers/CMSIS/Core/Include/cmsis_gcc.h **** /**
 419:Drivers/CMSIS/Core/Include/cmsis_gcc.h ****   \brief   Get Stack Pointer (non-secure)
 420:Drivers/CMSIS/Core/Include/cmsis_gcc.h ****   \details Returns the current value of the non-secure Stack Pointer (SP) when in secure state.
 421:Drivers/CMSIS/Core/Include/cmsis_gcc.h ****   \return               SP Register value
 422:Drivers/CMSIS/Core/Include/cmsis_gcc.h ****  */
 423:Drivers/CMSIS/Core/Include/cmsis_gcc.h **** __STATIC_FORCEINLINE uint32_t __TZ_get_SP_NS(void)
 424:Drivers/CMSIS/Core/Include/cmsis_gcc.h **** {
 425:Drivers/CMSIS/Core/Include/cmsis_gcc.h ****   uint32_t result;
 426:Drivers/CMSIS/Core/Include/cmsis_gcc.h **** 
 427:Drivers/CMSIS/Core/Include/cmsis_gcc.h ****   __ASM volatile ("MRS %0, sp_ns" : "=r" (result) );
 428:Drivers/CMSIS/Core/Include/cmsis_gcc.h ****   return(result);
 429:Drivers/CMSIS/Core/Include/cmsis_gcc.h **** }
 430:Drivers/CMSIS/Core/Include/cmsis_gcc.h **** 
 431:Drivers/CMSIS/Core/Include/cmsis_gcc.h **** 
 432:Drivers/CMSIS/Core/Include/cmsis_gcc.h **** /**
 433:Drivers/CMSIS/Core/Include/cmsis_gcc.h ****   \brief   Set Stack Pointer (non-secure)
 434:Drivers/CMSIS/Core/Include/cmsis_gcc.h ****   \details Assigns the given value to the non-secure Stack Pointer (SP) when in secure state.
 435:Drivers/CMSIS/Core/Include/cmsis_gcc.h ****   \param [in]    topOfStack  Stack Pointer value to set
 436:Drivers/CMSIS/Core/Include/cmsis_gcc.h ****  */
 437:Drivers/CMSIS/Core/Include/cmsis_gcc.h **** __STATIC_FORCEINLINE void __TZ_set_SP_NS(uint32_t topOfStack)
 438:Drivers/CMSIS/Core/Include/cmsis_gcc.h **** {
 439:Drivers/CMSIS/Core/Include/cmsis_gcc.h ****   __ASM volatile ("MSR sp_ns, %0" : : "r" (topOfStack) : );
 440:Drivers/CMSIS/Core/Include/cmsis_gcc.h **** }
 441:Drivers/CMSIS/Core/Include/cmsis_gcc.h **** #endif
 442:Drivers/CMSIS/Core/Include/cmsis_gcc.h **** 
 443:Drivers/CMSIS/Core/Include/cmsis_gcc.h **** 
 444:Drivers/CMSIS/Core/Include/cmsis_gcc.h **** /**
 445:Drivers/CMSIS/Core/Include/cmsis_gcc.h ****   \brief   Get Priority Mask
 446:Drivers/CMSIS/Core/Include/cmsis_gcc.h ****   \details Returns the current state of the priority mask bit from the Priority Mask Register.
ARM GAS  /tmp/ccUr9KqT.s 			page 24


 447:Drivers/CMSIS/Core/Include/cmsis_gcc.h ****   \return               Priority Mask value
 448:Drivers/CMSIS/Core/Include/cmsis_gcc.h ****  */
 449:Drivers/CMSIS/Core/Include/cmsis_gcc.h **** __STATIC_FORCEINLINE uint32_t __get_PRIMASK(void)
 450:Drivers/CMSIS/Core/Include/cmsis_gcc.h **** {
 451:Drivers/CMSIS/Core/Include/cmsis_gcc.h ****   uint32_t result;
 452:Drivers/CMSIS/Core/Include/cmsis_gcc.h **** 
 453:Drivers/CMSIS/Core/Include/cmsis_gcc.h ****   __ASM volatile ("MRS %0, primask" : "=r" (result) :: "memory");
 454:Drivers/CMSIS/Core/Include/cmsis_gcc.h ****   return(result);
 455:Drivers/CMSIS/Core/Include/cmsis_gcc.h **** }
 456:Drivers/CMSIS/Core/Include/cmsis_gcc.h **** 
 457:Drivers/CMSIS/Core/Include/cmsis_gcc.h **** 
 458:Drivers/CMSIS/Core/Include/cmsis_gcc.h **** #if (defined (__ARM_FEATURE_CMSE ) && (__ARM_FEATURE_CMSE == 3))
 459:Drivers/CMSIS/Core/Include/cmsis_gcc.h **** /**
 460:Drivers/CMSIS/Core/Include/cmsis_gcc.h ****   \brief   Get Priority Mask (non-secure)
 461:Drivers/CMSIS/Core/Include/cmsis_gcc.h ****   \details Returns the current state of the non-secure priority mask bit from the Priority Mask Reg
 462:Drivers/CMSIS/Core/Include/cmsis_gcc.h ****   \return               Priority Mask value
 463:Drivers/CMSIS/Core/Include/cmsis_gcc.h ****  */
 464:Drivers/CMSIS/Core/Include/cmsis_gcc.h **** __STATIC_FORCEINLINE uint32_t __TZ_get_PRIMASK_NS(void)
 465:Drivers/CMSIS/Core/Include/cmsis_gcc.h **** {
 466:Drivers/CMSIS/Core/Include/cmsis_gcc.h ****   uint32_t result;
 467:Drivers/CMSIS/Core/Include/cmsis_gcc.h **** 
 468:Drivers/CMSIS/Core/Include/cmsis_gcc.h ****   __ASM volatile ("MRS %0, primask_ns" : "=r" (result) :: "memory");
 469:Drivers/CMSIS/Core/Include/cmsis_gcc.h ****   return(result);
 470:Drivers/CMSIS/Core/Include/cmsis_gcc.h **** }
 471:Drivers/CMSIS/Core/Include/cmsis_gcc.h **** #endif
 472:Drivers/CMSIS/Core/Include/cmsis_gcc.h **** 
 473:Drivers/CMSIS/Core/Include/cmsis_gcc.h **** 
 474:Drivers/CMSIS/Core/Include/cmsis_gcc.h **** /**
 475:Drivers/CMSIS/Core/Include/cmsis_gcc.h ****   \brief   Set Priority Mask
 476:Drivers/CMSIS/Core/Include/cmsis_gcc.h ****   \details Assigns the given value to the Priority Mask Register.
 477:Drivers/CMSIS/Core/Include/cmsis_gcc.h ****   \param [in]    priMask  Priority Mask
 478:Drivers/CMSIS/Core/Include/cmsis_gcc.h ****  */
 479:Drivers/CMSIS/Core/Include/cmsis_gcc.h **** __STATIC_FORCEINLINE void __set_PRIMASK(uint32_t priMask)
 480:Drivers/CMSIS/Core/Include/cmsis_gcc.h **** {
 481:Drivers/CMSIS/Core/Include/cmsis_gcc.h ****   __ASM volatile ("MSR primask, %0" : : "r" (priMask) : "memory");
 482:Drivers/CMSIS/Core/Include/cmsis_gcc.h **** }
 483:Drivers/CMSIS/Core/Include/cmsis_gcc.h **** 
 484:Drivers/CMSIS/Core/Include/cmsis_gcc.h **** 
 485:Drivers/CMSIS/Core/Include/cmsis_gcc.h **** #if (defined (__ARM_FEATURE_CMSE ) && (__ARM_FEATURE_CMSE == 3))
 486:Drivers/CMSIS/Core/Include/cmsis_gcc.h **** /**
 487:Drivers/CMSIS/Core/Include/cmsis_gcc.h ****   \brief   Set Priority Mask (non-secure)
 488:Drivers/CMSIS/Core/Include/cmsis_gcc.h ****   \details Assigns the given value to the non-secure Priority Mask Register when in secure state.
 489:Drivers/CMSIS/Core/Include/cmsis_gcc.h ****   \param [in]    priMask  Priority Mask
 490:Drivers/CMSIS/Core/Include/cmsis_gcc.h ****  */
 491:Drivers/CMSIS/Core/Include/cmsis_gcc.h **** __STATIC_FORCEINLINE void __TZ_set_PRIMASK_NS(uint32_t priMask)
 492:Drivers/CMSIS/Core/Include/cmsis_gcc.h **** {
 493:Drivers/CMSIS/Core/Include/cmsis_gcc.h ****   __ASM volatile ("MSR primask_ns, %0" : : "r" (priMask) : "memory");
 494:Drivers/CMSIS/Core/Include/cmsis_gcc.h **** }
 495:Drivers/CMSIS/Core/Include/cmsis_gcc.h **** #endif
 496:Drivers/CMSIS/Core/Include/cmsis_gcc.h **** 
 497:Drivers/CMSIS/Core/Include/cmsis_gcc.h **** 
 498:Drivers/CMSIS/Core/Include/cmsis_gcc.h **** #if ((defined (__ARM_ARCH_7M__      ) && (__ARM_ARCH_7M__      == 1)) || \
 499:Drivers/CMSIS/Core/Include/cmsis_gcc.h ****      (defined (__ARM_ARCH_7EM__     ) && (__ARM_ARCH_7EM__     == 1)) || \
 500:Drivers/CMSIS/Core/Include/cmsis_gcc.h ****      (defined (__ARM_ARCH_8M_MAIN__ ) && (__ARM_ARCH_8M_MAIN__ == 1))    )
 501:Drivers/CMSIS/Core/Include/cmsis_gcc.h **** /**
 502:Drivers/CMSIS/Core/Include/cmsis_gcc.h ****   \brief   Enable FIQ
 503:Drivers/CMSIS/Core/Include/cmsis_gcc.h ****   \details Enables FIQ interrupts by clearing the F-bit in the CPSR.
ARM GAS  /tmp/ccUr9KqT.s 			page 25


 504:Drivers/CMSIS/Core/Include/cmsis_gcc.h ****            Can only be executed in Privileged modes.
 505:Drivers/CMSIS/Core/Include/cmsis_gcc.h ****  */
 506:Drivers/CMSIS/Core/Include/cmsis_gcc.h **** __STATIC_FORCEINLINE void __enable_fault_irq(void)
 507:Drivers/CMSIS/Core/Include/cmsis_gcc.h **** {
 508:Drivers/CMSIS/Core/Include/cmsis_gcc.h ****   __ASM volatile ("cpsie f" : : : "memory");
 509:Drivers/CMSIS/Core/Include/cmsis_gcc.h **** }
 510:Drivers/CMSIS/Core/Include/cmsis_gcc.h **** 
 511:Drivers/CMSIS/Core/Include/cmsis_gcc.h **** 
 512:Drivers/CMSIS/Core/Include/cmsis_gcc.h **** /**
 513:Drivers/CMSIS/Core/Include/cmsis_gcc.h ****   \brief   Disable FIQ
 514:Drivers/CMSIS/Core/Include/cmsis_gcc.h ****   \details Disables FIQ interrupts by setting the F-bit in the CPSR.
 515:Drivers/CMSIS/Core/Include/cmsis_gcc.h ****            Can only be executed in Privileged modes.
 516:Drivers/CMSIS/Core/Include/cmsis_gcc.h ****  */
 517:Drivers/CMSIS/Core/Include/cmsis_gcc.h **** __STATIC_FORCEINLINE void __disable_fault_irq(void)
 518:Drivers/CMSIS/Core/Include/cmsis_gcc.h **** {
 519:Drivers/CMSIS/Core/Include/cmsis_gcc.h ****   __ASM volatile ("cpsid f" : : : "memory");
 520:Drivers/CMSIS/Core/Include/cmsis_gcc.h **** }
 521:Drivers/CMSIS/Core/Include/cmsis_gcc.h **** 
 522:Drivers/CMSIS/Core/Include/cmsis_gcc.h **** 
 523:Drivers/CMSIS/Core/Include/cmsis_gcc.h **** /**
 524:Drivers/CMSIS/Core/Include/cmsis_gcc.h ****   \brief   Get Base Priority
 525:Drivers/CMSIS/Core/Include/cmsis_gcc.h ****   \details Returns the current value of the Base Priority register.
 526:Drivers/CMSIS/Core/Include/cmsis_gcc.h ****   \return               Base Priority register value
 527:Drivers/CMSIS/Core/Include/cmsis_gcc.h ****  */
 528:Drivers/CMSIS/Core/Include/cmsis_gcc.h **** __STATIC_FORCEINLINE uint32_t __get_BASEPRI(void)
 529:Drivers/CMSIS/Core/Include/cmsis_gcc.h **** {
 530:Drivers/CMSIS/Core/Include/cmsis_gcc.h ****   uint32_t result;
 531:Drivers/CMSIS/Core/Include/cmsis_gcc.h **** 
 532:Drivers/CMSIS/Core/Include/cmsis_gcc.h ****   __ASM volatile ("MRS %0, basepri" : "=r" (result) );
 533:Drivers/CMSIS/Core/Include/cmsis_gcc.h ****   return(result);
 534:Drivers/CMSIS/Core/Include/cmsis_gcc.h **** }
 535:Drivers/CMSIS/Core/Include/cmsis_gcc.h **** 
 536:Drivers/CMSIS/Core/Include/cmsis_gcc.h **** 
 537:Drivers/CMSIS/Core/Include/cmsis_gcc.h **** #if (defined (__ARM_FEATURE_CMSE ) && (__ARM_FEATURE_CMSE == 3))
 538:Drivers/CMSIS/Core/Include/cmsis_gcc.h **** /**
 539:Drivers/CMSIS/Core/Include/cmsis_gcc.h ****   \brief   Get Base Priority (non-secure)
 540:Drivers/CMSIS/Core/Include/cmsis_gcc.h ****   \details Returns the current value of the non-secure Base Priority register when in secure state.
 541:Drivers/CMSIS/Core/Include/cmsis_gcc.h ****   \return               Base Priority register value
 542:Drivers/CMSIS/Core/Include/cmsis_gcc.h ****  */
 543:Drivers/CMSIS/Core/Include/cmsis_gcc.h **** __STATIC_FORCEINLINE uint32_t __TZ_get_BASEPRI_NS(void)
 544:Drivers/CMSIS/Core/Include/cmsis_gcc.h **** {
 545:Drivers/CMSIS/Core/Include/cmsis_gcc.h ****   uint32_t result;
 546:Drivers/CMSIS/Core/Include/cmsis_gcc.h **** 
 547:Drivers/CMSIS/Core/Include/cmsis_gcc.h ****   __ASM volatile ("MRS %0, basepri_ns" : "=r" (result) );
 548:Drivers/CMSIS/Core/Include/cmsis_gcc.h ****   return(result);
 549:Drivers/CMSIS/Core/Include/cmsis_gcc.h **** }
 550:Drivers/CMSIS/Core/Include/cmsis_gcc.h **** #endif
 551:Drivers/CMSIS/Core/Include/cmsis_gcc.h **** 
 552:Drivers/CMSIS/Core/Include/cmsis_gcc.h **** 
 553:Drivers/CMSIS/Core/Include/cmsis_gcc.h **** /**
 554:Drivers/CMSIS/Core/Include/cmsis_gcc.h ****   \brief   Set Base Priority
 555:Drivers/CMSIS/Core/Include/cmsis_gcc.h ****   \details Assigns the given value to the Base Priority register.
 556:Drivers/CMSIS/Core/Include/cmsis_gcc.h ****   \param [in]    basePri  Base Priority value to set
 557:Drivers/CMSIS/Core/Include/cmsis_gcc.h ****  */
 558:Drivers/CMSIS/Core/Include/cmsis_gcc.h **** __STATIC_FORCEINLINE void __set_BASEPRI(uint32_t basePri)
 559:Drivers/CMSIS/Core/Include/cmsis_gcc.h **** {
 560:Drivers/CMSIS/Core/Include/cmsis_gcc.h ****   __ASM volatile ("MSR basepri, %0" : : "r" (basePri) : "memory");
ARM GAS  /tmp/ccUr9KqT.s 			page 26


 561:Drivers/CMSIS/Core/Include/cmsis_gcc.h **** }
 562:Drivers/CMSIS/Core/Include/cmsis_gcc.h **** 
 563:Drivers/CMSIS/Core/Include/cmsis_gcc.h **** 
 564:Drivers/CMSIS/Core/Include/cmsis_gcc.h **** #if (defined (__ARM_FEATURE_CMSE ) && (__ARM_FEATURE_CMSE == 3))
 565:Drivers/CMSIS/Core/Include/cmsis_gcc.h **** /**
 566:Drivers/CMSIS/Core/Include/cmsis_gcc.h ****   \brief   Set Base Priority (non-secure)
 567:Drivers/CMSIS/Core/Include/cmsis_gcc.h ****   \details Assigns the given value to the non-secure Base Priority register when in secure state.
 568:Drivers/CMSIS/Core/Include/cmsis_gcc.h ****   \param [in]    basePri  Base Priority value to set
 569:Drivers/CMSIS/Core/Include/cmsis_gcc.h ****  */
 570:Drivers/CMSIS/Core/Include/cmsis_gcc.h **** __STATIC_FORCEINLINE void __TZ_set_BASEPRI_NS(uint32_t basePri)
 571:Drivers/CMSIS/Core/Include/cmsis_gcc.h **** {
 572:Drivers/CMSIS/Core/Include/cmsis_gcc.h ****   __ASM volatile ("MSR basepri_ns, %0" : : "r" (basePri) : "memory");
 573:Drivers/CMSIS/Core/Include/cmsis_gcc.h **** }
 574:Drivers/CMSIS/Core/Include/cmsis_gcc.h **** #endif
 575:Drivers/CMSIS/Core/Include/cmsis_gcc.h **** 
 576:Drivers/CMSIS/Core/Include/cmsis_gcc.h **** 
 577:Drivers/CMSIS/Core/Include/cmsis_gcc.h **** /**
 578:Drivers/CMSIS/Core/Include/cmsis_gcc.h ****   \brief   Set Base Priority with condition
 579:Drivers/CMSIS/Core/Include/cmsis_gcc.h ****   \details Assigns the given value to the Base Priority register only if BASEPRI masking is disable
 580:Drivers/CMSIS/Core/Include/cmsis_gcc.h ****            or the new value increases the BASEPRI priority level.
 581:Drivers/CMSIS/Core/Include/cmsis_gcc.h ****   \param [in]    basePri  Base Priority value to set
 582:Drivers/CMSIS/Core/Include/cmsis_gcc.h ****  */
 583:Drivers/CMSIS/Core/Include/cmsis_gcc.h **** __STATIC_FORCEINLINE void __set_BASEPRI_MAX(uint32_t basePri)
 584:Drivers/CMSIS/Core/Include/cmsis_gcc.h **** {
 585:Drivers/CMSIS/Core/Include/cmsis_gcc.h ****   __ASM volatile ("MSR basepri_max, %0" : : "r" (basePri) : "memory");
 586:Drivers/CMSIS/Core/Include/cmsis_gcc.h **** }
 587:Drivers/CMSIS/Core/Include/cmsis_gcc.h **** 
 588:Drivers/CMSIS/Core/Include/cmsis_gcc.h **** 
 589:Drivers/CMSIS/Core/Include/cmsis_gcc.h **** /**
 590:Drivers/CMSIS/Core/Include/cmsis_gcc.h ****   \brief   Get Fault Mask
 591:Drivers/CMSIS/Core/Include/cmsis_gcc.h ****   \details Returns the current value of the Fault Mask register.
 592:Drivers/CMSIS/Core/Include/cmsis_gcc.h ****   \return               Fault Mask register value
 593:Drivers/CMSIS/Core/Include/cmsis_gcc.h ****  */
 594:Drivers/CMSIS/Core/Include/cmsis_gcc.h **** __STATIC_FORCEINLINE uint32_t __get_FAULTMASK(void)
 595:Drivers/CMSIS/Core/Include/cmsis_gcc.h **** {
 596:Drivers/CMSIS/Core/Include/cmsis_gcc.h ****   uint32_t result;
 597:Drivers/CMSIS/Core/Include/cmsis_gcc.h **** 
 598:Drivers/CMSIS/Core/Include/cmsis_gcc.h ****   __ASM volatile ("MRS %0, faultmask" : "=r" (result) );
 599:Drivers/CMSIS/Core/Include/cmsis_gcc.h ****   return(result);
 600:Drivers/CMSIS/Core/Include/cmsis_gcc.h **** }
 601:Drivers/CMSIS/Core/Include/cmsis_gcc.h **** 
 602:Drivers/CMSIS/Core/Include/cmsis_gcc.h **** 
 603:Drivers/CMSIS/Core/Include/cmsis_gcc.h **** #if (defined (__ARM_FEATURE_CMSE ) && (__ARM_FEATURE_CMSE == 3))
 604:Drivers/CMSIS/Core/Include/cmsis_gcc.h **** /**
 605:Drivers/CMSIS/Core/Include/cmsis_gcc.h ****   \brief   Get Fault Mask (non-secure)
 606:Drivers/CMSIS/Core/Include/cmsis_gcc.h ****   \details Returns the current value of the non-secure Fault Mask register when in secure state.
 607:Drivers/CMSIS/Core/Include/cmsis_gcc.h ****   \return               Fault Mask register value
 608:Drivers/CMSIS/Core/Include/cmsis_gcc.h ****  */
 609:Drivers/CMSIS/Core/Include/cmsis_gcc.h **** __STATIC_FORCEINLINE uint32_t __TZ_get_FAULTMASK_NS(void)
 610:Drivers/CMSIS/Core/Include/cmsis_gcc.h **** {
 611:Drivers/CMSIS/Core/Include/cmsis_gcc.h ****   uint32_t result;
 612:Drivers/CMSIS/Core/Include/cmsis_gcc.h **** 
 613:Drivers/CMSIS/Core/Include/cmsis_gcc.h ****   __ASM volatile ("MRS %0, faultmask_ns" : "=r" (result) );
 614:Drivers/CMSIS/Core/Include/cmsis_gcc.h ****   return(result);
 615:Drivers/CMSIS/Core/Include/cmsis_gcc.h **** }
 616:Drivers/CMSIS/Core/Include/cmsis_gcc.h **** #endif
 617:Drivers/CMSIS/Core/Include/cmsis_gcc.h **** 
ARM GAS  /tmp/ccUr9KqT.s 			page 27


 618:Drivers/CMSIS/Core/Include/cmsis_gcc.h **** 
 619:Drivers/CMSIS/Core/Include/cmsis_gcc.h **** /**
 620:Drivers/CMSIS/Core/Include/cmsis_gcc.h ****   \brief   Set Fault Mask
 621:Drivers/CMSIS/Core/Include/cmsis_gcc.h ****   \details Assigns the given value to the Fault Mask register.
 622:Drivers/CMSIS/Core/Include/cmsis_gcc.h ****   \param [in]    faultMask  Fault Mask value to set
 623:Drivers/CMSIS/Core/Include/cmsis_gcc.h ****  */
 624:Drivers/CMSIS/Core/Include/cmsis_gcc.h **** __STATIC_FORCEINLINE void __set_FAULTMASK(uint32_t faultMask)
 625:Drivers/CMSIS/Core/Include/cmsis_gcc.h **** {
 626:Drivers/CMSIS/Core/Include/cmsis_gcc.h ****   __ASM volatile ("MSR faultmask, %0" : : "r" (faultMask) : "memory");
 627:Drivers/CMSIS/Core/Include/cmsis_gcc.h **** }
 628:Drivers/CMSIS/Core/Include/cmsis_gcc.h **** 
 629:Drivers/CMSIS/Core/Include/cmsis_gcc.h **** 
 630:Drivers/CMSIS/Core/Include/cmsis_gcc.h **** #if (defined (__ARM_FEATURE_CMSE ) && (__ARM_FEATURE_CMSE == 3))
 631:Drivers/CMSIS/Core/Include/cmsis_gcc.h **** /**
 632:Drivers/CMSIS/Core/Include/cmsis_gcc.h ****   \brief   Set Fault Mask (non-secure)
 633:Drivers/CMSIS/Core/Include/cmsis_gcc.h ****   \details Assigns the given value to the non-secure Fault Mask register when in secure state.
 634:Drivers/CMSIS/Core/Include/cmsis_gcc.h ****   \param [in]    faultMask  Fault Mask value to set
 635:Drivers/CMSIS/Core/Include/cmsis_gcc.h ****  */
 636:Drivers/CMSIS/Core/Include/cmsis_gcc.h **** __STATIC_FORCEINLINE void __TZ_set_FAULTMASK_NS(uint32_t faultMask)
 637:Drivers/CMSIS/Core/Include/cmsis_gcc.h **** {
 638:Drivers/CMSIS/Core/Include/cmsis_gcc.h ****   __ASM volatile ("MSR faultmask_ns, %0" : : "r" (faultMask) : "memory");
 639:Drivers/CMSIS/Core/Include/cmsis_gcc.h **** }
 640:Drivers/CMSIS/Core/Include/cmsis_gcc.h **** #endif
 641:Drivers/CMSIS/Core/Include/cmsis_gcc.h **** 
 642:Drivers/CMSIS/Core/Include/cmsis_gcc.h **** #endif /* ((defined (__ARM_ARCH_7M__      ) && (__ARM_ARCH_7M__      == 1)) || \
 643:Drivers/CMSIS/Core/Include/cmsis_gcc.h ****            (defined (__ARM_ARCH_7EM__     ) && (__ARM_ARCH_7EM__     == 1)) || \
 644:Drivers/CMSIS/Core/Include/cmsis_gcc.h ****            (defined (__ARM_ARCH_8M_MAIN__ ) && (__ARM_ARCH_8M_MAIN__ == 1))    ) */
 645:Drivers/CMSIS/Core/Include/cmsis_gcc.h **** 
 646:Drivers/CMSIS/Core/Include/cmsis_gcc.h **** 
 647:Drivers/CMSIS/Core/Include/cmsis_gcc.h **** #if ((defined (__ARM_ARCH_8M_MAIN__ ) && (__ARM_ARCH_8M_MAIN__ == 1)) || \
 648:Drivers/CMSIS/Core/Include/cmsis_gcc.h ****      (defined (__ARM_ARCH_8M_BASE__ ) && (__ARM_ARCH_8M_BASE__ == 1))    )
 649:Drivers/CMSIS/Core/Include/cmsis_gcc.h **** 
 650:Drivers/CMSIS/Core/Include/cmsis_gcc.h **** /**
 651:Drivers/CMSIS/Core/Include/cmsis_gcc.h ****   \brief   Get Process Stack Pointer Limit
 652:Drivers/CMSIS/Core/Include/cmsis_gcc.h ****   Devices without ARMv8-M Main Extensions (i.e. Cortex-M23) lack the non-secure
 653:Drivers/CMSIS/Core/Include/cmsis_gcc.h ****   Stack Pointer Limit register hence zero is returned always in non-secure
 654:Drivers/CMSIS/Core/Include/cmsis_gcc.h ****   mode.
 655:Drivers/CMSIS/Core/Include/cmsis_gcc.h ****   
 656:Drivers/CMSIS/Core/Include/cmsis_gcc.h ****   \details Returns the current value of the Process Stack Pointer Limit (PSPLIM).
 657:Drivers/CMSIS/Core/Include/cmsis_gcc.h ****   \return               PSPLIM Register value
 658:Drivers/CMSIS/Core/Include/cmsis_gcc.h ****  */
 659:Drivers/CMSIS/Core/Include/cmsis_gcc.h **** __STATIC_FORCEINLINE uint32_t __get_PSPLIM(void)
 660:Drivers/CMSIS/Core/Include/cmsis_gcc.h **** {
 661:Drivers/CMSIS/Core/Include/cmsis_gcc.h **** #if (!(defined (__ARM_ARCH_8M_MAIN__ ) && (__ARM_ARCH_8M_MAIN__ == 1)) && \
 662:Drivers/CMSIS/Core/Include/cmsis_gcc.h ****     (!defined (__ARM_FEATURE_CMSE) || (__ARM_FEATURE_CMSE < 3)))
 663:Drivers/CMSIS/Core/Include/cmsis_gcc.h ****     // without main extensions, the non-secure PSPLIM is RAZ/WI
 664:Drivers/CMSIS/Core/Include/cmsis_gcc.h ****   return 0U;
 665:Drivers/CMSIS/Core/Include/cmsis_gcc.h **** #else
 666:Drivers/CMSIS/Core/Include/cmsis_gcc.h ****   uint32_t result;
 667:Drivers/CMSIS/Core/Include/cmsis_gcc.h ****   __ASM volatile ("MRS %0, psplim"  : "=r" (result) );
 668:Drivers/CMSIS/Core/Include/cmsis_gcc.h ****   return result;
 669:Drivers/CMSIS/Core/Include/cmsis_gcc.h **** #endif
 670:Drivers/CMSIS/Core/Include/cmsis_gcc.h **** }
 671:Drivers/CMSIS/Core/Include/cmsis_gcc.h **** 
 672:Drivers/CMSIS/Core/Include/cmsis_gcc.h **** #if (defined (__ARM_FEATURE_CMSE) && (__ARM_FEATURE_CMSE == 3))
 673:Drivers/CMSIS/Core/Include/cmsis_gcc.h **** /**
 674:Drivers/CMSIS/Core/Include/cmsis_gcc.h ****   \brief   Get Process Stack Pointer Limit (non-secure)
ARM GAS  /tmp/ccUr9KqT.s 			page 28


 675:Drivers/CMSIS/Core/Include/cmsis_gcc.h ****   Devices without ARMv8-M Main Extensions (i.e. Cortex-M23) lack the non-secure
 676:Drivers/CMSIS/Core/Include/cmsis_gcc.h ****   Stack Pointer Limit register hence zero is returned always.
 677:Drivers/CMSIS/Core/Include/cmsis_gcc.h **** 
 678:Drivers/CMSIS/Core/Include/cmsis_gcc.h ****   \details Returns the current value of the non-secure Process Stack Pointer Limit (PSPLIM) when in
 679:Drivers/CMSIS/Core/Include/cmsis_gcc.h ****   \return               PSPLIM Register value
 680:Drivers/CMSIS/Core/Include/cmsis_gcc.h ****  */
 681:Drivers/CMSIS/Core/Include/cmsis_gcc.h **** __STATIC_FORCEINLINE uint32_t __TZ_get_PSPLIM_NS(void)
 682:Drivers/CMSIS/Core/Include/cmsis_gcc.h **** {
 683:Drivers/CMSIS/Core/Include/cmsis_gcc.h **** #if (!(defined (__ARM_ARCH_8M_MAIN__ ) && (__ARM_ARCH_8M_MAIN__ == 1)))
 684:Drivers/CMSIS/Core/Include/cmsis_gcc.h ****   // without main extensions, the non-secure PSPLIM is RAZ/WI
 685:Drivers/CMSIS/Core/Include/cmsis_gcc.h ****   return 0U;
 686:Drivers/CMSIS/Core/Include/cmsis_gcc.h **** #else
 687:Drivers/CMSIS/Core/Include/cmsis_gcc.h ****   uint32_t result;
 688:Drivers/CMSIS/Core/Include/cmsis_gcc.h ****   __ASM volatile ("MRS %0, psplim_ns"  : "=r" (result) );
 689:Drivers/CMSIS/Core/Include/cmsis_gcc.h ****   return result;
 690:Drivers/CMSIS/Core/Include/cmsis_gcc.h **** #endif
 691:Drivers/CMSIS/Core/Include/cmsis_gcc.h **** }
 692:Drivers/CMSIS/Core/Include/cmsis_gcc.h **** #endif
 693:Drivers/CMSIS/Core/Include/cmsis_gcc.h **** 
 694:Drivers/CMSIS/Core/Include/cmsis_gcc.h **** 
 695:Drivers/CMSIS/Core/Include/cmsis_gcc.h **** /**
 696:Drivers/CMSIS/Core/Include/cmsis_gcc.h ****   \brief   Set Process Stack Pointer Limit
 697:Drivers/CMSIS/Core/Include/cmsis_gcc.h ****   Devices without ARMv8-M Main Extensions (i.e. Cortex-M23) lack the non-secure
 698:Drivers/CMSIS/Core/Include/cmsis_gcc.h ****   Stack Pointer Limit register hence the write is silently ignored in non-secure
 699:Drivers/CMSIS/Core/Include/cmsis_gcc.h ****   mode.
 700:Drivers/CMSIS/Core/Include/cmsis_gcc.h ****   
 701:Drivers/CMSIS/Core/Include/cmsis_gcc.h ****   \details Assigns the given value to the Process Stack Pointer Limit (PSPLIM).
 702:Drivers/CMSIS/Core/Include/cmsis_gcc.h ****   \param [in]    ProcStackPtrLimit  Process Stack Pointer Limit value to set
 703:Drivers/CMSIS/Core/Include/cmsis_gcc.h ****  */
 704:Drivers/CMSIS/Core/Include/cmsis_gcc.h **** __STATIC_FORCEINLINE void __set_PSPLIM(uint32_t ProcStackPtrLimit)
 705:Drivers/CMSIS/Core/Include/cmsis_gcc.h **** {
 706:Drivers/CMSIS/Core/Include/cmsis_gcc.h **** #if (!(defined (__ARM_ARCH_8M_MAIN__ ) && (__ARM_ARCH_8M_MAIN__ == 1)) && \
 707:Drivers/CMSIS/Core/Include/cmsis_gcc.h ****     (!defined (__ARM_FEATURE_CMSE) || (__ARM_FEATURE_CMSE < 3)))
 708:Drivers/CMSIS/Core/Include/cmsis_gcc.h ****   // without main extensions, the non-secure PSPLIM is RAZ/WI
 709:Drivers/CMSIS/Core/Include/cmsis_gcc.h ****   (void)ProcStackPtrLimit;
 710:Drivers/CMSIS/Core/Include/cmsis_gcc.h **** #else
 711:Drivers/CMSIS/Core/Include/cmsis_gcc.h ****   __ASM volatile ("MSR psplim, %0" : : "r" (ProcStackPtrLimit));
 712:Drivers/CMSIS/Core/Include/cmsis_gcc.h **** #endif
 713:Drivers/CMSIS/Core/Include/cmsis_gcc.h **** }
 714:Drivers/CMSIS/Core/Include/cmsis_gcc.h **** 
 715:Drivers/CMSIS/Core/Include/cmsis_gcc.h **** 
 716:Drivers/CMSIS/Core/Include/cmsis_gcc.h **** #if (defined (__ARM_FEATURE_CMSE  ) && (__ARM_FEATURE_CMSE   == 3))
 717:Drivers/CMSIS/Core/Include/cmsis_gcc.h **** /**
 718:Drivers/CMSIS/Core/Include/cmsis_gcc.h ****   \brief   Set Process Stack Pointer (non-secure)
 719:Drivers/CMSIS/Core/Include/cmsis_gcc.h ****   Devices without ARMv8-M Main Extensions (i.e. Cortex-M23) lack the non-secure
 720:Drivers/CMSIS/Core/Include/cmsis_gcc.h ****   Stack Pointer Limit register hence the write is silently ignored.
 721:Drivers/CMSIS/Core/Include/cmsis_gcc.h **** 
 722:Drivers/CMSIS/Core/Include/cmsis_gcc.h ****   \details Assigns the given value to the non-secure Process Stack Pointer Limit (PSPLIM) when in s
 723:Drivers/CMSIS/Core/Include/cmsis_gcc.h ****   \param [in]    ProcStackPtrLimit  Process Stack Pointer Limit value to set
 724:Drivers/CMSIS/Core/Include/cmsis_gcc.h ****  */
 725:Drivers/CMSIS/Core/Include/cmsis_gcc.h **** __STATIC_FORCEINLINE void __TZ_set_PSPLIM_NS(uint32_t ProcStackPtrLimit)
 726:Drivers/CMSIS/Core/Include/cmsis_gcc.h **** {
 727:Drivers/CMSIS/Core/Include/cmsis_gcc.h **** #if (!(defined (__ARM_ARCH_8M_MAIN__ ) && (__ARM_ARCH_8M_MAIN__ == 1)))
 728:Drivers/CMSIS/Core/Include/cmsis_gcc.h ****   // without main extensions, the non-secure PSPLIM is RAZ/WI
 729:Drivers/CMSIS/Core/Include/cmsis_gcc.h ****   (void)ProcStackPtrLimit;
 730:Drivers/CMSIS/Core/Include/cmsis_gcc.h **** #else
 731:Drivers/CMSIS/Core/Include/cmsis_gcc.h ****   __ASM volatile ("MSR psplim_ns, %0\n" : : "r" (ProcStackPtrLimit));
ARM GAS  /tmp/ccUr9KqT.s 			page 29


 732:Drivers/CMSIS/Core/Include/cmsis_gcc.h **** #endif
 733:Drivers/CMSIS/Core/Include/cmsis_gcc.h **** }
 734:Drivers/CMSIS/Core/Include/cmsis_gcc.h **** #endif
 735:Drivers/CMSIS/Core/Include/cmsis_gcc.h **** 
 736:Drivers/CMSIS/Core/Include/cmsis_gcc.h **** 
 737:Drivers/CMSIS/Core/Include/cmsis_gcc.h **** /**
 738:Drivers/CMSIS/Core/Include/cmsis_gcc.h ****   \brief   Get Main Stack Pointer Limit
 739:Drivers/CMSIS/Core/Include/cmsis_gcc.h ****   Devices without ARMv8-M Main Extensions (i.e. Cortex-M23) lack the non-secure
 740:Drivers/CMSIS/Core/Include/cmsis_gcc.h ****   Stack Pointer Limit register hence zero is returned always in non-secure
 741:Drivers/CMSIS/Core/Include/cmsis_gcc.h ****   mode.
 742:Drivers/CMSIS/Core/Include/cmsis_gcc.h **** 
 743:Drivers/CMSIS/Core/Include/cmsis_gcc.h ****   \details Returns the current value of the Main Stack Pointer Limit (MSPLIM).
 744:Drivers/CMSIS/Core/Include/cmsis_gcc.h ****   \return               MSPLIM Register value
 745:Drivers/CMSIS/Core/Include/cmsis_gcc.h ****  */
 746:Drivers/CMSIS/Core/Include/cmsis_gcc.h **** __STATIC_FORCEINLINE uint32_t __get_MSPLIM(void)
 747:Drivers/CMSIS/Core/Include/cmsis_gcc.h **** {
 748:Drivers/CMSIS/Core/Include/cmsis_gcc.h **** #if (!(defined (__ARM_ARCH_8M_MAIN__ ) && (__ARM_ARCH_8M_MAIN__ == 1)) && \
 749:Drivers/CMSIS/Core/Include/cmsis_gcc.h ****     (!defined (__ARM_FEATURE_CMSE) || (__ARM_FEATURE_CMSE < 3)))
 750:Drivers/CMSIS/Core/Include/cmsis_gcc.h ****   // without main extensions, the non-secure MSPLIM is RAZ/WI
 751:Drivers/CMSIS/Core/Include/cmsis_gcc.h ****   return 0U;
 752:Drivers/CMSIS/Core/Include/cmsis_gcc.h **** #else
 753:Drivers/CMSIS/Core/Include/cmsis_gcc.h ****   uint32_t result;
 754:Drivers/CMSIS/Core/Include/cmsis_gcc.h ****   __ASM volatile ("MRS %0, msplim" : "=r" (result) );
 755:Drivers/CMSIS/Core/Include/cmsis_gcc.h ****   return result;
 756:Drivers/CMSIS/Core/Include/cmsis_gcc.h **** #endif
 757:Drivers/CMSIS/Core/Include/cmsis_gcc.h **** }
 758:Drivers/CMSIS/Core/Include/cmsis_gcc.h **** 
 759:Drivers/CMSIS/Core/Include/cmsis_gcc.h **** 
 760:Drivers/CMSIS/Core/Include/cmsis_gcc.h **** #if (defined (__ARM_FEATURE_CMSE  ) && (__ARM_FEATURE_CMSE   == 3))
 761:Drivers/CMSIS/Core/Include/cmsis_gcc.h **** /**
 762:Drivers/CMSIS/Core/Include/cmsis_gcc.h ****   \brief   Get Main Stack Pointer Limit (non-secure)
 763:Drivers/CMSIS/Core/Include/cmsis_gcc.h ****   Devices without ARMv8-M Main Extensions (i.e. Cortex-M23) lack the non-secure
 764:Drivers/CMSIS/Core/Include/cmsis_gcc.h ****   Stack Pointer Limit register hence zero is returned always.
 765:Drivers/CMSIS/Core/Include/cmsis_gcc.h **** 
 766:Drivers/CMSIS/Core/Include/cmsis_gcc.h ****   \details Returns the current value of the non-secure Main Stack Pointer Limit(MSPLIM) when in sec
 767:Drivers/CMSIS/Core/Include/cmsis_gcc.h ****   \return               MSPLIM Register value
 768:Drivers/CMSIS/Core/Include/cmsis_gcc.h ****  */
 769:Drivers/CMSIS/Core/Include/cmsis_gcc.h **** __STATIC_FORCEINLINE uint32_t __TZ_get_MSPLIM_NS(void)
 770:Drivers/CMSIS/Core/Include/cmsis_gcc.h **** {
 771:Drivers/CMSIS/Core/Include/cmsis_gcc.h **** #if (!(defined (__ARM_ARCH_8M_MAIN__ ) && (__ARM_ARCH_8M_MAIN__ == 1)))
 772:Drivers/CMSIS/Core/Include/cmsis_gcc.h ****   // without main extensions, the non-secure MSPLIM is RAZ/WI
 773:Drivers/CMSIS/Core/Include/cmsis_gcc.h ****   return 0U;
 774:Drivers/CMSIS/Core/Include/cmsis_gcc.h **** #else
 775:Drivers/CMSIS/Core/Include/cmsis_gcc.h ****   uint32_t result;
 776:Drivers/CMSIS/Core/Include/cmsis_gcc.h ****   __ASM volatile ("MRS %0, msplim_ns" : "=r" (result) );
 777:Drivers/CMSIS/Core/Include/cmsis_gcc.h ****   return result;
 778:Drivers/CMSIS/Core/Include/cmsis_gcc.h **** #endif
 779:Drivers/CMSIS/Core/Include/cmsis_gcc.h **** }
 780:Drivers/CMSIS/Core/Include/cmsis_gcc.h **** #endif
 781:Drivers/CMSIS/Core/Include/cmsis_gcc.h **** 
 782:Drivers/CMSIS/Core/Include/cmsis_gcc.h **** 
 783:Drivers/CMSIS/Core/Include/cmsis_gcc.h **** /**
 784:Drivers/CMSIS/Core/Include/cmsis_gcc.h ****   \brief   Set Main Stack Pointer Limit
 785:Drivers/CMSIS/Core/Include/cmsis_gcc.h ****   Devices without ARMv8-M Main Extensions (i.e. Cortex-M23) lack the non-secure
 786:Drivers/CMSIS/Core/Include/cmsis_gcc.h ****   Stack Pointer Limit register hence the write is silently ignored in non-secure
 787:Drivers/CMSIS/Core/Include/cmsis_gcc.h ****   mode.
 788:Drivers/CMSIS/Core/Include/cmsis_gcc.h **** 
ARM GAS  /tmp/ccUr9KqT.s 			page 30


 789:Drivers/CMSIS/Core/Include/cmsis_gcc.h ****   \details Assigns the given value to the Main Stack Pointer Limit (MSPLIM).
 790:Drivers/CMSIS/Core/Include/cmsis_gcc.h ****   \param [in]    MainStackPtrLimit  Main Stack Pointer Limit value to set
 791:Drivers/CMSIS/Core/Include/cmsis_gcc.h ****  */
 792:Drivers/CMSIS/Core/Include/cmsis_gcc.h **** __STATIC_FORCEINLINE void __set_MSPLIM(uint32_t MainStackPtrLimit)
 793:Drivers/CMSIS/Core/Include/cmsis_gcc.h **** {
 794:Drivers/CMSIS/Core/Include/cmsis_gcc.h **** #if (!(defined (__ARM_ARCH_8M_MAIN__ ) && (__ARM_ARCH_8M_MAIN__ == 1)) && \
 795:Drivers/CMSIS/Core/Include/cmsis_gcc.h ****     (!defined (__ARM_FEATURE_CMSE) || (__ARM_FEATURE_CMSE < 3)))
 796:Drivers/CMSIS/Core/Include/cmsis_gcc.h ****   // without main extensions, the non-secure MSPLIM is RAZ/WI
 797:Drivers/CMSIS/Core/Include/cmsis_gcc.h ****   (void)MainStackPtrLimit;
 798:Drivers/CMSIS/Core/Include/cmsis_gcc.h **** #else
 799:Drivers/CMSIS/Core/Include/cmsis_gcc.h ****   __ASM volatile ("MSR msplim, %0" : : "r" (MainStackPtrLimit));
 800:Drivers/CMSIS/Core/Include/cmsis_gcc.h **** #endif
 801:Drivers/CMSIS/Core/Include/cmsis_gcc.h **** }
 802:Drivers/CMSIS/Core/Include/cmsis_gcc.h **** 
 803:Drivers/CMSIS/Core/Include/cmsis_gcc.h **** 
 804:Drivers/CMSIS/Core/Include/cmsis_gcc.h **** #if (defined (__ARM_FEATURE_CMSE  ) && (__ARM_FEATURE_CMSE   == 3))
 805:Drivers/CMSIS/Core/Include/cmsis_gcc.h **** /**
 806:Drivers/CMSIS/Core/Include/cmsis_gcc.h ****   \brief   Set Main Stack Pointer Limit (non-secure)
 807:Drivers/CMSIS/Core/Include/cmsis_gcc.h ****   Devices without ARMv8-M Main Extensions (i.e. Cortex-M23) lack the non-secure
 808:Drivers/CMSIS/Core/Include/cmsis_gcc.h ****   Stack Pointer Limit register hence the write is silently ignored.
 809:Drivers/CMSIS/Core/Include/cmsis_gcc.h **** 
 810:Drivers/CMSIS/Core/Include/cmsis_gcc.h ****   \details Assigns the given value to the non-secure Main Stack Pointer Limit (MSPLIM) when in secu
 811:Drivers/CMSIS/Core/Include/cmsis_gcc.h ****   \param [in]    MainStackPtrLimit  Main Stack Pointer value to set
 812:Drivers/CMSIS/Core/Include/cmsis_gcc.h ****  */
 813:Drivers/CMSIS/Core/Include/cmsis_gcc.h **** __STATIC_FORCEINLINE void __TZ_set_MSPLIM_NS(uint32_t MainStackPtrLimit)
 814:Drivers/CMSIS/Core/Include/cmsis_gcc.h **** {
 815:Drivers/CMSIS/Core/Include/cmsis_gcc.h **** #if (!(defined (__ARM_ARCH_8M_MAIN__ ) && (__ARM_ARCH_8M_MAIN__ == 1)))
 816:Drivers/CMSIS/Core/Include/cmsis_gcc.h ****   // without main extensions, the non-secure MSPLIM is RAZ/WI
 817:Drivers/CMSIS/Core/Include/cmsis_gcc.h ****   (void)MainStackPtrLimit;
 818:Drivers/CMSIS/Core/Include/cmsis_gcc.h **** #else
 819:Drivers/CMSIS/Core/Include/cmsis_gcc.h ****   __ASM volatile ("MSR msplim_ns, %0" : : "r" (MainStackPtrLimit));
 820:Drivers/CMSIS/Core/Include/cmsis_gcc.h **** #endif
 821:Drivers/CMSIS/Core/Include/cmsis_gcc.h **** }
 822:Drivers/CMSIS/Core/Include/cmsis_gcc.h **** #endif
 823:Drivers/CMSIS/Core/Include/cmsis_gcc.h **** 
 824:Drivers/CMSIS/Core/Include/cmsis_gcc.h **** #endif /* ((defined (__ARM_ARCH_8M_MAIN__ ) && (__ARM_ARCH_8M_MAIN__ == 1)) || \
 825:Drivers/CMSIS/Core/Include/cmsis_gcc.h ****            (defined (__ARM_ARCH_8M_BASE__ ) && (__ARM_ARCH_8M_BASE__ == 1))    ) */
 826:Drivers/CMSIS/Core/Include/cmsis_gcc.h **** 
 827:Drivers/CMSIS/Core/Include/cmsis_gcc.h **** 
 828:Drivers/CMSIS/Core/Include/cmsis_gcc.h **** /**
 829:Drivers/CMSIS/Core/Include/cmsis_gcc.h ****   \brief   Get FPSCR
 830:Drivers/CMSIS/Core/Include/cmsis_gcc.h ****   \details Returns the current value of the Floating Point Status/Control register.
 831:Drivers/CMSIS/Core/Include/cmsis_gcc.h ****   \return               Floating Point Status/Control register value
 832:Drivers/CMSIS/Core/Include/cmsis_gcc.h ****  */
 833:Drivers/CMSIS/Core/Include/cmsis_gcc.h **** __STATIC_FORCEINLINE uint32_t __get_FPSCR(void)
 834:Drivers/CMSIS/Core/Include/cmsis_gcc.h **** {
 835:Drivers/CMSIS/Core/Include/cmsis_gcc.h **** #if ((defined (__FPU_PRESENT) && (__FPU_PRESENT == 1U)) && \
 836:Drivers/CMSIS/Core/Include/cmsis_gcc.h ****      (defined (__FPU_USED   ) && (__FPU_USED    == 1U))     )
 837:Drivers/CMSIS/Core/Include/cmsis_gcc.h **** #if __has_builtin(__builtin_arm_get_fpscr) 
 838:Drivers/CMSIS/Core/Include/cmsis_gcc.h **** // Re-enable using built-in when GCC has been fixed
 839:Drivers/CMSIS/Core/Include/cmsis_gcc.h **** // || (__GNUC__ > 7) || (__GNUC__ == 7 && __GNUC_MINOR__ >= 2)
 840:Drivers/CMSIS/Core/Include/cmsis_gcc.h ****   /* see https://gcc.gnu.org/ml/gcc-patches/2017-04/msg00443.html */
 841:Drivers/CMSIS/Core/Include/cmsis_gcc.h ****   return __builtin_arm_get_fpscr();
 842:Drivers/CMSIS/Core/Include/cmsis_gcc.h **** #else
 843:Drivers/CMSIS/Core/Include/cmsis_gcc.h ****   uint32_t result;
 844:Drivers/CMSIS/Core/Include/cmsis_gcc.h **** 
 845:Drivers/CMSIS/Core/Include/cmsis_gcc.h ****   __ASM volatile ("VMRS %0, fpscr" : "=r" (result) );
ARM GAS  /tmp/ccUr9KqT.s 			page 31


 846:Drivers/CMSIS/Core/Include/cmsis_gcc.h ****   return(result);
 847:Drivers/CMSIS/Core/Include/cmsis_gcc.h **** #endif
 848:Drivers/CMSIS/Core/Include/cmsis_gcc.h **** #else
 849:Drivers/CMSIS/Core/Include/cmsis_gcc.h ****   return(0U);
 850:Drivers/CMSIS/Core/Include/cmsis_gcc.h **** #endif
 851:Drivers/CMSIS/Core/Include/cmsis_gcc.h **** }
 852:Drivers/CMSIS/Core/Include/cmsis_gcc.h **** 
 853:Drivers/CMSIS/Core/Include/cmsis_gcc.h **** 
 854:Drivers/CMSIS/Core/Include/cmsis_gcc.h **** /**
 855:Drivers/CMSIS/Core/Include/cmsis_gcc.h ****   \brief   Set FPSCR
 856:Drivers/CMSIS/Core/Include/cmsis_gcc.h ****   \details Assigns the given value to the Floating Point Status/Control register.
 857:Drivers/CMSIS/Core/Include/cmsis_gcc.h ****   \param [in]    fpscr  Floating Point Status/Control value to set
 858:Drivers/CMSIS/Core/Include/cmsis_gcc.h ****  */
 859:Drivers/CMSIS/Core/Include/cmsis_gcc.h **** __STATIC_FORCEINLINE void __set_FPSCR(uint32_t fpscr)
 860:Drivers/CMSIS/Core/Include/cmsis_gcc.h **** {
 861:Drivers/CMSIS/Core/Include/cmsis_gcc.h **** #if ((defined (__FPU_PRESENT) && (__FPU_PRESENT == 1U)) && \
 862:Drivers/CMSIS/Core/Include/cmsis_gcc.h ****      (defined (__FPU_USED   ) && (__FPU_USED    == 1U))     )
 863:Drivers/CMSIS/Core/Include/cmsis_gcc.h **** #if __has_builtin(__builtin_arm_set_fpscr)
 864:Drivers/CMSIS/Core/Include/cmsis_gcc.h **** // Re-enable using built-in when GCC has been fixed
 865:Drivers/CMSIS/Core/Include/cmsis_gcc.h **** // || (__GNUC__ > 7) || (__GNUC__ == 7 && __GNUC_MINOR__ >= 2)
 866:Drivers/CMSIS/Core/Include/cmsis_gcc.h ****   /* see https://gcc.gnu.org/ml/gcc-patches/2017-04/msg00443.html */
 867:Drivers/CMSIS/Core/Include/cmsis_gcc.h ****   __builtin_arm_set_fpscr(fpscr);
 868:Drivers/CMSIS/Core/Include/cmsis_gcc.h **** #else
 869:Drivers/CMSIS/Core/Include/cmsis_gcc.h ****   __ASM volatile ("VMSR fpscr, %0" : : "r" (fpscr) : "vfpcc", "memory");
 870:Drivers/CMSIS/Core/Include/cmsis_gcc.h **** #endif
 871:Drivers/CMSIS/Core/Include/cmsis_gcc.h **** #else
 872:Drivers/CMSIS/Core/Include/cmsis_gcc.h ****   (void)fpscr;
 873:Drivers/CMSIS/Core/Include/cmsis_gcc.h **** #endif
 874:Drivers/CMSIS/Core/Include/cmsis_gcc.h **** }
 875:Drivers/CMSIS/Core/Include/cmsis_gcc.h **** 
 876:Drivers/CMSIS/Core/Include/cmsis_gcc.h **** 
 877:Drivers/CMSIS/Core/Include/cmsis_gcc.h **** /*@} end of CMSIS_Core_RegAccFunctions */
 878:Drivers/CMSIS/Core/Include/cmsis_gcc.h **** 
 879:Drivers/CMSIS/Core/Include/cmsis_gcc.h **** 
 880:Drivers/CMSIS/Core/Include/cmsis_gcc.h **** /* ##########################  Core Instruction Access  ######################### */
 881:Drivers/CMSIS/Core/Include/cmsis_gcc.h **** /** \defgroup CMSIS_Core_InstructionInterface CMSIS Core Instruction Interface
 882:Drivers/CMSIS/Core/Include/cmsis_gcc.h ****   Access to dedicated instructions
 883:Drivers/CMSIS/Core/Include/cmsis_gcc.h ****   @{
 884:Drivers/CMSIS/Core/Include/cmsis_gcc.h **** */
 885:Drivers/CMSIS/Core/Include/cmsis_gcc.h **** 
 886:Drivers/CMSIS/Core/Include/cmsis_gcc.h **** /* Define macros for porting to both thumb1 and thumb2.
 887:Drivers/CMSIS/Core/Include/cmsis_gcc.h ****  * For thumb1, use low register (r0-r7), specified by constraint "l"
 888:Drivers/CMSIS/Core/Include/cmsis_gcc.h ****  * Otherwise, use general registers, specified by constraint "r" */
 889:Drivers/CMSIS/Core/Include/cmsis_gcc.h **** #if defined (__thumb__) && !defined (__thumb2__)
 890:Drivers/CMSIS/Core/Include/cmsis_gcc.h **** #define __CMSIS_GCC_OUT_REG(r) "=l" (r)
 891:Drivers/CMSIS/Core/Include/cmsis_gcc.h **** #define __CMSIS_GCC_RW_REG(r) "+l" (r)
 892:Drivers/CMSIS/Core/Include/cmsis_gcc.h **** #define __CMSIS_GCC_USE_REG(r) "l" (r)
 893:Drivers/CMSIS/Core/Include/cmsis_gcc.h **** #else
 894:Drivers/CMSIS/Core/Include/cmsis_gcc.h **** #define __CMSIS_GCC_OUT_REG(r) "=r" (r)
 895:Drivers/CMSIS/Core/Include/cmsis_gcc.h **** #define __CMSIS_GCC_RW_REG(r) "+r" (r)
 896:Drivers/CMSIS/Core/Include/cmsis_gcc.h **** #define __CMSIS_GCC_USE_REG(r) "r" (r)
 897:Drivers/CMSIS/Core/Include/cmsis_gcc.h **** #endif
 898:Drivers/CMSIS/Core/Include/cmsis_gcc.h **** 
 899:Drivers/CMSIS/Core/Include/cmsis_gcc.h **** /**
 900:Drivers/CMSIS/Core/Include/cmsis_gcc.h ****   \brief   No Operation
 901:Drivers/CMSIS/Core/Include/cmsis_gcc.h ****   \details No Operation does nothing. This instruction can be used for code alignment purposes.
 902:Drivers/CMSIS/Core/Include/cmsis_gcc.h ****  */
ARM GAS  /tmp/ccUr9KqT.s 			page 32


 903:Drivers/CMSIS/Core/Include/cmsis_gcc.h **** #define __NOP()                             __ASM volatile ("nop")
 904:Drivers/CMSIS/Core/Include/cmsis_gcc.h **** 
 905:Drivers/CMSIS/Core/Include/cmsis_gcc.h **** /**
 906:Drivers/CMSIS/Core/Include/cmsis_gcc.h ****   \brief   Wait For Interrupt
 907:Drivers/CMSIS/Core/Include/cmsis_gcc.h ****   \details Wait For Interrupt is a hint instruction that suspends execution until one of a number o
 908:Drivers/CMSIS/Core/Include/cmsis_gcc.h ****  */
 909:Drivers/CMSIS/Core/Include/cmsis_gcc.h **** #define __WFI()                             __ASM volatile ("wfi")
 910:Drivers/CMSIS/Core/Include/cmsis_gcc.h **** 
 911:Drivers/CMSIS/Core/Include/cmsis_gcc.h **** 
 912:Drivers/CMSIS/Core/Include/cmsis_gcc.h **** /**
 913:Drivers/CMSIS/Core/Include/cmsis_gcc.h ****   \brief   Wait For Event
 914:Drivers/CMSIS/Core/Include/cmsis_gcc.h ****   \details Wait For Event is a hint instruction that permits the processor to enter
 915:Drivers/CMSIS/Core/Include/cmsis_gcc.h ****            a low-power state until one of a number of events occurs.
 916:Drivers/CMSIS/Core/Include/cmsis_gcc.h ****  */
 917:Drivers/CMSIS/Core/Include/cmsis_gcc.h **** #define __WFE()                             __ASM volatile ("wfe")
 918:Drivers/CMSIS/Core/Include/cmsis_gcc.h **** 
 919:Drivers/CMSIS/Core/Include/cmsis_gcc.h **** 
 920:Drivers/CMSIS/Core/Include/cmsis_gcc.h **** /**
 921:Drivers/CMSIS/Core/Include/cmsis_gcc.h ****   \brief   Send Event
 922:Drivers/CMSIS/Core/Include/cmsis_gcc.h ****   \details Send Event is a hint instruction. It causes an event to be signaled to the CPU.
 923:Drivers/CMSIS/Core/Include/cmsis_gcc.h ****  */
 924:Drivers/CMSIS/Core/Include/cmsis_gcc.h **** #define __SEV()                             __ASM volatile ("sev")
 925:Drivers/CMSIS/Core/Include/cmsis_gcc.h **** 
 926:Drivers/CMSIS/Core/Include/cmsis_gcc.h **** 
 927:Drivers/CMSIS/Core/Include/cmsis_gcc.h **** /**
 928:Drivers/CMSIS/Core/Include/cmsis_gcc.h ****   \brief   Instruction Synchronization Barrier
 929:Drivers/CMSIS/Core/Include/cmsis_gcc.h ****   \details Instruction Synchronization Barrier flushes the pipeline in the processor,
 930:Drivers/CMSIS/Core/Include/cmsis_gcc.h ****            so that all instructions following the ISB are fetched from cache or memory,
 931:Drivers/CMSIS/Core/Include/cmsis_gcc.h ****            after the instruction has been completed.
 932:Drivers/CMSIS/Core/Include/cmsis_gcc.h ****  */
 933:Drivers/CMSIS/Core/Include/cmsis_gcc.h **** __STATIC_FORCEINLINE void __ISB(void)
 934:Drivers/CMSIS/Core/Include/cmsis_gcc.h **** {
 935:Drivers/CMSIS/Core/Include/cmsis_gcc.h ****   __ASM volatile ("isb 0xF":::"memory");
 936:Drivers/CMSIS/Core/Include/cmsis_gcc.h **** }
 937:Drivers/CMSIS/Core/Include/cmsis_gcc.h **** 
 938:Drivers/CMSIS/Core/Include/cmsis_gcc.h **** 
 939:Drivers/CMSIS/Core/Include/cmsis_gcc.h **** /**
 940:Drivers/CMSIS/Core/Include/cmsis_gcc.h ****   \brief   Data Synchronization Barrier
 941:Drivers/CMSIS/Core/Include/cmsis_gcc.h ****   \details Acts as a special kind of Data Memory Barrier.
 942:Drivers/CMSIS/Core/Include/cmsis_gcc.h ****            It completes when all explicit memory accesses before this instruction complete.
 943:Drivers/CMSIS/Core/Include/cmsis_gcc.h ****  */
 944:Drivers/CMSIS/Core/Include/cmsis_gcc.h **** __STATIC_FORCEINLINE void __DSB(void)
 945:Drivers/CMSIS/Core/Include/cmsis_gcc.h **** {
 946:Drivers/CMSIS/Core/Include/cmsis_gcc.h ****   __ASM volatile ("dsb 0xF":::"memory");
 477              		.loc 2 946 3
 478              		.syntax unified
 479              	@ 946 "Drivers/CMSIS/Core/Include/cmsis_gcc.h" 1
 480 005c BFF34F8F 		dsb 0xF
 481              	@ 0 "" 2
 947:Drivers/CMSIS/Core/Include/cmsis_gcc.h **** }
 482              		.loc 2 947 1
 483              		.thumb
 484              		.syntax unified
 485 0060 00BF     		nop
 486              	.LBE341:
 487              	.LBE340:
 404:Drivers/STM32L4xx_HAL_Driver/Src/stm32l4xx_hal_nand.c ****     __DSB();
ARM GAS  /tmp/ccUr9KqT.s 			page 33


 405:Drivers/STM32L4xx_HAL_Driver/Src/stm32l4xx_hal_nand.c ****     *(__IO uint8_t *)((uint32_t)(deviceaddress | ADDR_AREA)) = 0x00;
 488              		.loc 1 405 23
 489 0062 7B69     		ldr	r3, [r7, #20]
 490 0064 43F40033 		orr	r3, r3, #131072
 491              		.loc 1 405 62
 492 0068 0022     		movs	r2, #0
 493 006a 1A70     		strb	r2, [r3]
 494              	.LBB342:
 495              	.LBB343:
 946:Drivers/CMSIS/Core/Include/cmsis_gcc.h **** }
 496              		.loc 2 946 3
 497              		.syntax unified
 498              	@ 946 "Drivers/CMSIS/Core/Include/cmsis_gcc.h" 1
 499 006c BFF34F8F 		dsb 0xF
 500              	@ 0 "" 2
 501              		.loc 2 947 1
 502              		.thumb
 503              		.syntax unified
 504 0070 00BF     		nop
 505              	.LBE343:
 506              	.LBE342:
 406:Drivers/STM32L4xx_HAL_Driver/Src/stm32l4xx_hal_nand.c ****     __DSB();
 407:Drivers/STM32L4xx_HAL_Driver/Src/stm32l4xx_hal_nand.c **** 
 408:Drivers/STM32L4xx_HAL_Driver/Src/stm32l4xx_hal_nand.c ****     /* Read the electronic signature from NAND flash */
 409:Drivers/STM32L4xx_HAL_Driver/Src/stm32l4xx_hal_nand.c ****     if (hnand->Init.MemoryDataWidth == FMC_NAND_MEM_BUS_WIDTH_8)
 507              		.loc 1 409 20
 508 0072 7B68     		ldr	r3, [r7, #4]
 509 0074 DB68     		ldr	r3, [r3, #12]
 510              		.loc 1 409 8
 511 0076 002B     		cmp	r3, #0
 512 0078 16D1     		bne	.L21
 410:Drivers/STM32L4xx_HAL_Driver/Src/stm32l4xx_hal_nand.c ****     {
 411:Drivers/STM32L4xx_HAL_Driver/Src/stm32l4xx_hal_nand.c ****       data = *(__IO uint32_t *)deviceaddress;
 513              		.loc 1 411 15
 514 007a 7B69     		ldr	r3, [r7, #20]
 515              		.loc 1 411 14
 516 007c 1B68     		ldr	r3, [r3]
 517              		.loc 1 411 12
 518 007e 3B61     		str	r3, [r7, #16]
 412:Drivers/STM32L4xx_HAL_Driver/Src/stm32l4xx_hal_nand.c **** 
 413:Drivers/STM32L4xx_HAL_Driver/Src/stm32l4xx_hal_nand.c ****       /* Return the data read */
 414:Drivers/STM32L4xx_HAL_Driver/Src/stm32l4xx_hal_nand.c ****       pNAND_ID->Maker_Id   = ADDR_1ST_CYCLE(data);
 519              		.loc 1 414 30
 520 0080 3B69     		ldr	r3, [r7, #16]
 521 0082 DAB2     		uxtb	r2, r3
 522              		.loc 1 414 28
 523 0084 3B68     		ldr	r3, [r7]
 524 0086 1A70     		strb	r2, [r3]
 415:Drivers/STM32L4xx_HAL_Driver/Src/stm32l4xx_hal_nand.c ****       pNAND_ID->Device_Id  = ADDR_2ND_CYCLE(data);
 525              		.loc 1 415 30
 526 0088 3B69     		ldr	r3, [r7, #16]
 527 008a 1B0A     		lsrs	r3, r3, #8
 528 008c DAB2     		uxtb	r2, r3
 529              		.loc 1 415 28
 530 008e 3B68     		ldr	r3, [r7]
 531 0090 5A70     		strb	r2, [r3, #1]
 416:Drivers/STM32L4xx_HAL_Driver/Src/stm32l4xx_hal_nand.c ****       pNAND_ID->Third_Id   = ADDR_3RD_CYCLE(data);
ARM GAS  /tmp/ccUr9KqT.s 			page 34


 532              		.loc 1 416 30
 533 0092 3B69     		ldr	r3, [r7, #16]
 534 0094 1B0C     		lsrs	r3, r3, #16
 535 0096 DAB2     		uxtb	r2, r3
 536              		.loc 1 416 28
 537 0098 3B68     		ldr	r3, [r7]
 538 009a 9A70     		strb	r2, [r3, #2]
 417:Drivers/STM32L4xx_HAL_Driver/Src/stm32l4xx_hal_nand.c ****       pNAND_ID->Fourth_Id  = ADDR_4TH_CYCLE(data);
 539              		.loc 1 417 30
 540 009c 3B69     		ldr	r3, [r7, #16]
 541 009e 1B0E     		lsrs	r3, r3, #24
 542 00a0 DAB2     		uxtb	r2, r3
 543              		.loc 1 417 28
 544 00a2 3B68     		ldr	r3, [r7]
 545 00a4 DA70     		strb	r2, [r3, #3]
 546 00a6 18E0     		b	.L22
 547              	.L21:
 418:Drivers/STM32L4xx_HAL_Driver/Src/stm32l4xx_hal_nand.c ****     }
 419:Drivers/STM32L4xx_HAL_Driver/Src/stm32l4xx_hal_nand.c ****     else
 420:Drivers/STM32L4xx_HAL_Driver/Src/stm32l4xx_hal_nand.c ****     {
 421:Drivers/STM32L4xx_HAL_Driver/Src/stm32l4xx_hal_nand.c ****       data = *(__IO uint32_t *)deviceaddress;
 548              		.loc 1 421 15
 549 00a8 7B69     		ldr	r3, [r7, #20]
 550              		.loc 1 421 14
 551 00aa 1B68     		ldr	r3, [r3]
 552              		.loc 1 421 12
 553 00ac 3B61     		str	r3, [r7, #16]
 422:Drivers/STM32L4xx_HAL_Driver/Src/stm32l4xx_hal_nand.c ****       data1 = *((__IO uint32_t *)deviceaddress + 4);
 554              		.loc 1 422 48
 555 00ae 7B69     		ldr	r3, [r7, #20]
 556 00b0 1033     		adds	r3, r3, #16
 557              		.loc 1 422 15
 558 00b2 1B68     		ldr	r3, [r3]
 559              		.loc 1 422 13
 560 00b4 FB60     		str	r3, [r7, #12]
 423:Drivers/STM32L4xx_HAL_Driver/Src/stm32l4xx_hal_nand.c **** 
 424:Drivers/STM32L4xx_HAL_Driver/Src/stm32l4xx_hal_nand.c ****       /* Return the data read */
 425:Drivers/STM32L4xx_HAL_Driver/Src/stm32l4xx_hal_nand.c ****       pNAND_ID->Maker_Id   = ADDR_1ST_CYCLE(data);
 561              		.loc 1 425 30
 562 00b6 3B69     		ldr	r3, [r7, #16]
 563 00b8 DAB2     		uxtb	r2, r3
 564              		.loc 1 425 28
 565 00ba 3B68     		ldr	r3, [r7]
 566 00bc 1A70     		strb	r2, [r3]
 426:Drivers/STM32L4xx_HAL_Driver/Src/stm32l4xx_hal_nand.c ****       pNAND_ID->Device_Id  = ADDR_3RD_CYCLE(data);
 567              		.loc 1 426 30
 568 00be 3B69     		ldr	r3, [r7, #16]
 569 00c0 1B0C     		lsrs	r3, r3, #16
 570 00c2 DAB2     		uxtb	r2, r3
 571              		.loc 1 426 28
 572 00c4 3B68     		ldr	r3, [r7]
 573 00c6 5A70     		strb	r2, [r3, #1]
 427:Drivers/STM32L4xx_HAL_Driver/Src/stm32l4xx_hal_nand.c ****       pNAND_ID->Third_Id   = ADDR_1ST_CYCLE(data1);
 574              		.loc 1 427 30
 575 00c8 FB68     		ldr	r3, [r7, #12]
 576 00ca DAB2     		uxtb	r2, r3
 577              		.loc 1 427 28
ARM GAS  /tmp/ccUr9KqT.s 			page 35


 578 00cc 3B68     		ldr	r3, [r7]
 579 00ce 9A70     		strb	r2, [r3, #2]
 428:Drivers/STM32L4xx_HAL_Driver/Src/stm32l4xx_hal_nand.c ****       pNAND_ID->Fourth_Id  = ADDR_3RD_CYCLE(data1);
 580              		.loc 1 428 30
 581 00d0 FB68     		ldr	r3, [r7, #12]
 582 00d2 1B0C     		lsrs	r3, r3, #16
 583 00d4 DAB2     		uxtb	r2, r3
 584              		.loc 1 428 28
 585 00d6 3B68     		ldr	r3, [r7]
 586 00d8 DA70     		strb	r2, [r3, #3]
 587              	.L22:
 429:Drivers/STM32L4xx_HAL_Driver/Src/stm32l4xx_hal_nand.c ****     }
 430:Drivers/STM32L4xx_HAL_Driver/Src/stm32l4xx_hal_nand.c **** 
 431:Drivers/STM32L4xx_HAL_Driver/Src/stm32l4xx_hal_nand.c ****     /* Update the NAND controller state */
 432:Drivers/STM32L4xx_HAL_Driver/Src/stm32l4xx_hal_nand.c ****     hnand->State = HAL_NAND_STATE_READY;
 588              		.loc 1 432 18
 589 00da 7B68     		ldr	r3, [r7, #4]
 590 00dc 0122     		movs	r2, #1
 591 00de 83F82120 		strb	r2, [r3, #33]
 433:Drivers/STM32L4xx_HAL_Driver/Src/stm32l4xx_hal_nand.c **** 
 434:Drivers/STM32L4xx_HAL_Driver/Src/stm32l4xx_hal_nand.c ****     /* Process unlocked */
 435:Drivers/STM32L4xx_HAL_Driver/Src/stm32l4xx_hal_nand.c ****     __HAL_UNLOCK(hnand);
 592              		.loc 1 435 5
 593 00e2 7B68     		ldr	r3, [r7, #4]
 594 00e4 0022     		movs	r2, #0
 595 00e6 83F82020 		strb	r2, [r3, #32]
 436:Drivers/STM32L4xx_HAL_Driver/Src/stm32l4xx_hal_nand.c ****   }
 437:Drivers/STM32L4xx_HAL_Driver/Src/stm32l4xx_hal_nand.c ****   else
 438:Drivers/STM32L4xx_HAL_Driver/Src/stm32l4xx_hal_nand.c ****   {
 439:Drivers/STM32L4xx_HAL_Driver/Src/stm32l4xx_hal_nand.c ****     return HAL_ERROR;
 440:Drivers/STM32L4xx_HAL_Driver/Src/stm32l4xx_hal_nand.c ****   }
 441:Drivers/STM32L4xx_HAL_Driver/Src/stm32l4xx_hal_nand.c **** 
 442:Drivers/STM32L4xx_HAL_Driver/Src/stm32l4xx_hal_nand.c ****   return HAL_OK;
 596              		.loc 1 442 10
 597 00ea 0023     		movs	r3, #0
 598 00ec 00E0     		b	.L18
 599              	.L19:
 439:Drivers/STM32L4xx_HAL_Driver/Src/stm32l4xx_hal_nand.c ****   }
 600              		.loc 1 439 12
 601 00ee 0123     		movs	r3, #1
 602              	.L18:
 443:Drivers/STM32L4xx_HAL_Driver/Src/stm32l4xx_hal_nand.c **** }
 603              		.loc 1 443 1
 604 00f0 1846     		mov	r0, r3
 605 00f2 1C37     		adds	r7, r7, #28
 606              		.cfi_def_cfa_offset 4
 607 00f4 BD46     		mov	sp, r7
 608              		.cfi_def_cfa_register 13
 609              		@ sp needed
 610 00f6 5DF8047B 		ldr	r7, [sp], #4
 611              		.cfi_restore 7
 612              		.cfi_def_cfa_offset 0
 613 00fa 7047     		bx	lr
 614              		.cfi_endproc
 615              	.LFE451:
 617              		.section	.text.HAL_NAND_Reset,"ax",%progbits
 618              		.align	1
ARM GAS  /tmp/ccUr9KqT.s 			page 36


 619              		.global	HAL_NAND_Reset
 620              		.syntax unified
 621              		.thumb
 622              		.thumb_func
 624              	HAL_NAND_Reset:
 625              	.LFB452:
 444:Drivers/STM32L4xx_HAL_Driver/Src/stm32l4xx_hal_nand.c **** 
 445:Drivers/STM32L4xx_HAL_Driver/Src/stm32l4xx_hal_nand.c **** /**
 446:Drivers/STM32L4xx_HAL_Driver/Src/stm32l4xx_hal_nand.c ****   * @brief  NAND memory reset
 447:Drivers/STM32L4xx_HAL_Driver/Src/stm32l4xx_hal_nand.c ****   * @param  hnand pointer to a NAND_HandleTypeDef structure that contains
 448:Drivers/STM32L4xx_HAL_Driver/Src/stm32l4xx_hal_nand.c ****   *                the configuration information for NAND module.
 449:Drivers/STM32L4xx_HAL_Driver/Src/stm32l4xx_hal_nand.c ****   * @retval HAL status
 450:Drivers/STM32L4xx_HAL_Driver/Src/stm32l4xx_hal_nand.c ****   */
 451:Drivers/STM32L4xx_HAL_Driver/Src/stm32l4xx_hal_nand.c **** HAL_StatusTypeDef HAL_NAND_Reset(NAND_HandleTypeDef *hnand)
 452:Drivers/STM32L4xx_HAL_Driver/Src/stm32l4xx_hal_nand.c **** {
 626              		.loc 1 452 1
 627              		.cfi_startproc
 628              		@ args = 0, pretend = 0, frame = 16
 629              		@ frame_needed = 1, uses_anonymous_args = 0
 630              		@ link register save eliminated.
 631 0000 80B4     		push	{r7}
 632              		.cfi_def_cfa_offset 4
 633              		.cfi_offset 7, -4
 634 0002 85B0     		sub	sp, sp, #20
 635              		.cfi_def_cfa_offset 24
 636 0004 00AF     		add	r7, sp, #0
 637              		.cfi_def_cfa_register 7
 638 0006 7860     		str	r0, [r7, #4]
 453:Drivers/STM32L4xx_HAL_Driver/Src/stm32l4xx_hal_nand.c ****   uint32_t deviceaddress;
 454:Drivers/STM32L4xx_HAL_Driver/Src/stm32l4xx_hal_nand.c **** 
 455:Drivers/STM32L4xx_HAL_Driver/Src/stm32l4xx_hal_nand.c ****   /* Check the NAND controller state */
 456:Drivers/STM32L4xx_HAL_Driver/Src/stm32l4xx_hal_nand.c ****   if (hnand->State == HAL_NAND_STATE_BUSY)
 639              		.loc 1 456 12
 640 0008 7B68     		ldr	r3, [r7, #4]
 641 000a 93F82130 		ldrb	r3, [r3, #33]
 642 000e DBB2     		uxtb	r3, r3
 643              		.loc 1 456 6
 644 0010 022B     		cmp	r3, #2
 645 0012 01D1     		bne	.L25
 457:Drivers/STM32L4xx_HAL_Driver/Src/stm32l4xx_hal_nand.c ****   {
 458:Drivers/STM32L4xx_HAL_Driver/Src/stm32l4xx_hal_nand.c ****     return HAL_BUSY;
 646              		.loc 1 458 12
 647 0014 0223     		movs	r3, #2
 648 0016 27E0     		b	.L26
 649              	.L25:
 459:Drivers/STM32L4xx_HAL_Driver/Src/stm32l4xx_hal_nand.c ****   }
 460:Drivers/STM32L4xx_HAL_Driver/Src/stm32l4xx_hal_nand.c ****   else if (hnand->State == HAL_NAND_STATE_READY)
 650              		.loc 1 460 17
 651 0018 7B68     		ldr	r3, [r7, #4]
 652 001a 93F82130 		ldrb	r3, [r3, #33]
 653 001e DBB2     		uxtb	r3, r3
 654              		.loc 1 460 11
 655 0020 012B     		cmp	r3, #1
 656 0022 20D1     		bne	.L27
 461:Drivers/STM32L4xx_HAL_Driver/Src/stm32l4xx_hal_nand.c ****   {
 462:Drivers/STM32L4xx_HAL_Driver/Src/stm32l4xx_hal_nand.c ****     /* Process Locked */
 463:Drivers/STM32L4xx_HAL_Driver/Src/stm32l4xx_hal_nand.c ****     __HAL_LOCK(hnand);
ARM GAS  /tmp/ccUr9KqT.s 			page 37


 657              		.loc 1 463 5
 658 0024 7B68     		ldr	r3, [r7, #4]
 659 0026 93F82030 		ldrb	r3, [r3, #32]	@ zero_extendqisi2
 660 002a 012B     		cmp	r3, #1
 661 002c 01D1     		bne	.L28
 662              		.loc 1 463 5 is_stmt 0 discriminator 1
 663 002e 0223     		movs	r3, #2
 664              		.loc 1 463 5
 665 0030 1AE0     		b	.L26
 666              	.L28:
 667              		.loc 1 463 5 discriminator 2
 668 0032 7B68     		ldr	r3, [r7, #4]
 669 0034 0122     		movs	r2, #1
 670 0036 83F82020 		strb	r2, [r3, #32]
 464:Drivers/STM32L4xx_HAL_Driver/Src/stm32l4xx_hal_nand.c **** 
 465:Drivers/STM32L4xx_HAL_Driver/Src/stm32l4xx_hal_nand.c ****     /* Update the NAND controller state */
 466:Drivers/STM32L4xx_HAL_Driver/Src/stm32l4xx_hal_nand.c ****     hnand->State = HAL_NAND_STATE_BUSY;
 671              		.loc 1 466 18 is_stmt 1
 672 003a 7B68     		ldr	r3, [r7, #4]
 673 003c 0222     		movs	r2, #2
 674 003e 83F82120 		strb	r2, [r3, #33]
 467:Drivers/STM32L4xx_HAL_Driver/Src/stm32l4xx_hal_nand.c **** 
 468:Drivers/STM32L4xx_HAL_Driver/Src/stm32l4xx_hal_nand.c ****     /* Identify the device address */
 469:Drivers/STM32L4xx_HAL_Driver/Src/stm32l4xx_hal_nand.c ****     deviceaddress = NAND_DEVICE;
 675              		.loc 1 469 19
 676 0042 4FF00043 		mov	r3, #-2147483648
 677 0046 FB60     		str	r3, [r7, #12]
 470:Drivers/STM32L4xx_HAL_Driver/Src/stm32l4xx_hal_nand.c **** 
 471:Drivers/STM32L4xx_HAL_Driver/Src/stm32l4xx_hal_nand.c ****     /* Send NAND reset command */
 472:Drivers/STM32L4xx_HAL_Driver/Src/stm32l4xx_hal_nand.c ****     *(__IO uint8_t *)((uint32_t)(deviceaddress | CMD_AREA)) = 0xFF;
 678              		.loc 1 472 23
 679 0048 FB68     		ldr	r3, [r7, #12]
 680 004a 43F48033 		orr	r3, r3, #65536
 681              		.loc 1 472 61
 682 004e FF22     		movs	r2, #255
 683 0050 1A70     		strb	r2, [r3]
 473:Drivers/STM32L4xx_HAL_Driver/Src/stm32l4xx_hal_nand.c **** 
 474:Drivers/STM32L4xx_HAL_Driver/Src/stm32l4xx_hal_nand.c ****     /* Update the NAND controller state */
 475:Drivers/STM32L4xx_HAL_Driver/Src/stm32l4xx_hal_nand.c ****     hnand->State = HAL_NAND_STATE_READY;
 684              		.loc 1 475 18
 685 0052 7B68     		ldr	r3, [r7, #4]
 686 0054 0122     		movs	r2, #1
 687 0056 83F82120 		strb	r2, [r3, #33]
 476:Drivers/STM32L4xx_HAL_Driver/Src/stm32l4xx_hal_nand.c **** 
 477:Drivers/STM32L4xx_HAL_Driver/Src/stm32l4xx_hal_nand.c ****     /* Process unlocked */
 478:Drivers/STM32L4xx_HAL_Driver/Src/stm32l4xx_hal_nand.c ****     __HAL_UNLOCK(hnand);
 688              		.loc 1 478 5
 689 005a 7B68     		ldr	r3, [r7, #4]
 690 005c 0022     		movs	r2, #0
 691 005e 83F82020 		strb	r2, [r3, #32]
 479:Drivers/STM32L4xx_HAL_Driver/Src/stm32l4xx_hal_nand.c ****   }
 480:Drivers/STM32L4xx_HAL_Driver/Src/stm32l4xx_hal_nand.c ****   else
 481:Drivers/STM32L4xx_HAL_Driver/Src/stm32l4xx_hal_nand.c ****   {
 482:Drivers/STM32L4xx_HAL_Driver/Src/stm32l4xx_hal_nand.c ****     return HAL_ERROR;
 483:Drivers/STM32L4xx_HAL_Driver/Src/stm32l4xx_hal_nand.c ****   }
 484:Drivers/STM32L4xx_HAL_Driver/Src/stm32l4xx_hal_nand.c **** 
 485:Drivers/STM32L4xx_HAL_Driver/Src/stm32l4xx_hal_nand.c ****   return HAL_OK;
ARM GAS  /tmp/ccUr9KqT.s 			page 38


 692              		.loc 1 485 10
 693 0062 0023     		movs	r3, #0
 694 0064 00E0     		b	.L26
 695              	.L27:
 482:Drivers/STM32L4xx_HAL_Driver/Src/stm32l4xx_hal_nand.c ****   }
 696              		.loc 1 482 12
 697 0066 0123     		movs	r3, #1
 698              	.L26:
 486:Drivers/STM32L4xx_HAL_Driver/Src/stm32l4xx_hal_nand.c **** 
 487:Drivers/STM32L4xx_HAL_Driver/Src/stm32l4xx_hal_nand.c **** }
 699              		.loc 1 487 1
 700 0068 1846     		mov	r0, r3
 701 006a 1437     		adds	r7, r7, #20
 702              		.cfi_def_cfa_offset 4
 703 006c BD46     		mov	sp, r7
 704              		.cfi_def_cfa_register 13
 705              		@ sp needed
 706 006e 5DF8047B 		ldr	r7, [sp], #4
 707              		.cfi_restore 7
 708              		.cfi_def_cfa_offset 0
 709 0072 7047     		bx	lr
 710              		.cfi_endproc
 711              	.LFE452:
 713              		.section	.text.HAL_NAND_ConfigDevice,"ax",%progbits
 714              		.align	1
 715              		.global	HAL_NAND_ConfigDevice
 716              		.syntax unified
 717              		.thumb
 718              		.thumb_func
 720              	HAL_NAND_ConfigDevice:
 721              	.LFB453:
 488:Drivers/STM32L4xx_HAL_Driver/Src/stm32l4xx_hal_nand.c **** 
 489:Drivers/STM32L4xx_HAL_Driver/Src/stm32l4xx_hal_nand.c **** /**
 490:Drivers/STM32L4xx_HAL_Driver/Src/stm32l4xx_hal_nand.c ****   * @brief  Configure the device: Enter the physical parameters of the device
 491:Drivers/STM32L4xx_HAL_Driver/Src/stm32l4xx_hal_nand.c ****   * @param  hnand pointer to a NAND_HandleTypeDef structure that contains
 492:Drivers/STM32L4xx_HAL_Driver/Src/stm32l4xx_hal_nand.c ****   *                the configuration information for NAND module.
 493:Drivers/STM32L4xx_HAL_Driver/Src/stm32l4xx_hal_nand.c ****   * @param  pDeviceConfig  pointer to NAND_DeviceConfigTypeDef structure
 494:Drivers/STM32L4xx_HAL_Driver/Src/stm32l4xx_hal_nand.c ****   * @retval HAL status
 495:Drivers/STM32L4xx_HAL_Driver/Src/stm32l4xx_hal_nand.c ****   */
 496:Drivers/STM32L4xx_HAL_Driver/Src/stm32l4xx_hal_nand.c **** HAL_StatusTypeDef  HAL_NAND_ConfigDevice(NAND_HandleTypeDef *hnand, const NAND_DeviceConfigTypeDef 
 497:Drivers/STM32L4xx_HAL_Driver/Src/stm32l4xx_hal_nand.c **** {
 722              		.loc 1 497 1
 723              		.cfi_startproc
 724              		@ args = 0, pretend = 0, frame = 8
 725              		@ frame_needed = 1, uses_anonymous_args = 0
 726              		@ link register save eliminated.
 727 0000 80B4     		push	{r7}
 728              		.cfi_def_cfa_offset 4
 729              		.cfi_offset 7, -4
 730 0002 83B0     		sub	sp, sp, #12
 731              		.cfi_def_cfa_offset 16
 732 0004 00AF     		add	r7, sp, #0
 733              		.cfi_def_cfa_register 7
 734 0006 7860     		str	r0, [r7, #4]
 735 0008 3960     		str	r1, [r7]
 498:Drivers/STM32L4xx_HAL_Driver/Src/stm32l4xx_hal_nand.c ****   hnand->Config.PageSize           = pDeviceConfig->PageSize;
 736              		.loc 1 498 51
ARM GAS  /tmp/ccUr9KqT.s 			page 39


 737 000a 3B68     		ldr	r3, [r7]
 738 000c 1A68     		ldr	r2, [r3]
 739              		.loc 1 498 36
 740 000e 7B68     		ldr	r3, [r7, #4]
 741 0010 5A62     		str	r2, [r3, #36]
 499:Drivers/STM32L4xx_HAL_Driver/Src/stm32l4xx_hal_nand.c ****   hnand->Config.SpareAreaSize      = pDeviceConfig->SpareAreaSize;
 742              		.loc 1 499 51
 743 0012 3B68     		ldr	r3, [r7]
 744 0014 5A68     		ldr	r2, [r3, #4]
 745              		.loc 1 499 36
 746 0016 7B68     		ldr	r3, [r7, #4]
 747 0018 9A62     		str	r2, [r3, #40]
 500:Drivers/STM32L4xx_HAL_Driver/Src/stm32l4xx_hal_nand.c ****   hnand->Config.BlockSize          = pDeviceConfig->BlockSize;
 748              		.loc 1 500 51
 749 001a 3B68     		ldr	r3, [r7]
 750 001c 9A68     		ldr	r2, [r3, #8]
 751              		.loc 1 500 36
 752 001e 7B68     		ldr	r3, [r7, #4]
 753 0020 DA62     		str	r2, [r3, #44]
 501:Drivers/STM32L4xx_HAL_Driver/Src/stm32l4xx_hal_nand.c ****   hnand->Config.BlockNbr           = pDeviceConfig->BlockNbr;
 754              		.loc 1 501 51
 755 0022 3B68     		ldr	r3, [r7]
 756 0024 DA68     		ldr	r2, [r3, #12]
 757              		.loc 1 501 36
 758 0026 7B68     		ldr	r3, [r7, #4]
 759 0028 1A63     		str	r2, [r3, #48]
 502:Drivers/STM32L4xx_HAL_Driver/Src/stm32l4xx_hal_nand.c ****   hnand->Config.PlaneSize          = pDeviceConfig->PlaneSize;
 760              		.loc 1 502 51
 761 002a 3B68     		ldr	r3, [r7]
 762 002c 5A69     		ldr	r2, [r3, #20]
 763              		.loc 1 502 36
 764 002e 7B68     		ldr	r3, [r7, #4]
 765 0030 9A63     		str	r2, [r3, #56]
 503:Drivers/STM32L4xx_HAL_Driver/Src/stm32l4xx_hal_nand.c ****   hnand->Config.PlaneNbr           = pDeviceConfig->PlaneNbr;
 766              		.loc 1 503 51
 767 0032 3B68     		ldr	r3, [r7]
 768 0034 1A69     		ldr	r2, [r3, #16]
 769              		.loc 1 503 36
 770 0036 7B68     		ldr	r3, [r7, #4]
 771 0038 5A63     		str	r2, [r3, #52]
 504:Drivers/STM32L4xx_HAL_Driver/Src/stm32l4xx_hal_nand.c ****   hnand->Config.ExtraCommandEnable = pDeviceConfig->ExtraCommandEnable;
 772              		.loc 1 504 51
 773 003a 3B68     		ldr	r3, [r7]
 774 003c 1A7E     		ldrb	r2, [r3, #24]	@ zero_extendqisi2
 775              		.loc 1 504 36
 776 003e 7B68     		ldr	r3, [r7, #4]
 777 0040 83F83C20 		strb	r2, [r3, #60]
 505:Drivers/STM32L4xx_HAL_Driver/Src/stm32l4xx_hal_nand.c **** 
 506:Drivers/STM32L4xx_HAL_Driver/Src/stm32l4xx_hal_nand.c ****   return HAL_OK;
 778              		.loc 1 506 10
 779 0044 0023     		movs	r3, #0
 507:Drivers/STM32L4xx_HAL_Driver/Src/stm32l4xx_hal_nand.c **** }
 780              		.loc 1 507 1
 781 0046 1846     		mov	r0, r3
 782 0048 0C37     		adds	r7, r7, #12
 783              		.cfi_def_cfa_offset 4
 784 004a BD46     		mov	sp, r7
ARM GAS  /tmp/ccUr9KqT.s 			page 40


 785              		.cfi_def_cfa_register 13
 786              		@ sp needed
 787 004c 5DF8047B 		ldr	r7, [sp], #4
 788              		.cfi_restore 7
 789              		.cfi_def_cfa_offset 0
 790 0050 7047     		bx	lr
 791              		.cfi_endproc
 792              	.LFE453:
 794              		.section	.text.HAL_NAND_Read_Page_8b,"ax",%progbits
 795              		.align	1
 796              		.global	HAL_NAND_Read_Page_8b
 797              		.syntax unified
 798              		.thumb
 799              		.thumb_func
 801              	HAL_NAND_Read_Page_8b:
 802              	.LFB454:
 508:Drivers/STM32L4xx_HAL_Driver/Src/stm32l4xx_hal_nand.c **** 
 509:Drivers/STM32L4xx_HAL_Driver/Src/stm32l4xx_hal_nand.c **** /**
 510:Drivers/STM32L4xx_HAL_Driver/Src/stm32l4xx_hal_nand.c ****   * @brief  Read Page(s) from NAND memory block (8-bits addressing)
 511:Drivers/STM32L4xx_HAL_Driver/Src/stm32l4xx_hal_nand.c ****   * @param  hnand pointer to a NAND_HandleTypeDef structure that contains
 512:Drivers/STM32L4xx_HAL_Driver/Src/stm32l4xx_hal_nand.c ****   *                the configuration information for NAND module.
 513:Drivers/STM32L4xx_HAL_Driver/Src/stm32l4xx_hal_nand.c ****   * @param  pAddress  pointer to NAND address structure
 514:Drivers/STM32L4xx_HAL_Driver/Src/stm32l4xx_hal_nand.c ****   * @param  pBuffer  pointer to destination read buffer
 515:Drivers/STM32L4xx_HAL_Driver/Src/stm32l4xx_hal_nand.c ****   * @param  NumPageToRead  number of pages to read from block
 516:Drivers/STM32L4xx_HAL_Driver/Src/stm32l4xx_hal_nand.c ****   * @retval HAL status
 517:Drivers/STM32L4xx_HAL_Driver/Src/stm32l4xx_hal_nand.c ****   */
 518:Drivers/STM32L4xx_HAL_Driver/Src/stm32l4xx_hal_nand.c **** HAL_StatusTypeDef HAL_NAND_Read_Page_8b(NAND_HandleTypeDef *hnand, const NAND_AddressTypeDef *pAddr
 519:Drivers/STM32L4xx_HAL_Driver/Src/stm32l4xx_hal_nand.c ****                                         uint8_t *pBuffer, uint32_t NumPageToRead)
 520:Drivers/STM32L4xx_HAL_Driver/Src/stm32l4xx_hal_nand.c **** {
 803              		.loc 1 520 1
 804              		.cfi_startproc
 805              		@ args = 0, pretend = 0, frame = 40
 806              		@ frame_needed = 1, uses_anonymous_args = 0
 807 0000 80B5     		push	{r7, lr}
 808              		.cfi_def_cfa_offset 8
 809              		.cfi_offset 7, -8
 810              		.cfi_offset 14, -4
 811 0002 8AB0     		sub	sp, sp, #40
 812              		.cfi_def_cfa_offset 48
 813 0004 00AF     		add	r7, sp, #0
 814              		.cfi_def_cfa_register 7
 815 0006 F860     		str	r0, [r7, #12]
 816 0008 B960     		str	r1, [r7, #8]
 817 000a 7A60     		str	r2, [r7, #4]
 818 000c 3B60     		str	r3, [r7]
 521:Drivers/STM32L4xx_HAL_Driver/Src/stm32l4xx_hal_nand.c ****   uint32_t index;
 522:Drivers/STM32L4xx_HAL_Driver/Src/stm32l4xx_hal_nand.c ****   uint32_t tickstart;
 523:Drivers/STM32L4xx_HAL_Driver/Src/stm32l4xx_hal_nand.c ****   uint32_t deviceaddress;
 524:Drivers/STM32L4xx_HAL_Driver/Src/stm32l4xx_hal_nand.c ****   uint32_t nandaddress;
 525:Drivers/STM32L4xx_HAL_Driver/Src/stm32l4xx_hal_nand.c ****   uint32_t nbpages = NumPageToRead;
 819              		.loc 1 525 12
 820 000e 3B68     		ldr	r3, [r7]
 821 0010 FB61     		str	r3, [r7, #28]
 526:Drivers/STM32L4xx_HAL_Driver/Src/stm32l4xx_hal_nand.c ****   uint8_t *buff = pBuffer;
 822              		.loc 1 526 12
 823 0012 7B68     		ldr	r3, [r7, #4]
 824 0014 BB61     		str	r3, [r7, #24]
ARM GAS  /tmp/ccUr9KqT.s 			page 41


 527:Drivers/STM32L4xx_HAL_Driver/Src/stm32l4xx_hal_nand.c **** 
 528:Drivers/STM32L4xx_HAL_Driver/Src/stm32l4xx_hal_nand.c ****   /* Check the NAND controller state */
 529:Drivers/STM32L4xx_HAL_Driver/Src/stm32l4xx_hal_nand.c ****   if (hnand->State == HAL_NAND_STATE_BUSY)
 825              		.loc 1 529 12
 826 0016 FB68     		ldr	r3, [r7, #12]
 827 0018 93F82130 		ldrb	r3, [r3, #33]
 828 001c DBB2     		uxtb	r3, r3
 829              		.loc 1 529 6
 830 001e 022B     		cmp	r3, #2
 831 0020 01D1     		bne	.L33
 530:Drivers/STM32L4xx_HAL_Driver/Src/stm32l4xx_hal_nand.c ****   {
 531:Drivers/STM32L4xx_HAL_Driver/Src/stm32l4xx_hal_nand.c ****     return HAL_BUSY;
 832              		.loc 1 531 12
 833 0022 0223     		movs	r3, #2
 834 0024 3EE1     		b	.L34
 835              	.L33:
 532:Drivers/STM32L4xx_HAL_Driver/Src/stm32l4xx_hal_nand.c ****   }
 533:Drivers/STM32L4xx_HAL_Driver/Src/stm32l4xx_hal_nand.c ****   else if (hnand->State == HAL_NAND_STATE_READY)
 836              		.loc 1 533 17
 837 0026 FB68     		ldr	r3, [r7, #12]
 838 0028 93F82130 		ldrb	r3, [r3, #33]
 839 002c DBB2     		uxtb	r3, r3
 840              		.loc 1 533 11
 841 002e 012B     		cmp	r3, #1
 842 0030 40F03781 		bne	.L35
 534:Drivers/STM32L4xx_HAL_Driver/Src/stm32l4xx_hal_nand.c ****   {
 535:Drivers/STM32L4xx_HAL_Driver/Src/stm32l4xx_hal_nand.c ****     /* Process Locked */
 536:Drivers/STM32L4xx_HAL_Driver/Src/stm32l4xx_hal_nand.c ****     __HAL_LOCK(hnand);
 843              		.loc 1 536 5
 844 0034 FB68     		ldr	r3, [r7, #12]
 845 0036 93F82030 		ldrb	r3, [r3, #32]	@ zero_extendqisi2
 846 003a 012B     		cmp	r3, #1
 847 003c 01D1     		bne	.L36
 848              		.loc 1 536 5 is_stmt 0 discriminator 1
 849 003e 0223     		movs	r3, #2
 850              		.loc 1 536 5
 851 0040 30E1     		b	.L34
 852              	.L36:
 853              		.loc 1 536 5 discriminator 2
 854 0042 FB68     		ldr	r3, [r7, #12]
 855 0044 0122     		movs	r2, #1
 856 0046 83F82020 		strb	r2, [r3, #32]
 537:Drivers/STM32L4xx_HAL_Driver/Src/stm32l4xx_hal_nand.c **** 
 538:Drivers/STM32L4xx_HAL_Driver/Src/stm32l4xx_hal_nand.c ****     /* Update the NAND controller state */
 539:Drivers/STM32L4xx_HAL_Driver/Src/stm32l4xx_hal_nand.c ****     hnand->State = HAL_NAND_STATE_BUSY;
 857              		.loc 1 539 18 is_stmt 1
 858 004a FB68     		ldr	r3, [r7, #12]
 859 004c 0222     		movs	r2, #2
 860 004e 83F82120 		strb	r2, [r3, #33]
 540:Drivers/STM32L4xx_HAL_Driver/Src/stm32l4xx_hal_nand.c **** 
 541:Drivers/STM32L4xx_HAL_Driver/Src/stm32l4xx_hal_nand.c ****     /* Identify the device address */
 542:Drivers/STM32L4xx_HAL_Driver/Src/stm32l4xx_hal_nand.c ****     deviceaddress = NAND_DEVICE;
 861              		.loc 1 542 19
 862 0052 4FF00043 		mov	r3, #-2147483648
 863 0056 7B61     		str	r3, [r7, #20]
 543:Drivers/STM32L4xx_HAL_Driver/Src/stm32l4xx_hal_nand.c **** 
 544:Drivers/STM32L4xx_HAL_Driver/Src/stm32l4xx_hal_nand.c ****     /* NAND raw address calculation */
ARM GAS  /tmp/ccUr9KqT.s 			page 42


 545:Drivers/STM32L4xx_HAL_Driver/Src/stm32l4xx_hal_nand.c ****     nandaddress = ARRAY_ADDRESS(pAddress, hnand);
 864              		.loc 1 545 19
 865 0058 BB68     		ldr	r3, [r7, #8]
 866 005a 1B88     		ldrh	r3, [r3]
 867 005c 1946     		mov	r1, r3
 868 005e BB68     		ldr	r3, [r7, #8]
 869 0060 9B88     		ldrh	r3, [r3, #4]
 870 0062 1A46     		mov	r2, r3
 871 0064 BB68     		ldr	r3, [r7, #8]
 872 0066 5B88     		ldrh	r3, [r3, #2]
 873 0068 1846     		mov	r0, r3
 874 006a FB68     		ldr	r3, [r7, #12]
 875 006c 9B6B     		ldr	r3, [r3, #56]
 876 006e 00FB03F3 		mul	r3, r0, r3
 877 0072 1344     		add	r3, r3, r2
 878 0074 FA68     		ldr	r2, [r7, #12]
 879 0076 D26A     		ldr	r2, [r2, #44]
 880 0078 02FB03F3 		mul	r3, r2, r3
 881              		.loc 1 545 17
 882 007c 0B44     		add	r3, r3, r1
 883 007e 3B62     		str	r3, [r7, #32]
 546:Drivers/STM32L4xx_HAL_Driver/Src/stm32l4xx_hal_nand.c **** 
 547:Drivers/STM32L4xx_HAL_Driver/Src/stm32l4xx_hal_nand.c ****     /* Page(s) read loop */
 548:Drivers/STM32L4xx_HAL_Driver/Src/stm32l4xx_hal_nand.c ****     while ((nbpages != 0U) && (nandaddress < ((hnand->Config.BlockSize) * (hnand->Config.BlockNbr))
 884              		.loc 1 548 11
 885 0080 F8E0     		b	.L37
 886              	.L48:
 549:Drivers/STM32L4xx_HAL_Driver/Src/stm32l4xx_hal_nand.c ****     {
 550:Drivers/STM32L4xx_HAL_Driver/Src/stm32l4xx_hal_nand.c ****       /* Send read page command sequence */
 551:Drivers/STM32L4xx_HAL_Driver/Src/stm32l4xx_hal_nand.c ****       *(__IO uint8_t *)((uint32_t)(deviceaddress | CMD_AREA)) = NAND_CMD_AREA_A;
 887              		.loc 1 551 25
 888 0082 7B69     		ldr	r3, [r7, #20]
 889 0084 43F48033 		orr	r3, r3, #65536
 890              		.loc 1 551 63
 891 0088 0022     		movs	r2, #0
 892 008a 1A70     		strb	r2, [r3]
 893              	.LBB344:
 894              	.LBB345:
 946:Drivers/CMSIS/Core/Include/cmsis_gcc.h **** }
 895              		.loc 2 946 3
 896              		.syntax unified
 897              	@ 946 "Drivers/CMSIS/Core/Include/cmsis_gcc.h" 1
 898 008c BFF34F8F 		dsb 0xF
 899              	@ 0 "" 2
 900              		.loc 2 947 1
 901              		.thumb
 902              		.syntax unified
 903 0090 00BF     		nop
 904              	.LBE345:
 905              	.LBE344:
 552:Drivers/STM32L4xx_HAL_Driver/Src/stm32l4xx_hal_nand.c ****       __DSB();
 553:Drivers/STM32L4xx_HAL_Driver/Src/stm32l4xx_hal_nand.c **** 
 554:Drivers/STM32L4xx_HAL_Driver/Src/stm32l4xx_hal_nand.c ****       /* Cards with page size <= 512 bytes */
 555:Drivers/STM32L4xx_HAL_Driver/Src/stm32l4xx_hal_nand.c ****       if ((hnand->Config.PageSize) <= 512U)
 906              		.loc 1 555 25
 907 0092 FB68     		ldr	r3, [r7, #12]
 908 0094 5B6A     		ldr	r3, [r3, #36]
ARM GAS  /tmp/ccUr9KqT.s 			page 43


 909              		.loc 1 555 10
 910 0096 B3F5007F 		cmp	r3, #512
 911 009a 48D8     		bhi	.L38
 556:Drivers/STM32L4xx_HAL_Driver/Src/stm32l4xx_hal_nand.c ****       {
 557:Drivers/STM32L4xx_HAL_Driver/Src/stm32l4xx_hal_nand.c ****         if (((hnand->Config.BlockSize) * (hnand->Config.BlockNbr)) <= 65535U)
 912              		.loc 1 557 28
 913 009c FB68     		ldr	r3, [r7, #12]
 914 009e DB6A     		ldr	r3, [r3, #44]
 915              		.loc 1 557 56
 916 00a0 FA68     		ldr	r2, [r7, #12]
 917 00a2 126B     		ldr	r2, [r2, #48]
 918              		.loc 1 557 40
 919 00a4 02FB03F3 		mul	r3, r2, r3
 920              		.loc 1 557 12
 921 00a8 B3F5803F 		cmp	r3, #65536
 922 00ac 1AD2     		bcs	.L39
 558:Drivers/STM32L4xx_HAL_Driver/Src/stm32l4xx_hal_nand.c ****         {
 559:Drivers/STM32L4xx_HAL_Driver/Src/stm32l4xx_hal_nand.c ****           *(__IO uint8_t *)((uint32_t)(deviceaddress | ADDR_AREA)) = 0x00U;
 923              		.loc 1 559 29
 924 00ae 7B69     		ldr	r3, [r7, #20]
 925 00b0 43F40033 		orr	r3, r3, #131072
 926              		.loc 1 559 68
 927 00b4 0022     		movs	r2, #0
 928 00b6 1A70     		strb	r2, [r3]
 929              	.LBB346:
 930              	.LBB347:
 946:Drivers/CMSIS/Core/Include/cmsis_gcc.h **** }
 931              		.loc 2 946 3
 932              		.syntax unified
 933              	@ 946 "Drivers/CMSIS/Core/Include/cmsis_gcc.h" 1
 934 00b8 BFF34F8F 		dsb 0xF
 935              	@ 0 "" 2
 936              		.loc 2 947 1
 937              		.thumb
 938              		.syntax unified
 939 00bc 00BF     		nop
 940              	.LBE347:
 941              	.LBE346:
 560:Drivers/STM32L4xx_HAL_Driver/Src/stm32l4xx_hal_nand.c ****           __DSB();
 561:Drivers/STM32L4xx_HAL_Driver/Src/stm32l4xx_hal_nand.c ****           *(__IO uint8_t *)((uint32_t)(deviceaddress | ADDR_AREA)) = ADDR_1ST_CYCLE(nandaddress);
 942              		.loc 1 561 29
 943 00be 7B69     		ldr	r3, [r7, #20]
 944 00c0 43F40033 		orr	r3, r3, #131072
 945              		.loc 1 561 70
 946 00c4 3A6A     		ldr	r2, [r7, #32]
 947 00c6 D2B2     		uxtb	r2, r2
 948              		.loc 1 561 68
 949 00c8 1A70     		strb	r2, [r3]
 950              	.LBB348:
 951              	.LBB349:
 946:Drivers/CMSIS/Core/Include/cmsis_gcc.h **** }
 952              		.loc 2 946 3
 953              		.syntax unified
 954              	@ 946 "Drivers/CMSIS/Core/Include/cmsis_gcc.h" 1
 955 00ca BFF34F8F 		dsb 0xF
 956              	@ 0 "" 2
 957              		.loc 2 947 1
ARM GAS  /tmp/ccUr9KqT.s 			page 44


 958              		.thumb
 959              		.syntax unified
 960 00ce 00BF     		nop
 961              	.LBE349:
 962              	.LBE348:
 562:Drivers/STM32L4xx_HAL_Driver/Src/stm32l4xx_hal_nand.c ****           __DSB();
 563:Drivers/STM32L4xx_HAL_Driver/Src/stm32l4xx_hal_nand.c ****           *(__IO uint8_t *)((uint32_t)(deviceaddress | ADDR_AREA)) = ADDR_2ND_CYCLE(nandaddress);
 963              		.loc 1 563 70
 964 00d0 3B6A     		ldr	r3, [r7, #32]
 965 00d2 1A0A     		lsrs	r2, r3, #8
 966              		.loc 1 563 29
 967 00d4 7B69     		ldr	r3, [r7, #20]
 968 00d6 43F40033 		orr	r3, r3, #131072
 969              		.loc 1 563 70
 970 00da D2B2     		uxtb	r2, r2
 971              		.loc 1 563 68
 972 00dc 1A70     		strb	r2, [r3]
 973              	.LBB350:
 974              	.LBB351:
 946:Drivers/CMSIS/Core/Include/cmsis_gcc.h **** }
 975              		.loc 2 946 3
 976              		.syntax unified
 977              	@ 946 "Drivers/CMSIS/Core/Include/cmsis_gcc.h" 1
 978 00de BFF34F8F 		dsb 0xF
 979              	@ 0 "" 2
 980              		.loc 2 947 1
 981              		.thumb
 982              		.syntax unified
 983 00e2 7DE0     		b	.L40
 984              	.L39:
 985              	.LBE351:
 986              	.LBE350:
 564:Drivers/STM32L4xx_HAL_Driver/Src/stm32l4xx_hal_nand.c ****           __DSB();
 565:Drivers/STM32L4xx_HAL_Driver/Src/stm32l4xx_hal_nand.c ****         }
 566:Drivers/STM32L4xx_HAL_Driver/Src/stm32l4xx_hal_nand.c ****         else /* ((hnand->Config.BlockSize)*(hnand->Config.BlockNbr)) > 65535 */
 567:Drivers/STM32L4xx_HAL_Driver/Src/stm32l4xx_hal_nand.c ****         {
 568:Drivers/STM32L4xx_HAL_Driver/Src/stm32l4xx_hal_nand.c ****           *(__IO uint8_t *)((uint32_t)(deviceaddress | ADDR_AREA)) = 0x00U;
 987              		.loc 1 568 29
 988 00e4 7B69     		ldr	r3, [r7, #20]
 989 00e6 43F40033 		orr	r3, r3, #131072
 990              		.loc 1 568 68
 991 00ea 0022     		movs	r2, #0
 992 00ec 1A70     		strb	r2, [r3]
 993              	.LBB352:
 994              	.LBB353:
 946:Drivers/CMSIS/Core/Include/cmsis_gcc.h **** }
 995              		.loc 2 946 3
 996              		.syntax unified
 997              	@ 946 "Drivers/CMSIS/Core/Include/cmsis_gcc.h" 1
 998 00ee BFF34F8F 		dsb 0xF
 999              	@ 0 "" 2
 1000              		.loc 2 947 1
 1001              		.thumb
 1002              		.syntax unified
 1003 00f2 00BF     		nop
 1004              	.LBE353:
 1005              	.LBE352:
ARM GAS  /tmp/ccUr9KqT.s 			page 45


 569:Drivers/STM32L4xx_HAL_Driver/Src/stm32l4xx_hal_nand.c ****           __DSB();
 570:Drivers/STM32L4xx_HAL_Driver/Src/stm32l4xx_hal_nand.c ****           *(__IO uint8_t *)((uint32_t)(deviceaddress | ADDR_AREA)) = ADDR_1ST_CYCLE(nandaddress);
 1006              		.loc 1 570 29
 1007 00f4 7B69     		ldr	r3, [r7, #20]
 1008 00f6 43F40033 		orr	r3, r3, #131072
 1009              		.loc 1 570 70
 1010 00fa 3A6A     		ldr	r2, [r7, #32]
 1011 00fc D2B2     		uxtb	r2, r2
 1012              		.loc 1 570 68
 1013 00fe 1A70     		strb	r2, [r3]
 1014              	.LBB354:
 1015              	.LBB355:
 946:Drivers/CMSIS/Core/Include/cmsis_gcc.h **** }
 1016              		.loc 2 946 3
 1017              		.syntax unified
 1018              	@ 946 "Drivers/CMSIS/Core/Include/cmsis_gcc.h" 1
 1019 0100 BFF34F8F 		dsb 0xF
 1020              	@ 0 "" 2
 1021              		.loc 2 947 1
 1022              		.thumb
 1023              		.syntax unified
 1024 0104 00BF     		nop
 1025              	.LBE355:
 1026              	.LBE354:
 571:Drivers/STM32L4xx_HAL_Driver/Src/stm32l4xx_hal_nand.c ****           __DSB();
 572:Drivers/STM32L4xx_HAL_Driver/Src/stm32l4xx_hal_nand.c ****           *(__IO uint8_t *)((uint32_t)(deviceaddress | ADDR_AREA)) = ADDR_2ND_CYCLE(nandaddress);
 1027              		.loc 1 572 70
 1028 0106 3B6A     		ldr	r3, [r7, #32]
 1029 0108 1A0A     		lsrs	r2, r3, #8
 1030              		.loc 1 572 29
 1031 010a 7B69     		ldr	r3, [r7, #20]
 1032 010c 43F40033 		orr	r3, r3, #131072
 1033              		.loc 1 572 70
 1034 0110 D2B2     		uxtb	r2, r2
 1035              		.loc 1 572 68
 1036 0112 1A70     		strb	r2, [r3]
 1037              	.LBB356:
 1038              	.LBB357:
 946:Drivers/CMSIS/Core/Include/cmsis_gcc.h **** }
 1039              		.loc 2 946 3
 1040              		.syntax unified
 1041              	@ 946 "Drivers/CMSIS/Core/Include/cmsis_gcc.h" 1
 1042 0114 BFF34F8F 		dsb 0xF
 1043              	@ 0 "" 2
 1044              		.loc 2 947 1
 1045              		.thumb
 1046              		.syntax unified
 1047 0118 00BF     		nop
 1048              	.LBE357:
 1049              	.LBE356:
 573:Drivers/STM32L4xx_HAL_Driver/Src/stm32l4xx_hal_nand.c ****           __DSB();
 574:Drivers/STM32L4xx_HAL_Driver/Src/stm32l4xx_hal_nand.c ****           *(__IO uint8_t *)((uint32_t)(deviceaddress | ADDR_AREA)) = ADDR_3RD_CYCLE(nandaddress);
 1050              		.loc 1 574 70
 1051 011a 3B6A     		ldr	r3, [r7, #32]
 1052 011c 1A0C     		lsrs	r2, r3, #16
 1053              		.loc 1 574 29
 1054 011e 7B69     		ldr	r3, [r7, #20]
ARM GAS  /tmp/ccUr9KqT.s 			page 46


 1055 0120 43F40033 		orr	r3, r3, #131072
 1056              		.loc 1 574 70
 1057 0124 D2B2     		uxtb	r2, r2
 1058              		.loc 1 574 68
 1059 0126 1A70     		strb	r2, [r3]
 1060              	.LBB358:
 1061              	.LBB359:
 946:Drivers/CMSIS/Core/Include/cmsis_gcc.h **** }
 1062              		.loc 2 946 3
 1063              		.syntax unified
 1064              	@ 946 "Drivers/CMSIS/Core/Include/cmsis_gcc.h" 1
 1065 0128 BFF34F8F 		dsb 0xF
 1066              	@ 0 "" 2
 1067              		.loc 2 947 1
 1068              		.thumb
 1069              		.syntax unified
 1070 012c 58E0     		b	.L40
 1071              	.L38:
 1072              	.LBE359:
 1073              	.LBE358:
 575:Drivers/STM32L4xx_HAL_Driver/Src/stm32l4xx_hal_nand.c ****           __DSB();
 576:Drivers/STM32L4xx_HAL_Driver/Src/stm32l4xx_hal_nand.c ****         }
 577:Drivers/STM32L4xx_HAL_Driver/Src/stm32l4xx_hal_nand.c ****       }
 578:Drivers/STM32L4xx_HAL_Driver/Src/stm32l4xx_hal_nand.c ****       else /* (hnand->Config.PageSize) > 512 */
 579:Drivers/STM32L4xx_HAL_Driver/Src/stm32l4xx_hal_nand.c ****       {
 580:Drivers/STM32L4xx_HAL_Driver/Src/stm32l4xx_hal_nand.c ****         if (((hnand->Config.BlockSize) * (hnand->Config.BlockNbr)) <= 65535U)
 1074              		.loc 1 580 28
 1075 012e FB68     		ldr	r3, [r7, #12]
 1076 0130 DB6A     		ldr	r3, [r3, #44]
 1077              		.loc 1 580 56
 1078 0132 FA68     		ldr	r2, [r7, #12]
 1079 0134 126B     		ldr	r2, [r2, #48]
 1080              		.loc 1 580 40
 1081 0136 02FB03F3 		mul	r3, r2, r3
 1082              		.loc 1 580 12
 1083 013a B3F5803F 		cmp	r3, #65536
 1084 013e 22D2     		bcs	.L41
 581:Drivers/STM32L4xx_HAL_Driver/Src/stm32l4xx_hal_nand.c ****         {
 582:Drivers/STM32L4xx_HAL_Driver/Src/stm32l4xx_hal_nand.c ****           *(__IO uint8_t *)((uint32_t)(deviceaddress | ADDR_AREA)) = 0x00U;
 1085              		.loc 1 582 29
 1086 0140 7B69     		ldr	r3, [r7, #20]
 1087 0142 43F40033 		orr	r3, r3, #131072
 1088              		.loc 1 582 68
 1089 0146 0022     		movs	r2, #0
 1090 0148 1A70     		strb	r2, [r3]
 1091              	.LBB360:
 1092              	.LBB361:
 946:Drivers/CMSIS/Core/Include/cmsis_gcc.h **** }
 1093              		.loc 2 946 3
 1094              		.syntax unified
 1095              	@ 946 "Drivers/CMSIS/Core/Include/cmsis_gcc.h" 1
 1096 014a BFF34F8F 		dsb 0xF
 1097              	@ 0 "" 2
 1098              		.loc 2 947 1
 1099              		.thumb
 1100              		.syntax unified
 1101 014e 00BF     		nop
ARM GAS  /tmp/ccUr9KqT.s 			page 47


 1102              	.LBE361:
 1103              	.LBE360:
 583:Drivers/STM32L4xx_HAL_Driver/Src/stm32l4xx_hal_nand.c ****           __DSB();
 584:Drivers/STM32L4xx_HAL_Driver/Src/stm32l4xx_hal_nand.c ****           *(__IO uint8_t *)((uint32_t)(deviceaddress | ADDR_AREA)) = 0x00U;
 1104              		.loc 1 584 29
 1105 0150 7B69     		ldr	r3, [r7, #20]
 1106 0152 43F40033 		orr	r3, r3, #131072
 1107              		.loc 1 584 68
 1108 0156 0022     		movs	r2, #0
 1109 0158 1A70     		strb	r2, [r3]
 1110              	.LBB362:
 1111              	.LBB363:
 946:Drivers/CMSIS/Core/Include/cmsis_gcc.h **** }
 1112              		.loc 2 946 3
 1113              		.syntax unified
 1114              	@ 946 "Drivers/CMSIS/Core/Include/cmsis_gcc.h" 1
 1115 015a BFF34F8F 		dsb 0xF
 1116              	@ 0 "" 2
 1117              		.loc 2 947 1
 1118              		.thumb
 1119              		.syntax unified
 1120 015e 00BF     		nop
 1121              	.LBE363:
 1122              	.LBE362:
 585:Drivers/STM32L4xx_HAL_Driver/Src/stm32l4xx_hal_nand.c ****           __DSB();
 586:Drivers/STM32L4xx_HAL_Driver/Src/stm32l4xx_hal_nand.c ****           *(__IO uint8_t *)((uint32_t)(deviceaddress | ADDR_AREA)) = ADDR_1ST_CYCLE(nandaddress);
 1123              		.loc 1 586 29
 1124 0160 7B69     		ldr	r3, [r7, #20]
 1125 0162 43F40033 		orr	r3, r3, #131072
 1126              		.loc 1 586 70
 1127 0166 3A6A     		ldr	r2, [r7, #32]
 1128 0168 D2B2     		uxtb	r2, r2
 1129              		.loc 1 586 68
 1130 016a 1A70     		strb	r2, [r3]
 1131              	.LBB364:
 1132              	.LBB365:
 946:Drivers/CMSIS/Core/Include/cmsis_gcc.h **** }
 1133              		.loc 2 946 3
 1134              		.syntax unified
 1135              	@ 946 "Drivers/CMSIS/Core/Include/cmsis_gcc.h" 1
 1136 016c BFF34F8F 		dsb 0xF
 1137              	@ 0 "" 2
 1138              		.loc 2 947 1
 1139              		.thumb
 1140              		.syntax unified
 1141 0170 00BF     		nop
 1142              	.LBE365:
 1143              	.LBE364:
 587:Drivers/STM32L4xx_HAL_Driver/Src/stm32l4xx_hal_nand.c ****           __DSB();
 588:Drivers/STM32L4xx_HAL_Driver/Src/stm32l4xx_hal_nand.c ****           *(__IO uint8_t *)((uint32_t)(deviceaddress | ADDR_AREA)) = ADDR_2ND_CYCLE(nandaddress);
 1144              		.loc 1 588 70
 1145 0172 3B6A     		ldr	r3, [r7, #32]
 1146 0174 1A0A     		lsrs	r2, r3, #8
 1147              		.loc 1 588 29
 1148 0176 7B69     		ldr	r3, [r7, #20]
 1149 0178 43F40033 		orr	r3, r3, #131072
 1150              		.loc 1 588 70
ARM GAS  /tmp/ccUr9KqT.s 			page 48


 1151 017c D2B2     		uxtb	r2, r2
 1152              		.loc 1 588 68
 1153 017e 1A70     		strb	r2, [r3]
 1154              	.LBB366:
 1155              	.LBB367:
 946:Drivers/CMSIS/Core/Include/cmsis_gcc.h **** }
 1156              		.loc 2 946 3
 1157              		.syntax unified
 1158              	@ 946 "Drivers/CMSIS/Core/Include/cmsis_gcc.h" 1
 1159 0180 BFF34F8F 		dsb 0xF
 1160              	@ 0 "" 2
 1161              		.loc 2 947 1
 1162              		.thumb
 1163              		.syntax unified
 1164 0184 2CE0     		b	.L40
 1165              	.L41:
 1166              	.LBE367:
 1167              	.LBE366:
 589:Drivers/STM32L4xx_HAL_Driver/Src/stm32l4xx_hal_nand.c ****           __DSB();
 590:Drivers/STM32L4xx_HAL_Driver/Src/stm32l4xx_hal_nand.c ****         }
 591:Drivers/STM32L4xx_HAL_Driver/Src/stm32l4xx_hal_nand.c ****         else /* ((hnand->Config.BlockSize)*(hnand->Config.BlockNbr)) > 65535 */
 592:Drivers/STM32L4xx_HAL_Driver/Src/stm32l4xx_hal_nand.c ****         {
 593:Drivers/STM32L4xx_HAL_Driver/Src/stm32l4xx_hal_nand.c ****           *(__IO uint8_t *)((uint32_t)(deviceaddress | ADDR_AREA)) = 0x00U;
 1168              		.loc 1 593 29
 1169 0186 7B69     		ldr	r3, [r7, #20]
 1170 0188 43F40033 		orr	r3, r3, #131072
 1171              		.loc 1 593 68
 1172 018c 0022     		movs	r2, #0
 1173 018e 1A70     		strb	r2, [r3]
 1174              	.LBB368:
 1175              	.LBB369:
 946:Drivers/CMSIS/Core/Include/cmsis_gcc.h **** }
 1176              		.loc 2 946 3
 1177              		.syntax unified
 1178              	@ 946 "Drivers/CMSIS/Core/Include/cmsis_gcc.h" 1
 1179 0190 BFF34F8F 		dsb 0xF
 1180              	@ 0 "" 2
 1181              		.loc 2 947 1
 1182              		.thumb
 1183              		.syntax unified
 1184 0194 00BF     		nop
 1185              	.LBE369:
 1186              	.LBE368:
 594:Drivers/STM32L4xx_HAL_Driver/Src/stm32l4xx_hal_nand.c ****           __DSB();
 595:Drivers/STM32L4xx_HAL_Driver/Src/stm32l4xx_hal_nand.c ****           *(__IO uint8_t *)((uint32_t)(deviceaddress | ADDR_AREA)) = 0x00U;
 1187              		.loc 1 595 29
 1188 0196 7B69     		ldr	r3, [r7, #20]
 1189 0198 43F40033 		orr	r3, r3, #131072
 1190              		.loc 1 595 68
 1191 019c 0022     		movs	r2, #0
 1192 019e 1A70     		strb	r2, [r3]
 1193              	.LBB370:
 1194              	.LBB371:
 946:Drivers/CMSIS/Core/Include/cmsis_gcc.h **** }
 1195              		.loc 2 946 3
 1196              		.syntax unified
 1197              	@ 946 "Drivers/CMSIS/Core/Include/cmsis_gcc.h" 1
ARM GAS  /tmp/ccUr9KqT.s 			page 49


 1198 01a0 BFF34F8F 		dsb 0xF
 1199              	@ 0 "" 2
 1200              		.loc 2 947 1
 1201              		.thumb
 1202              		.syntax unified
 1203 01a4 00BF     		nop
 1204              	.LBE371:
 1205              	.LBE370:
 596:Drivers/STM32L4xx_HAL_Driver/Src/stm32l4xx_hal_nand.c ****           __DSB();
 597:Drivers/STM32L4xx_HAL_Driver/Src/stm32l4xx_hal_nand.c ****           *(__IO uint8_t *)((uint32_t)(deviceaddress | ADDR_AREA)) = ADDR_1ST_CYCLE(nandaddress);
 1206              		.loc 1 597 29
 1207 01a6 7B69     		ldr	r3, [r7, #20]
 1208 01a8 43F40033 		orr	r3, r3, #131072
 1209              		.loc 1 597 70
 1210 01ac 3A6A     		ldr	r2, [r7, #32]
 1211 01ae D2B2     		uxtb	r2, r2
 1212              		.loc 1 597 68
 1213 01b0 1A70     		strb	r2, [r3]
 1214              	.LBB372:
 1215              	.LBB373:
 946:Drivers/CMSIS/Core/Include/cmsis_gcc.h **** }
 1216              		.loc 2 946 3
 1217              		.syntax unified
 1218              	@ 946 "Drivers/CMSIS/Core/Include/cmsis_gcc.h" 1
 1219 01b2 BFF34F8F 		dsb 0xF
 1220              	@ 0 "" 2
 1221              		.loc 2 947 1
 1222              		.thumb
 1223              		.syntax unified
 1224 01b6 00BF     		nop
 1225              	.LBE373:
 1226              	.LBE372:
 598:Drivers/STM32L4xx_HAL_Driver/Src/stm32l4xx_hal_nand.c ****           __DSB();
 599:Drivers/STM32L4xx_HAL_Driver/Src/stm32l4xx_hal_nand.c ****           *(__IO uint8_t *)((uint32_t)(deviceaddress | ADDR_AREA)) = ADDR_2ND_CYCLE(nandaddress);
 1227              		.loc 1 599 70
 1228 01b8 3B6A     		ldr	r3, [r7, #32]
 1229 01ba 1A0A     		lsrs	r2, r3, #8
 1230              		.loc 1 599 29
 1231 01bc 7B69     		ldr	r3, [r7, #20]
 1232 01be 43F40033 		orr	r3, r3, #131072
 1233              		.loc 1 599 70
 1234 01c2 D2B2     		uxtb	r2, r2
 1235              		.loc 1 599 68
 1236 01c4 1A70     		strb	r2, [r3]
 1237              	.LBB374:
 1238              	.LBB375:
 946:Drivers/CMSIS/Core/Include/cmsis_gcc.h **** }
 1239              		.loc 2 946 3
 1240              		.syntax unified
 1241              	@ 946 "Drivers/CMSIS/Core/Include/cmsis_gcc.h" 1
 1242 01c6 BFF34F8F 		dsb 0xF
 1243              	@ 0 "" 2
 1244              		.loc 2 947 1
 1245              		.thumb
 1246              		.syntax unified
 1247 01ca 00BF     		nop
 1248              	.LBE375:
ARM GAS  /tmp/ccUr9KqT.s 			page 50


 1249              	.LBE374:
 600:Drivers/STM32L4xx_HAL_Driver/Src/stm32l4xx_hal_nand.c ****           __DSB();
 601:Drivers/STM32L4xx_HAL_Driver/Src/stm32l4xx_hal_nand.c ****           *(__IO uint8_t *)((uint32_t)(deviceaddress | ADDR_AREA)) = ADDR_3RD_CYCLE(nandaddress);
 1250              		.loc 1 601 70
 1251 01cc 3B6A     		ldr	r3, [r7, #32]
 1252 01ce 1A0C     		lsrs	r2, r3, #16
 1253              		.loc 1 601 29
 1254 01d0 7B69     		ldr	r3, [r7, #20]
 1255 01d2 43F40033 		orr	r3, r3, #131072
 1256              		.loc 1 601 70
 1257 01d6 D2B2     		uxtb	r2, r2
 1258              		.loc 1 601 68
 1259 01d8 1A70     		strb	r2, [r3]
 1260              	.LBB376:
 1261              	.LBB377:
 946:Drivers/CMSIS/Core/Include/cmsis_gcc.h **** }
 1262              		.loc 2 946 3
 1263              		.syntax unified
 1264              	@ 946 "Drivers/CMSIS/Core/Include/cmsis_gcc.h" 1
 1265 01da BFF34F8F 		dsb 0xF
 1266              	@ 0 "" 2
 1267              		.loc 2 947 1
 1268              		.thumb
 1269              		.syntax unified
 1270 01de 00BF     		nop
 1271              	.L40:
 1272              	.LBE377:
 1273              	.LBE376:
 602:Drivers/STM32L4xx_HAL_Driver/Src/stm32l4xx_hal_nand.c ****           __DSB();
 603:Drivers/STM32L4xx_HAL_Driver/Src/stm32l4xx_hal_nand.c ****         }
 604:Drivers/STM32L4xx_HAL_Driver/Src/stm32l4xx_hal_nand.c ****       }
 605:Drivers/STM32L4xx_HAL_Driver/Src/stm32l4xx_hal_nand.c **** 
 606:Drivers/STM32L4xx_HAL_Driver/Src/stm32l4xx_hal_nand.c ****       *(__IO uint8_t *)((uint32_t)(deviceaddress | CMD_AREA))  = NAND_CMD_AREA_TRUE1;
 1274              		.loc 1 606 25
 1275 01e0 7B69     		ldr	r3, [r7, #20]
 1276 01e2 43F48033 		orr	r3, r3, #65536
 1277              		.loc 1 606 64
 1278 01e6 3022     		movs	r2, #48
 1279 01e8 1A70     		strb	r2, [r3]
 1280              	.LBB378:
 1281              	.LBB379:
 946:Drivers/CMSIS/Core/Include/cmsis_gcc.h **** }
 1282              		.loc 2 946 3
 1283              		.syntax unified
 1284              	@ 946 "Drivers/CMSIS/Core/Include/cmsis_gcc.h" 1
 1285 01ea BFF34F8F 		dsb 0xF
 1286              	@ 0 "" 2
 1287              		.loc 2 947 1
 1288              		.thumb
 1289              		.syntax unified
 1290 01ee 00BF     		nop
 1291              	.LBE379:
 1292              	.LBE378:
 607:Drivers/STM32L4xx_HAL_Driver/Src/stm32l4xx_hal_nand.c ****       __DSB();
 608:Drivers/STM32L4xx_HAL_Driver/Src/stm32l4xx_hal_nand.c **** 
 609:Drivers/STM32L4xx_HAL_Driver/Src/stm32l4xx_hal_nand.c **** 
 610:Drivers/STM32L4xx_HAL_Driver/Src/stm32l4xx_hal_nand.c ****       if (hnand->Config.ExtraCommandEnable == ENABLE)
ARM GAS  /tmp/ccUr9KqT.s 			page 51


 1293              		.loc 1 610 24
 1294 01f0 FB68     		ldr	r3, [r7, #12]
 1295 01f2 93F83C30 		ldrb	r3, [r3, #60]	@ zero_extendqisi2
 1296              		.loc 1 610 10
 1297 01f6 012B     		cmp	r3, #1
 1298 01f8 23D1     		bne	.L42
 611:Drivers/STM32L4xx_HAL_Driver/Src/stm32l4xx_hal_nand.c ****       {
 612:Drivers/STM32L4xx_HAL_Driver/Src/stm32l4xx_hal_nand.c ****         /* Get tick */
 613:Drivers/STM32L4xx_HAL_Driver/Src/stm32l4xx_hal_nand.c ****         tickstart = HAL_GetTick();
 1299              		.loc 1 613 21
 1300 01fa FFF7FEFF 		bl	HAL_GetTick
 1301 01fe 3861     		str	r0, [r7, #16]
 614:Drivers/STM32L4xx_HAL_Driver/Src/stm32l4xx_hal_nand.c **** 
 615:Drivers/STM32L4xx_HAL_Driver/Src/stm32l4xx_hal_nand.c ****         /* Read status until NAND is ready */
 616:Drivers/STM32L4xx_HAL_Driver/Src/stm32l4xx_hal_nand.c ****         while (HAL_NAND_Read_Status(hnand) != NAND_READY)
 1302              		.loc 1 616 15
 1303 0200 11E0     		b	.L43
 1304              	.L44:
 617:Drivers/STM32L4xx_HAL_Driver/Src/stm32l4xx_hal_nand.c ****         {
 618:Drivers/STM32L4xx_HAL_Driver/Src/stm32l4xx_hal_nand.c ****           if ((HAL_GetTick() - tickstart) > NAND_WRITE_TIMEOUT)
 1305              		.loc 1 618 16
 1306 0202 FFF7FEFF 		bl	HAL_GetTick
 1307 0206 0246     		mov	r2, r0
 1308              		.loc 1 618 30 discriminator 1
 1309 0208 3B69     		ldr	r3, [r7, #16]
 1310 020a D31A     		subs	r3, r2, r3
 1311              		.loc 1 618 14 discriminator 1
 1312 020c B3F1807F 		cmp	r3, #16777216
 1313 0210 09D9     		bls	.L43
 619:Drivers/STM32L4xx_HAL_Driver/Src/stm32l4xx_hal_nand.c ****           {
 620:Drivers/STM32L4xx_HAL_Driver/Src/stm32l4xx_hal_nand.c ****             /* Update the NAND controller state */
 621:Drivers/STM32L4xx_HAL_Driver/Src/stm32l4xx_hal_nand.c ****             hnand->State = HAL_NAND_STATE_ERROR;
 1314              		.loc 1 621 26
 1315 0212 FB68     		ldr	r3, [r7, #12]
 1316 0214 0322     		movs	r2, #3
 1317 0216 83F82120 		strb	r2, [r3, #33]
 622:Drivers/STM32L4xx_HAL_Driver/Src/stm32l4xx_hal_nand.c **** 
 623:Drivers/STM32L4xx_HAL_Driver/Src/stm32l4xx_hal_nand.c ****             /* Process unlocked */
 624:Drivers/STM32L4xx_HAL_Driver/Src/stm32l4xx_hal_nand.c ****             __HAL_UNLOCK(hnand);
 1318              		.loc 1 624 13
 1319 021a FB68     		ldr	r3, [r7, #12]
 1320 021c 0022     		movs	r2, #0
 1321 021e 83F82020 		strb	r2, [r3, #32]
 625:Drivers/STM32L4xx_HAL_Driver/Src/stm32l4xx_hal_nand.c **** 
 626:Drivers/STM32L4xx_HAL_Driver/Src/stm32l4xx_hal_nand.c ****             return HAL_TIMEOUT;
 1322              		.loc 1 626 20
 1323 0222 0323     		movs	r3, #3
 1324 0224 3EE0     		b	.L34
 1325              	.L43:
 616:Drivers/STM32L4xx_HAL_Driver/Src/stm32l4xx_hal_nand.c ****         {
 1326              		.loc 1 616 16
 1327 0226 F868     		ldr	r0, [r7, #12]
 1328 0228 FFF7FEFF 		bl	HAL_NAND_Read_Status
 1329 022c 0346     		mov	r3, r0
 616:Drivers/STM32L4xx_HAL_Driver/Src/stm32l4xx_hal_nand.c ****         {
 1330              		.loc 1 616 44 discriminator 1
 1331 022e 402B     		cmp	r3, #64
ARM GAS  /tmp/ccUr9KqT.s 			page 52


 1332 0230 E7D1     		bne	.L44
 627:Drivers/STM32L4xx_HAL_Driver/Src/stm32l4xx_hal_nand.c ****           }
 628:Drivers/STM32L4xx_HAL_Driver/Src/stm32l4xx_hal_nand.c ****         }
 629:Drivers/STM32L4xx_HAL_Driver/Src/stm32l4xx_hal_nand.c **** 
 630:Drivers/STM32L4xx_HAL_Driver/Src/stm32l4xx_hal_nand.c ****         /* Go back to read mode */
 631:Drivers/STM32L4xx_HAL_Driver/Src/stm32l4xx_hal_nand.c ****         *(__IO uint8_t *)((uint32_t)(deviceaddress | CMD_AREA)) = ((uint8_t)0x00);
 1333              		.loc 1 631 27
 1334 0232 7B69     		ldr	r3, [r7, #20]
 1335 0234 43F48033 		orr	r3, r3, #65536
 1336              		.loc 1 631 65
 1337 0238 0022     		movs	r2, #0
 1338 023a 1A70     		strb	r2, [r3]
 1339              	.LBB380:
 1340              	.LBB381:
 946:Drivers/CMSIS/Core/Include/cmsis_gcc.h **** }
 1341              		.loc 2 946 3
 1342              		.syntax unified
 1343              	@ 946 "Drivers/CMSIS/Core/Include/cmsis_gcc.h" 1
 1344 023c BFF34F8F 		dsb 0xF
 1345              	@ 0 "" 2
 1346              		.loc 2 947 1
 1347              		.thumb
 1348              		.syntax unified
 1349 0240 00BF     		nop
 1350              	.L42:
 1351              	.LBE381:
 1352              	.LBE380:
 632:Drivers/STM32L4xx_HAL_Driver/Src/stm32l4xx_hal_nand.c ****         __DSB();
 633:Drivers/STM32L4xx_HAL_Driver/Src/stm32l4xx_hal_nand.c ****       }
 634:Drivers/STM32L4xx_HAL_Driver/Src/stm32l4xx_hal_nand.c **** 
 635:Drivers/STM32L4xx_HAL_Driver/Src/stm32l4xx_hal_nand.c ****       /* Get Data into Buffer */
 636:Drivers/STM32L4xx_HAL_Driver/Src/stm32l4xx_hal_nand.c ****       for (index = 0U; index < hnand->Config.PageSize; index++)
 1353              		.loc 1 636 18
 1354 0242 0023     		movs	r3, #0
 1355 0244 7B62     		str	r3, [r7, #36]
 1356              		.loc 1 636 7
 1357 0246 0AE0     		b	.L45
 1358              	.L46:
 637:Drivers/STM32L4xx_HAL_Driver/Src/stm32l4xx_hal_nand.c ****       {
 638:Drivers/STM32L4xx_HAL_Driver/Src/stm32l4xx_hal_nand.c ****         *buff = *(__IO uint8_t *)deviceaddress;
 1359              		.loc 1 638 18
 1360 0248 7B69     		ldr	r3, [r7, #20]
 1361              		.loc 1 638 17
 1362 024a 1B78     		ldrb	r3, [r3]
 1363 024c DAB2     		uxtb	r2, r3
 1364              		.loc 1 638 15
 1365 024e BB69     		ldr	r3, [r7, #24]
 1366 0250 1A70     		strb	r2, [r3]
 639:Drivers/STM32L4xx_HAL_Driver/Src/stm32l4xx_hal_nand.c ****         buff++;
 1367              		.loc 1 639 13
 1368 0252 BB69     		ldr	r3, [r7, #24]
 1369 0254 0133     		adds	r3, r3, #1
 1370 0256 BB61     		str	r3, [r7, #24]
 636:Drivers/STM32L4xx_HAL_Driver/Src/stm32l4xx_hal_nand.c ****       {
 1371              		.loc 1 636 61 discriminator 3
 1372 0258 7B6A     		ldr	r3, [r7, #36]
 1373 025a 0133     		adds	r3, r3, #1
ARM GAS  /tmp/ccUr9KqT.s 			page 53


 1374 025c 7B62     		str	r3, [r7, #36]
 1375              	.L45:
 636:Drivers/STM32L4xx_HAL_Driver/Src/stm32l4xx_hal_nand.c ****       {
 1376              		.loc 1 636 45 discriminator 1
 1377 025e FB68     		ldr	r3, [r7, #12]
 1378 0260 5B6A     		ldr	r3, [r3, #36]
 636:Drivers/STM32L4xx_HAL_Driver/Src/stm32l4xx_hal_nand.c ****       {
 1379              		.loc 1 636 30 discriminator 1
 1380 0262 7A6A     		ldr	r2, [r7, #36]
 1381 0264 9A42     		cmp	r2, r3
 1382 0266 EFD3     		bcc	.L46
 640:Drivers/STM32L4xx_HAL_Driver/Src/stm32l4xx_hal_nand.c ****       }
 641:Drivers/STM32L4xx_HAL_Driver/Src/stm32l4xx_hal_nand.c **** 
 642:Drivers/STM32L4xx_HAL_Driver/Src/stm32l4xx_hal_nand.c ****       /* Decrement pages to read */
 643:Drivers/STM32L4xx_HAL_Driver/Src/stm32l4xx_hal_nand.c ****       nbpages--;
 1383              		.loc 1 643 14
 1384 0268 FB69     		ldr	r3, [r7, #28]
 1385 026a 013B     		subs	r3, r3, #1
 1386 026c FB61     		str	r3, [r7, #28]
 644:Drivers/STM32L4xx_HAL_Driver/Src/stm32l4xx_hal_nand.c **** 
 645:Drivers/STM32L4xx_HAL_Driver/Src/stm32l4xx_hal_nand.c ****       /* Increment the NAND address */
 646:Drivers/STM32L4xx_HAL_Driver/Src/stm32l4xx_hal_nand.c ****       nandaddress = (uint32_t)(nandaddress + 1U);
 1387              		.loc 1 646 19
 1388 026e 3B6A     		ldr	r3, [r7, #32]
 1389 0270 0133     		adds	r3, r3, #1
 1390 0272 3B62     		str	r3, [r7, #32]
 1391              	.L37:
 548:Drivers/STM32L4xx_HAL_Driver/Src/stm32l4xx_hal_nand.c ****     {
 1392              		.loc 1 548 28
 1393 0274 FB69     		ldr	r3, [r7, #28]
 1394 0276 002B     		cmp	r3, #0
 1395 0278 09D0     		beq	.L47
 548:Drivers/STM32L4xx_HAL_Driver/Src/stm32l4xx_hal_nand.c ****     {
 1396              		.loc 1 548 61 discriminator 1
 1397 027a FB68     		ldr	r3, [r7, #12]
 1398 027c DB6A     		ldr	r3, [r3, #44]
 548:Drivers/STM32L4xx_HAL_Driver/Src/stm32l4xx_hal_nand.c ****     {
 1399              		.loc 1 548 89 discriminator 1
 1400 027e FA68     		ldr	r2, [r7, #12]
 1401 0280 126B     		ldr	r2, [r2, #48]
 548:Drivers/STM32L4xx_HAL_Driver/Src/stm32l4xx_hal_nand.c ****     {
 1402              		.loc 1 548 73 discriminator 1
 1403 0282 02FB03F3 		mul	r3, r2, r3
 548:Drivers/STM32L4xx_HAL_Driver/Src/stm32l4xx_hal_nand.c ****     {
 1404              		.loc 1 548 28 discriminator 1
 1405 0286 3A6A     		ldr	r2, [r7, #32]
 1406 0288 9A42     		cmp	r2, r3
 1407 028a FFF4FAAE 		bcc	.L48
 1408              	.L47:
 647:Drivers/STM32L4xx_HAL_Driver/Src/stm32l4xx_hal_nand.c ****     }
 648:Drivers/STM32L4xx_HAL_Driver/Src/stm32l4xx_hal_nand.c **** 
 649:Drivers/STM32L4xx_HAL_Driver/Src/stm32l4xx_hal_nand.c ****     /* Update the NAND controller state */
 650:Drivers/STM32L4xx_HAL_Driver/Src/stm32l4xx_hal_nand.c ****     hnand->State = HAL_NAND_STATE_READY;
 1409              		.loc 1 650 18
 1410 028e FB68     		ldr	r3, [r7, #12]
 1411 0290 0122     		movs	r2, #1
 1412 0292 83F82120 		strb	r2, [r3, #33]
ARM GAS  /tmp/ccUr9KqT.s 			page 54


 651:Drivers/STM32L4xx_HAL_Driver/Src/stm32l4xx_hal_nand.c **** 
 652:Drivers/STM32L4xx_HAL_Driver/Src/stm32l4xx_hal_nand.c ****     /* Process unlocked */
 653:Drivers/STM32L4xx_HAL_Driver/Src/stm32l4xx_hal_nand.c ****     __HAL_UNLOCK(hnand);
 1413              		.loc 1 653 5
 1414 0296 FB68     		ldr	r3, [r7, #12]
 1415 0298 0022     		movs	r2, #0
 1416 029a 83F82020 		strb	r2, [r3, #32]
 654:Drivers/STM32L4xx_HAL_Driver/Src/stm32l4xx_hal_nand.c ****   }
 655:Drivers/STM32L4xx_HAL_Driver/Src/stm32l4xx_hal_nand.c ****   else
 656:Drivers/STM32L4xx_HAL_Driver/Src/stm32l4xx_hal_nand.c ****   {
 657:Drivers/STM32L4xx_HAL_Driver/Src/stm32l4xx_hal_nand.c ****     return HAL_ERROR;
 658:Drivers/STM32L4xx_HAL_Driver/Src/stm32l4xx_hal_nand.c ****   }
 659:Drivers/STM32L4xx_HAL_Driver/Src/stm32l4xx_hal_nand.c **** 
 660:Drivers/STM32L4xx_HAL_Driver/Src/stm32l4xx_hal_nand.c ****   return HAL_OK;
 1417              		.loc 1 660 10
 1418 029e 0023     		movs	r3, #0
 1419 02a0 00E0     		b	.L34
 1420              	.L35:
 657:Drivers/STM32L4xx_HAL_Driver/Src/stm32l4xx_hal_nand.c ****   }
 1421              		.loc 1 657 12
 1422 02a2 0123     		movs	r3, #1
 1423              	.L34:
 661:Drivers/STM32L4xx_HAL_Driver/Src/stm32l4xx_hal_nand.c **** }
 1424              		.loc 1 661 1
 1425 02a4 1846     		mov	r0, r3
 1426 02a6 2837     		adds	r7, r7, #40
 1427              		.cfi_def_cfa_offset 8
 1428 02a8 BD46     		mov	sp, r7
 1429              		.cfi_def_cfa_register 13
 1430              		@ sp needed
 1431 02aa 80BD     		pop	{r7, pc}
 1432              		.cfi_endproc
 1433              	.LFE454:
 1435              		.section	.text.HAL_NAND_Read_Page_16b,"ax",%progbits
 1436              		.align	1
 1437              		.global	HAL_NAND_Read_Page_16b
 1438              		.syntax unified
 1439              		.thumb
 1440              		.thumb_func
 1442              	HAL_NAND_Read_Page_16b:
 1443              	.LFB455:
 662:Drivers/STM32L4xx_HAL_Driver/Src/stm32l4xx_hal_nand.c **** 
 663:Drivers/STM32L4xx_HAL_Driver/Src/stm32l4xx_hal_nand.c **** /**
 664:Drivers/STM32L4xx_HAL_Driver/Src/stm32l4xx_hal_nand.c ****   * @brief  Read Page(s) from NAND memory block (16-bits addressing)
 665:Drivers/STM32L4xx_HAL_Driver/Src/stm32l4xx_hal_nand.c ****   * @param  hnand pointer to a NAND_HandleTypeDef structure that contains
 666:Drivers/STM32L4xx_HAL_Driver/Src/stm32l4xx_hal_nand.c ****   *                the configuration information for NAND module.
 667:Drivers/STM32L4xx_HAL_Driver/Src/stm32l4xx_hal_nand.c ****   * @param  pAddress  pointer to NAND address structure
 668:Drivers/STM32L4xx_HAL_Driver/Src/stm32l4xx_hal_nand.c ****   * @param  pBuffer  pointer to destination read buffer. pBuffer should be 16bits aligned
 669:Drivers/STM32L4xx_HAL_Driver/Src/stm32l4xx_hal_nand.c ****   * @param  NumPageToRead  number of pages to read from block
 670:Drivers/STM32L4xx_HAL_Driver/Src/stm32l4xx_hal_nand.c ****   * @retval HAL status
 671:Drivers/STM32L4xx_HAL_Driver/Src/stm32l4xx_hal_nand.c ****   */
 672:Drivers/STM32L4xx_HAL_Driver/Src/stm32l4xx_hal_nand.c **** HAL_StatusTypeDef HAL_NAND_Read_Page_16b(NAND_HandleTypeDef *hnand, const NAND_AddressTypeDef *pAdd
 673:Drivers/STM32L4xx_HAL_Driver/Src/stm32l4xx_hal_nand.c ****                                          uint16_t *pBuffer, uint32_t NumPageToRead)
 674:Drivers/STM32L4xx_HAL_Driver/Src/stm32l4xx_hal_nand.c **** {
 1444              		.loc 1 674 1
 1445              		.cfi_startproc
 1446              		@ args = 0, pretend = 0, frame = 40
ARM GAS  /tmp/ccUr9KqT.s 			page 55


 1447              		@ frame_needed = 1, uses_anonymous_args = 0
 1448 0000 80B5     		push	{r7, lr}
 1449              		.cfi_def_cfa_offset 8
 1450              		.cfi_offset 7, -8
 1451              		.cfi_offset 14, -4
 1452 0002 8AB0     		sub	sp, sp, #40
 1453              		.cfi_def_cfa_offset 48
 1454 0004 00AF     		add	r7, sp, #0
 1455              		.cfi_def_cfa_register 7
 1456 0006 F860     		str	r0, [r7, #12]
 1457 0008 B960     		str	r1, [r7, #8]
 1458 000a 7A60     		str	r2, [r7, #4]
 1459 000c 3B60     		str	r3, [r7]
 675:Drivers/STM32L4xx_HAL_Driver/Src/stm32l4xx_hal_nand.c ****   uint32_t index;
 676:Drivers/STM32L4xx_HAL_Driver/Src/stm32l4xx_hal_nand.c ****   uint32_t tickstart;
 677:Drivers/STM32L4xx_HAL_Driver/Src/stm32l4xx_hal_nand.c ****   uint32_t deviceaddress;
 678:Drivers/STM32L4xx_HAL_Driver/Src/stm32l4xx_hal_nand.c ****   uint32_t nandaddress;
 679:Drivers/STM32L4xx_HAL_Driver/Src/stm32l4xx_hal_nand.c ****   uint32_t nbpages = NumPageToRead;
 1460              		.loc 1 679 12
 1461 000e 3B68     		ldr	r3, [r7]
 1462 0010 FB61     		str	r3, [r7, #28]
 680:Drivers/STM32L4xx_HAL_Driver/Src/stm32l4xx_hal_nand.c ****   uint16_t *buff = pBuffer;
 1463              		.loc 1 680 13
 1464 0012 7B68     		ldr	r3, [r7, #4]
 1465 0014 BB61     		str	r3, [r7, #24]
 681:Drivers/STM32L4xx_HAL_Driver/Src/stm32l4xx_hal_nand.c **** 
 682:Drivers/STM32L4xx_HAL_Driver/Src/stm32l4xx_hal_nand.c ****   /* Check the NAND controller state */
 683:Drivers/STM32L4xx_HAL_Driver/Src/stm32l4xx_hal_nand.c ****   if (hnand->State == HAL_NAND_STATE_BUSY)
 1466              		.loc 1 683 12
 1467 0016 FB68     		ldr	r3, [r7, #12]
 1468 0018 93F82130 		ldrb	r3, [r3, #33]
 1469 001c DBB2     		uxtb	r3, r3
 1470              		.loc 1 683 6
 1471 001e 022B     		cmp	r3, #2
 1472 0020 01D1     		bne	.L51
 684:Drivers/STM32L4xx_HAL_Driver/Src/stm32l4xx_hal_nand.c ****   {
 685:Drivers/STM32L4xx_HAL_Driver/Src/stm32l4xx_hal_nand.c ****     return HAL_BUSY;
 1473              		.loc 1 685 12
 1474 0022 0223     		movs	r3, #2
 1475 0024 47E1     		b	.L52
 1476              	.L51:
 686:Drivers/STM32L4xx_HAL_Driver/Src/stm32l4xx_hal_nand.c ****   }
 687:Drivers/STM32L4xx_HAL_Driver/Src/stm32l4xx_hal_nand.c ****   else if (hnand->State == HAL_NAND_STATE_READY)
 1477              		.loc 1 687 17
 1478 0026 FB68     		ldr	r3, [r7, #12]
 1479 0028 93F82130 		ldrb	r3, [r3, #33]
 1480 002c DBB2     		uxtb	r3, r3
 1481              		.loc 1 687 11
 1482 002e 012B     		cmp	r3, #1
 1483 0030 40F04081 		bne	.L53
 688:Drivers/STM32L4xx_HAL_Driver/Src/stm32l4xx_hal_nand.c ****   {
 689:Drivers/STM32L4xx_HAL_Driver/Src/stm32l4xx_hal_nand.c ****     /* Process Locked */
 690:Drivers/STM32L4xx_HAL_Driver/Src/stm32l4xx_hal_nand.c ****     __HAL_LOCK(hnand);
 1484              		.loc 1 690 5
 1485 0034 FB68     		ldr	r3, [r7, #12]
 1486 0036 93F82030 		ldrb	r3, [r3, #32]	@ zero_extendqisi2
 1487 003a 012B     		cmp	r3, #1
ARM GAS  /tmp/ccUr9KqT.s 			page 56


 1488 003c 01D1     		bne	.L54
 1489              		.loc 1 690 5 is_stmt 0 discriminator 1
 1490 003e 0223     		movs	r3, #2
 1491              		.loc 1 690 5
 1492 0040 39E1     		b	.L52
 1493              	.L54:
 1494              		.loc 1 690 5 discriminator 2
 1495 0042 FB68     		ldr	r3, [r7, #12]
 1496 0044 0122     		movs	r2, #1
 1497 0046 83F82020 		strb	r2, [r3, #32]
 691:Drivers/STM32L4xx_HAL_Driver/Src/stm32l4xx_hal_nand.c **** 
 692:Drivers/STM32L4xx_HAL_Driver/Src/stm32l4xx_hal_nand.c ****     /* Update the NAND controller state */
 693:Drivers/STM32L4xx_HAL_Driver/Src/stm32l4xx_hal_nand.c ****     hnand->State = HAL_NAND_STATE_BUSY;
 1498              		.loc 1 693 18 is_stmt 1
 1499 004a FB68     		ldr	r3, [r7, #12]
 1500 004c 0222     		movs	r2, #2
 1501 004e 83F82120 		strb	r2, [r3, #33]
 694:Drivers/STM32L4xx_HAL_Driver/Src/stm32l4xx_hal_nand.c **** 
 695:Drivers/STM32L4xx_HAL_Driver/Src/stm32l4xx_hal_nand.c ****     /* Identify the device address */
 696:Drivers/STM32L4xx_HAL_Driver/Src/stm32l4xx_hal_nand.c ****     deviceaddress = NAND_DEVICE;
 1502              		.loc 1 696 19
 1503 0052 4FF00043 		mov	r3, #-2147483648
 1504 0056 7B61     		str	r3, [r7, #20]
 697:Drivers/STM32L4xx_HAL_Driver/Src/stm32l4xx_hal_nand.c **** 
 698:Drivers/STM32L4xx_HAL_Driver/Src/stm32l4xx_hal_nand.c ****     /* NAND raw address calculation */
 699:Drivers/STM32L4xx_HAL_Driver/Src/stm32l4xx_hal_nand.c ****     nandaddress = ARRAY_ADDRESS(pAddress, hnand);
 1505              		.loc 1 699 19
 1506 0058 BB68     		ldr	r3, [r7, #8]
 1507 005a 1B88     		ldrh	r3, [r3]
 1508 005c 1946     		mov	r1, r3
 1509 005e BB68     		ldr	r3, [r7, #8]
 1510 0060 9B88     		ldrh	r3, [r3, #4]
 1511 0062 1A46     		mov	r2, r3
 1512 0064 BB68     		ldr	r3, [r7, #8]
 1513 0066 5B88     		ldrh	r3, [r3, #2]
 1514 0068 1846     		mov	r0, r3
 1515 006a FB68     		ldr	r3, [r7, #12]
 1516 006c 9B6B     		ldr	r3, [r3, #56]
 1517 006e 00FB03F3 		mul	r3, r0, r3
 1518 0072 1344     		add	r3, r3, r2
 1519 0074 FA68     		ldr	r2, [r7, #12]
 1520 0076 D26A     		ldr	r2, [r2, #44]
 1521 0078 02FB03F3 		mul	r3, r2, r3
 1522              		.loc 1 699 17
 1523 007c 0B44     		add	r3, r3, r1
 1524 007e 3B62     		str	r3, [r7, #32]
 700:Drivers/STM32L4xx_HAL_Driver/Src/stm32l4xx_hal_nand.c **** 
 701:Drivers/STM32L4xx_HAL_Driver/Src/stm32l4xx_hal_nand.c ****     /* Page(s) read loop */
 702:Drivers/STM32L4xx_HAL_Driver/Src/stm32l4xx_hal_nand.c ****     while ((nbpages != 0U) && (nandaddress < ((hnand->Config.BlockSize) * (hnand->Config.BlockNbr))
 1525              		.loc 1 702 11
 1526 0080 01E1     		b	.L55
 1527              	.L67:
 703:Drivers/STM32L4xx_HAL_Driver/Src/stm32l4xx_hal_nand.c ****     {
 704:Drivers/STM32L4xx_HAL_Driver/Src/stm32l4xx_hal_nand.c ****       /* Send read page command sequence */
 705:Drivers/STM32L4xx_HAL_Driver/Src/stm32l4xx_hal_nand.c ****       *(__IO uint8_t *)((uint32_t)(deviceaddress | CMD_AREA)) = NAND_CMD_AREA_A;
 1528              		.loc 1 705 25
 1529 0082 7B69     		ldr	r3, [r7, #20]
ARM GAS  /tmp/ccUr9KqT.s 			page 57


 1530 0084 43F48033 		orr	r3, r3, #65536
 1531              		.loc 1 705 63
 1532 0088 0022     		movs	r2, #0
 1533 008a 1A70     		strb	r2, [r3]
 1534              	.LBB382:
 1535              	.LBB383:
 946:Drivers/CMSIS/Core/Include/cmsis_gcc.h **** }
 1536              		.loc 2 946 3
 1537              		.syntax unified
 1538              	@ 946 "Drivers/CMSIS/Core/Include/cmsis_gcc.h" 1
 1539 008c BFF34F8F 		dsb 0xF
 1540              	@ 0 "" 2
 1541              		.loc 2 947 1
 1542              		.thumb
 1543              		.syntax unified
 1544 0090 00BF     		nop
 1545              	.LBE383:
 1546              	.LBE382:
 706:Drivers/STM32L4xx_HAL_Driver/Src/stm32l4xx_hal_nand.c ****       __DSB();
 707:Drivers/STM32L4xx_HAL_Driver/Src/stm32l4xx_hal_nand.c **** 
 708:Drivers/STM32L4xx_HAL_Driver/Src/stm32l4xx_hal_nand.c ****       /* Cards with page size <= 512 bytes */
 709:Drivers/STM32L4xx_HAL_Driver/Src/stm32l4xx_hal_nand.c ****       if ((hnand->Config.PageSize) <= 512U)
 1547              		.loc 1 709 25
 1548 0092 FB68     		ldr	r3, [r7, #12]
 1549 0094 5B6A     		ldr	r3, [r3, #36]
 1550              		.loc 1 709 10
 1551 0096 B3F5007F 		cmp	r3, #512
 1552 009a 48D8     		bhi	.L56
 710:Drivers/STM32L4xx_HAL_Driver/Src/stm32l4xx_hal_nand.c ****       {
 711:Drivers/STM32L4xx_HAL_Driver/Src/stm32l4xx_hal_nand.c ****         if (((hnand->Config.BlockSize) * (hnand->Config.BlockNbr)) <= 65535U)
 1553              		.loc 1 711 28
 1554 009c FB68     		ldr	r3, [r7, #12]
 1555 009e DB6A     		ldr	r3, [r3, #44]
 1556              		.loc 1 711 56
 1557 00a0 FA68     		ldr	r2, [r7, #12]
 1558 00a2 126B     		ldr	r2, [r2, #48]
 1559              		.loc 1 711 40
 1560 00a4 02FB03F3 		mul	r3, r2, r3
 1561              		.loc 1 711 12
 1562 00a8 B3F5803F 		cmp	r3, #65536
 1563 00ac 1AD2     		bcs	.L57
 712:Drivers/STM32L4xx_HAL_Driver/Src/stm32l4xx_hal_nand.c ****         {
 713:Drivers/STM32L4xx_HAL_Driver/Src/stm32l4xx_hal_nand.c ****           *(__IO uint8_t *)((uint32_t)(deviceaddress | ADDR_AREA)) = 0x00U;
 1564              		.loc 1 713 29
 1565 00ae 7B69     		ldr	r3, [r7, #20]
 1566 00b0 43F40033 		orr	r3, r3, #131072
 1567              		.loc 1 713 68
 1568 00b4 0022     		movs	r2, #0
 1569 00b6 1A70     		strb	r2, [r3]
 1570              	.LBB384:
 1571              	.LBB385:
 946:Drivers/CMSIS/Core/Include/cmsis_gcc.h **** }
 1572              		.loc 2 946 3
 1573              		.syntax unified
 1574              	@ 946 "Drivers/CMSIS/Core/Include/cmsis_gcc.h" 1
 1575 00b8 BFF34F8F 		dsb 0xF
 1576              	@ 0 "" 2
ARM GAS  /tmp/ccUr9KqT.s 			page 58


 1577              		.loc 2 947 1
 1578              		.thumb
 1579              		.syntax unified
 1580 00bc 00BF     		nop
 1581              	.LBE385:
 1582              	.LBE384:
 714:Drivers/STM32L4xx_HAL_Driver/Src/stm32l4xx_hal_nand.c ****           __DSB();
 715:Drivers/STM32L4xx_HAL_Driver/Src/stm32l4xx_hal_nand.c ****           *(__IO uint8_t *)((uint32_t)(deviceaddress | ADDR_AREA)) = ADDR_1ST_CYCLE(nandaddress);
 1583              		.loc 1 715 29
 1584 00be 7B69     		ldr	r3, [r7, #20]
 1585 00c0 43F40033 		orr	r3, r3, #131072
 1586              		.loc 1 715 70
 1587 00c4 3A6A     		ldr	r2, [r7, #32]
 1588 00c6 D2B2     		uxtb	r2, r2
 1589              		.loc 1 715 68
 1590 00c8 1A70     		strb	r2, [r3]
 1591              	.LBB386:
 1592              	.LBB387:
 946:Drivers/CMSIS/Core/Include/cmsis_gcc.h **** }
 1593              		.loc 2 946 3
 1594              		.syntax unified
 1595              	@ 946 "Drivers/CMSIS/Core/Include/cmsis_gcc.h" 1
 1596 00ca BFF34F8F 		dsb 0xF
 1597              	@ 0 "" 2
 1598              		.loc 2 947 1
 1599              		.thumb
 1600              		.syntax unified
 1601 00ce 00BF     		nop
 1602              	.LBE387:
 1603              	.LBE386:
 716:Drivers/STM32L4xx_HAL_Driver/Src/stm32l4xx_hal_nand.c ****           __DSB();
 717:Drivers/STM32L4xx_HAL_Driver/Src/stm32l4xx_hal_nand.c ****           *(__IO uint8_t *)((uint32_t)(deviceaddress | ADDR_AREA)) = ADDR_2ND_CYCLE(nandaddress);
 1604              		.loc 1 717 70
 1605 00d0 3B6A     		ldr	r3, [r7, #32]
 1606 00d2 1A0A     		lsrs	r2, r3, #8
 1607              		.loc 1 717 29
 1608 00d4 7B69     		ldr	r3, [r7, #20]
 1609 00d6 43F40033 		orr	r3, r3, #131072
 1610              		.loc 1 717 70
 1611 00da D2B2     		uxtb	r2, r2
 1612              		.loc 1 717 68
 1613 00dc 1A70     		strb	r2, [r3]
 1614              	.LBB388:
 1615              	.LBB389:
 946:Drivers/CMSIS/Core/Include/cmsis_gcc.h **** }
 1616              		.loc 2 946 3
 1617              		.syntax unified
 1618              	@ 946 "Drivers/CMSIS/Core/Include/cmsis_gcc.h" 1
 1619 00de BFF34F8F 		dsb 0xF
 1620              	@ 0 "" 2
 1621              		.loc 2 947 1
 1622              		.thumb
 1623              		.syntax unified
 1624 00e2 7DE0     		b	.L58
 1625              	.L57:
 1626              	.LBE389:
 1627              	.LBE388:
ARM GAS  /tmp/ccUr9KqT.s 			page 59


 718:Drivers/STM32L4xx_HAL_Driver/Src/stm32l4xx_hal_nand.c ****           __DSB();
 719:Drivers/STM32L4xx_HAL_Driver/Src/stm32l4xx_hal_nand.c ****         }
 720:Drivers/STM32L4xx_HAL_Driver/Src/stm32l4xx_hal_nand.c ****         else /* ((hnand->Config.BlockSize)*(hnand->Config.BlockNbr)) > 65535 */
 721:Drivers/STM32L4xx_HAL_Driver/Src/stm32l4xx_hal_nand.c ****         {
 722:Drivers/STM32L4xx_HAL_Driver/Src/stm32l4xx_hal_nand.c ****           *(__IO uint8_t *)((uint32_t)(deviceaddress | ADDR_AREA)) = 0x00U;
 1628              		.loc 1 722 29
 1629 00e4 7B69     		ldr	r3, [r7, #20]
 1630 00e6 43F40033 		orr	r3, r3, #131072
 1631              		.loc 1 722 68
 1632 00ea 0022     		movs	r2, #0
 1633 00ec 1A70     		strb	r2, [r3]
 1634              	.LBB390:
 1635              	.LBB391:
 946:Drivers/CMSIS/Core/Include/cmsis_gcc.h **** }
 1636              		.loc 2 946 3
 1637              		.syntax unified
 1638              	@ 946 "Drivers/CMSIS/Core/Include/cmsis_gcc.h" 1
 1639 00ee BFF34F8F 		dsb 0xF
 1640              	@ 0 "" 2
 1641              		.loc 2 947 1
 1642              		.thumb
 1643              		.syntax unified
 1644 00f2 00BF     		nop
 1645              	.LBE391:
 1646              	.LBE390:
 723:Drivers/STM32L4xx_HAL_Driver/Src/stm32l4xx_hal_nand.c ****           __DSB();
 724:Drivers/STM32L4xx_HAL_Driver/Src/stm32l4xx_hal_nand.c ****           *(__IO uint8_t *)((uint32_t)(deviceaddress | ADDR_AREA)) = ADDR_1ST_CYCLE(nandaddress);
 1647              		.loc 1 724 29
 1648 00f4 7B69     		ldr	r3, [r7, #20]
 1649 00f6 43F40033 		orr	r3, r3, #131072
 1650              		.loc 1 724 70
 1651 00fa 3A6A     		ldr	r2, [r7, #32]
 1652 00fc D2B2     		uxtb	r2, r2
 1653              		.loc 1 724 68
 1654 00fe 1A70     		strb	r2, [r3]
 1655              	.LBB392:
 1656              	.LBB393:
 946:Drivers/CMSIS/Core/Include/cmsis_gcc.h **** }
 1657              		.loc 2 946 3
 1658              		.syntax unified
 1659              	@ 946 "Drivers/CMSIS/Core/Include/cmsis_gcc.h" 1
 1660 0100 BFF34F8F 		dsb 0xF
 1661              	@ 0 "" 2
 1662              		.loc 2 947 1
 1663              		.thumb
 1664              		.syntax unified
 1665 0104 00BF     		nop
 1666              	.LBE393:
 1667              	.LBE392:
 725:Drivers/STM32L4xx_HAL_Driver/Src/stm32l4xx_hal_nand.c ****           __DSB();
 726:Drivers/STM32L4xx_HAL_Driver/Src/stm32l4xx_hal_nand.c ****           *(__IO uint8_t *)((uint32_t)(deviceaddress | ADDR_AREA)) = ADDR_2ND_CYCLE(nandaddress);
 1668              		.loc 1 726 70
 1669 0106 3B6A     		ldr	r3, [r7, #32]
 1670 0108 1A0A     		lsrs	r2, r3, #8
 1671              		.loc 1 726 29
 1672 010a 7B69     		ldr	r3, [r7, #20]
 1673 010c 43F40033 		orr	r3, r3, #131072
ARM GAS  /tmp/ccUr9KqT.s 			page 60


 1674              		.loc 1 726 70
 1675 0110 D2B2     		uxtb	r2, r2
 1676              		.loc 1 726 68
 1677 0112 1A70     		strb	r2, [r3]
 1678              	.LBB394:
 1679              	.LBB395:
 946:Drivers/CMSIS/Core/Include/cmsis_gcc.h **** }
 1680              		.loc 2 946 3
 1681              		.syntax unified
 1682              	@ 946 "Drivers/CMSIS/Core/Include/cmsis_gcc.h" 1
 1683 0114 BFF34F8F 		dsb 0xF
 1684              	@ 0 "" 2
 1685              		.loc 2 947 1
 1686              		.thumb
 1687              		.syntax unified
 1688 0118 00BF     		nop
 1689              	.LBE395:
 1690              	.LBE394:
 727:Drivers/STM32L4xx_HAL_Driver/Src/stm32l4xx_hal_nand.c ****           __DSB();
 728:Drivers/STM32L4xx_HAL_Driver/Src/stm32l4xx_hal_nand.c ****           *(__IO uint8_t *)((uint32_t)(deviceaddress | ADDR_AREA)) = ADDR_3RD_CYCLE(nandaddress);
 1691              		.loc 1 728 70
 1692 011a 3B6A     		ldr	r3, [r7, #32]
 1693 011c 1A0C     		lsrs	r2, r3, #16
 1694              		.loc 1 728 29
 1695 011e 7B69     		ldr	r3, [r7, #20]
 1696 0120 43F40033 		orr	r3, r3, #131072
 1697              		.loc 1 728 70
 1698 0124 D2B2     		uxtb	r2, r2
 1699              		.loc 1 728 68
 1700 0126 1A70     		strb	r2, [r3]
 1701              	.LBB396:
 1702              	.LBB397:
 946:Drivers/CMSIS/Core/Include/cmsis_gcc.h **** }
 1703              		.loc 2 946 3
 1704              		.syntax unified
 1705              	@ 946 "Drivers/CMSIS/Core/Include/cmsis_gcc.h" 1
 1706 0128 BFF34F8F 		dsb 0xF
 1707              	@ 0 "" 2
 1708              		.loc 2 947 1
 1709              		.thumb
 1710              		.syntax unified
 1711 012c 58E0     		b	.L58
 1712              	.L56:
 1713              	.LBE397:
 1714              	.LBE396:
 729:Drivers/STM32L4xx_HAL_Driver/Src/stm32l4xx_hal_nand.c ****           __DSB();
 730:Drivers/STM32L4xx_HAL_Driver/Src/stm32l4xx_hal_nand.c ****         }
 731:Drivers/STM32L4xx_HAL_Driver/Src/stm32l4xx_hal_nand.c ****       }
 732:Drivers/STM32L4xx_HAL_Driver/Src/stm32l4xx_hal_nand.c ****       else /* (hnand->Config.PageSize) > 512 */
 733:Drivers/STM32L4xx_HAL_Driver/Src/stm32l4xx_hal_nand.c ****       {
 734:Drivers/STM32L4xx_HAL_Driver/Src/stm32l4xx_hal_nand.c ****         if (((hnand->Config.BlockSize) * (hnand->Config.BlockNbr)) <= 65535U)
 1715              		.loc 1 734 28
 1716 012e FB68     		ldr	r3, [r7, #12]
 1717 0130 DB6A     		ldr	r3, [r3, #44]
 1718              		.loc 1 734 56
 1719 0132 FA68     		ldr	r2, [r7, #12]
 1720 0134 126B     		ldr	r2, [r2, #48]
ARM GAS  /tmp/ccUr9KqT.s 			page 61


 1721              		.loc 1 734 40
 1722 0136 02FB03F3 		mul	r3, r2, r3
 1723              		.loc 1 734 12
 1724 013a B3F5803F 		cmp	r3, #65536
 1725 013e 22D2     		bcs	.L59
 735:Drivers/STM32L4xx_HAL_Driver/Src/stm32l4xx_hal_nand.c ****         {
 736:Drivers/STM32L4xx_HAL_Driver/Src/stm32l4xx_hal_nand.c ****           *(__IO uint8_t *)((uint32_t)(deviceaddress | ADDR_AREA)) = 0x00U;
 1726              		.loc 1 736 29
 1727 0140 7B69     		ldr	r3, [r7, #20]
 1728 0142 43F40033 		orr	r3, r3, #131072
 1729              		.loc 1 736 68
 1730 0146 0022     		movs	r2, #0
 1731 0148 1A70     		strb	r2, [r3]
 1732              	.LBB398:
 1733              	.LBB399:
 946:Drivers/CMSIS/Core/Include/cmsis_gcc.h **** }
 1734              		.loc 2 946 3
 1735              		.syntax unified
 1736              	@ 946 "Drivers/CMSIS/Core/Include/cmsis_gcc.h" 1
 1737 014a BFF34F8F 		dsb 0xF
 1738              	@ 0 "" 2
 1739              		.loc 2 947 1
 1740              		.thumb
 1741              		.syntax unified
 1742 014e 00BF     		nop
 1743              	.LBE399:
 1744              	.LBE398:
 737:Drivers/STM32L4xx_HAL_Driver/Src/stm32l4xx_hal_nand.c ****           __DSB();
 738:Drivers/STM32L4xx_HAL_Driver/Src/stm32l4xx_hal_nand.c ****           *(__IO uint8_t *)((uint32_t)(deviceaddress | ADDR_AREA)) = 0x00U;
 1745              		.loc 1 738 29
 1746 0150 7B69     		ldr	r3, [r7, #20]
 1747 0152 43F40033 		orr	r3, r3, #131072
 1748              		.loc 1 738 68
 1749 0156 0022     		movs	r2, #0
 1750 0158 1A70     		strb	r2, [r3]
 1751              	.LBB400:
 1752              	.LBB401:
 946:Drivers/CMSIS/Core/Include/cmsis_gcc.h **** }
 1753              		.loc 2 946 3
 1754              		.syntax unified
 1755              	@ 946 "Drivers/CMSIS/Core/Include/cmsis_gcc.h" 1
 1756 015a BFF34F8F 		dsb 0xF
 1757              	@ 0 "" 2
 1758              		.loc 2 947 1
 1759              		.thumb
 1760              		.syntax unified
 1761 015e 00BF     		nop
 1762              	.LBE401:
 1763              	.LBE400:
 739:Drivers/STM32L4xx_HAL_Driver/Src/stm32l4xx_hal_nand.c ****           __DSB();
 740:Drivers/STM32L4xx_HAL_Driver/Src/stm32l4xx_hal_nand.c ****           *(__IO uint8_t *)((uint32_t)(deviceaddress | ADDR_AREA)) = ADDR_1ST_CYCLE(nandaddress);
 1764              		.loc 1 740 29
 1765 0160 7B69     		ldr	r3, [r7, #20]
 1766 0162 43F40033 		orr	r3, r3, #131072
 1767              		.loc 1 740 70
 1768 0166 3A6A     		ldr	r2, [r7, #32]
 1769 0168 D2B2     		uxtb	r2, r2
ARM GAS  /tmp/ccUr9KqT.s 			page 62


 1770              		.loc 1 740 68
 1771 016a 1A70     		strb	r2, [r3]
 1772              	.LBB402:
 1773              	.LBB403:
 946:Drivers/CMSIS/Core/Include/cmsis_gcc.h **** }
 1774              		.loc 2 946 3
 1775              		.syntax unified
 1776              	@ 946 "Drivers/CMSIS/Core/Include/cmsis_gcc.h" 1
 1777 016c BFF34F8F 		dsb 0xF
 1778              	@ 0 "" 2
 1779              		.loc 2 947 1
 1780              		.thumb
 1781              		.syntax unified
 1782 0170 00BF     		nop
 1783              	.LBE403:
 1784              	.LBE402:
 741:Drivers/STM32L4xx_HAL_Driver/Src/stm32l4xx_hal_nand.c ****           __DSB();
 742:Drivers/STM32L4xx_HAL_Driver/Src/stm32l4xx_hal_nand.c ****           *(__IO uint8_t *)((uint32_t)(deviceaddress | ADDR_AREA)) = ADDR_2ND_CYCLE(nandaddress);
 1785              		.loc 1 742 70
 1786 0172 3B6A     		ldr	r3, [r7, #32]
 1787 0174 1A0A     		lsrs	r2, r3, #8
 1788              		.loc 1 742 29
 1789 0176 7B69     		ldr	r3, [r7, #20]
 1790 0178 43F40033 		orr	r3, r3, #131072
 1791              		.loc 1 742 70
 1792 017c D2B2     		uxtb	r2, r2
 1793              		.loc 1 742 68
 1794 017e 1A70     		strb	r2, [r3]
 1795              	.LBB404:
 1796              	.LBB405:
 946:Drivers/CMSIS/Core/Include/cmsis_gcc.h **** }
 1797              		.loc 2 946 3
 1798              		.syntax unified
 1799              	@ 946 "Drivers/CMSIS/Core/Include/cmsis_gcc.h" 1
 1800 0180 BFF34F8F 		dsb 0xF
 1801              	@ 0 "" 2
 1802              		.loc 2 947 1
 1803              		.thumb
 1804              		.syntax unified
 1805 0184 2CE0     		b	.L58
 1806              	.L59:
 1807              	.LBE405:
 1808              	.LBE404:
 743:Drivers/STM32L4xx_HAL_Driver/Src/stm32l4xx_hal_nand.c ****           __DSB();
 744:Drivers/STM32L4xx_HAL_Driver/Src/stm32l4xx_hal_nand.c ****         }
 745:Drivers/STM32L4xx_HAL_Driver/Src/stm32l4xx_hal_nand.c ****         else /* ((hnand->Config.BlockSize)*(hnand->Config.BlockNbr)) > 65535 */
 746:Drivers/STM32L4xx_HAL_Driver/Src/stm32l4xx_hal_nand.c ****         {
 747:Drivers/STM32L4xx_HAL_Driver/Src/stm32l4xx_hal_nand.c ****           *(__IO uint8_t *)((uint32_t)(deviceaddress | ADDR_AREA)) = 0x00U;
 1809              		.loc 1 747 29
 1810 0186 7B69     		ldr	r3, [r7, #20]
 1811 0188 43F40033 		orr	r3, r3, #131072
 1812              		.loc 1 747 68
 1813 018c 0022     		movs	r2, #0
 1814 018e 1A70     		strb	r2, [r3]
 1815              	.LBB406:
 1816              	.LBB407:
 946:Drivers/CMSIS/Core/Include/cmsis_gcc.h **** }
ARM GAS  /tmp/ccUr9KqT.s 			page 63


 1817              		.loc 2 946 3
 1818              		.syntax unified
 1819              	@ 946 "Drivers/CMSIS/Core/Include/cmsis_gcc.h" 1
 1820 0190 BFF34F8F 		dsb 0xF
 1821              	@ 0 "" 2
 1822              		.loc 2 947 1
 1823              		.thumb
 1824              		.syntax unified
 1825 0194 00BF     		nop
 1826              	.LBE407:
 1827              	.LBE406:
 748:Drivers/STM32L4xx_HAL_Driver/Src/stm32l4xx_hal_nand.c ****           __DSB();
 749:Drivers/STM32L4xx_HAL_Driver/Src/stm32l4xx_hal_nand.c ****           *(__IO uint8_t *)((uint32_t)(deviceaddress | ADDR_AREA)) = 0x00U;
 1828              		.loc 1 749 29
 1829 0196 7B69     		ldr	r3, [r7, #20]
 1830 0198 43F40033 		orr	r3, r3, #131072
 1831              		.loc 1 749 68
 1832 019c 0022     		movs	r2, #0
 1833 019e 1A70     		strb	r2, [r3]
 1834              	.LBB408:
 1835              	.LBB409:
 946:Drivers/CMSIS/Core/Include/cmsis_gcc.h **** }
 1836              		.loc 2 946 3
 1837              		.syntax unified
 1838              	@ 946 "Drivers/CMSIS/Core/Include/cmsis_gcc.h" 1
 1839 01a0 BFF34F8F 		dsb 0xF
 1840              	@ 0 "" 2
 1841              		.loc 2 947 1
 1842              		.thumb
 1843              		.syntax unified
 1844 01a4 00BF     		nop
 1845              	.LBE409:
 1846              	.LBE408:
 750:Drivers/STM32L4xx_HAL_Driver/Src/stm32l4xx_hal_nand.c ****           __DSB();
 751:Drivers/STM32L4xx_HAL_Driver/Src/stm32l4xx_hal_nand.c ****           *(__IO uint8_t *)((uint32_t)(deviceaddress | ADDR_AREA)) = ADDR_1ST_CYCLE(nandaddress);
 1847              		.loc 1 751 29
 1848 01a6 7B69     		ldr	r3, [r7, #20]
 1849 01a8 43F40033 		orr	r3, r3, #131072
 1850              		.loc 1 751 70
 1851 01ac 3A6A     		ldr	r2, [r7, #32]
 1852 01ae D2B2     		uxtb	r2, r2
 1853              		.loc 1 751 68
 1854 01b0 1A70     		strb	r2, [r3]
 1855              	.LBB410:
 1856              	.LBB411:
 946:Drivers/CMSIS/Core/Include/cmsis_gcc.h **** }
 1857              		.loc 2 946 3
 1858              		.syntax unified
 1859              	@ 946 "Drivers/CMSIS/Core/Include/cmsis_gcc.h" 1
 1860 01b2 BFF34F8F 		dsb 0xF
 1861              	@ 0 "" 2
 1862              		.loc 2 947 1
 1863              		.thumb
 1864              		.syntax unified
 1865 01b6 00BF     		nop
 1866              	.LBE411:
 1867              	.LBE410:
ARM GAS  /tmp/ccUr9KqT.s 			page 64


 752:Drivers/STM32L4xx_HAL_Driver/Src/stm32l4xx_hal_nand.c ****           __DSB();
 753:Drivers/STM32L4xx_HAL_Driver/Src/stm32l4xx_hal_nand.c ****           *(__IO uint8_t *)((uint32_t)(deviceaddress | ADDR_AREA)) = ADDR_2ND_CYCLE(nandaddress);
 1868              		.loc 1 753 70
 1869 01b8 3B6A     		ldr	r3, [r7, #32]
 1870 01ba 1A0A     		lsrs	r2, r3, #8
 1871              		.loc 1 753 29
 1872 01bc 7B69     		ldr	r3, [r7, #20]
 1873 01be 43F40033 		orr	r3, r3, #131072
 1874              		.loc 1 753 70
 1875 01c2 D2B2     		uxtb	r2, r2
 1876              		.loc 1 753 68
 1877 01c4 1A70     		strb	r2, [r3]
 1878              	.LBB412:
 1879              	.LBB413:
 946:Drivers/CMSIS/Core/Include/cmsis_gcc.h **** }
 1880              		.loc 2 946 3
 1881              		.syntax unified
 1882              	@ 946 "Drivers/CMSIS/Core/Include/cmsis_gcc.h" 1
 1883 01c6 BFF34F8F 		dsb 0xF
 1884              	@ 0 "" 2
 1885              		.loc 2 947 1
 1886              		.thumb
 1887              		.syntax unified
 1888 01ca 00BF     		nop
 1889              	.LBE413:
 1890              	.LBE412:
 754:Drivers/STM32L4xx_HAL_Driver/Src/stm32l4xx_hal_nand.c ****           __DSB();
 755:Drivers/STM32L4xx_HAL_Driver/Src/stm32l4xx_hal_nand.c ****           *(__IO uint8_t *)((uint32_t)(deviceaddress | ADDR_AREA)) = ADDR_3RD_CYCLE(nandaddress);
 1891              		.loc 1 755 70
 1892 01cc 3B6A     		ldr	r3, [r7, #32]
 1893 01ce 1A0C     		lsrs	r2, r3, #16
 1894              		.loc 1 755 29
 1895 01d0 7B69     		ldr	r3, [r7, #20]
 1896 01d2 43F40033 		orr	r3, r3, #131072
 1897              		.loc 1 755 70
 1898 01d6 D2B2     		uxtb	r2, r2
 1899              		.loc 1 755 68
 1900 01d8 1A70     		strb	r2, [r3]
 1901              	.LBB414:
 1902              	.LBB415:
 946:Drivers/CMSIS/Core/Include/cmsis_gcc.h **** }
 1903              		.loc 2 946 3
 1904              		.syntax unified
 1905              	@ 946 "Drivers/CMSIS/Core/Include/cmsis_gcc.h" 1
 1906 01da BFF34F8F 		dsb 0xF
 1907              	@ 0 "" 2
 1908              		.loc 2 947 1
 1909              		.thumb
 1910              		.syntax unified
 1911 01de 00BF     		nop
 1912              	.L58:
 1913              	.LBE415:
 1914              	.LBE414:
 756:Drivers/STM32L4xx_HAL_Driver/Src/stm32l4xx_hal_nand.c ****           __DSB();
 757:Drivers/STM32L4xx_HAL_Driver/Src/stm32l4xx_hal_nand.c ****         }
 758:Drivers/STM32L4xx_HAL_Driver/Src/stm32l4xx_hal_nand.c ****       }
 759:Drivers/STM32L4xx_HAL_Driver/Src/stm32l4xx_hal_nand.c **** 
ARM GAS  /tmp/ccUr9KqT.s 			page 65


 760:Drivers/STM32L4xx_HAL_Driver/Src/stm32l4xx_hal_nand.c ****       *(__IO uint8_t *)((uint32_t)(deviceaddress | CMD_AREA))  = NAND_CMD_AREA_TRUE1;
 1915              		.loc 1 760 25
 1916 01e0 7B69     		ldr	r3, [r7, #20]
 1917 01e2 43F48033 		orr	r3, r3, #65536
 1918              		.loc 1 760 64
 1919 01e6 3022     		movs	r2, #48
 1920 01e8 1A70     		strb	r2, [r3]
 1921              	.LBB416:
 1922              	.LBB417:
 946:Drivers/CMSIS/Core/Include/cmsis_gcc.h **** }
 1923              		.loc 2 946 3
 1924              		.syntax unified
 1925              	@ 946 "Drivers/CMSIS/Core/Include/cmsis_gcc.h" 1
 1926 01ea BFF34F8F 		dsb 0xF
 1927              	@ 0 "" 2
 1928              		.loc 2 947 1
 1929              		.thumb
 1930              		.syntax unified
 1931 01ee 00BF     		nop
 1932              	.LBE417:
 1933              	.LBE416:
 761:Drivers/STM32L4xx_HAL_Driver/Src/stm32l4xx_hal_nand.c ****       __DSB();
 762:Drivers/STM32L4xx_HAL_Driver/Src/stm32l4xx_hal_nand.c **** 
 763:Drivers/STM32L4xx_HAL_Driver/Src/stm32l4xx_hal_nand.c ****       if (hnand->Config.ExtraCommandEnable == ENABLE)
 1934              		.loc 1 763 24
 1935 01f0 FB68     		ldr	r3, [r7, #12]
 1936 01f2 93F83C30 		ldrb	r3, [r3, #60]	@ zero_extendqisi2
 1937              		.loc 1 763 10
 1938 01f6 012B     		cmp	r3, #1
 1939 01f8 23D1     		bne	.L60
 764:Drivers/STM32L4xx_HAL_Driver/Src/stm32l4xx_hal_nand.c ****       {
 765:Drivers/STM32L4xx_HAL_Driver/Src/stm32l4xx_hal_nand.c ****         /* Get tick */
 766:Drivers/STM32L4xx_HAL_Driver/Src/stm32l4xx_hal_nand.c ****         tickstart = HAL_GetTick();
 1940              		.loc 1 766 21
 1941 01fa FFF7FEFF 		bl	HAL_GetTick
 1942 01fe 3861     		str	r0, [r7, #16]
 767:Drivers/STM32L4xx_HAL_Driver/Src/stm32l4xx_hal_nand.c **** 
 768:Drivers/STM32L4xx_HAL_Driver/Src/stm32l4xx_hal_nand.c ****         /* Read status until NAND is ready */
 769:Drivers/STM32L4xx_HAL_Driver/Src/stm32l4xx_hal_nand.c ****         while (HAL_NAND_Read_Status(hnand) != NAND_READY)
 1943              		.loc 1 769 15
 1944 0200 11E0     		b	.L61
 1945              	.L62:
 770:Drivers/STM32L4xx_HAL_Driver/Src/stm32l4xx_hal_nand.c ****         {
 771:Drivers/STM32L4xx_HAL_Driver/Src/stm32l4xx_hal_nand.c ****           if ((HAL_GetTick() - tickstart) > NAND_WRITE_TIMEOUT)
 1946              		.loc 1 771 16
 1947 0202 FFF7FEFF 		bl	HAL_GetTick
 1948 0206 0246     		mov	r2, r0
 1949              		.loc 1 771 30 discriminator 1
 1950 0208 3B69     		ldr	r3, [r7, #16]
 1951 020a D31A     		subs	r3, r2, r3
 1952              		.loc 1 771 14 discriminator 1
 1953 020c B3F1807F 		cmp	r3, #16777216
 1954 0210 09D9     		bls	.L61
 772:Drivers/STM32L4xx_HAL_Driver/Src/stm32l4xx_hal_nand.c ****           {
 773:Drivers/STM32L4xx_HAL_Driver/Src/stm32l4xx_hal_nand.c ****             /* Update the NAND controller state */
 774:Drivers/STM32L4xx_HAL_Driver/Src/stm32l4xx_hal_nand.c ****             hnand->State = HAL_NAND_STATE_ERROR;
 1955              		.loc 1 774 26
ARM GAS  /tmp/ccUr9KqT.s 			page 66


 1956 0212 FB68     		ldr	r3, [r7, #12]
 1957 0214 0322     		movs	r2, #3
 1958 0216 83F82120 		strb	r2, [r3, #33]
 775:Drivers/STM32L4xx_HAL_Driver/Src/stm32l4xx_hal_nand.c **** 
 776:Drivers/STM32L4xx_HAL_Driver/Src/stm32l4xx_hal_nand.c ****             /* Process unlocked */
 777:Drivers/STM32L4xx_HAL_Driver/Src/stm32l4xx_hal_nand.c ****             __HAL_UNLOCK(hnand);
 1959              		.loc 1 777 13
 1960 021a FB68     		ldr	r3, [r7, #12]
 1961 021c 0022     		movs	r2, #0
 1962 021e 83F82020 		strb	r2, [r3, #32]
 778:Drivers/STM32L4xx_HAL_Driver/Src/stm32l4xx_hal_nand.c **** 
 779:Drivers/STM32L4xx_HAL_Driver/Src/stm32l4xx_hal_nand.c ****             return HAL_TIMEOUT;
 1963              		.loc 1 779 20
 1964 0222 0323     		movs	r3, #3
 1965 0224 47E0     		b	.L52
 1966              	.L61:
 769:Drivers/STM32L4xx_HAL_Driver/Src/stm32l4xx_hal_nand.c ****         {
 1967              		.loc 1 769 16
 1968 0226 F868     		ldr	r0, [r7, #12]
 1969 0228 FFF7FEFF 		bl	HAL_NAND_Read_Status
 1970 022c 0346     		mov	r3, r0
 769:Drivers/STM32L4xx_HAL_Driver/Src/stm32l4xx_hal_nand.c ****         {
 1971              		.loc 1 769 44 discriminator 1
 1972 022e 402B     		cmp	r3, #64
 1973 0230 E7D1     		bne	.L62
 780:Drivers/STM32L4xx_HAL_Driver/Src/stm32l4xx_hal_nand.c ****           }
 781:Drivers/STM32L4xx_HAL_Driver/Src/stm32l4xx_hal_nand.c ****         }
 782:Drivers/STM32L4xx_HAL_Driver/Src/stm32l4xx_hal_nand.c **** 
 783:Drivers/STM32L4xx_HAL_Driver/Src/stm32l4xx_hal_nand.c ****         /* Go back to read mode */
 784:Drivers/STM32L4xx_HAL_Driver/Src/stm32l4xx_hal_nand.c ****         *(__IO uint8_t *)((uint32_t)(deviceaddress | CMD_AREA)) = ((uint8_t)0x00);
 1974              		.loc 1 784 27
 1975 0232 7B69     		ldr	r3, [r7, #20]
 1976 0234 43F48033 		orr	r3, r3, #65536
 1977              		.loc 1 784 65
 1978 0238 0022     		movs	r2, #0
 1979 023a 1A70     		strb	r2, [r3]
 1980              	.LBB418:
 1981              	.LBB419:
 946:Drivers/CMSIS/Core/Include/cmsis_gcc.h **** }
 1982              		.loc 2 946 3
 1983              		.syntax unified
 1984              	@ 946 "Drivers/CMSIS/Core/Include/cmsis_gcc.h" 1
 1985 023c BFF34F8F 		dsb 0xF
 1986              	@ 0 "" 2
 1987              		.loc 2 947 1
 1988              		.thumb
 1989              		.syntax unified
 1990 0240 00BF     		nop
 1991              	.L60:
 1992              	.LBE419:
 1993              	.LBE418:
 785:Drivers/STM32L4xx_HAL_Driver/Src/stm32l4xx_hal_nand.c ****         __DSB();
 786:Drivers/STM32L4xx_HAL_Driver/Src/stm32l4xx_hal_nand.c ****       }
 787:Drivers/STM32L4xx_HAL_Driver/Src/stm32l4xx_hal_nand.c **** 
 788:Drivers/STM32L4xx_HAL_Driver/Src/stm32l4xx_hal_nand.c ****       /* Calculate PageSize */
 789:Drivers/STM32L4xx_HAL_Driver/Src/stm32l4xx_hal_nand.c ****       if (hnand->Init.MemoryDataWidth == FMC_NAND_MEM_BUS_WIDTH_8)
 1994              		.loc 1 789 22
ARM GAS  /tmp/ccUr9KqT.s 			page 67


 1995 0242 FB68     		ldr	r3, [r7, #12]
 1996 0244 DB68     		ldr	r3, [r3, #12]
 1997              		.loc 1 789 10
 1998 0246 002B     		cmp	r3, #0
 1999 0248 04D1     		bne	.L63
 790:Drivers/STM32L4xx_HAL_Driver/Src/stm32l4xx_hal_nand.c ****       {
 791:Drivers/STM32L4xx_HAL_Driver/Src/stm32l4xx_hal_nand.c ****         hnand->Config.PageSize = hnand->Config.PageSize / 2U;
 2000              		.loc 1 791 47
 2001 024a FB68     		ldr	r3, [r7, #12]
 2002 024c 5B6A     		ldr	r3, [r3, #36]
 2003              		.loc 1 791 57
 2004 024e 5A08     		lsrs	r2, r3, #1
 2005              		.loc 1 791 32
 2006 0250 FB68     		ldr	r3, [r7, #12]
 2007 0252 5A62     		str	r2, [r3, #36]
 2008              	.L63:
 792:Drivers/STM32L4xx_HAL_Driver/Src/stm32l4xx_hal_nand.c ****       }
 793:Drivers/STM32L4xx_HAL_Driver/Src/stm32l4xx_hal_nand.c ****       else
 794:Drivers/STM32L4xx_HAL_Driver/Src/stm32l4xx_hal_nand.c ****       {
 795:Drivers/STM32L4xx_HAL_Driver/Src/stm32l4xx_hal_nand.c ****         /* Do nothing */
 796:Drivers/STM32L4xx_HAL_Driver/Src/stm32l4xx_hal_nand.c ****         /* Keep the same PageSize for FMC_NAND_MEM_BUS_WIDTH_16*/
 797:Drivers/STM32L4xx_HAL_Driver/Src/stm32l4xx_hal_nand.c ****       }
 798:Drivers/STM32L4xx_HAL_Driver/Src/stm32l4xx_hal_nand.c **** 
 799:Drivers/STM32L4xx_HAL_Driver/Src/stm32l4xx_hal_nand.c ****       /* Get Data into Buffer */
 800:Drivers/STM32L4xx_HAL_Driver/Src/stm32l4xx_hal_nand.c ****       for (index = 0U; index < hnand->Config.PageSize; index++)
 2009              		.loc 1 800 18
 2010 0254 0023     		movs	r3, #0
 2011 0256 7B62     		str	r3, [r7, #36]
 2012              		.loc 1 800 7
 2013 0258 0AE0     		b	.L64
 2014              	.L65:
 801:Drivers/STM32L4xx_HAL_Driver/Src/stm32l4xx_hal_nand.c ****       {
 802:Drivers/STM32L4xx_HAL_Driver/Src/stm32l4xx_hal_nand.c ****         *buff = *(__IO uint16_t *)deviceaddress;
 2015              		.loc 1 802 18
 2016 025a 7B69     		ldr	r3, [r7, #20]
 2017              		.loc 1 802 17
 2018 025c 1B88     		ldrh	r3, [r3]	@ movhi
 2019 025e 9AB2     		uxth	r2, r3
 2020              		.loc 1 802 15
 2021 0260 BB69     		ldr	r3, [r7, #24]
 2022 0262 1A80     		strh	r2, [r3]	@ movhi
 803:Drivers/STM32L4xx_HAL_Driver/Src/stm32l4xx_hal_nand.c ****         buff++;
 2023              		.loc 1 803 13
 2024 0264 BB69     		ldr	r3, [r7, #24]
 2025 0266 0233     		adds	r3, r3, #2
 2026 0268 BB61     		str	r3, [r7, #24]
 800:Drivers/STM32L4xx_HAL_Driver/Src/stm32l4xx_hal_nand.c ****       {
 2027              		.loc 1 800 61 discriminator 3
 2028 026a 7B6A     		ldr	r3, [r7, #36]
 2029 026c 0133     		adds	r3, r3, #1
 2030 026e 7B62     		str	r3, [r7, #36]
 2031              	.L64:
 800:Drivers/STM32L4xx_HAL_Driver/Src/stm32l4xx_hal_nand.c ****       {
 2032              		.loc 1 800 45 discriminator 1
 2033 0270 FB68     		ldr	r3, [r7, #12]
 2034 0272 5B6A     		ldr	r3, [r3, #36]
 800:Drivers/STM32L4xx_HAL_Driver/Src/stm32l4xx_hal_nand.c ****       {
ARM GAS  /tmp/ccUr9KqT.s 			page 68


 2035              		.loc 1 800 30 discriminator 1
 2036 0274 7A6A     		ldr	r2, [r7, #36]
 2037 0276 9A42     		cmp	r2, r3
 2038 0278 EFD3     		bcc	.L65
 804:Drivers/STM32L4xx_HAL_Driver/Src/stm32l4xx_hal_nand.c ****       }
 805:Drivers/STM32L4xx_HAL_Driver/Src/stm32l4xx_hal_nand.c **** 
 806:Drivers/STM32L4xx_HAL_Driver/Src/stm32l4xx_hal_nand.c ****       /* Decrement pages to read */
 807:Drivers/STM32L4xx_HAL_Driver/Src/stm32l4xx_hal_nand.c ****       nbpages--;
 2039              		.loc 1 807 14
 2040 027a FB69     		ldr	r3, [r7, #28]
 2041 027c 013B     		subs	r3, r3, #1
 2042 027e FB61     		str	r3, [r7, #28]
 808:Drivers/STM32L4xx_HAL_Driver/Src/stm32l4xx_hal_nand.c **** 
 809:Drivers/STM32L4xx_HAL_Driver/Src/stm32l4xx_hal_nand.c ****       /* Increment the NAND address */
 810:Drivers/STM32L4xx_HAL_Driver/Src/stm32l4xx_hal_nand.c ****       nandaddress = (uint32_t)(nandaddress + 1U);
 2043              		.loc 1 810 19
 2044 0280 3B6A     		ldr	r3, [r7, #32]
 2045 0282 0133     		adds	r3, r3, #1
 2046 0284 3B62     		str	r3, [r7, #32]
 2047              	.L55:
 702:Drivers/STM32L4xx_HAL_Driver/Src/stm32l4xx_hal_nand.c ****     {
 2048              		.loc 1 702 28
 2049 0286 FB69     		ldr	r3, [r7, #28]
 2050 0288 002B     		cmp	r3, #0
 2051 028a 09D0     		beq	.L66
 702:Drivers/STM32L4xx_HAL_Driver/Src/stm32l4xx_hal_nand.c ****     {
 2052              		.loc 1 702 61 discriminator 1
 2053 028c FB68     		ldr	r3, [r7, #12]
 2054 028e DB6A     		ldr	r3, [r3, #44]
 702:Drivers/STM32L4xx_HAL_Driver/Src/stm32l4xx_hal_nand.c ****     {
 2055              		.loc 1 702 89 discriminator 1
 2056 0290 FA68     		ldr	r2, [r7, #12]
 2057 0292 126B     		ldr	r2, [r2, #48]
 702:Drivers/STM32L4xx_HAL_Driver/Src/stm32l4xx_hal_nand.c ****     {
 2058              		.loc 1 702 73 discriminator 1
 2059 0294 02FB03F3 		mul	r3, r2, r3
 702:Drivers/STM32L4xx_HAL_Driver/Src/stm32l4xx_hal_nand.c ****     {
 2060              		.loc 1 702 28 discriminator 1
 2061 0298 3A6A     		ldr	r2, [r7, #32]
 2062 029a 9A42     		cmp	r2, r3
 2063 029c FFF4F1AE 		bcc	.L67
 2064              	.L66:
 811:Drivers/STM32L4xx_HAL_Driver/Src/stm32l4xx_hal_nand.c ****     }
 812:Drivers/STM32L4xx_HAL_Driver/Src/stm32l4xx_hal_nand.c **** 
 813:Drivers/STM32L4xx_HAL_Driver/Src/stm32l4xx_hal_nand.c ****     /* Update the NAND controller state */
 814:Drivers/STM32L4xx_HAL_Driver/Src/stm32l4xx_hal_nand.c ****     hnand->State = HAL_NAND_STATE_READY;
 2065              		.loc 1 814 18
 2066 02a0 FB68     		ldr	r3, [r7, #12]
 2067 02a2 0122     		movs	r2, #1
 2068 02a4 83F82120 		strb	r2, [r3, #33]
 815:Drivers/STM32L4xx_HAL_Driver/Src/stm32l4xx_hal_nand.c **** 
 816:Drivers/STM32L4xx_HAL_Driver/Src/stm32l4xx_hal_nand.c ****     /* Process unlocked */
 817:Drivers/STM32L4xx_HAL_Driver/Src/stm32l4xx_hal_nand.c ****     __HAL_UNLOCK(hnand);
 2069              		.loc 1 817 5
 2070 02a8 FB68     		ldr	r3, [r7, #12]
 2071 02aa 0022     		movs	r2, #0
 2072 02ac 83F82020 		strb	r2, [r3, #32]
ARM GAS  /tmp/ccUr9KqT.s 			page 69


 818:Drivers/STM32L4xx_HAL_Driver/Src/stm32l4xx_hal_nand.c ****   }
 819:Drivers/STM32L4xx_HAL_Driver/Src/stm32l4xx_hal_nand.c ****   else
 820:Drivers/STM32L4xx_HAL_Driver/Src/stm32l4xx_hal_nand.c ****   {
 821:Drivers/STM32L4xx_HAL_Driver/Src/stm32l4xx_hal_nand.c ****     return HAL_ERROR;
 822:Drivers/STM32L4xx_HAL_Driver/Src/stm32l4xx_hal_nand.c ****   }
 823:Drivers/STM32L4xx_HAL_Driver/Src/stm32l4xx_hal_nand.c **** 
 824:Drivers/STM32L4xx_HAL_Driver/Src/stm32l4xx_hal_nand.c ****   return HAL_OK;
 2073              		.loc 1 824 10
 2074 02b0 0023     		movs	r3, #0
 2075 02b2 00E0     		b	.L52
 2076              	.L53:
 821:Drivers/STM32L4xx_HAL_Driver/Src/stm32l4xx_hal_nand.c ****   }
 2077              		.loc 1 821 12
 2078 02b4 0123     		movs	r3, #1
 2079              	.L52:
 825:Drivers/STM32L4xx_HAL_Driver/Src/stm32l4xx_hal_nand.c **** }
 2080              		.loc 1 825 1
 2081 02b6 1846     		mov	r0, r3
 2082 02b8 2837     		adds	r7, r7, #40
 2083              		.cfi_def_cfa_offset 8
 2084 02ba BD46     		mov	sp, r7
 2085              		.cfi_def_cfa_register 13
 2086              		@ sp needed
 2087 02bc 80BD     		pop	{r7, pc}
 2088              		.cfi_endproc
 2089              	.LFE455:
 2091              		.section	.text.HAL_NAND_Write_Page_8b,"ax",%progbits
 2092              		.align	1
 2093              		.global	HAL_NAND_Write_Page_8b
 2094              		.syntax unified
 2095              		.thumb
 2096              		.thumb_func
 2098              	HAL_NAND_Write_Page_8b:
 2099              	.LFB456:
 826:Drivers/STM32L4xx_HAL_Driver/Src/stm32l4xx_hal_nand.c **** 
 827:Drivers/STM32L4xx_HAL_Driver/Src/stm32l4xx_hal_nand.c **** /**
 828:Drivers/STM32L4xx_HAL_Driver/Src/stm32l4xx_hal_nand.c ****   * @brief  Write Page(s) to NAND memory block (8-bits addressing)
 829:Drivers/STM32L4xx_HAL_Driver/Src/stm32l4xx_hal_nand.c ****   * @param  hnand pointer to a NAND_HandleTypeDef structure that contains
 830:Drivers/STM32L4xx_HAL_Driver/Src/stm32l4xx_hal_nand.c ****   *                the configuration information for NAND module.
 831:Drivers/STM32L4xx_HAL_Driver/Src/stm32l4xx_hal_nand.c ****   * @param  pAddress  pointer to NAND address structure
 832:Drivers/STM32L4xx_HAL_Driver/Src/stm32l4xx_hal_nand.c ****   * @param  pBuffer  pointer to source buffer to write
 833:Drivers/STM32L4xx_HAL_Driver/Src/stm32l4xx_hal_nand.c ****   * @param  NumPageToWrite   number of pages to write to block
 834:Drivers/STM32L4xx_HAL_Driver/Src/stm32l4xx_hal_nand.c ****   * @retval HAL status
 835:Drivers/STM32L4xx_HAL_Driver/Src/stm32l4xx_hal_nand.c ****   */
 836:Drivers/STM32L4xx_HAL_Driver/Src/stm32l4xx_hal_nand.c **** HAL_StatusTypeDef HAL_NAND_Write_Page_8b(NAND_HandleTypeDef *hnand, const NAND_AddressTypeDef *pAdd
 837:Drivers/STM32L4xx_HAL_Driver/Src/stm32l4xx_hal_nand.c ****                                          const uint8_t *pBuffer, uint32_t NumPageToWrite)
 838:Drivers/STM32L4xx_HAL_Driver/Src/stm32l4xx_hal_nand.c **** {
 2100              		.loc 1 838 1
 2101              		.cfi_startproc
 2102              		@ args = 0, pretend = 0, frame = 40
 2103              		@ frame_needed = 1, uses_anonymous_args = 0
 2104 0000 80B5     		push	{r7, lr}
 2105              		.cfi_def_cfa_offset 8
 2106              		.cfi_offset 7, -8
 2107              		.cfi_offset 14, -4
 2108 0002 8AB0     		sub	sp, sp, #40
 2109              		.cfi_def_cfa_offset 48
ARM GAS  /tmp/ccUr9KqT.s 			page 70


 2110 0004 00AF     		add	r7, sp, #0
 2111              		.cfi_def_cfa_register 7
 2112 0006 F860     		str	r0, [r7, #12]
 2113 0008 B960     		str	r1, [r7, #8]
 2114 000a 7A60     		str	r2, [r7, #4]
 2115 000c 3B60     		str	r3, [r7]
 839:Drivers/STM32L4xx_HAL_Driver/Src/stm32l4xx_hal_nand.c ****   uint32_t index;
 840:Drivers/STM32L4xx_HAL_Driver/Src/stm32l4xx_hal_nand.c ****   uint32_t tickstart;
 841:Drivers/STM32L4xx_HAL_Driver/Src/stm32l4xx_hal_nand.c ****   uint32_t deviceaddress;
 842:Drivers/STM32L4xx_HAL_Driver/Src/stm32l4xx_hal_nand.c ****   uint32_t nandaddress;
 843:Drivers/STM32L4xx_HAL_Driver/Src/stm32l4xx_hal_nand.c ****   uint32_t nbpages = NumPageToWrite;
 2116              		.loc 1 843 12
 2117 000e 3B68     		ldr	r3, [r7]
 2118 0010 FB61     		str	r3, [r7, #28]
 844:Drivers/STM32L4xx_HAL_Driver/Src/stm32l4xx_hal_nand.c ****   const uint8_t *buff = pBuffer;
 2119              		.loc 1 844 18
 2120 0012 7B68     		ldr	r3, [r7, #4]
 2121 0014 BB61     		str	r3, [r7, #24]
 845:Drivers/STM32L4xx_HAL_Driver/Src/stm32l4xx_hal_nand.c **** 
 846:Drivers/STM32L4xx_HAL_Driver/Src/stm32l4xx_hal_nand.c ****   /* Check the NAND controller state */
 847:Drivers/STM32L4xx_HAL_Driver/Src/stm32l4xx_hal_nand.c ****   if (hnand->State == HAL_NAND_STATE_BUSY)
 2122              		.loc 1 847 12
 2123 0016 FB68     		ldr	r3, [r7, #12]
 2124 0018 93F82130 		ldrb	r3, [r3, #33]
 2125 001c DBB2     		uxtb	r3, r3
 2126              		.loc 1 847 6
 2127 001e 022B     		cmp	r3, #2
 2128 0020 01D1     		bne	.L70
 848:Drivers/STM32L4xx_HAL_Driver/Src/stm32l4xx_hal_nand.c ****   {
 849:Drivers/STM32L4xx_HAL_Driver/Src/stm32l4xx_hal_nand.c ****     return HAL_BUSY;
 2129              		.loc 1 849 12
 2130 0022 0223     		movs	r3, #2
 2131 0024 3BE1     		b	.L71
 2132              	.L70:
 850:Drivers/STM32L4xx_HAL_Driver/Src/stm32l4xx_hal_nand.c ****   }
 851:Drivers/STM32L4xx_HAL_Driver/Src/stm32l4xx_hal_nand.c ****   else if (hnand->State == HAL_NAND_STATE_READY)
 2133              		.loc 1 851 17
 2134 0026 FB68     		ldr	r3, [r7, #12]
 2135 0028 93F82130 		ldrb	r3, [r3, #33]
 2136 002c DBB2     		uxtb	r3, r3
 2137              		.loc 1 851 11
 2138 002e 012B     		cmp	r3, #1
 2139 0030 40F03481 		bne	.L72
 852:Drivers/STM32L4xx_HAL_Driver/Src/stm32l4xx_hal_nand.c ****   {
 853:Drivers/STM32L4xx_HAL_Driver/Src/stm32l4xx_hal_nand.c ****     /* Process Locked */
 854:Drivers/STM32L4xx_HAL_Driver/Src/stm32l4xx_hal_nand.c ****     __HAL_LOCK(hnand);
 2140              		.loc 1 854 5
 2141 0034 FB68     		ldr	r3, [r7, #12]
 2142 0036 93F82030 		ldrb	r3, [r3, #32]	@ zero_extendqisi2
 2143 003a 012B     		cmp	r3, #1
 2144 003c 01D1     		bne	.L73
 2145              		.loc 1 854 5 is_stmt 0 discriminator 1
 2146 003e 0223     		movs	r3, #2
 2147              		.loc 1 854 5
 2148 0040 2DE1     		b	.L71
 2149              	.L73:
 2150              		.loc 1 854 5 discriminator 2
ARM GAS  /tmp/ccUr9KqT.s 			page 71


 2151 0042 FB68     		ldr	r3, [r7, #12]
 2152 0044 0122     		movs	r2, #1
 2153 0046 83F82020 		strb	r2, [r3, #32]
 855:Drivers/STM32L4xx_HAL_Driver/Src/stm32l4xx_hal_nand.c **** 
 856:Drivers/STM32L4xx_HAL_Driver/Src/stm32l4xx_hal_nand.c ****     /* Update the NAND controller state */
 857:Drivers/STM32L4xx_HAL_Driver/Src/stm32l4xx_hal_nand.c ****     hnand->State = HAL_NAND_STATE_BUSY;
 2154              		.loc 1 857 18 is_stmt 1
 2155 004a FB68     		ldr	r3, [r7, #12]
 2156 004c 0222     		movs	r2, #2
 2157 004e 83F82120 		strb	r2, [r3, #33]
 858:Drivers/STM32L4xx_HAL_Driver/Src/stm32l4xx_hal_nand.c **** 
 859:Drivers/STM32L4xx_HAL_Driver/Src/stm32l4xx_hal_nand.c ****     /* Identify the device address */
 860:Drivers/STM32L4xx_HAL_Driver/Src/stm32l4xx_hal_nand.c ****     deviceaddress = NAND_DEVICE;
 2158              		.loc 1 860 19
 2159 0052 4FF00043 		mov	r3, #-2147483648
 2160 0056 7B61     		str	r3, [r7, #20]
 861:Drivers/STM32L4xx_HAL_Driver/Src/stm32l4xx_hal_nand.c **** 
 862:Drivers/STM32L4xx_HAL_Driver/Src/stm32l4xx_hal_nand.c ****     /* NAND raw address calculation */
 863:Drivers/STM32L4xx_HAL_Driver/Src/stm32l4xx_hal_nand.c ****     nandaddress = ARRAY_ADDRESS(pAddress, hnand);
 2161              		.loc 1 863 19
 2162 0058 BB68     		ldr	r3, [r7, #8]
 2163 005a 1B88     		ldrh	r3, [r3]
 2164 005c 1946     		mov	r1, r3
 2165 005e BB68     		ldr	r3, [r7, #8]
 2166 0060 9B88     		ldrh	r3, [r3, #4]
 2167 0062 1A46     		mov	r2, r3
 2168 0064 BB68     		ldr	r3, [r7, #8]
 2169 0066 5B88     		ldrh	r3, [r3, #2]
 2170 0068 1846     		mov	r0, r3
 2171 006a FB68     		ldr	r3, [r7, #12]
 2172 006c 9B6B     		ldr	r3, [r3, #56]
 2173 006e 00FB03F3 		mul	r3, r0, r3
 2174 0072 1344     		add	r3, r3, r2
 2175 0074 FA68     		ldr	r2, [r7, #12]
 2176 0076 D26A     		ldr	r2, [r2, #44]
 2177 0078 02FB03F3 		mul	r3, r2, r3
 2178              		.loc 1 863 17
 2179 007c 0B44     		add	r3, r3, r1
 2180 007e 3B62     		str	r3, [r7, #32]
 864:Drivers/STM32L4xx_HAL_Driver/Src/stm32l4xx_hal_nand.c **** 
 865:Drivers/STM32L4xx_HAL_Driver/Src/stm32l4xx_hal_nand.c ****     /* Page(s) write loop */
 866:Drivers/STM32L4xx_HAL_Driver/Src/stm32l4xx_hal_nand.c ****     while ((nbpages != 0U) && (nandaddress < ((hnand->Config.BlockSize) * (hnand->Config.BlockNbr))
 2181              		.loc 1 866 11
 2182 0080 F5E0     		b	.L74
 2183              	.L84:
 867:Drivers/STM32L4xx_HAL_Driver/Src/stm32l4xx_hal_nand.c ****     {
 868:Drivers/STM32L4xx_HAL_Driver/Src/stm32l4xx_hal_nand.c ****       /* Send write page command sequence */
 869:Drivers/STM32L4xx_HAL_Driver/Src/stm32l4xx_hal_nand.c ****       *(__IO uint8_t *)((uint32_t)(deviceaddress | CMD_AREA)) = NAND_CMD_AREA_A;
 2184              		.loc 1 869 25
 2185 0082 7B69     		ldr	r3, [r7, #20]
 2186 0084 43F48033 		orr	r3, r3, #65536
 2187              		.loc 1 869 63
 2188 0088 0022     		movs	r2, #0
 2189 008a 1A70     		strb	r2, [r3]
 2190              	.LBB420:
 2191              	.LBB421:
 946:Drivers/CMSIS/Core/Include/cmsis_gcc.h **** }
ARM GAS  /tmp/ccUr9KqT.s 			page 72


 2192              		.loc 2 946 3
 2193              		.syntax unified
 2194              	@ 946 "Drivers/CMSIS/Core/Include/cmsis_gcc.h" 1
 2195 008c BFF34F8F 		dsb 0xF
 2196              	@ 0 "" 2
 2197              		.loc 2 947 1
 2198              		.thumb
 2199              		.syntax unified
 2200 0090 00BF     		nop
 2201              	.LBE421:
 2202              	.LBE420:
 870:Drivers/STM32L4xx_HAL_Driver/Src/stm32l4xx_hal_nand.c ****       __DSB();
 871:Drivers/STM32L4xx_HAL_Driver/Src/stm32l4xx_hal_nand.c ****       *(__IO uint8_t *)((uint32_t)(deviceaddress | CMD_AREA)) = NAND_CMD_WRITE0;
 2203              		.loc 1 871 25
 2204 0092 7B69     		ldr	r3, [r7, #20]
 2205 0094 43F48033 		orr	r3, r3, #65536
 2206              		.loc 1 871 63
 2207 0098 8022     		movs	r2, #128
 2208 009a 1A70     		strb	r2, [r3]
 2209              	.LBB422:
 2210              	.LBB423:
 946:Drivers/CMSIS/Core/Include/cmsis_gcc.h **** }
 2211              		.loc 2 946 3
 2212              		.syntax unified
 2213              	@ 946 "Drivers/CMSIS/Core/Include/cmsis_gcc.h" 1
 2214 009c BFF34F8F 		dsb 0xF
 2215              	@ 0 "" 2
 2216              		.loc 2 947 1
 2217              		.thumb
 2218              		.syntax unified
 2219 00a0 00BF     		nop
 2220              	.LBE423:
 2221              	.LBE422:
 872:Drivers/STM32L4xx_HAL_Driver/Src/stm32l4xx_hal_nand.c ****       __DSB();
 873:Drivers/STM32L4xx_HAL_Driver/Src/stm32l4xx_hal_nand.c **** 
 874:Drivers/STM32L4xx_HAL_Driver/Src/stm32l4xx_hal_nand.c ****       /* Cards with page size <= 512 bytes */
 875:Drivers/STM32L4xx_HAL_Driver/Src/stm32l4xx_hal_nand.c ****       if ((hnand->Config.PageSize) <= 512U)
 2222              		.loc 1 875 25
 2223 00a2 FB68     		ldr	r3, [r7, #12]
 2224 00a4 5B6A     		ldr	r3, [r3, #36]
 2225              		.loc 1 875 10
 2226 00a6 B3F5007F 		cmp	r3, #512
 2227 00aa 48D8     		bhi	.L75
 876:Drivers/STM32L4xx_HAL_Driver/Src/stm32l4xx_hal_nand.c ****       {
 877:Drivers/STM32L4xx_HAL_Driver/Src/stm32l4xx_hal_nand.c ****         if (((hnand->Config.BlockSize) * (hnand->Config.BlockNbr)) <= 65535U)
 2228              		.loc 1 877 28
 2229 00ac FB68     		ldr	r3, [r7, #12]
 2230 00ae DB6A     		ldr	r3, [r3, #44]
 2231              		.loc 1 877 56
 2232 00b0 FA68     		ldr	r2, [r7, #12]
 2233 00b2 126B     		ldr	r2, [r2, #48]
 2234              		.loc 1 877 40
 2235 00b4 02FB03F3 		mul	r3, r2, r3
 2236              		.loc 1 877 12
 2237 00b8 B3F5803F 		cmp	r3, #65536
 2238 00bc 1AD2     		bcs	.L76
 878:Drivers/STM32L4xx_HAL_Driver/Src/stm32l4xx_hal_nand.c ****         {
ARM GAS  /tmp/ccUr9KqT.s 			page 73


 879:Drivers/STM32L4xx_HAL_Driver/Src/stm32l4xx_hal_nand.c ****           *(__IO uint8_t *)((uint32_t)(deviceaddress | ADDR_AREA)) = 0x00U;
 2239              		.loc 1 879 29
 2240 00be 7B69     		ldr	r3, [r7, #20]
 2241 00c0 43F40033 		orr	r3, r3, #131072
 2242              		.loc 1 879 68
 2243 00c4 0022     		movs	r2, #0
 2244 00c6 1A70     		strb	r2, [r3]
 2245              	.LBB424:
 2246              	.LBB425:
 946:Drivers/CMSIS/Core/Include/cmsis_gcc.h **** }
 2247              		.loc 2 946 3
 2248              		.syntax unified
 2249              	@ 946 "Drivers/CMSIS/Core/Include/cmsis_gcc.h" 1
 2250 00c8 BFF34F8F 		dsb 0xF
 2251              	@ 0 "" 2
 2252              		.loc 2 947 1
 2253              		.thumb
 2254              		.syntax unified
 2255 00cc 00BF     		nop
 2256              	.LBE425:
 2257              	.LBE424:
 880:Drivers/STM32L4xx_HAL_Driver/Src/stm32l4xx_hal_nand.c ****           __DSB();
 881:Drivers/STM32L4xx_HAL_Driver/Src/stm32l4xx_hal_nand.c ****           *(__IO uint8_t *)((uint32_t)(deviceaddress | ADDR_AREA)) = ADDR_1ST_CYCLE(nandaddress);
 2258              		.loc 1 881 29
 2259 00ce 7B69     		ldr	r3, [r7, #20]
 2260 00d0 43F40033 		orr	r3, r3, #131072
 2261              		.loc 1 881 70
 2262 00d4 3A6A     		ldr	r2, [r7, #32]
 2263 00d6 D2B2     		uxtb	r2, r2
 2264              		.loc 1 881 68
 2265 00d8 1A70     		strb	r2, [r3]
 2266              	.LBB426:
 2267              	.LBB427:
 946:Drivers/CMSIS/Core/Include/cmsis_gcc.h **** }
 2268              		.loc 2 946 3
 2269              		.syntax unified
 2270              	@ 946 "Drivers/CMSIS/Core/Include/cmsis_gcc.h" 1
 2271 00da BFF34F8F 		dsb 0xF
 2272              	@ 0 "" 2
 2273              		.loc 2 947 1
 2274              		.thumb
 2275              		.syntax unified
 2276 00de 00BF     		nop
 2277              	.LBE427:
 2278              	.LBE426:
 882:Drivers/STM32L4xx_HAL_Driver/Src/stm32l4xx_hal_nand.c ****           __DSB();
 883:Drivers/STM32L4xx_HAL_Driver/Src/stm32l4xx_hal_nand.c ****           *(__IO uint8_t *)((uint32_t)(deviceaddress | ADDR_AREA)) = ADDR_2ND_CYCLE(nandaddress);
 2279              		.loc 1 883 70
 2280 00e0 3B6A     		ldr	r3, [r7, #32]
 2281 00e2 1A0A     		lsrs	r2, r3, #8
 2282              		.loc 1 883 29
 2283 00e4 7B69     		ldr	r3, [r7, #20]
 2284 00e6 43F40033 		orr	r3, r3, #131072
