ARM GAS  /tmp/ccfK0n0F.s 			page 1


   1              		.cpu cortex-m4
   2              		.arch armv7e-m
   3              		.fpu fpv4-sp-d16
   4              		.eabi_attribute 27, 1
   5              		.eabi_attribute 28, 1
   6              		.eabi_attribute 20, 1
   7              		.eabi_attribute 21, 1
   8              		.eabi_attribute 23, 3
   9              		.eabi_attribute 24, 1
  10              		.eabi_attribute 25, 1
  11              		.eabi_attribute 26, 1
  12              		.eabi_attribute 30, 6
  13              		.eabi_attribute 34, 1
  14              		.eabi_attribute 18, 4
  15              		.file	"stm32l475e_iot01_gyro.c"
  16              		.text
  17              	.Ltext0:
  18              		.cfi_sections	.debug_frame
  19              		.file 1 "Drivers/BSP/B-L475E-IOT01/stm32l475e_iot01_gyro.c"
  20              		.section	.rodata.CHANNEL_OFFSET_TAB,"a"
  21              		.align	2
  24              	CHANNEL_OFFSET_TAB:
  25 0000 081C3044 		.ascii	"\010\0340DXl\200"
  25      586C80
  26              		.section	.bss.GyroscopeDrv,"aw",%nobits
  27              		.align	2
  30              	GyroscopeDrv:
  31 0000 00000000 		.space	4
  32              		.section	.text.BSP_GYRO_Init,"ax",%progbits
  33              		.align	1
  34              		.global	BSP_GYRO_Init
  35              		.syntax unified
  36              		.thumb
  37              		.thumb_func
  39              	BSP_GYRO_Init:
  40              	.LFB445:
   1:Drivers/BSP/B-L475E-IOT01/stm32l475e_iot01_gyro.c **** /**
   2:Drivers/BSP/B-L475E-IOT01/stm32l475e_iot01_gyro.c ****   ******************************************************************************
   3:Drivers/BSP/B-L475E-IOT01/stm32l475e_iot01_gyro.c ****   * @file    stm32l475e_iot01_gyro.c
   4:Drivers/BSP/B-L475E-IOT01/stm32l475e_iot01_gyro.c ****   * @author  MCD Application Team
   5:Drivers/BSP/B-L475E-IOT01/stm32l475e_iot01_gyro.c ****   * @brief   This file provides a set of functions needed to manage the gyroscope sensor
   6:Drivers/BSP/B-L475E-IOT01/stm32l475e_iot01_gyro.c ****   ******************************************************************************
   7:Drivers/BSP/B-L475E-IOT01/stm32l475e_iot01_gyro.c ****   * @attention
   8:Drivers/BSP/B-L475E-IOT01/stm32l475e_iot01_gyro.c ****   *
   9:Drivers/BSP/B-L475E-IOT01/stm32l475e_iot01_gyro.c ****   * Copyright (c) 2017 STMicroelectronics.
  10:Drivers/BSP/B-L475E-IOT01/stm32l475e_iot01_gyro.c ****   * All rights reserved.
  11:Drivers/BSP/B-L475E-IOT01/stm32l475e_iot01_gyro.c ****   *
  12:Drivers/BSP/B-L475E-IOT01/stm32l475e_iot01_gyro.c ****   * This software is licensed under terms that can be found in the LICENSE file
  13:Drivers/BSP/B-L475E-IOT01/stm32l475e_iot01_gyro.c ****   * in the root directory of this software component.
  14:Drivers/BSP/B-L475E-IOT01/stm32l475e_iot01_gyro.c ****   * If no LICENSE file comes with this software, it is provided AS-IS.
  15:Drivers/BSP/B-L475E-IOT01/stm32l475e_iot01_gyro.c ****   *
  16:Drivers/BSP/B-L475E-IOT01/stm32l475e_iot01_gyro.c ****   ******************************************************************************
  17:Drivers/BSP/B-L475E-IOT01/stm32l475e_iot01_gyro.c ****   */
  18:Drivers/BSP/B-L475E-IOT01/stm32l475e_iot01_gyro.c **** 
  19:Drivers/BSP/B-L475E-IOT01/stm32l475e_iot01_gyro.c **** /* Includes ------------------------------------------------------------------*/
  20:Drivers/BSP/B-L475E-IOT01/stm32l475e_iot01_gyro.c **** #include "stm32l475e_iot01_gyro.h"
  21:Drivers/BSP/B-L475E-IOT01/stm32l475e_iot01_gyro.c **** 
ARM GAS  /tmp/ccfK0n0F.s 			page 2


  22:Drivers/BSP/B-L475E-IOT01/stm32l475e_iot01_gyro.c **** /** @addtogroup BSP
  23:Drivers/BSP/B-L475E-IOT01/stm32l475e_iot01_gyro.c ****   * @{
  24:Drivers/BSP/B-L475E-IOT01/stm32l475e_iot01_gyro.c ****   */
  25:Drivers/BSP/B-L475E-IOT01/stm32l475e_iot01_gyro.c **** 
  26:Drivers/BSP/B-L475E-IOT01/stm32l475e_iot01_gyro.c **** /** @addtogroup STM32L475E_IOT01
  27:Drivers/BSP/B-L475E-IOT01/stm32l475e_iot01_gyro.c ****   * @{
  28:Drivers/BSP/B-L475E-IOT01/stm32l475e_iot01_gyro.c ****   */
  29:Drivers/BSP/B-L475E-IOT01/stm32l475e_iot01_gyro.c ****       
  30:Drivers/BSP/B-L475E-IOT01/stm32l475e_iot01_gyro.c **** /** @defgroup STM32L475E_IOT01_GYROSCOPE GYROSCOPE
  31:Drivers/BSP/B-L475E-IOT01/stm32l475e_iot01_gyro.c ****   * @{
  32:Drivers/BSP/B-L475E-IOT01/stm32l475e_iot01_gyro.c ****   */ 
  33:Drivers/BSP/B-L475E-IOT01/stm32l475e_iot01_gyro.c **** 
  34:Drivers/BSP/B-L475E-IOT01/stm32l475e_iot01_gyro.c **** /** @defgroup STM32L475E_IOT01_GYROSCOPE_Private_Variables GYROSCOPE Private Variables
  35:Drivers/BSP/B-L475E-IOT01/stm32l475e_iot01_gyro.c ****   * @{
  36:Drivers/BSP/B-L475E-IOT01/stm32l475e_iot01_gyro.c ****   */
  37:Drivers/BSP/B-L475E-IOT01/stm32l475e_iot01_gyro.c **** static GYRO_DrvTypeDef *GyroscopeDrv;
  38:Drivers/BSP/B-L475E-IOT01/stm32l475e_iot01_gyro.c **** 
  39:Drivers/BSP/B-L475E-IOT01/stm32l475e_iot01_gyro.c **** /**
  40:Drivers/BSP/B-L475E-IOT01/stm32l475e_iot01_gyro.c ****   * @}
  41:Drivers/BSP/B-L475E-IOT01/stm32l475e_iot01_gyro.c ****   */
  42:Drivers/BSP/B-L475E-IOT01/stm32l475e_iot01_gyro.c **** 
  43:Drivers/BSP/B-L475E-IOT01/stm32l475e_iot01_gyro.c **** 
  44:Drivers/BSP/B-L475E-IOT01/stm32l475e_iot01_gyro.c **** /** @defgroup STM32L475E_IOT01_GYROSCOPE_Private_Functions GYROSCOPE Private Functions
  45:Drivers/BSP/B-L475E-IOT01/stm32l475e_iot01_gyro.c ****   * @{
  46:Drivers/BSP/B-L475E-IOT01/stm32l475e_iot01_gyro.c ****   */ 
  47:Drivers/BSP/B-L475E-IOT01/stm32l475e_iot01_gyro.c **** /**
  48:Drivers/BSP/B-L475E-IOT01/stm32l475e_iot01_gyro.c ****   * @brief  Initialize Gyroscope.
  49:Drivers/BSP/B-L475E-IOT01/stm32l475e_iot01_gyro.c ****   * @retval GYRO_OK or GYRO_ERROR
  50:Drivers/BSP/B-L475E-IOT01/stm32l475e_iot01_gyro.c ****   */
  51:Drivers/BSP/B-L475E-IOT01/stm32l475e_iot01_gyro.c **** uint8_t BSP_GYRO_Init(void)
  52:Drivers/BSP/B-L475E-IOT01/stm32l475e_iot01_gyro.c **** {  
  41              		.loc 1 52 1
  42              		.cfi_startproc
  43              		@ args = 0, pretend = 0, frame = 16
  44              		@ frame_needed = 1, uses_anonymous_args = 0
  45 0000 80B5     		push	{r7, lr}
  46              		.cfi_def_cfa_offset 8
  47              		.cfi_offset 7, -8
  48              		.cfi_offset 14, -4
  49 0002 84B0     		sub	sp, sp, #16
  50              		.cfi_def_cfa_offset 24
  51 0004 00AF     		add	r7, sp, #0
  52              		.cfi_def_cfa_register 7
  53:Drivers/BSP/B-L475E-IOT01/stm32l475e_iot01_gyro.c ****   uint8_t ret = GYRO_ERROR;
  53              		.loc 1 53 11
  54 0006 0123     		movs	r3, #1
  55 0008 FB73     		strb	r3, [r7, #15]
  54:Drivers/BSP/B-L475E-IOT01/stm32l475e_iot01_gyro.c ****   uint16_t ctrl = 0x0000;
  56              		.loc 1 54 12
  57 000a 0023     		movs	r3, #0
  58 000c BB81     		strh	r3, [r7, #12]	@ movhi
  55:Drivers/BSP/B-L475E-IOT01/stm32l475e_iot01_gyro.c ****   GYRO_InitTypeDef LSM6DSL_InitStructure;
  56:Drivers/BSP/B-L475E-IOT01/stm32l475e_iot01_gyro.c **** 
  57:Drivers/BSP/B-L475E-IOT01/stm32l475e_iot01_gyro.c ****   if(Lsm6dslGyroDrv.ReadID() != LSM6DSL_ACC_GYRO_WHO_AM_I)
  59              		.loc 1 57 20
  60 000e 1C4B     		ldr	r3, .L5
  61 0010 9B68     		ldr	r3, [r3, #8]
ARM GAS  /tmp/ccfK0n0F.s 			page 3


  62              		.loc 1 57 6
  63 0012 9847     		blx	r3
  64              	.LVL0:
  65 0014 0346     		mov	r3, r0
  66              		.loc 1 57 5 discriminator 1
  67 0016 6A2B     		cmp	r3, #106
  68 0018 02D0     		beq	.L2
  58:Drivers/BSP/B-L475E-IOT01/stm32l475e_iot01_gyro.c ****   {
  59:Drivers/BSP/B-L475E-IOT01/stm32l475e_iot01_gyro.c ****     ret = GYRO_ERROR;
  69              		.loc 1 59 9
  70 001a 0123     		movs	r3, #1
  71 001c FB73     		strb	r3, [r7, #15]
  72 001e 29E0     		b	.L3
  73              	.L2:
  60:Drivers/BSP/B-L475E-IOT01/stm32l475e_iot01_gyro.c ****   }
  61:Drivers/BSP/B-L475E-IOT01/stm32l475e_iot01_gyro.c ****   else
  62:Drivers/BSP/B-L475E-IOT01/stm32l475e_iot01_gyro.c ****   {
  63:Drivers/BSP/B-L475E-IOT01/stm32l475e_iot01_gyro.c ****     /* Initialize the gyroscope driver structure */
  64:Drivers/BSP/B-L475E-IOT01/stm32l475e_iot01_gyro.c ****     GyroscopeDrv = &Lsm6dslGyroDrv;
  74              		.loc 1 64 18
  75 0020 184B     		ldr	r3, .L5+4
  76 0022 174A     		ldr	r2, .L5
  77 0024 1A60     		str	r2, [r3]
  65:Drivers/BSP/B-L475E-IOT01/stm32l475e_iot01_gyro.c **** 
  66:Drivers/BSP/B-L475E-IOT01/stm32l475e_iot01_gyro.c ****     /* Configure Mems : data rate, power mode, full scale and axes */
  67:Drivers/BSP/B-L475E-IOT01/stm32l475e_iot01_gyro.c ****     LSM6DSL_InitStructure.Power_Mode = 0;
  78              		.loc 1 67 38
  79 0026 0023     		movs	r3, #0
  80 0028 3B71     		strb	r3, [r7, #4]
  68:Drivers/BSP/B-L475E-IOT01/stm32l475e_iot01_gyro.c ****     LSM6DSL_InitStructure.Output_DataRate = LSM6DSL_ODR_52Hz;
  81              		.loc 1 68 43
  82 002a 3023     		movs	r3, #48
  83 002c 7B71     		strb	r3, [r7, #5]
  69:Drivers/BSP/B-L475E-IOT01/stm32l475e_iot01_gyro.c ****     LSM6DSL_InitStructure.Axes_Enable = 0;
  84              		.loc 1 69 39
  85 002e 0023     		movs	r3, #0
  86 0030 BB71     		strb	r3, [r7, #6]
  70:Drivers/BSP/B-L475E-IOT01/stm32l475e_iot01_gyro.c ****     LSM6DSL_InitStructure.Band_Width = 0;
  87              		.loc 1 70 38
  88 0032 0023     		movs	r3, #0
  89 0034 FB71     		strb	r3, [r7, #7]
  71:Drivers/BSP/B-L475E-IOT01/stm32l475e_iot01_gyro.c ****     LSM6DSL_InitStructure.BlockData_Update = LSM6DSL_BDU_BLOCK_UPDATE;
  90              		.loc 1 71 44
  91 0036 4023     		movs	r3, #64
  92 0038 3B72     		strb	r3, [r7, #8]
  72:Drivers/BSP/B-L475E-IOT01/stm32l475e_iot01_gyro.c ****     LSM6DSL_InitStructure.Endianness = 0;
  93              		.loc 1 72 38
  94 003a 0023     		movs	r3, #0
  95 003c 7B72     		strb	r3, [r7, #9]
  73:Drivers/BSP/B-L475E-IOT01/stm32l475e_iot01_gyro.c ****     LSM6DSL_InitStructure.Full_Scale = LSM6DSL_GYRO_FS_2000; 
  96              		.loc 1 73 38
  97 003e 0C23     		movs	r3, #12
  98 0040 BB72     		strb	r3, [r7, #10]
  74:Drivers/BSP/B-L475E-IOT01/stm32l475e_iot01_gyro.c **** 
  75:Drivers/BSP/B-L475E-IOT01/stm32l475e_iot01_gyro.c ****     /* Configure MEMS: data rate, full scale  */
  76:Drivers/BSP/B-L475E-IOT01/stm32l475e_iot01_gyro.c ****     ctrl = (LSM6DSL_InitStructure.Full_Scale | LSM6DSL_InitStructure.Output_DataRate);
  99              		.loc 1 76 34
ARM GAS  /tmp/ccfK0n0F.s 			page 4


 100 0042 BA7A     		ldrb	r2, [r7, #10]	@ zero_extendqisi2
 101              		.loc 1 76 69
 102 0044 7B79     		ldrb	r3, [r7, #5]	@ zero_extendqisi2
 103              		.loc 1 76 10
 104 0046 1343     		orrs	r3, r3, r2
 105 0048 DBB2     		uxtb	r3, r3
 106 004a BB81     		strh	r3, [r7, #12]	@ movhi
  77:Drivers/BSP/B-L475E-IOT01/stm32l475e_iot01_gyro.c **** 
  78:Drivers/BSP/B-L475E-IOT01/stm32l475e_iot01_gyro.c ****     /* Configure MEMS: BDU and Auto-increment for multi read/write */
  79:Drivers/BSP/B-L475E-IOT01/stm32l475e_iot01_gyro.c ****     ctrl |= ((LSM6DSL_InitStructure.BlockData_Update | LSM6DSL_ACC_GYRO_IF_INC_ENABLED) << 8);
 107              		.loc 1 79 36
 108 004c 3B7A     		ldrb	r3, [r7, #8]	@ zero_extendqisi2
 109              		.loc 1 79 10
 110 004e 43F00403 		orr	r3, r3, #4
 111 0052 DBB2     		uxtb	r3, r3
 112 0054 1BB2     		sxth	r3, r3
 113 0056 1B02     		lsls	r3, r3, #8
 114 0058 1AB2     		sxth	r2, r3
 115 005a B7F90C30 		ldrsh	r3, [r7, #12]
 116 005e 1343     		orrs	r3, r3, r2
 117 0060 1BB2     		sxth	r3, r3
 118 0062 BB81     		strh	r3, [r7, #12]	@ movhi
  80:Drivers/BSP/B-L475E-IOT01/stm32l475e_iot01_gyro.c **** 
  81:Drivers/BSP/B-L475E-IOT01/stm32l475e_iot01_gyro.c ****     /* Initialize component */
  82:Drivers/BSP/B-L475E-IOT01/stm32l475e_iot01_gyro.c ****     GyroscopeDrv->Init(ctrl);
 119              		.loc 1 82 17
 120 0064 074B     		ldr	r3, .L5+4
 121 0066 1B68     		ldr	r3, [r3]
 122 0068 1B68     		ldr	r3, [r3]
 123              		.loc 1 82 5
 124 006a BA89     		ldrh	r2, [r7, #12]
 125 006c 1046     		mov	r0, r2
 126 006e 9847     		blx	r3
 127              	.LVL1:
  83:Drivers/BSP/B-L475E-IOT01/stm32l475e_iot01_gyro.c ****     
  84:Drivers/BSP/B-L475E-IOT01/stm32l475e_iot01_gyro.c ****     ret = GYRO_OK;
 128              		.loc 1 84 9
 129 0070 0023     		movs	r3, #0
 130 0072 FB73     		strb	r3, [r7, #15]
 131              	.L3:
  85:Drivers/BSP/B-L475E-IOT01/stm32l475e_iot01_gyro.c ****   }
  86:Drivers/BSP/B-L475E-IOT01/stm32l475e_iot01_gyro.c ****   
  87:Drivers/BSP/B-L475E-IOT01/stm32l475e_iot01_gyro.c ****   return ret;
 132              		.loc 1 87 10
 133 0074 FB7B     		ldrb	r3, [r7, #15]	@ zero_extendqisi2
  88:Drivers/BSP/B-L475E-IOT01/stm32l475e_iot01_gyro.c **** }
 134              		.loc 1 88 1
 135 0076 1846     		mov	r0, r3
 136 0078 1037     		adds	r7, r7, #16
 137              		.cfi_def_cfa_offset 8
 138 007a BD46     		mov	sp, r7
 139              		.cfi_def_cfa_register 13
 140              		@ sp needed
 141 007c 80BD     		pop	{r7, pc}
 142              	.L6:
 143 007e 00BF     		.align	2
 144              	.L5:
ARM GAS  /tmp/ccfK0n0F.s 			page 5


 145 0080 00000000 		.word	Lsm6dslGyroDrv
 146 0084 00000000 		.word	GyroscopeDrv
 147              		.cfi_endproc
 148              	.LFE445:
 150              		.section	.text.BSP_GYRO_DeInit,"ax",%progbits
 151              		.align	1
 152              		.global	BSP_GYRO_DeInit
 153              		.syntax unified
 154              		.thumb
 155              		.thumb_func
 157              	BSP_GYRO_DeInit:
 158              	.LFB446:
  89:Drivers/BSP/B-L475E-IOT01/stm32l475e_iot01_gyro.c **** 
  90:Drivers/BSP/B-L475E-IOT01/stm32l475e_iot01_gyro.c **** 
  91:Drivers/BSP/B-L475E-IOT01/stm32l475e_iot01_gyro.c **** /**
  92:Drivers/BSP/B-L475E-IOT01/stm32l475e_iot01_gyro.c ****   * @brief  DeInitialize Gyroscope.
  93:Drivers/BSP/B-L475E-IOT01/stm32l475e_iot01_gyro.c ****   */
  94:Drivers/BSP/B-L475E-IOT01/stm32l475e_iot01_gyro.c **** void BSP_GYRO_DeInit(void)
  95:Drivers/BSP/B-L475E-IOT01/stm32l475e_iot01_gyro.c **** {
 159              		.loc 1 95 1
 160              		.cfi_startproc
 161              		@ args = 0, pretend = 0, frame = 0
 162              		@ frame_needed = 1, uses_anonymous_args = 0
 163 0000 80B5     		push	{r7, lr}
 164              		.cfi_def_cfa_offset 8
 165              		.cfi_offset 7, -8
 166              		.cfi_offset 14, -4
 167 0002 00AF     		add	r7, sp, #0
 168              		.cfi_def_cfa_register 7
  96:Drivers/BSP/B-L475E-IOT01/stm32l475e_iot01_gyro.c ****   /* DeInitialize the Gyroscope IO interfaces */
  97:Drivers/BSP/B-L475E-IOT01/stm32l475e_iot01_gyro.c ****   if(GyroscopeDrv != NULL)
 169              		.loc 1 97 19
 170 0004 074B     		ldr	r3, .L10
 171 0006 1B68     		ldr	r3, [r3]
 172              		.loc 1 97 5
 173 0008 002B     		cmp	r3, #0
 174 000a 08D0     		beq	.L9
  98:Drivers/BSP/B-L475E-IOT01/stm32l475e_iot01_gyro.c ****   {
  99:Drivers/BSP/B-L475E-IOT01/stm32l475e_iot01_gyro.c ****     if(GyroscopeDrv->DeInit!= NULL)
 175              		.loc 1 99 20
 176 000c 054B     		ldr	r3, .L10
 177 000e 1B68     		ldr	r3, [r3]
 178 0010 5B68     		ldr	r3, [r3, #4]
 179              		.loc 1 99 7
 180 0012 002B     		cmp	r3, #0
 181 0014 03D0     		beq	.L9
 100:Drivers/BSP/B-L475E-IOT01/stm32l475e_iot01_gyro.c ****     {
 101:Drivers/BSP/B-L475E-IOT01/stm32l475e_iot01_gyro.c ****       GyroscopeDrv->DeInit();
 182              		.loc 1 101 19
 183 0016 034B     		ldr	r3, .L10
 184 0018 1B68     		ldr	r3, [r3]
 185 001a 5B68     		ldr	r3, [r3, #4]
 186              		.loc 1 101 7
 187 001c 9847     		blx	r3
 188              	.LVL2:
 189              	.L9:
 102:Drivers/BSP/B-L475E-IOT01/stm32l475e_iot01_gyro.c ****     }
ARM GAS  /tmp/ccfK0n0F.s 			page 6


 103:Drivers/BSP/B-L475E-IOT01/stm32l475e_iot01_gyro.c ****   }
 104:Drivers/BSP/B-L475E-IOT01/stm32l475e_iot01_gyro.c **** }
 190              		.loc 1 104 1
 191 001e 00BF     		nop
 192 0020 80BD     		pop	{r7, pc}
 193              	.L11:
 194 0022 00BF     		.align	2
 195              	.L10:
 196 0024 00000000 		.word	GyroscopeDrv
 197              		.cfi_endproc
 198              	.LFE446:
 200              		.section	.text.BSP_GYRO_LowPower,"ax",%progbits
 201              		.align	1
 202              		.global	BSP_GYRO_LowPower
 203              		.syntax unified
 204              		.thumb
 205              		.thumb_func
 207              	BSP_GYRO_LowPower:
 208              	.LFB447:
 105:Drivers/BSP/B-L475E-IOT01/stm32l475e_iot01_gyro.c **** 
 106:Drivers/BSP/B-L475E-IOT01/stm32l475e_iot01_gyro.c **** 
 107:Drivers/BSP/B-L475E-IOT01/stm32l475e_iot01_gyro.c **** /**
 108:Drivers/BSP/B-L475E-IOT01/stm32l475e_iot01_gyro.c ****   * @brief  Set/Unset Gyroscope in low power mode.
 109:Drivers/BSP/B-L475E-IOT01/stm32l475e_iot01_gyro.c ****   * @param  status 0 means disable Low Power Mode, otherwise Low Power Mode is enabled
 110:Drivers/BSP/B-L475E-IOT01/stm32l475e_iot01_gyro.c ****   */
 111:Drivers/BSP/B-L475E-IOT01/stm32l475e_iot01_gyro.c **** void BSP_GYRO_LowPower(uint16_t status)
 112:Drivers/BSP/B-L475E-IOT01/stm32l475e_iot01_gyro.c **** {
 209              		.loc 1 112 1
 210              		.cfi_startproc
 211              		@ args = 0, pretend = 0, frame = 8
 212              		@ frame_needed = 1, uses_anonymous_args = 0
 213 0000 80B5     		push	{r7, lr}
 214              		.cfi_def_cfa_offset 8
 215              		.cfi_offset 7, -8
 216              		.cfi_offset 14, -4
 217 0002 82B0     		sub	sp, sp, #8
 218              		.cfi_def_cfa_offset 16
 219 0004 00AF     		add	r7, sp, #0
 220              		.cfi_def_cfa_register 7
 221 0006 0346     		mov	r3, r0
 222 0008 FB80     		strh	r3, [r7, #6]	@ movhi
 113:Drivers/BSP/B-L475E-IOT01/stm32l475e_iot01_gyro.c ****   /* Set/Unset component in low-power mode */
 114:Drivers/BSP/B-L475E-IOT01/stm32l475e_iot01_gyro.c ****   if(GyroscopeDrv != NULL)
 223              		.loc 1 114 19
 224 000a 094B     		ldr	r3, .L15
 225 000c 1B68     		ldr	r3, [r3]
 226              		.loc 1 114 5
 227 000e 002B     		cmp	r3, #0
 228 0010 0AD0     		beq	.L14
 115:Drivers/BSP/B-L475E-IOT01/stm32l475e_iot01_gyro.c ****   {
 116:Drivers/BSP/B-L475E-IOT01/stm32l475e_iot01_gyro.c ****     if(GyroscopeDrv->LowPower!= NULL)
 229              		.loc 1 116 20
 230 0012 074B     		ldr	r3, .L15
 231 0014 1B68     		ldr	r3, [r3]
 232 0016 1B69     		ldr	r3, [r3, #16]
 233              		.loc 1 116 7
 234 0018 002B     		cmp	r3, #0
ARM GAS  /tmp/ccfK0n0F.s 			page 7


 235 001a 05D0     		beq	.L14
 117:Drivers/BSP/B-L475E-IOT01/stm32l475e_iot01_gyro.c ****     {
 118:Drivers/BSP/B-L475E-IOT01/stm32l475e_iot01_gyro.c ****       GyroscopeDrv->LowPower(status);
 236              		.loc 1 118 19
 237 001c 044B     		ldr	r3, .L15
 238 001e 1B68     		ldr	r3, [r3]
 239 0020 1B69     		ldr	r3, [r3, #16]
 240              		.loc 1 118 7
 241 0022 FA88     		ldrh	r2, [r7, #6]
 242 0024 1046     		mov	r0, r2
 243 0026 9847     		blx	r3
 244              	.LVL3:
 245              	.L14:
 119:Drivers/BSP/B-L475E-IOT01/stm32l475e_iot01_gyro.c ****     }
 120:Drivers/BSP/B-L475E-IOT01/stm32l475e_iot01_gyro.c ****   }
 121:Drivers/BSP/B-L475E-IOT01/stm32l475e_iot01_gyro.c **** }
 246              		.loc 1 121 1
 247 0028 00BF     		nop
 248 002a 0837     		adds	r7, r7, #8
 249              		.cfi_def_cfa_offset 8
 250 002c BD46     		mov	sp, r7
 251              		.cfi_def_cfa_register 13
 252              		@ sp needed
 253 002e 80BD     		pop	{r7, pc}
 254              	.L16:
 255              		.align	2
 256              	.L15:
 257 0030 00000000 		.word	GyroscopeDrv
 258              		.cfi_endproc
 259              	.LFE447:
 261              		.section	.text.BSP_GYRO_GetXYZ,"ax",%progbits
 262              		.align	1
 263              		.global	BSP_GYRO_GetXYZ
 264              		.syntax unified
 265              		.thumb
 266              		.thumb_func
 268              	BSP_GYRO_GetXYZ:
 269              	.LFB448:
 122:Drivers/BSP/B-L475E-IOT01/stm32l475e_iot01_gyro.c **** 
 123:Drivers/BSP/B-L475E-IOT01/stm32l475e_iot01_gyro.c **** /**
 124:Drivers/BSP/B-L475E-IOT01/stm32l475e_iot01_gyro.c ****   * @brief  Get XYZ angular acceleration from the Gyroscope.
 125:Drivers/BSP/B-L475E-IOT01/stm32l475e_iot01_gyro.c ****   * @param  pfData: pointer on floating array         
 126:Drivers/BSP/B-L475E-IOT01/stm32l475e_iot01_gyro.c ****   */
 127:Drivers/BSP/B-L475E-IOT01/stm32l475e_iot01_gyro.c **** void BSP_GYRO_GetXYZ(float* pfData)
 128:Drivers/BSP/B-L475E-IOT01/stm32l475e_iot01_gyro.c **** {
 270              		.loc 1 128 1
 271              		.cfi_startproc
 272              		@ args = 0, pretend = 0, frame = 8
 273              		@ frame_needed = 1, uses_anonymous_args = 0
 274 0000 80B5     		push	{r7, lr}
 275              		.cfi_def_cfa_offset 8
 276              		.cfi_offset 7, -8
 277              		.cfi_offset 14, -4
 278 0002 82B0     		sub	sp, sp, #8
 279              		.cfi_def_cfa_offset 16
 280 0004 00AF     		add	r7, sp, #0
 281              		.cfi_def_cfa_register 7
ARM GAS  /tmp/ccfK0n0F.s 			page 8


 282 0006 7860     		str	r0, [r7, #4]
 129:Drivers/BSP/B-L475E-IOT01/stm32l475e_iot01_gyro.c ****   if(GyroscopeDrv != NULL)
 283              		.loc 1 129 19
 284 0008 084B     		ldr	r3, .L20
 285 000a 1B68     		ldr	r3, [r3]
 286              		.loc 1 129 5
 287 000c 002B     		cmp	r3, #0
 288 000e 09D0     		beq	.L19
 130:Drivers/BSP/B-L475E-IOT01/stm32l475e_iot01_gyro.c ****   {
 131:Drivers/BSP/B-L475E-IOT01/stm32l475e_iot01_gyro.c ****     if(GyroscopeDrv->GetXYZ!= NULL)
 289              		.loc 1 131 20
 290 0010 064B     		ldr	r3, .L20
 291 0012 1B68     		ldr	r3, [r3]
 292 0014 1B6B     		ldr	r3, [r3, #48]
 293              		.loc 1 131 7
 294 0016 002B     		cmp	r3, #0
 295 0018 04D0     		beq	.L19
 132:Drivers/BSP/B-L475E-IOT01/stm32l475e_iot01_gyro.c ****     {
 133:Drivers/BSP/B-L475E-IOT01/stm32l475e_iot01_gyro.c ****       GyroscopeDrv->GetXYZ(pfData);
 296              		.loc 1 133 19
 297 001a 044B     		ldr	r3, .L20
 298 001c 1B68     		ldr	r3, [r3]
 299 001e 1B6B     		ldr	r3, [r3, #48]
 300              		.loc 1 133 7
 301 0020 7868     		ldr	r0, [r7, #4]
 302 0022 9847     		blx	r3
 303              	.LVL4:
 304              	.L19:
 134:Drivers/BSP/B-L475E-IOT01/stm32l475e_iot01_gyro.c ****     }
 135:Drivers/BSP/B-L475E-IOT01/stm32l475e_iot01_gyro.c ****   }
 136:Drivers/BSP/B-L475E-IOT01/stm32l475e_iot01_gyro.c **** }
 305              		.loc 1 136 1
 306 0024 00BF     		nop
 307 0026 0837     		adds	r7, r7, #8
 308              		.cfi_def_cfa_offset 8
 309 0028 BD46     		mov	sp, r7
 310              		.cfi_def_cfa_register 13
 311              		@ sp needed
 312 002a 80BD     		pop	{r7, pc}
 313              	.L21:
 314              		.align	2
 315              	.L20:
 316 002c 00000000 		.word	GyroscopeDrv
 317              		.cfi_endproc
 318              	.LFE448:
 320              		.text
 321              	.Letext0:
 322              		.file 2 "/usr/lib/gcc/arm-none-eabi/13.2.1/include/stdint.h"
 323              		.file 3 "Drivers/BSP/B-L475E-IOT01/../Components/lsm6dsl/../Common/gyro.h"
 324              		.file 4 "Drivers/STM32L4xx_HAL_Driver/Inc/stm32l4xx_ll_dma.h"
 325              		.file 5 "Drivers/BSP/B-L475E-IOT01/../Components/lsm6dsl/lsm6dsl.h"
 326              		.file 6 "Drivers/BSP/B-L475E-IOT01/stm32l475e_iot01_gyro.h"
ARM GAS  /tmp/ccfK0n0F.s 			page 9

