ARM GAS  /tmp/ccrDNuCE.s 			page 1


   1              		.cpu cortex-m4
   2              		.arch armv7e-m
   3              		.fpu fpv4-sp-d16
   4              		.eabi_attribute 27, 1
   5              		.eabi_attribute 28, 1
   6              		.eabi_attribute 20, 1
   7              		.eabi_attribute 21, 1
   8              		.eabi_attribute 23, 3
   9              		.eabi_attribute 24, 1
  10              		.eabi_attribute 25, 1
  11              		.eabi_attribute 26, 1
  12              		.eabi_attribute 30, 6
  13              		.eabi_attribute 34, 1
  14              		.eabi_attribute 18, 4
  15              		.file	"stm32l4xx_hal_dfsdm.c"
  16              		.text
  17              	.Ltext0:
  18              		.cfi_sections	.debug_frame
  19              		.file 1 "Drivers/STM32L4xx_HAL_Driver/Src/stm32l4xx_hal_dfsdm.c"
  20              		.section	.rodata.CHANNEL_OFFSET_TAB,"a"
  21              		.align	2
  24              	CHANNEL_OFFSET_TAB:
  25 0000 081C3044 		.ascii	"\010\0340DXl\200"
  25      586C80
  26              		.section	.bss.v_dfsdm1ChannelCounter,"aw",%nobits
  27              		.align	2
  30              	v_dfsdm1ChannelCounter:
  31 0000 00000000 		.space	4
  32              		.section	.bss.a_dfsdm1ChannelHandle,"aw",%nobits
  33              		.align	2
  36              	a_dfsdm1ChannelHandle:
  37 0000 00000000 		.space	32
  37      00000000 
  37      00000000 
  37      00000000 
  37      00000000 
  38              		.section	.text.HAL_DFSDM_ChannelInit,"ax",%progbits
  39              		.align	1
  40              		.global	HAL_DFSDM_ChannelInit
  41              		.syntax unified
  42              		.thumb
  43              		.thumb_func
  45              	HAL_DFSDM_ChannelInit:
  46              	.LFB445:
   1:Drivers/STM32L4xx_HAL_Driver/Src/stm32l4xx_hal_dfsdm.c **** /**
   2:Drivers/STM32L4xx_HAL_Driver/Src/stm32l4xx_hal_dfsdm.c ****   ******************************************************************************
   3:Drivers/STM32L4xx_HAL_Driver/Src/stm32l4xx_hal_dfsdm.c ****   * @file    stm32l4xx_hal_dfsdm.c
   4:Drivers/STM32L4xx_HAL_Driver/Src/stm32l4xx_hal_dfsdm.c ****   * @author  MCD Application Team
   5:Drivers/STM32L4xx_HAL_Driver/Src/stm32l4xx_hal_dfsdm.c ****   * @brief   This file provides firmware functions to manage the following
   6:Drivers/STM32L4xx_HAL_Driver/Src/stm32l4xx_hal_dfsdm.c ****   *          functionalities of the Digital Filter for Sigma-Delta Modulators
   7:Drivers/STM32L4xx_HAL_Driver/Src/stm32l4xx_hal_dfsdm.c ****   *          (DFSDM) peripherals:
   8:Drivers/STM32L4xx_HAL_Driver/Src/stm32l4xx_hal_dfsdm.c ****   *           + Initialization and configuration of channels and filters
   9:Drivers/STM32L4xx_HAL_Driver/Src/stm32l4xx_hal_dfsdm.c ****   *           + Regular channels configuration
  10:Drivers/STM32L4xx_HAL_Driver/Src/stm32l4xx_hal_dfsdm.c ****   *           + Injected channels configuration
  11:Drivers/STM32L4xx_HAL_Driver/Src/stm32l4xx_hal_dfsdm.c ****   *           + Regular/Injected Channels DMA Configuration
  12:Drivers/STM32L4xx_HAL_Driver/Src/stm32l4xx_hal_dfsdm.c ****   *           + Interrupts and flags management
  13:Drivers/STM32L4xx_HAL_Driver/Src/stm32l4xx_hal_dfsdm.c ****   *           + Analog watchdog feature
ARM GAS  /tmp/ccrDNuCE.s 			page 2


  14:Drivers/STM32L4xx_HAL_Driver/Src/stm32l4xx_hal_dfsdm.c ****   *           + Short-circuit detector feature
  15:Drivers/STM32L4xx_HAL_Driver/Src/stm32l4xx_hal_dfsdm.c ****   *           + Extremes detector feature
  16:Drivers/STM32L4xx_HAL_Driver/Src/stm32l4xx_hal_dfsdm.c ****   *           + Clock absence detector feature
  17:Drivers/STM32L4xx_HAL_Driver/Src/stm32l4xx_hal_dfsdm.c ****   *           + Break generation on analog watchdog or short-circuit event
  18:Drivers/STM32L4xx_HAL_Driver/Src/stm32l4xx_hal_dfsdm.c ****   *
  19:Drivers/STM32L4xx_HAL_Driver/Src/stm32l4xx_hal_dfsdm.c ****   ******************************************************************************
  20:Drivers/STM32L4xx_HAL_Driver/Src/stm32l4xx_hal_dfsdm.c ****   * @attention
  21:Drivers/STM32L4xx_HAL_Driver/Src/stm32l4xx_hal_dfsdm.c ****   *
  22:Drivers/STM32L4xx_HAL_Driver/Src/stm32l4xx_hal_dfsdm.c ****   * Copyright (c) 2017 STMicroelectronics.
  23:Drivers/STM32L4xx_HAL_Driver/Src/stm32l4xx_hal_dfsdm.c ****   * All rights reserved.
  24:Drivers/STM32L4xx_HAL_Driver/Src/stm32l4xx_hal_dfsdm.c ****   *
  25:Drivers/STM32L4xx_HAL_Driver/Src/stm32l4xx_hal_dfsdm.c ****   * This software is licensed under terms that can be found in the LICENSE file
  26:Drivers/STM32L4xx_HAL_Driver/Src/stm32l4xx_hal_dfsdm.c ****   * in the root directory of this software component.
  27:Drivers/STM32L4xx_HAL_Driver/Src/stm32l4xx_hal_dfsdm.c ****   * If no LICENSE file comes with this software, it is provided AS-IS.
  28:Drivers/STM32L4xx_HAL_Driver/Src/stm32l4xx_hal_dfsdm.c ****   *
  29:Drivers/STM32L4xx_HAL_Driver/Src/stm32l4xx_hal_dfsdm.c ****   ******************************************************************************
  30:Drivers/STM32L4xx_HAL_Driver/Src/stm32l4xx_hal_dfsdm.c ****   @verbatim
  31:Drivers/STM32L4xx_HAL_Driver/Src/stm32l4xx_hal_dfsdm.c ****   ==============================================================================
  32:Drivers/STM32L4xx_HAL_Driver/Src/stm32l4xx_hal_dfsdm.c ****                      ##### How to use this driver #####
  33:Drivers/STM32L4xx_HAL_Driver/Src/stm32l4xx_hal_dfsdm.c ****   ==============================================================================
  34:Drivers/STM32L4xx_HAL_Driver/Src/stm32l4xx_hal_dfsdm.c ****   [..]
  35:Drivers/STM32L4xx_HAL_Driver/Src/stm32l4xx_hal_dfsdm.c ****     *** Channel initialization ***
  36:Drivers/STM32L4xx_HAL_Driver/Src/stm32l4xx_hal_dfsdm.c ****     ==============================
  37:Drivers/STM32L4xx_HAL_Driver/Src/stm32l4xx_hal_dfsdm.c ****     [..]
  38:Drivers/STM32L4xx_HAL_Driver/Src/stm32l4xx_hal_dfsdm.c ****       (#) User has first to initialize channels (before filters initialization).
  39:Drivers/STM32L4xx_HAL_Driver/Src/stm32l4xx_hal_dfsdm.c ****       (#) As prerequisite, fill in the HAL_DFSDM_ChannelMspInit() :
  40:Drivers/STM32L4xx_HAL_Driver/Src/stm32l4xx_hal_dfsdm.c ****         (++) Enable DFSDMz clock interface with __HAL_RCC_DFSDMz_CLK_ENABLE().
  41:Drivers/STM32L4xx_HAL_Driver/Src/stm32l4xx_hal_dfsdm.c ****         (++) Enable the clocks for the DFSDMz GPIOS with __HAL_RCC_GPIOx_CLK_ENABLE().
  42:Drivers/STM32L4xx_HAL_Driver/Src/stm32l4xx_hal_dfsdm.c ****         (++) Configure these DFSDMz pins in alternate mode using HAL_GPIO_Init().
  43:Drivers/STM32L4xx_HAL_Driver/Src/stm32l4xx_hal_dfsdm.c ****         (++) If interrupt mode is used, enable and configure DFSDMz_FLT0 global
  44:Drivers/STM32L4xx_HAL_Driver/Src/stm32l4xx_hal_dfsdm.c ****             interrupt with HAL_NVIC_SetPriority() and HAL_NVIC_EnableIRQ().
  45:Drivers/STM32L4xx_HAL_Driver/Src/stm32l4xx_hal_dfsdm.c ****       (#) Configure the output clock, input, serial interface, analog watchdog,
  46:Drivers/STM32L4xx_HAL_Driver/Src/stm32l4xx_hal_dfsdm.c ****           offset and data right bit shift parameters for this channel using the
  47:Drivers/STM32L4xx_HAL_Driver/Src/stm32l4xx_hal_dfsdm.c ****           HAL_DFSDM_ChannelInit() function.
  48:Drivers/STM32L4xx_HAL_Driver/Src/stm32l4xx_hal_dfsdm.c **** 
  49:Drivers/STM32L4xx_HAL_Driver/Src/stm32l4xx_hal_dfsdm.c ****     *** Channel clock absence detector ***
  50:Drivers/STM32L4xx_HAL_Driver/Src/stm32l4xx_hal_dfsdm.c ****     ======================================
  51:Drivers/STM32L4xx_HAL_Driver/Src/stm32l4xx_hal_dfsdm.c ****     [..]
  52:Drivers/STM32L4xx_HAL_Driver/Src/stm32l4xx_hal_dfsdm.c ****       (#) Start clock absence detector using HAL_DFSDM_ChannelCkabStart() or
  53:Drivers/STM32L4xx_HAL_Driver/Src/stm32l4xx_hal_dfsdm.c ****           HAL_DFSDM_ChannelCkabStart_IT().
  54:Drivers/STM32L4xx_HAL_Driver/Src/stm32l4xx_hal_dfsdm.c ****       (#) In polling mode, use HAL_DFSDM_ChannelPollForCkab() to detect the clock
  55:Drivers/STM32L4xx_HAL_Driver/Src/stm32l4xx_hal_dfsdm.c ****           absence.
  56:Drivers/STM32L4xx_HAL_Driver/Src/stm32l4xx_hal_dfsdm.c ****       (#) In interrupt mode, HAL_DFSDM_ChannelCkabCallback() will be called if
  57:Drivers/STM32L4xx_HAL_Driver/Src/stm32l4xx_hal_dfsdm.c ****           clock absence is detected.
  58:Drivers/STM32L4xx_HAL_Driver/Src/stm32l4xx_hal_dfsdm.c ****       (#) Stop clock absence detector using HAL_DFSDM_ChannelCkabStop() or
  59:Drivers/STM32L4xx_HAL_Driver/Src/stm32l4xx_hal_dfsdm.c ****           HAL_DFSDM_ChannelCkabStop_IT().
  60:Drivers/STM32L4xx_HAL_Driver/Src/stm32l4xx_hal_dfsdm.c ****       (#) Please note that the same mode (polling or interrupt) has to be used
  61:Drivers/STM32L4xx_HAL_Driver/Src/stm32l4xx_hal_dfsdm.c ****           for all channels because the channels are sharing the same interrupt.
  62:Drivers/STM32L4xx_HAL_Driver/Src/stm32l4xx_hal_dfsdm.c ****       (#) Please note also that in interrupt mode, if clock absence detector is
  63:Drivers/STM32L4xx_HAL_Driver/Src/stm32l4xx_hal_dfsdm.c ****           stopped for one channel, interrupt will be disabled for all channels.
  64:Drivers/STM32L4xx_HAL_Driver/Src/stm32l4xx_hal_dfsdm.c **** 
  65:Drivers/STM32L4xx_HAL_Driver/Src/stm32l4xx_hal_dfsdm.c ****     *** Channel short circuit detector ***
  66:Drivers/STM32L4xx_HAL_Driver/Src/stm32l4xx_hal_dfsdm.c ****     ======================================
  67:Drivers/STM32L4xx_HAL_Driver/Src/stm32l4xx_hal_dfsdm.c ****     [..]
  68:Drivers/STM32L4xx_HAL_Driver/Src/stm32l4xx_hal_dfsdm.c ****       (#) Start short circuit detector using HAL_DFSDM_ChannelScdStart() or
  69:Drivers/STM32L4xx_HAL_Driver/Src/stm32l4xx_hal_dfsdm.c ****           or HAL_DFSDM_ChannelScdStart_IT().
  70:Drivers/STM32L4xx_HAL_Driver/Src/stm32l4xx_hal_dfsdm.c ****       (#) In polling mode, use HAL_DFSDM_ChannelPollForScd() to detect short
ARM GAS  /tmp/ccrDNuCE.s 			page 3


  71:Drivers/STM32L4xx_HAL_Driver/Src/stm32l4xx_hal_dfsdm.c ****           circuit.
  72:Drivers/STM32L4xx_HAL_Driver/Src/stm32l4xx_hal_dfsdm.c ****       (#) In interrupt mode, HAL_DFSDM_ChannelScdCallback() will be called if
  73:Drivers/STM32L4xx_HAL_Driver/Src/stm32l4xx_hal_dfsdm.c ****           short circuit is detected.
  74:Drivers/STM32L4xx_HAL_Driver/Src/stm32l4xx_hal_dfsdm.c ****       (#) Stop short circuit detector using HAL_DFSDM_ChannelScdStop() or
  75:Drivers/STM32L4xx_HAL_Driver/Src/stm32l4xx_hal_dfsdm.c ****           or HAL_DFSDM_ChannelScdStop_IT().
  76:Drivers/STM32L4xx_HAL_Driver/Src/stm32l4xx_hal_dfsdm.c ****       (#) Please note that the same mode (polling or interrupt) has to be used
  77:Drivers/STM32L4xx_HAL_Driver/Src/stm32l4xx_hal_dfsdm.c ****           for all channels because the channels are sharing the same interrupt.
  78:Drivers/STM32L4xx_HAL_Driver/Src/stm32l4xx_hal_dfsdm.c ****       (#) Please note also that in interrupt mode, if short circuit detector is
  79:Drivers/STM32L4xx_HAL_Driver/Src/stm32l4xx_hal_dfsdm.c ****           stopped for one channel, interrupt will be disabled for all channels.
  80:Drivers/STM32L4xx_HAL_Driver/Src/stm32l4xx_hal_dfsdm.c **** 
  81:Drivers/STM32L4xx_HAL_Driver/Src/stm32l4xx_hal_dfsdm.c ****     *** Channel analog watchdog value ***
  82:Drivers/STM32L4xx_HAL_Driver/Src/stm32l4xx_hal_dfsdm.c ****     =====================================
  83:Drivers/STM32L4xx_HAL_Driver/Src/stm32l4xx_hal_dfsdm.c ****     [..]
  84:Drivers/STM32L4xx_HAL_Driver/Src/stm32l4xx_hal_dfsdm.c ****       (#) Get analog watchdog filter value of a channel using
  85:Drivers/STM32L4xx_HAL_Driver/Src/stm32l4xx_hal_dfsdm.c ****           HAL_DFSDM_ChannelGetAwdValue().
  86:Drivers/STM32L4xx_HAL_Driver/Src/stm32l4xx_hal_dfsdm.c **** 
  87:Drivers/STM32L4xx_HAL_Driver/Src/stm32l4xx_hal_dfsdm.c ****     *** Channel offset value ***
  88:Drivers/STM32L4xx_HAL_Driver/Src/stm32l4xx_hal_dfsdm.c ****     =====================================
  89:Drivers/STM32L4xx_HAL_Driver/Src/stm32l4xx_hal_dfsdm.c ****     [..]
  90:Drivers/STM32L4xx_HAL_Driver/Src/stm32l4xx_hal_dfsdm.c ****       (#) Modify offset value of a channel using HAL_DFSDM_ChannelModifyOffset().
  91:Drivers/STM32L4xx_HAL_Driver/Src/stm32l4xx_hal_dfsdm.c **** 
  92:Drivers/STM32L4xx_HAL_Driver/Src/stm32l4xx_hal_dfsdm.c ****     *** Filter initialization ***
  93:Drivers/STM32L4xx_HAL_Driver/Src/stm32l4xx_hal_dfsdm.c ****     =============================
  94:Drivers/STM32L4xx_HAL_Driver/Src/stm32l4xx_hal_dfsdm.c ****     [..]
  95:Drivers/STM32L4xx_HAL_Driver/Src/stm32l4xx_hal_dfsdm.c ****       (#) After channel initialization, user has to init filters.
  96:Drivers/STM32L4xx_HAL_Driver/Src/stm32l4xx_hal_dfsdm.c ****       (#) As prerequisite, fill in the HAL_DFSDM_FilterMspInit() :
  97:Drivers/STM32L4xx_HAL_Driver/Src/stm32l4xx_hal_dfsdm.c ****         (++) If interrupt mode is used , enable and configure DFSDMz_FLTx global
  98:Drivers/STM32L4xx_HAL_Driver/Src/stm32l4xx_hal_dfsdm.c ****             interrupt with HAL_NVIC_SetPriority() and HAL_NVIC_EnableIRQ().
  99:Drivers/STM32L4xx_HAL_Driver/Src/stm32l4xx_hal_dfsdm.c ****             Please note that DFSDMz_FLT0 global interrupt could be already
 100:Drivers/STM32L4xx_HAL_Driver/Src/stm32l4xx_hal_dfsdm.c ****             enabled if interrupt is used for channel.
 101:Drivers/STM32L4xx_HAL_Driver/Src/stm32l4xx_hal_dfsdm.c ****         (++) If DMA mode is used, configure DMA with HAL_DMA_Init() and link it
 102:Drivers/STM32L4xx_HAL_Driver/Src/stm32l4xx_hal_dfsdm.c ****             with DFSDMz filter handle using __HAL_LINKDMA().
 103:Drivers/STM32L4xx_HAL_Driver/Src/stm32l4xx_hal_dfsdm.c ****       (#) Configure the regular conversion, injected conversion and filter
 104:Drivers/STM32L4xx_HAL_Driver/Src/stm32l4xx_hal_dfsdm.c ****           parameters for this filter using the HAL_DFSDM_FilterInit() function.
 105:Drivers/STM32L4xx_HAL_Driver/Src/stm32l4xx_hal_dfsdm.c **** 
 106:Drivers/STM32L4xx_HAL_Driver/Src/stm32l4xx_hal_dfsdm.c ****     *** Filter regular channel conversion ***
 107:Drivers/STM32L4xx_HAL_Driver/Src/stm32l4xx_hal_dfsdm.c ****     =========================================
 108:Drivers/STM32L4xx_HAL_Driver/Src/stm32l4xx_hal_dfsdm.c ****     [..]
 109:Drivers/STM32L4xx_HAL_Driver/Src/stm32l4xx_hal_dfsdm.c ****       (#) Select regular channel and enable/disable continuous mode using
 110:Drivers/STM32L4xx_HAL_Driver/Src/stm32l4xx_hal_dfsdm.c ****           HAL_DFSDM_FilterConfigRegChannel().
 111:Drivers/STM32L4xx_HAL_Driver/Src/stm32l4xx_hal_dfsdm.c ****       (#) Start regular conversion using HAL_DFSDM_FilterRegularStart(),
 112:Drivers/STM32L4xx_HAL_Driver/Src/stm32l4xx_hal_dfsdm.c ****           HAL_DFSDM_FilterRegularStart_IT(), HAL_DFSDM_FilterRegularStart_DMA() or
 113:Drivers/STM32L4xx_HAL_Driver/Src/stm32l4xx_hal_dfsdm.c ****           HAL_DFSDM_FilterRegularMsbStart_DMA().
 114:Drivers/STM32L4xx_HAL_Driver/Src/stm32l4xx_hal_dfsdm.c ****       (#) In polling mode, use HAL_DFSDM_FilterPollForRegConversion() to detect
 115:Drivers/STM32L4xx_HAL_Driver/Src/stm32l4xx_hal_dfsdm.c ****           the end of regular conversion.
 116:Drivers/STM32L4xx_HAL_Driver/Src/stm32l4xx_hal_dfsdm.c ****       (#) In interrupt mode, HAL_DFSDM_FilterRegConvCpltCallback() will be called
 117:Drivers/STM32L4xx_HAL_Driver/Src/stm32l4xx_hal_dfsdm.c ****           at the end of regular conversion.
 118:Drivers/STM32L4xx_HAL_Driver/Src/stm32l4xx_hal_dfsdm.c ****       (#) Get value of regular conversion and corresponding channel using
 119:Drivers/STM32L4xx_HAL_Driver/Src/stm32l4xx_hal_dfsdm.c ****           HAL_DFSDM_FilterGetRegularValue().
 120:Drivers/STM32L4xx_HAL_Driver/Src/stm32l4xx_hal_dfsdm.c ****       (#) In DMA mode, HAL_DFSDM_FilterRegConvHalfCpltCallback() and
 121:Drivers/STM32L4xx_HAL_Driver/Src/stm32l4xx_hal_dfsdm.c ****           HAL_DFSDM_FilterRegConvCpltCallback() will be called respectively at the
 122:Drivers/STM32L4xx_HAL_Driver/Src/stm32l4xx_hal_dfsdm.c ****           half transfer and at the transfer complete. Please note that
 123:Drivers/STM32L4xx_HAL_Driver/Src/stm32l4xx_hal_dfsdm.c ****           HAL_DFSDM_FilterRegConvHalfCpltCallback() will be called only in DMA
 124:Drivers/STM32L4xx_HAL_Driver/Src/stm32l4xx_hal_dfsdm.c ****           circular mode.
 125:Drivers/STM32L4xx_HAL_Driver/Src/stm32l4xx_hal_dfsdm.c ****       (#) Stop regular conversion using HAL_DFSDM_FilterRegularStop(),
 126:Drivers/STM32L4xx_HAL_Driver/Src/stm32l4xx_hal_dfsdm.c ****           HAL_DFSDM_FilterRegularStop_IT() or HAL_DFSDM_FilterRegularStop_DMA().
 127:Drivers/STM32L4xx_HAL_Driver/Src/stm32l4xx_hal_dfsdm.c **** 
ARM GAS  /tmp/ccrDNuCE.s 			page 4


 128:Drivers/STM32L4xx_HAL_Driver/Src/stm32l4xx_hal_dfsdm.c ****     *** Filter injected channels conversion ***
 129:Drivers/STM32L4xx_HAL_Driver/Src/stm32l4xx_hal_dfsdm.c ****     ===========================================
 130:Drivers/STM32L4xx_HAL_Driver/Src/stm32l4xx_hal_dfsdm.c ****     [..]
 131:Drivers/STM32L4xx_HAL_Driver/Src/stm32l4xx_hal_dfsdm.c ****       (#) Select injected channels using HAL_DFSDM_FilterConfigInjChannel().
 132:Drivers/STM32L4xx_HAL_Driver/Src/stm32l4xx_hal_dfsdm.c ****       (#) Start injected conversion using HAL_DFSDM_FilterInjectedStart(),
 133:Drivers/STM32L4xx_HAL_Driver/Src/stm32l4xx_hal_dfsdm.c ****           HAL_DFSDM_FilterInjectedStart_IT(), HAL_DFSDM_FilterInjectedStart_DMA() or
 134:Drivers/STM32L4xx_HAL_Driver/Src/stm32l4xx_hal_dfsdm.c ****           HAL_DFSDM_FilterInjectedMsbStart_DMA().
 135:Drivers/STM32L4xx_HAL_Driver/Src/stm32l4xx_hal_dfsdm.c ****       (#) In polling mode, use HAL_DFSDM_FilterPollForInjConversion() to detect
 136:Drivers/STM32L4xx_HAL_Driver/Src/stm32l4xx_hal_dfsdm.c ****           the end of injected conversion.
 137:Drivers/STM32L4xx_HAL_Driver/Src/stm32l4xx_hal_dfsdm.c ****       (#) In interrupt mode, HAL_DFSDM_FilterInjConvCpltCallback() will be called
 138:Drivers/STM32L4xx_HAL_Driver/Src/stm32l4xx_hal_dfsdm.c ****           at the end of injected conversion.
 139:Drivers/STM32L4xx_HAL_Driver/Src/stm32l4xx_hal_dfsdm.c ****       (#) Get value of injected conversion and corresponding channel using
 140:Drivers/STM32L4xx_HAL_Driver/Src/stm32l4xx_hal_dfsdm.c ****           HAL_DFSDM_FilterGetInjectedValue().
 141:Drivers/STM32L4xx_HAL_Driver/Src/stm32l4xx_hal_dfsdm.c ****       (#) In DMA mode, HAL_DFSDM_FilterInjConvHalfCpltCallback() and
 142:Drivers/STM32L4xx_HAL_Driver/Src/stm32l4xx_hal_dfsdm.c ****           HAL_DFSDM_FilterInjConvCpltCallback() will be called respectively at the
 143:Drivers/STM32L4xx_HAL_Driver/Src/stm32l4xx_hal_dfsdm.c ****           half transfer and at the transfer complete. Please note that
 144:Drivers/STM32L4xx_HAL_Driver/Src/stm32l4xx_hal_dfsdm.c ****           HAL_DFSDM_FilterInjConvCpltCallback() will be called only in DMA
 145:Drivers/STM32L4xx_HAL_Driver/Src/stm32l4xx_hal_dfsdm.c ****           circular mode.
 146:Drivers/STM32L4xx_HAL_Driver/Src/stm32l4xx_hal_dfsdm.c ****       (#) Stop injected conversion using HAL_DFSDM_FilterInjectedStop(),
 147:Drivers/STM32L4xx_HAL_Driver/Src/stm32l4xx_hal_dfsdm.c ****           HAL_DFSDM_FilterInjectedStop_IT() or HAL_DFSDM_FilterInjectedStop_DMA().
 148:Drivers/STM32L4xx_HAL_Driver/Src/stm32l4xx_hal_dfsdm.c **** 
 149:Drivers/STM32L4xx_HAL_Driver/Src/stm32l4xx_hal_dfsdm.c ****     *** Filter analog watchdog ***
 150:Drivers/STM32L4xx_HAL_Driver/Src/stm32l4xx_hal_dfsdm.c ****     ==============================
 151:Drivers/STM32L4xx_HAL_Driver/Src/stm32l4xx_hal_dfsdm.c ****     [..]
 152:Drivers/STM32L4xx_HAL_Driver/Src/stm32l4xx_hal_dfsdm.c ****       (#) Start filter analog watchdog using HAL_DFSDM_FilterAwdStart_IT().
 153:Drivers/STM32L4xx_HAL_Driver/Src/stm32l4xx_hal_dfsdm.c ****       (#) HAL_DFSDM_FilterAwdCallback() will be called if analog watchdog occurs.
 154:Drivers/STM32L4xx_HAL_Driver/Src/stm32l4xx_hal_dfsdm.c ****       (#) Stop filter analog watchdog using HAL_DFSDM_FilterAwdStop_IT().
 155:Drivers/STM32L4xx_HAL_Driver/Src/stm32l4xx_hal_dfsdm.c **** 
 156:Drivers/STM32L4xx_HAL_Driver/Src/stm32l4xx_hal_dfsdm.c ****     *** Filter extreme detector ***
 157:Drivers/STM32L4xx_HAL_Driver/Src/stm32l4xx_hal_dfsdm.c ****     ===============================
 158:Drivers/STM32L4xx_HAL_Driver/Src/stm32l4xx_hal_dfsdm.c ****     [..]
 159:Drivers/STM32L4xx_HAL_Driver/Src/stm32l4xx_hal_dfsdm.c ****       (#) Start filter extreme detector using HAL_DFSDM_FilterExdStart().
 160:Drivers/STM32L4xx_HAL_Driver/Src/stm32l4xx_hal_dfsdm.c ****       (#) Get extreme detector maximum value using HAL_DFSDM_FilterGetExdMaxValue().
 161:Drivers/STM32L4xx_HAL_Driver/Src/stm32l4xx_hal_dfsdm.c ****       (#) Get extreme detector minimum value using HAL_DFSDM_FilterGetExdMinValue().
 162:Drivers/STM32L4xx_HAL_Driver/Src/stm32l4xx_hal_dfsdm.c ****       (#) Start filter extreme detector using HAL_DFSDM_FilterExdStop().
 163:Drivers/STM32L4xx_HAL_Driver/Src/stm32l4xx_hal_dfsdm.c **** 
 164:Drivers/STM32L4xx_HAL_Driver/Src/stm32l4xx_hal_dfsdm.c ****     *** Filter conversion time ***
 165:Drivers/STM32L4xx_HAL_Driver/Src/stm32l4xx_hal_dfsdm.c ****     ==============================
 166:Drivers/STM32L4xx_HAL_Driver/Src/stm32l4xx_hal_dfsdm.c ****     [..]
 167:Drivers/STM32L4xx_HAL_Driver/Src/stm32l4xx_hal_dfsdm.c ****       (#) Get conversion time value using HAL_DFSDM_FilterGetConvTimeValue().
 168:Drivers/STM32L4xx_HAL_Driver/Src/stm32l4xx_hal_dfsdm.c **** 
 169:Drivers/STM32L4xx_HAL_Driver/Src/stm32l4xx_hal_dfsdm.c ****     *** Callback registration ***
 170:Drivers/STM32L4xx_HAL_Driver/Src/stm32l4xx_hal_dfsdm.c ****     =============================
 171:Drivers/STM32L4xx_HAL_Driver/Src/stm32l4xx_hal_dfsdm.c ****     [..]
 172:Drivers/STM32L4xx_HAL_Driver/Src/stm32l4xx_hal_dfsdm.c ****     The compilation define USE_HAL_DFSDM_REGISTER_CALLBACKS when set to 1
 173:Drivers/STM32L4xx_HAL_Driver/Src/stm32l4xx_hal_dfsdm.c ****     allows the user to configure dynamically the driver callbacks.
 174:Drivers/STM32L4xx_HAL_Driver/Src/stm32l4xx_hal_dfsdm.c ****     Use functions HAL_DFSDM_Channel_RegisterCallback(),
 175:Drivers/STM32L4xx_HAL_Driver/Src/stm32l4xx_hal_dfsdm.c ****     HAL_DFSDM_Filter_RegisterCallback() or
 176:Drivers/STM32L4xx_HAL_Driver/Src/stm32l4xx_hal_dfsdm.c ****     HAL_DFSDM_Filter_RegisterAwdCallback() to register a user callback.
 177:Drivers/STM32L4xx_HAL_Driver/Src/stm32l4xx_hal_dfsdm.c **** 
 178:Drivers/STM32L4xx_HAL_Driver/Src/stm32l4xx_hal_dfsdm.c ****     [..]
 179:Drivers/STM32L4xx_HAL_Driver/Src/stm32l4xx_hal_dfsdm.c ****     Function HAL_DFSDM_Channel_RegisterCallback() allows to register
 180:Drivers/STM32L4xx_HAL_Driver/Src/stm32l4xx_hal_dfsdm.c ****     following callbacks:
 181:Drivers/STM32L4xx_HAL_Driver/Src/stm32l4xx_hal_dfsdm.c ****       (+) CkabCallback      : DFSDM channel clock absence detection callback.
 182:Drivers/STM32L4xx_HAL_Driver/Src/stm32l4xx_hal_dfsdm.c ****       (+) ScdCallback       : DFSDM channel short circuit detection callback.
 183:Drivers/STM32L4xx_HAL_Driver/Src/stm32l4xx_hal_dfsdm.c ****       (+) MspInitCallback   : DFSDM channel MSP init callback.
 184:Drivers/STM32L4xx_HAL_Driver/Src/stm32l4xx_hal_dfsdm.c ****       (+) MspDeInitCallback : DFSDM channel MSP de-init callback.
ARM GAS  /tmp/ccrDNuCE.s 			page 5


 185:Drivers/STM32L4xx_HAL_Driver/Src/stm32l4xx_hal_dfsdm.c ****     [..]
 186:Drivers/STM32L4xx_HAL_Driver/Src/stm32l4xx_hal_dfsdm.c ****     This function takes as parameters the HAL peripheral handle, the Callback ID
 187:Drivers/STM32L4xx_HAL_Driver/Src/stm32l4xx_hal_dfsdm.c ****     and a pointer to the user callback function.
 188:Drivers/STM32L4xx_HAL_Driver/Src/stm32l4xx_hal_dfsdm.c **** 
 189:Drivers/STM32L4xx_HAL_Driver/Src/stm32l4xx_hal_dfsdm.c ****     [..]
 190:Drivers/STM32L4xx_HAL_Driver/Src/stm32l4xx_hal_dfsdm.c ****     Function HAL_DFSDM_Filter_RegisterCallback() allows to register
 191:Drivers/STM32L4xx_HAL_Driver/Src/stm32l4xx_hal_dfsdm.c ****     following callbacks:
 192:Drivers/STM32L4xx_HAL_Driver/Src/stm32l4xx_hal_dfsdm.c ****       (+) RegConvCpltCallback     : DFSDM filter regular conversion complete callback.
 193:Drivers/STM32L4xx_HAL_Driver/Src/stm32l4xx_hal_dfsdm.c ****       (+) RegConvHalfCpltCallback : DFSDM filter half regular conversion complete callback.
 194:Drivers/STM32L4xx_HAL_Driver/Src/stm32l4xx_hal_dfsdm.c ****       (+) InjConvCpltCallback     : DFSDM filter injected conversion complete callback.
 195:Drivers/STM32L4xx_HAL_Driver/Src/stm32l4xx_hal_dfsdm.c ****       (+) InjConvHalfCpltCallback : DFSDM filter half injected conversion complete callback.
 196:Drivers/STM32L4xx_HAL_Driver/Src/stm32l4xx_hal_dfsdm.c ****       (+) ErrorCallback           : DFSDM filter error callback.
 197:Drivers/STM32L4xx_HAL_Driver/Src/stm32l4xx_hal_dfsdm.c ****       (+) MspInitCallback         : DFSDM filter MSP init callback.
 198:Drivers/STM32L4xx_HAL_Driver/Src/stm32l4xx_hal_dfsdm.c ****       (+) MspDeInitCallback       : DFSDM filter MSP de-init callback.
 199:Drivers/STM32L4xx_HAL_Driver/Src/stm32l4xx_hal_dfsdm.c ****     [..]
 200:Drivers/STM32L4xx_HAL_Driver/Src/stm32l4xx_hal_dfsdm.c ****     This function takes as parameters the HAL peripheral handle, the Callback ID
 201:Drivers/STM32L4xx_HAL_Driver/Src/stm32l4xx_hal_dfsdm.c ****     and a pointer to the user callback function.
 202:Drivers/STM32L4xx_HAL_Driver/Src/stm32l4xx_hal_dfsdm.c **** 
 203:Drivers/STM32L4xx_HAL_Driver/Src/stm32l4xx_hal_dfsdm.c ****     [..]
 204:Drivers/STM32L4xx_HAL_Driver/Src/stm32l4xx_hal_dfsdm.c ****     For specific DFSDM filter analog watchdog callback use dedicated register callback:
 205:Drivers/STM32L4xx_HAL_Driver/Src/stm32l4xx_hal_dfsdm.c ****     HAL_DFSDM_Filter_RegisterAwdCallback().
 206:Drivers/STM32L4xx_HAL_Driver/Src/stm32l4xx_hal_dfsdm.c **** 
 207:Drivers/STM32L4xx_HAL_Driver/Src/stm32l4xx_hal_dfsdm.c ****     [..]
 208:Drivers/STM32L4xx_HAL_Driver/Src/stm32l4xx_hal_dfsdm.c ****     Use functions HAL_DFSDM_Channel_UnRegisterCallback() or
 209:Drivers/STM32L4xx_HAL_Driver/Src/stm32l4xx_hal_dfsdm.c ****     HAL_DFSDM_Filter_UnRegisterCallback() to reset a callback to the default
 210:Drivers/STM32L4xx_HAL_Driver/Src/stm32l4xx_hal_dfsdm.c ****     weak function.
 211:Drivers/STM32L4xx_HAL_Driver/Src/stm32l4xx_hal_dfsdm.c **** 
 212:Drivers/STM32L4xx_HAL_Driver/Src/stm32l4xx_hal_dfsdm.c ****     [..]
 213:Drivers/STM32L4xx_HAL_Driver/Src/stm32l4xx_hal_dfsdm.c ****     HAL_DFSDM_Channel_UnRegisterCallback() takes as parameters the HAL peripheral handle,
 214:Drivers/STM32L4xx_HAL_Driver/Src/stm32l4xx_hal_dfsdm.c ****     and the Callback ID.
 215:Drivers/STM32L4xx_HAL_Driver/Src/stm32l4xx_hal_dfsdm.c ****     [..]
 216:Drivers/STM32L4xx_HAL_Driver/Src/stm32l4xx_hal_dfsdm.c ****     This function allows to reset following callbacks:
 217:Drivers/STM32L4xx_HAL_Driver/Src/stm32l4xx_hal_dfsdm.c ****       (+) CkabCallback      : DFSDM channel clock absence detection callback.
 218:Drivers/STM32L4xx_HAL_Driver/Src/stm32l4xx_hal_dfsdm.c ****       (+) ScdCallback       : DFSDM channel short circuit detection callback.
 219:Drivers/STM32L4xx_HAL_Driver/Src/stm32l4xx_hal_dfsdm.c ****       (+) MspInitCallback   : DFSDM channel MSP init callback.
 220:Drivers/STM32L4xx_HAL_Driver/Src/stm32l4xx_hal_dfsdm.c ****       (+) MspDeInitCallback : DFSDM channel MSP de-init callback.
 221:Drivers/STM32L4xx_HAL_Driver/Src/stm32l4xx_hal_dfsdm.c **** 
 222:Drivers/STM32L4xx_HAL_Driver/Src/stm32l4xx_hal_dfsdm.c ****     [..]
 223:Drivers/STM32L4xx_HAL_Driver/Src/stm32l4xx_hal_dfsdm.c ****     HAL_DFSDM_Filter_UnRegisterCallback() takes as parameters the HAL peripheral handle,
 224:Drivers/STM32L4xx_HAL_Driver/Src/stm32l4xx_hal_dfsdm.c ****     and the Callback ID.
 225:Drivers/STM32L4xx_HAL_Driver/Src/stm32l4xx_hal_dfsdm.c ****     [..]
 226:Drivers/STM32L4xx_HAL_Driver/Src/stm32l4xx_hal_dfsdm.c ****     This function allows to reset following callbacks:
 227:Drivers/STM32L4xx_HAL_Driver/Src/stm32l4xx_hal_dfsdm.c ****       (+) RegConvCpltCallback     : DFSDM filter regular conversion complete callback.
 228:Drivers/STM32L4xx_HAL_Driver/Src/stm32l4xx_hal_dfsdm.c ****       (+) RegConvHalfCpltCallback : DFSDM filter half regular conversion complete callback.
 229:Drivers/STM32L4xx_HAL_Driver/Src/stm32l4xx_hal_dfsdm.c ****       (+) InjConvCpltCallback     : DFSDM filter injected conversion complete callback.
 230:Drivers/STM32L4xx_HAL_Driver/Src/stm32l4xx_hal_dfsdm.c ****       (+) InjConvHalfCpltCallback : DFSDM filter half injected conversion complete callback.
 231:Drivers/STM32L4xx_HAL_Driver/Src/stm32l4xx_hal_dfsdm.c ****       (+) ErrorCallback           : DFSDM filter error callback.
 232:Drivers/STM32L4xx_HAL_Driver/Src/stm32l4xx_hal_dfsdm.c ****       (+) MspInitCallback         : DFSDM filter MSP init callback.
 233:Drivers/STM32L4xx_HAL_Driver/Src/stm32l4xx_hal_dfsdm.c ****       (+) MspDeInitCallback       : DFSDM filter MSP de-init callback.
 234:Drivers/STM32L4xx_HAL_Driver/Src/stm32l4xx_hal_dfsdm.c **** 
 235:Drivers/STM32L4xx_HAL_Driver/Src/stm32l4xx_hal_dfsdm.c ****     [..]
 236:Drivers/STM32L4xx_HAL_Driver/Src/stm32l4xx_hal_dfsdm.c ****     For specific DFSDM filter analog watchdog callback use dedicated unregister callback:
 237:Drivers/STM32L4xx_HAL_Driver/Src/stm32l4xx_hal_dfsdm.c ****     HAL_DFSDM_Filter_UnRegisterAwdCallback().
 238:Drivers/STM32L4xx_HAL_Driver/Src/stm32l4xx_hal_dfsdm.c **** 
 239:Drivers/STM32L4xx_HAL_Driver/Src/stm32l4xx_hal_dfsdm.c ****     [..]
 240:Drivers/STM32L4xx_HAL_Driver/Src/stm32l4xx_hal_dfsdm.c ****     By default, after the call of init function and if the state is RESET
 241:Drivers/STM32L4xx_HAL_Driver/Src/stm32l4xx_hal_dfsdm.c ****     all callbacks are reset to the corresponding legacy weak functions:
ARM GAS  /tmp/ccrDNuCE.s 			page 6


 242:Drivers/STM32L4xx_HAL_Driver/Src/stm32l4xx_hal_dfsdm.c ****     examples HAL_DFSDM_ChannelScdCallback(), HAL_DFSDM_FilterErrorCallback().
 243:Drivers/STM32L4xx_HAL_Driver/Src/stm32l4xx_hal_dfsdm.c ****     Exception done for MspInit and MspDeInit callbacks that are respectively
 244:Drivers/STM32L4xx_HAL_Driver/Src/stm32l4xx_hal_dfsdm.c ****     reset to the legacy weak functions in the init and de-init only when these
 245:Drivers/STM32L4xx_HAL_Driver/Src/stm32l4xx_hal_dfsdm.c ****     callbacks are null (not registered beforehand).
 246:Drivers/STM32L4xx_HAL_Driver/Src/stm32l4xx_hal_dfsdm.c ****     If not, MspInit or MspDeInit are not null, the init and de-init keep and use
 247:Drivers/STM32L4xx_HAL_Driver/Src/stm32l4xx_hal_dfsdm.c ****     the user MspInit/MspDeInit callbacks (registered beforehand)
 248:Drivers/STM32L4xx_HAL_Driver/Src/stm32l4xx_hal_dfsdm.c **** 
 249:Drivers/STM32L4xx_HAL_Driver/Src/stm32l4xx_hal_dfsdm.c ****     [..]
 250:Drivers/STM32L4xx_HAL_Driver/Src/stm32l4xx_hal_dfsdm.c ****     Callbacks can be registered/unregistered in READY state only.
 251:Drivers/STM32L4xx_HAL_Driver/Src/stm32l4xx_hal_dfsdm.c ****     Exception done for MspInit/MspDeInit callbacks that can be registered/unregistered
 252:Drivers/STM32L4xx_HAL_Driver/Src/stm32l4xx_hal_dfsdm.c ****     in READY or RESET state, thus registered (user) MspInit/DeInit callbacks can be used
 253:Drivers/STM32L4xx_HAL_Driver/Src/stm32l4xx_hal_dfsdm.c ****     during the init/de-init.
 254:Drivers/STM32L4xx_HAL_Driver/Src/stm32l4xx_hal_dfsdm.c ****     In that case first register the MspInit/MspDeInit user callbacks using
 255:Drivers/STM32L4xx_HAL_Driver/Src/stm32l4xx_hal_dfsdm.c ****     HAL_DFSDM_Channel_RegisterCallback() or
 256:Drivers/STM32L4xx_HAL_Driver/Src/stm32l4xx_hal_dfsdm.c ****     HAL_DFSDM_Filter_RegisterCallback() before calling init or de-init function.
 257:Drivers/STM32L4xx_HAL_Driver/Src/stm32l4xx_hal_dfsdm.c **** 
 258:Drivers/STM32L4xx_HAL_Driver/Src/stm32l4xx_hal_dfsdm.c ****     [..]
 259:Drivers/STM32L4xx_HAL_Driver/Src/stm32l4xx_hal_dfsdm.c ****     When The compilation define USE_HAL_DFSDM_REGISTER_CALLBACKS is set to 0 or
 260:Drivers/STM32L4xx_HAL_Driver/Src/stm32l4xx_hal_dfsdm.c ****     not defined, the callback registering feature is not available
 261:Drivers/STM32L4xx_HAL_Driver/Src/stm32l4xx_hal_dfsdm.c ****     and weak callbacks are used.
 262:Drivers/STM32L4xx_HAL_Driver/Src/stm32l4xx_hal_dfsdm.c **** 
 263:Drivers/STM32L4xx_HAL_Driver/Src/stm32l4xx_hal_dfsdm.c ****     @endverbatim
 264:Drivers/STM32L4xx_HAL_Driver/Src/stm32l4xx_hal_dfsdm.c ****   ******************************************************************************
 265:Drivers/STM32L4xx_HAL_Driver/Src/stm32l4xx_hal_dfsdm.c ****   */
 266:Drivers/STM32L4xx_HAL_Driver/Src/stm32l4xx_hal_dfsdm.c **** 
 267:Drivers/STM32L4xx_HAL_Driver/Src/stm32l4xx_hal_dfsdm.c **** /* Includes ------------------------------------------------------------------*/
 268:Drivers/STM32L4xx_HAL_Driver/Src/stm32l4xx_hal_dfsdm.c **** #include "stm32l4xx_hal.h"
 269:Drivers/STM32L4xx_HAL_Driver/Src/stm32l4xx_hal_dfsdm.c **** 
 270:Drivers/STM32L4xx_HAL_Driver/Src/stm32l4xx_hal_dfsdm.c **** /** @addtogroup STM32L4xx_HAL_Driver
 271:Drivers/STM32L4xx_HAL_Driver/Src/stm32l4xx_hal_dfsdm.c ****   * @{
 272:Drivers/STM32L4xx_HAL_Driver/Src/stm32l4xx_hal_dfsdm.c ****   */
 273:Drivers/STM32L4xx_HAL_Driver/Src/stm32l4xx_hal_dfsdm.c **** #ifdef HAL_DFSDM_MODULE_ENABLED
 274:Drivers/STM32L4xx_HAL_Driver/Src/stm32l4xx_hal_dfsdm.c **** 
 275:Drivers/STM32L4xx_HAL_Driver/Src/stm32l4xx_hal_dfsdm.c **** #if defined(STM32L451xx) || defined(STM32L452xx) || defined(STM32L462xx) || \
 276:Drivers/STM32L4xx_HAL_Driver/Src/stm32l4xx_hal_dfsdm.c ****     defined(STM32L471xx) || defined(STM32L475xx) || defined(STM32L476xx) || defined(STM32L485xx) ||
 277:Drivers/STM32L4xx_HAL_Driver/Src/stm32l4xx_hal_dfsdm.c ****     defined(STM32L496xx) || defined(STM32L4A6xx) || \
 278:Drivers/STM32L4xx_HAL_Driver/Src/stm32l4xx_hal_dfsdm.c ****     defined(STM32L4R5xx) || defined(STM32L4R7xx) || defined(STM32L4R9xx) || defined(STM32L4S5xx) ||
 279:Drivers/STM32L4xx_HAL_Driver/Src/stm32l4xx_hal_dfsdm.c ****     defined(STM32L4P5xx) || defined(STM32L4Q5xx)
 280:Drivers/STM32L4xx_HAL_Driver/Src/stm32l4xx_hal_dfsdm.c **** 
 281:Drivers/STM32L4xx_HAL_Driver/Src/stm32l4xx_hal_dfsdm.c **** /** @defgroup DFSDM DFSDM
 282:Drivers/STM32L4xx_HAL_Driver/Src/stm32l4xx_hal_dfsdm.c ****   * @brief DFSDM HAL driver module
 283:Drivers/STM32L4xx_HAL_Driver/Src/stm32l4xx_hal_dfsdm.c ****   * @{
 284:Drivers/STM32L4xx_HAL_Driver/Src/stm32l4xx_hal_dfsdm.c ****   */
 285:Drivers/STM32L4xx_HAL_Driver/Src/stm32l4xx_hal_dfsdm.c **** 
 286:Drivers/STM32L4xx_HAL_Driver/Src/stm32l4xx_hal_dfsdm.c **** /* Private typedef -----------------------------------------------------------*/
 287:Drivers/STM32L4xx_HAL_Driver/Src/stm32l4xx_hal_dfsdm.c **** /* Private define ------------------------------------------------------------*/
 288:Drivers/STM32L4xx_HAL_Driver/Src/stm32l4xx_hal_dfsdm.c **** /** @defgroup DFSDM_Private_Define DFSDM Private Define
 289:Drivers/STM32L4xx_HAL_Driver/Src/stm32l4xx_hal_dfsdm.c ****  * @{
 290:Drivers/STM32L4xx_HAL_Driver/Src/stm32l4xx_hal_dfsdm.c ****  */
 291:Drivers/STM32L4xx_HAL_Driver/Src/stm32l4xx_hal_dfsdm.c **** #define DFSDM_FLTCR1_MSB_RCH_OFFSET     8
 292:Drivers/STM32L4xx_HAL_Driver/Src/stm32l4xx_hal_dfsdm.c **** #define DFSDM_MSB_MASK                  0xFFFF0000U
 293:Drivers/STM32L4xx_HAL_Driver/Src/stm32l4xx_hal_dfsdm.c **** #define DFSDM_LSB_MASK                  0x0000FFFFU
 294:Drivers/STM32L4xx_HAL_Driver/Src/stm32l4xx_hal_dfsdm.c **** #define DFSDM_CKAB_TIMEOUT              5000U
 295:Drivers/STM32L4xx_HAL_Driver/Src/stm32l4xx_hal_dfsdm.c **** #if defined(STM32L451xx) || defined(STM32L452xx) || defined(STM32L462xx) || \
 296:Drivers/STM32L4xx_HAL_Driver/Src/stm32l4xx_hal_dfsdm.c ****     defined(STM32L4P5xx) || defined(STM32L4Q5xx)
 297:Drivers/STM32L4xx_HAL_Driver/Src/stm32l4xx_hal_dfsdm.c **** #define DFSDM1_CHANNEL_NUMBER           4U
 298:Drivers/STM32L4xx_HAL_Driver/Src/stm32l4xx_hal_dfsdm.c **** #else /* STM32L451xx || STM32L452xx || STM32L462xx || STM32L4P5xx || STM32L4Q5xx */
ARM GAS  /tmp/ccrDNuCE.s 			page 7


 299:Drivers/STM32L4xx_HAL_Driver/Src/stm32l4xx_hal_dfsdm.c **** #define DFSDM1_CHANNEL_NUMBER           8U
 300:Drivers/STM32L4xx_HAL_Driver/Src/stm32l4xx_hal_dfsdm.c **** #endif /* STM32L451xx || STM32L452xx || STM32L462xx || STM32L4P5xx || STM32L4Q5xx */
 301:Drivers/STM32L4xx_HAL_Driver/Src/stm32l4xx_hal_dfsdm.c **** /**
 302:Drivers/STM32L4xx_HAL_Driver/Src/stm32l4xx_hal_dfsdm.c ****   * @}
 303:Drivers/STM32L4xx_HAL_Driver/Src/stm32l4xx_hal_dfsdm.c ****   */
 304:Drivers/STM32L4xx_HAL_Driver/Src/stm32l4xx_hal_dfsdm.c **** 
 305:Drivers/STM32L4xx_HAL_Driver/Src/stm32l4xx_hal_dfsdm.c **** /* Private macro -------------------------------------------------------------*/
 306:Drivers/STM32L4xx_HAL_Driver/Src/stm32l4xx_hal_dfsdm.c **** /* Private variables ---------------------------------------------------------*/
 307:Drivers/STM32L4xx_HAL_Driver/Src/stm32l4xx_hal_dfsdm.c **** /** @defgroup DFSDM_Private_Variables DFSDM Private Variables
 308:Drivers/STM32L4xx_HAL_Driver/Src/stm32l4xx_hal_dfsdm.c ****   * @{
 309:Drivers/STM32L4xx_HAL_Driver/Src/stm32l4xx_hal_dfsdm.c ****   */
 310:Drivers/STM32L4xx_HAL_Driver/Src/stm32l4xx_hal_dfsdm.c **** static __IO uint32_t                v_dfsdm1ChannelCounter = 0;
 311:Drivers/STM32L4xx_HAL_Driver/Src/stm32l4xx_hal_dfsdm.c **** static DFSDM_Channel_HandleTypeDef *a_dfsdm1ChannelHandle[DFSDM1_CHANNEL_NUMBER] = {NULL};
 312:Drivers/STM32L4xx_HAL_Driver/Src/stm32l4xx_hal_dfsdm.c **** /**
 313:Drivers/STM32L4xx_HAL_Driver/Src/stm32l4xx_hal_dfsdm.c ****   * @}
 314:Drivers/STM32L4xx_HAL_Driver/Src/stm32l4xx_hal_dfsdm.c ****   */
 315:Drivers/STM32L4xx_HAL_Driver/Src/stm32l4xx_hal_dfsdm.c **** 
 316:Drivers/STM32L4xx_HAL_Driver/Src/stm32l4xx_hal_dfsdm.c **** /* Private function prototypes -----------------------------------------------*/
 317:Drivers/STM32L4xx_HAL_Driver/Src/stm32l4xx_hal_dfsdm.c **** /** @defgroup DFSDM_Private_Functions DFSDM Private Functions
 318:Drivers/STM32L4xx_HAL_Driver/Src/stm32l4xx_hal_dfsdm.c ****   * @{
 319:Drivers/STM32L4xx_HAL_Driver/Src/stm32l4xx_hal_dfsdm.c ****   */
 320:Drivers/STM32L4xx_HAL_Driver/Src/stm32l4xx_hal_dfsdm.c **** static uint32_t DFSDM_GetInjChannelsNbr(uint32_t Channels);
 321:Drivers/STM32L4xx_HAL_Driver/Src/stm32l4xx_hal_dfsdm.c **** static uint32_t DFSDM_GetChannelFromInstance(const DFSDM_Channel_TypeDef *Instance);
 322:Drivers/STM32L4xx_HAL_Driver/Src/stm32l4xx_hal_dfsdm.c **** static void     DFSDM_RegConvStart(DFSDM_Filter_HandleTypeDef *hdfsdm_filter);
 323:Drivers/STM32L4xx_HAL_Driver/Src/stm32l4xx_hal_dfsdm.c **** static void     DFSDM_RegConvStop(DFSDM_Filter_HandleTypeDef *hdfsdm_filter);
 324:Drivers/STM32L4xx_HAL_Driver/Src/stm32l4xx_hal_dfsdm.c **** static void     DFSDM_InjConvStart(DFSDM_Filter_HandleTypeDef *hdfsdm_filter);
 325:Drivers/STM32L4xx_HAL_Driver/Src/stm32l4xx_hal_dfsdm.c **** static void     DFSDM_InjConvStop(DFSDM_Filter_HandleTypeDef *hdfsdm_filter);
 326:Drivers/STM32L4xx_HAL_Driver/Src/stm32l4xx_hal_dfsdm.c **** static void     DFSDM_DMARegularHalfConvCplt(DMA_HandleTypeDef *hdma);
 327:Drivers/STM32L4xx_HAL_Driver/Src/stm32l4xx_hal_dfsdm.c **** static void     DFSDM_DMARegularConvCplt(DMA_HandleTypeDef *hdma);
 328:Drivers/STM32L4xx_HAL_Driver/Src/stm32l4xx_hal_dfsdm.c **** static void     DFSDM_DMAInjectedHalfConvCplt(DMA_HandleTypeDef *hdma);
 329:Drivers/STM32L4xx_HAL_Driver/Src/stm32l4xx_hal_dfsdm.c **** static void     DFSDM_DMAInjectedConvCplt(DMA_HandleTypeDef *hdma);
 330:Drivers/STM32L4xx_HAL_Driver/Src/stm32l4xx_hal_dfsdm.c **** static void     DFSDM_DMAError(DMA_HandleTypeDef *hdma);
 331:Drivers/STM32L4xx_HAL_Driver/Src/stm32l4xx_hal_dfsdm.c **** /**
 332:Drivers/STM32L4xx_HAL_Driver/Src/stm32l4xx_hal_dfsdm.c ****   * @}
 333:Drivers/STM32L4xx_HAL_Driver/Src/stm32l4xx_hal_dfsdm.c ****   */
 334:Drivers/STM32L4xx_HAL_Driver/Src/stm32l4xx_hal_dfsdm.c **** 
 335:Drivers/STM32L4xx_HAL_Driver/Src/stm32l4xx_hal_dfsdm.c **** /* Exported functions --------------------------------------------------------*/
 336:Drivers/STM32L4xx_HAL_Driver/Src/stm32l4xx_hal_dfsdm.c **** /** @defgroup DFSDM_Exported_Functions DFSDM Exported Functions
 337:Drivers/STM32L4xx_HAL_Driver/Src/stm32l4xx_hal_dfsdm.c ****   * @{
 338:Drivers/STM32L4xx_HAL_Driver/Src/stm32l4xx_hal_dfsdm.c ****   */
 339:Drivers/STM32L4xx_HAL_Driver/Src/stm32l4xx_hal_dfsdm.c **** 
 340:Drivers/STM32L4xx_HAL_Driver/Src/stm32l4xx_hal_dfsdm.c **** /** @defgroup DFSDM_Exported_Functions_Group1_Channel Channel initialization and de-initialization 
 341:Drivers/STM32L4xx_HAL_Driver/Src/stm32l4xx_hal_dfsdm.c ****  *  @brief    Channel initialization and de-initialization functions
 342:Drivers/STM32L4xx_HAL_Driver/Src/stm32l4xx_hal_dfsdm.c ****  *
 343:Drivers/STM32L4xx_HAL_Driver/Src/stm32l4xx_hal_dfsdm.c **** @verbatim
 344:Drivers/STM32L4xx_HAL_Driver/Src/stm32l4xx_hal_dfsdm.c ****   ==============================================================================
 345:Drivers/STM32L4xx_HAL_Driver/Src/stm32l4xx_hal_dfsdm.c ****         ##### Channel initialization and de-initialization functions #####
 346:Drivers/STM32L4xx_HAL_Driver/Src/stm32l4xx_hal_dfsdm.c ****   ==============================================================================
 347:Drivers/STM32L4xx_HAL_Driver/Src/stm32l4xx_hal_dfsdm.c ****     [..]  This section provides functions allowing to:
 348:Drivers/STM32L4xx_HAL_Driver/Src/stm32l4xx_hal_dfsdm.c ****       (+) Initialize the DFSDM channel.
 349:Drivers/STM32L4xx_HAL_Driver/Src/stm32l4xx_hal_dfsdm.c ****       (+) De-initialize the DFSDM channel.
 350:Drivers/STM32L4xx_HAL_Driver/Src/stm32l4xx_hal_dfsdm.c **** @endverbatim
 351:Drivers/STM32L4xx_HAL_Driver/Src/stm32l4xx_hal_dfsdm.c ****   * @{
 352:Drivers/STM32L4xx_HAL_Driver/Src/stm32l4xx_hal_dfsdm.c ****   */
 353:Drivers/STM32L4xx_HAL_Driver/Src/stm32l4xx_hal_dfsdm.c **** 
 354:Drivers/STM32L4xx_HAL_Driver/Src/stm32l4xx_hal_dfsdm.c **** /**
 355:Drivers/STM32L4xx_HAL_Driver/Src/stm32l4xx_hal_dfsdm.c ****   * @brief  Initialize the DFSDM channel according to the specified parameters
ARM GAS  /tmp/ccrDNuCE.s 			page 8


 356:Drivers/STM32L4xx_HAL_Driver/Src/stm32l4xx_hal_dfsdm.c ****   *         in the DFSDM_ChannelInitTypeDef structure and initialize the associated handle.
 357:Drivers/STM32L4xx_HAL_Driver/Src/stm32l4xx_hal_dfsdm.c ****   * @param  hdfsdm_channel DFSDM channel handle.
 358:Drivers/STM32L4xx_HAL_Driver/Src/stm32l4xx_hal_dfsdm.c ****   * @retval HAL status.
 359:Drivers/STM32L4xx_HAL_Driver/Src/stm32l4xx_hal_dfsdm.c ****   */
 360:Drivers/STM32L4xx_HAL_Driver/Src/stm32l4xx_hal_dfsdm.c **** HAL_StatusTypeDef HAL_DFSDM_ChannelInit(DFSDM_Channel_HandleTypeDef *hdfsdm_channel)
 361:Drivers/STM32L4xx_HAL_Driver/Src/stm32l4xx_hal_dfsdm.c **** {
  47              		.loc 1 361 1
  48              		.cfi_startproc
  49              		@ args = 0, pretend = 0, frame = 8
  50              		@ frame_needed = 1, uses_anonymous_args = 0
  51 0000 80B5     		push	{r7, lr}
  52              		.cfi_def_cfa_offset 8
  53              		.cfi_offset 7, -8
  54              		.cfi_offset 14, -4
  55 0002 82B0     		sub	sp, sp, #8
  56              		.cfi_def_cfa_offset 16
  57 0004 00AF     		add	r7, sp, #0
  58              		.cfi_def_cfa_register 7
  59 0006 7860     		str	r0, [r7, #4]
 362:Drivers/STM32L4xx_HAL_Driver/Src/stm32l4xx_hal_dfsdm.c ****   /* Check DFSDM Channel handle */
 363:Drivers/STM32L4xx_HAL_Driver/Src/stm32l4xx_hal_dfsdm.c ****   if (hdfsdm_channel == NULL)
  60              		.loc 1 363 6
  61 0008 7B68     		ldr	r3, [r7, #4]
  62 000a 002B     		cmp	r3, #0
  63 000c 01D1     		bne	.L2
 364:Drivers/STM32L4xx_HAL_Driver/Src/stm32l4xx_hal_dfsdm.c ****   {
 365:Drivers/STM32L4xx_HAL_Driver/Src/stm32l4xx_hal_dfsdm.c ****     return HAL_ERROR;
  64              		.loc 1 365 12
  65 000e 0123     		movs	r3, #1
  66 0010 ACE0     		b	.L3
  67              	.L2:
 366:Drivers/STM32L4xx_HAL_Driver/Src/stm32l4xx_hal_dfsdm.c ****   }
 367:Drivers/STM32L4xx_HAL_Driver/Src/stm32l4xx_hal_dfsdm.c **** 
 368:Drivers/STM32L4xx_HAL_Driver/Src/stm32l4xx_hal_dfsdm.c ****   /* Check parameters */
 369:Drivers/STM32L4xx_HAL_Driver/Src/stm32l4xx_hal_dfsdm.c ****   assert_param(IS_DFSDM_CHANNEL_ALL_INSTANCE(hdfsdm_channel->Instance));
 370:Drivers/STM32L4xx_HAL_Driver/Src/stm32l4xx_hal_dfsdm.c ****   assert_param(IS_FUNCTIONAL_STATE(hdfsdm_channel->Init.OutputClock.Activation));
 371:Drivers/STM32L4xx_HAL_Driver/Src/stm32l4xx_hal_dfsdm.c ****   assert_param(IS_DFSDM_CHANNEL_INPUT(hdfsdm_channel->Init.Input.Multiplexer));
 372:Drivers/STM32L4xx_HAL_Driver/Src/stm32l4xx_hal_dfsdm.c ****   assert_param(IS_DFSDM_CHANNEL_DATA_PACKING(hdfsdm_channel->Init.Input.DataPacking));
 373:Drivers/STM32L4xx_HAL_Driver/Src/stm32l4xx_hal_dfsdm.c ****   assert_param(IS_DFSDM_CHANNEL_INPUT_PINS(hdfsdm_channel->Init.Input.Pins));
 374:Drivers/STM32L4xx_HAL_Driver/Src/stm32l4xx_hal_dfsdm.c ****   assert_param(IS_DFSDM_CHANNEL_SERIAL_INTERFACE_TYPE(hdfsdm_channel->Init.SerialInterface.Type));
 375:Drivers/STM32L4xx_HAL_Driver/Src/stm32l4xx_hal_dfsdm.c ****   assert_param(IS_DFSDM_CHANNEL_SPI_CLOCK(hdfsdm_channel->Init.SerialInterface.SpiClock));
 376:Drivers/STM32L4xx_HAL_Driver/Src/stm32l4xx_hal_dfsdm.c ****   assert_param(IS_DFSDM_CHANNEL_FILTER_ORDER(hdfsdm_channel->Init.Awd.FilterOrder));
 377:Drivers/STM32L4xx_HAL_Driver/Src/stm32l4xx_hal_dfsdm.c ****   assert_param(IS_DFSDM_CHANNEL_FILTER_OVS_RATIO(hdfsdm_channel->Init.Awd.Oversampling));
 378:Drivers/STM32L4xx_HAL_Driver/Src/stm32l4xx_hal_dfsdm.c ****   assert_param(IS_DFSDM_CHANNEL_OFFSET(hdfsdm_channel->Init.Offset));
 379:Drivers/STM32L4xx_HAL_Driver/Src/stm32l4xx_hal_dfsdm.c ****   assert_param(IS_DFSDM_CHANNEL_RIGHT_BIT_SHIFT(hdfsdm_channel->Init.RightBitShift));
 380:Drivers/STM32L4xx_HAL_Driver/Src/stm32l4xx_hal_dfsdm.c **** 
 381:Drivers/STM32L4xx_HAL_Driver/Src/stm32l4xx_hal_dfsdm.c ****   /* Check that channel has not been already initialized */
 382:Drivers/STM32L4xx_HAL_Driver/Src/stm32l4xx_hal_dfsdm.c ****   if (a_dfsdm1ChannelHandle[DFSDM_GetChannelFromInstance(hdfsdm_channel->Instance)] != NULL)
  68              		.loc 1 382 72
  69 0012 7B68     		ldr	r3, [r7, #4]
  70 0014 1B68     		ldr	r3, [r3]
  71              		.loc 1 382 29
  72 0016 1846     		mov	r0, r3
  73 0018 FFF7FEFF 		bl	DFSDM_GetChannelFromInstance
  74 001c 0346     		mov	r3, r0
  75              		.loc 1 382 28 discriminator 1
  76 001e 554A     		ldr	r2, .L7
ARM GAS  /tmp/ccrDNuCE.s 			page 9


  77 0020 52F82330 		ldr	r3, [r2, r3, lsl #2]
  78              		.loc 1 382 6 discriminator 1
  79 0024 002B     		cmp	r3, #0
  80 0026 01D0     		beq	.L4
 383:Drivers/STM32L4xx_HAL_Driver/Src/stm32l4xx_hal_dfsdm.c ****   {
 384:Drivers/STM32L4xx_HAL_Driver/Src/stm32l4xx_hal_dfsdm.c ****     return HAL_ERROR;
  81              		.loc 1 384 12
  82 0028 0123     		movs	r3, #1
  83 002a 9FE0     		b	.L3
  84              	.L4:
 385:Drivers/STM32L4xx_HAL_Driver/Src/stm32l4xx_hal_dfsdm.c ****   }
 386:Drivers/STM32L4xx_HAL_Driver/Src/stm32l4xx_hal_dfsdm.c **** 
 387:Drivers/STM32L4xx_HAL_Driver/Src/stm32l4xx_hal_dfsdm.c **** #if (USE_HAL_DFSDM_REGISTER_CALLBACKS == 1)
 388:Drivers/STM32L4xx_HAL_Driver/Src/stm32l4xx_hal_dfsdm.c ****   /* Reset callback pointers to the weak predefined callbacks */
 389:Drivers/STM32L4xx_HAL_Driver/Src/stm32l4xx_hal_dfsdm.c ****   hdfsdm_channel->CkabCallback = HAL_DFSDM_ChannelCkabCallback;
 390:Drivers/STM32L4xx_HAL_Driver/Src/stm32l4xx_hal_dfsdm.c ****   hdfsdm_channel->ScdCallback  = HAL_DFSDM_ChannelScdCallback;
 391:Drivers/STM32L4xx_HAL_Driver/Src/stm32l4xx_hal_dfsdm.c **** 
 392:Drivers/STM32L4xx_HAL_Driver/Src/stm32l4xx_hal_dfsdm.c ****   /* Call MSP init function */
 393:Drivers/STM32L4xx_HAL_Driver/Src/stm32l4xx_hal_dfsdm.c ****   if (hdfsdm_channel->MspInitCallback == NULL)
 394:Drivers/STM32L4xx_HAL_Driver/Src/stm32l4xx_hal_dfsdm.c ****   {
 395:Drivers/STM32L4xx_HAL_Driver/Src/stm32l4xx_hal_dfsdm.c ****     hdfsdm_channel->MspInitCallback = HAL_DFSDM_ChannelMspInit;
 396:Drivers/STM32L4xx_HAL_Driver/Src/stm32l4xx_hal_dfsdm.c ****   }
 397:Drivers/STM32L4xx_HAL_Driver/Src/stm32l4xx_hal_dfsdm.c ****   hdfsdm_channel->MspInitCallback(hdfsdm_channel);
 398:Drivers/STM32L4xx_HAL_Driver/Src/stm32l4xx_hal_dfsdm.c **** #else
 399:Drivers/STM32L4xx_HAL_Driver/Src/stm32l4xx_hal_dfsdm.c ****   /* Call MSP init function */
 400:Drivers/STM32L4xx_HAL_Driver/Src/stm32l4xx_hal_dfsdm.c ****   HAL_DFSDM_ChannelMspInit(hdfsdm_channel);
  85              		.loc 1 400 3
  86 002c 7868     		ldr	r0, [r7, #4]
  87 002e FFF7FEFF 		bl	HAL_DFSDM_ChannelMspInit
 401:Drivers/STM32L4xx_HAL_Driver/Src/stm32l4xx_hal_dfsdm.c **** #endif
 402:Drivers/STM32L4xx_HAL_Driver/Src/stm32l4xx_hal_dfsdm.c **** 
 403:Drivers/STM32L4xx_HAL_Driver/Src/stm32l4xx_hal_dfsdm.c ****   /* Update the channel counter */
 404:Drivers/STM32L4xx_HAL_Driver/Src/stm32l4xx_hal_dfsdm.c ****   v_dfsdm1ChannelCounter++;
  88              		.loc 1 404 25
  89 0032 514B     		ldr	r3, .L7+4
  90 0034 1B68     		ldr	r3, [r3]
  91 0036 0133     		adds	r3, r3, #1
  92 0038 4F4A     		ldr	r2, .L7+4
  93 003a 1360     		str	r3, [r2]
 405:Drivers/STM32L4xx_HAL_Driver/Src/stm32l4xx_hal_dfsdm.c **** 
 406:Drivers/STM32L4xx_HAL_Driver/Src/stm32l4xx_hal_dfsdm.c ****   /* Configure output serial clock and enable global DFSDM interface only for first channel */
 407:Drivers/STM32L4xx_HAL_Driver/Src/stm32l4xx_hal_dfsdm.c ****   if (v_dfsdm1ChannelCounter == 1U)
  94              		.loc 1 407 30
  95 003c 4E4B     		ldr	r3, .L7+4
  96 003e 1B68     		ldr	r3, [r3]
  97              		.loc 1 407 6
  98 0040 012B     		cmp	r3, #1
  99 0042 25D1     		bne	.L5
 408:Drivers/STM32L4xx_HAL_Driver/Src/stm32l4xx_hal_dfsdm.c ****   {
 409:Drivers/STM32L4xx_HAL_Driver/Src/stm32l4xx_hal_dfsdm.c ****     assert_param(IS_DFSDM_CHANNEL_OUTPUT_CLOCK(hdfsdm_channel->Init.OutputClock.Selection));
 410:Drivers/STM32L4xx_HAL_Driver/Src/stm32l4xx_hal_dfsdm.c ****     /* Set the output serial clock source */
 411:Drivers/STM32L4xx_HAL_Driver/Src/stm32l4xx_hal_dfsdm.c ****     DFSDM1_Channel0->CHCFGR1 &= ~(DFSDM_CHCFGR1_CKOUTSRC);
 100              		.loc 1 411 20
 101 0044 4D4B     		ldr	r3, .L7+8
 102 0046 1B68     		ldr	r3, [r3]
 103 0048 4C4A     		ldr	r2, .L7+8
 104              		.loc 1 411 30
ARM GAS  /tmp/ccrDNuCE.s 			page 10


 105 004a 23F08043 		bic	r3, r3, #1073741824
 106 004e 1360     		str	r3, [r2]
 412:Drivers/STM32L4xx_HAL_Driver/Src/stm32l4xx_hal_dfsdm.c ****     DFSDM1_Channel0->CHCFGR1 |= hdfsdm_channel->Init.OutputClock.Selection;
 107              		.loc 1 412 20
 108 0050 4A4B     		ldr	r3, .L7+8
 109 0052 1A68     		ldr	r2, [r3]
 110              		.loc 1 412 65
 111 0054 7B68     		ldr	r3, [r7, #4]
 112 0056 9B68     		ldr	r3, [r3, #8]
 113              		.loc 1 412 20
 114 0058 4849     		ldr	r1, .L7+8
 115              		.loc 1 412 30
 116 005a 1343     		orrs	r3, r3, r2
 117 005c 0B60     		str	r3, [r1]
 413:Drivers/STM32L4xx_HAL_Driver/Src/stm32l4xx_hal_dfsdm.c **** 
 414:Drivers/STM32L4xx_HAL_Driver/Src/stm32l4xx_hal_dfsdm.c ****     /* Reset clock divider */
 415:Drivers/STM32L4xx_HAL_Driver/Src/stm32l4xx_hal_dfsdm.c ****     DFSDM1_Channel0->CHCFGR1 &= ~(DFSDM_CHCFGR1_CKOUTDIV);
 118              		.loc 1 415 20
 119 005e 474B     		ldr	r3, .L7+8
 120 0060 1B68     		ldr	r3, [r3]
 121 0062 464A     		ldr	r2, .L7+8
 122              		.loc 1 415 30
 123 0064 23F47F03 		bic	r3, r3, #16711680
 124 0068 1360     		str	r3, [r2]
 416:Drivers/STM32L4xx_HAL_Driver/Src/stm32l4xx_hal_dfsdm.c ****     if (hdfsdm_channel->Init.OutputClock.Activation == ENABLE)
 125              		.loc 1 416 41
 126 006a 7B68     		ldr	r3, [r7, #4]
 127 006c 1B79     		ldrb	r3, [r3, #4]	@ zero_extendqisi2
 128              		.loc 1 416 8
 129 006e 012B     		cmp	r3, #1
 130 0070 08D1     		bne	.L6
 417:Drivers/STM32L4xx_HAL_Driver/Src/stm32l4xx_hal_dfsdm.c ****     {
 418:Drivers/STM32L4xx_HAL_Driver/Src/stm32l4xx_hal_dfsdm.c ****       assert_param(IS_DFSDM_CHANNEL_OUTPUT_CLOCK_DIVIDER(hdfsdm_channel->Init.OutputClock.Divider))
 419:Drivers/STM32L4xx_HAL_Driver/Src/stm32l4xx_hal_dfsdm.c ****       /* Set the output clock divider */
 420:Drivers/STM32L4xx_HAL_Driver/Src/stm32l4xx_hal_dfsdm.c ****       DFSDM1_Channel0->CHCFGR1 |= (uint32_t)((hdfsdm_channel->Init.OutputClock.Divider - 1U) <<
 131              		.loc 1 420 22
 132 0072 424B     		ldr	r3, .L7+8
 133 0074 1A68     		ldr	r2, [r3]
 134              		.loc 1 420 79
 135 0076 7B68     		ldr	r3, [r7, #4]
 136 0078 DB68     		ldr	r3, [r3, #12]
 137              		.loc 1 420 88
 138 007a 013B     		subs	r3, r3, #1
 139              		.loc 1 420 35
 140 007c 1B04     		lsls	r3, r3, #16
 141              		.loc 1 420 22
 142 007e 3F49     		ldr	r1, .L7+8
 143              		.loc 1 420 32
 144 0080 1343     		orrs	r3, r3, r2
 145 0082 0B60     		str	r3, [r1]
 146              	.L6:
 421:Drivers/STM32L4xx_HAL_Driver/Src/stm32l4xx_hal_dfsdm.c ****                                              DFSDM_CHCFGR1_CKOUTDIV_Pos);
 422:Drivers/STM32L4xx_HAL_Driver/Src/stm32l4xx_hal_dfsdm.c ****     }
 423:Drivers/STM32L4xx_HAL_Driver/Src/stm32l4xx_hal_dfsdm.c **** 
 424:Drivers/STM32L4xx_HAL_Driver/Src/stm32l4xx_hal_dfsdm.c ****     /* enable the DFSDM global interface */
 425:Drivers/STM32L4xx_HAL_Driver/Src/stm32l4xx_hal_dfsdm.c ****     DFSDM1_Channel0->CHCFGR1 |= DFSDM_CHCFGR1_DFSDMEN;
 147              		.loc 1 425 20
ARM GAS  /tmp/ccrDNuCE.s 			page 11


 148 0084 3D4B     		ldr	r3, .L7+8
 149 0086 1B68     		ldr	r3, [r3]
 150 0088 3C4A     		ldr	r2, .L7+8
 151              		.loc 1 425 30
 152 008a 43F00043 		orr	r3, r3, #-2147483648
 153 008e 1360     		str	r3, [r2]
 154              	.L5:
 426:Drivers/STM32L4xx_HAL_Driver/Src/stm32l4xx_hal_dfsdm.c ****   }
 427:Drivers/STM32L4xx_HAL_Driver/Src/stm32l4xx_hal_dfsdm.c **** 
 428:Drivers/STM32L4xx_HAL_Driver/Src/stm32l4xx_hal_dfsdm.c ****   /* Set channel input parameters */
 429:Drivers/STM32L4xx_HAL_Driver/Src/stm32l4xx_hal_dfsdm.c ****   hdfsdm_channel->Instance->CHCFGR1 &= ~(DFSDM_CHCFGR1_DATPACK | DFSDM_CHCFGR1_DATMPX |
 155              		.loc 1 429 17
 156 0090 7B68     		ldr	r3, [r7, #4]
 157 0092 1B68     		ldr	r3, [r3]
 158              		.loc 1 429 27
 159 0094 1A68     		ldr	r2, [r3]
 160              		.loc 1 429 17
 161 0096 7B68     		ldr	r3, [r7, #4]
 162 0098 1B68     		ldr	r3, [r3]
 163              		.loc 1 429 37
 164 009a 22F47142 		bic	r2, r2, #61696
 165 009e 1A60     		str	r2, [r3]
 430:Drivers/STM32L4xx_HAL_Driver/Src/stm32l4xx_hal_dfsdm.c ****                                          DFSDM_CHCFGR1_CHINSEL);
 431:Drivers/STM32L4xx_HAL_Driver/Src/stm32l4xx_hal_dfsdm.c ****   hdfsdm_channel->Instance->CHCFGR1 |= (hdfsdm_channel->Init.Input.Multiplexer |
 166              		.loc 1 431 17
 167 00a0 7B68     		ldr	r3, [r7, #4]
 168 00a2 1B68     		ldr	r3, [r3]
 169              		.loc 1 431 27
 170 00a4 1968     		ldr	r1, [r3]
 171              		.loc 1 431 67
 172 00a6 7B68     		ldr	r3, [r7, #4]
 173 00a8 1A69     		ldr	r2, [r3, #16]
 432:Drivers/STM32L4xx_HAL_Driver/Src/stm32l4xx_hal_dfsdm.c ****                                         hdfsdm_channel->Init.Input.DataPacking |
 174              		.loc 1 432 67
 175 00aa 7B68     		ldr	r3, [r7, #4]
 176 00ac 5B69     		ldr	r3, [r3, #20]
 431:Drivers/STM32L4xx_HAL_Driver/Src/stm32l4xx_hal_dfsdm.c ****                                         hdfsdm_channel->Init.Input.DataPacking |
 177              		.loc 1 431 80
 178 00ae 1A43     		orrs	r2, r2, r3
 433:Drivers/STM32L4xx_HAL_Driver/Src/stm32l4xx_hal_dfsdm.c ****                                         hdfsdm_channel->Init.Input.Pins);
 179              		.loc 1 433 67
 180 00b0 7B68     		ldr	r3, [r7, #4]
 181 00b2 9B69     		ldr	r3, [r3, #24]
 432:Drivers/STM32L4xx_HAL_Driver/Src/stm32l4xx_hal_dfsdm.c ****                                         hdfsdm_channel->Init.Input.DataPacking |
 182              		.loc 1 432 80
 183 00b4 1A43     		orrs	r2, r2, r3
 431:Drivers/STM32L4xx_HAL_Driver/Src/stm32l4xx_hal_dfsdm.c ****                                         hdfsdm_channel->Init.Input.DataPacking |
 184              		.loc 1 431 17
 185 00b6 7B68     		ldr	r3, [r7, #4]
 186 00b8 1B68     		ldr	r3, [r3]
 431:Drivers/STM32L4xx_HAL_Driver/Src/stm32l4xx_hal_dfsdm.c ****                                         hdfsdm_channel->Init.Input.DataPacking |
 187              		.loc 1 431 37
 188 00ba 0A43     		orrs	r2, r2, r1
 189 00bc 1A60     		str	r2, [r3]
 434:Drivers/STM32L4xx_HAL_Driver/Src/stm32l4xx_hal_dfsdm.c **** 
 435:Drivers/STM32L4xx_HAL_Driver/Src/stm32l4xx_hal_dfsdm.c ****   /* Set serial interface parameters */
 436:Drivers/STM32L4xx_HAL_Driver/Src/stm32l4xx_hal_dfsdm.c ****   hdfsdm_channel->Instance->CHCFGR1 &= ~(DFSDM_CHCFGR1_SITP | DFSDM_CHCFGR1_SPICKSEL);
ARM GAS  /tmp/ccrDNuCE.s 			page 12


 190              		.loc 1 436 17
 191 00be 7B68     		ldr	r3, [r7, #4]
 192 00c0 1B68     		ldr	r3, [r3]
 193              		.loc 1 436 27
 194 00c2 1A68     		ldr	r2, [r3]
 195              		.loc 1 436 17
 196 00c4 7B68     		ldr	r3, [r7, #4]
 197 00c6 1B68     		ldr	r3, [r3]
 198              		.loc 1 436 37
 199 00c8 22F00F02 		bic	r2, r2, #15
 200 00cc 1A60     		str	r2, [r3]
 437:Drivers/STM32L4xx_HAL_Driver/Src/stm32l4xx_hal_dfsdm.c ****   hdfsdm_channel->Instance->CHCFGR1 |= (hdfsdm_channel->Init.SerialInterface.Type |
 201              		.loc 1 437 17
 202 00ce 7B68     		ldr	r3, [r7, #4]
 203 00d0 1B68     		ldr	r3, [r3]
 204              		.loc 1 437 27
 205 00d2 1968     		ldr	r1, [r3]
 206              		.loc 1 437 77
 207 00d4 7B68     		ldr	r3, [r7, #4]
 208 00d6 DA69     		ldr	r2, [r3, #28]
 438:Drivers/STM32L4xx_HAL_Driver/Src/stm32l4xx_hal_dfsdm.c ****                                         hdfsdm_channel->Init.SerialInterface.SpiClock);
 209              		.loc 1 438 77
 210 00d8 7B68     		ldr	r3, [r7, #4]
 211 00da 1B6A     		ldr	r3, [r3, #32]
 437:Drivers/STM32L4xx_HAL_Driver/Src/stm32l4xx_hal_dfsdm.c ****   hdfsdm_channel->Instance->CHCFGR1 |= (hdfsdm_channel->Init.SerialInterface.Type |
 212              		.loc 1 437 83
 213 00dc 1A43     		orrs	r2, r2, r3
 437:Drivers/STM32L4xx_HAL_Driver/Src/stm32l4xx_hal_dfsdm.c ****   hdfsdm_channel->Instance->CHCFGR1 |= (hdfsdm_channel->Init.SerialInterface.Type |
 214              		.loc 1 437 17
 215 00de 7B68     		ldr	r3, [r7, #4]
 216 00e0 1B68     		ldr	r3, [r3]
 437:Drivers/STM32L4xx_HAL_Driver/Src/stm32l4xx_hal_dfsdm.c ****   hdfsdm_channel->Instance->CHCFGR1 |= (hdfsdm_channel->Init.SerialInterface.Type |
 217              		.loc 1 437 37
 218 00e2 0A43     		orrs	r2, r2, r1
 219 00e4 1A60     		str	r2, [r3]
 439:Drivers/STM32L4xx_HAL_Driver/Src/stm32l4xx_hal_dfsdm.c **** 
 440:Drivers/STM32L4xx_HAL_Driver/Src/stm32l4xx_hal_dfsdm.c ****   /* Set analog watchdog parameters */
 441:Drivers/STM32L4xx_HAL_Driver/Src/stm32l4xx_hal_dfsdm.c ****   hdfsdm_channel->Instance->CHAWSCDR &= ~(DFSDM_CHAWSCDR_AWFORD | DFSDM_CHAWSCDR_AWFOSR);
 220              		.loc 1 441 17
 221 00e6 7B68     		ldr	r3, [r7, #4]
 222 00e8 1B68     		ldr	r3, [r3]
 223              		.loc 1 441 27
 224 00ea 9A68     		ldr	r2, [r3, #8]
 225              		.loc 1 441 17
 226 00ec 7B68     		ldr	r3, [r7, #4]
 227 00ee 1B68     		ldr	r3, [r3]
 228              		.loc 1 441 38
 229 00f0 22F45F02 		bic	r2, r2, #14614528
 230 00f4 9A60     		str	r2, [r3, #8]
 442:Drivers/STM32L4xx_HAL_Driver/Src/stm32l4xx_hal_dfsdm.c ****   hdfsdm_channel->Instance->CHAWSCDR |= (hdfsdm_channel->Init.Awd.FilterOrder |
 231              		.loc 1 442 17
 232 00f6 7B68     		ldr	r3, [r7, #4]
 233 00f8 1B68     		ldr	r3, [r3]
 234              		.loc 1 442 27
 235 00fa 9968     		ldr	r1, [r3, #8]
 236              		.loc 1 442 66
 237 00fc 7B68     		ldr	r3, [r7, #4]
ARM GAS  /tmp/ccrDNuCE.s 			page 13


 238 00fe 5A6A     		ldr	r2, [r3, #36]
 443:Drivers/STM32L4xx_HAL_Driver/Src/stm32l4xx_hal_dfsdm.c ****                                          ((hdfsdm_channel->Init.Awd.Oversampling - 1U) << DFSDM_CHA
 239              		.loc 1 443 68
 240 0100 7B68     		ldr	r3, [r7, #4]
 241 0102 9B6A     		ldr	r3, [r3, #40]
 242              		.loc 1 443 82
 243 0104 013B     		subs	r3, r3, #1
 244              		.loc 1 443 88
 245 0106 1B04     		lsls	r3, r3, #16
 442:Drivers/STM32L4xx_HAL_Driver/Src/stm32l4xx_hal_dfsdm.c ****   hdfsdm_channel->Instance->CHAWSCDR |= (hdfsdm_channel->Init.Awd.FilterOrder |
 246              		.loc 1 442 79
 247 0108 1A43     		orrs	r2, r2, r3
 442:Drivers/STM32L4xx_HAL_Driver/Src/stm32l4xx_hal_dfsdm.c ****   hdfsdm_channel->Instance->CHAWSCDR |= (hdfsdm_channel->Init.Awd.FilterOrder |
 248              		.loc 1 442 17
 249 010a 7B68     		ldr	r3, [r7, #4]
 250 010c 1B68     		ldr	r3, [r3]
 442:Drivers/STM32L4xx_HAL_Driver/Src/stm32l4xx_hal_dfsdm.c ****   hdfsdm_channel->Instance->CHAWSCDR |= (hdfsdm_channel->Init.Awd.FilterOrder |
 251              		.loc 1 442 38
 252 010e 0A43     		orrs	r2, r2, r1
 253 0110 9A60     		str	r2, [r3, #8]
 444:Drivers/STM32L4xx_HAL_Driver/Src/stm32l4xx_hal_dfsdm.c **** 
 445:Drivers/STM32L4xx_HAL_Driver/Src/stm32l4xx_hal_dfsdm.c ****   /* Set channel offset and right bit shift */
 446:Drivers/STM32L4xx_HAL_Driver/Src/stm32l4xx_hal_dfsdm.c ****   hdfsdm_channel->Instance->CHCFGR2 &= ~(DFSDM_CHCFGR2_OFFSET | DFSDM_CHCFGR2_DTRBS);
 254              		.loc 1 446 17
 255 0112 7B68     		ldr	r3, [r7, #4]
 256 0114 1B68     		ldr	r3, [r3]
 257              		.loc 1 446 27
 258 0116 5A68     		ldr	r2, [r3, #4]
 259              		.loc 1 446 17
 260 0118 7B68     		ldr	r3, [r7, #4]
 261 011a 1B68     		ldr	r3, [r3]
 262              		.loc 1 446 37
 263 011c 02F00702 		and	r2, r2, #7
 264 0120 5A60     		str	r2, [r3, #4]
 447:Drivers/STM32L4xx_HAL_Driver/Src/stm32l4xx_hal_dfsdm.c ****   hdfsdm_channel->Instance->CHCFGR2 |= (((uint32_t) hdfsdm_channel->Init.Offset << DFSDM_CHCFGR2_OF
 265              		.loc 1 447 17
 266 0122 7B68     		ldr	r3, [r7, #4]
 267 0124 1B68     		ldr	r3, [r3]
 268              		.loc 1 447 27
 269 0126 5968     		ldr	r1, [r3, #4]
 270              		.loc 1 447 73
 271 0128 7B68     		ldr	r3, [r7, #4]
 272 012a DB6A     		ldr	r3, [r3, #44]
 273              		.loc 1 447 81
 274 012c 1A02     		lsls	r2, r3, #8
 448:Drivers/STM32L4xx_HAL_Driver/Src/stm32l4xx_hal_dfsdm.c ****                                         (hdfsdm_channel->Init.RightBitShift << DFSDM_CHCFGR2_DTRBS_
 275              		.loc 1 448 62
 276 012e 7B68     		ldr	r3, [r7, #4]
 277 0130 1B6B     		ldr	r3, [r3, #48]
 278              		.loc 1 448 77
 279 0132 DB00     		lsls	r3, r3, #3
 447:Drivers/STM32L4xx_HAL_Driver/Src/stm32l4xx_hal_dfsdm.c ****   hdfsdm_channel->Instance->CHCFGR2 |= (((uint32_t) hdfsdm_channel->Init.Offset << DFSDM_CHCFGR2_OF
 280              		.loc 1 447 110
 281 0134 1A43     		orrs	r2, r2, r3
 447:Drivers/STM32L4xx_HAL_Driver/Src/stm32l4xx_hal_dfsdm.c ****   hdfsdm_channel->Instance->CHCFGR2 |= (((uint32_t) hdfsdm_channel->Init.Offset << DFSDM_CHCFGR2_OF
 282              		.loc 1 447 17
 283 0136 7B68     		ldr	r3, [r7, #4]
ARM GAS  /tmp/ccrDNuCE.s 			page 14


 284 0138 1B68     		ldr	r3, [r3]
 447:Drivers/STM32L4xx_HAL_Driver/Src/stm32l4xx_hal_dfsdm.c ****   hdfsdm_channel->Instance->CHCFGR2 |= (((uint32_t) hdfsdm_channel->Init.Offset << DFSDM_CHCFGR2_OF
 285              		.loc 1 447 37
 286 013a 0A43     		orrs	r2, r2, r1
 287 013c 5A60     		str	r2, [r3, #4]
 449:Drivers/STM32L4xx_HAL_Driver/Src/stm32l4xx_hal_dfsdm.c **** 
 450:Drivers/STM32L4xx_HAL_Driver/Src/stm32l4xx_hal_dfsdm.c ****   /* Enable DFSDM channel */
 451:Drivers/STM32L4xx_HAL_Driver/Src/stm32l4xx_hal_dfsdm.c ****   hdfsdm_channel->Instance->CHCFGR1 |= DFSDM_CHCFGR1_CHEN;
 288              		.loc 1 451 17
 289 013e 7B68     		ldr	r3, [r7, #4]
 290 0140 1B68     		ldr	r3, [r3]
 291              		.loc 1 451 27
 292 0142 1A68     		ldr	r2, [r3]
 293              		.loc 1 451 17
 294 0144 7B68     		ldr	r3, [r7, #4]
 295 0146 1B68     		ldr	r3, [r3]
 296              		.loc 1 451 37
 297 0148 42F08002 		orr	r2, r2, #128
 298 014c 1A60     		str	r2, [r3]
 452:Drivers/STM32L4xx_HAL_Driver/Src/stm32l4xx_hal_dfsdm.c **** 
 453:Drivers/STM32L4xx_HAL_Driver/Src/stm32l4xx_hal_dfsdm.c ****   /* Set DFSDM Channel to ready state */
 454:Drivers/STM32L4xx_HAL_Driver/Src/stm32l4xx_hal_dfsdm.c ****   hdfsdm_channel->State = HAL_DFSDM_CHANNEL_STATE_READY;
 299              		.loc 1 454 25
 300 014e 7B68     		ldr	r3, [r7, #4]
 301 0150 0122     		movs	r2, #1
 302 0152 83F83420 		strb	r2, [r3, #52]
 455:Drivers/STM32L4xx_HAL_Driver/Src/stm32l4xx_hal_dfsdm.c **** 
 456:Drivers/STM32L4xx_HAL_Driver/Src/stm32l4xx_hal_dfsdm.c ****   /* Store channel handle in DFSDM channel handle table */
 457:Drivers/STM32L4xx_HAL_Driver/Src/stm32l4xx_hal_dfsdm.c ****   a_dfsdm1ChannelHandle[DFSDM_GetChannelFromInstance(hdfsdm_channel->Instance)] = hdfsdm_channel;
 303              		.loc 1 457 68
 304 0156 7B68     		ldr	r3, [r7, #4]
 305 0158 1B68     		ldr	r3, [r3]
 306              		.loc 1 457 25
 307 015a 1846     		mov	r0, r3
 308 015c FFF7FEFF 		bl	DFSDM_GetChannelFromInstance
 309 0160 0246     		mov	r2, r0
 310              		.loc 1 457 81 discriminator 1
 311 0162 0449     		ldr	r1, .L7
 312 0164 7B68     		ldr	r3, [r7, #4]
 313 0166 41F82230 		str	r3, [r1, r2, lsl #2]
 458:Drivers/STM32L4xx_HAL_Driver/Src/stm32l4xx_hal_dfsdm.c **** 
 459:Drivers/STM32L4xx_HAL_Driver/Src/stm32l4xx_hal_dfsdm.c ****   return HAL_OK;
 314              		.loc 1 459 10
 315 016a 0023     		movs	r3, #0
 316              	.L3:
 460:Drivers/STM32L4xx_HAL_Driver/Src/stm32l4xx_hal_dfsdm.c **** }
 317              		.loc 1 460 1
 318 016c 1846     		mov	r0, r3
 319 016e 0837     		adds	r7, r7, #8
 320              		.cfi_def_cfa_offset 8
 321 0170 BD46     		mov	sp, r7
 322              		.cfi_def_cfa_register 13
 323              		@ sp needed
 324 0172 80BD     		pop	{r7, pc}
 325              	.L8:
 326              		.align	2
 327              	.L7:
ARM GAS  /tmp/ccrDNuCE.s 			page 15


 328 0174 00000000 		.word	a_dfsdm1ChannelHandle
 329 0178 00000000 		.word	v_dfsdm1ChannelCounter
 330 017c 00600140 		.word	1073831936
 331              		.cfi_endproc
 332              	.LFE445:
 334              		.section	.text.HAL_DFSDM_ChannelDeInit,"ax",%progbits
 335              		.align	1
 336              		.global	HAL_DFSDM_ChannelDeInit
 337              		.syntax unified
 338              		.thumb
 339              		.thumb_func
 341              	HAL_DFSDM_ChannelDeInit:
 342              	.LFB446:
 461:Drivers/STM32L4xx_HAL_Driver/Src/stm32l4xx_hal_dfsdm.c **** 
 462:Drivers/STM32L4xx_HAL_Driver/Src/stm32l4xx_hal_dfsdm.c **** /**
 463:Drivers/STM32L4xx_HAL_Driver/Src/stm32l4xx_hal_dfsdm.c ****   * @brief  De-initialize the DFSDM channel.
 464:Drivers/STM32L4xx_HAL_Driver/Src/stm32l4xx_hal_dfsdm.c ****   * @param  hdfsdm_channel DFSDM channel handle.
 465:Drivers/STM32L4xx_HAL_Driver/Src/stm32l4xx_hal_dfsdm.c ****   * @retval HAL status.
 466:Drivers/STM32L4xx_HAL_Driver/Src/stm32l4xx_hal_dfsdm.c ****   */
 467:Drivers/STM32L4xx_HAL_Driver/Src/stm32l4xx_hal_dfsdm.c **** HAL_StatusTypeDef HAL_DFSDM_ChannelDeInit(DFSDM_Channel_HandleTypeDef *hdfsdm_channel)
 468:Drivers/STM32L4xx_HAL_Driver/Src/stm32l4xx_hal_dfsdm.c **** {
 343              		.loc 1 468 1
 344              		.cfi_startproc
 345              		@ args = 0, pretend = 0, frame = 8
 346              		@ frame_needed = 1, uses_anonymous_args = 0
 347 0000 80B5     		push	{r7, lr}
 348              		.cfi_def_cfa_offset 8
 349              		.cfi_offset 7, -8
 350              		.cfi_offset 14, -4
 351 0002 82B0     		sub	sp, sp, #8
 352              		.cfi_def_cfa_offset 16
 353 0004 00AF     		add	r7, sp, #0
 354              		.cfi_def_cfa_register 7
 355 0006 7860     		str	r0, [r7, #4]
 469:Drivers/STM32L4xx_HAL_Driver/Src/stm32l4xx_hal_dfsdm.c ****   /* Check DFSDM Channel handle */
 470:Drivers/STM32L4xx_HAL_Driver/Src/stm32l4xx_hal_dfsdm.c ****   if (hdfsdm_channel == NULL)
 356              		.loc 1 470 6
 357 0008 7B68     		ldr	r3, [r7, #4]
 358 000a 002B     		cmp	r3, #0
 359 000c 01D1     		bne	.L10
 471:Drivers/STM32L4xx_HAL_Driver/Src/stm32l4xx_hal_dfsdm.c ****   {
 472:Drivers/STM32L4xx_HAL_Driver/Src/stm32l4xx_hal_dfsdm.c ****     return HAL_ERROR;
 360              		.loc 1 472 12
 361 000e 0123     		movs	r3, #1
 362 0010 35E0     		b	.L11
 363              	.L10:
 473:Drivers/STM32L4xx_HAL_Driver/Src/stm32l4xx_hal_dfsdm.c ****   }
 474:Drivers/STM32L4xx_HAL_Driver/Src/stm32l4xx_hal_dfsdm.c **** 
 475:Drivers/STM32L4xx_HAL_Driver/Src/stm32l4xx_hal_dfsdm.c ****   /* Check parameters */
 476:Drivers/STM32L4xx_HAL_Driver/Src/stm32l4xx_hal_dfsdm.c ****   assert_param(IS_DFSDM_CHANNEL_ALL_INSTANCE(hdfsdm_channel->Instance));
 477:Drivers/STM32L4xx_HAL_Driver/Src/stm32l4xx_hal_dfsdm.c **** 
 478:Drivers/STM32L4xx_HAL_Driver/Src/stm32l4xx_hal_dfsdm.c ****   /* Check that channel has not been already deinitialized */
 479:Drivers/STM32L4xx_HAL_Driver/Src/stm32l4xx_hal_dfsdm.c ****   if (a_dfsdm1ChannelHandle[DFSDM_GetChannelFromInstance(hdfsdm_channel->Instance)] == NULL)
 364              		.loc 1 479 72
 365 0012 7B68     		ldr	r3, [r7, #4]
 366 0014 1B68     		ldr	r3, [r3]
 367              		.loc 1 479 29
ARM GAS  /tmp/ccrDNuCE.s 			page 16


 368 0016 1846     		mov	r0, r3
 369 0018 FFF7FEFF 		bl	DFSDM_GetChannelFromInstance
 370 001c 0346     		mov	r3, r0
 371              		.loc 1 479 28 discriminator 1
 372 001e 1A4A     		ldr	r2, .L14
 373 0020 52F82330 		ldr	r3, [r2, r3, lsl #2]
 374              		.loc 1 479 6 discriminator 1
 375 0024 002B     		cmp	r3, #0
 376 0026 01D1     		bne	.L12
 480:Drivers/STM32L4xx_HAL_Driver/Src/stm32l4xx_hal_dfsdm.c ****   {
 481:Drivers/STM32L4xx_HAL_Driver/Src/stm32l4xx_hal_dfsdm.c ****     return HAL_ERROR;
 377              		.loc 1 481 12
 378 0028 0123     		movs	r3, #1
 379 002a 28E0     		b	.L11
 380              	.L12:
 482:Drivers/STM32L4xx_HAL_Driver/Src/stm32l4xx_hal_dfsdm.c ****   }
 483:Drivers/STM32L4xx_HAL_Driver/Src/stm32l4xx_hal_dfsdm.c **** 
 484:Drivers/STM32L4xx_HAL_Driver/Src/stm32l4xx_hal_dfsdm.c ****   /* Disable the DFSDM channel */
 485:Drivers/STM32L4xx_HAL_Driver/Src/stm32l4xx_hal_dfsdm.c ****   hdfsdm_channel->Instance->CHCFGR1 &= ~(DFSDM_CHCFGR1_CHEN);
 381              		.loc 1 485 17
 382 002c 7B68     		ldr	r3, [r7, #4]
 383 002e 1B68     		ldr	r3, [r3]
 384              		.loc 1 485 27
 385 0030 1A68     		ldr	r2, [r3]
 386              		.loc 1 485 17
 387 0032 7B68     		ldr	r3, [r7, #4]
 388 0034 1B68     		ldr	r3, [r3]
 389              		.loc 1 485 37
 390 0036 22F08002 		bic	r2, r2, #128
 391 003a 1A60     		str	r2, [r3]
 486:Drivers/STM32L4xx_HAL_Driver/Src/stm32l4xx_hal_dfsdm.c **** 
 487:Drivers/STM32L4xx_HAL_Driver/Src/stm32l4xx_hal_dfsdm.c ****   /* Update the channel counter */
 488:Drivers/STM32L4xx_HAL_Driver/Src/stm32l4xx_hal_dfsdm.c ****   v_dfsdm1ChannelCounter--;
 392              		.loc 1 488 25
 393 003c 134B     		ldr	r3, .L14+4
 394 003e 1B68     		ldr	r3, [r3]
 395 0040 013B     		subs	r3, r3, #1
 396 0042 124A     		ldr	r2, .L14+4
 397 0044 1360     		str	r3, [r2]
 489:Drivers/STM32L4xx_HAL_Driver/Src/stm32l4xx_hal_dfsdm.c **** 
 490:Drivers/STM32L4xx_HAL_Driver/Src/stm32l4xx_hal_dfsdm.c ****   /* Disable global DFSDM at deinit of last channel */
 491:Drivers/STM32L4xx_HAL_Driver/Src/stm32l4xx_hal_dfsdm.c ****   if (v_dfsdm1ChannelCounter == 0U)
 398              		.loc 1 491 30
 399 0046 114B     		ldr	r3, .L14+4
 400 0048 1B68     		ldr	r3, [r3]
 401              		.loc 1 491 6
 402 004a 002B     		cmp	r3, #0
 403 004c 05D1     		bne	.L13
 492:Drivers/STM32L4xx_HAL_Driver/Src/stm32l4xx_hal_dfsdm.c ****   {
 493:Drivers/STM32L4xx_HAL_Driver/Src/stm32l4xx_hal_dfsdm.c ****     DFSDM1_Channel0->CHCFGR1 &= ~(DFSDM_CHCFGR1_DFSDMEN);
 404              		.loc 1 493 20
 405 004e 104B     		ldr	r3, .L14+8
 406 0050 1B68     		ldr	r3, [r3]
 407 0052 0F4A     		ldr	r2, .L14+8
 408              		.loc 1 493 30
 409 0054 23F00043 		bic	r3, r3, #-2147483648
 410 0058 1360     		str	r3, [r2]
ARM GAS  /tmp/ccrDNuCE.s 			page 17


 411              	.L13:
 494:Drivers/STM32L4xx_HAL_Driver/Src/stm32l4xx_hal_dfsdm.c ****   }
 495:Drivers/STM32L4xx_HAL_Driver/Src/stm32l4xx_hal_dfsdm.c **** 
 496:Drivers/STM32L4xx_HAL_Driver/Src/stm32l4xx_hal_dfsdm.c ****   /* Call MSP deinit function */
 497:Drivers/STM32L4xx_HAL_Driver/Src/stm32l4xx_hal_dfsdm.c **** #if (USE_HAL_DFSDM_REGISTER_CALLBACKS == 1)
 498:Drivers/STM32L4xx_HAL_Driver/Src/stm32l4xx_hal_dfsdm.c ****   if (hdfsdm_channel->MspDeInitCallback == NULL)
 499:Drivers/STM32L4xx_HAL_Driver/Src/stm32l4xx_hal_dfsdm.c ****   {
 500:Drivers/STM32L4xx_HAL_Driver/Src/stm32l4xx_hal_dfsdm.c ****     hdfsdm_channel->MspDeInitCallback = HAL_DFSDM_ChannelMspDeInit;
 501:Drivers/STM32L4xx_HAL_Driver/Src/stm32l4xx_hal_dfsdm.c ****   }
 502:Drivers/STM32L4xx_HAL_Driver/Src/stm32l4xx_hal_dfsdm.c ****   hdfsdm_channel->MspDeInitCallback(hdfsdm_channel);
 503:Drivers/STM32L4xx_HAL_Driver/Src/stm32l4xx_hal_dfsdm.c **** #else
 504:Drivers/STM32L4xx_HAL_Driver/Src/stm32l4xx_hal_dfsdm.c ****   HAL_DFSDM_ChannelMspDeInit(hdfsdm_channel);
 412              		.loc 1 504 3
 413 005a 7868     		ldr	r0, [r7, #4]
 414 005c FFF7FEFF 		bl	HAL_DFSDM_ChannelMspDeInit
 505:Drivers/STM32L4xx_HAL_Driver/Src/stm32l4xx_hal_dfsdm.c **** #endif
 506:Drivers/STM32L4xx_HAL_Driver/Src/stm32l4xx_hal_dfsdm.c **** 
 507:Drivers/STM32L4xx_HAL_Driver/Src/stm32l4xx_hal_dfsdm.c ****   /* Set DFSDM Channel in reset state */
 508:Drivers/STM32L4xx_HAL_Driver/Src/stm32l4xx_hal_dfsdm.c ****   hdfsdm_channel->State = HAL_DFSDM_CHANNEL_STATE_RESET;
 415              		.loc 1 508 25
 416 0060 7B68     		ldr	r3, [r7, #4]
 417 0062 0022     		movs	r2, #0
 418 0064 83F83420 		strb	r2, [r3, #52]
 509:Drivers/STM32L4xx_HAL_Driver/Src/stm32l4xx_hal_dfsdm.c **** 
 510:Drivers/STM32L4xx_HAL_Driver/Src/stm32l4xx_hal_dfsdm.c ****   /* Reset channel handle in DFSDM channel handle table */
 511:Drivers/STM32L4xx_HAL_Driver/Src/stm32l4xx_hal_dfsdm.c ****   a_dfsdm1ChannelHandle[DFSDM_GetChannelFromInstance(hdfsdm_channel->Instance)] = (DFSDM_Channel_Ha
 419              		.loc 1 511 68
 420 0068 7B68     		ldr	r3, [r7, #4]
 421 006a 1B68     		ldr	r3, [r3]
 422              		.loc 1 511 25
 423 006c 1846     		mov	r0, r3
 424 006e FFF7FEFF 		bl	DFSDM_GetChannelFromInstance
 425 0072 0346     		mov	r3, r0
 426              		.loc 1 511 81 discriminator 1
 427 0074 044A     		ldr	r2, .L14
 428 0076 0021     		movs	r1, #0
 429 0078 42F82310 		str	r1, [r2, r3, lsl #2]
 512:Drivers/STM32L4xx_HAL_Driver/Src/stm32l4xx_hal_dfsdm.c **** 
 513:Drivers/STM32L4xx_HAL_Driver/Src/stm32l4xx_hal_dfsdm.c ****   return HAL_OK;
 430              		.loc 1 513 10
 431 007c 0023     		movs	r3, #0
 432              	.L11:
 514:Drivers/STM32L4xx_HAL_Driver/Src/stm32l4xx_hal_dfsdm.c **** }
 433              		.loc 1 514 1
 434 007e 1846     		mov	r0, r3
 435 0080 0837     		adds	r7, r7, #8
 436              		.cfi_def_cfa_offset 8
 437 0082 BD46     		mov	sp, r7
 438              		.cfi_def_cfa_register 13
 439              		@ sp needed
 440 0084 80BD     		pop	{r7, pc}
 441              	.L15:
 442 0086 00BF     		.align	2
 443              	.L14:
 444 0088 00000000 		.word	a_dfsdm1ChannelHandle
 445 008c 00000000 		.word	v_dfsdm1ChannelCounter
 446 0090 00600140 		.word	1073831936
ARM GAS  /tmp/ccrDNuCE.s 			page 18


 447              		.cfi_endproc
 448              	.LFE446:
 450              		.section	.text.HAL_DFSDM_ChannelMspInit,"ax",%progbits
 451              		.align	1
 452              		.weak	HAL_DFSDM_ChannelMspInit
 453              		.syntax unified
 454              		.thumb
 455              		.thumb_func
 457              	HAL_DFSDM_ChannelMspInit:
 458              	.LFB447:
 515:Drivers/STM32L4xx_HAL_Driver/Src/stm32l4xx_hal_dfsdm.c **** 
 516:Drivers/STM32L4xx_HAL_Driver/Src/stm32l4xx_hal_dfsdm.c **** /**
 517:Drivers/STM32L4xx_HAL_Driver/Src/stm32l4xx_hal_dfsdm.c ****   * @brief  Initialize the DFSDM channel MSP.
 518:Drivers/STM32L4xx_HAL_Driver/Src/stm32l4xx_hal_dfsdm.c ****   * @param  hdfsdm_channel DFSDM channel handle.
 519:Drivers/STM32L4xx_HAL_Driver/Src/stm32l4xx_hal_dfsdm.c ****   * @retval None
 520:Drivers/STM32L4xx_HAL_Driver/Src/stm32l4xx_hal_dfsdm.c ****   */
 521:Drivers/STM32L4xx_HAL_Driver/Src/stm32l4xx_hal_dfsdm.c **** __weak void HAL_DFSDM_ChannelMspInit(DFSDM_Channel_HandleTypeDef *hdfsdm_channel)
 522:Drivers/STM32L4xx_HAL_Driver/Src/stm32l4xx_hal_dfsdm.c **** {
 459              		.loc 1 522 1
 460              		.cfi_startproc
 461              		@ args = 0, pretend = 0, frame = 8
 462              		@ frame_needed = 1, uses_anonymous_args = 0
 463              		@ link register save eliminated.
 464 0000 80B4     		push	{r7}
 465              		.cfi_def_cfa_offset 4
 466              		.cfi_offset 7, -4
 467 0002 83B0     		sub	sp, sp, #12
 468              		.cfi_def_cfa_offset 16
 469 0004 00AF     		add	r7, sp, #0
 470              		.cfi_def_cfa_register 7
 471 0006 7860     		str	r0, [r7, #4]
 523:Drivers/STM32L4xx_HAL_Driver/Src/stm32l4xx_hal_dfsdm.c ****   /* Prevent unused argument(s) compilation warning */
 524:Drivers/STM32L4xx_HAL_Driver/Src/stm32l4xx_hal_dfsdm.c ****   UNUSED(hdfsdm_channel);
 525:Drivers/STM32L4xx_HAL_Driver/Src/stm32l4xx_hal_dfsdm.c **** 
 526:Drivers/STM32L4xx_HAL_Driver/Src/stm32l4xx_hal_dfsdm.c ****   /* NOTE : This function should not be modified, when the function is needed,
 527:Drivers/STM32L4xx_HAL_Driver/Src/stm32l4xx_hal_dfsdm.c ****             the HAL_DFSDM_ChannelMspInit could be implemented in the user file.
 528:Drivers/STM32L4xx_HAL_Driver/Src/stm32l4xx_hal_dfsdm.c ****    */
 529:Drivers/STM32L4xx_HAL_Driver/Src/stm32l4xx_hal_dfsdm.c **** }
 472              		.loc 1 529 1
 473 0008 00BF     		nop
 474 000a 0C37     		adds	r7, r7, #12
 475              		.cfi_def_cfa_offset 4
 476 000c BD46     		mov	sp, r7
 477              		.cfi_def_cfa_register 13
 478              		@ sp needed
 479 000e 5DF8047B 		ldr	r7, [sp], #4
 480              		.cfi_restore 7
 481              		.cfi_def_cfa_offset 0
 482 0012 7047     		bx	lr
 483              		.cfi_endproc
 484              	.LFE447:
 486              		.section	.text.HAL_DFSDM_ChannelMspDeInit,"ax",%progbits
 487              		.align	1
 488              		.weak	HAL_DFSDM_ChannelMspDeInit
 489              		.syntax unified
 490              		.thumb
 491              		.thumb_func
ARM GAS  /tmp/ccrDNuCE.s 			page 19


 493              	HAL_DFSDM_ChannelMspDeInit:
 494              	.LFB448:
 530:Drivers/STM32L4xx_HAL_Driver/Src/stm32l4xx_hal_dfsdm.c **** 
 531:Drivers/STM32L4xx_HAL_Driver/Src/stm32l4xx_hal_dfsdm.c **** /**
 532:Drivers/STM32L4xx_HAL_Driver/Src/stm32l4xx_hal_dfsdm.c ****   * @brief  De-initialize the DFSDM channel MSP.
 533:Drivers/STM32L4xx_HAL_Driver/Src/stm32l4xx_hal_dfsdm.c ****   * @param  hdfsdm_channel DFSDM channel handle.
 534:Drivers/STM32L4xx_HAL_Driver/Src/stm32l4xx_hal_dfsdm.c ****   * @retval None
 535:Drivers/STM32L4xx_HAL_Driver/Src/stm32l4xx_hal_dfsdm.c ****   */
 536:Drivers/STM32L4xx_HAL_Driver/Src/stm32l4xx_hal_dfsdm.c **** __weak void HAL_DFSDM_ChannelMspDeInit(DFSDM_Channel_HandleTypeDef *hdfsdm_channel)
 537:Drivers/STM32L4xx_HAL_Driver/Src/stm32l4xx_hal_dfsdm.c **** {
 495              		.loc 1 537 1
 496              		.cfi_startproc
 497              		@ args = 0, pretend = 0, frame = 8
 498              		@ frame_needed = 1, uses_anonymous_args = 0
 499              		@ link register save eliminated.
 500 0000 80B4     		push	{r7}
 501              		.cfi_def_cfa_offset 4
 502              		.cfi_offset 7, -4
 503 0002 83B0     		sub	sp, sp, #12
 504              		.cfi_def_cfa_offset 16
 505 0004 00AF     		add	r7, sp, #0
 506              		.cfi_def_cfa_register 7
 507 0006 7860     		str	r0, [r7, #4]
 538:Drivers/STM32L4xx_HAL_Driver/Src/stm32l4xx_hal_dfsdm.c ****   /* Prevent unused argument(s) compilation warning */
 539:Drivers/STM32L4xx_HAL_Driver/Src/stm32l4xx_hal_dfsdm.c ****   UNUSED(hdfsdm_channel);
 540:Drivers/STM32L4xx_HAL_Driver/Src/stm32l4xx_hal_dfsdm.c **** 
 541:Drivers/STM32L4xx_HAL_Driver/Src/stm32l4xx_hal_dfsdm.c ****   /* NOTE : This function should not be modified, when the function is needed,
 542:Drivers/STM32L4xx_HAL_Driver/Src/stm32l4xx_hal_dfsdm.c ****             the HAL_DFSDM_ChannelMspDeInit could be implemented in the user file.
 543:Drivers/STM32L4xx_HAL_Driver/Src/stm32l4xx_hal_dfsdm.c ****    */
 544:Drivers/STM32L4xx_HAL_Driver/Src/stm32l4xx_hal_dfsdm.c **** }
 508              		.loc 1 544 1
 509 0008 00BF     		nop
 510 000a 0C37     		adds	r7, r7, #12
 511              		.cfi_def_cfa_offset 4
 512 000c BD46     		mov	sp, r7
 513              		.cfi_def_cfa_register 13
 514              		@ sp needed
 515 000e 5DF8047B 		ldr	r7, [sp], #4
 516              		.cfi_restore 7
 517              		.cfi_def_cfa_offset 0
 518 0012 7047     		bx	lr
 519              		.cfi_endproc
 520              	.LFE448:
 522              		.section	.text.HAL_DFSDM_ChannelCkabStart,"ax",%progbits
 523              		.align	1
 524              		.global	HAL_DFSDM_ChannelCkabStart
 525              		.syntax unified
 526              		.thumb
 527              		.thumb_func
 529              	HAL_DFSDM_ChannelCkabStart:
 530              	.LFB449:
 545:Drivers/STM32L4xx_HAL_Driver/Src/stm32l4xx_hal_dfsdm.c **** 
 546:Drivers/STM32L4xx_HAL_Driver/Src/stm32l4xx_hal_dfsdm.c **** #if (USE_HAL_DFSDM_REGISTER_CALLBACKS == 1)
 547:Drivers/STM32L4xx_HAL_Driver/Src/stm32l4xx_hal_dfsdm.c **** /**
 548:Drivers/STM32L4xx_HAL_Driver/Src/stm32l4xx_hal_dfsdm.c ****   * @brief  Register a user DFSDM channel callback
 549:Drivers/STM32L4xx_HAL_Driver/Src/stm32l4xx_hal_dfsdm.c ****   *         to be used instead of the weak predefined callback.
 550:Drivers/STM32L4xx_HAL_Driver/Src/stm32l4xx_hal_dfsdm.c ****   * @param  hdfsdm_channel DFSDM channel handle.
ARM GAS  /tmp/ccrDNuCE.s 			page 20


 551:Drivers/STM32L4xx_HAL_Driver/Src/stm32l4xx_hal_dfsdm.c ****   * @param  CallbackID ID of the callback to be registered.
 552:Drivers/STM32L4xx_HAL_Driver/Src/stm32l4xx_hal_dfsdm.c ****   *         This parameter can be one of the following values:
 553:Drivers/STM32L4xx_HAL_Driver/Src/stm32l4xx_hal_dfsdm.c ****   *           @arg @ref HAL_DFSDM_CHANNEL_CKAB_CB_ID clock absence detection callback ID.
 554:Drivers/STM32L4xx_HAL_Driver/Src/stm32l4xx_hal_dfsdm.c ****   *           @arg @ref HAL_DFSDM_CHANNEL_SCD_CB_ID short circuit detection callback ID.
 555:Drivers/STM32L4xx_HAL_Driver/Src/stm32l4xx_hal_dfsdm.c ****   *           @arg @ref HAL_DFSDM_CHANNEL_MSPINIT_CB_ID MSP init callback ID.
 556:Drivers/STM32L4xx_HAL_Driver/Src/stm32l4xx_hal_dfsdm.c ****   *           @arg @ref HAL_DFSDM_CHANNEL_MSPDEINIT_CB_ID MSP de-init callback ID.
 557:Drivers/STM32L4xx_HAL_Driver/Src/stm32l4xx_hal_dfsdm.c ****   * @param  pCallback pointer to the callback function.
 558:Drivers/STM32L4xx_HAL_Driver/Src/stm32l4xx_hal_dfsdm.c ****   * @retval HAL status.
 559:Drivers/STM32L4xx_HAL_Driver/Src/stm32l4xx_hal_dfsdm.c ****   */
 560:Drivers/STM32L4xx_HAL_Driver/Src/stm32l4xx_hal_dfsdm.c **** HAL_StatusTypeDef HAL_DFSDM_Channel_RegisterCallback(DFSDM_Channel_HandleTypeDef        *hdfsdm_cha
 561:Drivers/STM32L4xx_HAL_Driver/Src/stm32l4xx_hal_dfsdm.c ****                                                      HAL_DFSDM_Channel_CallbackIDTypeDef CallbackID
 562:Drivers/STM32L4xx_HAL_Driver/Src/stm32l4xx_hal_dfsdm.c ****                                                      pDFSDM_Channel_CallbackTypeDef      pCallback)
 563:Drivers/STM32L4xx_HAL_Driver/Src/stm32l4xx_hal_dfsdm.c **** {
 564:Drivers/STM32L4xx_HAL_Driver/Src/stm32l4xx_hal_dfsdm.c ****   HAL_StatusTypeDef status = HAL_OK;
 565:Drivers/STM32L4xx_HAL_Driver/Src/stm32l4xx_hal_dfsdm.c **** 
 566:Drivers/STM32L4xx_HAL_Driver/Src/stm32l4xx_hal_dfsdm.c ****   if (pCallback == NULL)
 567:Drivers/STM32L4xx_HAL_Driver/Src/stm32l4xx_hal_dfsdm.c ****   {
 568:Drivers/STM32L4xx_HAL_Driver/Src/stm32l4xx_hal_dfsdm.c ****     /* update return status */
 569:Drivers/STM32L4xx_HAL_Driver/Src/stm32l4xx_hal_dfsdm.c ****     status = HAL_ERROR;
 570:Drivers/STM32L4xx_HAL_Driver/Src/stm32l4xx_hal_dfsdm.c ****   }
 571:Drivers/STM32L4xx_HAL_Driver/Src/stm32l4xx_hal_dfsdm.c ****   else
 572:Drivers/STM32L4xx_HAL_Driver/Src/stm32l4xx_hal_dfsdm.c ****   {
 573:Drivers/STM32L4xx_HAL_Driver/Src/stm32l4xx_hal_dfsdm.c ****     if (HAL_DFSDM_CHANNEL_STATE_READY == hdfsdm_channel->State)
 574:Drivers/STM32L4xx_HAL_Driver/Src/stm32l4xx_hal_dfsdm.c ****     {
 575:Drivers/STM32L4xx_HAL_Driver/Src/stm32l4xx_hal_dfsdm.c ****       switch (CallbackID)
 576:Drivers/STM32L4xx_HAL_Driver/Src/stm32l4xx_hal_dfsdm.c ****       {
 577:Drivers/STM32L4xx_HAL_Driver/Src/stm32l4xx_hal_dfsdm.c ****         case HAL_DFSDM_CHANNEL_CKAB_CB_ID :
 578:Drivers/STM32L4xx_HAL_Driver/Src/stm32l4xx_hal_dfsdm.c ****           hdfsdm_channel->CkabCallback = pCallback;
 579:Drivers/STM32L4xx_HAL_Driver/Src/stm32l4xx_hal_dfsdm.c ****           break;
 580:Drivers/STM32L4xx_HAL_Driver/Src/stm32l4xx_hal_dfsdm.c ****         case HAL_DFSDM_CHANNEL_SCD_CB_ID :
 581:Drivers/STM32L4xx_HAL_Driver/Src/stm32l4xx_hal_dfsdm.c ****           hdfsdm_channel->ScdCallback = pCallback;
 582:Drivers/STM32L4xx_HAL_Driver/Src/stm32l4xx_hal_dfsdm.c ****           break;
 583:Drivers/STM32L4xx_HAL_Driver/Src/stm32l4xx_hal_dfsdm.c ****         case HAL_DFSDM_CHANNEL_MSPINIT_CB_ID :
 584:Drivers/STM32L4xx_HAL_Driver/Src/stm32l4xx_hal_dfsdm.c ****           hdfsdm_channel->MspInitCallback = pCallback;
 585:Drivers/STM32L4xx_HAL_Driver/Src/stm32l4xx_hal_dfsdm.c ****           break;
 586:Drivers/STM32L4xx_HAL_Driver/Src/stm32l4xx_hal_dfsdm.c ****         case HAL_DFSDM_CHANNEL_MSPDEINIT_CB_ID :
 587:Drivers/STM32L4xx_HAL_Driver/Src/stm32l4xx_hal_dfsdm.c ****           hdfsdm_channel->MspDeInitCallback = pCallback;
 588:Drivers/STM32L4xx_HAL_Driver/Src/stm32l4xx_hal_dfsdm.c ****           break;
 589:Drivers/STM32L4xx_HAL_Driver/Src/stm32l4xx_hal_dfsdm.c ****         default :
 590:Drivers/STM32L4xx_HAL_Driver/Src/stm32l4xx_hal_dfsdm.c ****           /* update return status */
 591:Drivers/STM32L4xx_HAL_Driver/Src/stm32l4xx_hal_dfsdm.c ****           status = HAL_ERROR;
 592:Drivers/STM32L4xx_HAL_Driver/Src/stm32l4xx_hal_dfsdm.c ****           break;
 593:Drivers/STM32L4xx_HAL_Driver/Src/stm32l4xx_hal_dfsdm.c ****       }
 594:Drivers/STM32L4xx_HAL_Driver/Src/stm32l4xx_hal_dfsdm.c ****     }
 595:Drivers/STM32L4xx_HAL_Driver/Src/stm32l4xx_hal_dfsdm.c ****     else if (HAL_DFSDM_CHANNEL_STATE_RESET == hdfsdm_channel->State)
 596:Drivers/STM32L4xx_HAL_Driver/Src/stm32l4xx_hal_dfsdm.c ****     {
 597:Drivers/STM32L4xx_HAL_Driver/Src/stm32l4xx_hal_dfsdm.c ****       switch (CallbackID)
 598:Drivers/STM32L4xx_HAL_Driver/Src/stm32l4xx_hal_dfsdm.c ****       {
 599:Drivers/STM32L4xx_HAL_Driver/Src/stm32l4xx_hal_dfsdm.c ****         case HAL_DFSDM_CHANNEL_MSPINIT_CB_ID :
 600:Drivers/STM32L4xx_HAL_Driver/Src/stm32l4xx_hal_dfsdm.c ****           hdfsdm_channel->MspInitCallback = pCallback;
 601:Drivers/STM32L4xx_HAL_Driver/Src/stm32l4xx_hal_dfsdm.c ****           break;
 602:Drivers/STM32L4xx_HAL_Driver/Src/stm32l4xx_hal_dfsdm.c ****         case HAL_DFSDM_CHANNEL_MSPDEINIT_CB_ID :
 603:Drivers/STM32L4xx_HAL_Driver/Src/stm32l4xx_hal_dfsdm.c ****           hdfsdm_channel->MspDeInitCallback = pCallback;
 604:Drivers/STM32L4xx_HAL_Driver/Src/stm32l4xx_hal_dfsdm.c ****           break;
 605:Drivers/STM32L4xx_HAL_Driver/Src/stm32l4xx_hal_dfsdm.c ****         default :
 606:Drivers/STM32L4xx_HAL_Driver/Src/stm32l4xx_hal_dfsdm.c ****           /* update return status */
 607:Drivers/STM32L4xx_HAL_Driver/Src/stm32l4xx_hal_dfsdm.c ****           status = HAL_ERROR;
ARM GAS  /tmp/ccrDNuCE.s 			page 21


 608:Drivers/STM32L4xx_HAL_Driver/Src/stm32l4xx_hal_dfsdm.c ****           break;
 609:Drivers/STM32L4xx_HAL_Driver/Src/stm32l4xx_hal_dfsdm.c ****       }
 610:Drivers/STM32L4xx_HAL_Driver/Src/stm32l4xx_hal_dfsdm.c ****     }
 611:Drivers/STM32L4xx_HAL_Driver/Src/stm32l4xx_hal_dfsdm.c ****     else
 612:Drivers/STM32L4xx_HAL_Driver/Src/stm32l4xx_hal_dfsdm.c ****     {
 613:Drivers/STM32L4xx_HAL_Driver/Src/stm32l4xx_hal_dfsdm.c ****       /* update return status */
 614:Drivers/STM32L4xx_HAL_Driver/Src/stm32l4xx_hal_dfsdm.c ****       status = HAL_ERROR;
 615:Drivers/STM32L4xx_HAL_Driver/Src/stm32l4xx_hal_dfsdm.c ****     }
 616:Drivers/STM32L4xx_HAL_Driver/Src/stm32l4xx_hal_dfsdm.c ****   }
 617:Drivers/STM32L4xx_HAL_Driver/Src/stm32l4xx_hal_dfsdm.c ****   return status;
 618:Drivers/STM32L4xx_HAL_Driver/Src/stm32l4xx_hal_dfsdm.c **** }
 619:Drivers/STM32L4xx_HAL_Driver/Src/stm32l4xx_hal_dfsdm.c **** 
 620:Drivers/STM32L4xx_HAL_Driver/Src/stm32l4xx_hal_dfsdm.c **** /**
 621:Drivers/STM32L4xx_HAL_Driver/Src/stm32l4xx_hal_dfsdm.c ****   * @brief  Unregister a user DFSDM channel callback.
 622:Drivers/STM32L4xx_HAL_Driver/Src/stm32l4xx_hal_dfsdm.c ****   *         DFSDM channel callback is redirected to the weak predefined callback.
 623:Drivers/STM32L4xx_HAL_Driver/Src/stm32l4xx_hal_dfsdm.c ****   * @param  hdfsdm_channel DFSDM channel handle.
 624:Drivers/STM32L4xx_HAL_Driver/Src/stm32l4xx_hal_dfsdm.c ****   * @param  CallbackID ID of the callback to be unregistered.
 625:Drivers/STM32L4xx_HAL_Driver/Src/stm32l4xx_hal_dfsdm.c ****   *         This parameter can be one of the following values:
 626:Drivers/STM32L4xx_HAL_Driver/Src/stm32l4xx_hal_dfsdm.c ****   *           @arg @ref HAL_DFSDM_CHANNEL_CKAB_CB_ID clock absence detection callback ID.
 627:Drivers/STM32L4xx_HAL_Driver/Src/stm32l4xx_hal_dfsdm.c ****   *           @arg @ref HAL_DFSDM_CHANNEL_SCD_CB_ID short circuit detection callback ID.
 628:Drivers/STM32L4xx_HAL_Driver/Src/stm32l4xx_hal_dfsdm.c ****   *           @arg @ref HAL_DFSDM_CHANNEL_MSPINIT_CB_ID MSP init callback ID.
 629:Drivers/STM32L4xx_HAL_Driver/Src/stm32l4xx_hal_dfsdm.c ****   *           @arg @ref HAL_DFSDM_CHANNEL_MSPDEINIT_CB_ID MSP de-init callback ID.
 630:Drivers/STM32L4xx_HAL_Driver/Src/stm32l4xx_hal_dfsdm.c ****   * @retval HAL status.
 631:Drivers/STM32L4xx_HAL_Driver/Src/stm32l4xx_hal_dfsdm.c ****   */
 632:Drivers/STM32L4xx_HAL_Driver/Src/stm32l4xx_hal_dfsdm.c **** HAL_StatusTypeDef HAL_DFSDM_Channel_UnRegisterCallback(DFSDM_Channel_HandleTypeDef        *hdfsdm_c
 633:Drivers/STM32L4xx_HAL_Driver/Src/stm32l4xx_hal_dfsdm.c ****                                                        HAL_DFSDM_Channel_CallbackIDTypeDef Callback
 634:Drivers/STM32L4xx_HAL_Driver/Src/stm32l4xx_hal_dfsdm.c **** {
 635:Drivers/STM32L4xx_HAL_Driver/Src/stm32l4xx_hal_dfsdm.c ****   HAL_StatusTypeDef status = HAL_OK;
 636:Drivers/STM32L4xx_HAL_Driver/Src/stm32l4xx_hal_dfsdm.c **** 
 637:Drivers/STM32L4xx_HAL_Driver/Src/stm32l4xx_hal_dfsdm.c ****   if (HAL_DFSDM_CHANNEL_STATE_READY == hdfsdm_channel->State)
 638:Drivers/STM32L4xx_HAL_Driver/Src/stm32l4xx_hal_dfsdm.c ****   {
 639:Drivers/STM32L4xx_HAL_Driver/Src/stm32l4xx_hal_dfsdm.c ****     switch (CallbackID)
 640:Drivers/STM32L4xx_HAL_Driver/Src/stm32l4xx_hal_dfsdm.c ****     {
 641:Drivers/STM32L4xx_HAL_Driver/Src/stm32l4xx_hal_dfsdm.c ****       case HAL_DFSDM_CHANNEL_CKAB_CB_ID :
 642:Drivers/STM32L4xx_HAL_Driver/Src/stm32l4xx_hal_dfsdm.c ****         hdfsdm_channel->CkabCallback = HAL_DFSDM_ChannelCkabCallback;
 643:Drivers/STM32L4xx_HAL_Driver/Src/stm32l4xx_hal_dfsdm.c ****         break;
 644:Drivers/STM32L4xx_HAL_Driver/Src/stm32l4xx_hal_dfsdm.c ****       case HAL_DFSDM_CHANNEL_SCD_CB_ID :
 645:Drivers/STM32L4xx_HAL_Driver/Src/stm32l4xx_hal_dfsdm.c ****         hdfsdm_channel->ScdCallback = HAL_DFSDM_ChannelScdCallback;
 646:Drivers/STM32L4xx_HAL_Driver/Src/stm32l4xx_hal_dfsdm.c ****         break;
 647:Drivers/STM32L4xx_HAL_Driver/Src/stm32l4xx_hal_dfsdm.c ****       case HAL_DFSDM_CHANNEL_MSPINIT_CB_ID :
 648:Drivers/STM32L4xx_HAL_Driver/Src/stm32l4xx_hal_dfsdm.c ****         hdfsdm_channel->MspInitCallback = HAL_DFSDM_ChannelMspInit;
 649:Drivers/STM32L4xx_HAL_Driver/Src/stm32l4xx_hal_dfsdm.c ****         break;
 650:Drivers/STM32L4xx_HAL_Driver/Src/stm32l4xx_hal_dfsdm.c ****       case HAL_DFSDM_CHANNEL_MSPDEINIT_CB_ID :
 651:Drivers/STM32L4xx_HAL_Driver/Src/stm32l4xx_hal_dfsdm.c ****         hdfsdm_channel->MspDeInitCallback = HAL_DFSDM_ChannelMspDeInit;
 652:Drivers/STM32L4xx_HAL_Driver/Src/stm32l4xx_hal_dfsdm.c ****         break;
 653:Drivers/STM32L4xx_HAL_Driver/Src/stm32l4xx_hal_dfsdm.c ****       default :
 654:Drivers/STM32L4xx_HAL_Driver/Src/stm32l4xx_hal_dfsdm.c ****         /* update return status */
 655:Drivers/STM32L4xx_HAL_Driver/Src/stm32l4xx_hal_dfsdm.c ****         status = HAL_ERROR;
 656:Drivers/STM32L4xx_HAL_Driver/Src/stm32l4xx_hal_dfsdm.c ****         break;
 657:Drivers/STM32L4xx_HAL_Driver/Src/stm32l4xx_hal_dfsdm.c ****     }
 658:Drivers/STM32L4xx_HAL_Driver/Src/stm32l4xx_hal_dfsdm.c ****   }
 659:Drivers/STM32L4xx_HAL_Driver/Src/stm32l4xx_hal_dfsdm.c ****   else if (HAL_DFSDM_CHANNEL_STATE_RESET == hdfsdm_channel->State)
 660:Drivers/STM32L4xx_HAL_Driver/Src/stm32l4xx_hal_dfsdm.c ****   {
 661:Drivers/STM32L4xx_HAL_Driver/Src/stm32l4xx_hal_dfsdm.c ****     switch (CallbackID)
 662:Drivers/STM32L4xx_HAL_Driver/Src/stm32l4xx_hal_dfsdm.c ****     {
 663:Drivers/STM32L4xx_HAL_Driver/Src/stm32l4xx_hal_dfsdm.c ****       case HAL_DFSDM_CHANNEL_MSPINIT_CB_ID :
 664:Drivers/STM32L4xx_HAL_Driver/Src/stm32l4xx_hal_dfsdm.c ****         hdfsdm_channel->MspInitCallback = HAL_DFSDM_ChannelMspInit;
ARM GAS  /tmp/ccrDNuCE.s 			page 22


 665:Drivers/STM32L4xx_HAL_Driver/Src/stm32l4xx_hal_dfsdm.c ****         break;
 666:Drivers/STM32L4xx_HAL_Driver/Src/stm32l4xx_hal_dfsdm.c ****       case HAL_DFSDM_CHANNEL_MSPDEINIT_CB_ID :
 667:Drivers/STM32L4xx_HAL_Driver/Src/stm32l4xx_hal_dfsdm.c ****         hdfsdm_channel->MspDeInitCallback = HAL_DFSDM_ChannelMspDeInit;
 668:Drivers/STM32L4xx_HAL_Driver/Src/stm32l4xx_hal_dfsdm.c ****         break;
 669:Drivers/STM32L4xx_HAL_Driver/Src/stm32l4xx_hal_dfsdm.c ****       default :
 670:Drivers/STM32L4xx_HAL_Driver/Src/stm32l4xx_hal_dfsdm.c ****         /* update return status */
 671:Drivers/STM32L4xx_HAL_Driver/Src/stm32l4xx_hal_dfsdm.c ****         status = HAL_ERROR;
 672:Drivers/STM32L4xx_HAL_Driver/Src/stm32l4xx_hal_dfsdm.c ****         break;
 673:Drivers/STM32L4xx_HAL_Driver/Src/stm32l4xx_hal_dfsdm.c ****     }
 674:Drivers/STM32L4xx_HAL_Driver/Src/stm32l4xx_hal_dfsdm.c ****   }
 675:Drivers/STM32L4xx_HAL_Driver/Src/stm32l4xx_hal_dfsdm.c ****   else
 676:Drivers/STM32L4xx_HAL_Driver/Src/stm32l4xx_hal_dfsdm.c ****   {
 677:Drivers/STM32L4xx_HAL_Driver/Src/stm32l4xx_hal_dfsdm.c ****     /* update return status */
 678:Drivers/STM32L4xx_HAL_Driver/Src/stm32l4xx_hal_dfsdm.c ****     status = HAL_ERROR;
 679:Drivers/STM32L4xx_HAL_Driver/Src/stm32l4xx_hal_dfsdm.c ****   }
 680:Drivers/STM32L4xx_HAL_Driver/Src/stm32l4xx_hal_dfsdm.c ****   return status;
 681:Drivers/STM32L4xx_HAL_Driver/Src/stm32l4xx_hal_dfsdm.c **** }
 682:Drivers/STM32L4xx_HAL_Driver/Src/stm32l4xx_hal_dfsdm.c **** #endif /* USE_HAL_DFSDM_REGISTER_CALLBACKS */
 683:Drivers/STM32L4xx_HAL_Driver/Src/stm32l4xx_hal_dfsdm.c **** 
 684:Drivers/STM32L4xx_HAL_Driver/Src/stm32l4xx_hal_dfsdm.c **** /**
 685:Drivers/STM32L4xx_HAL_Driver/Src/stm32l4xx_hal_dfsdm.c ****   * @}
 686:Drivers/STM32L4xx_HAL_Driver/Src/stm32l4xx_hal_dfsdm.c ****   */
 687:Drivers/STM32L4xx_HAL_Driver/Src/stm32l4xx_hal_dfsdm.c **** 
 688:Drivers/STM32L4xx_HAL_Driver/Src/stm32l4xx_hal_dfsdm.c **** /** @defgroup DFSDM_Exported_Functions_Group2_Channel Channel operation functions
 689:Drivers/STM32L4xx_HAL_Driver/Src/stm32l4xx_hal_dfsdm.c ****  *  @brief    Channel operation functions
 690:Drivers/STM32L4xx_HAL_Driver/Src/stm32l4xx_hal_dfsdm.c ****  *
 691:Drivers/STM32L4xx_HAL_Driver/Src/stm32l4xx_hal_dfsdm.c **** @verbatim
 692:Drivers/STM32L4xx_HAL_Driver/Src/stm32l4xx_hal_dfsdm.c ****   ==============================================================================
 693:Drivers/STM32L4xx_HAL_Driver/Src/stm32l4xx_hal_dfsdm.c ****                    ##### Channel operation functions #####
 694:Drivers/STM32L4xx_HAL_Driver/Src/stm32l4xx_hal_dfsdm.c ****   ==============================================================================
 695:Drivers/STM32L4xx_HAL_Driver/Src/stm32l4xx_hal_dfsdm.c ****     [..]  This section provides functions allowing to:
 696:Drivers/STM32L4xx_HAL_Driver/Src/stm32l4xx_hal_dfsdm.c ****       (+) Manage clock absence detector feature.
 697:Drivers/STM32L4xx_HAL_Driver/Src/stm32l4xx_hal_dfsdm.c ****       (+) Manage short circuit detector feature.
 698:Drivers/STM32L4xx_HAL_Driver/Src/stm32l4xx_hal_dfsdm.c ****       (+) Get analog watchdog value.
 699:Drivers/STM32L4xx_HAL_Driver/Src/stm32l4xx_hal_dfsdm.c ****       (+) Modify offset value.
 700:Drivers/STM32L4xx_HAL_Driver/Src/stm32l4xx_hal_dfsdm.c **** @endverbatim
 701:Drivers/STM32L4xx_HAL_Driver/Src/stm32l4xx_hal_dfsdm.c ****   * @{
 702:Drivers/STM32L4xx_HAL_Driver/Src/stm32l4xx_hal_dfsdm.c ****   */
 703:Drivers/STM32L4xx_HAL_Driver/Src/stm32l4xx_hal_dfsdm.c **** 
 704:Drivers/STM32L4xx_HAL_Driver/Src/stm32l4xx_hal_dfsdm.c **** /**
 705:Drivers/STM32L4xx_HAL_Driver/Src/stm32l4xx_hal_dfsdm.c ****   * @brief  This function allows to start clock absence detection in polling mode.
 706:Drivers/STM32L4xx_HAL_Driver/Src/stm32l4xx_hal_dfsdm.c ****   * @note   Same mode has to be used for all channels.
 707:Drivers/STM32L4xx_HAL_Driver/Src/stm32l4xx_hal_dfsdm.c ****   * @note   If clock is not available on this channel during 5 seconds,
 708:Drivers/STM32L4xx_HAL_Driver/Src/stm32l4xx_hal_dfsdm.c ****   *         clock absence detection will not be activated and function
 709:Drivers/STM32L4xx_HAL_Driver/Src/stm32l4xx_hal_dfsdm.c ****   *         will return HAL_TIMEOUT error.
 710:Drivers/STM32L4xx_HAL_Driver/Src/stm32l4xx_hal_dfsdm.c ****   * @param  hdfsdm_channel DFSDM channel handle.
 711:Drivers/STM32L4xx_HAL_Driver/Src/stm32l4xx_hal_dfsdm.c ****   * @retval HAL status
 712:Drivers/STM32L4xx_HAL_Driver/Src/stm32l4xx_hal_dfsdm.c ****   */
 713:Drivers/STM32L4xx_HAL_Driver/Src/stm32l4xx_hal_dfsdm.c **** HAL_StatusTypeDef HAL_DFSDM_ChannelCkabStart(DFSDM_Channel_HandleTypeDef *hdfsdm_channel)
 714:Drivers/STM32L4xx_HAL_Driver/Src/stm32l4xx_hal_dfsdm.c **** {
 531              		.loc 1 714 1
 532              		.cfi_startproc
 533              		@ args = 0, pretend = 0, frame = 24
 534              		@ frame_needed = 1, uses_anonymous_args = 0
 535 0000 80B5     		push	{r7, lr}
 536              		.cfi_def_cfa_offset 8
 537              		.cfi_offset 7, -8
ARM GAS  /tmp/ccrDNuCE.s 			page 23


 538              		.cfi_offset 14, -4
 539 0002 86B0     		sub	sp, sp, #24
 540              		.cfi_def_cfa_offset 32
 541 0004 00AF     		add	r7, sp, #0
 542              		.cfi_def_cfa_register 7
 543 0006 7860     		str	r0, [r7, #4]
 715:Drivers/STM32L4xx_HAL_Driver/Src/stm32l4xx_hal_dfsdm.c ****   HAL_StatusTypeDef status = HAL_OK;
 544              		.loc 1 715 21
 545 0008 0023     		movs	r3, #0
 546 000a FB75     		strb	r3, [r7, #23]
 716:Drivers/STM32L4xx_HAL_Driver/Src/stm32l4xx_hal_dfsdm.c ****   uint32_t channel;
 717:Drivers/STM32L4xx_HAL_Driver/Src/stm32l4xx_hal_dfsdm.c ****   uint32_t tickstart;
 718:Drivers/STM32L4xx_HAL_Driver/Src/stm32l4xx_hal_dfsdm.c **** 
 719:Drivers/STM32L4xx_HAL_Driver/Src/stm32l4xx_hal_dfsdm.c ****   /* Check parameters */
 720:Drivers/STM32L4xx_HAL_Driver/Src/stm32l4xx_hal_dfsdm.c ****   assert_param(IS_DFSDM_CHANNEL_ALL_INSTANCE(hdfsdm_channel->Instance));
 721:Drivers/STM32L4xx_HAL_Driver/Src/stm32l4xx_hal_dfsdm.c **** 
 722:Drivers/STM32L4xx_HAL_Driver/Src/stm32l4xx_hal_dfsdm.c ****   /* Check DFSDM channel state */
 723:Drivers/STM32L4xx_HAL_Driver/Src/stm32l4xx_hal_dfsdm.c ****   if (hdfsdm_channel->State != HAL_DFSDM_CHANNEL_STATE_READY)
 547              		.loc 1 723 21
 548 000c 7B68     		ldr	r3, [r7, #4]
 549 000e 93F83430 		ldrb	r3, [r3, #52]	@ zero_extendqisi2
 550              		.loc 1 723 6
 551 0012 012B     		cmp	r3, #1
 552 0014 02D0     		beq	.L19
 724:Drivers/STM32L4xx_HAL_Driver/Src/stm32l4xx_hal_dfsdm.c ****   {
 725:Drivers/STM32L4xx_HAL_Driver/Src/stm32l4xx_hal_dfsdm.c ****     /* Return error status */
 726:Drivers/STM32L4xx_HAL_Driver/Src/stm32l4xx_hal_dfsdm.c ****     status = HAL_ERROR;
 553              		.loc 1 726 12
 554 0016 0123     		movs	r3, #1
 555 0018 FB75     		strb	r3, [r7, #23]
 556 001a 33E0     		b	.L20
 557              	.L19:
 727:Drivers/STM32L4xx_HAL_Driver/Src/stm32l4xx_hal_dfsdm.c ****   }
 728:Drivers/STM32L4xx_HAL_Driver/Src/stm32l4xx_hal_dfsdm.c ****   else
 729:Drivers/STM32L4xx_HAL_Driver/Src/stm32l4xx_hal_dfsdm.c ****   {
 730:Drivers/STM32L4xx_HAL_Driver/Src/stm32l4xx_hal_dfsdm.c ****     /* Get channel number from channel instance */
 731:Drivers/STM32L4xx_HAL_Driver/Src/stm32l4xx_hal_dfsdm.c ****     channel = DFSDM_GetChannelFromInstance(hdfsdm_channel->Instance);
 558              		.loc 1 731 58
 559 001c 7B68     		ldr	r3, [r7, #4]
 560 001e 1B68     		ldr	r3, [r3]
 561              		.loc 1 731 15
 562 0020 1846     		mov	r0, r3
 563 0022 FFF7FEFF 		bl	DFSDM_GetChannelFromInstance
 564 0026 3861     		str	r0, [r7, #16]
 732:Drivers/STM32L4xx_HAL_Driver/Src/stm32l4xx_hal_dfsdm.c **** 
 733:Drivers/STM32L4xx_HAL_Driver/Src/stm32l4xx_hal_dfsdm.c ****     /* Get timeout */
 734:Drivers/STM32L4xx_HAL_Driver/Src/stm32l4xx_hal_dfsdm.c ****     tickstart = HAL_GetTick();
 565              		.loc 1 734 17
 566 0028 FFF7FEFF 		bl	HAL_GetTick
 567 002c F860     		str	r0, [r7, #12]
 735:Drivers/STM32L4xx_HAL_Driver/Src/stm32l4xx_hal_dfsdm.c **** 
 736:Drivers/STM32L4xx_HAL_Driver/Src/stm32l4xx_hal_dfsdm.c ****     /* Clear clock absence flag */
 737:Drivers/STM32L4xx_HAL_Driver/Src/stm32l4xx_hal_dfsdm.c ****     while ((((DFSDM1_Filter0->FLTISR & DFSDM_FLTISR_CKABF) >> (DFSDM_FLTISR_CKABF_Pos + channel)) &
 568              		.loc 1 737 11
 569 002e 12E0     		b	.L21
 570              	.L23:
 738:Drivers/STM32L4xx_HAL_Driver/Src/stm32l4xx_hal_dfsdm.c ****     {
ARM GAS  /tmp/ccrDNuCE.s 			page 24


 739:Drivers/STM32L4xx_HAL_Driver/Src/stm32l4xx_hal_dfsdm.c ****       DFSDM1_Filter0->FLTICR = (1UL << (DFSDM_FLTICR_CLRCKABF_Pos + channel));
 571              		.loc 1 739 67
 572 0030 3B69     		ldr	r3, [r7, #16]
 573 0032 1033     		adds	r3, r3, #16
 574              		.loc 1 739 21
 575 0034 164A     		ldr	r2, .L25
 576              		.loc 1 739 37
 577 0036 0121     		movs	r1, #1
 578 0038 01FA03F3 		lsl	r3, r1, r3
 579              		.loc 1 739 30
 580 003c D360     		str	r3, [r2, #12]
 740:Drivers/STM32L4xx_HAL_Driver/Src/stm32l4xx_hal_dfsdm.c **** 
 741:Drivers/STM32L4xx_HAL_Driver/Src/stm32l4xx_hal_dfsdm.c ****       /* Check the Timeout */
 742:Drivers/STM32L4xx_HAL_Driver/Src/stm32l4xx_hal_dfsdm.c ****       if ((HAL_GetTick() - tickstart) > DFSDM_CKAB_TIMEOUT)
 581              		.loc 1 742 12
 582 003e FFF7FEFF 		bl	HAL_GetTick
 583 0042 0246     		mov	r2, r0
 584              		.loc 1 742 26 discriminator 1
 585 0044 FB68     		ldr	r3, [r7, #12]
 586 0046 D31A     		subs	r3, r2, r3
 587              		.loc 1 742 10 discriminator 1
 588 0048 41F28832 		movw	r2, #5000
 589 004c 9342     		cmp	r3, r2
 590 004e 02D9     		bls	.L21
 743:Drivers/STM32L4xx_HAL_Driver/Src/stm32l4xx_hal_dfsdm.c ****       {
 744:Drivers/STM32L4xx_HAL_Driver/Src/stm32l4xx_hal_dfsdm.c ****         /* Set timeout status */
 745:Drivers/STM32L4xx_HAL_Driver/Src/stm32l4xx_hal_dfsdm.c ****         status = HAL_TIMEOUT;
 591              		.loc 1 745 16
 592 0050 0323     		movs	r3, #3
 593 0052 FB75     		strb	r3, [r7, #23]
 746:Drivers/STM32L4xx_HAL_Driver/Src/stm32l4xx_hal_dfsdm.c ****         break;
 594              		.loc 1 746 9
 595 0054 0BE0     		b	.L22
 596              	.L21:
 737:Drivers/STM32L4xx_HAL_Driver/Src/stm32l4xx_hal_dfsdm.c ****     {
 597              		.loc 1 737 29
 598 0056 0E4B     		ldr	r3, .L25
 599 0058 9B68     		ldr	r3, [r3, #8]
 737:Drivers/STM32L4xx_HAL_Driver/Src/stm32l4xx_hal_dfsdm.c ****     {
 600              		.loc 1 737 38
 601 005a 03F47F02 		and	r2, r3, #16711680
 737:Drivers/STM32L4xx_HAL_Driver/Src/stm32l4xx_hal_dfsdm.c ****     {
 602              		.loc 1 737 87
 603 005e 3B69     		ldr	r3, [r7, #16]
 604 0060 1033     		adds	r3, r3, #16
 737:Drivers/STM32L4xx_HAL_Driver/Src/stm32l4xx_hal_dfsdm.c ****     {
 605              		.loc 1 737 60
 606 0062 22FA03F3 		lsr	r3, r2, r3
 737:Drivers/STM32L4xx_HAL_Driver/Src/stm32l4xx_hal_dfsdm.c ****     {
 607              		.loc 1 737 99
 608 0066 03F00103 		and	r3, r3, #1
 737:Drivers/STM32L4xx_HAL_Driver/Src/stm32l4xx_hal_dfsdm.c ****     {
 609              		.loc 1 737 105
 610 006a 002B     		cmp	r3, #0
 611 006c E0D1     		bne	.L23
 612              	.L22:
 747:Drivers/STM32L4xx_HAL_Driver/Src/stm32l4xx_hal_dfsdm.c ****       }
ARM GAS  /tmp/ccrDNuCE.s 			page 25


 748:Drivers/STM32L4xx_HAL_Driver/Src/stm32l4xx_hal_dfsdm.c ****     }
 749:Drivers/STM32L4xx_HAL_Driver/Src/stm32l4xx_hal_dfsdm.c **** 
 750:Drivers/STM32L4xx_HAL_Driver/Src/stm32l4xx_hal_dfsdm.c ****     if (status == HAL_OK)
 613              		.loc 1 750 8
 614 006e FB7D     		ldrb	r3, [r7, #23]	@ zero_extendqisi2
 615 0070 002B     		cmp	r3, #0
 616 0072 07D1     		bne	.L20
 751:Drivers/STM32L4xx_HAL_Driver/Src/stm32l4xx_hal_dfsdm.c ****     {
 752:Drivers/STM32L4xx_HAL_Driver/Src/stm32l4xx_hal_dfsdm.c ****       /* Start clock absence detection */
 753:Drivers/STM32L4xx_HAL_Driver/Src/stm32l4xx_hal_dfsdm.c ****       hdfsdm_channel->Instance->CHCFGR1 |= DFSDM_CHCFGR1_CKABEN;
 617              		.loc 1 753 21
 618 0074 7B68     		ldr	r3, [r7, #4]
 619 0076 1B68     		ldr	r3, [r3]
 620              		.loc 1 753 31
 621 0078 1A68     		ldr	r2, [r3]
 622              		.loc 1 753 21
 623 007a 7B68     		ldr	r3, [r7, #4]
 624 007c 1B68     		ldr	r3, [r3]
 625              		.loc 1 753 41
 626 007e 42F04002 		orr	r2, r2, #64
 627 0082 1A60     		str	r2, [r3]
 628              	.L20:
 754:Drivers/STM32L4xx_HAL_Driver/Src/stm32l4xx_hal_dfsdm.c ****     }
 755:Drivers/STM32L4xx_HAL_Driver/Src/stm32l4xx_hal_dfsdm.c ****   }
 756:Drivers/STM32L4xx_HAL_Driver/Src/stm32l4xx_hal_dfsdm.c ****   /* Return function status */
 757:Drivers/STM32L4xx_HAL_Driver/Src/stm32l4xx_hal_dfsdm.c ****   return status;
 629              		.loc 1 757 10
 630 0084 FB7D     		ldrb	r3, [r7, #23]	@ zero_extendqisi2
 758:Drivers/STM32L4xx_HAL_Driver/Src/stm32l4xx_hal_dfsdm.c **** }
 631              		.loc 1 758 1
 632 0086 1846     		mov	r0, r3
 633 0088 1837     		adds	r7, r7, #24
 634              		.cfi_def_cfa_offset 8
 635 008a BD46     		mov	sp, r7
 636              		.cfi_def_cfa_register 13
 637              		@ sp needed
 638 008c 80BD     		pop	{r7, pc}
 639              	.L26:
 640 008e 00BF     		.align	2
 641              	.L25:
 642 0090 00610140 		.word	1073832192
 643              		.cfi_endproc
 644              	.LFE449:
 646              		.section	.text.HAL_DFSDM_ChannelPollForCkab,"ax",%progbits
 647              		.align	1
 648              		.global	HAL_DFSDM_ChannelPollForCkab
 649              		.syntax unified
 650              		.thumb
 651              		.thumb_func
 653              	HAL_DFSDM_ChannelPollForCkab:
 654              	.LFB450:
 759:Drivers/STM32L4xx_HAL_Driver/Src/stm32l4xx_hal_dfsdm.c **** 
 760:Drivers/STM32L4xx_HAL_Driver/Src/stm32l4xx_hal_dfsdm.c **** /**
 761:Drivers/STM32L4xx_HAL_Driver/Src/stm32l4xx_hal_dfsdm.c ****   * @brief  This function allows to poll for the clock absence detection.
 762:Drivers/STM32L4xx_HAL_Driver/Src/stm32l4xx_hal_dfsdm.c ****   * @param  hdfsdm_channel DFSDM channel handle.
 763:Drivers/STM32L4xx_HAL_Driver/Src/stm32l4xx_hal_dfsdm.c ****   * @param  Timeout Timeout value in milliseconds.
 764:Drivers/STM32L4xx_HAL_Driver/Src/stm32l4xx_hal_dfsdm.c ****   * @retval HAL status
ARM GAS  /tmp/ccrDNuCE.s 			page 26


 765:Drivers/STM32L4xx_HAL_Driver/Src/stm32l4xx_hal_dfsdm.c ****   */
 766:Drivers/STM32L4xx_HAL_Driver/Src/stm32l4xx_hal_dfsdm.c **** HAL_StatusTypeDef HAL_DFSDM_ChannelPollForCkab(const DFSDM_Channel_HandleTypeDef *hdfsdm_channel,
 767:Drivers/STM32L4xx_HAL_Driver/Src/stm32l4xx_hal_dfsdm.c ****                                                uint32_t Timeout)
 768:Drivers/STM32L4xx_HAL_Driver/Src/stm32l4xx_hal_dfsdm.c **** {
 655              		.loc 1 768 1
 656              		.cfi_startproc
 657              		@ args = 0, pretend = 0, frame = 16
 658              		@ frame_needed = 1, uses_anonymous_args = 0
 659 0000 80B5     		push	{r7, lr}
 660              		.cfi_def_cfa_offset 8
 661              		.cfi_offset 7, -8
 662              		.cfi_offset 14, -4
 663 0002 84B0     		sub	sp, sp, #16
 664              		.cfi_def_cfa_offset 24
 665 0004 00AF     		add	r7, sp, #0
 666              		.cfi_def_cfa_register 7
 667 0006 7860     		str	r0, [r7, #4]
 668 0008 3960     		str	r1, [r7]
 769:Drivers/STM32L4xx_HAL_Driver/Src/stm32l4xx_hal_dfsdm.c ****   uint32_t tickstart;
 770:Drivers/STM32L4xx_HAL_Driver/Src/stm32l4xx_hal_dfsdm.c ****   uint32_t channel;
 771:Drivers/STM32L4xx_HAL_Driver/Src/stm32l4xx_hal_dfsdm.c **** 
 772:Drivers/STM32L4xx_HAL_Driver/Src/stm32l4xx_hal_dfsdm.c ****   /* Check parameters */
 773:Drivers/STM32L4xx_HAL_Driver/Src/stm32l4xx_hal_dfsdm.c ****   assert_param(IS_DFSDM_CHANNEL_ALL_INSTANCE(hdfsdm_channel->Instance));
 774:Drivers/STM32L4xx_HAL_Driver/Src/stm32l4xx_hal_dfsdm.c **** 
 775:Drivers/STM32L4xx_HAL_Driver/Src/stm32l4xx_hal_dfsdm.c ****   /* Check DFSDM channel state */
 776:Drivers/STM32L4xx_HAL_Driver/Src/stm32l4xx_hal_dfsdm.c ****   if (hdfsdm_channel->State != HAL_DFSDM_CHANNEL_STATE_READY)
 669              		.loc 1 776 21
 670 000a 7B68     		ldr	r3, [r7, #4]
 671 000c 93F83430 		ldrb	r3, [r3, #52]	@ zero_extendqisi2
 672              		.loc 1 776 6
 673 0010 012B     		cmp	r3, #1
 674 0012 01D0     		beq	.L28
 777:Drivers/STM32L4xx_HAL_Driver/Src/stm32l4xx_hal_dfsdm.c ****   {
 778:Drivers/STM32L4xx_HAL_Driver/Src/stm32l4xx_hal_dfsdm.c ****     /* Return error status */
 779:Drivers/STM32L4xx_HAL_Driver/Src/stm32l4xx_hal_dfsdm.c ****     return HAL_ERROR;
 675              		.loc 1 779 12
 676 0014 0123     		movs	r3, #1
 677 0016 2EE0     		b	.L29
 678              	.L28:
 780:Drivers/STM32L4xx_HAL_Driver/Src/stm32l4xx_hal_dfsdm.c ****   }
 781:Drivers/STM32L4xx_HAL_Driver/Src/stm32l4xx_hal_dfsdm.c ****   else
 782:Drivers/STM32L4xx_HAL_Driver/Src/stm32l4xx_hal_dfsdm.c ****   {
 783:Drivers/STM32L4xx_HAL_Driver/Src/stm32l4xx_hal_dfsdm.c ****     /* Get channel number from channel instance */
 784:Drivers/STM32L4xx_HAL_Driver/Src/stm32l4xx_hal_dfsdm.c ****     channel = DFSDM_GetChannelFromInstance(hdfsdm_channel->Instance);
 679              		.loc 1 784 58
 680 0018 7B68     		ldr	r3, [r7, #4]
 681 001a 1B68     		ldr	r3, [r3]
 682              		.loc 1 784 15
 683 001c 1846     		mov	r0, r3
 684 001e FFF7FEFF 		bl	DFSDM_GetChannelFromInstance
 685 0022 F860     		str	r0, [r7, #12]
 785:Drivers/STM32L4xx_HAL_Driver/Src/stm32l4xx_hal_dfsdm.c **** 
 786:Drivers/STM32L4xx_HAL_Driver/Src/stm32l4xx_hal_dfsdm.c ****     /* Get timeout */
 787:Drivers/STM32L4xx_HAL_Driver/Src/stm32l4xx_hal_dfsdm.c ****     tickstart = HAL_GetTick();
 686              		.loc 1 787 17
 687 0024 FFF7FEFF 		bl	HAL_GetTick
 688 0028 B860     		str	r0, [r7, #8]
ARM GAS  /tmp/ccrDNuCE.s 			page 27


 788:Drivers/STM32L4xx_HAL_Driver/Src/stm32l4xx_hal_dfsdm.c **** 
 789:Drivers/STM32L4xx_HAL_Driver/Src/stm32l4xx_hal_dfsdm.c ****     /* Wait clock absence detection */
 790:Drivers/STM32L4xx_HAL_Driver/Src/stm32l4xx_hal_dfsdm.c ****     while ((((DFSDM1_Filter0->FLTISR & DFSDM_FLTISR_CKABF) >> (DFSDM_FLTISR_CKABF_Pos + channel)) &
 689              		.loc 1 790 11
 690 002a 10E0     		b	.L31
 691              	.L33:
 791:Drivers/STM32L4xx_HAL_Driver/Src/stm32l4xx_hal_dfsdm.c ****     {
 792:Drivers/STM32L4xx_HAL_Driver/Src/stm32l4xx_hal_dfsdm.c ****       /* Check the Timeout */
 793:Drivers/STM32L4xx_HAL_Driver/Src/stm32l4xx_hal_dfsdm.c ****       if (Timeout != HAL_MAX_DELAY)
 692              		.loc 1 793 10
 693 002c 3B68     		ldr	r3, [r7]
 694 002e B3F1FF3F 		cmp	r3, #-1
 695 0032 0CD0     		beq	.L31
 794:Drivers/STM32L4xx_HAL_Driver/Src/stm32l4xx_hal_dfsdm.c ****       {
 795:Drivers/STM32L4xx_HAL_Driver/Src/stm32l4xx_hal_dfsdm.c ****         if (((HAL_GetTick() - tickstart) > Timeout) || (Timeout == 0U))
 696              		.loc 1 795 15
 697 0034 FFF7FEFF 		bl	HAL_GetTick
 698 0038 0246     		mov	r2, r0
 699              		.loc 1 795 29 discriminator 1
 700 003a BB68     		ldr	r3, [r7, #8]
 701 003c D31A     		subs	r3, r2, r3
 702              		.loc 1 795 12 discriminator 1
 703 003e 3A68     		ldr	r2, [r7]
 704 0040 9A42     		cmp	r2, r3
 705 0042 02D3     		bcc	.L32
 706              		.loc 1 795 53 discriminator 1
 707 0044 3B68     		ldr	r3, [r7]
 708 0046 002B     		cmp	r3, #0
 709 0048 01D1     		bne	.L31
 710              	.L32:
 796:Drivers/STM32L4xx_HAL_Driver/Src/stm32l4xx_hal_dfsdm.c ****         {
 797:Drivers/STM32L4xx_HAL_Driver/Src/stm32l4xx_hal_dfsdm.c ****           /* Return timeout status */
 798:Drivers/STM32L4xx_HAL_Driver/Src/stm32l4xx_hal_dfsdm.c ****           return HAL_TIMEOUT;
 711              		.loc 1 798 18
 712 004a 0323     		movs	r3, #3
 713 004c 13E0     		b	.L29
 714              	.L31:
 790:Drivers/STM32L4xx_HAL_Driver/Src/stm32l4xx_hal_dfsdm.c ****     {
 715              		.loc 1 790 29
 716 004e 0C4B     		ldr	r3, .L34
 717 0050 9B68     		ldr	r3, [r3, #8]
 790:Drivers/STM32L4xx_HAL_Driver/Src/stm32l4xx_hal_dfsdm.c ****     {
 718              		.loc 1 790 38
 719 0052 03F47F02 		and	r2, r3, #16711680
 790:Drivers/STM32L4xx_HAL_Driver/Src/stm32l4xx_hal_dfsdm.c ****     {
 720              		.loc 1 790 87
 721 0056 FB68     		ldr	r3, [r7, #12]
 722 0058 1033     		adds	r3, r3, #16
 790:Drivers/STM32L4xx_HAL_Driver/Src/stm32l4xx_hal_dfsdm.c ****     {
 723              		.loc 1 790 60
 724 005a 22FA03F3 		lsr	r3, r2, r3
 790:Drivers/STM32L4xx_HAL_Driver/Src/stm32l4xx_hal_dfsdm.c ****     {
 725              		.loc 1 790 99
 726 005e 03F00103 		and	r3, r3, #1
 790:Drivers/STM32L4xx_HAL_Driver/Src/stm32l4xx_hal_dfsdm.c ****     {
 727              		.loc 1 790 105
 728 0062 002B     		cmp	r3, #0
ARM GAS  /tmp/ccrDNuCE.s 			page 28


 729 0064 E2D0     		beq	.L33
 799:Drivers/STM32L4xx_HAL_Driver/Src/stm32l4xx_hal_dfsdm.c ****         }
 800:Drivers/STM32L4xx_HAL_Driver/Src/stm32l4xx_hal_dfsdm.c ****       }
 801:Drivers/STM32L4xx_HAL_Driver/Src/stm32l4xx_hal_dfsdm.c ****     }
 802:Drivers/STM32L4xx_HAL_Driver/Src/stm32l4xx_hal_dfsdm.c **** 
 803:Drivers/STM32L4xx_HAL_Driver/Src/stm32l4xx_hal_dfsdm.c ****     /* Clear clock absence detection flag */
 804:Drivers/STM32L4xx_HAL_Driver/Src/stm32l4xx_hal_dfsdm.c ****     DFSDM1_Filter0->FLTICR = (1UL << (DFSDM_FLTICR_CLRCKABF_Pos + channel));
 730              		.loc 1 804 65
 731 0066 FB68     		ldr	r3, [r7, #12]
 732 0068 1033     		adds	r3, r3, #16
 733              		.loc 1 804 19
 734 006a 054A     		ldr	r2, .L34
 735              		.loc 1 804 35
 736 006c 0121     		movs	r1, #1
 737 006e 01FA03F3 		lsl	r3, r1, r3
 738              		.loc 1 804 28
 739 0072 D360     		str	r3, [r2, #12]
 805:Drivers/STM32L4xx_HAL_Driver/Src/stm32l4xx_hal_dfsdm.c **** 
 806:Drivers/STM32L4xx_HAL_Driver/Src/stm32l4xx_hal_dfsdm.c ****     /* Return function status */
 807:Drivers/STM32L4xx_HAL_Driver/Src/stm32l4xx_hal_dfsdm.c ****     return HAL_OK;
 740              		.loc 1 807 12
 741 0074 0023     		movs	r3, #0
 742              	.L29:
 808:Drivers/STM32L4xx_HAL_Driver/Src/stm32l4xx_hal_dfsdm.c ****   }
 809:Drivers/STM32L4xx_HAL_Driver/Src/stm32l4xx_hal_dfsdm.c **** }
 743              		.loc 1 809 1
 744 0076 1846     		mov	r0, r3
 745 0078 1037     		adds	r7, r7, #16
 746              		.cfi_def_cfa_offset 8
 747 007a BD46     		mov	sp, r7
 748              		.cfi_def_cfa_register 13
 749              		@ sp needed
 750 007c 80BD     		pop	{r7, pc}
 751              	.L35:
 752 007e 00BF     		.align	2
 753              	.L34:
 754 0080 00610140 		.word	1073832192
 755              		.cfi_endproc
 756              	.LFE450:
 758              		.section	.text.HAL_DFSDM_ChannelCkabStop,"ax",%progbits
 759              		.align	1
 760              		.global	HAL_DFSDM_ChannelCkabStop
 761              		.syntax unified
 762              		.thumb
 763              		.thumb_func
 765              	HAL_DFSDM_ChannelCkabStop:
 766              	.LFB451:
 810:Drivers/STM32L4xx_HAL_Driver/Src/stm32l4xx_hal_dfsdm.c **** 
 811:Drivers/STM32L4xx_HAL_Driver/Src/stm32l4xx_hal_dfsdm.c **** /**
 812:Drivers/STM32L4xx_HAL_Driver/Src/stm32l4xx_hal_dfsdm.c ****   * @brief  This function allows to stop clock absence detection in polling mode.
 813:Drivers/STM32L4xx_HAL_Driver/Src/stm32l4xx_hal_dfsdm.c ****   * @param  hdfsdm_channel DFSDM channel handle.
 814:Drivers/STM32L4xx_HAL_Driver/Src/stm32l4xx_hal_dfsdm.c ****   * @retval HAL status
 815:Drivers/STM32L4xx_HAL_Driver/Src/stm32l4xx_hal_dfsdm.c ****   */
 816:Drivers/STM32L4xx_HAL_Driver/Src/stm32l4xx_hal_dfsdm.c **** HAL_StatusTypeDef HAL_DFSDM_ChannelCkabStop(DFSDM_Channel_HandleTypeDef *hdfsdm_channel)
 817:Drivers/STM32L4xx_HAL_Driver/Src/stm32l4xx_hal_dfsdm.c **** {
 767              		.loc 1 817 1
 768              		.cfi_startproc
ARM GAS  /tmp/ccrDNuCE.s 			page 29


 769              		@ args = 0, pretend = 0, frame = 16
 770              		@ frame_needed = 1, uses_anonymous_args = 0
 771 0000 80B5     		push	{r7, lr}
 772              		.cfi_def_cfa_offset 8
 773              		.cfi_offset 7, -8
 774              		.cfi_offset 14, -4
 775 0002 84B0     		sub	sp, sp, #16
 776              		.cfi_def_cfa_offset 24
 777 0004 00AF     		add	r7, sp, #0
 778              		.cfi_def_cfa_register 7
 779 0006 7860     		str	r0, [r7, #4]
 818:Drivers/STM32L4xx_HAL_Driver/Src/stm32l4xx_hal_dfsdm.c ****   HAL_StatusTypeDef status = HAL_OK;
 780              		.loc 1 818 21
 781 0008 0023     		movs	r3, #0
 782 000a FB73     		strb	r3, [r7, #15]
 819:Drivers/STM32L4xx_HAL_Driver/Src/stm32l4xx_hal_dfsdm.c ****   uint32_t channel;
 820:Drivers/STM32L4xx_HAL_Driver/Src/stm32l4xx_hal_dfsdm.c **** 
 821:Drivers/STM32L4xx_HAL_Driver/Src/stm32l4xx_hal_dfsdm.c ****   /* Check parameters */
 822:Drivers/STM32L4xx_HAL_Driver/Src/stm32l4xx_hal_dfsdm.c ****   assert_param(IS_DFSDM_CHANNEL_ALL_INSTANCE(hdfsdm_channel->Instance));
 823:Drivers/STM32L4xx_HAL_Driver/Src/stm32l4xx_hal_dfsdm.c **** 
 824:Drivers/STM32L4xx_HAL_Driver/Src/stm32l4xx_hal_dfsdm.c ****   /* Check DFSDM channel state */
 825:Drivers/STM32L4xx_HAL_Driver/Src/stm32l4xx_hal_dfsdm.c ****   if (hdfsdm_channel->State != HAL_DFSDM_CHANNEL_STATE_READY)
 783              		.loc 1 825 21
 784 000c 7B68     		ldr	r3, [r7, #4]
 785 000e 93F83430 		ldrb	r3, [r3, #52]	@ zero_extendqisi2
 786              		.loc 1 825 6
 787 0012 012B     		cmp	r3, #1
 788 0014 02D0     		beq	.L37
 826:Drivers/STM32L4xx_HAL_Driver/Src/stm32l4xx_hal_dfsdm.c ****   {
 827:Drivers/STM32L4xx_HAL_Driver/Src/stm32l4xx_hal_dfsdm.c ****     /* Return error status */
 828:Drivers/STM32L4xx_HAL_Driver/Src/stm32l4xx_hal_dfsdm.c ****     status = HAL_ERROR;
 789              		.loc 1 828 12
 790 0016 0123     		movs	r3, #1
 791 0018 FB73     		strb	r3, [r7, #15]
 792 001a 14E0     		b	.L38
 793              	.L37:
 829:Drivers/STM32L4xx_HAL_Driver/Src/stm32l4xx_hal_dfsdm.c ****   }
 830:Drivers/STM32L4xx_HAL_Driver/Src/stm32l4xx_hal_dfsdm.c ****   else
 831:Drivers/STM32L4xx_HAL_Driver/Src/stm32l4xx_hal_dfsdm.c ****   {
 832:Drivers/STM32L4xx_HAL_Driver/Src/stm32l4xx_hal_dfsdm.c ****     /* Stop clock absence detection */
 833:Drivers/STM32L4xx_HAL_Driver/Src/stm32l4xx_hal_dfsdm.c ****     hdfsdm_channel->Instance->CHCFGR1 &= ~(DFSDM_CHCFGR1_CKABEN);
 794              		.loc 1 833 19
 795 001c 7B68     		ldr	r3, [r7, #4]
 796 001e 1B68     		ldr	r3, [r3]
 797              		.loc 1 833 29
 798 0020 1A68     		ldr	r2, [r3]
 799              		.loc 1 833 19
 800 0022 7B68     		ldr	r3, [r7, #4]
 801 0024 1B68     		ldr	r3, [r3]
 802              		.loc 1 833 39
 803 0026 22F04002 		bic	r2, r2, #64
 804 002a 1A60     		str	r2, [r3]
 834:Drivers/STM32L4xx_HAL_Driver/Src/stm32l4xx_hal_dfsdm.c **** 
 835:Drivers/STM32L4xx_HAL_Driver/Src/stm32l4xx_hal_dfsdm.c ****     /* Clear clock absence flag */
 836:Drivers/STM32L4xx_HAL_Driver/Src/stm32l4xx_hal_dfsdm.c ****     channel = DFSDM_GetChannelFromInstance(hdfsdm_channel->Instance);
 805              		.loc 1 836 58
 806 002c 7B68     		ldr	r3, [r7, #4]
ARM GAS  /tmp/ccrDNuCE.s 			page 30


 807 002e 1B68     		ldr	r3, [r3]
 808              		.loc 1 836 15
 809 0030 1846     		mov	r0, r3
 810 0032 FFF7FEFF 		bl	DFSDM_GetChannelFromInstance
 811 0036 B860     		str	r0, [r7, #8]
 837:Drivers/STM32L4xx_HAL_Driver/Src/stm32l4xx_hal_dfsdm.c ****     DFSDM1_Filter0->FLTICR = (1UL << (DFSDM_FLTICR_CLRCKABF_Pos + channel));
 812              		.loc 1 837 65
 813 0038 BB68     		ldr	r3, [r7, #8]
 814 003a 1033     		adds	r3, r3, #16
 815              		.loc 1 837 19
 816 003c 044A     		ldr	r2, .L40
 817              		.loc 1 837 35
 818 003e 0121     		movs	r1, #1
 819 0040 01FA03F3 		lsl	r3, r1, r3
 820              		.loc 1 837 28
 821 0044 D360     		str	r3, [r2, #12]
 822              	.L38:
 838:Drivers/STM32L4xx_HAL_Driver/Src/stm32l4xx_hal_dfsdm.c ****   }
 839:Drivers/STM32L4xx_HAL_Driver/Src/stm32l4xx_hal_dfsdm.c ****   /* Return function status */
 840:Drivers/STM32L4xx_HAL_Driver/Src/stm32l4xx_hal_dfsdm.c ****   return status;
 823              		.loc 1 840 10
 824 0046 FB7B     		ldrb	r3, [r7, #15]	@ zero_extendqisi2
 841:Drivers/STM32L4xx_HAL_Driver/Src/stm32l4xx_hal_dfsdm.c **** }
 825              		.loc 1 841 1
 826 0048 1846     		mov	r0, r3
 827 004a 1037     		adds	r7, r7, #16
 828              		.cfi_def_cfa_offset 8
 829 004c BD46     		mov	sp, r7
 830              		.cfi_def_cfa_register 13
 831              		@ sp needed
 832 004e 80BD     		pop	{r7, pc}
 833              	.L41:
 834              		.align	2
 835              	.L40:
 836 0050 00610140 		.word	1073832192
 837              		.cfi_endproc
 838              	.LFE451:
 840              		.section	.text.HAL_DFSDM_ChannelCkabStart_IT,"ax",%progbits
 841              		.align	1
 842              		.global	HAL_DFSDM_ChannelCkabStart_IT
 843              		.syntax unified
 844              		.thumb
 845              		.thumb_func
 847              	HAL_DFSDM_ChannelCkabStart_IT:
 848              	.LFB452:
 842:Drivers/STM32L4xx_HAL_Driver/Src/stm32l4xx_hal_dfsdm.c **** 
 843:Drivers/STM32L4xx_HAL_Driver/Src/stm32l4xx_hal_dfsdm.c **** /**
 844:Drivers/STM32L4xx_HAL_Driver/Src/stm32l4xx_hal_dfsdm.c ****   * @brief  This function allows to start clock absence detection in interrupt mode.
 845:Drivers/STM32L4xx_HAL_Driver/Src/stm32l4xx_hal_dfsdm.c ****   * @note   Same mode has to be used for all channels.
 846:Drivers/STM32L4xx_HAL_Driver/Src/stm32l4xx_hal_dfsdm.c ****   * @note   If clock is not available on this channel during 5 seconds,
 847:Drivers/STM32L4xx_HAL_Driver/Src/stm32l4xx_hal_dfsdm.c ****   *         clock absence detection will not be activated and function
 848:Drivers/STM32L4xx_HAL_Driver/Src/stm32l4xx_hal_dfsdm.c ****   *         will return HAL_TIMEOUT error.
 849:Drivers/STM32L4xx_HAL_Driver/Src/stm32l4xx_hal_dfsdm.c ****   * @param  hdfsdm_channel DFSDM channel handle.
 850:Drivers/STM32L4xx_HAL_Driver/Src/stm32l4xx_hal_dfsdm.c ****   * @retval HAL status
 851:Drivers/STM32L4xx_HAL_Driver/Src/stm32l4xx_hal_dfsdm.c ****   */
 852:Drivers/STM32L4xx_HAL_Driver/Src/stm32l4xx_hal_dfsdm.c **** HAL_StatusTypeDef HAL_DFSDM_ChannelCkabStart_IT(DFSDM_Channel_HandleTypeDef *hdfsdm_channel)
 853:Drivers/STM32L4xx_HAL_Driver/Src/stm32l4xx_hal_dfsdm.c **** {
ARM GAS  /tmp/ccrDNuCE.s 			page 31


 849              		.loc 1 853 1
 850              		.cfi_startproc
 851              		@ args = 0, pretend = 0, frame = 24
 852              		@ frame_needed = 1, uses_anonymous_args = 0
 853 0000 80B5     		push	{r7, lr}
 854              		.cfi_def_cfa_offset 8
 855              		.cfi_offset 7, -8
 856              		.cfi_offset 14, -4
 857 0002 86B0     		sub	sp, sp, #24
 858              		.cfi_def_cfa_offset 32
 859 0004 00AF     		add	r7, sp, #0
 860              		.cfi_def_cfa_register 7
 861 0006 7860     		str	r0, [r7, #4]
 854:Drivers/STM32L4xx_HAL_Driver/Src/stm32l4xx_hal_dfsdm.c ****   HAL_StatusTypeDef status = HAL_OK;
 862              		.loc 1 854 21
 863 0008 0023     		movs	r3, #0
 864 000a FB75     		strb	r3, [r7, #23]
 855:Drivers/STM32L4xx_HAL_Driver/Src/stm32l4xx_hal_dfsdm.c ****   uint32_t channel;
 856:Drivers/STM32L4xx_HAL_Driver/Src/stm32l4xx_hal_dfsdm.c ****   uint32_t tickstart;
 857:Drivers/STM32L4xx_HAL_Driver/Src/stm32l4xx_hal_dfsdm.c **** 
 858:Drivers/STM32L4xx_HAL_Driver/Src/stm32l4xx_hal_dfsdm.c ****   /* Check parameters */
 859:Drivers/STM32L4xx_HAL_Driver/Src/stm32l4xx_hal_dfsdm.c ****   assert_param(IS_DFSDM_CHANNEL_ALL_INSTANCE(hdfsdm_channel->Instance));
 860:Drivers/STM32L4xx_HAL_Driver/Src/stm32l4xx_hal_dfsdm.c **** 
 861:Drivers/STM32L4xx_HAL_Driver/Src/stm32l4xx_hal_dfsdm.c ****   /* Check DFSDM channel state */
 862:Drivers/STM32L4xx_HAL_Driver/Src/stm32l4xx_hal_dfsdm.c ****   if (hdfsdm_channel->State != HAL_DFSDM_CHANNEL_STATE_READY)
 865              		.loc 1 862 21
 866 000c 7B68     		ldr	r3, [r7, #4]
 867 000e 93F83430 		ldrb	r3, [r3, #52]	@ zero_extendqisi2
 868              		.loc 1 862 6
 869 0012 012B     		cmp	r3, #1
 870 0014 02D0     		beq	.L43
 863:Drivers/STM32L4xx_HAL_Driver/Src/stm32l4xx_hal_dfsdm.c ****   {
 864:Drivers/STM32L4xx_HAL_Driver/Src/stm32l4xx_hal_dfsdm.c ****     /* Return error status */
 865:Drivers/STM32L4xx_HAL_Driver/Src/stm32l4xx_hal_dfsdm.c ****     status = HAL_ERROR;
 871              		.loc 1 865 12
 872 0016 0123     		movs	r3, #1
 873 0018 FB75     		strb	r3, [r7, #23]
 874 001a 39E0     		b	.L44
 875              	.L43:
 866:Drivers/STM32L4xx_HAL_Driver/Src/stm32l4xx_hal_dfsdm.c ****   }
 867:Drivers/STM32L4xx_HAL_Driver/Src/stm32l4xx_hal_dfsdm.c ****   else
 868:Drivers/STM32L4xx_HAL_Driver/Src/stm32l4xx_hal_dfsdm.c ****   {
 869:Drivers/STM32L4xx_HAL_Driver/Src/stm32l4xx_hal_dfsdm.c ****     /* Get channel number from channel instance */
 870:Drivers/STM32L4xx_HAL_Driver/Src/stm32l4xx_hal_dfsdm.c ****     channel = DFSDM_GetChannelFromInstance(hdfsdm_channel->Instance);
 876              		.loc 1 870 58
 877 001c 7B68     		ldr	r3, [r7, #4]
 878 001e 1B68     		ldr	r3, [r3]
 879              		.loc 1 870 15
 880 0020 1846     		mov	r0, r3
 881 0022 FFF7FEFF 		bl	DFSDM_GetChannelFromInstance
 882 0026 3861     		str	r0, [r7, #16]
 871:Drivers/STM32L4xx_HAL_Driver/Src/stm32l4xx_hal_dfsdm.c **** 
 872:Drivers/STM32L4xx_HAL_Driver/Src/stm32l4xx_hal_dfsdm.c ****     /* Get timeout */
 873:Drivers/STM32L4xx_HAL_Driver/Src/stm32l4xx_hal_dfsdm.c ****     tickstart = HAL_GetTick();
 883              		.loc 1 873 17
 884 0028 FFF7FEFF 		bl	HAL_GetTick
 885 002c F860     		str	r0, [r7, #12]
ARM GAS  /tmp/ccrDNuCE.s 			page 32


 874:Drivers/STM32L4xx_HAL_Driver/Src/stm32l4xx_hal_dfsdm.c **** 
 875:Drivers/STM32L4xx_HAL_Driver/Src/stm32l4xx_hal_dfsdm.c ****     /* Clear clock absence flag */
 876:Drivers/STM32L4xx_HAL_Driver/Src/stm32l4xx_hal_dfsdm.c ****     while ((((DFSDM1_Filter0->FLTISR & DFSDM_FLTISR_CKABF) >> (DFSDM_FLTISR_CKABF_Pos + channel)) &
 886              		.loc 1 876 11
 887 002e 12E0     		b	.L45
 888              	.L47:
 877:Drivers/STM32L4xx_HAL_Driver/Src/stm32l4xx_hal_dfsdm.c ****     {
 878:Drivers/STM32L4xx_HAL_Driver/Src/stm32l4xx_hal_dfsdm.c ****       DFSDM1_Filter0->FLTICR = (1UL << (DFSDM_FLTICR_CLRCKABF_Pos + channel));
 889              		.loc 1 878 67
 890 0030 3B69     		ldr	r3, [r7, #16]
 891 0032 1033     		adds	r3, r3, #16
 892              		.loc 1 878 21
 893 0034 194A     		ldr	r2, .L49
 894              		.loc 1 878 37
 895 0036 0121     		movs	r1, #1
 896 0038 01FA03F3 		lsl	r3, r1, r3
 897              		.loc 1 878 30
 898 003c D360     		str	r3, [r2, #12]
 879:Drivers/STM32L4xx_HAL_Driver/Src/stm32l4xx_hal_dfsdm.c **** 
 880:Drivers/STM32L4xx_HAL_Driver/Src/stm32l4xx_hal_dfsdm.c ****       /* Check the Timeout */
 881:Drivers/STM32L4xx_HAL_Driver/Src/stm32l4xx_hal_dfsdm.c ****       if ((HAL_GetTick() - tickstart) > DFSDM_CKAB_TIMEOUT)
 899              		.loc 1 881 12
 900 003e FFF7FEFF 		bl	HAL_GetTick
 901 0042 0246     		mov	r2, r0
 902              		.loc 1 881 26 discriminator 1
 903 0044 FB68     		ldr	r3, [r7, #12]
 904 0046 D31A     		subs	r3, r2, r3
 905              		.loc 1 881 10 discriminator 1
 906 0048 41F28832 		movw	r2, #5000
 907 004c 9342     		cmp	r3, r2
 908 004e 02D9     		bls	.L45
 882:Drivers/STM32L4xx_HAL_Driver/Src/stm32l4xx_hal_dfsdm.c ****       {
 883:Drivers/STM32L4xx_HAL_Driver/Src/stm32l4xx_hal_dfsdm.c ****         /* Set timeout status */
 884:Drivers/STM32L4xx_HAL_Driver/Src/stm32l4xx_hal_dfsdm.c ****         status = HAL_TIMEOUT;
 909              		.loc 1 884 16
 910 0050 0323     		movs	r3, #3
 911 0052 FB75     		strb	r3, [r7, #23]
 885:Drivers/STM32L4xx_HAL_Driver/Src/stm32l4xx_hal_dfsdm.c ****         break;
 912              		.loc 1 885 9
 913 0054 0BE0     		b	.L46
 914              	.L45:
 876:Drivers/STM32L4xx_HAL_Driver/Src/stm32l4xx_hal_dfsdm.c ****     {
 915              		.loc 1 876 29
 916 0056 114B     		ldr	r3, .L49
 917 0058 9B68     		ldr	r3, [r3, #8]
 876:Drivers/STM32L4xx_HAL_Driver/Src/stm32l4xx_hal_dfsdm.c ****     {
 918              		.loc 1 876 38
 919 005a 03F47F02 		and	r2, r3, #16711680
 876:Drivers/STM32L4xx_HAL_Driver/Src/stm32l4xx_hal_dfsdm.c ****     {
 920              		.loc 1 876 87
 921 005e 3B69     		ldr	r3, [r7, #16]
 922 0060 1033     		adds	r3, r3, #16
 876:Drivers/STM32L4xx_HAL_Driver/Src/stm32l4xx_hal_dfsdm.c ****     {
 923              		.loc 1 876 60
 924 0062 22FA03F3 		lsr	r3, r2, r3
 876:Drivers/STM32L4xx_HAL_Driver/Src/stm32l4xx_hal_dfsdm.c ****     {
 925              		.loc 1 876 99
ARM GAS  /tmp/ccrDNuCE.s 			page 33


 926 0066 03F00103 		and	r3, r3, #1
 876:Drivers/STM32L4xx_HAL_Driver/Src/stm32l4xx_hal_dfsdm.c ****     {
 927              		.loc 1 876 105
 928 006a 002B     		cmp	r3, #0
 929 006c E0D1     		bne	.L47
 930              	.L46:
 886:Drivers/STM32L4xx_HAL_Driver/Src/stm32l4xx_hal_dfsdm.c ****       }
 887:Drivers/STM32L4xx_HAL_Driver/Src/stm32l4xx_hal_dfsdm.c ****     }
 888:Drivers/STM32L4xx_HAL_Driver/Src/stm32l4xx_hal_dfsdm.c **** 
 889:Drivers/STM32L4xx_HAL_Driver/Src/stm32l4xx_hal_dfsdm.c ****     if (status == HAL_OK)
 931              		.loc 1 889 8
 932 006e FB7D     		ldrb	r3, [r7, #23]	@ zero_extendqisi2
 933 0070 002B     		cmp	r3, #0
 934 0072 0DD1     		bne	.L44
 890:Drivers/STM32L4xx_HAL_Driver/Src/stm32l4xx_hal_dfsdm.c ****     {
 891:Drivers/STM32L4xx_HAL_Driver/Src/stm32l4xx_hal_dfsdm.c ****       /* Activate clock absence detection interrupt */
 892:Drivers/STM32L4xx_HAL_Driver/Src/stm32l4xx_hal_dfsdm.c ****       DFSDM1_Filter0->FLTCR2 |= DFSDM_FLTCR2_CKABIE;
 935              		.loc 1 892 21
 936 0074 094B     		ldr	r3, .L49
 937 0076 5B68     		ldr	r3, [r3, #4]
 938 0078 084A     		ldr	r2, .L49
 939              		.loc 1 892 30
 940 007a 43F04003 		orr	r3, r3, #64
 941 007e 5360     		str	r3, [r2, #4]
 893:Drivers/STM32L4xx_HAL_Driver/Src/stm32l4xx_hal_dfsdm.c **** 
 894:Drivers/STM32L4xx_HAL_Driver/Src/stm32l4xx_hal_dfsdm.c ****       /* Start clock absence detection */
 895:Drivers/STM32L4xx_HAL_Driver/Src/stm32l4xx_hal_dfsdm.c ****       hdfsdm_channel->Instance->CHCFGR1 |= DFSDM_CHCFGR1_CKABEN;
 942              		.loc 1 895 21
 943 0080 7B68     		ldr	r3, [r7, #4]
 944 0082 1B68     		ldr	r3, [r3]
 945              		.loc 1 895 31
 946 0084 1A68     		ldr	r2, [r3]
 947              		.loc 1 895 21
 948 0086 7B68     		ldr	r3, [r7, #4]
 949 0088 1B68     		ldr	r3, [r3]
 950              		.loc 1 895 41
 951 008a 42F04002 		orr	r2, r2, #64
 952 008e 1A60     		str	r2, [r3]
 953              	.L44:
 896:Drivers/STM32L4xx_HAL_Driver/Src/stm32l4xx_hal_dfsdm.c ****     }
 897:Drivers/STM32L4xx_HAL_Driver/Src/stm32l4xx_hal_dfsdm.c ****   }
 898:Drivers/STM32L4xx_HAL_Driver/Src/stm32l4xx_hal_dfsdm.c ****   /* Return function status */
 899:Drivers/STM32L4xx_HAL_Driver/Src/stm32l4xx_hal_dfsdm.c ****   return status;
 954              		.loc 1 899 10
 955 0090 FB7D     		ldrb	r3, [r7, #23]	@ zero_extendqisi2
 900:Drivers/STM32L4xx_HAL_Driver/Src/stm32l4xx_hal_dfsdm.c **** }
 956              		.loc 1 900 1
 957 0092 1846     		mov	r0, r3
 958 0094 1837     		adds	r7, r7, #24
 959              		.cfi_def_cfa_offset 8
 960 0096 BD46     		mov	sp, r7
 961              		.cfi_def_cfa_register 13
 962              		@ sp needed
 963 0098 80BD     		pop	{r7, pc}
 964              	.L50:
 965 009a 00BF     		.align	2
 966              	.L49:
ARM GAS  /tmp/ccrDNuCE.s 			page 34


 967 009c 00610140 		.word	1073832192
 968              		.cfi_endproc
 969              	.LFE452:
 971              		.section	.text.HAL_DFSDM_ChannelCkabCallback,"ax",%progbits
 972              		.align	1
 973              		.weak	HAL_DFSDM_ChannelCkabCallback
 974              		.syntax unified
 975              		.thumb
 976              		.thumb_func
 978              	HAL_DFSDM_ChannelCkabCallback:
 979              	.LFB453:
 901:Drivers/STM32L4xx_HAL_Driver/Src/stm32l4xx_hal_dfsdm.c **** 
 902:Drivers/STM32L4xx_HAL_Driver/Src/stm32l4xx_hal_dfsdm.c **** /**
 903:Drivers/STM32L4xx_HAL_Driver/Src/stm32l4xx_hal_dfsdm.c ****   * @brief  Clock absence detection callback.
 904:Drivers/STM32L4xx_HAL_Driver/Src/stm32l4xx_hal_dfsdm.c ****   * @param  hdfsdm_channel DFSDM channel handle.
 905:Drivers/STM32L4xx_HAL_Driver/Src/stm32l4xx_hal_dfsdm.c ****   * @retval None
 906:Drivers/STM32L4xx_HAL_Driver/Src/stm32l4xx_hal_dfsdm.c ****   */
 907:Drivers/STM32L4xx_HAL_Driver/Src/stm32l4xx_hal_dfsdm.c **** __weak void HAL_DFSDM_ChannelCkabCallback(DFSDM_Channel_HandleTypeDef *hdfsdm_channel)
 908:Drivers/STM32L4xx_HAL_Driver/Src/stm32l4xx_hal_dfsdm.c **** {
 980              		.loc 1 908 1
 981              		.cfi_startproc
 982              		@ args = 0, pretend = 0, frame = 8
 983              		@ frame_needed = 1, uses_anonymous_args = 0
 984              		@ link register save eliminated.
 985 0000 80B4     		push	{r7}
 986              		.cfi_def_cfa_offset 4
 987              		.cfi_offset 7, -4
 988 0002 83B0     		sub	sp, sp, #12
 989              		.cfi_def_cfa_offset 16
 990 0004 00AF     		add	r7, sp, #0
 991              		.cfi_def_cfa_register 7
 992 0006 7860     		str	r0, [r7, #4]
 909:Drivers/STM32L4xx_HAL_Driver/Src/stm32l4xx_hal_dfsdm.c ****   /* Prevent unused argument(s) compilation warning */
 910:Drivers/STM32L4xx_HAL_Driver/Src/stm32l4xx_hal_dfsdm.c ****   UNUSED(hdfsdm_channel);
 911:Drivers/STM32L4xx_HAL_Driver/Src/stm32l4xx_hal_dfsdm.c **** 
 912:Drivers/STM32L4xx_HAL_Driver/Src/stm32l4xx_hal_dfsdm.c ****   /* NOTE : This function should not be modified, when the callback is needed,
 913:Drivers/STM32L4xx_HAL_Driver/Src/stm32l4xx_hal_dfsdm.c ****             the HAL_DFSDM_ChannelCkabCallback could be implemented in the user file
 914:Drivers/STM32L4xx_HAL_Driver/Src/stm32l4xx_hal_dfsdm.c ****    */
 915:Drivers/STM32L4xx_HAL_Driver/Src/stm32l4xx_hal_dfsdm.c **** }
 993              		.loc 1 915 1
 994 0008 00BF     		nop
 995 000a 0C37     		adds	r7, r7, #12
 996              		.cfi_def_cfa_offset 4
 997 000c BD46     		mov	sp, r7
 998              		.cfi_def_cfa_register 13
 999              		@ sp needed
 1000 000e 5DF8047B 		ldr	r7, [sp], #4
 1001              		.cfi_restore 7
 1002              		.cfi_def_cfa_offset 0
 1003 0012 7047     		bx	lr
 1004              		.cfi_endproc
 1005              	.LFE453:
 1007              		.section	.text.HAL_DFSDM_ChannelCkabStop_IT,"ax",%progbits
 1008              		.align	1
 1009              		.global	HAL_DFSDM_ChannelCkabStop_IT
 1010              		.syntax unified
 1011              		.thumb
ARM GAS  /tmp/ccrDNuCE.s 			page 35


 1012              		.thumb_func
 1014              	HAL_DFSDM_ChannelCkabStop_IT:
 1015              	.LFB454:
 916:Drivers/STM32L4xx_HAL_Driver/Src/stm32l4xx_hal_dfsdm.c **** 
 917:Drivers/STM32L4xx_HAL_Driver/Src/stm32l4xx_hal_dfsdm.c **** /**
 918:Drivers/STM32L4xx_HAL_Driver/Src/stm32l4xx_hal_dfsdm.c ****   * @brief  This function allows to stop clock absence detection in interrupt mode.
 919:Drivers/STM32L4xx_HAL_Driver/Src/stm32l4xx_hal_dfsdm.c ****   * @note   Interrupt will be disabled for all channels
 920:Drivers/STM32L4xx_HAL_Driver/Src/stm32l4xx_hal_dfsdm.c ****   * @param  hdfsdm_channel DFSDM channel handle.
 921:Drivers/STM32L4xx_HAL_Driver/Src/stm32l4xx_hal_dfsdm.c ****   * @retval HAL status
 922:Drivers/STM32L4xx_HAL_Driver/Src/stm32l4xx_hal_dfsdm.c ****   */
 923:Drivers/STM32L4xx_HAL_Driver/Src/stm32l4xx_hal_dfsdm.c **** HAL_StatusTypeDef HAL_DFSDM_ChannelCkabStop_IT(DFSDM_Channel_HandleTypeDef *hdfsdm_channel)
 924:Drivers/STM32L4xx_HAL_Driver/Src/stm32l4xx_hal_dfsdm.c **** {
 1016              		.loc 1 924 1
 1017              		.cfi_startproc
 1018              		@ args = 0, pretend = 0, frame = 16
 1019              		@ frame_needed = 1, uses_anonymous_args = 0
 1020 0000 80B5     		push	{r7, lr}
 1021              		.cfi_def_cfa_offset 8
 1022              		.cfi_offset 7, -8
 1023              		.cfi_offset 14, -4
 1024 0002 84B0     		sub	sp, sp, #16
 1025              		.cfi_def_cfa_offset 24
 1026 0004 00AF     		add	r7, sp, #0
 1027              		.cfi_def_cfa_register 7
 1028 0006 7860     		str	r0, [r7, #4]
 925:Drivers/STM32L4xx_HAL_Driver/Src/stm32l4xx_hal_dfsdm.c ****   HAL_StatusTypeDef status = HAL_OK;
 1029              		.loc 1 925 21
 1030 0008 0023     		movs	r3, #0
 1031 000a FB73     		strb	r3, [r7, #15]
 926:Drivers/STM32L4xx_HAL_Driver/Src/stm32l4xx_hal_dfsdm.c ****   uint32_t channel;
 927:Drivers/STM32L4xx_HAL_Driver/Src/stm32l4xx_hal_dfsdm.c **** 
 928:Drivers/STM32L4xx_HAL_Driver/Src/stm32l4xx_hal_dfsdm.c ****   /* Check parameters */
 929:Drivers/STM32L4xx_HAL_Driver/Src/stm32l4xx_hal_dfsdm.c ****   assert_param(IS_DFSDM_CHANNEL_ALL_INSTANCE(hdfsdm_channel->Instance));
 930:Drivers/STM32L4xx_HAL_Driver/Src/stm32l4xx_hal_dfsdm.c **** 
 931:Drivers/STM32L4xx_HAL_Driver/Src/stm32l4xx_hal_dfsdm.c ****   /* Check DFSDM channel state */
 932:Drivers/STM32L4xx_HAL_Driver/Src/stm32l4xx_hal_dfsdm.c ****   if (hdfsdm_channel->State != HAL_DFSDM_CHANNEL_STATE_READY)
 1032              		.loc 1 932 21
 1033 000c 7B68     		ldr	r3, [r7, #4]
 1034 000e 93F83430 		ldrb	r3, [r3, #52]	@ zero_extendqisi2
 1035              		.loc 1 932 6
 1036 0012 012B     		cmp	r3, #1
 1037 0014 02D0     		beq	.L53
 933:Drivers/STM32L4xx_HAL_Driver/Src/stm32l4xx_hal_dfsdm.c ****   {
 934:Drivers/STM32L4xx_HAL_Driver/Src/stm32l4xx_hal_dfsdm.c ****     /* Return error status */
 935:Drivers/STM32L4xx_HAL_Driver/Src/stm32l4xx_hal_dfsdm.c ****     status = HAL_ERROR;
 1038              		.loc 1 935 12
 1039 0016 0123     		movs	r3, #1
 1040 0018 FB73     		strb	r3, [r7, #15]
 1041 001a 1AE0     		b	.L54
 1042              	.L53:
 936:Drivers/STM32L4xx_HAL_Driver/Src/stm32l4xx_hal_dfsdm.c ****   }
 937:Drivers/STM32L4xx_HAL_Driver/Src/stm32l4xx_hal_dfsdm.c ****   else
 938:Drivers/STM32L4xx_HAL_Driver/Src/stm32l4xx_hal_dfsdm.c ****   {
 939:Drivers/STM32L4xx_HAL_Driver/Src/stm32l4xx_hal_dfsdm.c ****     /* Stop clock absence detection */
 940:Drivers/STM32L4xx_HAL_Driver/Src/stm32l4xx_hal_dfsdm.c ****     hdfsdm_channel->Instance->CHCFGR1 &= ~(DFSDM_CHCFGR1_CKABEN);
 1043              		.loc 1 940 19
 1044 001c 7B68     		ldr	r3, [r7, #4]
ARM GAS  /tmp/ccrDNuCE.s 			page 36


 1045 001e 1B68     		ldr	r3, [r3]
 1046              		.loc 1 940 29
 1047 0020 1A68     		ldr	r2, [r3]
 1048              		.loc 1 940 19
 1049 0022 7B68     		ldr	r3, [r7, #4]
 1050 0024 1B68     		ldr	r3, [r3]
 1051              		.loc 1 940 39
 1052 0026 22F04002 		bic	r2, r2, #64
 1053 002a 1A60     		str	r2, [r3]
 941:Drivers/STM32L4xx_HAL_Driver/Src/stm32l4xx_hal_dfsdm.c **** 
 942:Drivers/STM32L4xx_HAL_Driver/Src/stm32l4xx_hal_dfsdm.c ****     /* Clear clock absence flag */
 943:Drivers/STM32L4xx_HAL_Driver/Src/stm32l4xx_hal_dfsdm.c ****     channel = DFSDM_GetChannelFromInstance(hdfsdm_channel->Instance);
 1054              		.loc 1 943 58
 1055 002c 7B68     		ldr	r3, [r7, #4]
 1056 002e 1B68     		ldr	r3, [r3]
 1057              		.loc 1 943 15
 1058 0030 1846     		mov	r0, r3
 1059 0032 FFF7FEFF 		bl	DFSDM_GetChannelFromInstance
 1060 0036 B860     		str	r0, [r7, #8]
 944:Drivers/STM32L4xx_HAL_Driver/Src/stm32l4xx_hal_dfsdm.c ****     DFSDM1_Filter0->FLTICR = (1UL << (DFSDM_FLTICR_CLRCKABF_Pos + channel));
 1061              		.loc 1 944 65
 1062 0038 BB68     		ldr	r3, [r7, #8]
 1063 003a 1033     		adds	r3, r3, #16
 1064              		.loc 1 944 19
 1065 003c 074A     		ldr	r2, .L56
 1066              		.loc 1 944 35
 1067 003e 0121     		movs	r1, #1
 1068 0040 01FA03F3 		lsl	r3, r1, r3
 1069              		.loc 1 944 28
 1070 0044 D360     		str	r3, [r2, #12]
 945:Drivers/STM32L4xx_HAL_Driver/Src/stm32l4xx_hal_dfsdm.c **** 
 946:Drivers/STM32L4xx_HAL_Driver/Src/stm32l4xx_hal_dfsdm.c ****     /* Disable clock absence detection interrupt */
 947:Drivers/STM32L4xx_HAL_Driver/Src/stm32l4xx_hal_dfsdm.c ****     DFSDM1_Filter0->FLTCR2 &= ~(DFSDM_FLTCR2_CKABIE);
 1071              		.loc 1 947 19
 1072 0046 054B     		ldr	r3, .L56
 1073 0048 5B68     		ldr	r3, [r3, #4]
 1074 004a 044A     		ldr	r2, .L56
 1075              		.loc 1 947 28
 1076 004c 23F04003 		bic	r3, r3, #64
 1077 0050 5360     		str	r3, [r2, #4]
 1078              	.L54:
 948:Drivers/STM32L4xx_HAL_Driver/Src/stm32l4xx_hal_dfsdm.c ****   }
 949:Drivers/STM32L4xx_HAL_Driver/Src/stm32l4xx_hal_dfsdm.c ****   /* Return function status */
 950:Drivers/STM32L4xx_HAL_Driver/Src/stm32l4xx_hal_dfsdm.c ****   return status;
 1079              		.loc 1 950 10
 1080 0052 FB7B     		ldrb	r3, [r7, #15]	@ zero_extendqisi2
 951:Drivers/STM32L4xx_HAL_Driver/Src/stm32l4xx_hal_dfsdm.c **** }
 1081              		.loc 1 951 1
 1082 0054 1846     		mov	r0, r3
 1083 0056 1037     		adds	r7, r7, #16
 1084              		.cfi_def_cfa_offset 8
 1085 0058 BD46     		mov	sp, r7
 1086              		.cfi_def_cfa_register 13
 1087              		@ sp needed
 1088 005a 80BD     		pop	{r7, pc}
 1089              	.L57:
 1090              		.align	2
ARM GAS  /tmp/ccrDNuCE.s 			page 37


 1091              	.L56:
 1092 005c 00610140 		.word	1073832192
 1093              		.cfi_endproc
 1094              	.LFE454:
 1096              		.section	.text.HAL_DFSDM_ChannelScdStart,"ax",%progbits
 1097              		.align	1
 1098              		.global	HAL_DFSDM_ChannelScdStart
 1099              		.syntax unified
 1100              		.thumb
 1101              		.thumb_func
 1103              	HAL_DFSDM_ChannelScdStart:
 1104              	.LFB455:
 952:Drivers/STM32L4xx_HAL_Driver/Src/stm32l4xx_hal_dfsdm.c **** 
 953:Drivers/STM32L4xx_HAL_Driver/Src/stm32l4xx_hal_dfsdm.c **** /**
 954:Drivers/STM32L4xx_HAL_Driver/Src/stm32l4xx_hal_dfsdm.c ****   * @brief  This function allows to start short circuit detection in polling mode.
 955:Drivers/STM32L4xx_HAL_Driver/Src/stm32l4xx_hal_dfsdm.c ****   * @note   Same mode has to be used for all channels
 956:Drivers/STM32L4xx_HAL_Driver/Src/stm32l4xx_hal_dfsdm.c ****   * @param  hdfsdm_channel DFSDM channel handle.
 957:Drivers/STM32L4xx_HAL_Driver/Src/stm32l4xx_hal_dfsdm.c ****   * @param  Threshold Short circuit detector threshold.
 958:Drivers/STM32L4xx_HAL_Driver/Src/stm32l4xx_hal_dfsdm.c ****   *         This parameter must be a number between Min_Data = 0 and Max_Data = 255.
 959:Drivers/STM32L4xx_HAL_Driver/Src/stm32l4xx_hal_dfsdm.c ****   * @param  BreakSignal Break signals assigned to short circuit event.
 960:Drivers/STM32L4xx_HAL_Driver/Src/stm32l4xx_hal_dfsdm.c ****   *         This parameter can be a values combination of @ref DFSDM_BreakSignals.
 961:Drivers/STM32L4xx_HAL_Driver/Src/stm32l4xx_hal_dfsdm.c ****   * @retval HAL status
 962:Drivers/STM32L4xx_HAL_Driver/Src/stm32l4xx_hal_dfsdm.c ****   */
 963:Drivers/STM32L4xx_HAL_Driver/Src/stm32l4xx_hal_dfsdm.c **** HAL_StatusTypeDef HAL_DFSDM_ChannelScdStart(DFSDM_Channel_HandleTypeDef *hdfsdm_channel,
 964:Drivers/STM32L4xx_HAL_Driver/Src/stm32l4xx_hal_dfsdm.c ****                                             uint32_t Threshold,
 965:Drivers/STM32L4xx_HAL_Driver/Src/stm32l4xx_hal_dfsdm.c ****                                             uint32_t BreakSignal)
 966:Drivers/STM32L4xx_HAL_Driver/Src/stm32l4xx_hal_dfsdm.c **** {
 1105              		.loc 1 966 1
 1106              		.cfi_startproc
 1107              		@ args = 0, pretend = 0, frame = 24
 1108              		@ frame_needed = 1, uses_anonymous_args = 0
 1109              		@ link register save eliminated.
 1110 0000 80B4     		push	{r7}
 1111              		.cfi_def_cfa_offset 4
 1112              		.cfi_offset 7, -4
 1113 0002 87B0     		sub	sp, sp, #28
 1114              		.cfi_def_cfa_offset 32
 1115 0004 00AF     		add	r7, sp, #0
 1116              		.cfi_def_cfa_register 7
 1117 0006 F860     		str	r0, [r7, #12]
 1118 0008 B960     		str	r1, [r7, #8]
 1119 000a 7A60     		str	r2, [r7, #4]
 967:Drivers/STM32L4xx_HAL_Driver/Src/stm32l4xx_hal_dfsdm.c ****   HAL_StatusTypeDef status = HAL_OK;
 1120              		.loc 1 967 21
 1121 000c 0023     		movs	r3, #0
 1122 000e FB75     		strb	r3, [r7, #23]
 968:Drivers/STM32L4xx_HAL_Driver/Src/stm32l4xx_hal_dfsdm.c **** 
 969:Drivers/STM32L4xx_HAL_Driver/Src/stm32l4xx_hal_dfsdm.c ****   /* Check parameters */
 970:Drivers/STM32L4xx_HAL_Driver/Src/stm32l4xx_hal_dfsdm.c ****   assert_param(IS_DFSDM_CHANNEL_ALL_INSTANCE(hdfsdm_channel->Instance));
 971:Drivers/STM32L4xx_HAL_Driver/Src/stm32l4xx_hal_dfsdm.c ****   assert_param(IS_DFSDM_CHANNEL_SCD_THRESHOLD(Threshold));
 972:Drivers/STM32L4xx_HAL_Driver/Src/stm32l4xx_hal_dfsdm.c ****   assert_param(IS_DFSDM_BREAK_SIGNALS(BreakSignal));
 973:Drivers/STM32L4xx_HAL_Driver/Src/stm32l4xx_hal_dfsdm.c **** 
 974:Drivers/STM32L4xx_HAL_Driver/Src/stm32l4xx_hal_dfsdm.c ****   /* Check DFSDM channel state */
 975:Drivers/STM32L4xx_HAL_Driver/Src/stm32l4xx_hal_dfsdm.c ****   if (hdfsdm_channel->State != HAL_DFSDM_CHANNEL_STATE_READY)
 1123              		.loc 1 975 21
 1124 0010 FB68     		ldr	r3, [r7, #12]
 1125 0012 93F83430 		ldrb	r3, [r3, #52]	@ zero_extendqisi2
ARM GAS  /tmp/ccrDNuCE.s 			page 38


 1126              		.loc 1 975 6
 1127 0016 012B     		cmp	r3, #1
 1128 0018 02D0     		beq	.L59
 976:Drivers/STM32L4xx_HAL_Driver/Src/stm32l4xx_hal_dfsdm.c ****   {
 977:Drivers/STM32L4xx_HAL_Driver/Src/stm32l4xx_hal_dfsdm.c ****     /* Return error status */
 978:Drivers/STM32L4xx_HAL_Driver/Src/stm32l4xx_hal_dfsdm.c ****     status = HAL_ERROR;
 1129              		.loc 1 978 12
 1130 001a 0123     		movs	r3, #1
 1131 001c FB75     		strb	r3, [r7, #23]
 1132 001e 1CE0     		b	.L60
 1133              	.L59:
 979:Drivers/STM32L4xx_HAL_Driver/Src/stm32l4xx_hal_dfsdm.c ****   }
 980:Drivers/STM32L4xx_HAL_Driver/Src/stm32l4xx_hal_dfsdm.c ****   else
 981:Drivers/STM32L4xx_HAL_Driver/Src/stm32l4xx_hal_dfsdm.c ****   {
 982:Drivers/STM32L4xx_HAL_Driver/Src/stm32l4xx_hal_dfsdm.c ****     /* Configure threshold and break signals */
 983:Drivers/STM32L4xx_HAL_Driver/Src/stm32l4xx_hal_dfsdm.c ****     hdfsdm_channel->Instance->CHAWSCDR &= ~(DFSDM_CHAWSCDR_BKSCD | DFSDM_CHAWSCDR_SCDT);
 1134              		.loc 1 983 19
 1135 0020 FB68     		ldr	r3, [r7, #12]
 1136 0022 1B68     		ldr	r3, [r3]
 1137              		.loc 1 983 29
 1138 0024 9B68     		ldr	r3, [r3, #8]
 1139              		.loc 1 983 19
 1140 0026 FA68     		ldr	r2, [r7, #12]
 1141 0028 1268     		ldr	r2, [r2]
 1142              		.loc 1 983 40
 1143 002a 23F47043 		bic	r3, r3, #61440
 1144 002e 23F0FF03 		bic	r3, r3, #255
 1145 0032 9360     		str	r3, [r2, #8]
 984:Drivers/STM32L4xx_HAL_Driver/Src/stm32l4xx_hal_dfsdm.c ****     hdfsdm_channel->Instance->CHAWSCDR |= ((BreakSignal << DFSDM_CHAWSCDR_BKSCD_Pos) | \
 1146              		.loc 1 984 19
 1147 0034 FB68     		ldr	r3, [r7, #12]
 1148 0036 1B68     		ldr	r3, [r3]
 1149              		.loc 1 984 29
 1150 0038 9968     		ldr	r1, [r3, #8]
 1151              		.loc 1 984 57
 1152 003a 7B68     		ldr	r3, [r7, #4]
 1153 003c 1A03     		lsls	r2, r3, #12
 1154              		.loc 1 984 86
 1155 003e BB68     		ldr	r3, [r7, #8]
 1156 0040 1A43     		orrs	r2, r2, r3
 1157              		.loc 1 984 19
 1158 0042 FB68     		ldr	r3, [r7, #12]
 1159 0044 1B68     		ldr	r3, [r3]
 1160              		.loc 1 984 40
 1161 0046 0A43     		orrs	r2, r2, r1
 1162 0048 9A60     		str	r2, [r3, #8]
 985:Drivers/STM32L4xx_HAL_Driver/Src/stm32l4xx_hal_dfsdm.c ****                                            Threshold);
 986:Drivers/STM32L4xx_HAL_Driver/Src/stm32l4xx_hal_dfsdm.c **** 
 987:Drivers/STM32L4xx_HAL_Driver/Src/stm32l4xx_hal_dfsdm.c ****     /* Start short circuit detection */
 988:Drivers/STM32L4xx_HAL_Driver/Src/stm32l4xx_hal_dfsdm.c ****     hdfsdm_channel->Instance->CHCFGR1 |= DFSDM_CHCFGR1_SCDEN;
 1163              		.loc 1 988 19
 1164 004a FB68     		ldr	r3, [r7, #12]
 1165 004c 1B68     		ldr	r3, [r3]
 1166              		.loc 1 988 29
 1167 004e 1A68     		ldr	r2, [r3]
 1168              		.loc 1 988 19
 1169 0050 FB68     		ldr	r3, [r7, #12]
ARM GAS  /tmp/ccrDNuCE.s 			page 39


 1170 0052 1B68     		ldr	r3, [r3]
 1171              		.loc 1 988 39
 1172 0054 42F02002 		orr	r2, r2, #32
 1173 0058 1A60     		str	r2, [r3]
 1174              	.L60:
 989:Drivers/STM32L4xx_HAL_Driver/Src/stm32l4xx_hal_dfsdm.c ****   }
 990:Drivers/STM32L4xx_HAL_Driver/Src/stm32l4xx_hal_dfsdm.c ****   /* Return function status */
 991:Drivers/STM32L4xx_HAL_Driver/Src/stm32l4xx_hal_dfsdm.c ****   return status;
 1175              		.loc 1 991 10
 1176 005a FB7D     		ldrb	r3, [r7, #23]	@ zero_extendqisi2
 992:Drivers/STM32L4xx_HAL_Driver/Src/stm32l4xx_hal_dfsdm.c **** }
 1177              		.loc 1 992 1
 1178 005c 1846     		mov	r0, r3
 1179 005e 1C37     		adds	r7, r7, #28
 1180              		.cfi_def_cfa_offset 4
 1181 0060 BD46     		mov	sp, r7
 1182              		.cfi_def_cfa_register 13
 1183              		@ sp needed
 1184 0062 5DF8047B 		ldr	r7, [sp], #4
 1185              		.cfi_restore 7
 1186              		.cfi_def_cfa_offset 0
 1187 0066 7047     		bx	lr
 1188              		.cfi_endproc
 1189              	.LFE455:
 1191              		.section	.text.HAL_DFSDM_ChannelPollForScd,"ax",%progbits
 1192              		.align	1
 1193              		.global	HAL_DFSDM_ChannelPollForScd
 1194              		.syntax unified
 1195              		.thumb
 1196              		.thumb_func
 1198              	HAL_DFSDM_ChannelPollForScd:
 1199              	.LFB456:
 993:Drivers/STM32L4xx_HAL_Driver/Src/stm32l4xx_hal_dfsdm.c **** 
 994:Drivers/STM32L4xx_HAL_Driver/Src/stm32l4xx_hal_dfsdm.c **** /**
 995:Drivers/STM32L4xx_HAL_Driver/Src/stm32l4xx_hal_dfsdm.c ****   * @brief  This function allows to poll for the short circuit detection.
 996:Drivers/STM32L4xx_HAL_Driver/Src/stm32l4xx_hal_dfsdm.c ****   * @param  hdfsdm_channel DFSDM channel handle.
 997:Drivers/STM32L4xx_HAL_Driver/Src/stm32l4xx_hal_dfsdm.c ****   * @param  Timeout Timeout value in milliseconds.
 998:Drivers/STM32L4xx_HAL_Driver/Src/stm32l4xx_hal_dfsdm.c ****   * @retval HAL status
 999:Drivers/STM32L4xx_HAL_Driver/Src/stm32l4xx_hal_dfsdm.c ****   */
1000:Drivers/STM32L4xx_HAL_Driver/Src/stm32l4xx_hal_dfsdm.c **** HAL_StatusTypeDef HAL_DFSDM_ChannelPollForScd(const DFSDM_Channel_HandleTypeDef *hdfsdm_channel,
1001:Drivers/STM32L4xx_HAL_Driver/Src/stm32l4xx_hal_dfsdm.c ****                                               uint32_t Timeout)
1002:Drivers/STM32L4xx_HAL_Driver/Src/stm32l4xx_hal_dfsdm.c **** {
 1200              		.loc 1 1002 1
 1201              		.cfi_startproc
 1202              		@ args = 0, pretend = 0, frame = 16
 1203              		@ frame_needed = 1, uses_anonymous_args = 0
 1204 0000 80B5     		push	{r7, lr}
 1205              		.cfi_def_cfa_offset 8
 1206              		.cfi_offset 7, -8
 1207              		.cfi_offset 14, -4
 1208 0002 84B0     		sub	sp, sp, #16
 1209              		.cfi_def_cfa_offset 24
 1210 0004 00AF     		add	r7, sp, #0
 1211              		.cfi_def_cfa_register 7
 1212 0006 7860     		str	r0, [r7, #4]
 1213 0008 3960     		str	r1, [r7]
1003:Drivers/STM32L4xx_HAL_Driver/Src/stm32l4xx_hal_dfsdm.c ****   uint32_t tickstart;
ARM GAS  /tmp/ccrDNuCE.s 			page 40


1004:Drivers/STM32L4xx_HAL_Driver/Src/stm32l4xx_hal_dfsdm.c ****   uint32_t channel;
1005:Drivers/STM32L4xx_HAL_Driver/Src/stm32l4xx_hal_dfsdm.c **** 
1006:Drivers/STM32L4xx_HAL_Driver/Src/stm32l4xx_hal_dfsdm.c ****   /* Check parameters */
1007:Drivers/STM32L4xx_HAL_Driver/Src/stm32l4xx_hal_dfsdm.c ****   assert_param(IS_DFSDM_CHANNEL_ALL_INSTANCE(hdfsdm_channel->Instance));
1008:Drivers/STM32L4xx_HAL_Driver/Src/stm32l4xx_hal_dfsdm.c **** 
1009:Drivers/STM32L4xx_HAL_Driver/Src/stm32l4xx_hal_dfsdm.c ****   /* Check DFSDM channel state */
1010:Drivers/STM32L4xx_HAL_Driver/Src/stm32l4xx_hal_dfsdm.c ****   if (hdfsdm_channel->State != HAL_DFSDM_CHANNEL_STATE_READY)
 1214              		.loc 1 1010 21
 1215 000a 7B68     		ldr	r3, [r7, #4]
 1216 000c 93F83430 		ldrb	r3, [r3, #52]	@ zero_extendqisi2
 1217              		.loc 1 1010 6
 1218 0010 012B     		cmp	r3, #1
 1219 0012 01D0     		beq	.L63
1011:Drivers/STM32L4xx_HAL_Driver/Src/stm32l4xx_hal_dfsdm.c ****   {
1012:Drivers/STM32L4xx_HAL_Driver/Src/stm32l4xx_hal_dfsdm.c ****     /* Return error status */
1013:Drivers/STM32L4xx_HAL_Driver/Src/stm32l4xx_hal_dfsdm.c ****     return HAL_ERROR;
 1220              		.loc 1 1013 12
 1221 0014 0123     		movs	r3, #1
 1222 0016 2CE0     		b	.L64
 1223              	.L63:
1014:Drivers/STM32L4xx_HAL_Driver/Src/stm32l4xx_hal_dfsdm.c ****   }
1015:Drivers/STM32L4xx_HAL_Driver/Src/stm32l4xx_hal_dfsdm.c ****   else
1016:Drivers/STM32L4xx_HAL_Driver/Src/stm32l4xx_hal_dfsdm.c ****   {
1017:Drivers/STM32L4xx_HAL_Driver/Src/stm32l4xx_hal_dfsdm.c ****     /* Get channel number from channel instance */
1018:Drivers/STM32L4xx_HAL_Driver/Src/stm32l4xx_hal_dfsdm.c ****     channel = DFSDM_GetChannelFromInstance(hdfsdm_channel->Instance);
 1224              		.loc 1 1018 58
 1225 0018 7B68     		ldr	r3, [r7, #4]
 1226 001a 1B68     		ldr	r3, [r3]
 1227              		.loc 1 1018 15
 1228 001c 1846     		mov	r0, r3
 1229 001e FFF7FEFF 		bl	DFSDM_GetChannelFromInstance
 1230 0022 F860     		str	r0, [r7, #12]
1019:Drivers/STM32L4xx_HAL_Driver/Src/stm32l4xx_hal_dfsdm.c **** 
1020:Drivers/STM32L4xx_HAL_Driver/Src/stm32l4xx_hal_dfsdm.c ****     /* Get timeout */
1021:Drivers/STM32L4xx_HAL_Driver/Src/stm32l4xx_hal_dfsdm.c ****     tickstart = HAL_GetTick();
 1231              		.loc 1 1021 17
 1232 0024 FFF7FEFF 		bl	HAL_GetTick
 1233 0028 B860     		str	r0, [r7, #8]
1022:Drivers/STM32L4xx_HAL_Driver/Src/stm32l4xx_hal_dfsdm.c **** 
1023:Drivers/STM32L4xx_HAL_Driver/Src/stm32l4xx_hal_dfsdm.c ****     /* Wait short circuit detection */
1024:Drivers/STM32L4xx_HAL_Driver/Src/stm32l4xx_hal_dfsdm.c ****     while (((DFSDM1_Filter0->FLTISR & DFSDM_FLTISR_SCDF) >> (DFSDM_FLTISR_SCDF_Pos + channel)) == 0
 1234              		.loc 1 1024 11
 1235 002a 10E0     		b	.L66
 1236              	.L68:
1025:Drivers/STM32L4xx_HAL_Driver/Src/stm32l4xx_hal_dfsdm.c ****     {
1026:Drivers/STM32L4xx_HAL_Driver/Src/stm32l4xx_hal_dfsdm.c ****       /* Check the Timeout */
1027:Drivers/STM32L4xx_HAL_Driver/Src/stm32l4xx_hal_dfsdm.c ****       if (Timeout != HAL_MAX_DELAY)
 1237              		.loc 1 1027 10
 1238 002c 3B68     		ldr	r3, [r7]
 1239 002e B3F1FF3F 		cmp	r3, #-1
 1240 0032 0CD0     		beq	.L66
1028:Drivers/STM32L4xx_HAL_Driver/Src/stm32l4xx_hal_dfsdm.c ****       {
1029:Drivers/STM32L4xx_HAL_Driver/Src/stm32l4xx_hal_dfsdm.c ****         if (((HAL_GetTick() - tickstart) > Timeout) || (Timeout == 0U))
 1241              		.loc 1 1029 15
 1242 0034 FFF7FEFF 		bl	HAL_GetTick
 1243 0038 0246     		mov	r2, r0
 1244              		.loc 1 1029 29 discriminator 1
ARM GAS  /tmp/ccrDNuCE.s 			page 41


 1245 003a BB68     		ldr	r3, [r7, #8]
 1246 003c D31A     		subs	r3, r2, r3
 1247              		.loc 1 1029 12 discriminator 1
 1248 003e 3A68     		ldr	r2, [r7]
 1249 0040 9A42     		cmp	r2, r3
 1250 0042 02D3     		bcc	.L67
 1251              		.loc 1 1029 53 discriminator 1
 1252 0044 3B68     		ldr	r3, [r7]
 1253 0046 002B     		cmp	r3, #0
 1254 0048 01D1     		bne	.L66
 1255              	.L67:
1030:Drivers/STM32L4xx_HAL_Driver/Src/stm32l4xx_hal_dfsdm.c ****         {
1031:Drivers/STM32L4xx_HAL_Driver/Src/stm32l4xx_hal_dfsdm.c ****           /* Return timeout status */
1032:Drivers/STM32L4xx_HAL_Driver/Src/stm32l4xx_hal_dfsdm.c ****           return HAL_TIMEOUT;
 1256              		.loc 1 1032 18
 1257 004a 0323     		movs	r3, #3
 1258 004c 11E0     		b	.L64
 1259              	.L66:
1024:Drivers/STM32L4xx_HAL_Driver/Src/stm32l4xx_hal_dfsdm.c ****     {
 1260              		.loc 1 1024 28
 1261 004e 0B4B     		ldr	r3, .L69
 1262 0050 9B68     		ldr	r3, [r3, #8]
1024:Drivers/STM32L4xx_HAL_Driver/Src/stm32l4xx_hal_dfsdm.c ****     {
 1263              		.loc 1 1024 37
 1264 0052 03F07F42 		and	r2, r3, #-16777216
1024:Drivers/STM32L4xx_HAL_Driver/Src/stm32l4xx_hal_dfsdm.c ****     {
 1265              		.loc 1 1024 84
 1266 0056 FB68     		ldr	r3, [r7, #12]
 1267 0058 1833     		adds	r3, r3, #24
1024:Drivers/STM32L4xx_HAL_Driver/Src/stm32l4xx_hal_dfsdm.c ****     {
 1268              		.loc 1 1024 58
 1269 005a 22FA03F3 		lsr	r3, r2, r3
1024:Drivers/STM32L4xx_HAL_Driver/Src/stm32l4xx_hal_dfsdm.c ****     {
 1270              		.loc 1 1024 96
 1271 005e 002B     		cmp	r3, #0
 1272 0060 E4D0     		beq	.L68
1033:Drivers/STM32L4xx_HAL_Driver/Src/stm32l4xx_hal_dfsdm.c ****         }
1034:Drivers/STM32L4xx_HAL_Driver/Src/stm32l4xx_hal_dfsdm.c ****       }
1035:Drivers/STM32L4xx_HAL_Driver/Src/stm32l4xx_hal_dfsdm.c ****     }
1036:Drivers/STM32L4xx_HAL_Driver/Src/stm32l4xx_hal_dfsdm.c **** 
1037:Drivers/STM32L4xx_HAL_Driver/Src/stm32l4xx_hal_dfsdm.c ****     /* Clear short circuit detection flag */
1038:Drivers/STM32L4xx_HAL_Driver/Src/stm32l4xx_hal_dfsdm.c ****     DFSDM1_Filter0->FLTICR = (1UL << (DFSDM_FLTICR_CLRSCDF_Pos + channel));
 1273              		.loc 1 1038 64
 1274 0062 FB68     		ldr	r3, [r7, #12]
 1275 0064 1833     		adds	r3, r3, #24
 1276              		.loc 1 1038 19
 1277 0066 054A     		ldr	r2, .L69
 1278              		.loc 1 1038 35
 1279 0068 0121     		movs	r1, #1
 1280 006a 01FA03F3 		lsl	r3, r1, r3
 1281              		.loc 1 1038 28
 1282 006e D360     		str	r3, [r2, #12]
1039:Drivers/STM32L4xx_HAL_Driver/Src/stm32l4xx_hal_dfsdm.c **** 
1040:Drivers/STM32L4xx_HAL_Driver/Src/stm32l4xx_hal_dfsdm.c ****     /* Return function status */
1041:Drivers/STM32L4xx_HAL_Driver/Src/stm32l4xx_hal_dfsdm.c ****     return HAL_OK;
 1283              		.loc 1 1041 12
 1284 0070 0023     		movs	r3, #0
ARM GAS  /tmp/ccrDNuCE.s 			page 42


 1285              	.L64:
1042:Drivers/STM32L4xx_HAL_Driver/Src/stm32l4xx_hal_dfsdm.c ****   }
1043:Drivers/STM32L4xx_HAL_Driver/Src/stm32l4xx_hal_dfsdm.c **** }
 1286              		.loc 1 1043 1
 1287 0072 1846     		mov	r0, r3
 1288 0074 1037     		adds	r7, r7, #16
 1289              		.cfi_def_cfa_offset 8
 1290 0076 BD46     		mov	sp, r7
 1291              		.cfi_def_cfa_register 13
 1292              		@ sp needed
 1293 0078 80BD     		pop	{r7, pc}
 1294              	.L70:
 1295 007a 00BF     		.align	2
 1296              	.L69:
 1297 007c 00610140 		.word	1073832192
 1298              		.cfi_endproc
 1299              	.LFE456:
 1301              		.section	.text.HAL_DFSDM_ChannelScdStop,"ax",%progbits
 1302              		.align	1
 1303              		.global	HAL_DFSDM_ChannelScdStop
 1304              		.syntax unified
 1305              		.thumb
 1306              		.thumb_func
 1308              	HAL_DFSDM_ChannelScdStop:
 1309              	.LFB457:
1044:Drivers/STM32L4xx_HAL_Driver/Src/stm32l4xx_hal_dfsdm.c **** 
1045:Drivers/STM32L4xx_HAL_Driver/Src/stm32l4xx_hal_dfsdm.c **** /**
1046:Drivers/STM32L4xx_HAL_Driver/Src/stm32l4xx_hal_dfsdm.c ****   * @brief  This function allows to stop short circuit detection in polling mode.
1047:Drivers/STM32L4xx_HAL_Driver/Src/stm32l4xx_hal_dfsdm.c ****   * @param  hdfsdm_channel DFSDM channel handle.
1048:Drivers/STM32L4xx_HAL_Driver/Src/stm32l4xx_hal_dfsdm.c ****   * @retval HAL status
1049:Drivers/STM32L4xx_HAL_Driver/Src/stm32l4xx_hal_dfsdm.c ****   */
1050:Drivers/STM32L4xx_HAL_Driver/Src/stm32l4xx_hal_dfsdm.c **** HAL_StatusTypeDef HAL_DFSDM_ChannelScdStop(DFSDM_Channel_HandleTypeDef *hdfsdm_channel)
1051:Drivers/STM32L4xx_HAL_Driver/Src/stm32l4xx_hal_dfsdm.c **** {
 1310              		.loc 1 1051 1
 1311              		.cfi_startproc
 1312              		@ args = 0, pretend = 0, frame = 16
 1313              		@ frame_needed = 1, uses_anonymous_args = 0
 1314 0000 80B5     		push	{r7, lr}
 1315              		.cfi_def_cfa_offset 8
 1316              		.cfi_offset 7, -8
 1317              		.cfi_offset 14, -4
 1318 0002 84B0     		sub	sp, sp, #16
 1319              		.cfi_def_cfa_offset 24
 1320 0004 00AF     		add	r7, sp, #0
 1321              		.cfi_def_cfa_register 7
 1322 0006 7860     		str	r0, [r7, #4]
1052:Drivers/STM32L4xx_HAL_Driver/Src/stm32l4xx_hal_dfsdm.c ****   HAL_StatusTypeDef status = HAL_OK;
 1323              		.loc 1 1052 21
 1324 0008 0023     		movs	r3, #0
 1325 000a FB73     		strb	r3, [r7, #15]
1053:Drivers/STM32L4xx_HAL_Driver/Src/stm32l4xx_hal_dfsdm.c ****   uint32_t channel;
1054:Drivers/STM32L4xx_HAL_Driver/Src/stm32l4xx_hal_dfsdm.c **** 
1055:Drivers/STM32L4xx_HAL_Driver/Src/stm32l4xx_hal_dfsdm.c ****   /* Check parameters */
1056:Drivers/STM32L4xx_HAL_Driver/Src/stm32l4xx_hal_dfsdm.c ****   assert_param(IS_DFSDM_CHANNEL_ALL_INSTANCE(hdfsdm_channel->Instance));
1057:Drivers/STM32L4xx_HAL_Driver/Src/stm32l4xx_hal_dfsdm.c **** 
1058:Drivers/STM32L4xx_HAL_Driver/Src/stm32l4xx_hal_dfsdm.c ****   /* Check DFSDM channel state */
1059:Drivers/STM32L4xx_HAL_Driver/Src/stm32l4xx_hal_dfsdm.c ****   if (hdfsdm_channel->State != HAL_DFSDM_CHANNEL_STATE_READY)
ARM GAS  /tmp/ccrDNuCE.s 			page 43


 1326              		.loc 1 1059 21
 1327 000c 7B68     		ldr	r3, [r7, #4]
 1328 000e 93F83430 		ldrb	r3, [r3, #52]	@ zero_extendqisi2
 1329              		.loc 1 1059 6
 1330 0012 012B     		cmp	r3, #1
 1331 0014 02D0     		beq	.L72
1060:Drivers/STM32L4xx_HAL_Driver/Src/stm32l4xx_hal_dfsdm.c ****   {
1061:Drivers/STM32L4xx_HAL_Driver/Src/stm32l4xx_hal_dfsdm.c ****     /* Return error status */
1062:Drivers/STM32L4xx_HAL_Driver/Src/stm32l4xx_hal_dfsdm.c ****     status = HAL_ERROR;
 1332              		.loc 1 1062 12
 1333 0016 0123     		movs	r3, #1
 1334 0018 FB73     		strb	r3, [r7, #15]
 1335 001a 14E0     		b	.L73
 1336              	.L72:
1063:Drivers/STM32L4xx_HAL_Driver/Src/stm32l4xx_hal_dfsdm.c ****   }
1064:Drivers/STM32L4xx_HAL_Driver/Src/stm32l4xx_hal_dfsdm.c ****   else
1065:Drivers/STM32L4xx_HAL_Driver/Src/stm32l4xx_hal_dfsdm.c ****   {
1066:Drivers/STM32L4xx_HAL_Driver/Src/stm32l4xx_hal_dfsdm.c ****     /* Stop short circuit detection */
1067:Drivers/STM32L4xx_HAL_Driver/Src/stm32l4xx_hal_dfsdm.c ****     hdfsdm_channel->Instance->CHCFGR1 &= ~(DFSDM_CHCFGR1_SCDEN);
 1337              		.loc 1 1067 19
 1338 001c 7B68     		ldr	r3, [r7, #4]
 1339 001e 1B68     		ldr	r3, [r3]
 1340              		.loc 1 1067 29
 1341 0020 1A68     		ldr	r2, [r3]
 1342              		.loc 1 1067 19
 1343 0022 7B68     		ldr	r3, [r7, #4]
 1344 0024 1B68     		ldr	r3, [r3]
 1345              		.loc 1 1067 39
 1346 0026 22F02002 		bic	r2, r2, #32
 1347 002a 1A60     		str	r2, [r3]
1068:Drivers/STM32L4xx_HAL_Driver/Src/stm32l4xx_hal_dfsdm.c **** 
1069:Drivers/STM32L4xx_HAL_Driver/Src/stm32l4xx_hal_dfsdm.c ****     /* Clear short circuit detection flag */
1070:Drivers/STM32L4xx_HAL_Driver/Src/stm32l4xx_hal_dfsdm.c ****     channel = DFSDM_GetChannelFromInstance(hdfsdm_channel->Instance);
 1348              		.loc 1 1070 58
 1349 002c 7B68     		ldr	r3, [r7, #4]
 1350 002e 1B68     		ldr	r3, [r3]
 1351              		.loc 1 1070 15
 1352 0030 1846     		mov	r0, r3
 1353 0032 FFF7FEFF 		bl	DFSDM_GetChannelFromInstance
 1354 0036 B860     		str	r0, [r7, #8]
1071:Drivers/STM32L4xx_HAL_Driver/Src/stm32l4xx_hal_dfsdm.c ****     DFSDM1_Filter0->FLTICR = (1UL << (DFSDM_FLTICR_CLRSCDF_Pos + channel));
 1355              		.loc 1 1071 64
 1356 0038 BB68     		ldr	r3, [r7, #8]
 1357 003a 1833     		adds	r3, r3, #24
 1358              		.loc 1 1071 19
 1359 003c 044A     		ldr	r2, .L75
 1360              		.loc 1 1071 35
 1361 003e 0121     		movs	r1, #1
 1362 0040 01FA03F3 		lsl	r3, r1, r3
 1363              		.loc 1 1071 28
 1364 0044 D360     		str	r3, [r2, #12]
 1365              	.L73:
1072:Drivers/STM32L4xx_HAL_Driver/Src/stm32l4xx_hal_dfsdm.c ****   }
1073:Drivers/STM32L4xx_HAL_Driver/Src/stm32l4xx_hal_dfsdm.c ****   /* Return function status */
1074:Drivers/STM32L4xx_HAL_Driver/Src/stm32l4xx_hal_dfsdm.c ****   return status;
 1366              		.loc 1 1074 10
 1367 0046 FB7B     		ldrb	r3, [r7, #15]	@ zero_extendqisi2
ARM GAS  /tmp/ccrDNuCE.s 			page 44


1075:Drivers/STM32L4xx_HAL_Driver/Src/stm32l4xx_hal_dfsdm.c **** }
 1368              		.loc 1 1075 1
 1369 0048 1846     		mov	r0, r3
 1370 004a 1037     		adds	r7, r7, #16
 1371              		.cfi_def_cfa_offset 8
 1372 004c BD46     		mov	sp, r7
 1373              		.cfi_def_cfa_register 13
 1374              		@ sp needed
 1375 004e 80BD     		pop	{r7, pc}
 1376              	.L76:
 1377              		.align	2
 1378              	.L75:
 1379 0050 00610140 		.word	1073832192
 1380              		.cfi_endproc
 1381              	.LFE457:
 1383              		.section	.text.HAL_DFSDM_ChannelScdStart_IT,"ax",%progbits
 1384              		.align	1
 1385              		.global	HAL_DFSDM_ChannelScdStart_IT
 1386              		.syntax unified
 1387              		.thumb
 1388              		.thumb_func
 1390              	HAL_DFSDM_ChannelScdStart_IT:
 1391              	.LFB458:
1076:Drivers/STM32L4xx_HAL_Driver/Src/stm32l4xx_hal_dfsdm.c **** 
1077:Drivers/STM32L4xx_HAL_Driver/Src/stm32l4xx_hal_dfsdm.c **** /**
1078:Drivers/STM32L4xx_HAL_Driver/Src/stm32l4xx_hal_dfsdm.c ****   * @brief  This function allows to start short circuit detection in interrupt mode.
1079:Drivers/STM32L4xx_HAL_Driver/Src/stm32l4xx_hal_dfsdm.c ****   * @note   Same mode has to be used for all channels
1080:Drivers/STM32L4xx_HAL_Driver/Src/stm32l4xx_hal_dfsdm.c ****   * @param  hdfsdm_channel DFSDM channel handle.
1081:Drivers/STM32L4xx_HAL_Driver/Src/stm32l4xx_hal_dfsdm.c ****   * @param  Threshold Short circuit detector threshold.
1082:Drivers/STM32L4xx_HAL_Driver/Src/stm32l4xx_hal_dfsdm.c ****   *         This parameter must be a number between Min_Data = 0 and Max_Data = 255.
1083:Drivers/STM32L4xx_HAL_Driver/Src/stm32l4xx_hal_dfsdm.c ****   * @param  BreakSignal Break signals assigned to short circuit event.
1084:Drivers/STM32L4xx_HAL_Driver/Src/stm32l4xx_hal_dfsdm.c ****   *         This parameter can be a values combination of @ref DFSDM_BreakSignals.
1085:Drivers/STM32L4xx_HAL_Driver/Src/stm32l4xx_hal_dfsdm.c ****   * @retval HAL status
1086:Drivers/STM32L4xx_HAL_Driver/Src/stm32l4xx_hal_dfsdm.c ****   */
1087:Drivers/STM32L4xx_HAL_Driver/Src/stm32l4xx_hal_dfsdm.c **** HAL_StatusTypeDef HAL_DFSDM_ChannelScdStart_IT(DFSDM_Channel_HandleTypeDef *hdfsdm_channel,
1088:Drivers/STM32L4xx_HAL_Driver/Src/stm32l4xx_hal_dfsdm.c ****                                                uint32_t Threshold,
1089:Drivers/STM32L4xx_HAL_Driver/Src/stm32l4xx_hal_dfsdm.c ****                                                uint32_t BreakSignal)
1090:Drivers/STM32L4xx_HAL_Driver/Src/stm32l4xx_hal_dfsdm.c **** {
 1392              		.loc 1 1090 1
 1393              		.cfi_startproc
 1394              		@ args = 0, pretend = 0, frame = 24
 1395              		@ frame_needed = 1, uses_anonymous_args = 0
 1396              		@ link register save eliminated.
 1397 0000 80B4     		push	{r7}
 1398              		.cfi_def_cfa_offset 4
 1399              		.cfi_offset 7, -4
 1400 0002 87B0     		sub	sp, sp, #28
 1401              		.cfi_def_cfa_offset 32
 1402 0004 00AF     		add	r7, sp, #0
 1403              		.cfi_def_cfa_register 7
 1404 0006 F860     		str	r0, [r7, #12]
 1405 0008 B960     		str	r1, [r7, #8]
 1406 000a 7A60     		str	r2, [r7, #4]
1091:Drivers/STM32L4xx_HAL_Driver/Src/stm32l4xx_hal_dfsdm.c ****   HAL_StatusTypeDef status = HAL_OK;
 1407              		.loc 1 1091 21
 1408 000c 0023     		movs	r3, #0
 1409 000e FB75     		strb	r3, [r7, #23]
ARM GAS  /tmp/ccrDNuCE.s 			page 45


1092:Drivers/STM32L4xx_HAL_Driver/Src/stm32l4xx_hal_dfsdm.c **** 
1093:Drivers/STM32L4xx_HAL_Driver/Src/stm32l4xx_hal_dfsdm.c ****   /* Check parameters */
1094:Drivers/STM32L4xx_HAL_Driver/Src/stm32l4xx_hal_dfsdm.c ****   assert_param(IS_DFSDM_CHANNEL_ALL_INSTANCE(hdfsdm_channel->Instance));
1095:Drivers/STM32L4xx_HAL_Driver/Src/stm32l4xx_hal_dfsdm.c ****   assert_param(IS_DFSDM_CHANNEL_SCD_THRESHOLD(Threshold));
1096:Drivers/STM32L4xx_HAL_Driver/Src/stm32l4xx_hal_dfsdm.c ****   assert_param(IS_DFSDM_BREAK_SIGNALS(BreakSignal));
1097:Drivers/STM32L4xx_HAL_Driver/Src/stm32l4xx_hal_dfsdm.c **** 
1098:Drivers/STM32L4xx_HAL_Driver/Src/stm32l4xx_hal_dfsdm.c ****   /* Check DFSDM channel state */
1099:Drivers/STM32L4xx_HAL_Driver/Src/stm32l4xx_hal_dfsdm.c ****   if (hdfsdm_channel->State != HAL_DFSDM_CHANNEL_STATE_READY)
 1410              		.loc 1 1099 21
 1411 0010 FB68     		ldr	r3, [r7, #12]
 1412 0012 93F83430 		ldrb	r3, [r3, #52]	@ zero_extendqisi2
 1413              		.loc 1 1099 6
 1414 0016 012B     		cmp	r3, #1
 1415 0018 02D0     		beq	.L78
1100:Drivers/STM32L4xx_HAL_Driver/Src/stm32l4xx_hal_dfsdm.c ****   {
1101:Drivers/STM32L4xx_HAL_Driver/Src/stm32l4xx_hal_dfsdm.c ****     /* Return error status */
1102:Drivers/STM32L4xx_HAL_Driver/Src/stm32l4xx_hal_dfsdm.c ****     status = HAL_ERROR;
 1416              		.loc 1 1102 12
 1417 001a 0123     		movs	r3, #1
 1418 001c FB75     		strb	r3, [r7, #23]
 1419 001e 22E0     		b	.L79
 1420              	.L78:
1103:Drivers/STM32L4xx_HAL_Driver/Src/stm32l4xx_hal_dfsdm.c ****   }
1104:Drivers/STM32L4xx_HAL_Driver/Src/stm32l4xx_hal_dfsdm.c ****   else
1105:Drivers/STM32L4xx_HAL_Driver/Src/stm32l4xx_hal_dfsdm.c ****   {
1106:Drivers/STM32L4xx_HAL_Driver/Src/stm32l4xx_hal_dfsdm.c ****     /* Activate short circuit detection interrupt */
1107:Drivers/STM32L4xx_HAL_Driver/Src/stm32l4xx_hal_dfsdm.c ****     DFSDM1_Filter0->FLTCR2 |= DFSDM_FLTCR2_SCDIE;
 1421              		.loc 1 1107 19
 1422 0020 144B     		ldr	r3, .L81
 1423 0022 5B68     		ldr	r3, [r3, #4]
 1424 0024 134A     		ldr	r2, .L81
 1425              		.loc 1 1107 28
 1426 0026 43F02003 		orr	r3, r3, #32
 1427 002a 5360     		str	r3, [r2, #4]
1108:Drivers/STM32L4xx_HAL_Driver/Src/stm32l4xx_hal_dfsdm.c **** 
1109:Drivers/STM32L4xx_HAL_Driver/Src/stm32l4xx_hal_dfsdm.c ****     /* Configure threshold and break signals */
1110:Drivers/STM32L4xx_HAL_Driver/Src/stm32l4xx_hal_dfsdm.c ****     hdfsdm_channel->Instance->CHAWSCDR &= ~(DFSDM_CHAWSCDR_BKSCD | DFSDM_CHAWSCDR_SCDT);
 1428              		.loc 1 1110 19
 1429 002c FB68     		ldr	r3, [r7, #12]
 1430 002e 1B68     		ldr	r3, [r3]
 1431              		.loc 1 1110 29
 1432 0030 9B68     		ldr	r3, [r3, #8]
 1433              		.loc 1 1110 19
 1434 0032 FA68     		ldr	r2, [r7, #12]
 1435 0034 1268     		ldr	r2, [r2]
 1436              		.loc 1 1110 40
 1437 0036 23F47043 		bic	r3, r3, #61440
 1438 003a 23F0FF03 		bic	r3, r3, #255
 1439 003e 9360     		str	r3, [r2, #8]
1111:Drivers/STM32L4xx_HAL_Driver/Src/stm32l4xx_hal_dfsdm.c ****     hdfsdm_channel->Instance->CHAWSCDR |= ((BreakSignal << DFSDM_CHAWSCDR_BKSCD_Pos) | \
 1440              		.loc 1 1111 19
 1441 0040 FB68     		ldr	r3, [r7, #12]
 1442 0042 1B68     		ldr	r3, [r3]
 1443              		.loc 1 1111 29
 1444 0044 9968     		ldr	r1, [r3, #8]
 1445              		.loc 1 1111 57
 1446 0046 7B68     		ldr	r3, [r7, #4]
ARM GAS  /tmp/ccrDNuCE.s 			page 46


 1447 0048 1A03     		lsls	r2, r3, #12
 1448              		.loc 1 1111 86
 1449 004a BB68     		ldr	r3, [r7, #8]
 1450 004c 1A43     		orrs	r2, r2, r3
 1451              		.loc 1 1111 19
 1452 004e FB68     		ldr	r3, [r7, #12]
 1453 0050 1B68     		ldr	r3, [r3]
 1454              		.loc 1 1111 40
 1455 0052 0A43     		orrs	r2, r2, r1
 1456 0054 9A60     		str	r2, [r3, #8]
1112:Drivers/STM32L4xx_HAL_Driver/Src/stm32l4xx_hal_dfsdm.c ****                                            Threshold);
1113:Drivers/STM32L4xx_HAL_Driver/Src/stm32l4xx_hal_dfsdm.c **** 
1114:Drivers/STM32L4xx_HAL_Driver/Src/stm32l4xx_hal_dfsdm.c ****     /* Start short circuit detection */
1115:Drivers/STM32L4xx_HAL_Driver/Src/stm32l4xx_hal_dfsdm.c ****     hdfsdm_channel->Instance->CHCFGR1 |= DFSDM_CHCFGR1_SCDEN;
 1457              		.loc 1 1115 19
 1458 0056 FB68     		ldr	r3, [r7, #12]
 1459 0058 1B68     		ldr	r3, [r3]
 1460              		.loc 1 1115 29
 1461 005a 1A68     		ldr	r2, [r3]
 1462              		.loc 1 1115 19
 1463 005c FB68     		ldr	r3, [r7, #12]
 1464 005e 1B68     		ldr	r3, [r3]
 1465              		.loc 1 1115 39
 1466 0060 42F02002 		orr	r2, r2, #32
 1467 0064 1A60     		str	r2, [r3]
 1468              	.L79:
1116:Drivers/STM32L4xx_HAL_Driver/Src/stm32l4xx_hal_dfsdm.c ****   }
1117:Drivers/STM32L4xx_HAL_Driver/Src/stm32l4xx_hal_dfsdm.c ****   /* Return function status */
1118:Drivers/STM32L4xx_HAL_Driver/Src/stm32l4xx_hal_dfsdm.c ****   return status;
 1469              		.loc 1 1118 10
 1470 0066 FB7D     		ldrb	r3, [r7, #23]	@ zero_extendqisi2
1119:Drivers/STM32L4xx_HAL_Driver/Src/stm32l4xx_hal_dfsdm.c **** }
 1471              		.loc 1 1119 1
 1472 0068 1846     		mov	r0, r3
 1473 006a 1C37     		adds	r7, r7, #28
 1474              		.cfi_def_cfa_offset 4
 1475 006c BD46     		mov	sp, r7
 1476              		.cfi_def_cfa_register 13
 1477              		@ sp needed
 1478 006e 5DF8047B 		ldr	r7, [sp], #4
 1479              		.cfi_restore 7
 1480              		.cfi_def_cfa_offset 0
 1481 0072 7047     		bx	lr
 1482              	.L82:
 1483              		.align	2
 1484              	.L81:
 1485 0074 00610140 		.word	1073832192
 1486              		.cfi_endproc
 1487              	.LFE458:
 1489              		.section	.text.HAL_DFSDM_ChannelScdCallback,"ax",%progbits
 1490              		.align	1
 1491              		.weak	HAL_DFSDM_ChannelScdCallback
 1492              		.syntax unified
 1493              		.thumb
 1494              		.thumb_func
 1496              	HAL_DFSDM_ChannelScdCallback:
 1497              	.LFB459:
ARM GAS  /tmp/ccrDNuCE.s 			page 47


1120:Drivers/STM32L4xx_HAL_Driver/Src/stm32l4xx_hal_dfsdm.c **** 
1121:Drivers/STM32L4xx_HAL_Driver/Src/stm32l4xx_hal_dfsdm.c **** /**
1122:Drivers/STM32L4xx_HAL_Driver/Src/stm32l4xx_hal_dfsdm.c ****   * @brief  Short circuit detection callback.
1123:Drivers/STM32L4xx_HAL_Driver/Src/stm32l4xx_hal_dfsdm.c ****   * @param  hdfsdm_channel DFSDM channel handle.
1124:Drivers/STM32L4xx_HAL_Driver/Src/stm32l4xx_hal_dfsdm.c ****   * @retval None
1125:Drivers/STM32L4xx_HAL_Driver/Src/stm32l4xx_hal_dfsdm.c ****   */
1126:Drivers/STM32L4xx_HAL_Driver/Src/stm32l4xx_hal_dfsdm.c **** __weak void HAL_DFSDM_ChannelScdCallback(DFSDM_Channel_HandleTypeDef *hdfsdm_channel)
1127:Drivers/STM32L4xx_HAL_Driver/Src/stm32l4xx_hal_dfsdm.c **** {
 1498              		.loc 1 1127 1
 1499              		.cfi_startproc
 1500              		@ args = 0, pretend = 0, frame = 8
 1501              		@ frame_needed = 1, uses_anonymous_args = 0
 1502              		@ link register save eliminated.
 1503 0000 80B4     		push	{r7}
 1504              		.cfi_def_cfa_offset 4
 1505              		.cfi_offset 7, -4
 1506 0002 83B0     		sub	sp, sp, #12
 1507              		.cfi_def_cfa_offset 16
 1508 0004 00AF     		add	r7, sp, #0
 1509              		.cfi_def_cfa_register 7
 1510 0006 7860     		str	r0, [r7, #4]
1128:Drivers/STM32L4xx_HAL_Driver/Src/stm32l4xx_hal_dfsdm.c ****   /* Prevent unused argument(s) compilation warning */
1129:Drivers/STM32L4xx_HAL_Driver/Src/stm32l4xx_hal_dfsdm.c ****   UNUSED(hdfsdm_channel);
1130:Drivers/STM32L4xx_HAL_Driver/Src/stm32l4xx_hal_dfsdm.c **** 
1131:Drivers/STM32L4xx_HAL_Driver/Src/stm32l4xx_hal_dfsdm.c ****   /* NOTE : This function should not be modified, when the callback is needed,
1132:Drivers/STM32L4xx_HAL_Driver/Src/stm32l4xx_hal_dfsdm.c ****             the HAL_DFSDM_ChannelScdCallback could be implemented in the user file
1133:Drivers/STM32L4xx_HAL_Driver/Src/stm32l4xx_hal_dfsdm.c ****    */
1134:Drivers/STM32L4xx_HAL_Driver/Src/stm32l4xx_hal_dfsdm.c **** }
 1511              		.loc 1 1134 1
 1512 0008 00BF     		nop
 1513 000a 0C37     		adds	r7, r7, #12
 1514              		.cfi_def_cfa_offset 4
 1515 000c BD46     		mov	sp, r7
 1516              		.cfi_def_cfa_register 13
 1517              		@ sp needed
 1518 000e 5DF8047B 		ldr	r7, [sp], #4
 1519              		.cfi_restore 7
 1520              		.cfi_def_cfa_offset 0
 1521 0012 7047     		bx	lr
 1522              		.cfi_endproc
 1523              	.LFE459:
 1525              		.section	.text.HAL_DFSDM_ChannelScdStop_IT,"ax",%progbits
 1526              		.align	1
 1527              		.global	HAL_DFSDM_ChannelScdStop_IT
 1528              		.syntax unified
 1529              		.thumb
 1530              		.thumb_func
 1532              	HAL_DFSDM_ChannelScdStop_IT:
 1533              	.LFB460:
1135:Drivers/STM32L4xx_HAL_Driver/Src/stm32l4xx_hal_dfsdm.c **** 
1136:Drivers/STM32L4xx_HAL_Driver/Src/stm32l4xx_hal_dfsdm.c **** /**
1137:Drivers/STM32L4xx_HAL_Driver/Src/stm32l4xx_hal_dfsdm.c ****   * @brief  This function allows to stop short circuit detection in interrupt mode.
1138:Drivers/STM32L4xx_HAL_Driver/Src/stm32l4xx_hal_dfsdm.c ****   * @note   Interrupt will be disabled for all channels
1139:Drivers/STM32L4xx_HAL_Driver/Src/stm32l4xx_hal_dfsdm.c ****   * @param  hdfsdm_channel DFSDM channel handle.
1140:Drivers/STM32L4xx_HAL_Driver/Src/stm32l4xx_hal_dfsdm.c ****   * @retval HAL status
1141:Drivers/STM32L4xx_HAL_Driver/Src/stm32l4xx_hal_dfsdm.c ****   */
1142:Drivers/STM32L4xx_HAL_Driver/Src/stm32l4xx_hal_dfsdm.c **** HAL_StatusTypeDef HAL_DFSDM_ChannelScdStop_IT(DFSDM_Channel_HandleTypeDef *hdfsdm_channel)
ARM GAS  /tmp/ccrDNuCE.s 			page 48


1143:Drivers/STM32L4xx_HAL_Driver/Src/stm32l4xx_hal_dfsdm.c **** {
 1534              		.loc 1 1143 1
 1535              		.cfi_startproc
 1536              		@ args = 0, pretend = 0, frame = 16
 1537              		@ frame_needed = 1, uses_anonymous_args = 0
 1538 0000 80B5     		push	{r7, lr}
 1539              		.cfi_def_cfa_offset 8
 1540              		.cfi_offset 7, -8
 1541              		.cfi_offset 14, -4
 1542 0002 84B0     		sub	sp, sp, #16
 1543              		.cfi_def_cfa_offset 24
 1544 0004 00AF     		add	r7, sp, #0
 1545              		.cfi_def_cfa_register 7
 1546 0006 7860     		str	r0, [r7, #4]
1144:Drivers/STM32L4xx_HAL_Driver/Src/stm32l4xx_hal_dfsdm.c ****   HAL_StatusTypeDef status = HAL_OK;
 1547              		.loc 1 1144 21
 1548 0008 0023     		movs	r3, #0
 1549 000a FB73     		strb	r3, [r7, #15]
1145:Drivers/STM32L4xx_HAL_Driver/Src/stm32l4xx_hal_dfsdm.c ****   uint32_t channel;
1146:Drivers/STM32L4xx_HAL_Driver/Src/stm32l4xx_hal_dfsdm.c **** 
1147:Drivers/STM32L4xx_HAL_Driver/Src/stm32l4xx_hal_dfsdm.c ****   /* Check parameters */
1148:Drivers/STM32L4xx_HAL_Driver/Src/stm32l4xx_hal_dfsdm.c ****   assert_param(IS_DFSDM_CHANNEL_ALL_INSTANCE(hdfsdm_channel->Instance));
1149:Drivers/STM32L4xx_HAL_Driver/Src/stm32l4xx_hal_dfsdm.c **** 
1150:Drivers/STM32L4xx_HAL_Driver/Src/stm32l4xx_hal_dfsdm.c ****   /* Check DFSDM channel state */
1151:Drivers/STM32L4xx_HAL_Driver/Src/stm32l4xx_hal_dfsdm.c ****   if (hdfsdm_channel->State != HAL_DFSDM_CHANNEL_STATE_READY)
 1550              		.loc 1 1151 21
 1551 000c 7B68     		ldr	r3, [r7, #4]
 1552 000e 93F83430 		ldrb	r3, [r3, #52]	@ zero_extendqisi2
 1553              		.loc 1 1151 6
 1554 0012 012B     		cmp	r3, #1
 1555 0014 02D0     		beq	.L85
1152:Drivers/STM32L4xx_HAL_Driver/Src/stm32l4xx_hal_dfsdm.c ****   {
1153:Drivers/STM32L4xx_HAL_Driver/Src/stm32l4xx_hal_dfsdm.c ****     /* Return error status */
1154:Drivers/STM32L4xx_HAL_Driver/Src/stm32l4xx_hal_dfsdm.c ****     status = HAL_ERROR;
 1556              		.loc 1 1154 12
 1557 0016 0123     		movs	r3, #1
 1558 0018 FB73     		strb	r3, [r7, #15]
 1559 001a 1AE0     		b	.L86
 1560              	.L85:
1155:Drivers/STM32L4xx_HAL_Driver/Src/stm32l4xx_hal_dfsdm.c ****   }
1156:Drivers/STM32L4xx_HAL_Driver/Src/stm32l4xx_hal_dfsdm.c ****   else
1157:Drivers/STM32L4xx_HAL_Driver/Src/stm32l4xx_hal_dfsdm.c ****   {
1158:Drivers/STM32L4xx_HAL_Driver/Src/stm32l4xx_hal_dfsdm.c ****     /* Stop short circuit detection */
1159:Drivers/STM32L4xx_HAL_Driver/Src/stm32l4xx_hal_dfsdm.c ****     hdfsdm_channel->Instance->CHCFGR1 &= ~(DFSDM_CHCFGR1_SCDEN);
 1561              		.loc 1 1159 19
 1562 001c 7B68     		ldr	r3, [r7, #4]
 1563 001e 1B68     		ldr	r3, [r3]
 1564              		.loc 1 1159 29
 1565 0020 1A68     		ldr	r2, [r3]
 1566              		.loc 1 1159 19
 1567 0022 7B68     		ldr	r3, [r7, #4]
 1568 0024 1B68     		ldr	r3, [r3]
 1569              		.loc 1 1159 39
 1570 0026 22F02002 		bic	r2, r2, #32
 1571 002a 1A60     		str	r2, [r3]
1160:Drivers/STM32L4xx_HAL_Driver/Src/stm32l4xx_hal_dfsdm.c **** 
1161:Drivers/STM32L4xx_HAL_Driver/Src/stm32l4xx_hal_dfsdm.c ****     /* Clear short circuit detection flag */
ARM GAS  /tmp/ccrDNuCE.s 			page 49


1162:Drivers/STM32L4xx_HAL_Driver/Src/stm32l4xx_hal_dfsdm.c ****     channel = DFSDM_GetChannelFromInstance(hdfsdm_channel->Instance);
 1572              		.loc 1 1162 58
 1573 002c 7B68     		ldr	r3, [r7, #4]
 1574 002e 1B68     		ldr	r3, [r3]
 1575              		.loc 1 1162 15
 1576 0030 1846     		mov	r0, r3
 1577 0032 FFF7FEFF 		bl	DFSDM_GetChannelFromInstance
 1578 0036 B860     		str	r0, [r7, #8]
1163:Drivers/STM32L4xx_HAL_Driver/Src/stm32l4xx_hal_dfsdm.c ****     DFSDM1_Filter0->FLTICR = (1UL << (DFSDM_FLTICR_CLRSCDF_Pos + channel));
 1579              		.loc 1 1163 64
 1580 0038 BB68     		ldr	r3, [r7, #8]
 1581 003a 1833     		adds	r3, r3, #24
 1582              		.loc 1 1163 19
 1583 003c 074A     		ldr	r2, .L88
 1584              		.loc 1 1163 35
 1585 003e 0121     		movs	r1, #1
 1586 0040 01FA03F3 		lsl	r3, r1, r3
 1587              		.loc 1 1163 28
 1588 0044 D360     		str	r3, [r2, #12]
1164:Drivers/STM32L4xx_HAL_Driver/Src/stm32l4xx_hal_dfsdm.c **** 
1165:Drivers/STM32L4xx_HAL_Driver/Src/stm32l4xx_hal_dfsdm.c ****     /* Disable short circuit detection interrupt */
1166:Drivers/STM32L4xx_HAL_Driver/Src/stm32l4xx_hal_dfsdm.c ****     DFSDM1_Filter0->FLTCR2 &= ~(DFSDM_FLTCR2_SCDIE);
 1589              		.loc 1 1166 19
 1590 0046 054B     		ldr	r3, .L88
 1591 0048 5B68     		ldr	r3, [r3, #4]
 1592 004a 044A     		ldr	r2, .L88
 1593              		.loc 1 1166 28
 1594 004c 23F02003 		bic	r3, r3, #32
 1595 0050 5360     		str	r3, [r2, #4]
 1596              	.L86:
1167:Drivers/STM32L4xx_HAL_Driver/Src/stm32l4xx_hal_dfsdm.c ****   }
1168:Drivers/STM32L4xx_HAL_Driver/Src/stm32l4xx_hal_dfsdm.c ****   /* Return function status */
1169:Drivers/STM32L4xx_HAL_Driver/Src/stm32l4xx_hal_dfsdm.c ****   return status;
 1597              		.loc 1 1169 10
 1598 0052 FB7B     		ldrb	r3, [r7, #15]	@ zero_extendqisi2
1170:Drivers/STM32L4xx_HAL_Driver/Src/stm32l4xx_hal_dfsdm.c **** }
 1599              		.loc 1 1170 1
 1600 0054 1846     		mov	r0, r3
 1601 0056 1037     		adds	r7, r7, #16
 1602              		.cfi_def_cfa_offset 8
 1603 0058 BD46     		mov	sp, r7
 1604              		.cfi_def_cfa_register 13
 1605              		@ sp needed
 1606 005a 80BD     		pop	{r7, pc}
 1607              	.L89:
 1608              		.align	2
 1609              	.L88:
 1610 005c 00610140 		.word	1073832192
 1611              		.cfi_endproc
 1612              	.LFE460:
 1614              		.section	.text.HAL_DFSDM_ChannelGetAwdValue,"ax",%progbits
 1615              		.align	1
 1616              		.global	HAL_DFSDM_ChannelGetAwdValue
 1617              		.syntax unified
 1618              		.thumb
 1619              		.thumb_func
 1621              	HAL_DFSDM_ChannelGetAwdValue:
ARM GAS  /tmp/ccrDNuCE.s 			page 50


 1622              	.LFB461:
1171:Drivers/STM32L4xx_HAL_Driver/Src/stm32l4xx_hal_dfsdm.c **** 
1172:Drivers/STM32L4xx_HAL_Driver/Src/stm32l4xx_hal_dfsdm.c **** /**
1173:Drivers/STM32L4xx_HAL_Driver/Src/stm32l4xx_hal_dfsdm.c ****   * @brief  This function allows to get channel analog watchdog value.
1174:Drivers/STM32L4xx_HAL_Driver/Src/stm32l4xx_hal_dfsdm.c ****   * @param  hdfsdm_channel DFSDM channel handle.
1175:Drivers/STM32L4xx_HAL_Driver/Src/stm32l4xx_hal_dfsdm.c ****   * @retval Channel analog watchdog value.
1176:Drivers/STM32L4xx_HAL_Driver/Src/stm32l4xx_hal_dfsdm.c ****   */
1177:Drivers/STM32L4xx_HAL_Driver/Src/stm32l4xx_hal_dfsdm.c **** int16_t HAL_DFSDM_ChannelGetAwdValue(const DFSDM_Channel_HandleTypeDef *hdfsdm_channel)
1178:Drivers/STM32L4xx_HAL_Driver/Src/stm32l4xx_hal_dfsdm.c **** {
 1623              		.loc 1 1178 1
 1624              		.cfi_startproc
 1625              		@ args = 0, pretend = 0, frame = 8
 1626              		@ frame_needed = 1, uses_anonymous_args = 0
 1627              		@ link register save eliminated.
 1628 0000 80B4     		push	{r7}
 1629              		.cfi_def_cfa_offset 4
 1630              		.cfi_offset 7, -4
 1631 0002 83B0     		sub	sp, sp, #12
 1632              		.cfi_def_cfa_offset 16
 1633 0004 00AF     		add	r7, sp, #0
 1634              		.cfi_def_cfa_register 7
 1635 0006 7860     		str	r0, [r7, #4]
1179:Drivers/STM32L4xx_HAL_Driver/Src/stm32l4xx_hal_dfsdm.c ****   return (int16_t) hdfsdm_channel->Instance->CHWDATAR;
 1636              		.loc 1 1179 34
 1637 0008 7B68     		ldr	r3, [r7, #4]
 1638 000a 1B68     		ldr	r3, [r3]
 1639              		.loc 1 1179 44
 1640 000c DB68     		ldr	r3, [r3, #12]
 1641              		.loc 1 1179 10
 1642 000e 1BB2     		sxth	r3, r3
1180:Drivers/STM32L4xx_HAL_Driver/Src/stm32l4xx_hal_dfsdm.c **** }
 1643              		.loc 1 1180 1
 1644 0010 1846     		mov	r0, r3
 1645 0012 0C37     		adds	r7, r7, #12
 1646              		.cfi_def_cfa_offset 4
 1647 0014 BD46     		mov	sp, r7
 1648              		.cfi_def_cfa_register 13
 1649              		@ sp needed
 1650 0016 5DF8047B 		ldr	r7, [sp], #4
 1651              		.cfi_restore 7
 1652              		.cfi_def_cfa_offset 0
 1653 001a 7047     		bx	lr
 1654              		.cfi_endproc
 1655              	.LFE461:
 1657              		.section	.text.HAL_DFSDM_ChannelModifyOffset,"ax",%progbits
 1658              		.align	1
 1659              		.global	HAL_DFSDM_ChannelModifyOffset
 1660              		.syntax unified
 1661              		.thumb
 1662              		.thumb_func
 1664              	HAL_DFSDM_ChannelModifyOffset:
 1665              	.LFB462:
1181:Drivers/STM32L4xx_HAL_Driver/Src/stm32l4xx_hal_dfsdm.c **** 
1182:Drivers/STM32L4xx_HAL_Driver/Src/stm32l4xx_hal_dfsdm.c **** /**
1183:Drivers/STM32L4xx_HAL_Driver/Src/stm32l4xx_hal_dfsdm.c ****   * @brief  This function allows to modify channel offset value.
1184:Drivers/STM32L4xx_HAL_Driver/Src/stm32l4xx_hal_dfsdm.c ****   * @param  hdfsdm_channel DFSDM channel handle.
1185:Drivers/STM32L4xx_HAL_Driver/Src/stm32l4xx_hal_dfsdm.c ****   * @param  Offset DFSDM channel offset.
ARM GAS  /tmp/ccrDNuCE.s 			page 51


1186:Drivers/STM32L4xx_HAL_Driver/Src/stm32l4xx_hal_dfsdm.c ****   *         This parameter must be a number between Min_Data = -8388608 and Max_Data = 8388607.
1187:Drivers/STM32L4xx_HAL_Driver/Src/stm32l4xx_hal_dfsdm.c ****   * @retval HAL status.
1188:Drivers/STM32L4xx_HAL_Driver/Src/stm32l4xx_hal_dfsdm.c ****   */
1189:Drivers/STM32L4xx_HAL_Driver/Src/stm32l4xx_hal_dfsdm.c **** HAL_StatusTypeDef HAL_DFSDM_ChannelModifyOffset(DFSDM_Channel_HandleTypeDef *hdfsdm_channel,
1190:Drivers/STM32L4xx_HAL_Driver/Src/stm32l4xx_hal_dfsdm.c ****                                                 int32_t Offset)
1191:Drivers/STM32L4xx_HAL_Driver/Src/stm32l4xx_hal_dfsdm.c **** {
 1666              		.loc 1 1191 1
 1667              		.cfi_startproc
 1668              		@ args = 0, pretend = 0, frame = 16
 1669              		@ frame_needed = 1, uses_anonymous_args = 0
 1670              		@ link register save eliminated.
 1671 0000 80B4     		push	{r7}
 1672              		.cfi_def_cfa_offset 4
 1673              		.cfi_offset 7, -4
 1674 0002 85B0     		sub	sp, sp, #20
 1675              		.cfi_def_cfa_offset 24
 1676 0004 00AF     		add	r7, sp, #0
 1677              		.cfi_def_cfa_register 7
 1678 0006 7860     		str	r0, [r7, #4]
 1679 0008 3960     		str	r1, [r7]
1192:Drivers/STM32L4xx_HAL_Driver/Src/stm32l4xx_hal_dfsdm.c ****   HAL_StatusTypeDef status = HAL_OK;
 1680              		.loc 1 1192 21
 1681 000a 0023     		movs	r3, #0
 1682 000c FB73     		strb	r3, [r7, #15]
1193:Drivers/STM32L4xx_HAL_Driver/Src/stm32l4xx_hal_dfsdm.c **** 
1194:Drivers/STM32L4xx_HAL_Driver/Src/stm32l4xx_hal_dfsdm.c ****   /* Check parameters */
1195:Drivers/STM32L4xx_HAL_Driver/Src/stm32l4xx_hal_dfsdm.c ****   assert_param(IS_DFSDM_CHANNEL_ALL_INSTANCE(hdfsdm_channel->Instance));
1196:Drivers/STM32L4xx_HAL_Driver/Src/stm32l4xx_hal_dfsdm.c ****   assert_param(IS_DFSDM_CHANNEL_OFFSET(Offset));
1197:Drivers/STM32L4xx_HAL_Driver/Src/stm32l4xx_hal_dfsdm.c **** 
1198:Drivers/STM32L4xx_HAL_Driver/Src/stm32l4xx_hal_dfsdm.c ****   /* Check DFSDM channel state */
1199:Drivers/STM32L4xx_HAL_Driver/Src/stm32l4xx_hal_dfsdm.c ****   if (hdfsdm_channel->State != HAL_DFSDM_CHANNEL_STATE_READY)
 1683              		.loc 1 1199 21
 1684 000e 7B68     		ldr	r3, [r7, #4]
 1685 0010 93F83430 		ldrb	r3, [r3, #52]	@ zero_extendqisi2
 1686              		.loc 1 1199 6
 1687 0014 012B     		cmp	r3, #1
 1688 0016 02D0     		beq	.L93
1200:Drivers/STM32L4xx_HAL_Driver/Src/stm32l4xx_hal_dfsdm.c ****   {
1201:Drivers/STM32L4xx_HAL_Driver/Src/stm32l4xx_hal_dfsdm.c ****     /* Return error status */
1202:Drivers/STM32L4xx_HAL_Driver/Src/stm32l4xx_hal_dfsdm.c ****     status = HAL_ERROR;
 1689              		.loc 1 1202 12
 1690 0018 0123     		movs	r3, #1
 1691 001a FB73     		strb	r3, [r7, #15]
 1692 001c 0FE0     		b	.L94
 1693              	.L93:
1203:Drivers/STM32L4xx_HAL_Driver/Src/stm32l4xx_hal_dfsdm.c ****   }
1204:Drivers/STM32L4xx_HAL_Driver/Src/stm32l4xx_hal_dfsdm.c ****   else
1205:Drivers/STM32L4xx_HAL_Driver/Src/stm32l4xx_hal_dfsdm.c ****   {
1206:Drivers/STM32L4xx_HAL_Driver/Src/stm32l4xx_hal_dfsdm.c ****     /* Modify channel offset */
1207:Drivers/STM32L4xx_HAL_Driver/Src/stm32l4xx_hal_dfsdm.c ****     hdfsdm_channel->Instance->CHCFGR2 &= ~(DFSDM_CHCFGR2_OFFSET);
 1694              		.loc 1 1207 19
 1695 001e 7B68     		ldr	r3, [r7, #4]
 1696 0020 1B68     		ldr	r3, [r3]
 1697              		.loc 1 1207 29
 1698 0022 5A68     		ldr	r2, [r3, #4]
 1699              		.loc 1 1207 19
 1700 0024 7B68     		ldr	r3, [r7, #4]
ARM GAS  /tmp/ccrDNuCE.s 			page 52


 1701 0026 1B68     		ldr	r3, [r3]
 1702              		.loc 1 1207 39
 1703 0028 D2B2     		uxtb	r2, r2
 1704 002a 5A60     		str	r2, [r3, #4]
1208:Drivers/STM32L4xx_HAL_Driver/Src/stm32l4xx_hal_dfsdm.c ****     hdfsdm_channel->Instance->CHCFGR2 |= ((uint32_t) Offset << DFSDM_CHCFGR2_OFFSET_Pos);
 1705              		.loc 1 1208 19
 1706 002c 7B68     		ldr	r3, [r7, #4]
 1707 002e 1B68     		ldr	r3, [r3]
 1708              		.loc 1 1208 29
 1709 0030 5968     		ldr	r1, [r3, #4]
 1710              		.loc 1 1208 43
 1711 0032 3B68     		ldr	r3, [r7]
 1712              		.loc 1 1208 61
 1713 0034 1A02     		lsls	r2, r3, #8
 1714              		.loc 1 1208 19
 1715 0036 7B68     		ldr	r3, [r7, #4]
 1716 0038 1B68     		ldr	r3, [r3]
 1717              		.loc 1 1208 39
 1718 003a 0A43     		orrs	r2, r2, r1
 1719 003c 5A60     		str	r2, [r3, #4]
 1720              	.L94:
1209:Drivers/STM32L4xx_HAL_Driver/Src/stm32l4xx_hal_dfsdm.c ****   }
1210:Drivers/STM32L4xx_HAL_Driver/Src/stm32l4xx_hal_dfsdm.c ****   /* Return function status */
1211:Drivers/STM32L4xx_HAL_Driver/Src/stm32l4xx_hal_dfsdm.c ****   return status;
 1721              		.loc 1 1211 10
 1722 003e FB7B     		ldrb	r3, [r7, #15]	@ zero_extendqisi2
1212:Drivers/STM32L4xx_HAL_Driver/Src/stm32l4xx_hal_dfsdm.c **** }
 1723              		.loc 1 1212 1
 1724 0040 1846     		mov	r0, r3
 1725 0042 1437     		adds	r7, r7, #20
 1726              		.cfi_def_cfa_offset 4
 1727 0044 BD46     		mov	sp, r7
 1728              		.cfi_def_cfa_register 13
 1729              		@ sp needed
 1730 0046 5DF8047B 		ldr	r7, [sp], #4
 1731              		.cfi_restore 7
 1732              		.cfi_def_cfa_offset 0
 1733 004a 7047     		bx	lr
 1734              		.cfi_endproc
 1735              	.LFE462:
 1737              		.section	.text.HAL_DFSDM_ChannelGetState,"ax",%progbits
 1738              		.align	1
 1739              		.global	HAL_DFSDM_ChannelGetState
 1740              		.syntax unified
 1741              		.thumb
 1742              		.thumb_func
 1744              	HAL_DFSDM_ChannelGetState:
 1745              	.LFB463:
1213:Drivers/STM32L4xx_HAL_Driver/Src/stm32l4xx_hal_dfsdm.c **** 
1214:Drivers/STM32L4xx_HAL_Driver/Src/stm32l4xx_hal_dfsdm.c **** /**
1215:Drivers/STM32L4xx_HAL_Driver/Src/stm32l4xx_hal_dfsdm.c ****   * @}
1216:Drivers/STM32L4xx_HAL_Driver/Src/stm32l4xx_hal_dfsdm.c ****   */
1217:Drivers/STM32L4xx_HAL_Driver/Src/stm32l4xx_hal_dfsdm.c **** 
1218:Drivers/STM32L4xx_HAL_Driver/Src/stm32l4xx_hal_dfsdm.c **** /** @defgroup DFSDM_Exported_Functions_Group3_Channel Channel state function
1219:Drivers/STM32L4xx_HAL_Driver/Src/stm32l4xx_hal_dfsdm.c ****  *  @brief    Channel state function
1220:Drivers/STM32L4xx_HAL_Driver/Src/stm32l4xx_hal_dfsdm.c ****  *
1221:Drivers/STM32L4xx_HAL_Driver/Src/stm32l4xx_hal_dfsdm.c **** @verbatim
ARM GAS  /tmp/ccrDNuCE.s 			page 53


1222:Drivers/STM32L4xx_HAL_Driver/Src/stm32l4xx_hal_dfsdm.c ****   ==============================================================================
1223:Drivers/STM32L4xx_HAL_Driver/Src/stm32l4xx_hal_dfsdm.c ****                    ##### Channel state function #####
1224:Drivers/STM32L4xx_HAL_Driver/Src/stm32l4xx_hal_dfsdm.c ****   ==============================================================================
1225:Drivers/STM32L4xx_HAL_Driver/Src/stm32l4xx_hal_dfsdm.c ****     [..]  This section provides function allowing to:
1226:Drivers/STM32L4xx_HAL_Driver/Src/stm32l4xx_hal_dfsdm.c ****       (+) Get channel handle state.
1227:Drivers/STM32L4xx_HAL_Driver/Src/stm32l4xx_hal_dfsdm.c **** @endverbatim
1228:Drivers/STM32L4xx_HAL_Driver/Src/stm32l4xx_hal_dfsdm.c ****   * @{
1229:Drivers/STM32L4xx_HAL_Driver/Src/stm32l4xx_hal_dfsdm.c ****   */
1230:Drivers/STM32L4xx_HAL_Driver/Src/stm32l4xx_hal_dfsdm.c **** 
1231:Drivers/STM32L4xx_HAL_Driver/Src/stm32l4xx_hal_dfsdm.c **** /**
1232:Drivers/STM32L4xx_HAL_Driver/Src/stm32l4xx_hal_dfsdm.c ****   * @brief  This function allows to get the current DFSDM channel handle state.
1233:Drivers/STM32L4xx_HAL_Driver/Src/stm32l4xx_hal_dfsdm.c ****   * @param  hdfsdm_channel DFSDM channel handle.
1234:Drivers/STM32L4xx_HAL_Driver/Src/stm32l4xx_hal_dfsdm.c ****   * @retval DFSDM channel state.
1235:Drivers/STM32L4xx_HAL_Driver/Src/stm32l4xx_hal_dfsdm.c ****   */
1236:Drivers/STM32L4xx_HAL_Driver/Src/stm32l4xx_hal_dfsdm.c **** HAL_DFSDM_Channel_StateTypeDef HAL_DFSDM_ChannelGetState(const DFSDM_Channel_HandleTypeDef *hdfsdm_
1237:Drivers/STM32L4xx_HAL_Driver/Src/stm32l4xx_hal_dfsdm.c **** {
 1746              		.loc 1 1237 1
 1747              		.cfi_startproc
 1748              		@ args = 0, pretend = 0, frame = 8
 1749              		@ frame_needed = 1, uses_anonymous_args = 0
 1750              		@ link register save eliminated.
 1751 0000 80B4     		push	{r7}
 1752              		.cfi_def_cfa_offset 4
 1753              		.cfi_offset 7, -4
 1754 0002 83B0     		sub	sp, sp, #12
 1755              		.cfi_def_cfa_offset 16
 1756 0004 00AF     		add	r7, sp, #0
 1757              		.cfi_def_cfa_register 7
 1758 0006 7860     		str	r0, [r7, #4]
1238:Drivers/STM32L4xx_HAL_Driver/Src/stm32l4xx_hal_dfsdm.c ****   /* Return DFSDM channel handle state */
1239:Drivers/STM32L4xx_HAL_Driver/Src/stm32l4xx_hal_dfsdm.c ****   return hdfsdm_channel->State;
 1759              		.loc 1 1239 24
 1760 0008 7B68     		ldr	r3, [r7, #4]
 1761 000a 93F83430 		ldrb	r3, [r3, #52]	@ zero_extendqisi2
1240:Drivers/STM32L4xx_HAL_Driver/Src/stm32l4xx_hal_dfsdm.c **** }
 1762              		.loc 1 1240 1
 1763 000e 1846     		mov	r0, r3
 1764 0010 0C37     		adds	r7, r7, #12
 1765              		.cfi_def_cfa_offset 4
 1766 0012 BD46     		mov	sp, r7
 1767              		.cfi_def_cfa_register 13
 1768              		@ sp needed
 1769 0014 5DF8047B 		ldr	r7, [sp], #4
 1770              		.cfi_restore 7
 1771              		.cfi_def_cfa_offset 0
 1772 0018 7047     		bx	lr
 1773              		.cfi_endproc
 1774              	.LFE463:
 1776              		.section	.text.HAL_DFSDM_FilterInit,"ax",%progbits
 1777              		.align	1
 1778              		.global	HAL_DFSDM_FilterInit
 1779              		.syntax unified
 1780              		.thumb
 1781              		.thumb_func
 1783              	HAL_DFSDM_FilterInit:
 1784              	.LFB464:
1241:Drivers/STM32L4xx_HAL_Driver/Src/stm32l4xx_hal_dfsdm.c **** 
ARM GAS  /tmp/ccrDNuCE.s 			page 54


1242:Drivers/STM32L4xx_HAL_Driver/Src/stm32l4xx_hal_dfsdm.c **** /**
1243:Drivers/STM32L4xx_HAL_Driver/Src/stm32l4xx_hal_dfsdm.c ****   * @}
1244:Drivers/STM32L4xx_HAL_Driver/Src/stm32l4xx_hal_dfsdm.c ****   */
1245:Drivers/STM32L4xx_HAL_Driver/Src/stm32l4xx_hal_dfsdm.c **** 
1246:Drivers/STM32L4xx_HAL_Driver/Src/stm32l4xx_hal_dfsdm.c **** /** @defgroup DFSDM_Exported_Functions_Group1_Filter Filter initialization and de-initialization fu
1247:Drivers/STM32L4xx_HAL_Driver/Src/stm32l4xx_hal_dfsdm.c ****  *  @brief    Filter initialization and de-initialization functions
1248:Drivers/STM32L4xx_HAL_Driver/Src/stm32l4xx_hal_dfsdm.c ****  *
1249:Drivers/STM32L4xx_HAL_Driver/Src/stm32l4xx_hal_dfsdm.c **** @verbatim
1250:Drivers/STM32L4xx_HAL_Driver/Src/stm32l4xx_hal_dfsdm.c ****   ==============================================================================
1251:Drivers/STM32L4xx_HAL_Driver/Src/stm32l4xx_hal_dfsdm.c ****         ##### Filter initialization and de-initialization functions #####
1252:Drivers/STM32L4xx_HAL_Driver/Src/stm32l4xx_hal_dfsdm.c ****   ==============================================================================
1253:Drivers/STM32L4xx_HAL_Driver/Src/stm32l4xx_hal_dfsdm.c ****     [..]  This section provides functions allowing to:
1254:Drivers/STM32L4xx_HAL_Driver/Src/stm32l4xx_hal_dfsdm.c ****       (+) Initialize the DFSDM filter.
1255:Drivers/STM32L4xx_HAL_Driver/Src/stm32l4xx_hal_dfsdm.c ****       (+) De-initialize the DFSDM filter.
1256:Drivers/STM32L4xx_HAL_Driver/Src/stm32l4xx_hal_dfsdm.c **** @endverbatim
1257:Drivers/STM32L4xx_HAL_Driver/Src/stm32l4xx_hal_dfsdm.c ****   * @{
1258:Drivers/STM32L4xx_HAL_Driver/Src/stm32l4xx_hal_dfsdm.c ****   */
1259:Drivers/STM32L4xx_HAL_Driver/Src/stm32l4xx_hal_dfsdm.c **** 
1260:Drivers/STM32L4xx_HAL_Driver/Src/stm32l4xx_hal_dfsdm.c **** /**
1261:Drivers/STM32L4xx_HAL_Driver/Src/stm32l4xx_hal_dfsdm.c ****   * @brief  Initialize the DFSDM filter according to the specified parameters
1262:Drivers/STM32L4xx_HAL_Driver/Src/stm32l4xx_hal_dfsdm.c ****   *         in the DFSDM_FilterInitTypeDef structure and initialize the associated handle.
1263:Drivers/STM32L4xx_HAL_Driver/Src/stm32l4xx_hal_dfsdm.c ****   * @param  hdfsdm_filter DFSDM filter handle.
1264:Drivers/STM32L4xx_HAL_Driver/Src/stm32l4xx_hal_dfsdm.c ****   * @retval HAL status.
1265:Drivers/STM32L4xx_HAL_Driver/Src/stm32l4xx_hal_dfsdm.c ****   */
1266:Drivers/STM32L4xx_HAL_Driver/Src/stm32l4xx_hal_dfsdm.c **** HAL_StatusTypeDef HAL_DFSDM_FilterInit(DFSDM_Filter_HandleTypeDef *hdfsdm_filter)
1267:Drivers/STM32L4xx_HAL_Driver/Src/stm32l4xx_hal_dfsdm.c **** {
 1785              		.loc 1 1267 1
 1786              		.cfi_startproc
 1787              		@ args = 0, pretend = 0, frame = 8
 1788              		@ frame_needed = 1, uses_anonymous_args = 0
 1789 0000 80B5     		push	{r7, lr}
 1790              		.cfi_def_cfa_offset 8
 1791              		.cfi_offset 7, -8
 1792              		.cfi_offset 14, -4
 1793 0002 82B0     		sub	sp, sp, #8
 1794              		.cfi_def_cfa_offset 16
 1795 0004 00AF     		add	r7, sp, #0
 1796              		.cfi_def_cfa_register 7
 1797 0006 7860     		str	r0, [r7, #4]
1268:Drivers/STM32L4xx_HAL_Driver/Src/stm32l4xx_hal_dfsdm.c ****   /* Check DFSDM Channel handle */
1269:Drivers/STM32L4xx_HAL_Driver/Src/stm32l4xx_hal_dfsdm.c ****   if (hdfsdm_filter == NULL)
 1798              		.loc 1 1269 6
 1799 0008 7B68     		ldr	r3, [r7, #4]
 1800 000a 002B     		cmp	r3, #0
 1801 000c 01D1     		bne	.L99
1270:Drivers/STM32L4xx_HAL_Driver/Src/stm32l4xx_hal_dfsdm.c ****   {
1271:Drivers/STM32L4xx_HAL_Driver/Src/stm32l4xx_hal_dfsdm.c ****     return HAL_ERROR;
 1802              		.loc 1 1271 12
 1803 000e 0123     		movs	r3, #1
 1804 0010 CAE0     		b	.L100
 1805              	.L99:
1272:Drivers/STM32L4xx_HAL_Driver/Src/stm32l4xx_hal_dfsdm.c ****   }
1273:Drivers/STM32L4xx_HAL_Driver/Src/stm32l4xx_hal_dfsdm.c **** 
1274:Drivers/STM32L4xx_HAL_Driver/Src/stm32l4xx_hal_dfsdm.c ****   /* Check parameters */
1275:Drivers/STM32L4xx_HAL_Driver/Src/stm32l4xx_hal_dfsdm.c ****   assert_param(IS_DFSDM_FILTER_ALL_INSTANCE(hdfsdm_filter->Instance));
1276:Drivers/STM32L4xx_HAL_Driver/Src/stm32l4xx_hal_dfsdm.c ****   assert_param(IS_DFSDM_FILTER_REG_TRIGGER(hdfsdm_filter->Init.RegularParam.Trigger));
1277:Drivers/STM32L4xx_HAL_Driver/Src/stm32l4xx_hal_dfsdm.c ****   assert_param(IS_FUNCTIONAL_STATE(hdfsdm_filter->Init.RegularParam.FastMode));
ARM GAS  /tmp/ccrDNuCE.s 			page 55


1278:Drivers/STM32L4xx_HAL_Driver/Src/stm32l4xx_hal_dfsdm.c ****   assert_param(IS_FUNCTIONAL_STATE(hdfsdm_filter->Init.RegularParam.DmaMode));
1279:Drivers/STM32L4xx_HAL_Driver/Src/stm32l4xx_hal_dfsdm.c ****   assert_param(IS_DFSDM_FILTER_INJ_TRIGGER(hdfsdm_filter->Init.InjectedParam.Trigger));
1280:Drivers/STM32L4xx_HAL_Driver/Src/stm32l4xx_hal_dfsdm.c ****   assert_param(IS_FUNCTIONAL_STATE(hdfsdm_filter->Init.InjectedParam.ScanMode));
1281:Drivers/STM32L4xx_HAL_Driver/Src/stm32l4xx_hal_dfsdm.c ****   assert_param(IS_FUNCTIONAL_STATE(hdfsdm_filter->Init.InjectedParam.DmaMode));
1282:Drivers/STM32L4xx_HAL_Driver/Src/stm32l4xx_hal_dfsdm.c ****   assert_param(IS_DFSDM_FILTER_SINC_ORDER(hdfsdm_filter->Init.FilterParam.SincOrder));
1283:Drivers/STM32L4xx_HAL_Driver/Src/stm32l4xx_hal_dfsdm.c ****   assert_param(IS_DFSDM_FILTER_OVS_RATIO(hdfsdm_filter->Init.FilterParam.Oversampling));
1284:Drivers/STM32L4xx_HAL_Driver/Src/stm32l4xx_hal_dfsdm.c ****   assert_param(IS_DFSDM_FILTER_INTEGRATOR_OVS_RATIO(hdfsdm_filter->Init.FilterParam.IntOversampling
1285:Drivers/STM32L4xx_HAL_Driver/Src/stm32l4xx_hal_dfsdm.c **** 
1286:Drivers/STM32L4xx_HAL_Driver/Src/stm32l4xx_hal_dfsdm.c ****   /* Check parameters compatibility */
1287:Drivers/STM32L4xx_HAL_Driver/Src/stm32l4xx_hal_dfsdm.c ****   if ((hdfsdm_filter->Instance == DFSDM1_Filter0) &&
 1806              		.loc 1 1287 21
 1807 0012 7B68     		ldr	r3, [r7, #4]
 1808 0014 1B68     		ldr	r3, [r3]
 1809              		.loc 1 1287 6
 1810 0016 664A     		ldr	r2, .L112
 1811 0018 9342     		cmp	r3, r2
 1812 001a 09D1     		bne	.L101
1288:Drivers/STM32L4xx_HAL_Driver/Src/stm32l4xx_hal_dfsdm.c ****       ((hdfsdm_filter->Init.RegularParam.Trigger  == DFSDM_FILTER_SYNC_TRIGGER) ||
 1813              		.loc 1 1288 41
 1814 001c 7B68     		ldr	r3, [r7, #4]
 1815 001e 5B68     		ldr	r3, [r3, #4]
1287:Drivers/STM32L4xx_HAL_Driver/Src/stm32l4xx_hal_dfsdm.c ****       ((hdfsdm_filter->Init.RegularParam.Trigger  == DFSDM_FILTER_SYNC_TRIGGER) ||
 1816              		.loc 1 1287 51 discriminator 1
 1817 0020 012B     		cmp	r3, #1
 1818 0022 03D0     		beq	.L102
1289:Drivers/STM32L4xx_HAL_Driver/Src/stm32l4xx_hal_dfsdm.c ****        (hdfsdm_filter->Init.InjectedParam.Trigger == DFSDM_FILTER_SYNC_TRIGGER)))
 1819              		.loc 1 1289 42
 1820 0024 7B68     		ldr	r3, [r7, #4]
 1821 0026 DB68     		ldr	r3, [r3, #12]
1288:Drivers/STM32L4xx_HAL_Driver/Src/stm32l4xx_hal_dfsdm.c ****       ((hdfsdm_filter->Init.RegularParam.Trigger  == DFSDM_FILTER_SYNC_TRIGGER) ||
 1822              		.loc 1 1288 81
 1823 0028 012B     		cmp	r3, #1
 1824 002a 01D1     		bne	.L101
 1825              	.L102:
1290:Drivers/STM32L4xx_HAL_Driver/Src/stm32l4xx_hal_dfsdm.c ****   {
1291:Drivers/STM32L4xx_HAL_Driver/Src/stm32l4xx_hal_dfsdm.c ****     return HAL_ERROR;
 1826              		.loc 1 1291 12
 1827 002c 0123     		movs	r3, #1
 1828 002e BBE0     		b	.L100
 1829              	.L101:
1292:Drivers/STM32L4xx_HAL_Driver/Src/stm32l4xx_hal_dfsdm.c ****   }
1293:Drivers/STM32L4xx_HAL_Driver/Src/stm32l4xx_hal_dfsdm.c **** 
1294:Drivers/STM32L4xx_HAL_Driver/Src/stm32l4xx_hal_dfsdm.c ****   /* Initialize DFSDM filter variables with default values */
1295:Drivers/STM32L4xx_HAL_Driver/Src/stm32l4xx_hal_dfsdm.c ****   hdfsdm_filter->RegularContMode     = DFSDM_CONTINUOUS_CONV_OFF;
 1830              		.loc 1 1295 38
 1831 0030 7B68     		ldr	r3, [r7, #4]
 1832 0032 0022     		movs	r2, #0
 1833 0034 1A63     		str	r2, [r3, #48]
1296:Drivers/STM32L4xx_HAL_Driver/Src/stm32l4xx_hal_dfsdm.c ****   hdfsdm_filter->InjectedChannelsNbr = 1;
 1834              		.loc 1 1296 38
 1835 0036 7B68     		ldr	r3, [r7, #4]
 1836 0038 0122     		movs	r2, #1
 1837 003a 5A64     		str	r2, [r3, #68]
1297:Drivers/STM32L4xx_HAL_Driver/Src/stm32l4xx_hal_dfsdm.c ****   hdfsdm_filter->InjConvRemaining    = 1;
 1838              		.loc 1 1297 38
 1839 003c 7B68     		ldr	r3, [r7, #4]
 1840 003e 0122     		movs	r2, #1
ARM GAS  /tmp/ccrDNuCE.s 			page 56


 1841 0040 9A64     		str	r2, [r3, #72]
1298:Drivers/STM32L4xx_HAL_Driver/Src/stm32l4xx_hal_dfsdm.c ****   hdfsdm_filter->ErrorCode           = DFSDM_FILTER_ERROR_NONE;
 1842              		.loc 1 1298 38
 1843 0042 7B68     		ldr	r3, [r7, #4]
 1844 0044 0022     		movs	r2, #0
 1845 0046 1A65     		str	r2, [r3, #80]
1299:Drivers/STM32L4xx_HAL_Driver/Src/stm32l4xx_hal_dfsdm.c **** 
1300:Drivers/STM32L4xx_HAL_Driver/Src/stm32l4xx_hal_dfsdm.c **** #if (USE_HAL_DFSDM_REGISTER_CALLBACKS == 1)
1301:Drivers/STM32L4xx_HAL_Driver/Src/stm32l4xx_hal_dfsdm.c ****   /* Reset callback pointers to the weak predefined callbacks */
1302:Drivers/STM32L4xx_HAL_Driver/Src/stm32l4xx_hal_dfsdm.c ****   hdfsdm_filter->AwdCallback             = HAL_DFSDM_FilterAwdCallback;
1303:Drivers/STM32L4xx_HAL_Driver/Src/stm32l4xx_hal_dfsdm.c ****   hdfsdm_filter->RegConvCpltCallback     = HAL_DFSDM_FilterRegConvCpltCallback;
1304:Drivers/STM32L4xx_HAL_Driver/Src/stm32l4xx_hal_dfsdm.c ****   hdfsdm_filter->RegConvHalfCpltCallback = HAL_DFSDM_FilterRegConvHalfCpltCallback;
1305:Drivers/STM32L4xx_HAL_Driver/Src/stm32l4xx_hal_dfsdm.c ****   hdfsdm_filter->InjConvCpltCallback     = HAL_DFSDM_FilterInjConvCpltCallback;
1306:Drivers/STM32L4xx_HAL_Driver/Src/stm32l4xx_hal_dfsdm.c ****   hdfsdm_filter->InjConvHalfCpltCallback = HAL_DFSDM_FilterInjConvHalfCpltCallback;
1307:Drivers/STM32L4xx_HAL_Driver/Src/stm32l4xx_hal_dfsdm.c ****   hdfsdm_filter->ErrorCallback           = HAL_DFSDM_FilterErrorCallback;
1308:Drivers/STM32L4xx_HAL_Driver/Src/stm32l4xx_hal_dfsdm.c **** 
1309:Drivers/STM32L4xx_HAL_Driver/Src/stm32l4xx_hal_dfsdm.c ****   /* Call MSP init function */
1310:Drivers/STM32L4xx_HAL_Driver/Src/stm32l4xx_hal_dfsdm.c ****   if (hdfsdm_filter->MspInitCallback == NULL)
1311:Drivers/STM32L4xx_HAL_Driver/Src/stm32l4xx_hal_dfsdm.c ****   {
1312:Drivers/STM32L4xx_HAL_Driver/Src/stm32l4xx_hal_dfsdm.c ****     hdfsdm_filter->MspInitCallback = HAL_DFSDM_FilterMspInit;
1313:Drivers/STM32L4xx_HAL_Driver/Src/stm32l4xx_hal_dfsdm.c ****   }
1314:Drivers/STM32L4xx_HAL_Driver/Src/stm32l4xx_hal_dfsdm.c ****   hdfsdm_filter->MspInitCallback(hdfsdm_filter);
1315:Drivers/STM32L4xx_HAL_Driver/Src/stm32l4xx_hal_dfsdm.c **** #else
1316:Drivers/STM32L4xx_HAL_Driver/Src/stm32l4xx_hal_dfsdm.c ****   /* Call MSP init function */
1317:Drivers/STM32L4xx_HAL_Driver/Src/stm32l4xx_hal_dfsdm.c ****   HAL_DFSDM_FilterMspInit(hdfsdm_filter);
 1846              		.loc 1 1317 3
 1847 0048 7868     		ldr	r0, [r7, #4]
 1848 004a FFF7FEFF 		bl	HAL_DFSDM_FilterMspInit
1318:Drivers/STM32L4xx_HAL_Driver/Src/stm32l4xx_hal_dfsdm.c **** #endif
1319:Drivers/STM32L4xx_HAL_Driver/Src/stm32l4xx_hal_dfsdm.c **** 
1320:Drivers/STM32L4xx_HAL_Driver/Src/stm32l4xx_hal_dfsdm.c ****   /* Set regular parameters */
1321:Drivers/STM32L4xx_HAL_Driver/Src/stm32l4xx_hal_dfsdm.c ****   hdfsdm_filter->Instance->FLTCR1 &= ~(DFSDM_FLTCR1_RSYNC);
 1849              		.loc 1 1321 16
 1850 004e 7B68     		ldr	r3, [r7, #4]
 1851 0050 1B68     		ldr	r3, [r3]
 1852              		.loc 1 1321 26
 1853 0052 1A68     		ldr	r2, [r3]
 1854              		.loc 1 1321 16
 1855 0054 7B68     		ldr	r3, [r7, #4]
 1856 0056 1B68     		ldr	r3, [r3]
 1857              		.loc 1 1321 35
 1858 0058 22F40022 		bic	r2, r2, #524288
 1859 005c 1A60     		str	r2, [r3]
1322:Drivers/STM32L4xx_HAL_Driver/Src/stm32l4xx_hal_dfsdm.c ****   if (hdfsdm_filter->Init.RegularParam.FastMode == ENABLE)
 1860              		.loc 1 1322 39
 1861 005e 7B68     		ldr	r3, [r7, #4]
 1862 0060 1B7A     		ldrb	r3, [r3, #8]	@ zero_extendqisi2
 1863              		.loc 1 1322 6
 1864 0062 012B     		cmp	r3, #1
 1865 0064 08D1     		bne	.L103
1323:Drivers/STM32L4xx_HAL_Driver/Src/stm32l4xx_hal_dfsdm.c ****   {
1324:Drivers/STM32L4xx_HAL_Driver/Src/stm32l4xx_hal_dfsdm.c ****     hdfsdm_filter->Instance->FLTCR1 |= DFSDM_FLTCR1_FAST;
 1866              		.loc 1 1324 18
 1867 0066 7B68     		ldr	r3, [r7, #4]
 1868 0068 1B68     		ldr	r3, [r3]
 1869              		.loc 1 1324 28
 1870 006a 1A68     		ldr	r2, [r3]
ARM GAS  /tmp/ccrDNuCE.s 			page 57


 1871              		.loc 1 1324 18
 1872 006c 7B68     		ldr	r3, [r7, #4]
 1873 006e 1B68     		ldr	r3, [r3]
 1874              		.loc 1 1324 37
 1875 0070 42F00052 		orr	r2, r2, #536870912
 1876 0074 1A60     		str	r2, [r3]
 1877 0076 07E0     		b	.L104
 1878              	.L103:
1325:Drivers/STM32L4xx_HAL_Driver/Src/stm32l4xx_hal_dfsdm.c ****   }
1326:Drivers/STM32L4xx_HAL_Driver/Src/stm32l4xx_hal_dfsdm.c ****   else
1327:Drivers/STM32L4xx_HAL_Driver/Src/stm32l4xx_hal_dfsdm.c ****   {
1328:Drivers/STM32L4xx_HAL_Driver/Src/stm32l4xx_hal_dfsdm.c ****     hdfsdm_filter->Instance->FLTCR1 &= ~(DFSDM_FLTCR1_FAST);
 1879              		.loc 1 1328 18
 1880 0078 7B68     		ldr	r3, [r7, #4]
 1881 007a 1B68     		ldr	r3, [r3]
 1882              		.loc 1 1328 28
 1883 007c 1A68     		ldr	r2, [r3]
 1884              		.loc 1 1328 18
 1885 007e 7B68     		ldr	r3, [r7, #4]
 1886 0080 1B68     		ldr	r3, [r3]
 1887              		.loc 1 1328 37
 1888 0082 22F00052 		bic	r2, r2, #536870912
 1889 0086 1A60     		str	r2, [r3]
 1890              	.L104:
1329:Drivers/STM32L4xx_HAL_Driver/Src/stm32l4xx_hal_dfsdm.c ****   }
1330:Drivers/STM32L4xx_HAL_Driver/Src/stm32l4xx_hal_dfsdm.c **** 
1331:Drivers/STM32L4xx_HAL_Driver/Src/stm32l4xx_hal_dfsdm.c ****   if (hdfsdm_filter->Init.RegularParam.DmaMode == ENABLE)
 1891              		.loc 1 1331 39
 1892 0088 7B68     		ldr	r3, [r7, #4]
 1893 008a 5B7A     		ldrb	r3, [r3, #9]	@ zero_extendqisi2
 1894              		.loc 1 1331 6
 1895 008c 012B     		cmp	r3, #1
 1896 008e 08D1     		bne	.L105
1332:Drivers/STM32L4xx_HAL_Driver/Src/stm32l4xx_hal_dfsdm.c ****   {
1333:Drivers/STM32L4xx_HAL_Driver/Src/stm32l4xx_hal_dfsdm.c ****     hdfsdm_filter->Instance->FLTCR1 |= DFSDM_FLTCR1_RDMAEN;
 1897              		.loc 1 1333 18
 1898 0090 7B68     		ldr	r3, [r7, #4]
 1899 0092 1B68     		ldr	r3, [r3]
 1900              		.loc 1 1333 28
 1901 0094 1A68     		ldr	r2, [r3]
 1902              		.loc 1 1333 18
 1903 0096 7B68     		ldr	r3, [r7, #4]
 1904 0098 1B68     		ldr	r3, [r3]
 1905              		.loc 1 1333 37
 1906 009a 42F40012 		orr	r2, r2, #2097152
 1907 009e 1A60     		str	r2, [r3]
 1908 00a0 07E0     		b	.L106
 1909              	.L105:
1334:Drivers/STM32L4xx_HAL_Driver/Src/stm32l4xx_hal_dfsdm.c ****   }
1335:Drivers/STM32L4xx_HAL_Driver/Src/stm32l4xx_hal_dfsdm.c ****   else
1336:Drivers/STM32L4xx_HAL_Driver/Src/stm32l4xx_hal_dfsdm.c ****   {
1337:Drivers/STM32L4xx_HAL_Driver/Src/stm32l4xx_hal_dfsdm.c ****     hdfsdm_filter->Instance->FLTCR1 &= ~(DFSDM_FLTCR1_RDMAEN);
 1910              		.loc 1 1337 18
 1911 00a2 7B68     		ldr	r3, [r7, #4]
 1912 00a4 1B68     		ldr	r3, [r3]
 1913              		.loc 1 1337 28
 1914 00a6 1A68     		ldr	r2, [r3]
ARM GAS  /tmp/ccrDNuCE.s 			page 58


 1915              		.loc 1 1337 18
 1916 00a8 7B68     		ldr	r3, [r7, #4]
 1917 00aa 1B68     		ldr	r3, [r3]
 1918              		.loc 1 1337 37
 1919 00ac 22F40012 		bic	r2, r2, #2097152
 1920 00b0 1A60     		str	r2, [r3]
 1921              	.L106:
1338:Drivers/STM32L4xx_HAL_Driver/Src/stm32l4xx_hal_dfsdm.c ****   }
1339:Drivers/STM32L4xx_HAL_Driver/Src/stm32l4xx_hal_dfsdm.c **** 
1340:Drivers/STM32L4xx_HAL_Driver/Src/stm32l4xx_hal_dfsdm.c ****   /* Set injected parameters */
1341:Drivers/STM32L4xx_HAL_Driver/Src/stm32l4xx_hal_dfsdm.c ****   hdfsdm_filter->Instance->FLTCR1 &= ~(DFSDM_FLTCR1_JSYNC | DFSDM_FLTCR1_JEXTEN | DFSDM_FLTCR1_JEXT
 1922              		.loc 1 1341 16
 1923 00b2 7B68     		ldr	r3, [r7, #4]
 1924 00b4 1B68     		ldr	r3, [r3]
 1925              		.loc 1 1341 26
 1926 00b6 1B68     		ldr	r3, [r3]
 1927              		.loc 1 1341 16
 1928 00b8 7A68     		ldr	r2, [r7, #4]
 1929 00ba 1268     		ldr	r2, [r2]
 1930              		.loc 1 1341 35
 1931 00bc 23F4CE43 		bic	r3, r3, #26368
 1932 00c0 23F00803 		bic	r3, r3, #8
 1933 00c4 1360     		str	r3, [r2]
1342:Drivers/STM32L4xx_HAL_Driver/Src/stm32l4xx_hal_dfsdm.c ****   if (hdfsdm_filter->Init.InjectedParam.Trigger == DFSDM_FILTER_EXT_TRIGGER)
 1934              		.loc 1 1342 40
 1935 00c6 7B68     		ldr	r3, [r7, #4]
 1936 00c8 DB68     		ldr	r3, [r3, #12]
 1937              		.loc 1 1342 6
 1938 00ca 022B     		cmp	r3, #2
 1939 00cc 08D1     		bne	.L107
1343:Drivers/STM32L4xx_HAL_Driver/Src/stm32l4xx_hal_dfsdm.c ****   {
1344:Drivers/STM32L4xx_HAL_Driver/Src/stm32l4xx_hal_dfsdm.c ****     assert_param(IS_DFSDM_FILTER_EXT_TRIG(hdfsdm_filter->Init.InjectedParam.ExtTrigger));
1345:Drivers/STM32L4xx_HAL_Driver/Src/stm32l4xx_hal_dfsdm.c ****     assert_param(IS_DFSDM_FILTER_EXT_TRIG_EDGE(hdfsdm_filter->Init.InjectedParam.ExtTriggerEdge));
1346:Drivers/STM32L4xx_HAL_Driver/Src/stm32l4xx_hal_dfsdm.c ****     hdfsdm_filter->Instance->FLTCR1 |= (hdfsdm_filter->Init.InjectedParam.ExtTrigger);
 1940              		.loc 1 1346 18
 1941 00ce 7B68     		ldr	r3, [r7, #4]
 1942 00d0 1B68     		ldr	r3, [r3]
 1943              		.loc 1 1346 28
 1944 00d2 1968     		ldr	r1, [r3]
 1945              		.loc 1 1346 74
 1946 00d4 7B68     		ldr	r3, [r7, #4]
 1947 00d6 5A69     		ldr	r2, [r3, #20]
 1948              		.loc 1 1346 18
 1949 00d8 7B68     		ldr	r3, [r7, #4]
 1950 00da 1B68     		ldr	r3, [r3]
 1951              		.loc 1 1346 37
 1952 00dc 0A43     		orrs	r2, r2, r1
 1953 00de 1A60     		str	r2, [r3]
 1954              	.L107:
1347:Drivers/STM32L4xx_HAL_Driver/Src/stm32l4xx_hal_dfsdm.c ****   }
1348:Drivers/STM32L4xx_HAL_Driver/Src/stm32l4xx_hal_dfsdm.c **** 
1349:Drivers/STM32L4xx_HAL_Driver/Src/stm32l4xx_hal_dfsdm.c ****   if (hdfsdm_filter->Init.InjectedParam.ScanMode == ENABLE)
 1955              		.loc 1 1349 40
 1956 00e0 7B68     		ldr	r3, [r7, #4]
 1957 00e2 1B7C     		ldrb	r3, [r3, #16]	@ zero_extendqisi2
 1958              		.loc 1 1349 6
 1959 00e4 012B     		cmp	r3, #1
ARM GAS  /tmp/ccrDNuCE.s 			page 59


 1960 00e6 08D1     		bne	.L108
1350:Drivers/STM32L4xx_HAL_Driver/Src/stm32l4xx_hal_dfsdm.c ****   {
1351:Drivers/STM32L4xx_HAL_Driver/Src/stm32l4xx_hal_dfsdm.c ****     hdfsdm_filter->Instance->FLTCR1 |= DFSDM_FLTCR1_JSCAN;
 1961              		.loc 1 1351 18
 1962 00e8 7B68     		ldr	r3, [r7, #4]
 1963 00ea 1B68     		ldr	r3, [r3]
 1964              		.loc 1 1351 28
 1965 00ec 1A68     		ldr	r2, [r3]
 1966              		.loc 1 1351 18
 1967 00ee 7B68     		ldr	r3, [r7, #4]
 1968 00f0 1B68     		ldr	r3, [r3]
 1969              		.loc 1 1351 37
 1970 00f2 42F01002 		orr	r2, r2, #16
 1971 00f6 1A60     		str	r2, [r3]
 1972 00f8 07E0     		b	.L109
 1973              	.L108:
1352:Drivers/STM32L4xx_HAL_Driver/Src/stm32l4xx_hal_dfsdm.c ****   }
1353:Drivers/STM32L4xx_HAL_Driver/Src/stm32l4xx_hal_dfsdm.c ****   else
1354:Drivers/STM32L4xx_HAL_Driver/Src/stm32l4xx_hal_dfsdm.c ****   {
1355:Drivers/STM32L4xx_HAL_Driver/Src/stm32l4xx_hal_dfsdm.c ****     hdfsdm_filter->Instance->FLTCR1 &= ~(DFSDM_FLTCR1_JSCAN);
 1974              		.loc 1 1355 18
 1975 00fa 7B68     		ldr	r3, [r7, #4]
 1976 00fc 1B68     		ldr	r3, [r3]
 1977              		.loc 1 1355 28
 1978 00fe 1A68     		ldr	r2, [r3]
 1979              		.loc 1 1355 18
 1980 0100 7B68     		ldr	r3, [r7, #4]
 1981 0102 1B68     		ldr	r3, [r3]
 1982              		.loc 1 1355 37
 1983 0104 22F01002 		bic	r2, r2, #16
 1984 0108 1A60     		str	r2, [r3]
 1985              	.L109:
1356:Drivers/STM32L4xx_HAL_Driver/Src/stm32l4xx_hal_dfsdm.c ****   }
1357:Drivers/STM32L4xx_HAL_Driver/Src/stm32l4xx_hal_dfsdm.c **** 
1358:Drivers/STM32L4xx_HAL_Driver/Src/stm32l4xx_hal_dfsdm.c ****   if (hdfsdm_filter->Init.InjectedParam.DmaMode == ENABLE)
 1986              		.loc 1 1358 40
 1987 010a 7B68     		ldr	r3, [r7, #4]
 1988 010c 5B7C     		ldrb	r3, [r3, #17]	@ zero_extendqisi2
 1989              		.loc 1 1358 6
 1990 010e 012B     		cmp	r3, #1
 1991 0110 08D1     		bne	.L110
1359:Drivers/STM32L4xx_HAL_Driver/Src/stm32l4xx_hal_dfsdm.c ****   {
1360:Drivers/STM32L4xx_HAL_Driver/Src/stm32l4xx_hal_dfsdm.c ****     hdfsdm_filter->Instance->FLTCR1 |= DFSDM_FLTCR1_JDMAEN;
 1992              		.loc 1 1360 18
 1993 0112 7B68     		ldr	r3, [r7, #4]
 1994 0114 1B68     		ldr	r3, [r3]
 1995              		.loc 1 1360 28
 1996 0116 1A68     		ldr	r2, [r3]
 1997              		.loc 1 1360 18
 1998 0118 7B68     		ldr	r3, [r7, #4]
 1999 011a 1B68     		ldr	r3, [r3]
 2000              		.loc 1 1360 37
 2001 011c 42F02002 		orr	r2, r2, #32
 2002 0120 1A60     		str	r2, [r3]
 2003 0122 07E0     		b	.L111
 2004              	.L110:
1361:Drivers/STM32L4xx_HAL_Driver/Src/stm32l4xx_hal_dfsdm.c ****   }
ARM GAS  /tmp/ccrDNuCE.s 			page 60


1362:Drivers/STM32L4xx_HAL_Driver/Src/stm32l4xx_hal_dfsdm.c ****   else
1363:Drivers/STM32L4xx_HAL_Driver/Src/stm32l4xx_hal_dfsdm.c ****   {
1364:Drivers/STM32L4xx_HAL_Driver/Src/stm32l4xx_hal_dfsdm.c ****     hdfsdm_filter->Instance->FLTCR1 &= ~(DFSDM_FLTCR1_JDMAEN);
 2005              		.loc 1 1364 18
 2006 0124 7B68     		ldr	r3, [r7, #4]
 2007 0126 1B68     		ldr	r3, [r3]
 2008              		.loc 1 1364 28
 2009 0128 1A68     		ldr	r2, [r3]
 2010              		.loc 1 1364 18
 2011 012a 7B68     		ldr	r3, [r7, #4]
 2012 012c 1B68     		ldr	r3, [r3]
 2013              		.loc 1 1364 37
 2014 012e 22F02002 		bic	r2, r2, #32
 2015 0132 1A60     		str	r2, [r3]
 2016              	.L111:
1365:Drivers/STM32L4xx_HAL_Driver/Src/stm32l4xx_hal_dfsdm.c ****   }
1366:Drivers/STM32L4xx_HAL_Driver/Src/stm32l4xx_hal_dfsdm.c **** 
1367:Drivers/STM32L4xx_HAL_Driver/Src/stm32l4xx_hal_dfsdm.c ****   /* Set filter parameters */
1368:Drivers/STM32L4xx_HAL_Driver/Src/stm32l4xx_hal_dfsdm.c ****   hdfsdm_filter->Instance->FLTFCR &= ~(DFSDM_FLTFCR_FORD | DFSDM_FLTFCR_FOSR | DFSDM_FLTFCR_IOSR);
 2017              		.loc 1 1368 16
 2018 0134 7B68     		ldr	r3, [r7, #4]
 2019 0136 1B68     		ldr	r3, [r3]
 2020              		.loc 1 1368 26
 2021 0138 5B69     		ldr	r3, [r3, #20]
 2022              		.loc 1 1368 16
 2023 013a 7A68     		ldr	r2, [r7, #4]
 2024 013c 1268     		ldr	r2, [r2]
 2025              		.loc 1 1368 35
 2026 013e 23F06343 		bic	r3, r3, #-486539264
 2027 0142 03F0FF23 		and	r3, r3, #-16711936
 2028 0146 5361     		str	r3, [r2, #20]
1369:Drivers/STM32L4xx_HAL_Driver/Src/stm32l4xx_hal_dfsdm.c ****   hdfsdm_filter->Instance->FLTFCR |= (hdfsdm_filter->Init.FilterParam.SincOrder |
 2029              		.loc 1 1369 16
 2030 0148 7B68     		ldr	r3, [r7, #4]
 2031 014a 1B68     		ldr	r3, [r3]
 2032              		.loc 1 1369 26
 2033 014c 5969     		ldr	r1, [r3, #20]
 2034              		.loc 1 1369 70
 2035 014e 7B68     		ldr	r3, [r7, #4]
 2036 0150 DA69     		ldr	r2, [r3, #28]
1370:Drivers/STM32L4xx_HAL_Driver/Src/stm32l4xx_hal_dfsdm.c ****                                       ((hdfsdm_filter->Init.FilterParam.Oversampling - 1U) << DFSDM
 2037              		.loc 1 1370 72
 2038 0152 7B68     		ldr	r3, [r7, #4]
 2039 0154 1B6A     		ldr	r3, [r3, #32]
 2040              		.loc 1 1370 86
 2041 0156 013B     		subs	r3, r3, #1
 2042              		.loc 1 1370 92
 2043 0158 1B04     		lsls	r3, r3, #16
1369:Drivers/STM32L4xx_HAL_Driver/Src/stm32l4xx_hal_dfsdm.c ****   hdfsdm_filter->Instance->FLTFCR |= (hdfsdm_filter->Init.FilterParam.SincOrder |
 2044              		.loc 1 1369 81
 2045 015a 1A43     		orrs	r2, r2, r3
1371:Drivers/STM32L4xx_HAL_Driver/Src/stm32l4xx_hal_dfsdm.c ****                                       (hdfsdm_filter->Init.FilterParam.IntOversampling - 1U));
 2046              		.loc 1 1371 71
 2047 015c 7B68     		ldr	r3, [r7, #4]
 2048 015e 5B6A     		ldr	r3, [r3, #36]
 2049              		.loc 1 1371 88
 2050 0160 013B     		subs	r3, r3, #1
ARM GAS  /tmp/ccrDNuCE.s 			page 61


1370:Drivers/STM32L4xx_HAL_Driver/Src/stm32l4xx_hal_dfsdm.c ****                                       ((hdfsdm_filter->Init.FilterParam.Oversampling - 1U) << DFSDM
 2051              		.loc 1 1370 118
 2052 0162 1A43     		orrs	r2, r2, r3
1369:Drivers/STM32L4xx_HAL_Driver/Src/stm32l4xx_hal_dfsdm.c ****   hdfsdm_filter->Instance->FLTFCR |= (hdfsdm_filter->Init.FilterParam.SincOrder |
 2053              		.loc 1 1369 16
 2054 0164 7B68     		ldr	r3, [r7, #4]
 2055 0166 1B68     		ldr	r3, [r3]
1369:Drivers/STM32L4xx_HAL_Driver/Src/stm32l4xx_hal_dfsdm.c ****   hdfsdm_filter->Instance->FLTFCR |= (hdfsdm_filter->Init.FilterParam.SincOrder |
 2056              		.loc 1 1369 35
 2057 0168 0A43     		orrs	r2, r2, r1
 2058 016a 5A61     		str	r2, [r3, #20]
1372:Drivers/STM32L4xx_HAL_Driver/Src/stm32l4xx_hal_dfsdm.c **** 
1373:Drivers/STM32L4xx_HAL_Driver/Src/stm32l4xx_hal_dfsdm.c ****   /* Store regular and injected triggers and injected scan mode*/
1374:Drivers/STM32L4xx_HAL_Driver/Src/stm32l4xx_hal_dfsdm.c ****   hdfsdm_filter->RegularTrigger   = hdfsdm_filter->Init.RegularParam.Trigger;
 2059              		.loc 1 1374 69
 2060 016c 7B68     		ldr	r3, [r7, #4]
 2061 016e 5A68     		ldr	r2, [r3, #4]
 2062              		.loc 1 1374 35
 2063 0170 7B68     		ldr	r3, [r7, #4]
 2064 0172 5A63     		str	r2, [r3, #52]
1375:Drivers/STM32L4xx_HAL_Driver/Src/stm32l4xx_hal_dfsdm.c ****   hdfsdm_filter->InjectedTrigger  = hdfsdm_filter->Init.InjectedParam.Trigger;
 2065              		.loc 1 1375 70
 2066 0174 7B68     		ldr	r3, [r7, #4]
 2067 0176 DA68     		ldr	r2, [r3, #12]
 2068              		.loc 1 1375 35
 2069 0178 7B68     		ldr	r3, [r7, #4]
 2070 017a 9A63     		str	r2, [r3, #56]
1376:Drivers/STM32L4xx_HAL_Driver/Src/stm32l4xx_hal_dfsdm.c ****   hdfsdm_filter->ExtTriggerEdge   = hdfsdm_filter->Init.InjectedParam.ExtTriggerEdge;
 2071              		.loc 1 1376 70
 2072 017c 7B68     		ldr	r3, [r7, #4]
 2073 017e 9A69     		ldr	r2, [r3, #24]
 2074              		.loc 1 1376 35
 2075 0180 7B68     		ldr	r3, [r7, #4]
 2076 0182 DA63     		str	r2, [r3, #60]
1377:Drivers/STM32L4xx_HAL_Driver/Src/stm32l4xx_hal_dfsdm.c ****   hdfsdm_filter->InjectedScanMode = hdfsdm_filter->Init.InjectedParam.ScanMode;
 2077              		.loc 1 1377 70
 2078 0184 7B68     		ldr	r3, [r7, #4]
 2079 0186 1A7C     		ldrb	r2, [r3, #16]	@ zero_extendqisi2
 2080              		.loc 1 1377 35
 2081 0188 7B68     		ldr	r3, [r7, #4]
 2082 018a 83F84020 		strb	r2, [r3, #64]
1378:Drivers/STM32L4xx_HAL_Driver/Src/stm32l4xx_hal_dfsdm.c **** 
1379:Drivers/STM32L4xx_HAL_Driver/Src/stm32l4xx_hal_dfsdm.c ****   /* Enable DFSDM filter */
1380:Drivers/STM32L4xx_HAL_Driver/Src/stm32l4xx_hal_dfsdm.c ****   hdfsdm_filter->Instance->FLTCR1 |= DFSDM_FLTCR1_DFEN;
 2083              		.loc 1 1380 16
 2084 018e 7B68     		ldr	r3, [r7, #4]
 2085 0190 1B68     		ldr	r3, [r3]
 2086              		.loc 1 1380 26
 2087 0192 1A68     		ldr	r2, [r3]
 2088              		.loc 1 1380 16
 2089 0194 7B68     		ldr	r3, [r7, #4]
 2090 0196 1B68     		ldr	r3, [r3]
 2091              		.loc 1 1380 35
 2092 0198 42F00102 		orr	r2, r2, #1
 2093 019c 1A60     		str	r2, [r3]
1381:Drivers/STM32L4xx_HAL_Driver/Src/stm32l4xx_hal_dfsdm.c **** 
1382:Drivers/STM32L4xx_HAL_Driver/Src/stm32l4xx_hal_dfsdm.c ****   /* Set DFSDM filter to ready state */
ARM GAS  /tmp/ccrDNuCE.s 			page 62


1383:Drivers/STM32L4xx_HAL_Driver/Src/stm32l4xx_hal_dfsdm.c ****   hdfsdm_filter->State = HAL_DFSDM_FILTER_STATE_READY;
 2094              		.loc 1 1383 24
 2095 019e 7B68     		ldr	r3, [r7, #4]
 2096 01a0 0122     		movs	r2, #1
 2097 01a2 83F84C20 		strb	r2, [r3, #76]
1384:Drivers/STM32L4xx_HAL_Driver/Src/stm32l4xx_hal_dfsdm.c **** 
1385:Drivers/STM32L4xx_HAL_Driver/Src/stm32l4xx_hal_dfsdm.c ****   return HAL_OK;
 2098              		.loc 1 1385 10
 2099 01a6 0023     		movs	r3, #0
 2100              	.L100:
1386:Drivers/STM32L4xx_HAL_Driver/Src/stm32l4xx_hal_dfsdm.c **** }
 2101              		.loc 1 1386 1
 2102 01a8 1846     		mov	r0, r3
 2103 01aa 0837     		adds	r7, r7, #8
 2104              		.cfi_def_cfa_offset 8
 2105 01ac BD46     		mov	sp, r7
 2106              		.cfi_def_cfa_register 13
 2107              		@ sp needed
 2108 01ae 80BD     		pop	{r7, pc}
 2109              	.L113:
 2110              		.align	2
 2111              	.L112:
 2112 01b0 00610140 		.word	1073832192
 2113              		.cfi_endproc
 2114              	.LFE464:
 2116              		.section	.text.HAL_DFSDM_FilterDeInit,"ax",%progbits
 2117              		.align	1
 2118              		.global	HAL_DFSDM_FilterDeInit
 2119              		.syntax unified
 2120              		.thumb
 2121              		.thumb_func
 2123              	HAL_DFSDM_FilterDeInit:
 2124              	.LFB465:
1387:Drivers/STM32L4xx_HAL_Driver/Src/stm32l4xx_hal_dfsdm.c **** 
1388:Drivers/STM32L4xx_HAL_Driver/Src/stm32l4xx_hal_dfsdm.c **** /**
1389:Drivers/STM32L4xx_HAL_Driver/Src/stm32l4xx_hal_dfsdm.c ****   * @brief  De-initializes the DFSDM filter.
1390:Drivers/STM32L4xx_HAL_Driver/Src/stm32l4xx_hal_dfsdm.c ****   * @param  hdfsdm_filter DFSDM filter handle.
1391:Drivers/STM32L4xx_HAL_Driver/Src/stm32l4xx_hal_dfsdm.c ****   * @retval HAL status.
1392:Drivers/STM32L4xx_HAL_Driver/Src/stm32l4xx_hal_dfsdm.c ****   */
1393:Drivers/STM32L4xx_HAL_Driver/Src/stm32l4xx_hal_dfsdm.c **** HAL_StatusTypeDef HAL_DFSDM_FilterDeInit(DFSDM_Filter_HandleTypeDef *hdfsdm_filter)
1394:Drivers/STM32L4xx_HAL_Driver/Src/stm32l4xx_hal_dfsdm.c **** {
 2125              		.loc 1 1394 1
 2126              		.cfi_startproc
 2127              		@ args = 0, pretend = 0, frame = 8
 2128              		@ frame_needed = 1, uses_anonymous_args = 0
 2129 0000 80B5     		push	{r7, lr}
 2130              		.cfi_def_cfa_offset 8
 2131              		.cfi_offset 7, -8
 2132              		.cfi_offset 14, -4
 2133 0002 82B0     		sub	sp, sp, #8
 2134              		.cfi_def_cfa_offset 16
 2135 0004 00AF     		add	r7, sp, #0
 2136              		.cfi_def_cfa_register 7
 2137 0006 7860     		str	r0, [r7, #4]
1395:Drivers/STM32L4xx_HAL_Driver/Src/stm32l4xx_hal_dfsdm.c ****   /* Check DFSDM filter handle */
1396:Drivers/STM32L4xx_HAL_Driver/Src/stm32l4xx_hal_dfsdm.c ****   if (hdfsdm_filter == NULL)
 2138              		.loc 1 1396 6
ARM GAS  /tmp/ccrDNuCE.s 			page 63


 2139 0008 7B68     		ldr	r3, [r7, #4]
 2140 000a 002B     		cmp	r3, #0
 2141 000c 01D1     		bne	.L115
1397:Drivers/STM32L4xx_HAL_Driver/Src/stm32l4xx_hal_dfsdm.c ****   {
1398:Drivers/STM32L4xx_HAL_Driver/Src/stm32l4xx_hal_dfsdm.c ****     return HAL_ERROR;
 2142              		.loc 1 1398 12
 2143 000e 0123     		movs	r3, #1
 2144 0010 0FE0     		b	.L116
 2145              	.L115:
1399:Drivers/STM32L4xx_HAL_Driver/Src/stm32l4xx_hal_dfsdm.c ****   }
1400:Drivers/STM32L4xx_HAL_Driver/Src/stm32l4xx_hal_dfsdm.c **** 
1401:Drivers/STM32L4xx_HAL_Driver/Src/stm32l4xx_hal_dfsdm.c ****   /* Check parameters */
1402:Drivers/STM32L4xx_HAL_Driver/Src/stm32l4xx_hal_dfsdm.c ****   assert_param(IS_DFSDM_FILTER_ALL_INSTANCE(hdfsdm_filter->Instance));
1403:Drivers/STM32L4xx_HAL_Driver/Src/stm32l4xx_hal_dfsdm.c **** 
1404:Drivers/STM32L4xx_HAL_Driver/Src/stm32l4xx_hal_dfsdm.c ****   /* Disable the DFSDM filter */
1405:Drivers/STM32L4xx_HAL_Driver/Src/stm32l4xx_hal_dfsdm.c ****   hdfsdm_filter->Instance->FLTCR1 &= ~(DFSDM_FLTCR1_DFEN);
 2146              		.loc 1 1405 16
 2147 0012 7B68     		ldr	r3, [r7, #4]
 2148 0014 1B68     		ldr	r3, [r3]
 2149              		.loc 1 1405 26
 2150 0016 1A68     		ldr	r2, [r3]
 2151              		.loc 1 1405 16
 2152 0018 7B68     		ldr	r3, [r7, #4]
 2153 001a 1B68     		ldr	r3, [r3]
 2154              		.loc 1 1405 35
 2155 001c 22F00102 		bic	r2, r2, #1
 2156 0020 1A60     		str	r2, [r3]
1406:Drivers/STM32L4xx_HAL_Driver/Src/stm32l4xx_hal_dfsdm.c **** 
1407:Drivers/STM32L4xx_HAL_Driver/Src/stm32l4xx_hal_dfsdm.c ****   /* Call MSP deinit function */
1408:Drivers/STM32L4xx_HAL_Driver/Src/stm32l4xx_hal_dfsdm.c **** #if (USE_HAL_DFSDM_REGISTER_CALLBACKS == 1)
1409:Drivers/STM32L4xx_HAL_Driver/Src/stm32l4xx_hal_dfsdm.c ****   if (hdfsdm_filter->MspDeInitCallback == NULL)
1410:Drivers/STM32L4xx_HAL_Driver/Src/stm32l4xx_hal_dfsdm.c ****   {
1411:Drivers/STM32L4xx_HAL_Driver/Src/stm32l4xx_hal_dfsdm.c ****     hdfsdm_filter->MspDeInitCallback = HAL_DFSDM_FilterMspDeInit;
1412:Drivers/STM32L4xx_HAL_Driver/Src/stm32l4xx_hal_dfsdm.c ****   }
1413:Drivers/STM32L4xx_HAL_Driver/Src/stm32l4xx_hal_dfsdm.c ****   hdfsdm_filter->MspDeInitCallback(hdfsdm_filter);
1414:Drivers/STM32L4xx_HAL_Driver/Src/stm32l4xx_hal_dfsdm.c **** #else
1415:Drivers/STM32L4xx_HAL_Driver/Src/stm32l4xx_hal_dfsdm.c ****   HAL_DFSDM_FilterMspDeInit(hdfsdm_filter);
 2157              		.loc 1 1415 3
 2158 0022 7868     		ldr	r0, [r7, #4]
 2159 0024 FFF7FEFF 		bl	HAL_DFSDM_FilterMspDeInit
1416:Drivers/STM32L4xx_HAL_Driver/Src/stm32l4xx_hal_dfsdm.c **** #endif
1417:Drivers/STM32L4xx_HAL_Driver/Src/stm32l4xx_hal_dfsdm.c **** 
1418:Drivers/STM32L4xx_HAL_Driver/Src/stm32l4xx_hal_dfsdm.c ****   /* Set DFSDM filter in reset state */
1419:Drivers/STM32L4xx_HAL_Driver/Src/stm32l4xx_hal_dfsdm.c ****   hdfsdm_filter->State = HAL_DFSDM_FILTER_STATE_RESET;
 2160              		.loc 1 1419 24
 2161 0028 7B68     		ldr	r3, [r7, #4]
 2162 002a 0022     		movs	r2, #0
 2163 002c 83F84C20 		strb	r2, [r3, #76]
1420:Drivers/STM32L4xx_HAL_Driver/Src/stm32l4xx_hal_dfsdm.c **** 
1421:Drivers/STM32L4xx_HAL_Driver/Src/stm32l4xx_hal_dfsdm.c ****   return HAL_OK;
 2164              		.loc 1 1421 10
 2165 0030 0023     		movs	r3, #0
 2166              	.L116:
1422:Drivers/STM32L4xx_HAL_Driver/Src/stm32l4xx_hal_dfsdm.c **** }
 2167              		.loc 1 1422 1
 2168 0032 1846     		mov	r0, r3
 2169 0034 0837     		adds	r7, r7, #8
ARM GAS  /tmp/ccrDNuCE.s 			page 64


 2170              		.cfi_def_cfa_offset 8
 2171 0036 BD46     		mov	sp, r7
 2172              		.cfi_def_cfa_register 13
 2173              		@ sp needed
 2174 0038 80BD     		pop	{r7, pc}
 2175              		.cfi_endproc
 2176              	.LFE465:
 2178              		.section	.text.HAL_DFSDM_FilterMspInit,"ax",%progbits
 2179              		.align	1
 2180              		.weak	HAL_DFSDM_FilterMspInit
 2181              		.syntax unified
 2182              		.thumb
 2183              		.thumb_func
 2185              	HAL_DFSDM_FilterMspInit:
 2186              	.LFB466:
1423:Drivers/STM32L4xx_HAL_Driver/Src/stm32l4xx_hal_dfsdm.c **** 
1424:Drivers/STM32L4xx_HAL_Driver/Src/stm32l4xx_hal_dfsdm.c **** /**
1425:Drivers/STM32L4xx_HAL_Driver/Src/stm32l4xx_hal_dfsdm.c ****   * @brief  Initializes the DFSDM filter MSP.
1426:Drivers/STM32L4xx_HAL_Driver/Src/stm32l4xx_hal_dfsdm.c ****   * @param  hdfsdm_filter DFSDM filter handle.
1427:Drivers/STM32L4xx_HAL_Driver/Src/stm32l4xx_hal_dfsdm.c ****   * @retval None
1428:Drivers/STM32L4xx_HAL_Driver/Src/stm32l4xx_hal_dfsdm.c ****   */
1429:Drivers/STM32L4xx_HAL_Driver/Src/stm32l4xx_hal_dfsdm.c **** __weak void HAL_DFSDM_FilterMspInit(DFSDM_Filter_HandleTypeDef *hdfsdm_filter)
1430:Drivers/STM32L4xx_HAL_Driver/Src/stm32l4xx_hal_dfsdm.c **** {
 2187              		.loc 1 1430 1
 2188              		.cfi_startproc
 2189              		@ args = 0, pretend = 0, frame = 8
 2190              		@ frame_needed = 1, uses_anonymous_args = 0
 2191              		@ link register save eliminated.
 2192 0000 80B4     		push	{r7}
 2193              		.cfi_def_cfa_offset 4
 2194              		.cfi_offset 7, -4
 2195 0002 83B0     		sub	sp, sp, #12
 2196              		.cfi_def_cfa_offset 16
 2197 0004 00AF     		add	r7, sp, #0
 2198              		.cfi_def_cfa_register 7
 2199 0006 7860     		str	r0, [r7, #4]
1431:Drivers/STM32L4xx_HAL_Driver/Src/stm32l4xx_hal_dfsdm.c ****   /* Prevent unused argument(s) compilation warning */
1432:Drivers/STM32L4xx_HAL_Driver/Src/stm32l4xx_hal_dfsdm.c ****   UNUSED(hdfsdm_filter);
1433:Drivers/STM32L4xx_HAL_Driver/Src/stm32l4xx_hal_dfsdm.c **** 
1434:Drivers/STM32L4xx_HAL_Driver/Src/stm32l4xx_hal_dfsdm.c ****   /* NOTE : This function should not be modified, when the function is needed,
1435:Drivers/STM32L4xx_HAL_Driver/Src/stm32l4xx_hal_dfsdm.c ****             the HAL_DFSDM_FilterMspInit could be implemented in the user file.
1436:Drivers/STM32L4xx_HAL_Driver/Src/stm32l4xx_hal_dfsdm.c ****    */
1437:Drivers/STM32L4xx_HAL_Driver/Src/stm32l4xx_hal_dfsdm.c **** }
 2200              		.loc 1 1437 1
 2201 0008 00BF     		nop
 2202 000a 0C37     		adds	r7, r7, #12
 2203              		.cfi_def_cfa_offset 4
 2204 000c BD46     		mov	sp, r7
 2205              		.cfi_def_cfa_register 13
 2206              		@ sp needed
 2207 000e 5DF8047B 		ldr	r7, [sp], #4
 2208              		.cfi_restore 7
 2209              		.cfi_def_cfa_offset 0
 2210 0012 7047     		bx	lr
 2211              		.cfi_endproc
 2212              	.LFE466:
 2214              		.section	.text.HAL_DFSDM_FilterMspDeInit,"ax",%progbits
ARM GAS  /tmp/ccrDNuCE.s 			page 65


 2215              		.align	1
 2216              		.weak	HAL_DFSDM_FilterMspDeInit
 2217              		.syntax unified
 2218              		.thumb
 2219              		.thumb_func
 2221              	HAL_DFSDM_FilterMspDeInit:
 2222              	.LFB467:
1438:Drivers/STM32L4xx_HAL_Driver/Src/stm32l4xx_hal_dfsdm.c **** 
1439:Drivers/STM32L4xx_HAL_Driver/Src/stm32l4xx_hal_dfsdm.c **** /**
1440:Drivers/STM32L4xx_HAL_Driver/Src/stm32l4xx_hal_dfsdm.c ****   * @brief  De-initializes the DFSDM filter MSP.
1441:Drivers/STM32L4xx_HAL_Driver/Src/stm32l4xx_hal_dfsdm.c ****   * @param  hdfsdm_filter DFSDM filter handle.
1442:Drivers/STM32L4xx_HAL_Driver/Src/stm32l4xx_hal_dfsdm.c ****   * @retval None
1443:Drivers/STM32L4xx_HAL_Driver/Src/stm32l4xx_hal_dfsdm.c ****   */
1444:Drivers/STM32L4xx_HAL_Driver/Src/stm32l4xx_hal_dfsdm.c **** __weak void HAL_DFSDM_FilterMspDeInit(DFSDM_Filter_HandleTypeDef *hdfsdm_filter)
1445:Drivers/STM32L4xx_HAL_Driver/Src/stm32l4xx_hal_dfsdm.c **** {
 2223              		.loc 1 1445 1
 2224              		.cfi_startproc
 2225              		@ args = 0, pretend = 0, frame = 8
 2226              		@ frame_needed = 1, uses_anonymous_args = 0
 2227              		@ link register save eliminated.
 2228 0000 80B4     		push	{r7}
 2229              		.cfi_def_cfa_offset 4
 2230              		.cfi_offset 7, -4
 2231 0002 83B0     		sub	sp, sp, #12
 2232              		.cfi_def_cfa_offset 16
 2233 0004 00AF     		add	r7, sp, #0
 2234              		.cfi_def_cfa_register 7
 2235 0006 7860     		str	r0, [r7, #4]
1446:Drivers/STM32L4xx_HAL_Driver/Src/stm32l4xx_hal_dfsdm.c ****   /* Prevent unused argument(s) compilation warning */
1447:Drivers/STM32L4xx_HAL_Driver/Src/stm32l4xx_hal_dfsdm.c ****   UNUSED(hdfsdm_filter);
1448:Drivers/STM32L4xx_HAL_Driver/Src/stm32l4xx_hal_dfsdm.c **** 
1449:Drivers/STM32L4xx_HAL_Driver/Src/stm32l4xx_hal_dfsdm.c ****   /* NOTE : This function should not be modified, when the function is needed,
1450:Drivers/STM32L4xx_HAL_Driver/Src/stm32l4xx_hal_dfsdm.c ****             the HAL_DFSDM_FilterMspDeInit could be implemented in the user file.
1451:Drivers/STM32L4xx_HAL_Driver/Src/stm32l4xx_hal_dfsdm.c ****    */
1452:Drivers/STM32L4xx_HAL_Driver/Src/stm32l4xx_hal_dfsdm.c **** }
 2236              		.loc 1 1452 1
 2237 0008 00BF     		nop
 2238 000a 0C37     		adds	r7, r7, #12
 2239              		.cfi_def_cfa_offset 4
 2240 000c BD46     		mov	sp, r7
 2241              		.cfi_def_cfa_register 13
 2242              		@ sp needed
 2243 000e 5DF8047B 		ldr	r7, [sp], #4
 2244              		.cfi_restore 7
 2245              		.cfi_def_cfa_offset 0
 2246 0012 7047     		bx	lr
 2247              		.cfi_endproc
 2248              	.LFE467:
 2250              		.section	.text.HAL_DFSDM_FilterConfigRegChannel,"ax",%progbits
 2251              		.align	1
 2252              		.global	HAL_DFSDM_FilterConfigRegChannel
 2253              		.syntax unified
 2254              		.thumb
 2255              		.thumb_func
 2257              	HAL_DFSDM_FilterConfigRegChannel:
 2258              	.LFB468:
1453:Drivers/STM32L4xx_HAL_Driver/Src/stm32l4xx_hal_dfsdm.c **** 
ARM GAS  /tmp/ccrDNuCE.s 			page 66


1454:Drivers/STM32L4xx_HAL_Driver/Src/stm32l4xx_hal_dfsdm.c **** #if (USE_HAL_DFSDM_REGISTER_CALLBACKS == 1)
1455:Drivers/STM32L4xx_HAL_Driver/Src/stm32l4xx_hal_dfsdm.c **** /**
1456:Drivers/STM32L4xx_HAL_Driver/Src/stm32l4xx_hal_dfsdm.c ****   * @brief  Register a user DFSDM filter callback
1457:Drivers/STM32L4xx_HAL_Driver/Src/stm32l4xx_hal_dfsdm.c ****   *         to be used instead of the weak predefined callback.
1458:Drivers/STM32L4xx_HAL_Driver/Src/stm32l4xx_hal_dfsdm.c ****   * @param  hdfsdm_filter DFSDM filter handle.
1459:Drivers/STM32L4xx_HAL_Driver/Src/stm32l4xx_hal_dfsdm.c ****   * @param  CallbackID ID of the callback to be registered.
1460:Drivers/STM32L4xx_HAL_Driver/Src/stm32l4xx_hal_dfsdm.c ****   *         This parameter can be one of the following values:
1461:Drivers/STM32L4xx_HAL_Driver/Src/stm32l4xx_hal_dfsdm.c ****   *           @arg @ref HAL_DFSDM_FILTER_REGCONV_COMPLETE_CB_ID regular conversion complete callbac
1462:Drivers/STM32L4xx_HAL_Driver/Src/stm32l4xx_hal_dfsdm.c ****   *           @arg @ref HAL_DFSDM_FILTER_REGCONV_HALFCOMPLETE_CB_ID half regular conversion complet
1463:Drivers/STM32L4xx_HAL_Driver/Src/stm32l4xx_hal_dfsdm.c ****   *           @arg @ref HAL_DFSDM_FILTER_INJCONV_COMPLETE_CB_ID injected conversion complete callba
1464:Drivers/STM32L4xx_HAL_Driver/Src/stm32l4xx_hal_dfsdm.c ****   *           @arg @ref HAL_DFSDM_FILTER_INJCONV_HALFCOMPLETE_CB_ID half injected conversion comple
1465:Drivers/STM32L4xx_HAL_Driver/Src/stm32l4xx_hal_dfsdm.c ****   *           @arg @ref HAL_DFSDM_FILTER_ERROR_CB_ID error callback ID.
1466:Drivers/STM32L4xx_HAL_Driver/Src/stm32l4xx_hal_dfsdm.c ****   *           @arg @ref HAL_DFSDM_FILTER_MSPINIT_CB_ID MSP init callback ID.
1467:Drivers/STM32L4xx_HAL_Driver/Src/stm32l4xx_hal_dfsdm.c ****   *           @arg @ref HAL_DFSDM_FILTER_MSPDEINIT_CB_ID MSP de-init callback ID.
1468:Drivers/STM32L4xx_HAL_Driver/Src/stm32l4xx_hal_dfsdm.c ****   * @param  pCallback pointer to the callback function.
1469:Drivers/STM32L4xx_HAL_Driver/Src/stm32l4xx_hal_dfsdm.c ****   * @retval HAL status.
1470:Drivers/STM32L4xx_HAL_Driver/Src/stm32l4xx_hal_dfsdm.c ****   */
1471:Drivers/STM32L4xx_HAL_Driver/Src/stm32l4xx_hal_dfsdm.c **** HAL_StatusTypeDef HAL_DFSDM_Filter_RegisterCallback(DFSDM_Filter_HandleTypeDef        *hdfsdm_filte
1472:Drivers/STM32L4xx_HAL_Driver/Src/stm32l4xx_hal_dfsdm.c ****                                                     HAL_DFSDM_Filter_CallbackIDTypeDef CallbackID,
1473:Drivers/STM32L4xx_HAL_Driver/Src/stm32l4xx_hal_dfsdm.c ****                                                     pDFSDM_Filter_CallbackTypeDef      pCallback)
1474:Drivers/STM32L4xx_HAL_Driver/Src/stm32l4xx_hal_dfsdm.c **** {
1475:Drivers/STM32L4xx_HAL_Driver/Src/stm32l4xx_hal_dfsdm.c ****   HAL_StatusTypeDef status = HAL_OK;
1476:Drivers/STM32L4xx_HAL_Driver/Src/stm32l4xx_hal_dfsdm.c **** 
1477:Drivers/STM32L4xx_HAL_Driver/Src/stm32l4xx_hal_dfsdm.c ****   if (pCallback == NULL)
1478:Drivers/STM32L4xx_HAL_Driver/Src/stm32l4xx_hal_dfsdm.c ****   {
1479:Drivers/STM32L4xx_HAL_Driver/Src/stm32l4xx_hal_dfsdm.c ****     /* update the error code */
1480:Drivers/STM32L4xx_HAL_Driver/Src/stm32l4xx_hal_dfsdm.c ****     hdfsdm_filter->ErrorCode = DFSDM_FILTER_ERROR_INVALID_CALLBACK;
1481:Drivers/STM32L4xx_HAL_Driver/Src/stm32l4xx_hal_dfsdm.c ****     /* update return status */
1482:Drivers/STM32L4xx_HAL_Driver/Src/stm32l4xx_hal_dfsdm.c ****     status = HAL_ERROR;
1483:Drivers/STM32L4xx_HAL_Driver/Src/stm32l4xx_hal_dfsdm.c ****   }
1484:Drivers/STM32L4xx_HAL_Driver/Src/stm32l4xx_hal_dfsdm.c ****   else
1485:Drivers/STM32L4xx_HAL_Driver/Src/stm32l4xx_hal_dfsdm.c ****   {
1486:Drivers/STM32L4xx_HAL_Driver/Src/stm32l4xx_hal_dfsdm.c ****     if (HAL_DFSDM_FILTER_STATE_READY == hdfsdm_filter->State)
1487:Drivers/STM32L4xx_HAL_Driver/Src/stm32l4xx_hal_dfsdm.c ****     {
1488:Drivers/STM32L4xx_HAL_Driver/Src/stm32l4xx_hal_dfsdm.c ****       switch (CallbackID)
1489:Drivers/STM32L4xx_HAL_Driver/Src/stm32l4xx_hal_dfsdm.c ****       {
1490:Drivers/STM32L4xx_HAL_Driver/Src/stm32l4xx_hal_dfsdm.c ****         case HAL_DFSDM_FILTER_REGCONV_COMPLETE_CB_ID :
1491:Drivers/STM32L4xx_HAL_Driver/Src/stm32l4xx_hal_dfsdm.c ****           hdfsdm_filter->RegConvCpltCallback = pCallback;
1492:Drivers/STM32L4xx_HAL_Driver/Src/stm32l4xx_hal_dfsdm.c ****           break;
1493:Drivers/STM32L4xx_HAL_Driver/Src/stm32l4xx_hal_dfsdm.c ****         case HAL_DFSDM_FILTER_REGCONV_HALFCOMPLETE_CB_ID :
1494:Drivers/STM32L4xx_HAL_Driver/Src/stm32l4xx_hal_dfsdm.c ****           hdfsdm_filter->RegConvHalfCpltCallback = pCallback;
1495:Drivers/STM32L4xx_HAL_Driver/Src/stm32l4xx_hal_dfsdm.c ****           break;
1496:Drivers/STM32L4xx_HAL_Driver/Src/stm32l4xx_hal_dfsdm.c ****         case HAL_DFSDM_FILTER_INJCONV_COMPLETE_CB_ID :
1497:Drivers/STM32L4xx_HAL_Driver/Src/stm32l4xx_hal_dfsdm.c ****           hdfsdm_filter->InjConvCpltCallback = pCallback;
1498:Drivers/STM32L4xx_HAL_Driver/Src/stm32l4xx_hal_dfsdm.c ****           break;
1499:Drivers/STM32L4xx_HAL_Driver/Src/stm32l4xx_hal_dfsdm.c ****         case HAL_DFSDM_FILTER_INJCONV_HALFCOMPLETE_CB_ID :
1500:Drivers/STM32L4xx_HAL_Driver/Src/stm32l4xx_hal_dfsdm.c ****           hdfsdm_filter->InjConvHalfCpltCallback = pCallback;
1501:Drivers/STM32L4xx_HAL_Driver/Src/stm32l4xx_hal_dfsdm.c ****           break;
1502:Drivers/STM32L4xx_HAL_Driver/Src/stm32l4xx_hal_dfsdm.c ****         case HAL_DFSDM_FILTER_ERROR_CB_ID :
1503:Drivers/STM32L4xx_HAL_Driver/Src/stm32l4xx_hal_dfsdm.c ****           hdfsdm_filter->ErrorCallback = pCallback;
1504:Drivers/STM32L4xx_HAL_Driver/Src/stm32l4xx_hal_dfsdm.c ****           break;
1505:Drivers/STM32L4xx_HAL_Driver/Src/stm32l4xx_hal_dfsdm.c ****         case HAL_DFSDM_FILTER_MSPINIT_CB_ID :
1506:Drivers/STM32L4xx_HAL_Driver/Src/stm32l4xx_hal_dfsdm.c ****           hdfsdm_filter->MspInitCallback = pCallback;
1507:Drivers/STM32L4xx_HAL_Driver/Src/stm32l4xx_hal_dfsdm.c ****           break;
1508:Drivers/STM32L4xx_HAL_Driver/Src/stm32l4xx_hal_dfsdm.c ****         case HAL_DFSDM_FILTER_MSPDEINIT_CB_ID :
1509:Drivers/STM32L4xx_HAL_Driver/Src/stm32l4xx_hal_dfsdm.c ****           hdfsdm_filter->MspDeInitCallback = pCallback;
1510:Drivers/STM32L4xx_HAL_Driver/Src/stm32l4xx_hal_dfsdm.c ****           break;
ARM GAS  /tmp/ccrDNuCE.s 			page 67


1511:Drivers/STM32L4xx_HAL_Driver/Src/stm32l4xx_hal_dfsdm.c ****         default :
1512:Drivers/STM32L4xx_HAL_Driver/Src/stm32l4xx_hal_dfsdm.c ****           /* update the error code */
1513:Drivers/STM32L4xx_HAL_Driver/Src/stm32l4xx_hal_dfsdm.c ****           hdfsdm_filter->ErrorCode = DFSDM_FILTER_ERROR_INVALID_CALLBACK;
1514:Drivers/STM32L4xx_HAL_Driver/Src/stm32l4xx_hal_dfsdm.c ****           /* update return status */
1515:Drivers/STM32L4xx_HAL_Driver/Src/stm32l4xx_hal_dfsdm.c ****           status = HAL_ERROR;
1516:Drivers/STM32L4xx_HAL_Driver/Src/stm32l4xx_hal_dfsdm.c ****           break;
1517:Drivers/STM32L4xx_HAL_Driver/Src/stm32l4xx_hal_dfsdm.c ****       }
1518:Drivers/STM32L4xx_HAL_Driver/Src/stm32l4xx_hal_dfsdm.c ****     }
1519:Drivers/STM32L4xx_HAL_Driver/Src/stm32l4xx_hal_dfsdm.c ****     else if (HAL_DFSDM_FILTER_STATE_RESET == hdfsdm_filter->State)
1520:Drivers/STM32L4xx_HAL_Driver/Src/stm32l4xx_hal_dfsdm.c ****     {
1521:Drivers/STM32L4xx_HAL_Driver/Src/stm32l4xx_hal_dfsdm.c ****       switch (CallbackID)
1522:Drivers/STM32L4xx_HAL_Driver/Src/stm32l4xx_hal_dfsdm.c ****       {
1523:Drivers/STM32L4xx_HAL_Driver/Src/stm32l4xx_hal_dfsdm.c ****         case HAL_DFSDM_FILTER_MSPINIT_CB_ID :
1524:Drivers/STM32L4xx_HAL_Driver/Src/stm32l4xx_hal_dfsdm.c ****           hdfsdm_filter->MspInitCallback = pCallback;
1525:Drivers/STM32L4xx_HAL_Driver/Src/stm32l4xx_hal_dfsdm.c ****           break;
1526:Drivers/STM32L4xx_HAL_Driver/Src/stm32l4xx_hal_dfsdm.c ****         case HAL_DFSDM_FILTER_MSPDEINIT_CB_ID :
1527:Drivers/STM32L4xx_HAL_Driver/Src/stm32l4xx_hal_dfsdm.c ****           hdfsdm_filter->MspDeInitCallback = pCallback;
1528:Drivers/STM32L4xx_HAL_Driver/Src/stm32l4xx_hal_dfsdm.c ****           break;
1529:Drivers/STM32L4xx_HAL_Driver/Src/stm32l4xx_hal_dfsdm.c ****         default :
1530:Drivers/STM32L4xx_HAL_Driver/Src/stm32l4xx_hal_dfsdm.c ****           /* update the error code */
1531:Drivers/STM32L4xx_HAL_Driver/Src/stm32l4xx_hal_dfsdm.c ****           hdfsdm_filter->ErrorCode = DFSDM_FILTER_ERROR_INVALID_CALLBACK;
1532:Drivers/STM32L4xx_HAL_Driver/Src/stm32l4xx_hal_dfsdm.c ****           /* update return status */
1533:Drivers/STM32L4xx_HAL_Driver/Src/stm32l4xx_hal_dfsdm.c ****           status = HAL_ERROR;
1534:Drivers/STM32L4xx_HAL_Driver/Src/stm32l4xx_hal_dfsdm.c ****           break;
1535:Drivers/STM32L4xx_HAL_Driver/Src/stm32l4xx_hal_dfsdm.c ****       }
1536:Drivers/STM32L4xx_HAL_Driver/Src/stm32l4xx_hal_dfsdm.c ****     }
1537:Drivers/STM32L4xx_HAL_Driver/Src/stm32l4xx_hal_dfsdm.c ****     else
1538:Drivers/STM32L4xx_HAL_Driver/Src/stm32l4xx_hal_dfsdm.c ****     {
1539:Drivers/STM32L4xx_HAL_Driver/Src/stm32l4xx_hal_dfsdm.c ****       /* update the error code */
1540:Drivers/STM32L4xx_HAL_Driver/Src/stm32l4xx_hal_dfsdm.c ****       hdfsdm_filter->ErrorCode = DFSDM_FILTER_ERROR_INVALID_CALLBACK;
1541:Drivers/STM32L4xx_HAL_Driver/Src/stm32l4xx_hal_dfsdm.c ****       /* update return status */
1542:Drivers/STM32L4xx_HAL_Driver/Src/stm32l4xx_hal_dfsdm.c ****       status = HAL_ERROR;
1543:Drivers/STM32L4xx_HAL_Driver/Src/stm32l4xx_hal_dfsdm.c ****     }
1544:Drivers/STM32L4xx_HAL_Driver/Src/stm32l4xx_hal_dfsdm.c ****   }
1545:Drivers/STM32L4xx_HAL_Driver/Src/stm32l4xx_hal_dfsdm.c ****   return status;
1546:Drivers/STM32L4xx_HAL_Driver/Src/stm32l4xx_hal_dfsdm.c **** }
1547:Drivers/STM32L4xx_HAL_Driver/Src/stm32l4xx_hal_dfsdm.c **** 
1548:Drivers/STM32L4xx_HAL_Driver/Src/stm32l4xx_hal_dfsdm.c **** /**
1549:Drivers/STM32L4xx_HAL_Driver/Src/stm32l4xx_hal_dfsdm.c ****   * @brief  Unregister a user DFSDM filter callback.
1550:Drivers/STM32L4xx_HAL_Driver/Src/stm32l4xx_hal_dfsdm.c ****   *         DFSDM filter callback is redirected to the weak predefined callback.
1551:Drivers/STM32L4xx_HAL_Driver/Src/stm32l4xx_hal_dfsdm.c ****   * @param  hdfsdm_filter DFSDM filter handle.
1552:Drivers/STM32L4xx_HAL_Driver/Src/stm32l4xx_hal_dfsdm.c ****   * @param  CallbackID ID of the callback to be unregistered.
1553:Drivers/STM32L4xx_HAL_Driver/Src/stm32l4xx_hal_dfsdm.c ****   *         This parameter can be one of the following values:
1554:Drivers/STM32L4xx_HAL_Driver/Src/stm32l4xx_hal_dfsdm.c ****   *           @arg @ref HAL_DFSDM_FILTER_REGCONV_COMPLETE_CB_ID regular conversion complete callbac
1555:Drivers/STM32L4xx_HAL_Driver/Src/stm32l4xx_hal_dfsdm.c ****   *           @arg @ref HAL_DFSDM_FILTER_REGCONV_HALFCOMPLETE_CB_ID half regular conversion complet
1556:Drivers/STM32L4xx_HAL_Driver/Src/stm32l4xx_hal_dfsdm.c ****   *           @arg @ref HAL_DFSDM_FILTER_INJCONV_COMPLETE_CB_ID injected conversion complete callba
1557:Drivers/STM32L4xx_HAL_Driver/Src/stm32l4xx_hal_dfsdm.c ****   *           @arg @ref HAL_DFSDM_FILTER_INJCONV_HALFCOMPLETE_CB_ID half injected conversion comple
1558:Drivers/STM32L4xx_HAL_Driver/Src/stm32l4xx_hal_dfsdm.c ****   *           @arg @ref HAL_DFSDM_FILTER_ERROR_CB_ID error callback ID.
1559:Drivers/STM32L4xx_HAL_Driver/Src/stm32l4xx_hal_dfsdm.c ****   *           @arg @ref HAL_DFSDM_FILTER_MSPINIT_CB_ID MSP init callback ID.
1560:Drivers/STM32L4xx_HAL_Driver/Src/stm32l4xx_hal_dfsdm.c ****   *           @arg @ref HAL_DFSDM_FILTER_MSPDEINIT_CB_ID MSP de-init callback ID.
1561:Drivers/STM32L4xx_HAL_Driver/Src/stm32l4xx_hal_dfsdm.c ****   * @retval HAL status.
1562:Drivers/STM32L4xx_HAL_Driver/Src/stm32l4xx_hal_dfsdm.c ****   */
1563:Drivers/STM32L4xx_HAL_Driver/Src/stm32l4xx_hal_dfsdm.c **** HAL_StatusTypeDef HAL_DFSDM_Filter_UnRegisterCallback(DFSDM_Filter_HandleTypeDef        *hdfsdm_fil
1564:Drivers/STM32L4xx_HAL_Driver/Src/stm32l4xx_hal_dfsdm.c ****                                                       HAL_DFSDM_Filter_CallbackIDTypeDef CallbackID
1565:Drivers/STM32L4xx_HAL_Driver/Src/stm32l4xx_hal_dfsdm.c **** {
1566:Drivers/STM32L4xx_HAL_Driver/Src/stm32l4xx_hal_dfsdm.c ****   HAL_StatusTypeDef status = HAL_OK;
1567:Drivers/STM32L4xx_HAL_Driver/Src/stm32l4xx_hal_dfsdm.c **** 
ARM GAS  /tmp/ccrDNuCE.s 			page 68


1568:Drivers/STM32L4xx_HAL_Driver/Src/stm32l4xx_hal_dfsdm.c ****   if (HAL_DFSDM_FILTER_STATE_READY == hdfsdm_filter->State)
1569:Drivers/STM32L4xx_HAL_Driver/Src/stm32l4xx_hal_dfsdm.c ****   {
1570:Drivers/STM32L4xx_HAL_Driver/Src/stm32l4xx_hal_dfsdm.c ****     switch (CallbackID)
1571:Drivers/STM32L4xx_HAL_Driver/Src/stm32l4xx_hal_dfsdm.c ****     {
1572:Drivers/STM32L4xx_HAL_Driver/Src/stm32l4xx_hal_dfsdm.c ****       case HAL_DFSDM_FILTER_REGCONV_COMPLETE_CB_ID :
1573:Drivers/STM32L4xx_HAL_Driver/Src/stm32l4xx_hal_dfsdm.c ****         hdfsdm_filter->RegConvCpltCallback = HAL_DFSDM_FilterRegConvCpltCallback;
1574:Drivers/STM32L4xx_HAL_Driver/Src/stm32l4xx_hal_dfsdm.c ****         break;
1575:Drivers/STM32L4xx_HAL_Driver/Src/stm32l4xx_hal_dfsdm.c ****       case HAL_DFSDM_FILTER_REGCONV_HALFCOMPLETE_CB_ID :
1576:Drivers/STM32L4xx_HAL_Driver/Src/stm32l4xx_hal_dfsdm.c ****         hdfsdm_filter->RegConvHalfCpltCallback = HAL_DFSDM_FilterRegConvHalfCpltCallback;
1577:Drivers/STM32L4xx_HAL_Driver/Src/stm32l4xx_hal_dfsdm.c ****         break;
1578:Drivers/STM32L4xx_HAL_Driver/Src/stm32l4xx_hal_dfsdm.c ****       case HAL_DFSDM_FILTER_INJCONV_COMPLETE_CB_ID :
1579:Drivers/STM32L4xx_HAL_Driver/Src/stm32l4xx_hal_dfsdm.c ****         hdfsdm_filter->InjConvCpltCallback = HAL_DFSDM_FilterInjConvCpltCallback;
1580:Drivers/STM32L4xx_HAL_Driver/Src/stm32l4xx_hal_dfsdm.c ****         break;
1581:Drivers/STM32L4xx_HAL_Driver/Src/stm32l4xx_hal_dfsdm.c ****       case HAL_DFSDM_FILTER_INJCONV_HALFCOMPLETE_CB_ID :
1582:Drivers/STM32L4xx_HAL_Driver/Src/stm32l4xx_hal_dfsdm.c ****         hdfsdm_filter->InjConvHalfCpltCallback = HAL_DFSDM_FilterInjConvHalfCpltCallback;
1583:Drivers/STM32L4xx_HAL_Driver/Src/stm32l4xx_hal_dfsdm.c ****         break;
1584:Drivers/STM32L4xx_HAL_Driver/Src/stm32l4xx_hal_dfsdm.c ****       case HAL_DFSDM_FILTER_ERROR_CB_ID :
1585:Drivers/STM32L4xx_HAL_Driver/Src/stm32l4xx_hal_dfsdm.c ****         hdfsdm_filter->ErrorCallback = HAL_DFSDM_FilterErrorCallback;
1586:Drivers/STM32L4xx_HAL_Driver/Src/stm32l4xx_hal_dfsdm.c ****         break;
1587:Drivers/STM32L4xx_HAL_Driver/Src/stm32l4xx_hal_dfsdm.c ****       case HAL_DFSDM_FILTER_MSPINIT_CB_ID :
1588:Drivers/STM32L4xx_HAL_Driver/Src/stm32l4xx_hal_dfsdm.c ****         hdfsdm_filter->MspInitCallback = HAL_DFSDM_FilterMspInit;
1589:Drivers/STM32L4xx_HAL_Driver/Src/stm32l4xx_hal_dfsdm.c ****         break;
1590:Drivers/STM32L4xx_HAL_Driver/Src/stm32l4xx_hal_dfsdm.c ****       case HAL_DFSDM_FILTER_MSPDEINIT_CB_ID :
1591:Drivers/STM32L4xx_HAL_Driver/Src/stm32l4xx_hal_dfsdm.c ****         hdfsdm_filter->MspDeInitCallback = HAL_DFSDM_FilterMspDeInit;
1592:Drivers/STM32L4xx_HAL_Driver/Src/stm32l4xx_hal_dfsdm.c ****         break;
1593:Drivers/STM32L4xx_HAL_Driver/Src/stm32l4xx_hal_dfsdm.c ****       default :
1594:Drivers/STM32L4xx_HAL_Driver/Src/stm32l4xx_hal_dfsdm.c ****         /* update the error code */
1595:Drivers/STM32L4xx_HAL_Driver/Src/stm32l4xx_hal_dfsdm.c ****         hdfsdm_filter->ErrorCode = DFSDM_FILTER_ERROR_INVALID_CALLBACK;
1596:Drivers/STM32L4xx_HAL_Driver/Src/stm32l4xx_hal_dfsdm.c ****         /* update return status */
1597:Drivers/STM32L4xx_HAL_Driver/Src/stm32l4xx_hal_dfsdm.c ****         status = HAL_ERROR;
1598:Drivers/STM32L4xx_HAL_Driver/Src/stm32l4xx_hal_dfsdm.c ****         break;
1599:Drivers/STM32L4xx_HAL_Driver/Src/stm32l4xx_hal_dfsdm.c ****     }
1600:Drivers/STM32L4xx_HAL_Driver/Src/stm32l4xx_hal_dfsdm.c ****   }
1601:Drivers/STM32L4xx_HAL_Driver/Src/stm32l4xx_hal_dfsdm.c ****   else if (HAL_DFSDM_FILTER_STATE_RESET == hdfsdm_filter->State)
1602:Drivers/STM32L4xx_HAL_Driver/Src/stm32l4xx_hal_dfsdm.c ****   {
1603:Drivers/STM32L4xx_HAL_Driver/Src/stm32l4xx_hal_dfsdm.c ****     switch (CallbackID)
1604:Drivers/STM32L4xx_HAL_Driver/Src/stm32l4xx_hal_dfsdm.c ****     {
1605:Drivers/STM32L4xx_HAL_Driver/Src/stm32l4xx_hal_dfsdm.c ****       case HAL_DFSDM_FILTER_MSPINIT_CB_ID :
1606:Drivers/STM32L4xx_HAL_Driver/Src/stm32l4xx_hal_dfsdm.c ****         hdfsdm_filter->MspInitCallback = HAL_DFSDM_FilterMspInit;
1607:Drivers/STM32L4xx_HAL_Driver/Src/stm32l4xx_hal_dfsdm.c ****         break;
1608:Drivers/STM32L4xx_HAL_Driver/Src/stm32l4xx_hal_dfsdm.c ****       case HAL_DFSDM_FILTER_MSPDEINIT_CB_ID :
1609:Drivers/STM32L4xx_HAL_Driver/Src/stm32l4xx_hal_dfsdm.c ****         hdfsdm_filter->MspDeInitCallback = HAL_DFSDM_FilterMspDeInit;
1610:Drivers/STM32L4xx_HAL_Driver/Src/stm32l4xx_hal_dfsdm.c ****         break;
1611:Drivers/STM32L4xx_HAL_Driver/Src/stm32l4xx_hal_dfsdm.c ****       default :
1612:Drivers/STM32L4xx_HAL_Driver/Src/stm32l4xx_hal_dfsdm.c ****         /* update the error code */
1613:Drivers/STM32L4xx_HAL_Driver/Src/stm32l4xx_hal_dfsdm.c ****         hdfsdm_filter->ErrorCode = DFSDM_FILTER_ERROR_INVALID_CALLBACK;
1614:Drivers/STM32L4xx_HAL_Driver/Src/stm32l4xx_hal_dfsdm.c ****         /* update return status */
1615:Drivers/STM32L4xx_HAL_Driver/Src/stm32l4xx_hal_dfsdm.c ****         status = HAL_ERROR;
1616:Drivers/STM32L4xx_HAL_Driver/Src/stm32l4xx_hal_dfsdm.c ****         break;
1617:Drivers/STM32L4xx_HAL_Driver/Src/stm32l4xx_hal_dfsdm.c ****     }
1618:Drivers/STM32L4xx_HAL_Driver/Src/stm32l4xx_hal_dfsdm.c ****   }
1619:Drivers/STM32L4xx_HAL_Driver/Src/stm32l4xx_hal_dfsdm.c ****   else
1620:Drivers/STM32L4xx_HAL_Driver/Src/stm32l4xx_hal_dfsdm.c ****   {
1621:Drivers/STM32L4xx_HAL_Driver/Src/stm32l4xx_hal_dfsdm.c ****     /* update the error code */
1622:Drivers/STM32L4xx_HAL_Driver/Src/stm32l4xx_hal_dfsdm.c ****     hdfsdm_filter->ErrorCode = DFSDM_FILTER_ERROR_INVALID_CALLBACK;
1623:Drivers/STM32L4xx_HAL_Driver/Src/stm32l4xx_hal_dfsdm.c ****     /* update return status */
1624:Drivers/STM32L4xx_HAL_Driver/Src/stm32l4xx_hal_dfsdm.c ****     status = HAL_ERROR;
ARM GAS  /tmp/ccrDNuCE.s 			page 69


1625:Drivers/STM32L4xx_HAL_Driver/Src/stm32l4xx_hal_dfsdm.c ****   }
1626:Drivers/STM32L4xx_HAL_Driver/Src/stm32l4xx_hal_dfsdm.c ****   return status;
1627:Drivers/STM32L4xx_HAL_Driver/Src/stm32l4xx_hal_dfsdm.c **** }
1628:Drivers/STM32L4xx_HAL_Driver/Src/stm32l4xx_hal_dfsdm.c **** 
1629:Drivers/STM32L4xx_HAL_Driver/Src/stm32l4xx_hal_dfsdm.c **** /**
1630:Drivers/STM32L4xx_HAL_Driver/Src/stm32l4xx_hal_dfsdm.c ****   * @brief  Register a user DFSDM filter analog watchdog callback
1631:Drivers/STM32L4xx_HAL_Driver/Src/stm32l4xx_hal_dfsdm.c ****   *         to be used instead of the weak predefined callback.
1632:Drivers/STM32L4xx_HAL_Driver/Src/stm32l4xx_hal_dfsdm.c ****   * @param  hdfsdm_filter DFSDM filter handle.
1633:Drivers/STM32L4xx_HAL_Driver/Src/stm32l4xx_hal_dfsdm.c ****   * @param  pCallback pointer to the DFSDM filter analog watchdog callback function.
1634:Drivers/STM32L4xx_HAL_Driver/Src/stm32l4xx_hal_dfsdm.c ****   * @retval HAL status.
1635:Drivers/STM32L4xx_HAL_Driver/Src/stm32l4xx_hal_dfsdm.c ****   */
1636:Drivers/STM32L4xx_HAL_Driver/Src/stm32l4xx_hal_dfsdm.c **** HAL_StatusTypeDef HAL_DFSDM_Filter_RegisterAwdCallback(DFSDM_Filter_HandleTypeDef      *hdfsdm_filt
1637:Drivers/STM32L4xx_HAL_Driver/Src/stm32l4xx_hal_dfsdm.c ****                                                        pDFSDM_Filter_AwdCallbackTypeDef pCallback)
1638:Drivers/STM32L4xx_HAL_Driver/Src/stm32l4xx_hal_dfsdm.c **** {
1639:Drivers/STM32L4xx_HAL_Driver/Src/stm32l4xx_hal_dfsdm.c ****   HAL_StatusTypeDef status = HAL_OK;
1640:Drivers/STM32L4xx_HAL_Driver/Src/stm32l4xx_hal_dfsdm.c **** 
1641:Drivers/STM32L4xx_HAL_Driver/Src/stm32l4xx_hal_dfsdm.c ****   if (pCallback == NULL)
1642:Drivers/STM32L4xx_HAL_Driver/Src/stm32l4xx_hal_dfsdm.c ****   {
1643:Drivers/STM32L4xx_HAL_Driver/Src/stm32l4xx_hal_dfsdm.c ****     /* update the error code */
1644:Drivers/STM32L4xx_HAL_Driver/Src/stm32l4xx_hal_dfsdm.c ****     hdfsdm_filter->ErrorCode = DFSDM_FILTER_ERROR_INVALID_CALLBACK;
1645:Drivers/STM32L4xx_HAL_Driver/Src/stm32l4xx_hal_dfsdm.c ****     /* update return status */
1646:Drivers/STM32L4xx_HAL_Driver/Src/stm32l4xx_hal_dfsdm.c ****     status = HAL_ERROR;
1647:Drivers/STM32L4xx_HAL_Driver/Src/stm32l4xx_hal_dfsdm.c ****   }
1648:Drivers/STM32L4xx_HAL_Driver/Src/stm32l4xx_hal_dfsdm.c ****   else
1649:Drivers/STM32L4xx_HAL_Driver/Src/stm32l4xx_hal_dfsdm.c ****   {
1650:Drivers/STM32L4xx_HAL_Driver/Src/stm32l4xx_hal_dfsdm.c ****     if (HAL_DFSDM_FILTER_STATE_READY == hdfsdm_filter->State)
1651:Drivers/STM32L4xx_HAL_Driver/Src/stm32l4xx_hal_dfsdm.c ****     {
1652:Drivers/STM32L4xx_HAL_Driver/Src/stm32l4xx_hal_dfsdm.c ****       hdfsdm_filter->AwdCallback = pCallback;
1653:Drivers/STM32L4xx_HAL_Driver/Src/stm32l4xx_hal_dfsdm.c ****     }
1654:Drivers/STM32L4xx_HAL_Driver/Src/stm32l4xx_hal_dfsdm.c ****     else
1655:Drivers/STM32L4xx_HAL_Driver/Src/stm32l4xx_hal_dfsdm.c ****     {
1656:Drivers/STM32L4xx_HAL_Driver/Src/stm32l4xx_hal_dfsdm.c ****       /* update the error code */
1657:Drivers/STM32L4xx_HAL_Driver/Src/stm32l4xx_hal_dfsdm.c ****       hdfsdm_filter->ErrorCode = DFSDM_FILTER_ERROR_INVALID_CALLBACK;
1658:Drivers/STM32L4xx_HAL_Driver/Src/stm32l4xx_hal_dfsdm.c ****       /* update return status */
1659:Drivers/STM32L4xx_HAL_Driver/Src/stm32l4xx_hal_dfsdm.c ****       status = HAL_ERROR;
1660:Drivers/STM32L4xx_HAL_Driver/Src/stm32l4xx_hal_dfsdm.c ****     }
1661:Drivers/STM32L4xx_HAL_Driver/Src/stm32l4xx_hal_dfsdm.c ****   }
1662:Drivers/STM32L4xx_HAL_Driver/Src/stm32l4xx_hal_dfsdm.c ****   return status;
1663:Drivers/STM32L4xx_HAL_Driver/Src/stm32l4xx_hal_dfsdm.c **** }
1664:Drivers/STM32L4xx_HAL_Driver/Src/stm32l4xx_hal_dfsdm.c **** 
1665:Drivers/STM32L4xx_HAL_Driver/Src/stm32l4xx_hal_dfsdm.c **** /**
1666:Drivers/STM32L4xx_HAL_Driver/Src/stm32l4xx_hal_dfsdm.c ****   * @brief  Unregister a user DFSDM filter analog watchdog callback.
1667:Drivers/STM32L4xx_HAL_Driver/Src/stm32l4xx_hal_dfsdm.c ****   *         DFSDM filter AWD callback is redirected to the weak predefined callback.
1668:Drivers/STM32L4xx_HAL_Driver/Src/stm32l4xx_hal_dfsdm.c ****   * @param  hdfsdm_filter DFSDM filter handle.
1669:Drivers/STM32L4xx_HAL_Driver/Src/stm32l4xx_hal_dfsdm.c ****   * @retval HAL status.
1670:Drivers/STM32L4xx_HAL_Driver/Src/stm32l4xx_hal_dfsdm.c ****   */
1671:Drivers/STM32L4xx_HAL_Driver/Src/stm32l4xx_hal_dfsdm.c **** HAL_StatusTypeDef HAL_DFSDM_Filter_UnRegisterAwdCallback(DFSDM_Filter_HandleTypeDef *hdfsdm_filter)
1672:Drivers/STM32L4xx_HAL_Driver/Src/stm32l4xx_hal_dfsdm.c **** {
1673:Drivers/STM32L4xx_HAL_Driver/Src/stm32l4xx_hal_dfsdm.c ****   HAL_StatusTypeDef status = HAL_OK;
1674:Drivers/STM32L4xx_HAL_Driver/Src/stm32l4xx_hal_dfsdm.c **** 
1675:Drivers/STM32L4xx_HAL_Driver/Src/stm32l4xx_hal_dfsdm.c ****   if (HAL_DFSDM_FILTER_STATE_READY == hdfsdm_filter->State)
1676:Drivers/STM32L4xx_HAL_Driver/Src/stm32l4xx_hal_dfsdm.c ****   {
1677:Drivers/STM32L4xx_HAL_Driver/Src/stm32l4xx_hal_dfsdm.c ****     hdfsdm_filter->AwdCallback = HAL_DFSDM_FilterAwdCallback;
1678:Drivers/STM32L4xx_HAL_Driver/Src/stm32l4xx_hal_dfsdm.c ****   }
1679:Drivers/STM32L4xx_HAL_Driver/Src/stm32l4xx_hal_dfsdm.c ****   else
1680:Drivers/STM32L4xx_HAL_Driver/Src/stm32l4xx_hal_dfsdm.c ****   {
1681:Drivers/STM32L4xx_HAL_Driver/Src/stm32l4xx_hal_dfsdm.c ****     /* update the error code */
ARM GAS  /tmp/ccrDNuCE.s 			page 70


1682:Drivers/STM32L4xx_HAL_Driver/Src/stm32l4xx_hal_dfsdm.c ****     hdfsdm_filter->ErrorCode = DFSDM_FILTER_ERROR_INVALID_CALLBACK;
1683:Drivers/STM32L4xx_HAL_Driver/Src/stm32l4xx_hal_dfsdm.c ****     /* update return status */
1684:Drivers/STM32L4xx_HAL_Driver/Src/stm32l4xx_hal_dfsdm.c ****     status = HAL_ERROR;
1685:Drivers/STM32L4xx_HAL_Driver/Src/stm32l4xx_hal_dfsdm.c ****   }
1686:Drivers/STM32L4xx_HAL_Driver/Src/stm32l4xx_hal_dfsdm.c ****   return status;
1687:Drivers/STM32L4xx_HAL_Driver/Src/stm32l4xx_hal_dfsdm.c **** }
1688:Drivers/STM32L4xx_HAL_Driver/Src/stm32l4xx_hal_dfsdm.c **** #endif /* USE_HAL_DFSDM_REGISTER_CALLBACKS */
1689:Drivers/STM32L4xx_HAL_Driver/Src/stm32l4xx_hal_dfsdm.c **** 
1690:Drivers/STM32L4xx_HAL_Driver/Src/stm32l4xx_hal_dfsdm.c **** /**
1691:Drivers/STM32L4xx_HAL_Driver/Src/stm32l4xx_hal_dfsdm.c ****   * @}
1692:Drivers/STM32L4xx_HAL_Driver/Src/stm32l4xx_hal_dfsdm.c ****   */
1693:Drivers/STM32L4xx_HAL_Driver/Src/stm32l4xx_hal_dfsdm.c **** 
1694:Drivers/STM32L4xx_HAL_Driver/Src/stm32l4xx_hal_dfsdm.c **** /** @defgroup DFSDM_Exported_Functions_Group2_Filter Filter control functions
1695:Drivers/STM32L4xx_HAL_Driver/Src/stm32l4xx_hal_dfsdm.c ****  *  @brief    Filter control functions
1696:Drivers/STM32L4xx_HAL_Driver/Src/stm32l4xx_hal_dfsdm.c ****  *
1697:Drivers/STM32L4xx_HAL_Driver/Src/stm32l4xx_hal_dfsdm.c **** @verbatim
1698:Drivers/STM32L4xx_HAL_Driver/Src/stm32l4xx_hal_dfsdm.c ****   ==============================================================================
1699:Drivers/STM32L4xx_HAL_Driver/Src/stm32l4xx_hal_dfsdm.c ****                     ##### Filter control functions #####
1700:Drivers/STM32L4xx_HAL_Driver/Src/stm32l4xx_hal_dfsdm.c ****   ==============================================================================
1701:Drivers/STM32L4xx_HAL_Driver/Src/stm32l4xx_hal_dfsdm.c ****     [..]  This section provides functions allowing to:
1702:Drivers/STM32L4xx_HAL_Driver/Src/stm32l4xx_hal_dfsdm.c ****       (+) Select channel and enable/disable continuous mode for regular conversion.
1703:Drivers/STM32L4xx_HAL_Driver/Src/stm32l4xx_hal_dfsdm.c ****       (+) Select channels for injected conversion.
1704:Drivers/STM32L4xx_HAL_Driver/Src/stm32l4xx_hal_dfsdm.c **** @endverbatim
1705:Drivers/STM32L4xx_HAL_Driver/Src/stm32l4xx_hal_dfsdm.c ****   * @{
1706:Drivers/STM32L4xx_HAL_Driver/Src/stm32l4xx_hal_dfsdm.c ****   */
1707:Drivers/STM32L4xx_HAL_Driver/Src/stm32l4xx_hal_dfsdm.c **** 
1708:Drivers/STM32L4xx_HAL_Driver/Src/stm32l4xx_hal_dfsdm.c **** /**
1709:Drivers/STM32L4xx_HAL_Driver/Src/stm32l4xx_hal_dfsdm.c ****   * @brief  This function allows to select channel and to enable/disable
1710:Drivers/STM32L4xx_HAL_Driver/Src/stm32l4xx_hal_dfsdm.c ****   *         continuous mode for regular conversion.
1711:Drivers/STM32L4xx_HAL_Driver/Src/stm32l4xx_hal_dfsdm.c ****   * @param  hdfsdm_filter DFSDM filter handle.
1712:Drivers/STM32L4xx_HAL_Driver/Src/stm32l4xx_hal_dfsdm.c ****   * @param  Channel Channel for regular conversion.
1713:Drivers/STM32L4xx_HAL_Driver/Src/stm32l4xx_hal_dfsdm.c ****   *         This parameter can be a value of @ref DFSDM_Channel_Selection.
1714:Drivers/STM32L4xx_HAL_Driver/Src/stm32l4xx_hal_dfsdm.c ****   * @param  ContinuousMode Enable/disable continuous mode for regular conversion.
1715:Drivers/STM32L4xx_HAL_Driver/Src/stm32l4xx_hal_dfsdm.c ****   *         This parameter can be a value of @ref DFSDM_ContinuousMode.
1716:Drivers/STM32L4xx_HAL_Driver/Src/stm32l4xx_hal_dfsdm.c ****   * @retval HAL status
1717:Drivers/STM32L4xx_HAL_Driver/Src/stm32l4xx_hal_dfsdm.c ****   */
1718:Drivers/STM32L4xx_HAL_Driver/Src/stm32l4xx_hal_dfsdm.c **** HAL_StatusTypeDef HAL_DFSDM_FilterConfigRegChannel(DFSDM_Filter_HandleTypeDef *hdfsdm_filter,
1719:Drivers/STM32L4xx_HAL_Driver/Src/stm32l4xx_hal_dfsdm.c ****                                                    uint32_t                    Channel,
1720:Drivers/STM32L4xx_HAL_Driver/Src/stm32l4xx_hal_dfsdm.c ****                                                    uint32_t                    ContinuousMode)
1721:Drivers/STM32L4xx_HAL_Driver/Src/stm32l4xx_hal_dfsdm.c **** {
 2259              		.loc 1 1721 1
 2260              		.cfi_startproc
 2261              		@ args = 0, pretend = 0, frame = 24
 2262              		@ frame_needed = 1, uses_anonymous_args = 0
 2263              		@ link register save eliminated.
 2264 0000 80B4     		push	{r7}
 2265              		.cfi_def_cfa_offset 4
 2266              		.cfi_offset 7, -4
 2267 0002 87B0     		sub	sp, sp, #28
 2268              		.cfi_def_cfa_offset 32
 2269 0004 00AF     		add	r7, sp, #0
 2270              		.cfi_def_cfa_register 7
 2271 0006 F860     		str	r0, [r7, #12]
 2272 0008 B960     		str	r1, [r7, #8]
 2273 000a 7A60     		str	r2, [r7, #4]
1722:Drivers/STM32L4xx_HAL_Driver/Src/stm32l4xx_hal_dfsdm.c ****   HAL_StatusTypeDef status = HAL_OK;
 2274              		.loc 1 1722 21
ARM GAS  /tmp/ccrDNuCE.s 			page 71


 2275 000c 0023     		movs	r3, #0
 2276 000e FB75     		strb	r3, [r7, #23]
1723:Drivers/STM32L4xx_HAL_Driver/Src/stm32l4xx_hal_dfsdm.c **** 
1724:Drivers/STM32L4xx_HAL_Driver/Src/stm32l4xx_hal_dfsdm.c ****   /* Check parameters */
1725:Drivers/STM32L4xx_HAL_Driver/Src/stm32l4xx_hal_dfsdm.c ****   assert_param(IS_DFSDM_FILTER_ALL_INSTANCE(hdfsdm_filter->Instance));
1726:Drivers/STM32L4xx_HAL_Driver/Src/stm32l4xx_hal_dfsdm.c ****   assert_param(IS_DFSDM_REGULAR_CHANNEL(Channel));
1727:Drivers/STM32L4xx_HAL_Driver/Src/stm32l4xx_hal_dfsdm.c ****   assert_param(IS_DFSDM_CONTINUOUS_MODE(ContinuousMode));
1728:Drivers/STM32L4xx_HAL_Driver/Src/stm32l4xx_hal_dfsdm.c **** 
1729:Drivers/STM32L4xx_HAL_Driver/Src/stm32l4xx_hal_dfsdm.c ****   /* Check DFSDM filter state */
1730:Drivers/STM32L4xx_HAL_Driver/Src/stm32l4xx_hal_dfsdm.c ****   if ((hdfsdm_filter->State != HAL_DFSDM_FILTER_STATE_RESET) &&
 2277              		.loc 1 1730 21
 2278 0010 FB68     		ldr	r3, [r7, #12]
 2279 0012 93F84C30 		ldrb	r3, [r3, #76]	@ zero_extendqisi2
 2280              		.loc 1 1730 6
 2281 0016 002B     		cmp	r3, #0
 2282 0018 2ED0     		beq	.L120
1731:Drivers/STM32L4xx_HAL_Driver/Src/stm32l4xx_hal_dfsdm.c ****       (hdfsdm_filter->State != HAL_DFSDM_FILTER_STATE_ERROR))
 2283              		.loc 1 1731 21
 2284 001a FB68     		ldr	r3, [r7, #12]
 2285 001c 93F84C30 		ldrb	r3, [r3, #76]	@ zero_extendqisi2
1730:Drivers/STM32L4xx_HAL_Driver/Src/stm32l4xx_hal_dfsdm.c ****       (hdfsdm_filter->State != HAL_DFSDM_FILTER_STATE_ERROR))
 2286              		.loc 1 1730 62 discriminator 1
 2287 0020 FF2B     		cmp	r3, #255
 2288 0022 29D0     		beq	.L120
1732:Drivers/STM32L4xx_HAL_Driver/Src/stm32l4xx_hal_dfsdm.c ****   {
1733:Drivers/STM32L4xx_HAL_Driver/Src/stm32l4xx_hal_dfsdm.c ****     /* Configure channel and continuous mode for regular conversion */
1734:Drivers/STM32L4xx_HAL_Driver/Src/stm32l4xx_hal_dfsdm.c ****     hdfsdm_filter->Instance->FLTCR1 &= ~(DFSDM_FLTCR1_RCH | DFSDM_FLTCR1_RCONT);
 2289              		.loc 1 1734 18
 2290 0024 FB68     		ldr	r3, [r7, #12]
 2291 0026 1B68     		ldr	r3, [r3]
 2292              		.loc 1 1734 28
 2293 0028 1B68     		ldr	r3, [r3]
 2294              		.loc 1 1734 18
 2295 002a FA68     		ldr	r2, [r7, #12]
 2296 002c 1268     		ldr	r2, [r2]
 2297              		.loc 1 1734 37
 2298 002e 23F0E063 		bic	r3, r3, #117440512
 2299 0032 23F48023 		bic	r3, r3, #262144
 2300 0036 1360     		str	r3, [r2]
1735:Drivers/STM32L4xx_HAL_Driver/Src/stm32l4xx_hal_dfsdm.c ****     if (ContinuousMode == DFSDM_CONTINUOUS_CONV_ON)
 2301              		.loc 1 1735 8
 2302 0038 7B68     		ldr	r3, [r7, #4]
 2303 003a 012B     		cmp	r3, #1
 2304 003c 0DD1     		bne	.L121
1736:Drivers/STM32L4xx_HAL_Driver/Src/stm32l4xx_hal_dfsdm.c ****     {
1737:Drivers/STM32L4xx_HAL_Driver/Src/stm32l4xx_hal_dfsdm.c ****       hdfsdm_filter->Instance->FLTCR1 |= (uint32_t)(((Channel & DFSDM_MSB_MASK) << DFSDM_FLTCR1_MSB
 2305              		.loc 1 1737 20
 2306 003e FB68     		ldr	r3, [r7, #12]
 2307 0040 1B68     		ldr	r3, [r3]
 2308              		.loc 1 1737 30
 2309 0042 1A68     		ldr	r2, [r3]
 2310              		.loc 1 1737 81
 2311 0044 BB68     		ldr	r3, [r7, #8]
 2312 0046 1B02     		lsls	r3, r3, #8
 2313 0048 03F07F43 		and	r3, r3, #-16777216
 2314              		.loc 1 1737 39
 2315 004c 1A43     		orrs	r2, r2, r3
ARM GAS  /tmp/ccrDNuCE.s 			page 72


 2316              		.loc 1 1737 20
 2317 004e FB68     		ldr	r3, [r7, #12]
 2318 0050 1B68     		ldr	r3, [r3]
 2319              		.loc 1 1737 39
 2320 0052 42F48022 		orr	r2, r2, #262144
 2321 0056 1A60     		str	r2, [r3]
 2322 0058 0AE0     		b	.L122
 2323              	.L121:
1738:Drivers/STM32L4xx_HAL_Driver/Src/stm32l4xx_hal_dfsdm.c ****                                                     DFSDM_FLTCR1_RCONT);
1739:Drivers/STM32L4xx_HAL_Driver/Src/stm32l4xx_hal_dfsdm.c ****     }
1740:Drivers/STM32L4xx_HAL_Driver/Src/stm32l4xx_hal_dfsdm.c ****     else
1741:Drivers/STM32L4xx_HAL_Driver/Src/stm32l4xx_hal_dfsdm.c ****     {
1742:Drivers/STM32L4xx_HAL_Driver/Src/stm32l4xx_hal_dfsdm.c ****       hdfsdm_filter->Instance->FLTCR1 |= (uint32_t)((Channel & DFSDM_MSB_MASK) << DFSDM_FLTCR1_MSB_
 2324              		.loc 1 1742 20
 2325 005a FB68     		ldr	r3, [r7, #12]
 2326 005c 1B68     		ldr	r3, [r3]
 2327              		.loc 1 1742 30
 2328 005e 1968     		ldr	r1, [r3]
 2329              		.loc 1 1742 42
 2330 0060 BB68     		ldr	r3, [r7, #8]
 2331 0062 1B02     		lsls	r3, r3, #8
 2332 0064 03F07F42 		and	r2, r3, #-16777216
 2333              		.loc 1 1742 20
 2334 0068 FB68     		ldr	r3, [r7, #12]
 2335 006a 1B68     		ldr	r3, [r3]
 2336              		.loc 1 1742 39
 2337 006c 0A43     		orrs	r2, r2, r1
 2338 006e 1A60     		str	r2, [r3]
 2339              	.L122:
1743:Drivers/STM32L4xx_HAL_Driver/Src/stm32l4xx_hal_dfsdm.c ****     }
1744:Drivers/STM32L4xx_HAL_Driver/Src/stm32l4xx_hal_dfsdm.c ****     /* Store continuous mode information */
1745:Drivers/STM32L4xx_HAL_Driver/Src/stm32l4xx_hal_dfsdm.c ****     hdfsdm_filter->RegularContMode = ContinuousMode;
 2340              		.loc 1 1745 36
 2341 0070 FB68     		ldr	r3, [r7, #12]
 2342 0072 7A68     		ldr	r2, [r7, #4]
 2343 0074 1A63     		str	r2, [r3, #48]
 2344 0076 01E0     		b	.L123
 2345              	.L120:
1746:Drivers/STM32L4xx_HAL_Driver/Src/stm32l4xx_hal_dfsdm.c ****   }
1747:Drivers/STM32L4xx_HAL_Driver/Src/stm32l4xx_hal_dfsdm.c ****   else
1748:Drivers/STM32L4xx_HAL_Driver/Src/stm32l4xx_hal_dfsdm.c ****   {
1749:Drivers/STM32L4xx_HAL_Driver/Src/stm32l4xx_hal_dfsdm.c ****     status = HAL_ERROR;
 2346              		.loc 1 1749 12
 2347 0078 0123     		movs	r3, #1
 2348 007a FB75     		strb	r3, [r7, #23]
 2349              	.L123:
1750:Drivers/STM32L4xx_HAL_Driver/Src/stm32l4xx_hal_dfsdm.c ****   }
1751:Drivers/STM32L4xx_HAL_Driver/Src/stm32l4xx_hal_dfsdm.c **** 
1752:Drivers/STM32L4xx_HAL_Driver/Src/stm32l4xx_hal_dfsdm.c ****   /* Return function status */
1753:Drivers/STM32L4xx_HAL_Driver/Src/stm32l4xx_hal_dfsdm.c ****   return status;
 2350              		.loc 1 1753 10
 2351 007c FB7D     		ldrb	r3, [r7, #23]	@ zero_extendqisi2
1754:Drivers/STM32L4xx_HAL_Driver/Src/stm32l4xx_hal_dfsdm.c **** }
 2352              		.loc 1 1754 1
 2353 007e 1846     		mov	r0, r3
 2354 0080 1C37     		adds	r7, r7, #28
 2355              		.cfi_def_cfa_offset 4
ARM GAS  /tmp/ccrDNuCE.s 			page 73


 2356 0082 BD46     		mov	sp, r7
 2357              		.cfi_def_cfa_register 13
 2358              		@ sp needed
 2359 0084 5DF8047B 		ldr	r7, [sp], #4
 2360              		.cfi_restore 7
 2361              		.cfi_def_cfa_offset 0
 2362 0088 7047     		bx	lr
 2363              		.cfi_endproc
 2364              	.LFE468:
 2366              		.section	.text.HAL_DFSDM_FilterConfigInjChannel,"ax",%progbits
 2367              		.align	1
 2368              		.global	HAL_DFSDM_FilterConfigInjChannel
 2369              		.syntax unified
 2370              		.thumb
 2371              		.thumb_func
 2373              	HAL_DFSDM_FilterConfigInjChannel:
 2374              	.LFB469:
1755:Drivers/STM32L4xx_HAL_Driver/Src/stm32l4xx_hal_dfsdm.c **** 
1756:Drivers/STM32L4xx_HAL_Driver/Src/stm32l4xx_hal_dfsdm.c **** /**
1757:Drivers/STM32L4xx_HAL_Driver/Src/stm32l4xx_hal_dfsdm.c ****   * @brief  This function allows to select channels for injected conversion.
1758:Drivers/STM32L4xx_HAL_Driver/Src/stm32l4xx_hal_dfsdm.c ****   * @param  hdfsdm_filter DFSDM filter handle.
1759:Drivers/STM32L4xx_HAL_Driver/Src/stm32l4xx_hal_dfsdm.c ****   * @param  Channel Channels for injected conversion.
1760:Drivers/STM32L4xx_HAL_Driver/Src/stm32l4xx_hal_dfsdm.c ****   *         This parameter can be a values combination of @ref DFSDM_Channel_Selection.
1761:Drivers/STM32L4xx_HAL_Driver/Src/stm32l4xx_hal_dfsdm.c ****   * @retval HAL status
1762:Drivers/STM32L4xx_HAL_Driver/Src/stm32l4xx_hal_dfsdm.c ****   */
1763:Drivers/STM32L4xx_HAL_Driver/Src/stm32l4xx_hal_dfsdm.c **** HAL_StatusTypeDef HAL_DFSDM_FilterConfigInjChannel(DFSDM_Filter_HandleTypeDef *hdfsdm_filter,
1764:Drivers/STM32L4xx_HAL_Driver/Src/stm32l4xx_hal_dfsdm.c ****                                                    uint32_t                    Channel)
1765:Drivers/STM32L4xx_HAL_Driver/Src/stm32l4xx_hal_dfsdm.c **** {
 2375              		.loc 1 1765 1
 2376              		.cfi_startproc
 2377              		@ args = 0, pretend = 0, frame = 16
 2378              		@ frame_needed = 1, uses_anonymous_args = 0
 2379 0000 80B5     		push	{r7, lr}
 2380              		.cfi_def_cfa_offset 8
 2381              		.cfi_offset 7, -8
 2382              		.cfi_offset 14, -4
 2383 0002 84B0     		sub	sp, sp, #16
 2384              		.cfi_def_cfa_offset 24
 2385 0004 00AF     		add	r7, sp, #0
 2386              		.cfi_def_cfa_register 7
 2387 0006 7860     		str	r0, [r7, #4]
 2388 0008 3960     		str	r1, [r7]
1766:Drivers/STM32L4xx_HAL_Driver/Src/stm32l4xx_hal_dfsdm.c ****   HAL_StatusTypeDef status = HAL_OK;
 2389              		.loc 1 1766 21
 2390 000a 0023     		movs	r3, #0
 2391 000c FB73     		strb	r3, [r7, #15]
1767:Drivers/STM32L4xx_HAL_Driver/Src/stm32l4xx_hal_dfsdm.c **** 
1768:Drivers/STM32L4xx_HAL_Driver/Src/stm32l4xx_hal_dfsdm.c ****   /* Check parameters */
1769:Drivers/STM32L4xx_HAL_Driver/Src/stm32l4xx_hal_dfsdm.c ****   assert_param(IS_DFSDM_FILTER_ALL_INSTANCE(hdfsdm_filter->Instance));
1770:Drivers/STM32L4xx_HAL_Driver/Src/stm32l4xx_hal_dfsdm.c ****   assert_param(IS_DFSDM_INJECTED_CHANNEL(Channel));
1771:Drivers/STM32L4xx_HAL_Driver/Src/stm32l4xx_hal_dfsdm.c **** 
1772:Drivers/STM32L4xx_HAL_Driver/Src/stm32l4xx_hal_dfsdm.c ****   /* Check DFSDM filter state */
1773:Drivers/STM32L4xx_HAL_Driver/Src/stm32l4xx_hal_dfsdm.c ****   if ((hdfsdm_filter->State != HAL_DFSDM_FILTER_STATE_RESET) &&
 2392              		.loc 1 1773 21
 2393 000e 7B68     		ldr	r3, [r7, #4]
 2394 0010 93F84C30 		ldrb	r3, [r3, #76]	@ zero_extendqisi2
 2395              		.loc 1 1773 6
ARM GAS  /tmp/ccrDNuCE.s 			page 74


 2396 0014 002B     		cmp	r3, #0
 2397 0016 1BD0     		beq	.L126
1774:Drivers/STM32L4xx_HAL_Driver/Src/stm32l4xx_hal_dfsdm.c ****       (hdfsdm_filter->State != HAL_DFSDM_FILTER_STATE_ERROR))
 2398              		.loc 1 1774 21
 2399 0018 7B68     		ldr	r3, [r7, #4]
 2400 001a 93F84C30 		ldrb	r3, [r3, #76]	@ zero_extendqisi2
1773:Drivers/STM32L4xx_HAL_Driver/Src/stm32l4xx_hal_dfsdm.c ****       (hdfsdm_filter->State != HAL_DFSDM_FILTER_STATE_ERROR))
 2401              		.loc 1 1773 62 discriminator 1
 2402 001e FF2B     		cmp	r3, #255
 2403 0020 16D0     		beq	.L126
1775:Drivers/STM32L4xx_HAL_Driver/Src/stm32l4xx_hal_dfsdm.c ****   {
1776:Drivers/STM32L4xx_HAL_Driver/Src/stm32l4xx_hal_dfsdm.c ****     /* Configure channel for injected conversion */
1777:Drivers/STM32L4xx_HAL_Driver/Src/stm32l4xx_hal_dfsdm.c ****     hdfsdm_filter->Instance->FLTJCHGR = (uint32_t)(Channel & DFSDM_LSB_MASK);
 2404              		.loc 1 1777 18
 2405 0022 7B68     		ldr	r3, [r7, #4]
 2406 0024 1B68     		ldr	r3, [r3]
 2407              		.loc 1 1777 41
 2408 0026 3A68     		ldr	r2, [r7]
 2409 0028 92B2     		uxth	r2, r2
 2410              		.loc 1 1777 39
 2411 002a 1A61     		str	r2, [r3, #16]
1778:Drivers/STM32L4xx_HAL_Driver/Src/stm32l4xx_hal_dfsdm.c ****     /* Store number of injected channels */
1779:Drivers/STM32L4xx_HAL_Driver/Src/stm32l4xx_hal_dfsdm.c ****     hdfsdm_filter->InjectedChannelsNbr = DFSDM_GetInjChannelsNbr(Channel);
 2412              		.loc 1 1779 42
 2413 002c 3868     		ldr	r0, [r7]
 2414 002e FFF7FEFF 		bl	DFSDM_GetInjChannelsNbr
 2415 0032 0246     		mov	r2, r0
 2416              		.loc 1 1779 40 discriminator 1
 2417 0034 7B68     		ldr	r3, [r7, #4]
 2418 0036 5A64     		str	r2, [r3, #68]
1780:Drivers/STM32L4xx_HAL_Driver/Src/stm32l4xx_hal_dfsdm.c ****     /* Update number of injected channels remaining */
1781:Drivers/STM32L4xx_HAL_Driver/Src/stm32l4xx_hal_dfsdm.c ****     hdfsdm_filter->InjConvRemaining = (hdfsdm_filter->InjectedScanMode == ENABLE) ? \
 2419              		.loc 1 1781 53
 2420 0038 7B68     		ldr	r3, [r7, #4]
 2421 003a 93F84030 		ldrb	r3, [r3, #64]	@ zero_extendqisi2
1782:Drivers/STM32L4xx_HAL_Driver/Src/stm32l4xx_hal_dfsdm.c ****                                       hdfsdm_filter->InjectedChannelsNbr : 1U;
 2422              		.loc 1 1782 74
 2423 003e 012B     		cmp	r3, #1
 2424 0040 02D1     		bne	.L127
 2425              		.loc 1 1782 74 is_stmt 0 discriminator 1
 2426 0042 7B68     		ldr	r3, [r7, #4]
 2427 0044 5B6C     		ldr	r3, [r3, #68]
 2428 0046 00E0     		b	.L128
 2429              	.L127:
 2430              		.loc 1 1782 74 discriminator 2
 2431 0048 0123     		movs	r3, #1
 2432              	.L128:
1781:Drivers/STM32L4xx_HAL_Driver/Src/stm32l4xx_hal_dfsdm.c ****                                       hdfsdm_filter->InjectedChannelsNbr : 1U;
 2433              		.loc 1 1781 37 is_stmt 1
 2434 004a 7A68     		ldr	r2, [r7, #4]
 2435 004c 9364     		str	r3, [r2, #72]
 2436 004e 01E0     		b	.L129
 2437              	.L126:
1783:Drivers/STM32L4xx_HAL_Driver/Src/stm32l4xx_hal_dfsdm.c ****   }
1784:Drivers/STM32L4xx_HAL_Driver/Src/stm32l4xx_hal_dfsdm.c ****   else
1785:Drivers/STM32L4xx_HAL_Driver/Src/stm32l4xx_hal_dfsdm.c ****   {
1786:Drivers/STM32L4xx_HAL_Driver/Src/stm32l4xx_hal_dfsdm.c ****     status = HAL_ERROR;
ARM GAS  /tmp/ccrDNuCE.s 			page 75


 2438              		.loc 1 1786 12
 2439 0050 0123     		movs	r3, #1
 2440 0052 FB73     		strb	r3, [r7, #15]
 2441              	.L129:
1787:Drivers/STM32L4xx_HAL_Driver/Src/stm32l4xx_hal_dfsdm.c ****   }
1788:Drivers/STM32L4xx_HAL_Driver/Src/stm32l4xx_hal_dfsdm.c ****   /* Return function status */
1789:Drivers/STM32L4xx_HAL_Driver/Src/stm32l4xx_hal_dfsdm.c ****   return status;
 2442              		.loc 1 1789 10
 2443 0054 FB7B     		ldrb	r3, [r7, #15]	@ zero_extendqisi2
1790:Drivers/STM32L4xx_HAL_Driver/Src/stm32l4xx_hal_dfsdm.c **** }
 2444              		.loc 1 1790 1
 2445 0056 1846     		mov	r0, r3
 2446 0058 1037     		adds	r7, r7, #16
 2447              		.cfi_def_cfa_offset 8
 2448 005a BD46     		mov	sp, r7
 2449              		.cfi_def_cfa_register 13
 2450              		@ sp needed
 2451 005c 80BD     		pop	{r7, pc}
 2452              		.cfi_endproc
 2453              	.LFE469:
 2455              		.section	.text.HAL_DFSDM_FilterRegularStart,"ax",%progbits
 2456              		.align	1
 2457              		.global	HAL_DFSDM_FilterRegularStart
 2458              		.syntax unified
 2459              		.thumb
 2460              		.thumb_func
 2462              	HAL_DFSDM_FilterRegularStart:
 2463              	.LFB470:
1791:Drivers/STM32L4xx_HAL_Driver/Src/stm32l4xx_hal_dfsdm.c **** 
1792:Drivers/STM32L4xx_HAL_Driver/Src/stm32l4xx_hal_dfsdm.c **** /**
1793:Drivers/STM32L4xx_HAL_Driver/Src/stm32l4xx_hal_dfsdm.c ****   * @}
1794:Drivers/STM32L4xx_HAL_Driver/Src/stm32l4xx_hal_dfsdm.c ****   */
1795:Drivers/STM32L4xx_HAL_Driver/Src/stm32l4xx_hal_dfsdm.c **** 
1796:Drivers/STM32L4xx_HAL_Driver/Src/stm32l4xx_hal_dfsdm.c **** /** @defgroup DFSDM_Exported_Functions_Group3_Filter Filter operation functions
1797:Drivers/STM32L4xx_HAL_Driver/Src/stm32l4xx_hal_dfsdm.c ****  *  @brief    Filter operation functions
1798:Drivers/STM32L4xx_HAL_Driver/Src/stm32l4xx_hal_dfsdm.c ****  *
1799:Drivers/STM32L4xx_HAL_Driver/Src/stm32l4xx_hal_dfsdm.c **** @verbatim
1800:Drivers/STM32L4xx_HAL_Driver/Src/stm32l4xx_hal_dfsdm.c ****   ==============================================================================
1801:Drivers/STM32L4xx_HAL_Driver/Src/stm32l4xx_hal_dfsdm.c ****                     ##### Filter operation functions #####
1802:Drivers/STM32L4xx_HAL_Driver/Src/stm32l4xx_hal_dfsdm.c ****   ==============================================================================
1803:Drivers/STM32L4xx_HAL_Driver/Src/stm32l4xx_hal_dfsdm.c ****     [..]  This section provides functions allowing to:
1804:Drivers/STM32L4xx_HAL_Driver/Src/stm32l4xx_hal_dfsdm.c ****       (+) Start conversion of regular/injected channel.
1805:Drivers/STM32L4xx_HAL_Driver/Src/stm32l4xx_hal_dfsdm.c ****       (+) Poll for the end of regular/injected conversion.
1806:Drivers/STM32L4xx_HAL_Driver/Src/stm32l4xx_hal_dfsdm.c ****       (+) Stop conversion of regular/injected channel.
1807:Drivers/STM32L4xx_HAL_Driver/Src/stm32l4xx_hal_dfsdm.c ****       (+) Start conversion of regular/injected channel and enable interrupt.
1808:Drivers/STM32L4xx_HAL_Driver/Src/stm32l4xx_hal_dfsdm.c ****       (+) Call the callback functions at the end of regular/injected conversions.
1809:Drivers/STM32L4xx_HAL_Driver/Src/stm32l4xx_hal_dfsdm.c ****       (+) Stop conversion of regular/injected channel and disable interrupt.
1810:Drivers/STM32L4xx_HAL_Driver/Src/stm32l4xx_hal_dfsdm.c ****       (+) Start conversion of regular/injected channel and enable DMA transfer.
1811:Drivers/STM32L4xx_HAL_Driver/Src/stm32l4xx_hal_dfsdm.c ****       (+) Stop conversion of regular/injected channel and disable DMA transfer.
1812:Drivers/STM32L4xx_HAL_Driver/Src/stm32l4xx_hal_dfsdm.c ****       (+) Start analog watchdog and enable interrupt.
1813:Drivers/STM32L4xx_HAL_Driver/Src/stm32l4xx_hal_dfsdm.c ****       (+) Call the callback function when analog watchdog occurs.
1814:Drivers/STM32L4xx_HAL_Driver/Src/stm32l4xx_hal_dfsdm.c ****       (+) Stop analog watchdog and disable interrupt.
1815:Drivers/STM32L4xx_HAL_Driver/Src/stm32l4xx_hal_dfsdm.c ****       (+) Start extreme detector.
1816:Drivers/STM32L4xx_HAL_Driver/Src/stm32l4xx_hal_dfsdm.c ****       (+) Stop extreme detector.
1817:Drivers/STM32L4xx_HAL_Driver/Src/stm32l4xx_hal_dfsdm.c ****       (+) Get result of regular channel conversion.
1818:Drivers/STM32L4xx_HAL_Driver/Src/stm32l4xx_hal_dfsdm.c ****       (+) Get result of injected channel conversion.
1819:Drivers/STM32L4xx_HAL_Driver/Src/stm32l4xx_hal_dfsdm.c ****       (+) Get extreme detector maximum and minimum values.
ARM GAS  /tmp/ccrDNuCE.s 			page 76


1820:Drivers/STM32L4xx_HAL_Driver/Src/stm32l4xx_hal_dfsdm.c ****       (+) Get conversion time.
1821:Drivers/STM32L4xx_HAL_Driver/Src/stm32l4xx_hal_dfsdm.c ****       (+) Handle DFSDM interrupt request.
1822:Drivers/STM32L4xx_HAL_Driver/Src/stm32l4xx_hal_dfsdm.c **** @endverbatim
1823:Drivers/STM32L4xx_HAL_Driver/Src/stm32l4xx_hal_dfsdm.c ****   * @{
1824:Drivers/STM32L4xx_HAL_Driver/Src/stm32l4xx_hal_dfsdm.c ****   */
1825:Drivers/STM32L4xx_HAL_Driver/Src/stm32l4xx_hal_dfsdm.c **** 
1826:Drivers/STM32L4xx_HAL_Driver/Src/stm32l4xx_hal_dfsdm.c **** /**
1827:Drivers/STM32L4xx_HAL_Driver/Src/stm32l4xx_hal_dfsdm.c ****   * @brief  This function allows to start regular conversion in polling mode.
1828:Drivers/STM32L4xx_HAL_Driver/Src/stm32l4xx_hal_dfsdm.c ****   * @note   This function should be called only when DFSDM filter instance is
1829:Drivers/STM32L4xx_HAL_Driver/Src/stm32l4xx_hal_dfsdm.c ****   *         in idle state or if injected conversion is ongoing.
1830:Drivers/STM32L4xx_HAL_Driver/Src/stm32l4xx_hal_dfsdm.c ****   * @param  hdfsdm_filter DFSDM filter handle.
1831:Drivers/STM32L4xx_HAL_Driver/Src/stm32l4xx_hal_dfsdm.c ****   * @retval HAL status
1832:Drivers/STM32L4xx_HAL_Driver/Src/stm32l4xx_hal_dfsdm.c ****   */
1833:Drivers/STM32L4xx_HAL_Driver/Src/stm32l4xx_hal_dfsdm.c **** HAL_StatusTypeDef HAL_DFSDM_FilterRegularStart(DFSDM_Filter_HandleTypeDef *hdfsdm_filter)
1834:Drivers/STM32L4xx_HAL_Driver/Src/stm32l4xx_hal_dfsdm.c **** {
 2464              		.loc 1 1834 1
 2465              		.cfi_startproc
 2466              		@ args = 0, pretend = 0, frame = 16
 2467              		@ frame_needed = 1, uses_anonymous_args = 0
 2468 0000 80B5     		push	{r7, lr}
 2469              		.cfi_def_cfa_offset 8
 2470              		.cfi_offset 7, -8
 2471              		.cfi_offset 14, -4
 2472 0002 84B0     		sub	sp, sp, #16
 2473              		.cfi_def_cfa_offset 24
 2474 0004 00AF     		add	r7, sp, #0
 2475              		.cfi_def_cfa_register 7
 2476 0006 7860     		str	r0, [r7, #4]
1835:Drivers/STM32L4xx_HAL_Driver/Src/stm32l4xx_hal_dfsdm.c ****   HAL_StatusTypeDef status = HAL_OK;
 2477              		.loc 1 1835 21
 2478 0008 0023     		movs	r3, #0
 2479 000a FB73     		strb	r3, [r7, #15]
1836:Drivers/STM32L4xx_HAL_Driver/Src/stm32l4xx_hal_dfsdm.c **** 
1837:Drivers/STM32L4xx_HAL_Driver/Src/stm32l4xx_hal_dfsdm.c ****   /* Check parameters */
1838:Drivers/STM32L4xx_HAL_Driver/Src/stm32l4xx_hal_dfsdm.c ****   assert_param(IS_DFSDM_FILTER_ALL_INSTANCE(hdfsdm_filter->Instance));
1839:Drivers/STM32L4xx_HAL_Driver/Src/stm32l4xx_hal_dfsdm.c **** 
1840:Drivers/STM32L4xx_HAL_Driver/Src/stm32l4xx_hal_dfsdm.c ****   /* Check DFSDM filter state */
1841:Drivers/STM32L4xx_HAL_Driver/Src/stm32l4xx_hal_dfsdm.c ****   if ((hdfsdm_filter->State == HAL_DFSDM_FILTER_STATE_READY) || \
 2480              		.loc 1 1841 21
 2481 000c 7B68     		ldr	r3, [r7, #4]
 2482 000e 93F84C30 		ldrb	r3, [r3, #76]	@ zero_extendqisi2
 2483              		.loc 1 1841 6
 2484 0012 012B     		cmp	r3, #1
 2485 0014 04D0     		beq	.L132
1842:Drivers/STM32L4xx_HAL_Driver/Src/stm32l4xx_hal_dfsdm.c ****       (hdfsdm_filter->State == HAL_DFSDM_FILTER_STATE_INJ))
 2486              		.loc 1 1842 21
 2487 0016 7B68     		ldr	r3, [r7, #4]
 2488 0018 93F84C30 		ldrb	r3, [r3, #76]	@ zero_extendqisi2
1841:Drivers/STM32L4xx_HAL_Driver/Src/stm32l4xx_hal_dfsdm.c ****       (hdfsdm_filter->State == HAL_DFSDM_FILTER_STATE_INJ))
 2489              		.loc 1 1841 62 discriminator 1
 2490 001c 032B     		cmp	r3, #3
 2491 001e 03D1     		bne	.L133
 2492              	.L132:
1843:Drivers/STM32L4xx_HAL_Driver/Src/stm32l4xx_hal_dfsdm.c ****   {
1844:Drivers/STM32L4xx_HAL_Driver/Src/stm32l4xx_hal_dfsdm.c ****     /* Start regular conversion */
1845:Drivers/STM32L4xx_HAL_Driver/Src/stm32l4xx_hal_dfsdm.c ****     DFSDM_RegConvStart(hdfsdm_filter);
 2493              		.loc 1 1845 5
ARM GAS  /tmp/ccrDNuCE.s 			page 77


 2494 0020 7868     		ldr	r0, [r7, #4]
 2495 0022 FFF7FEFF 		bl	DFSDM_RegConvStart
 2496 0026 01E0     		b	.L134
 2497              	.L133:
1846:Drivers/STM32L4xx_HAL_Driver/Src/stm32l4xx_hal_dfsdm.c ****   }
1847:Drivers/STM32L4xx_HAL_Driver/Src/stm32l4xx_hal_dfsdm.c ****   else
1848:Drivers/STM32L4xx_HAL_Driver/Src/stm32l4xx_hal_dfsdm.c ****   {
1849:Drivers/STM32L4xx_HAL_Driver/Src/stm32l4xx_hal_dfsdm.c ****     status = HAL_ERROR;
 2498              		.loc 1 1849 12
 2499 0028 0123     		movs	r3, #1
 2500 002a FB73     		strb	r3, [r7, #15]
 2501              	.L134:
1850:Drivers/STM32L4xx_HAL_Driver/Src/stm32l4xx_hal_dfsdm.c ****   }
1851:Drivers/STM32L4xx_HAL_Driver/Src/stm32l4xx_hal_dfsdm.c ****   /* Return function status */
1852:Drivers/STM32L4xx_HAL_Driver/Src/stm32l4xx_hal_dfsdm.c ****   return status;
 2502              		.loc 1 1852 10
 2503 002c FB7B     		ldrb	r3, [r7, #15]	@ zero_extendqisi2
1853:Drivers/STM32L4xx_HAL_Driver/Src/stm32l4xx_hal_dfsdm.c **** }
 2504              		.loc 1 1853 1
 2505 002e 1846     		mov	r0, r3
 2506 0030 1037     		adds	r7, r7, #16
 2507              		.cfi_def_cfa_offset 8
 2508 0032 BD46     		mov	sp, r7
 2509              		.cfi_def_cfa_register 13
 2510              		@ sp needed
 2511 0034 80BD     		pop	{r7, pc}
 2512              		.cfi_endproc
 2513              	.LFE470:
 2515              		.section	.text.HAL_DFSDM_FilterPollForRegConversion,"ax",%progbits
 2516              		.align	1
 2517              		.global	HAL_DFSDM_FilterPollForRegConversion
 2518              		.syntax unified
 2519              		.thumb
 2520              		.thumb_func
 2522              	HAL_DFSDM_FilterPollForRegConversion:
 2523              	.LFB471:
1854:Drivers/STM32L4xx_HAL_Driver/Src/stm32l4xx_hal_dfsdm.c **** 
1855:Drivers/STM32L4xx_HAL_Driver/Src/stm32l4xx_hal_dfsdm.c **** /**
1856:Drivers/STM32L4xx_HAL_Driver/Src/stm32l4xx_hal_dfsdm.c ****   * @brief  This function allows to poll for the end of regular conversion.
1857:Drivers/STM32L4xx_HAL_Driver/Src/stm32l4xx_hal_dfsdm.c ****   * @note   This function should be called only if regular conversion is ongoing.
1858:Drivers/STM32L4xx_HAL_Driver/Src/stm32l4xx_hal_dfsdm.c ****   * @param  hdfsdm_filter DFSDM filter handle.
1859:Drivers/STM32L4xx_HAL_Driver/Src/stm32l4xx_hal_dfsdm.c ****   * @param  Timeout Timeout value in milliseconds.
1860:Drivers/STM32L4xx_HAL_Driver/Src/stm32l4xx_hal_dfsdm.c ****   * @retval HAL status
1861:Drivers/STM32L4xx_HAL_Driver/Src/stm32l4xx_hal_dfsdm.c ****   */
1862:Drivers/STM32L4xx_HAL_Driver/Src/stm32l4xx_hal_dfsdm.c **** HAL_StatusTypeDef HAL_DFSDM_FilterPollForRegConversion(DFSDM_Filter_HandleTypeDef *hdfsdm_filter,
1863:Drivers/STM32L4xx_HAL_Driver/Src/stm32l4xx_hal_dfsdm.c ****                                                        uint32_t                    Timeout)
1864:Drivers/STM32L4xx_HAL_Driver/Src/stm32l4xx_hal_dfsdm.c **** {
 2524              		.loc 1 1864 1
 2525              		.cfi_startproc
 2526              		@ args = 0, pretend = 0, frame = 16
 2527              		@ frame_needed = 1, uses_anonymous_args = 0
 2528 0000 80B5     		push	{r7, lr}
 2529              		.cfi_def_cfa_offset 8
 2530              		.cfi_offset 7, -8
 2531              		.cfi_offset 14, -4
 2532 0002 84B0     		sub	sp, sp, #16
 2533              		.cfi_def_cfa_offset 24
ARM GAS  /tmp/ccrDNuCE.s 			page 78


 2534 0004 00AF     		add	r7, sp, #0
 2535              		.cfi_def_cfa_register 7
 2536 0006 7860     		str	r0, [r7, #4]
 2537 0008 3960     		str	r1, [r7]
1865:Drivers/STM32L4xx_HAL_Driver/Src/stm32l4xx_hal_dfsdm.c ****   uint32_t tickstart;
1866:Drivers/STM32L4xx_HAL_Driver/Src/stm32l4xx_hal_dfsdm.c **** 
1867:Drivers/STM32L4xx_HAL_Driver/Src/stm32l4xx_hal_dfsdm.c ****   /* Check parameters */
1868:Drivers/STM32L4xx_HAL_Driver/Src/stm32l4xx_hal_dfsdm.c ****   assert_param(IS_DFSDM_FILTER_ALL_INSTANCE(hdfsdm_filter->Instance));
1869:Drivers/STM32L4xx_HAL_Driver/Src/stm32l4xx_hal_dfsdm.c **** 
1870:Drivers/STM32L4xx_HAL_Driver/Src/stm32l4xx_hal_dfsdm.c ****   /* Check DFSDM filter state */
1871:Drivers/STM32L4xx_HAL_Driver/Src/stm32l4xx_hal_dfsdm.c ****   if ((hdfsdm_filter->State != HAL_DFSDM_FILTER_STATE_REG) && \
 2538              		.loc 1 1871 21
 2539 000a 7B68     		ldr	r3, [r7, #4]
 2540 000c 93F84C30 		ldrb	r3, [r3, #76]	@ zero_extendqisi2
 2541              		.loc 1 1871 6
 2542 0010 022B     		cmp	r3, #2
 2543 0012 06D0     		beq	.L137
1872:Drivers/STM32L4xx_HAL_Driver/Src/stm32l4xx_hal_dfsdm.c ****       (hdfsdm_filter->State != HAL_DFSDM_FILTER_STATE_REG_INJ))
 2544              		.loc 1 1872 21
 2545 0014 7B68     		ldr	r3, [r7, #4]
 2546 0016 93F84C30 		ldrb	r3, [r3, #76]	@ zero_extendqisi2
1871:Drivers/STM32L4xx_HAL_Driver/Src/stm32l4xx_hal_dfsdm.c ****       (hdfsdm_filter->State != HAL_DFSDM_FILTER_STATE_REG_INJ))
 2547              		.loc 1 1871 60 discriminator 1
 2548 001a 042B     		cmp	r3, #4
 2549 001c 01D0     		beq	.L137
1873:Drivers/STM32L4xx_HAL_Driver/Src/stm32l4xx_hal_dfsdm.c ****   {
1874:Drivers/STM32L4xx_HAL_Driver/Src/stm32l4xx_hal_dfsdm.c ****     /* Return error status */
1875:Drivers/STM32L4xx_HAL_Driver/Src/stm32l4xx_hal_dfsdm.c ****     return HAL_ERROR;
 2550              		.loc 1 1875 12
 2551 001e 0123     		movs	r3, #1
 2552 0020 40E0     		b	.L138
 2553              	.L137:
1876:Drivers/STM32L4xx_HAL_Driver/Src/stm32l4xx_hal_dfsdm.c ****   }
1877:Drivers/STM32L4xx_HAL_Driver/Src/stm32l4xx_hal_dfsdm.c ****   else
1878:Drivers/STM32L4xx_HAL_Driver/Src/stm32l4xx_hal_dfsdm.c ****   {
1879:Drivers/STM32L4xx_HAL_Driver/Src/stm32l4xx_hal_dfsdm.c ****     /* Get timeout */
1880:Drivers/STM32L4xx_HAL_Driver/Src/stm32l4xx_hal_dfsdm.c ****     tickstart = HAL_GetTick();
 2554              		.loc 1 1880 17
 2555 0022 FFF7FEFF 		bl	HAL_GetTick
 2556 0026 F860     		str	r0, [r7, #12]
1881:Drivers/STM32L4xx_HAL_Driver/Src/stm32l4xx_hal_dfsdm.c **** 
1882:Drivers/STM32L4xx_HAL_Driver/Src/stm32l4xx_hal_dfsdm.c ****     /* Wait end of regular conversion */
1883:Drivers/STM32L4xx_HAL_Driver/Src/stm32l4xx_hal_dfsdm.c ****     while ((hdfsdm_filter->Instance->FLTISR & DFSDM_FLTISR_REOCF) != DFSDM_FLTISR_REOCF)
 2557              		.loc 1 1883 11
 2558 0028 10E0     		b	.L140
 2559              	.L142:
1884:Drivers/STM32L4xx_HAL_Driver/Src/stm32l4xx_hal_dfsdm.c ****     {
1885:Drivers/STM32L4xx_HAL_Driver/Src/stm32l4xx_hal_dfsdm.c ****       /* Check the Timeout */
1886:Drivers/STM32L4xx_HAL_Driver/Src/stm32l4xx_hal_dfsdm.c ****       if (Timeout != HAL_MAX_DELAY)
 2560              		.loc 1 1886 10
 2561 002a 3B68     		ldr	r3, [r7]
 2562 002c B3F1FF3F 		cmp	r3, #-1
 2563 0030 0CD0     		beq	.L140
1887:Drivers/STM32L4xx_HAL_Driver/Src/stm32l4xx_hal_dfsdm.c ****       {
1888:Drivers/STM32L4xx_HAL_Driver/Src/stm32l4xx_hal_dfsdm.c ****         if (((HAL_GetTick() - tickstart) > Timeout) || (Timeout == 0U))
 2564              		.loc 1 1888 15
 2565 0032 FFF7FEFF 		bl	HAL_GetTick
ARM GAS  /tmp/ccrDNuCE.s 			page 79


 2566 0036 0246     		mov	r2, r0
 2567              		.loc 1 1888 29 discriminator 1
 2568 0038 FB68     		ldr	r3, [r7, #12]
 2569 003a D31A     		subs	r3, r2, r3
 2570              		.loc 1 1888 12 discriminator 1
 2571 003c 3A68     		ldr	r2, [r7]
 2572 003e 9A42     		cmp	r2, r3
 2573 0040 02D3     		bcc	.L141
 2574              		.loc 1 1888 53 discriminator 1
 2575 0042 3B68     		ldr	r3, [r7]
 2576 0044 002B     		cmp	r3, #0
 2577 0046 01D1     		bne	.L140
 2578              	.L141:
1889:Drivers/STM32L4xx_HAL_Driver/Src/stm32l4xx_hal_dfsdm.c ****         {
1890:Drivers/STM32L4xx_HAL_Driver/Src/stm32l4xx_hal_dfsdm.c ****           /* Return timeout status */
1891:Drivers/STM32L4xx_HAL_Driver/Src/stm32l4xx_hal_dfsdm.c ****           return HAL_TIMEOUT;
 2579              		.loc 1 1891 18
 2580 0048 0323     		movs	r3, #3
 2581 004a 2BE0     		b	.L138
 2582              	.L140:
1883:Drivers/STM32L4xx_HAL_Driver/Src/stm32l4xx_hal_dfsdm.c ****     {
 2583              		.loc 1 1883 26
 2584 004c 7B68     		ldr	r3, [r7, #4]
 2585 004e 1B68     		ldr	r3, [r3]
1883:Drivers/STM32L4xx_HAL_Driver/Src/stm32l4xx_hal_dfsdm.c ****     {
 2586              		.loc 1 1883 36
 2587 0050 9B68     		ldr	r3, [r3, #8]
1883:Drivers/STM32L4xx_HAL_Driver/Src/stm32l4xx_hal_dfsdm.c ****     {
 2588              		.loc 1 1883 45
 2589 0052 03F00203 		and	r3, r3, #2
1883:Drivers/STM32L4xx_HAL_Driver/Src/stm32l4xx_hal_dfsdm.c ****     {
 2590              		.loc 1 1883 67
 2591 0056 022B     		cmp	r3, #2
 2592 0058 E7D1     		bne	.L142
1892:Drivers/STM32L4xx_HAL_Driver/Src/stm32l4xx_hal_dfsdm.c ****         }
1893:Drivers/STM32L4xx_HAL_Driver/Src/stm32l4xx_hal_dfsdm.c ****       }
1894:Drivers/STM32L4xx_HAL_Driver/Src/stm32l4xx_hal_dfsdm.c ****     }
1895:Drivers/STM32L4xx_HAL_Driver/Src/stm32l4xx_hal_dfsdm.c ****     /* Check if overrun occurs */
1896:Drivers/STM32L4xx_HAL_Driver/Src/stm32l4xx_hal_dfsdm.c ****     if ((hdfsdm_filter->Instance->FLTISR & DFSDM_FLTISR_ROVRF) == DFSDM_FLTISR_ROVRF)
 2593              		.loc 1 1896 23
 2594 005a 7B68     		ldr	r3, [r7, #4]
 2595 005c 1B68     		ldr	r3, [r3]
 2596              		.loc 1 1896 33
 2597 005e 9B68     		ldr	r3, [r3, #8]
 2598              		.loc 1 1896 42
 2599 0060 03F00803 		and	r3, r3, #8
 2600              		.loc 1 1896 8
 2601 0064 082B     		cmp	r3, #8
 2602 0066 09D1     		bne	.L143
1897:Drivers/STM32L4xx_HAL_Driver/Src/stm32l4xx_hal_dfsdm.c ****     {
1898:Drivers/STM32L4xx_HAL_Driver/Src/stm32l4xx_hal_dfsdm.c ****       /* Update error code and call error callback */
1899:Drivers/STM32L4xx_HAL_Driver/Src/stm32l4xx_hal_dfsdm.c ****       hdfsdm_filter->ErrorCode = DFSDM_FILTER_ERROR_REGULAR_OVERRUN;
 2603              		.loc 1 1899 32
 2604 0068 7B68     		ldr	r3, [r7, #4]
 2605 006a 0122     		movs	r2, #1
 2606 006c 1A65     		str	r2, [r3, #80]
1900:Drivers/STM32L4xx_HAL_Driver/Src/stm32l4xx_hal_dfsdm.c **** #if (USE_HAL_DFSDM_REGISTER_CALLBACKS == 1)
ARM GAS  /tmp/ccrDNuCE.s 			page 80


1901:Drivers/STM32L4xx_HAL_Driver/Src/stm32l4xx_hal_dfsdm.c ****       hdfsdm_filter->ErrorCallback(hdfsdm_filter);
1902:Drivers/STM32L4xx_HAL_Driver/Src/stm32l4xx_hal_dfsdm.c **** #else
1903:Drivers/STM32L4xx_HAL_Driver/Src/stm32l4xx_hal_dfsdm.c ****       HAL_DFSDM_FilterErrorCallback(hdfsdm_filter);
 2607              		.loc 1 1903 7
 2608 006e 7868     		ldr	r0, [r7, #4]
 2609 0070 FFF7FEFF 		bl	HAL_DFSDM_FilterErrorCallback
1904:Drivers/STM32L4xx_HAL_Driver/Src/stm32l4xx_hal_dfsdm.c **** #endif
1905:Drivers/STM32L4xx_HAL_Driver/Src/stm32l4xx_hal_dfsdm.c **** 
1906:Drivers/STM32L4xx_HAL_Driver/Src/stm32l4xx_hal_dfsdm.c ****       /* Clear regular overrun flag */
1907:Drivers/STM32L4xx_HAL_Driver/Src/stm32l4xx_hal_dfsdm.c ****       hdfsdm_filter->Instance->FLTICR = DFSDM_FLTICR_CLRROVRF;
 2610              		.loc 1 1907 20
 2611 0074 7B68     		ldr	r3, [r7, #4]
 2612 0076 1B68     		ldr	r3, [r3]
 2613              		.loc 1 1907 39
 2614 0078 0822     		movs	r2, #8
 2615 007a DA60     		str	r2, [r3, #12]
 2616              	.L143:
1908:Drivers/STM32L4xx_HAL_Driver/Src/stm32l4xx_hal_dfsdm.c ****     }
1909:Drivers/STM32L4xx_HAL_Driver/Src/stm32l4xx_hal_dfsdm.c ****     /* Update DFSDM filter state only if not continuous conversion and SW trigger */
1910:Drivers/STM32L4xx_HAL_Driver/Src/stm32l4xx_hal_dfsdm.c ****     if ((hdfsdm_filter->RegularContMode == DFSDM_CONTINUOUS_CONV_OFF) && \
 2617              		.loc 1 1910 23
 2618 007c 7B68     		ldr	r3, [r7, #4]
 2619 007e 1B6B     		ldr	r3, [r3, #48]
 2620              		.loc 1 1910 8
 2621 0080 002B     		cmp	r3, #0
 2622 0082 0ED1     		bne	.L144
1911:Drivers/STM32L4xx_HAL_Driver/Src/stm32l4xx_hal_dfsdm.c ****         (hdfsdm_filter->RegularTrigger == DFSDM_FILTER_SW_TRIGGER))
 2623              		.loc 1 1911 23
 2624 0084 7B68     		ldr	r3, [r7, #4]
 2625 0086 5B6B     		ldr	r3, [r3, #52]
1910:Drivers/STM32L4xx_HAL_Driver/Src/stm32l4xx_hal_dfsdm.c ****         (hdfsdm_filter->RegularTrigger == DFSDM_FILTER_SW_TRIGGER))
 2626              		.loc 1 1910 71 discriminator 1
 2627 0088 002B     		cmp	r3, #0
 2628 008a 0AD1     		bne	.L144
1912:Drivers/STM32L4xx_HAL_Driver/Src/stm32l4xx_hal_dfsdm.c ****     {
1913:Drivers/STM32L4xx_HAL_Driver/Src/stm32l4xx_hal_dfsdm.c ****       hdfsdm_filter->State = (hdfsdm_filter->State == HAL_DFSDM_FILTER_STATE_REG) ? \
 2629              		.loc 1 1913 44
 2630 008c 7B68     		ldr	r3, [r7, #4]
 2631 008e 93F84C30 		ldrb	r3, [r3, #76]	@ zero_extendqisi2
1914:Drivers/STM32L4xx_HAL_Driver/Src/stm32l4xx_hal_dfsdm.c ****                              HAL_DFSDM_FILTER_STATE_READY : HAL_DFSDM_FILTER_STATE_INJ;
 2632              		.loc 1 1914 59
 2633 0092 022B     		cmp	r3, #2
 2634 0094 01D1     		bne	.L145
 2635              		.loc 1 1914 59 is_stmt 0 discriminator 1
 2636 0096 0122     		movs	r2, #1
 2637 0098 00E0     		b	.L146
 2638              	.L145:
 2639              		.loc 1 1914 59 discriminator 2
 2640 009a 0322     		movs	r2, #3
 2641              	.L146:
1913:Drivers/STM32L4xx_HAL_Driver/Src/stm32l4xx_hal_dfsdm.c ****                              HAL_DFSDM_FILTER_STATE_READY : HAL_DFSDM_FILTER_STATE_INJ;
 2642              		.loc 1 1913 28 is_stmt 1
 2643 009c 7B68     		ldr	r3, [r7, #4]
 2644 009e 83F84C20 		strb	r2, [r3, #76]
 2645              	.L144:
1915:Drivers/STM32L4xx_HAL_Driver/Src/stm32l4xx_hal_dfsdm.c ****     }
1916:Drivers/STM32L4xx_HAL_Driver/Src/stm32l4xx_hal_dfsdm.c ****     /* Return function status */
ARM GAS  /tmp/ccrDNuCE.s 			page 81


1917:Drivers/STM32L4xx_HAL_Driver/Src/stm32l4xx_hal_dfsdm.c ****     return HAL_OK;
 2646              		.loc 1 1917 12
 2647 00a2 0023     		movs	r3, #0
 2648              	.L138:
1918:Drivers/STM32L4xx_HAL_Driver/Src/stm32l4xx_hal_dfsdm.c ****   }
1919:Drivers/STM32L4xx_HAL_Driver/Src/stm32l4xx_hal_dfsdm.c **** }
 2649              		.loc 1 1919 1
 2650 00a4 1846     		mov	r0, r3
 2651 00a6 1037     		adds	r7, r7, #16
 2652              		.cfi_def_cfa_offset 8
 2653 00a8 BD46     		mov	sp, r7
 2654              		.cfi_def_cfa_register 13
 2655              		@ sp needed
 2656 00aa 80BD     		pop	{r7, pc}
 2657              		.cfi_endproc
 2658              	.LFE471:
 2660              		.section	.text.HAL_DFSDM_FilterRegularStop,"ax",%progbits
 2661              		.align	1
 2662              		.global	HAL_DFSDM_FilterRegularStop
 2663              		.syntax unified
 2664              		.thumb
 2665              		.thumb_func
 2667              	HAL_DFSDM_FilterRegularStop:
 2668              	.LFB472:
1920:Drivers/STM32L4xx_HAL_Driver/Src/stm32l4xx_hal_dfsdm.c **** 
1921:Drivers/STM32L4xx_HAL_Driver/Src/stm32l4xx_hal_dfsdm.c **** /**
1922:Drivers/STM32L4xx_HAL_Driver/Src/stm32l4xx_hal_dfsdm.c ****   * @brief  This function allows to stop regular conversion in polling mode.
1923:Drivers/STM32L4xx_HAL_Driver/Src/stm32l4xx_hal_dfsdm.c ****   * @note   This function should be called only if regular conversion is ongoing.
1924:Drivers/STM32L4xx_HAL_Driver/Src/stm32l4xx_hal_dfsdm.c ****   * @param  hdfsdm_filter DFSDM filter handle.
1925:Drivers/STM32L4xx_HAL_Driver/Src/stm32l4xx_hal_dfsdm.c ****   * @retval HAL status
1926:Drivers/STM32L4xx_HAL_Driver/Src/stm32l4xx_hal_dfsdm.c ****   */
1927:Drivers/STM32L4xx_HAL_Driver/Src/stm32l4xx_hal_dfsdm.c **** HAL_StatusTypeDef HAL_DFSDM_FilterRegularStop(DFSDM_Filter_HandleTypeDef *hdfsdm_filter)
1928:Drivers/STM32L4xx_HAL_Driver/Src/stm32l4xx_hal_dfsdm.c **** {
 2669              		.loc 1 1928 1
 2670              		.cfi_startproc
 2671              		@ args = 0, pretend = 0, frame = 16
 2672              		@ frame_needed = 1, uses_anonymous_args = 0
 2673 0000 80B5     		push	{r7, lr}
 2674              		.cfi_def_cfa_offset 8
 2675              		.cfi_offset 7, -8
 2676              		.cfi_offset 14, -4
 2677 0002 84B0     		sub	sp, sp, #16
 2678              		.cfi_def_cfa_offset 24
 2679 0004 00AF     		add	r7, sp, #0
 2680              		.cfi_def_cfa_register 7
 2681 0006 7860     		str	r0, [r7, #4]
1929:Drivers/STM32L4xx_HAL_Driver/Src/stm32l4xx_hal_dfsdm.c ****   HAL_StatusTypeDef status = HAL_OK;
 2682              		.loc 1 1929 21
 2683 0008 0023     		movs	r3, #0
 2684 000a FB73     		strb	r3, [r7, #15]
1930:Drivers/STM32L4xx_HAL_Driver/Src/stm32l4xx_hal_dfsdm.c **** 
1931:Drivers/STM32L4xx_HAL_Driver/Src/stm32l4xx_hal_dfsdm.c ****   /* Check parameters */
1932:Drivers/STM32L4xx_HAL_Driver/Src/stm32l4xx_hal_dfsdm.c ****   assert_param(IS_DFSDM_FILTER_ALL_INSTANCE(hdfsdm_filter->Instance));
1933:Drivers/STM32L4xx_HAL_Driver/Src/stm32l4xx_hal_dfsdm.c **** 
1934:Drivers/STM32L4xx_HAL_Driver/Src/stm32l4xx_hal_dfsdm.c ****   /* Check DFSDM filter state */
1935:Drivers/STM32L4xx_HAL_Driver/Src/stm32l4xx_hal_dfsdm.c ****   if ((hdfsdm_filter->State != HAL_DFSDM_FILTER_STATE_REG) && \
 2685              		.loc 1 1935 21
ARM GAS  /tmp/ccrDNuCE.s 			page 82


 2686 000c 7B68     		ldr	r3, [r7, #4]
 2687 000e 93F84C30 		ldrb	r3, [r3, #76]	@ zero_extendqisi2
 2688              		.loc 1 1935 6
 2689 0012 022B     		cmp	r3, #2
 2690 0014 07D0     		beq	.L148
1936:Drivers/STM32L4xx_HAL_Driver/Src/stm32l4xx_hal_dfsdm.c ****       (hdfsdm_filter->State != HAL_DFSDM_FILTER_STATE_REG_INJ))
 2691              		.loc 1 1936 21
 2692 0016 7B68     		ldr	r3, [r7, #4]
 2693 0018 93F84C30 		ldrb	r3, [r3, #76]	@ zero_extendqisi2
1935:Drivers/STM32L4xx_HAL_Driver/Src/stm32l4xx_hal_dfsdm.c ****       (hdfsdm_filter->State != HAL_DFSDM_FILTER_STATE_REG_INJ))
 2694              		.loc 1 1935 60 discriminator 1
 2695 001c 042B     		cmp	r3, #4
 2696 001e 02D0     		beq	.L148
1937:Drivers/STM32L4xx_HAL_Driver/Src/stm32l4xx_hal_dfsdm.c ****   {
1938:Drivers/STM32L4xx_HAL_Driver/Src/stm32l4xx_hal_dfsdm.c ****     /* Return error status */
1939:Drivers/STM32L4xx_HAL_Driver/Src/stm32l4xx_hal_dfsdm.c ****     status = HAL_ERROR;
 2697              		.loc 1 1939 12
 2698 0020 0123     		movs	r3, #1
 2699 0022 FB73     		strb	r3, [r7, #15]
 2700 0024 02E0     		b	.L149
 2701              	.L148:
1940:Drivers/STM32L4xx_HAL_Driver/Src/stm32l4xx_hal_dfsdm.c ****   }
1941:Drivers/STM32L4xx_HAL_Driver/Src/stm32l4xx_hal_dfsdm.c ****   else
1942:Drivers/STM32L4xx_HAL_Driver/Src/stm32l4xx_hal_dfsdm.c ****   {
1943:Drivers/STM32L4xx_HAL_Driver/Src/stm32l4xx_hal_dfsdm.c ****     /* Stop regular conversion */
1944:Drivers/STM32L4xx_HAL_Driver/Src/stm32l4xx_hal_dfsdm.c ****     DFSDM_RegConvStop(hdfsdm_filter);
 2702              		.loc 1 1944 5
 2703 0026 7868     		ldr	r0, [r7, #4]
 2704 0028 FFF7FEFF 		bl	DFSDM_RegConvStop
 2705              	.L149:
1945:Drivers/STM32L4xx_HAL_Driver/Src/stm32l4xx_hal_dfsdm.c ****   }
1946:Drivers/STM32L4xx_HAL_Driver/Src/stm32l4xx_hal_dfsdm.c ****   /* Return function status */
1947:Drivers/STM32L4xx_HAL_Driver/Src/stm32l4xx_hal_dfsdm.c ****   return status;
 2706              		.loc 1 1947 10
 2707 002c FB7B     		ldrb	r3, [r7, #15]	@ zero_extendqisi2
1948:Drivers/STM32L4xx_HAL_Driver/Src/stm32l4xx_hal_dfsdm.c **** }
 2708              		.loc 1 1948 1
 2709 002e 1846     		mov	r0, r3
 2710 0030 1037     		adds	r7, r7, #16
 2711              		.cfi_def_cfa_offset 8
 2712 0032 BD46     		mov	sp, r7
 2713              		.cfi_def_cfa_register 13
 2714              		@ sp needed
 2715 0034 80BD     		pop	{r7, pc}
 2716              		.cfi_endproc
 2717              	.LFE472:
 2719              		.section	.text.HAL_DFSDM_FilterRegularStart_IT,"ax",%progbits
 2720              		.align	1
 2721              		.global	HAL_DFSDM_FilterRegularStart_IT
 2722              		.syntax unified
 2723              		.thumb
 2724              		.thumb_func
 2726              	HAL_DFSDM_FilterRegularStart_IT:
 2727              	.LFB473:
1949:Drivers/STM32L4xx_HAL_Driver/Src/stm32l4xx_hal_dfsdm.c **** 
1950:Drivers/STM32L4xx_HAL_Driver/Src/stm32l4xx_hal_dfsdm.c **** /**
1951:Drivers/STM32L4xx_HAL_Driver/Src/stm32l4xx_hal_dfsdm.c ****   * @brief  This function allows to start regular conversion in interrupt mode.
ARM GAS  /tmp/ccrDNuCE.s 			page 83


1952:Drivers/STM32L4xx_HAL_Driver/Src/stm32l4xx_hal_dfsdm.c ****   * @note   This function should be called only when DFSDM filter instance is
1953:Drivers/STM32L4xx_HAL_Driver/Src/stm32l4xx_hal_dfsdm.c ****   *         in idle state or if injected conversion is ongoing.
1954:Drivers/STM32L4xx_HAL_Driver/Src/stm32l4xx_hal_dfsdm.c ****   * @param  hdfsdm_filter DFSDM filter handle.
1955:Drivers/STM32L4xx_HAL_Driver/Src/stm32l4xx_hal_dfsdm.c ****   * @retval HAL status
1956:Drivers/STM32L4xx_HAL_Driver/Src/stm32l4xx_hal_dfsdm.c ****   */
1957:Drivers/STM32L4xx_HAL_Driver/Src/stm32l4xx_hal_dfsdm.c **** HAL_StatusTypeDef HAL_DFSDM_FilterRegularStart_IT(DFSDM_Filter_HandleTypeDef *hdfsdm_filter)
1958:Drivers/STM32L4xx_HAL_Driver/Src/stm32l4xx_hal_dfsdm.c **** {
 2728              		.loc 1 1958 1
 2729              		.cfi_startproc
 2730              		@ args = 0, pretend = 0, frame = 16
 2731              		@ frame_needed = 1, uses_anonymous_args = 0
 2732 0000 80B5     		push	{r7, lr}
 2733              		.cfi_def_cfa_offset 8
 2734              		.cfi_offset 7, -8
 2735              		.cfi_offset 14, -4
 2736 0002 84B0     		sub	sp, sp, #16
 2737              		.cfi_def_cfa_offset 24
 2738 0004 00AF     		add	r7, sp, #0
 2739              		.cfi_def_cfa_register 7
 2740 0006 7860     		str	r0, [r7, #4]
1959:Drivers/STM32L4xx_HAL_Driver/Src/stm32l4xx_hal_dfsdm.c ****   HAL_StatusTypeDef status = HAL_OK;
 2741              		.loc 1 1959 21
 2742 0008 0023     		movs	r3, #0
 2743 000a FB73     		strb	r3, [r7, #15]
1960:Drivers/STM32L4xx_HAL_Driver/Src/stm32l4xx_hal_dfsdm.c **** 
1961:Drivers/STM32L4xx_HAL_Driver/Src/stm32l4xx_hal_dfsdm.c ****   /* Check parameters */
1962:Drivers/STM32L4xx_HAL_Driver/Src/stm32l4xx_hal_dfsdm.c ****   assert_param(IS_DFSDM_FILTER_ALL_INSTANCE(hdfsdm_filter->Instance));
1963:Drivers/STM32L4xx_HAL_Driver/Src/stm32l4xx_hal_dfsdm.c **** 
1964:Drivers/STM32L4xx_HAL_Driver/Src/stm32l4xx_hal_dfsdm.c ****   /* Check DFSDM filter state */
1965:Drivers/STM32L4xx_HAL_Driver/Src/stm32l4xx_hal_dfsdm.c ****   if ((hdfsdm_filter->State == HAL_DFSDM_FILTER_STATE_READY) || \
 2744              		.loc 1 1965 21
 2745 000c 7B68     		ldr	r3, [r7, #4]
 2746 000e 93F84C30 		ldrb	r3, [r3, #76]	@ zero_extendqisi2
 2747              		.loc 1 1965 6
 2748 0012 012B     		cmp	r3, #1
 2749 0014 04D0     		beq	.L152
1966:Drivers/STM32L4xx_HAL_Driver/Src/stm32l4xx_hal_dfsdm.c ****       (hdfsdm_filter->State == HAL_DFSDM_FILTER_STATE_INJ))
 2750              		.loc 1 1966 21
 2751 0016 7B68     		ldr	r3, [r7, #4]
 2752 0018 93F84C30 		ldrb	r3, [r3, #76]	@ zero_extendqisi2
1965:Drivers/STM32L4xx_HAL_Driver/Src/stm32l4xx_hal_dfsdm.c ****       (hdfsdm_filter->State == HAL_DFSDM_FILTER_STATE_INJ))
 2753              		.loc 1 1965 62 discriminator 1
 2754 001c 032B     		cmp	r3, #3
 2755 001e 0BD1     		bne	.L153
 2756              	.L152:
1967:Drivers/STM32L4xx_HAL_Driver/Src/stm32l4xx_hal_dfsdm.c ****   {
1968:Drivers/STM32L4xx_HAL_Driver/Src/stm32l4xx_hal_dfsdm.c ****     /* Enable interrupts for regular conversions */
1969:Drivers/STM32L4xx_HAL_Driver/Src/stm32l4xx_hal_dfsdm.c ****     hdfsdm_filter->Instance->FLTCR2 |= (DFSDM_FLTCR2_REOCIE | DFSDM_FLTCR2_ROVRIE);
 2757              		.loc 1 1969 18
 2758 0020 7B68     		ldr	r3, [r7, #4]
 2759 0022 1B68     		ldr	r3, [r3]
 2760              		.loc 1 1969 28
 2761 0024 5A68     		ldr	r2, [r3, #4]
 2762              		.loc 1 1969 18
 2763 0026 7B68     		ldr	r3, [r7, #4]
 2764 0028 1B68     		ldr	r3, [r3]
 2765              		.loc 1 1969 37
ARM GAS  /tmp/ccrDNuCE.s 			page 84


 2766 002a 42F00A02 		orr	r2, r2, #10
 2767 002e 5A60     		str	r2, [r3, #4]
1970:Drivers/STM32L4xx_HAL_Driver/Src/stm32l4xx_hal_dfsdm.c **** 
1971:Drivers/STM32L4xx_HAL_Driver/Src/stm32l4xx_hal_dfsdm.c ****     /* Start regular conversion */
1972:Drivers/STM32L4xx_HAL_Driver/Src/stm32l4xx_hal_dfsdm.c ****     DFSDM_RegConvStart(hdfsdm_filter);
 2768              		.loc 1 1972 5
 2769 0030 7868     		ldr	r0, [r7, #4]
 2770 0032 FFF7FEFF 		bl	DFSDM_RegConvStart
 2771 0036 01E0     		b	.L154
 2772              	.L153:
1973:Drivers/STM32L4xx_HAL_Driver/Src/stm32l4xx_hal_dfsdm.c ****   }
1974:Drivers/STM32L4xx_HAL_Driver/Src/stm32l4xx_hal_dfsdm.c ****   else
1975:Drivers/STM32L4xx_HAL_Driver/Src/stm32l4xx_hal_dfsdm.c ****   {
1976:Drivers/STM32L4xx_HAL_Driver/Src/stm32l4xx_hal_dfsdm.c ****     status = HAL_ERROR;
 2773              		.loc 1 1976 12
 2774 0038 0123     		movs	r3, #1
 2775 003a FB73     		strb	r3, [r7, #15]
 2776              	.L154:
1977:Drivers/STM32L4xx_HAL_Driver/Src/stm32l4xx_hal_dfsdm.c ****   }
1978:Drivers/STM32L4xx_HAL_Driver/Src/stm32l4xx_hal_dfsdm.c ****   /* Return function status */
1979:Drivers/STM32L4xx_HAL_Driver/Src/stm32l4xx_hal_dfsdm.c ****   return status;
 2777              		.loc 1 1979 10
 2778 003c FB7B     		ldrb	r3, [r7, #15]	@ zero_extendqisi2
1980:Drivers/STM32L4xx_HAL_Driver/Src/stm32l4xx_hal_dfsdm.c **** }
 2779              		.loc 1 1980 1
 2780 003e 1846     		mov	r0, r3
 2781 0040 1037     		adds	r7, r7, #16
 2782              		.cfi_def_cfa_offset 8
 2783 0042 BD46     		mov	sp, r7
 2784              		.cfi_def_cfa_register 13
 2785              		@ sp needed
 2786 0044 80BD     		pop	{r7, pc}
 2787              		.cfi_endproc
 2788              	.LFE473:
 2790              		.section	.text.HAL_DFSDM_FilterRegularStop_IT,"ax",%progbits
 2791              		.align	1
 2792              		.global	HAL_DFSDM_FilterRegularStop_IT
 2793              		.syntax unified
 2794              		.thumb
 2795              		.thumb_func
 2797              	HAL_DFSDM_FilterRegularStop_IT:
 2798              	.LFB474:
1981:Drivers/STM32L4xx_HAL_Driver/Src/stm32l4xx_hal_dfsdm.c **** 
1982:Drivers/STM32L4xx_HAL_Driver/Src/stm32l4xx_hal_dfsdm.c **** /**
1983:Drivers/STM32L4xx_HAL_Driver/Src/stm32l4xx_hal_dfsdm.c ****   * @brief  This function allows to stop regular conversion in interrupt mode.
1984:Drivers/STM32L4xx_HAL_Driver/Src/stm32l4xx_hal_dfsdm.c ****   * @note   This function should be called only if regular conversion is ongoing.
1985:Drivers/STM32L4xx_HAL_Driver/Src/stm32l4xx_hal_dfsdm.c ****   * @param  hdfsdm_filter DFSDM filter handle.
1986:Drivers/STM32L4xx_HAL_Driver/Src/stm32l4xx_hal_dfsdm.c ****   * @retval HAL status
1987:Drivers/STM32L4xx_HAL_Driver/Src/stm32l4xx_hal_dfsdm.c ****   */
1988:Drivers/STM32L4xx_HAL_Driver/Src/stm32l4xx_hal_dfsdm.c **** HAL_StatusTypeDef HAL_DFSDM_FilterRegularStop_IT(DFSDM_Filter_HandleTypeDef *hdfsdm_filter)
1989:Drivers/STM32L4xx_HAL_Driver/Src/stm32l4xx_hal_dfsdm.c **** {
 2799              		.loc 1 1989 1
 2800              		.cfi_startproc
 2801              		@ args = 0, pretend = 0, frame = 16
 2802              		@ frame_needed = 1, uses_anonymous_args = 0
 2803 0000 80B5     		push	{r7, lr}
 2804              		.cfi_def_cfa_offset 8
ARM GAS  /tmp/ccrDNuCE.s 			page 85


 2805              		.cfi_offset 7, -8
 2806              		.cfi_offset 14, -4
 2807 0002 84B0     		sub	sp, sp, #16
 2808              		.cfi_def_cfa_offset 24
 2809 0004 00AF     		add	r7, sp, #0
 2810              		.cfi_def_cfa_register 7
 2811 0006 7860     		str	r0, [r7, #4]
1990:Drivers/STM32L4xx_HAL_Driver/Src/stm32l4xx_hal_dfsdm.c ****   HAL_StatusTypeDef status = HAL_OK;
 2812              		.loc 1 1990 21
 2813 0008 0023     		movs	r3, #0
 2814 000a FB73     		strb	r3, [r7, #15]
1991:Drivers/STM32L4xx_HAL_Driver/Src/stm32l4xx_hal_dfsdm.c **** 
1992:Drivers/STM32L4xx_HAL_Driver/Src/stm32l4xx_hal_dfsdm.c ****   /* Check parameters */
1993:Drivers/STM32L4xx_HAL_Driver/Src/stm32l4xx_hal_dfsdm.c ****   assert_param(IS_DFSDM_FILTER_ALL_INSTANCE(hdfsdm_filter->Instance));
1994:Drivers/STM32L4xx_HAL_Driver/Src/stm32l4xx_hal_dfsdm.c **** 
1995:Drivers/STM32L4xx_HAL_Driver/Src/stm32l4xx_hal_dfsdm.c ****   /* Check DFSDM filter state */
1996:Drivers/STM32L4xx_HAL_Driver/Src/stm32l4xx_hal_dfsdm.c ****   if ((hdfsdm_filter->State != HAL_DFSDM_FILTER_STATE_REG) && \
 2815              		.loc 1 1996 21
 2816 000c 7B68     		ldr	r3, [r7, #4]
 2817 000e 93F84C30 		ldrb	r3, [r3, #76]	@ zero_extendqisi2
 2818              		.loc 1 1996 6
 2819 0012 022B     		cmp	r3, #2
 2820 0014 07D0     		beq	.L157
1997:Drivers/STM32L4xx_HAL_Driver/Src/stm32l4xx_hal_dfsdm.c ****       (hdfsdm_filter->State != HAL_DFSDM_FILTER_STATE_REG_INJ))
 2821              		.loc 1 1997 21
 2822 0016 7B68     		ldr	r3, [r7, #4]
 2823 0018 93F84C30 		ldrb	r3, [r3, #76]	@ zero_extendqisi2
1996:Drivers/STM32L4xx_HAL_Driver/Src/stm32l4xx_hal_dfsdm.c ****       (hdfsdm_filter->State != HAL_DFSDM_FILTER_STATE_REG_INJ))
 2824              		.loc 1 1996 60 discriminator 1
 2825 001c 042B     		cmp	r3, #4
 2826 001e 02D0     		beq	.L157
1998:Drivers/STM32L4xx_HAL_Driver/Src/stm32l4xx_hal_dfsdm.c ****   {
1999:Drivers/STM32L4xx_HAL_Driver/Src/stm32l4xx_hal_dfsdm.c ****     /* Return error status */
2000:Drivers/STM32L4xx_HAL_Driver/Src/stm32l4xx_hal_dfsdm.c ****     status = HAL_ERROR;
 2827              		.loc 1 2000 12
 2828 0020 0123     		movs	r3, #1
 2829 0022 FB73     		strb	r3, [r7, #15]
 2830 0024 0AE0     		b	.L158
 2831              	.L157:
2001:Drivers/STM32L4xx_HAL_Driver/Src/stm32l4xx_hal_dfsdm.c ****   }
2002:Drivers/STM32L4xx_HAL_Driver/Src/stm32l4xx_hal_dfsdm.c ****   else
2003:Drivers/STM32L4xx_HAL_Driver/Src/stm32l4xx_hal_dfsdm.c ****   {
2004:Drivers/STM32L4xx_HAL_Driver/Src/stm32l4xx_hal_dfsdm.c ****     /* Disable interrupts for regular conversions */
2005:Drivers/STM32L4xx_HAL_Driver/Src/stm32l4xx_hal_dfsdm.c ****     hdfsdm_filter->Instance->FLTCR2 &= ~(DFSDM_FLTCR2_REOCIE | DFSDM_FLTCR2_ROVRIE);
 2832              		.loc 1 2005 18
 2833 0026 7B68     		ldr	r3, [r7, #4]
 2834 0028 1B68     		ldr	r3, [r3]
 2835              		.loc 1 2005 28
 2836 002a 5A68     		ldr	r2, [r3, #4]
 2837              		.loc 1 2005 18
 2838 002c 7B68     		ldr	r3, [r7, #4]
 2839 002e 1B68     		ldr	r3, [r3]
 2840              		.loc 1 2005 37
 2841 0030 22F00A02 		bic	r2, r2, #10
 2842 0034 5A60     		str	r2, [r3, #4]
2006:Drivers/STM32L4xx_HAL_Driver/Src/stm32l4xx_hal_dfsdm.c **** 
2007:Drivers/STM32L4xx_HAL_Driver/Src/stm32l4xx_hal_dfsdm.c ****     /* Stop regular conversion */
ARM GAS  /tmp/ccrDNuCE.s 			page 86


2008:Drivers/STM32L4xx_HAL_Driver/Src/stm32l4xx_hal_dfsdm.c ****     DFSDM_RegConvStop(hdfsdm_filter);
 2843              		.loc 1 2008 5
 2844 0036 7868     		ldr	r0, [r7, #4]
 2845 0038 FFF7FEFF 		bl	DFSDM_RegConvStop
 2846              	.L158:
2009:Drivers/STM32L4xx_HAL_Driver/Src/stm32l4xx_hal_dfsdm.c ****   }
2010:Drivers/STM32L4xx_HAL_Driver/Src/stm32l4xx_hal_dfsdm.c ****   /* Return function status */
2011:Drivers/STM32L4xx_HAL_Driver/Src/stm32l4xx_hal_dfsdm.c ****   return status;
 2847              		.loc 1 2011 10
 2848 003c FB7B     		ldrb	r3, [r7, #15]	@ zero_extendqisi2
2012:Drivers/STM32L4xx_HAL_Driver/Src/stm32l4xx_hal_dfsdm.c **** }
 2849              		.loc 1 2012 1
 2850 003e 1846     		mov	r0, r3
 2851 0040 1037     		adds	r7, r7, #16
 2852              		.cfi_def_cfa_offset 8
 2853 0042 BD46     		mov	sp, r7
 2854              		.cfi_def_cfa_register 13
 2855              		@ sp needed
 2856 0044 80BD     		pop	{r7, pc}
 2857              		.cfi_endproc
 2858              	.LFE474:
 2860              		.section	.text.HAL_DFSDM_FilterRegularStart_DMA,"ax",%progbits
 2861              		.align	1
 2862              		.global	HAL_DFSDM_FilterRegularStart_DMA
 2863              		.syntax unified
 2864              		.thumb
 2865              		.thumb_func
 2867              	HAL_DFSDM_FilterRegularStart_DMA:
 2868              	.LFB475:
2013:Drivers/STM32L4xx_HAL_Driver/Src/stm32l4xx_hal_dfsdm.c **** 
2014:Drivers/STM32L4xx_HAL_Driver/Src/stm32l4xx_hal_dfsdm.c **** /**
2015:Drivers/STM32L4xx_HAL_Driver/Src/stm32l4xx_hal_dfsdm.c ****   * @brief  This function allows to start regular conversion in DMA mode.
2016:Drivers/STM32L4xx_HAL_Driver/Src/stm32l4xx_hal_dfsdm.c ****   * @note   This function should be called only when DFSDM filter instance is
2017:Drivers/STM32L4xx_HAL_Driver/Src/stm32l4xx_hal_dfsdm.c ****   *         in idle state or if injected conversion is ongoing.
2018:Drivers/STM32L4xx_HAL_Driver/Src/stm32l4xx_hal_dfsdm.c ****   *         Please note that data on buffer will contain signed regular conversion
2019:Drivers/STM32L4xx_HAL_Driver/Src/stm32l4xx_hal_dfsdm.c ****   *         value on 24 most significant bits and corresponding channel on 3 least
2020:Drivers/STM32L4xx_HAL_Driver/Src/stm32l4xx_hal_dfsdm.c ****   *         significant bits.
2021:Drivers/STM32L4xx_HAL_Driver/Src/stm32l4xx_hal_dfsdm.c ****   * @param  hdfsdm_filter DFSDM filter handle.
2022:Drivers/STM32L4xx_HAL_Driver/Src/stm32l4xx_hal_dfsdm.c ****   * @param  pData The destination buffer address.
2023:Drivers/STM32L4xx_HAL_Driver/Src/stm32l4xx_hal_dfsdm.c ****   * @param  Length The length of data to be transferred from DFSDM filter to memory.
2024:Drivers/STM32L4xx_HAL_Driver/Src/stm32l4xx_hal_dfsdm.c ****   * @retval HAL status
2025:Drivers/STM32L4xx_HAL_Driver/Src/stm32l4xx_hal_dfsdm.c ****   */
2026:Drivers/STM32L4xx_HAL_Driver/Src/stm32l4xx_hal_dfsdm.c **** HAL_StatusTypeDef HAL_DFSDM_FilterRegularStart_DMA(DFSDM_Filter_HandleTypeDef *hdfsdm_filter,
2027:Drivers/STM32L4xx_HAL_Driver/Src/stm32l4xx_hal_dfsdm.c ****                                                    int32_t                    *pData,
2028:Drivers/STM32L4xx_HAL_Driver/Src/stm32l4xx_hal_dfsdm.c ****                                                    uint32_t                    Length)
2029:Drivers/STM32L4xx_HAL_Driver/Src/stm32l4xx_hal_dfsdm.c **** {
 2869              		.loc 1 2029 1
 2870              		.cfi_startproc
 2871              		@ args = 0, pretend = 0, frame = 24
 2872              		@ frame_needed = 1, uses_anonymous_args = 0
 2873 0000 80B5     		push	{r7, lr}
 2874              		.cfi_def_cfa_offset 8
 2875              		.cfi_offset 7, -8
 2876              		.cfi_offset 14, -4
 2877 0002 86B0     		sub	sp, sp, #24
 2878              		.cfi_def_cfa_offset 32
 2879 0004 00AF     		add	r7, sp, #0
ARM GAS  /tmp/ccrDNuCE.s 			page 87


 2880              		.cfi_def_cfa_register 7
 2881 0006 F860     		str	r0, [r7, #12]
 2882 0008 B960     		str	r1, [r7, #8]
 2883 000a 7A60     		str	r2, [r7, #4]
2030:Drivers/STM32L4xx_HAL_Driver/Src/stm32l4xx_hal_dfsdm.c ****   HAL_StatusTypeDef status = HAL_OK;
 2884              		.loc 1 2030 21
 2885 000c 0023     		movs	r3, #0
 2886 000e FB75     		strb	r3, [r7, #23]
2031:Drivers/STM32L4xx_HAL_Driver/Src/stm32l4xx_hal_dfsdm.c **** 
2032:Drivers/STM32L4xx_HAL_Driver/Src/stm32l4xx_hal_dfsdm.c ****   /* Check parameters */
2033:Drivers/STM32L4xx_HAL_Driver/Src/stm32l4xx_hal_dfsdm.c ****   assert_param(IS_DFSDM_FILTER_ALL_INSTANCE(hdfsdm_filter->Instance));
2034:Drivers/STM32L4xx_HAL_Driver/Src/stm32l4xx_hal_dfsdm.c **** 
2035:Drivers/STM32L4xx_HAL_Driver/Src/stm32l4xx_hal_dfsdm.c ****   /* Check destination address and length */
2036:Drivers/STM32L4xx_HAL_Driver/Src/stm32l4xx_hal_dfsdm.c ****   if ((pData == NULL) || (Length == 0U))
 2887              		.loc 1 2036 6
 2888 0010 BB68     		ldr	r3, [r7, #8]
 2889 0012 002B     		cmp	r3, #0
 2890 0014 02D0     		beq	.L161
 2891              		.loc 1 2036 23 discriminator 1
 2892 0016 7B68     		ldr	r3, [r7, #4]
 2893 0018 002B     		cmp	r3, #0
 2894 001a 02D1     		bne	.L162
 2895              	.L161:
2037:Drivers/STM32L4xx_HAL_Driver/Src/stm32l4xx_hal_dfsdm.c ****   {
2038:Drivers/STM32L4xx_HAL_Driver/Src/stm32l4xx_hal_dfsdm.c ****     status = HAL_ERROR;
 2896              		.loc 1 2038 12
 2897 001c 0123     		movs	r3, #1
 2898 001e FB75     		strb	r3, [r7, #23]
 2899 0020 64E0     		b	.L163
 2900              	.L162:
2039:Drivers/STM32L4xx_HAL_Driver/Src/stm32l4xx_hal_dfsdm.c ****   }
2040:Drivers/STM32L4xx_HAL_Driver/Src/stm32l4xx_hal_dfsdm.c ****   /* Check that DMA is enabled for regular conversion */
2041:Drivers/STM32L4xx_HAL_Driver/Src/stm32l4xx_hal_dfsdm.c ****   else if ((hdfsdm_filter->Instance->FLTCR1 & DFSDM_FLTCR1_RDMAEN) != DFSDM_FLTCR1_RDMAEN)
 2901              		.loc 1 2041 26
 2902 0022 FB68     		ldr	r3, [r7, #12]
 2903 0024 1B68     		ldr	r3, [r3]
 2904              		.loc 1 2041 36
 2905 0026 1B68     		ldr	r3, [r3]
 2906              		.loc 1 2041 45
 2907 0028 03F40013 		and	r3, r3, #2097152
 2908              		.loc 1 2041 11
 2909 002c B3F5001F 		cmp	r3, #2097152
 2910 0030 02D0     		beq	.L164
2042:Drivers/STM32L4xx_HAL_Driver/Src/stm32l4xx_hal_dfsdm.c ****   {
2043:Drivers/STM32L4xx_HAL_Driver/Src/stm32l4xx_hal_dfsdm.c ****     status = HAL_ERROR;
 2911              		.loc 1 2043 12
 2912 0032 0123     		movs	r3, #1
 2913 0034 FB75     		strb	r3, [r7, #23]
 2914 0036 59E0     		b	.L163
 2915              	.L164:
2044:Drivers/STM32L4xx_HAL_Driver/Src/stm32l4xx_hal_dfsdm.c ****   }
2045:Drivers/STM32L4xx_HAL_Driver/Src/stm32l4xx_hal_dfsdm.c ****   /* Check parameters compatibility */
2046:Drivers/STM32L4xx_HAL_Driver/Src/stm32l4xx_hal_dfsdm.c ****   else if ((hdfsdm_filter->RegularTrigger == DFSDM_FILTER_SW_TRIGGER) && \
 2916              		.loc 1 2046 26
 2917 0038 FB68     		ldr	r3, [r7, #12]
 2918 003a 5B6B     		ldr	r3, [r3, #52]
 2919              		.loc 1 2046 11
ARM GAS  /tmp/ccrDNuCE.s 			page 88


 2920 003c 002B     		cmp	r3, #0
 2921 003e 0ED1     		bne	.L165
2047:Drivers/STM32L4xx_HAL_Driver/Src/stm32l4xx_hal_dfsdm.c ****            (hdfsdm_filter->RegularContMode == DFSDM_CONTINUOUS_CONV_OFF) && \
 2922              		.loc 1 2047 26
 2923 0040 FB68     		ldr	r3, [r7, #12]
 2924 0042 1B6B     		ldr	r3, [r3, #48]
2046:Drivers/STM32L4xx_HAL_Driver/Src/stm32l4xx_hal_dfsdm.c ****            (hdfsdm_filter->RegularContMode == DFSDM_CONTINUOUS_CONV_OFF) && \
 2925              		.loc 1 2046 71 discriminator 1
 2926 0044 002B     		cmp	r3, #0
 2927 0046 0AD1     		bne	.L165
2048:Drivers/STM32L4xx_HAL_Driver/Src/stm32l4xx_hal_dfsdm.c ****            (hdfsdm_filter->hdmaReg->Init.Mode == DMA_NORMAL) && \
 2928              		.loc 1 2048 26
 2929 0048 FB68     		ldr	r3, [r7, #12]
 2930 004a 9B6A     		ldr	r3, [r3, #40]
 2931              		.loc 1 2048 41
 2932 004c DB69     		ldr	r3, [r3, #28]
2047:Drivers/STM32L4xx_HAL_Driver/Src/stm32l4xx_hal_dfsdm.c ****            (hdfsdm_filter->RegularContMode == DFSDM_CONTINUOUS_CONV_OFF) && \
 2933              		.loc 1 2047 74
 2934 004e 002B     		cmp	r3, #0
 2935 0050 05D1     		bne	.L165
 2936              		.loc 1 2048 62
 2937 0052 7B68     		ldr	r3, [r7, #4]
 2938 0054 012B     		cmp	r3, #1
 2939 0056 02D0     		beq	.L165
2049:Drivers/STM32L4xx_HAL_Driver/Src/stm32l4xx_hal_dfsdm.c ****            (Length != 1U))
2050:Drivers/STM32L4xx_HAL_Driver/Src/stm32l4xx_hal_dfsdm.c ****   {
2051:Drivers/STM32L4xx_HAL_Driver/Src/stm32l4xx_hal_dfsdm.c ****     status = HAL_ERROR;
 2940              		.loc 1 2051 12
 2941 0058 0123     		movs	r3, #1
 2942 005a FB75     		strb	r3, [r7, #23]
 2943 005c 46E0     		b	.L163
 2944              	.L165:
2052:Drivers/STM32L4xx_HAL_Driver/Src/stm32l4xx_hal_dfsdm.c ****   }
2053:Drivers/STM32L4xx_HAL_Driver/Src/stm32l4xx_hal_dfsdm.c ****   else if ((hdfsdm_filter->RegularTrigger == DFSDM_FILTER_SW_TRIGGER) && \
 2945              		.loc 1 2053 26
 2946 005e FB68     		ldr	r3, [r7, #12]
 2947 0060 5B6B     		ldr	r3, [r3, #52]
 2948              		.loc 1 2053 11
 2949 0062 002B     		cmp	r3, #0
 2950 0064 0BD1     		bne	.L166
2054:Drivers/STM32L4xx_HAL_Driver/Src/stm32l4xx_hal_dfsdm.c ****            (hdfsdm_filter->RegularContMode == DFSDM_CONTINUOUS_CONV_OFF) && \
 2951              		.loc 1 2054 26
 2952 0066 FB68     		ldr	r3, [r7, #12]
 2953 0068 1B6B     		ldr	r3, [r3, #48]
2053:Drivers/STM32L4xx_HAL_Driver/Src/stm32l4xx_hal_dfsdm.c ****            (hdfsdm_filter->RegularContMode == DFSDM_CONTINUOUS_CONV_OFF) && \
 2954              		.loc 1 2053 71 discriminator 1
 2955 006a 002B     		cmp	r3, #0
 2956 006c 07D1     		bne	.L166
2055:Drivers/STM32L4xx_HAL_Driver/Src/stm32l4xx_hal_dfsdm.c ****            (hdfsdm_filter->hdmaReg->Init.Mode == DMA_CIRCULAR))
 2957              		.loc 1 2055 26
 2958 006e FB68     		ldr	r3, [r7, #12]
 2959 0070 9B6A     		ldr	r3, [r3, #40]
 2960              		.loc 1 2055 41
 2961 0072 DB69     		ldr	r3, [r3, #28]
2054:Drivers/STM32L4xx_HAL_Driver/Src/stm32l4xx_hal_dfsdm.c ****            (hdfsdm_filter->RegularContMode == DFSDM_CONTINUOUS_CONV_OFF) && \
 2962              		.loc 1 2054 74
 2963 0074 202B     		cmp	r3, #32
ARM GAS  /tmp/ccrDNuCE.s 			page 89


 2964 0076 02D1     		bne	.L166
2056:Drivers/STM32L4xx_HAL_Driver/Src/stm32l4xx_hal_dfsdm.c ****   {
2057:Drivers/STM32L4xx_HAL_Driver/Src/stm32l4xx_hal_dfsdm.c ****     status = HAL_ERROR;
 2965              		.loc 1 2057 12
 2966 0078 0123     		movs	r3, #1
 2967 007a FB75     		strb	r3, [r7, #23]
 2968 007c 36E0     		b	.L163
 2969              	.L166:
2058:Drivers/STM32L4xx_HAL_Driver/Src/stm32l4xx_hal_dfsdm.c ****   }
2059:Drivers/STM32L4xx_HAL_Driver/Src/stm32l4xx_hal_dfsdm.c ****   /* Check DFSDM filter state */
2060:Drivers/STM32L4xx_HAL_Driver/Src/stm32l4xx_hal_dfsdm.c ****   else if ((hdfsdm_filter->State == HAL_DFSDM_FILTER_STATE_READY) || \
 2970              		.loc 1 2060 26
 2971 007e FB68     		ldr	r3, [r7, #12]
 2972 0080 93F84C30 		ldrb	r3, [r3, #76]	@ zero_extendqisi2
 2973              		.loc 1 2060 11
 2974 0084 012B     		cmp	r3, #1
 2975 0086 04D0     		beq	.L167
2061:Drivers/STM32L4xx_HAL_Driver/Src/stm32l4xx_hal_dfsdm.c ****            (hdfsdm_filter->State == HAL_DFSDM_FILTER_STATE_INJ))
 2976              		.loc 1 2061 26
 2977 0088 FB68     		ldr	r3, [r7, #12]
 2978 008a 93F84C30 		ldrb	r3, [r3, #76]	@ zero_extendqisi2
2060:Drivers/STM32L4xx_HAL_Driver/Src/stm32l4xx_hal_dfsdm.c ****            (hdfsdm_filter->State == HAL_DFSDM_FILTER_STATE_INJ))
 2979              		.loc 1 2060 67 discriminator 1
 2980 008e 032B     		cmp	r3, #3
 2981 0090 2AD1     		bne	.L168
 2982              	.L167:
2062:Drivers/STM32L4xx_HAL_Driver/Src/stm32l4xx_hal_dfsdm.c ****   {
2063:Drivers/STM32L4xx_HAL_Driver/Src/stm32l4xx_hal_dfsdm.c ****     /* Set callbacks on DMA handler */
2064:Drivers/STM32L4xx_HAL_Driver/Src/stm32l4xx_hal_dfsdm.c ****     hdfsdm_filter->hdmaReg->XferCpltCallback = DFSDM_DMARegularConvCplt;
 2983              		.loc 1 2064 18
 2984 0092 FB68     		ldr	r3, [r7, #12]
 2985 0094 9B6A     		ldr	r3, [r3, #40]
 2986              		.loc 1 2064 46
 2987 0096 184A     		ldr	r2, .L174
 2988 0098 DA62     		str	r2, [r3, #44]
2065:Drivers/STM32L4xx_HAL_Driver/Src/stm32l4xx_hal_dfsdm.c ****     hdfsdm_filter->hdmaReg->XferErrorCallback = DFSDM_DMAError;
 2989              		.loc 1 2065 18
 2990 009a FB68     		ldr	r3, [r7, #12]
 2991 009c 9B6A     		ldr	r3, [r3, #40]
 2992              		.loc 1 2065 47
 2993 009e 174A     		ldr	r2, .L174+4
 2994 00a0 5A63     		str	r2, [r3, #52]
2066:Drivers/STM32L4xx_HAL_Driver/Src/stm32l4xx_hal_dfsdm.c ****     hdfsdm_filter->hdmaReg->XferHalfCpltCallback = (hdfsdm_filter->hdmaReg->Init.Mode == DMA_CIRCUL
 2995              		.loc 1 2066 66
 2996 00a2 FB68     		ldr	r3, [r7, #12]
 2997 00a4 9B6A     		ldr	r3, [r3, #40]
 2998              		.loc 1 2066 81
 2999 00a6 DB69     		ldr	r3, [r3, #28]
2067:Drivers/STM32L4xx_HAL_Driver/Src/stm32l4xx_hal_dfsdm.c ****                                                    DFSDM_DMARegularHalfConvCplt : NULL;
 3000              		.loc 1 2067 81
 3001 00a8 202B     		cmp	r3, #32
 3002 00aa 01D1     		bne	.L169
 3003              		.loc 1 2067 81 is_stmt 0 discriminator 1
 3004 00ac 144A     		ldr	r2, .L174+8
 3005 00ae 00E0     		b	.L170
 3006              	.L169:
 3007              		.loc 1 2067 81 discriminator 2
ARM GAS  /tmp/ccrDNuCE.s 			page 90


 3008 00b0 0022     		movs	r2, #0
 3009              	.L170:
2066:Drivers/STM32L4xx_HAL_Driver/Src/stm32l4xx_hal_dfsdm.c ****     hdfsdm_filter->hdmaReg->XferHalfCpltCallback = (hdfsdm_filter->hdmaReg->Init.Mode == DMA_CIRCUL
 3010              		.loc 1 2066 18 is_stmt 1
 3011 00b2 FB68     		ldr	r3, [r7, #12]
 3012 00b4 9B6A     		ldr	r3, [r3, #40]
2066:Drivers/STM32L4xx_HAL_Driver/Src/stm32l4xx_hal_dfsdm.c ****     hdfsdm_filter->hdmaReg->XferHalfCpltCallback = (hdfsdm_filter->hdmaReg->Init.Mode == DMA_CIRCUL
 3013              		.loc 1 2066 50
 3014 00b6 1A63     		str	r2, [r3, #48]
2068:Drivers/STM32L4xx_HAL_Driver/Src/stm32l4xx_hal_dfsdm.c **** 
2069:Drivers/STM32L4xx_HAL_Driver/Src/stm32l4xx_hal_dfsdm.c ****     /* Start DMA in interrupt mode */
2070:Drivers/STM32L4xx_HAL_Driver/Src/stm32l4xx_hal_dfsdm.c ****     if (HAL_DMA_Start_IT(hdfsdm_filter->hdmaReg, (uint32_t)&hdfsdm_filter->Instance->FLTRDATAR, \
 3015              		.loc 1 2070 9
 3016 00b8 FB68     		ldr	r3, [r7, #12]
 3017 00ba 986A     		ldr	r0, [r3, #40]
 3018              		.loc 1 2070 74
 3019 00bc FB68     		ldr	r3, [r7, #12]
 3020 00be 1B68     		ldr	r3, [r3]
 3021              		.loc 1 2070 60
 3022 00c0 1C33     		adds	r3, r3, #28
 3023              		.loc 1 2070 9
 3024 00c2 1946     		mov	r1, r3
 3025 00c4 BA68     		ldr	r2, [r7, #8]
 3026 00c6 7B68     		ldr	r3, [r7, #4]
 3027 00c8 FFF7FEFF 		bl	HAL_DMA_Start_IT
 3028 00cc 0346     		mov	r3, r0
 3029              		.loc 1 2070 8 discriminator 1
 3030 00ce 002B     		cmp	r3, #0
 3031 00d0 06D0     		beq	.L171
2071:Drivers/STM32L4xx_HAL_Driver/Src/stm32l4xx_hal_dfsdm.c ****                          (uint32_t) pData, Length) != HAL_OK)
2072:Drivers/STM32L4xx_HAL_Driver/Src/stm32l4xx_hal_dfsdm.c ****     {
2073:Drivers/STM32L4xx_HAL_Driver/Src/stm32l4xx_hal_dfsdm.c ****       /* Set DFSDM filter in error state */
2074:Drivers/STM32L4xx_HAL_Driver/Src/stm32l4xx_hal_dfsdm.c ****       hdfsdm_filter->State = HAL_DFSDM_FILTER_STATE_ERROR;
 3032              		.loc 1 2074 28
 3033 00d2 FB68     		ldr	r3, [r7, #12]
 3034 00d4 FF22     		movs	r2, #255
 3035 00d6 83F84C20 		strb	r2, [r3, #76]
2075:Drivers/STM32L4xx_HAL_Driver/Src/stm32l4xx_hal_dfsdm.c ****       status = HAL_ERROR;
 3036              		.loc 1 2075 14
 3037 00da 0123     		movs	r3, #1
 3038 00dc FB75     		strb	r3, [r7, #23]
2070:Drivers/STM32L4xx_HAL_Driver/Src/stm32l4xx_hal_dfsdm.c ****                          (uint32_t) pData, Length) != HAL_OK)
 3039              		.loc 1 2070 8
 3040 00de 05E0     		b	.L163
 3041              	.L171:
2076:Drivers/STM32L4xx_HAL_Driver/Src/stm32l4xx_hal_dfsdm.c ****     }
2077:Drivers/STM32L4xx_HAL_Driver/Src/stm32l4xx_hal_dfsdm.c ****     else
2078:Drivers/STM32L4xx_HAL_Driver/Src/stm32l4xx_hal_dfsdm.c ****     {
2079:Drivers/STM32L4xx_HAL_Driver/Src/stm32l4xx_hal_dfsdm.c ****       /* Start regular conversion */
2080:Drivers/STM32L4xx_HAL_Driver/Src/stm32l4xx_hal_dfsdm.c ****       DFSDM_RegConvStart(hdfsdm_filter);
 3042              		.loc 1 2080 7
 3043 00e0 F868     		ldr	r0, [r7, #12]
 3044 00e2 FFF7FEFF 		bl	DFSDM_RegConvStart
2070:Drivers/STM32L4xx_HAL_Driver/Src/stm32l4xx_hal_dfsdm.c ****                          (uint32_t) pData, Length) != HAL_OK)
 3045              		.loc 1 2070 8
 3046 00e6 01E0     		b	.L163
 3047              	.L168:
ARM GAS  /tmp/ccrDNuCE.s 			page 91


2081:Drivers/STM32L4xx_HAL_Driver/Src/stm32l4xx_hal_dfsdm.c ****     }
2082:Drivers/STM32L4xx_HAL_Driver/Src/stm32l4xx_hal_dfsdm.c ****   }
2083:Drivers/STM32L4xx_HAL_Driver/Src/stm32l4xx_hal_dfsdm.c ****   else
2084:Drivers/STM32L4xx_HAL_Driver/Src/stm32l4xx_hal_dfsdm.c ****   {
2085:Drivers/STM32L4xx_HAL_Driver/Src/stm32l4xx_hal_dfsdm.c ****     status = HAL_ERROR;
 3048              		.loc 1 2085 12
 3049 00e8 0123     		movs	r3, #1
 3050 00ea FB75     		strb	r3, [r7, #23]
 3051              	.L163:
2086:Drivers/STM32L4xx_HAL_Driver/Src/stm32l4xx_hal_dfsdm.c ****   }
2087:Drivers/STM32L4xx_HAL_Driver/Src/stm32l4xx_hal_dfsdm.c ****   /* Return function status */
2088:Drivers/STM32L4xx_HAL_Driver/Src/stm32l4xx_hal_dfsdm.c ****   return status;
 3052              		.loc 1 2088 10
 3053 00ec FB7D     		ldrb	r3, [r7, #23]	@ zero_extendqisi2
2089:Drivers/STM32L4xx_HAL_Driver/Src/stm32l4xx_hal_dfsdm.c **** }
 3054              		.loc 1 2089 1
 3055 00ee 1846     		mov	r0, r3
 3056 00f0 1837     		adds	r7, r7, #24
 3057              		.cfi_def_cfa_offset 8
 3058 00f2 BD46     		mov	sp, r7
 3059              		.cfi_def_cfa_register 13
 3060              		@ sp needed
 3061 00f4 80BD     		pop	{r7, pc}
 3062              	.L175:
 3063 00f6 00BF     		.align	2
 3064              	.L174:
 3065 00f8 00000000 		.word	DFSDM_DMARegularConvCplt
 3066 00fc 00000000 		.word	DFSDM_DMAError
 3067 0100 00000000 		.word	DFSDM_DMARegularHalfConvCplt
 3068              		.cfi_endproc
 3069              	.LFE475:
 3071              		.section	.text.HAL_DFSDM_FilterRegularMsbStart_DMA,"ax",%progbits
 3072              		.align	1
 3073              		.global	HAL_DFSDM_FilterRegularMsbStart_DMA
 3074              		.syntax unified
 3075              		.thumb
 3076              		.thumb_func
 3078              	HAL_DFSDM_FilterRegularMsbStart_DMA:
 3079              	.LFB476:
2090:Drivers/STM32L4xx_HAL_Driver/Src/stm32l4xx_hal_dfsdm.c **** 
2091:Drivers/STM32L4xx_HAL_Driver/Src/stm32l4xx_hal_dfsdm.c **** /**
2092:Drivers/STM32L4xx_HAL_Driver/Src/stm32l4xx_hal_dfsdm.c ****   * @brief  This function allows to start regular conversion in DMA mode and to get
2093:Drivers/STM32L4xx_HAL_Driver/Src/stm32l4xx_hal_dfsdm.c ****   *         only the 16 most significant bits of conversion.
2094:Drivers/STM32L4xx_HAL_Driver/Src/stm32l4xx_hal_dfsdm.c ****   * @note   This function should be called only when DFSDM filter instance is
2095:Drivers/STM32L4xx_HAL_Driver/Src/stm32l4xx_hal_dfsdm.c ****   *         in idle state or if injected conversion is ongoing.
2096:Drivers/STM32L4xx_HAL_Driver/Src/stm32l4xx_hal_dfsdm.c ****   *         Please note that data on buffer will contain signed 16 most significant
2097:Drivers/STM32L4xx_HAL_Driver/Src/stm32l4xx_hal_dfsdm.c ****   *         bits of regular conversion.
2098:Drivers/STM32L4xx_HAL_Driver/Src/stm32l4xx_hal_dfsdm.c ****   * @param  hdfsdm_filter DFSDM filter handle.
2099:Drivers/STM32L4xx_HAL_Driver/Src/stm32l4xx_hal_dfsdm.c ****   * @param  pData The destination buffer address.
2100:Drivers/STM32L4xx_HAL_Driver/Src/stm32l4xx_hal_dfsdm.c ****   * @param  Length The length of data to be transferred from DFSDM filter to memory.
2101:Drivers/STM32L4xx_HAL_Driver/Src/stm32l4xx_hal_dfsdm.c ****   * @retval HAL status
2102:Drivers/STM32L4xx_HAL_Driver/Src/stm32l4xx_hal_dfsdm.c ****   */
2103:Drivers/STM32L4xx_HAL_Driver/Src/stm32l4xx_hal_dfsdm.c **** HAL_StatusTypeDef HAL_DFSDM_FilterRegularMsbStart_DMA(DFSDM_Filter_HandleTypeDef *hdfsdm_filter,
2104:Drivers/STM32L4xx_HAL_Driver/Src/stm32l4xx_hal_dfsdm.c ****                                                       int16_t                    *pData,
2105:Drivers/STM32L4xx_HAL_Driver/Src/stm32l4xx_hal_dfsdm.c ****                                                       uint32_t                    Length)
2106:Drivers/STM32L4xx_HAL_Driver/Src/stm32l4xx_hal_dfsdm.c **** {
 3080              		.loc 1 2106 1
ARM GAS  /tmp/ccrDNuCE.s 			page 92


 3081              		.cfi_startproc
 3082              		@ args = 0, pretend = 0, frame = 24
 3083              		@ frame_needed = 1, uses_anonymous_args = 0
 3084 0000 80B5     		push	{r7, lr}
 3085              		.cfi_def_cfa_offset 8
 3086              		.cfi_offset 7, -8
 3087              		.cfi_offset 14, -4
 3088 0002 86B0     		sub	sp, sp, #24
 3089              		.cfi_def_cfa_offset 32
 3090 0004 00AF     		add	r7, sp, #0
 3091              		.cfi_def_cfa_register 7
 3092 0006 F860     		str	r0, [r7, #12]
 3093 0008 B960     		str	r1, [r7, #8]
 3094 000a 7A60     		str	r2, [r7, #4]
2107:Drivers/STM32L4xx_HAL_Driver/Src/stm32l4xx_hal_dfsdm.c ****   HAL_StatusTypeDef status = HAL_OK;
 3095              		.loc 1 2107 21
 3096 000c 0023     		movs	r3, #0
 3097 000e FB75     		strb	r3, [r7, #23]
2108:Drivers/STM32L4xx_HAL_Driver/Src/stm32l4xx_hal_dfsdm.c **** 
2109:Drivers/STM32L4xx_HAL_Driver/Src/stm32l4xx_hal_dfsdm.c ****   /* Check parameters */
2110:Drivers/STM32L4xx_HAL_Driver/Src/stm32l4xx_hal_dfsdm.c ****   assert_param(IS_DFSDM_FILTER_ALL_INSTANCE(hdfsdm_filter->Instance));
2111:Drivers/STM32L4xx_HAL_Driver/Src/stm32l4xx_hal_dfsdm.c **** 
2112:Drivers/STM32L4xx_HAL_Driver/Src/stm32l4xx_hal_dfsdm.c ****   /* Check destination address and length */
2113:Drivers/STM32L4xx_HAL_Driver/Src/stm32l4xx_hal_dfsdm.c ****   if ((pData == NULL) || (Length == 0U))
 3098              		.loc 1 2113 6
 3099 0010 BB68     		ldr	r3, [r7, #8]
 3100 0012 002B     		cmp	r3, #0
 3101 0014 02D0     		beq	.L177
 3102              		.loc 1 2113 23 discriminator 1
 3103 0016 7B68     		ldr	r3, [r7, #4]
 3104 0018 002B     		cmp	r3, #0
 3105 001a 02D1     		bne	.L178
 3106              	.L177:
2114:Drivers/STM32L4xx_HAL_Driver/Src/stm32l4xx_hal_dfsdm.c ****   {
2115:Drivers/STM32L4xx_HAL_Driver/Src/stm32l4xx_hal_dfsdm.c ****     status = HAL_ERROR;
 3107              		.loc 1 2115 12
 3108 001c 0123     		movs	r3, #1
 3109 001e FB75     		strb	r3, [r7, #23]
 3110 0020 64E0     		b	.L179
 3111              	.L178:
2116:Drivers/STM32L4xx_HAL_Driver/Src/stm32l4xx_hal_dfsdm.c ****   }
2117:Drivers/STM32L4xx_HAL_Driver/Src/stm32l4xx_hal_dfsdm.c ****   /* Check that DMA is enabled for regular conversion */
2118:Drivers/STM32L4xx_HAL_Driver/Src/stm32l4xx_hal_dfsdm.c ****   else if ((hdfsdm_filter->Instance->FLTCR1 & DFSDM_FLTCR1_RDMAEN) != DFSDM_FLTCR1_RDMAEN)
 3112              		.loc 1 2118 26
 3113 0022 FB68     		ldr	r3, [r7, #12]
 3114 0024 1B68     		ldr	r3, [r3]
 3115              		.loc 1 2118 36
 3116 0026 1B68     		ldr	r3, [r3]
 3117              		.loc 1 2118 45
 3118 0028 03F40013 		and	r3, r3, #2097152
 3119              		.loc 1 2118 11
 3120 002c B3F5001F 		cmp	r3, #2097152
 3121 0030 02D0     		beq	.L180
2119:Drivers/STM32L4xx_HAL_Driver/Src/stm32l4xx_hal_dfsdm.c ****   {
2120:Drivers/STM32L4xx_HAL_Driver/Src/stm32l4xx_hal_dfsdm.c ****     status = HAL_ERROR;
 3122              		.loc 1 2120 12
 3123 0032 0123     		movs	r3, #1
ARM GAS  /tmp/ccrDNuCE.s 			page 93


 3124 0034 FB75     		strb	r3, [r7, #23]
 3125 0036 59E0     		b	.L179
 3126              	.L180:
2121:Drivers/STM32L4xx_HAL_Driver/Src/stm32l4xx_hal_dfsdm.c ****   }
2122:Drivers/STM32L4xx_HAL_Driver/Src/stm32l4xx_hal_dfsdm.c ****   /* Check parameters compatibility */
2123:Drivers/STM32L4xx_HAL_Driver/Src/stm32l4xx_hal_dfsdm.c ****   else if ((hdfsdm_filter->RegularTrigger == DFSDM_FILTER_SW_TRIGGER) && \
 3127              		.loc 1 2123 26
 3128 0038 FB68     		ldr	r3, [r7, #12]
 3129 003a 5B6B     		ldr	r3, [r3, #52]
 3130              		.loc 1 2123 11
 3131 003c 002B     		cmp	r3, #0
 3132 003e 0ED1     		bne	.L181
2124:Drivers/STM32L4xx_HAL_Driver/Src/stm32l4xx_hal_dfsdm.c ****            (hdfsdm_filter->RegularContMode == DFSDM_CONTINUOUS_CONV_OFF) && \
 3133              		.loc 1 2124 26
 3134 0040 FB68     		ldr	r3, [r7, #12]
 3135 0042 1B6B     		ldr	r3, [r3, #48]
2123:Drivers/STM32L4xx_HAL_Driver/Src/stm32l4xx_hal_dfsdm.c ****            (hdfsdm_filter->RegularContMode == DFSDM_CONTINUOUS_CONV_OFF) && \
 3136              		.loc 1 2123 71 discriminator 1
 3137 0044 002B     		cmp	r3, #0
 3138 0046 0AD1     		bne	.L181
2125:Drivers/STM32L4xx_HAL_Driver/Src/stm32l4xx_hal_dfsdm.c ****            (hdfsdm_filter->hdmaReg->Init.Mode == DMA_NORMAL) && \
 3139              		.loc 1 2125 26
 3140 0048 FB68     		ldr	r3, [r7, #12]
 3141 004a 9B6A     		ldr	r3, [r3, #40]
 3142              		.loc 1 2125 41
 3143 004c DB69     		ldr	r3, [r3, #28]
2124:Drivers/STM32L4xx_HAL_Driver/Src/stm32l4xx_hal_dfsdm.c ****            (hdfsdm_filter->RegularContMode == DFSDM_CONTINUOUS_CONV_OFF) && \
 3144              		.loc 1 2124 74
 3145 004e 002B     		cmp	r3, #0
 3146 0050 05D1     		bne	.L181
 3147              		.loc 1 2125 62
 3148 0052 7B68     		ldr	r3, [r7, #4]
 3149 0054 012B     		cmp	r3, #1
 3150 0056 02D0     		beq	.L181
2126:Drivers/STM32L4xx_HAL_Driver/Src/stm32l4xx_hal_dfsdm.c ****            (Length != 1U))
2127:Drivers/STM32L4xx_HAL_Driver/Src/stm32l4xx_hal_dfsdm.c ****   {
2128:Drivers/STM32L4xx_HAL_Driver/Src/stm32l4xx_hal_dfsdm.c ****     status = HAL_ERROR;
 3151              		.loc 1 2128 12
 3152 0058 0123     		movs	r3, #1
 3153 005a FB75     		strb	r3, [r7, #23]
 3154 005c 46E0     		b	.L179
 3155              	.L181:
2129:Drivers/STM32L4xx_HAL_Driver/Src/stm32l4xx_hal_dfsdm.c ****   }
2130:Drivers/STM32L4xx_HAL_Driver/Src/stm32l4xx_hal_dfsdm.c ****   else if ((hdfsdm_filter->RegularTrigger == DFSDM_FILTER_SW_TRIGGER) && \
 3156              		.loc 1 2130 26
 3157 005e FB68     		ldr	r3, [r7, #12]
 3158 0060 5B6B     		ldr	r3, [r3, #52]
 3159              		.loc 1 2130 11
 3160 0062 002B     		cmp	r3, #0
 3161 0064 0BD1     		bne	.L182
2131:Drivers/STM32L4xx_HAL_Driver/Src/stm32l4xx_hal_dfsdm.c ****            (hdfsdm_filter->RegularContMode == DFSDM_CONTINUOUS_CONV_OFF) && \
 3162              		.loc 1 2131 26
 3163 0066 FB68     		ldr	r3, [r7, #12]
 3164 0068 1B6B     		ldr	r3, [r3, #48]
2130:Drivers/STM32L4xx_HAL_Driver/Src/stm32l4xx_hal_dfsdm.c ****            (hdfsdm_filter->RegularContMode == DFSDM_CONTINUOUS_CONV_OFF) && \
 3165              		.loc 1 2130 71 discriminator 1
 3166 006a 002B     		cmp	r3, #0
ARM GAS  /tmp/ccrDNuCE.s 			page 94


 3167 006c 07D1     		bne	.L182
2132:Drivers/STM32L4xx_HAL_Driver/Src/stm32l4xx_hal_dfsdm.c ****            (hdfsdm_filter->hdmaReg->Init.Mode == DMA_CIRCULAR))
 3168              		.loc 1 2132 26
 3169 006e FB68     		ldr	r3, [r7, #12]
 3170 0070 9B6A     		ldr	r3, [r3, #40]
 3171              		.loc 1 2132 41
 3172 0072 DB69     		ldr	r3, [r3, #28]
2131:Drivers/STM32L4xx_HAL_Driver/Src/stm32l4xx_hal_dfsdm.c ****            (hdfsdm_filter->RegularContMode == DFSDM_CONTINUOUS_CONV_OFF) && \
 3173              		.loc 1 2131 74
 3174 0074 202B     		cmp	r3, #32
 3175 0076 02D1     		bne	.L182
2133:Drivers/STM32L4xx_HAL_Driver/Src/stm32l4xx_hal_dfsdm.c ****   {
2134:Drivers/STM32L4xx_HAL_Driver/Src/stm32l4xx_hal_dfsdm.c ****     status = HAL_ERROR;
 3176              		.loc 1 2134 12
 3177 0078 0123     		movs	r3, #1
 3178 007a FB75     		strb	r3, [r7, #23]
 3179 007c 36E0     		b	.L179
 3180              	.L182:
2135:Drivers/STM32L4xx_HAL_Driver/Src/stm32l4xx_hal_dfsdm.c ****   }
2136:Drivers/STM32L4xx_HAL_Driver/Src/stm32l4xx_hal_dfsdm.c ****   /* Check DFSDM filter state */
2137:Drivers/STM32L4xx_HAL_Driver/Src/stm32l4xx_hal_dfsdm.c ****   else if ((hdfsdm_filter->State == HAL_DFSDM_FILTER_STATE_READY) || \
 3181              		.loc 1 2137 26
 3182 007e FB68     		ldr	r3, [r7, #12]
 3183 0080 93F84C30 		ldrb	r3, [r3, #76]	@ zero_extendqisi2
 3184              		.loc 1 2137 11
 3185 0084 012B     		cmp	r3, #1
 3186 0086 04D0     		beq	.L183
2138:Drivers/STM32L4xx_HAL_Driver/Src/stm32l4xx_hal_dfsdm.c ****            (hdfsdm_filter->State == HAL_DFSDM_FILTER_STATE_INJ))
 3187              		.loc 1 2138 26
 3188 0088 FB68     		ldr	r3, [r7, #12]
 3189 008a 93F84C30 		ldrb	r3, [r3, #76]	@ zero_extendqisi2
2137:Drivers/STM32L4xx_HAL_Driver/Src/stm32l4xx_hal_dfsdm.c ****            (hdfsdm_filter->State == HAL_DFSDM_FILTER_STATE_INJ))
 3190              		.loc 1 2137 67 discriminator 1
 3191 008e 032B     		cmp	r3, #3
 3192 0090 2AD1     		bne	.L184
 3193              	.L183:
2139:Drivers/STM32L4xx_HAL_Driver/Src/stm32l4xx_hal_dfsdm.c ****   {
2140:Drivers/STM32L4xx_HAL_Driver/Src/stm32l4xx_hal_dfsdm.c ****     /* Set callbacks on DMA handler */
2141:Drivers/STM32L4xx_HAL_Driver/Src/stm32l4xx_hal_dfsdm.c ****     hdfsdm_filter->hdmaReg->XferCpltCallback = DFSDM_DMARegularConvCplt;
 3194              		.loc 1 2141 18
 3195 0092 FB68     		ldr	r3, [r7, #12]
 3196 0094 9B6A     		ldr	r3, [r3, #40]
 3197              		.loc 1 2141 46
 3198 0096 184A     		ldr	r2, .L190
 3199 0098 DA62     		str	r2, [r3, #44]
2142:Drivers/STM32L4xx_HAL_Driver/Src/stm32l4xx_hal_dfsdm.c ****     hdfsdm_filter->hdmaReg->XferErrorCallback = DFSDM_DMAError;
 3200              		.loc 1 2142 18
 3201 009a FB68     		ldr	r3, [r7, #12]
 3202 009c 9B6A     		ldr	r3, [r3, #40]
 3203              		.loc 1 2142 47
 3204 009e 174A     		ldr	r2, .L190+4
 3205 00a0 5A63     		str	r2, [r3, #52]
2143:Drivers/STM32L4xx_HAL_Driver/Src/stm32l4xx_hal_dfsdm.c ****     hdfsdm_filter->hdmaReg->XferHalfCpltCallback = (hdfsdm_filter->hdmaReg->Init.Mode == DMA_CIRCUL
 3206              		.loc 1 2143 66
 3207 00a2 FB68     		ldr	r3, [r7, #12]
 3208 00a4 9B6A     		ldr	r3, [r3, #40]
 3209              		.loc 1 2143 81
ARM GAS  /tmp/ccrDNuCE.s 			page 95


 3210 00a6 DB69     		ldr	r3, [r3, #28]
2144:Drivers/STM32L4xx_HAL_Driver/Src/stm32l4xx_hal_dfsdm.c ****                                                    DFSDM_DMARegularHalfConvCplt : NULL;
 3211              		.loc 1 2144 81
 3212 00a8 202B     		cmp	r3, #32
 3213 00aa 01D1     		bne	.L185
 3214              		.loc 1 2144 81 is_stmt 0 discriminator 1
 3215 00ac 144A     		ldr	r2, .L190+8
 3216 00ae 00E0     		b	.L186
 3217              	.L185:
 3218              		.loc 1 2144 81 discriminator 2
 3219 00b0 0022     		movs	r2, #0
 3220              	.L186:
2143:Drivers/STM32L4xx_HAL_Driver/Src/stm32l4xx_hal_dfsdm.c ****     hdfsdm_filter->hdmaReg->XferHalfCpltCallback = (hdfsdm_filter->hdmaReg->Init.Mode == DMA_CIRCUL
 3221              		.loc 1 2143 18 is_stmt 1
 3222 00b2 FB68     		ldr	r3, [r7, #12]
 3223 00b4 9B6A     		ldr	r3, [r3, #40]
2143:Drivers/STM32L4xx_HAL_Driver/Src/stm32l4xx_hal_dfsdm.c ****     hdfsdm_filter->hdmaReg->XferHalfCpltCallback = (hdfsdm_filter->hdmaReg->Init.Mode == DMA_CIRCUL
 3224              		.loc 1 2143 50
 3225 00b6 1A63     		str	r2, [r3, #48]
2145:Drivers/STM32L4xx_HAL_Driver/Src/stm32l4xx_hal_dfsdm.c **** 
2146:Drivers/STM32L4xx_HAL_Driver/Src/stm32l4xx_hal_dfsdm.c ****     /* Start DMA in interrupt mode */
2147:Drivers/STM32L4xx_HAL_Driver/Src/stm32l4xx_hal_dfsdm.c ****     if (HAL_DMA_Start_IT(hdfsdm_filter->hdmaReg, (uint32_t)(&hdfsdm_filter->Instance->FLTRDATAR) + 
 3226              		.loc 1 2147 9
 3227 00b8 FB68     		ldr	r3, [r7, #12]
 3228 00ba 986A     		ldr	r0, [r3, #40]
 3229              		.loc 1 2147 75
 3230 00bc FB68     		ldr	r3, [r7, #12]
 3231 00be 1B68     		ldr	r3, [r3]
 3232              		.loc 1 2147 61
 3233 00c0 1C33     		adds	r3, r3, #28
 3234              		.loc 1 2147 9
 3235 00c2 991C     		adds	r1, r3, #2
 3236 00c4 BA68     		ldr	r2, [r7, #8]
 3237 00c6 7B68     		ldr	r3, [r7, #4]
 3238 00c8 FFF7FEFF 		bl	HAL_DMA_Start_IT
 3239 00cc 0346     		mov	r3, r0
 3240              		.loc 1 2147 8 discriminator 1
 3241 00ce 002B     		cmp	r3, #0
 3242 00d0 06D0     		beq	.L187
2148:Drivers/STM32L4xx_HAL_Driver/Src/stm32l4xx_hal_dfsdm.c ****                          (uint32_t) pData, Length) != HAL_OK)
2149:Drivers/STM32L4xx_HAL_Driver/Src/stm32l4xx_hal_dfsdm.c ****     {
2150:Drivers/STM32L4xx_HAL_Driver/Src/stm32l4xx_hal_dfsdm.c ****       /* Set DFSDM filter in error state */
2151:Drivers/STM32L4xx_HAL_Driver/Src/stm32l4xx_hal_dfsdm.c ****       hdfsdm_filter->State = HAL_DFSDM_FILTER_STATE_ERROR;
 3243              		.loc 1 2151 28
 3244 00d2 FB68     		ldr	r3, [r7, #12]
 3245 00d4 FF22     		movs	r2, #255
 3246 00d6 83F84C20 		strb	r2, [r3, #76]
2152:Drivers/STM32L4xx_HAL_Driver/Src/stm32l4xx_hal_dfsdm.c ****       status = HAL_ERROR;
 3247              		.loc 1 2152 14
 3248 00da 0123     		movs	r3, #1
 3249 00dc FB75     		strb	r3, [r7, #23]
2147:Drivers/STM32L4xx_HAL_Driver/Src/stm32l4xx_hal_dfsdm.c ****                          (uint32_t) pData, Length) != HAL_OK)
 3250              		.loc 1 2147 8
 3251 00de 05E0     		b	.L179
 3252              	.L187:
2153:Drivers/STM32L4xx_HAL_Driver/Src/stm32l4xx_hal_dfsdm.c ****     }
2154:Drivers/STM32L4xx_HAL_Driver/Src/stm32l4xx_hal_dfsdm.c ****     else
ARM GAS  /tmp/ccrDNuCE.s 			page 96


2155:Drivers/STM32L4xx_HAL_Driver/Src/stm32l4xx_hal_dfsdm.c ****     {
2156:Drivers/STM32L4xx_HAL_Driver/Src/stm32l4xx_hal_dfsdm.c ****       /* Start regular conversion */
2157:Drivers/STM32L4xx_HAL_Driver/Src/stm32l4xx_hal_dfsdm.c ****       DFSDM_RegConvStart(hdfsdm_filter);
 3253              		.loc 1 2157 7
 3254 00e0 F868     		ldr	r0, [r7, #12]
 3255 00e2 FFF7FEFF 		bl	DFSDM_RegConvStart
2147:Drivers/STM32L4xx_HAL_Driver/Src/stm32l4xx_hal_dfsdm.c ****                          (uint32_t) pData, Length) != HAL_OK)
 3256              		.loc 1 2147 8
 3257 00e6 01E0     		b	.L179
 3258              	.L184:
2158:Drivers/STM32L4xx_HAL_Driver/Src/stm32l4xx_hal_dfsdm.c ****     }
2159:Drivers/STM32L4xx_HAL_Driver/Src/stm32l4xx_hal_dfsdm.c ****   }
2160:Drivers/STM32L4xx_HAL_Driver/Src/stm32l4xx_hal_dfsdm.c ****   else
2161:Drivers/STM32L4xx_HAL_Driver/Src/stm32l4xx_hal_dfsdm.c ****   {
2162:Drivers/STM32L4xx_HAL_Driver/Src/stm32l4xx_hal_dfsdm.c ****     status = HAL_ERROR;
 3259              		.loc 1 2162 12
 3260 00e8 0123     		movs	r3, #1
 3261 00ea FB75     		strb	r3, [r7, #23]
 3262              	.L179:
2163:Drivers/STM32L4xx_HAL_Driver/Src/stm32l4xx_hal_dfsdm.c ****   }
2164:Drivers/STM32L4xx_HAL_Driver/Src/stm32l4xx_hal_dfsdm.c ****   /* Return function status */
2165:Drivers/STM32L4xx_HAL_Driver/Src/stm32l4xx_hal_dfsdm.c ****   return status;
 3263              		.loc 1 2165 10
 3264 00ec FB7D     		ldrb	r3, [r7, #23]	@ zero_extendqisi2
2166:Drivers/STM32L4xx_HAL_Driver/Src/stm32l4xx_hal_dfsdm.c **** }
 3265              		.loc 1 2166 1
 3266 00ee 1846     		mov	r0, r3
 3267 00f0 1837     		adds	r7, r7, #24
 3268              		.cfi_def_cfa_offset 8
 3269 00f2 BD46     		mov	sp, r7
 3270              		.cfi_def_cfa_register 13
 3271              		@ sp needed
 3272 00f4 80BD     		pop	{r7, pc}
 3273              	.L191:
 3274 00f6 00BF     		.align	2
 3275              	.L190:
 3276 00f8 00000000 		.word	DFSDM_DMARegularConvCplt
 3277 00fc 00000000 		.word	DFSDM_DMAError
 3278 0100 00000000 		.word	DFSDM_DMARegularHalfConvCplt
 3279              		.cfi_endproc
 3280              	.LFE476:
 3282              		.section	.text.HAL_DFSDM_FilterRegularStop_DMA,"ax",%progbits
 3283              		.align	1
 3284              		.global	HAL_DFSDM_FilterRegularStop_DMA
 3285              		.syntax unified
 3286              		.thumb
 3287              		.thumb_func
 3289              	HAL_DFSDM_FilterRegularStop_DMA:
 3290              	.LFB477:
2167:Drivers/STM32L4xx_HAL_Driver/Src/stm32l4xx_hal_dfsdm.c **** 
2168:Drivers/STM32L4xx_HAL_Driver/Src/stm32l4xx_hal_dfsdm.c **** /**
2169:Drivers/STM32L4xx_HAL_Driver/Src/stm32l4xx_hal_dfsdm.c ****   * @brief  This function allows to stop regular conversion in DMA mode.
2170:Drivers/STM32L4xx_HAL_Driver/Src/stm32l4xx_hal_dfsdm.c ****   * @note   This function should be called only if regular conversion is ongoing.
2171:Drivers/STM32L4xx_HAL_Driver/Src/stm32l4xx_hal_dfsdm.c ****   * @param  hdfsdm_filter DFSDM filter handle.
2172:Drivers/STM32L4xx_HAL_Driver/Src/stm32l4xx_hal_dfsdm.c ****   * @retval HAL status
2173:Drivers/STM32L4xx_HAL_Driver/Src/stm32l4xx_hal_dfsdm.c ****   */
2174:Drivers/STM32L4xx_HAL_Driver/Src/stm32l4xx_hal_dfsdm.c **** HAL_StatusTypeDef HAL_DFSDM_FilterRegularStop_DMA(DFSDM_Filter_HandleTypeDef *hdfsdm_filter)
ARM GAS  /tmp/ccrDNuCE.s 			page 97


2175:Drivers/STM32L4xx_HAL_Driver/Src/stm32l4xx_hal_dfsdm.c **** {
 3291              		.loc 1 2175 1
 3292              		.cfi_startproc
 3293              		@ args = 0, pretend = 0, frame = 16
 3294              		@ frame_needed = 1, uses_anonymous_args = 0
 3295 0000 80B5     		push	{r7, lr}
 3296              		.cfi_def_cfa_offset 8
 3297              		.cfi_offset 7, -8
 3298              		.cfi_offset 14, -4
 3299 0002 84B0     		sub	sp, sp, #16
 3300              		.cfi_def_cfa_offset 24
 3301 0004 00AF     		add	r7, sp, #0
 3302              		.cfi_def_cfa_register 7
 3303 0006 7860     		str	r0, [r7, #4]
2176:Drivers/STM32L4xx_HAL_Driver/Src/stm32l4xx_hal_dfsdm.c ****   HAL_StatusTypeDef status = HAL_OK;
 3304              		.loc 1 2176 21
 3305 0008 0023     		movs	r3, #0
 3306 000a FB73     		strb	r3, [r7, #15]
2177:Drivers/STM32L4xx_HAL_Driver/Src/stm32l4xx_hal_dfsdm.c **** 
2178:Drivers/STM32L4xx_HAL_Driver/Src/stm32l4xx_hal_dfsdm.c ****   /* Check parameters */
2179:Drivers/STM32L4xx_HAL_Driver/Src/stm32l4xx_hal_dfsdm.c ****   assert_param(IS_DFSDM_FILTER_ALL_INSTANCE(hdfsdm_filter->Instance));
2180:Drivers/STM32L4xx_HAL_Driver/Src/stm32l4xx_hal_dfsdm.c **** 
2181:Drivers/STM32L4xx_HAL_Driver/Src/stm32l4xx_hal_dfsdm.c ****   /* Check DFSDM filter state */
2182:Drivers/STM32L4xx_HAL_Driver/Src/stm32l4xx_hal_dfsdm.c ****   if ((hdfsdm_filter->State != HAL_DFSDM_FILTER_STATE_REG) && \
 3307              		.loc 1 2182 21
 3308 000c 7B68     		ldr	r3, [r7, #4]
 3309 000e 93F84C30 		ldrb	r3, [r3, #76]	@ zero_extendqisi2
 3310              		.loc 1 2182 6
 3311 0012 022B     		cmp	r3, #2
 3312 0014 07D0     		beq	.L193
2183:Drivers/STM32L4xx_HAL_Driver/Src/stm32l4xx_hal_dfsdm.c ****       (hdfsdm_filter->State != HAL_DFSDM_FILTER_STATE_REG_INJ))
 3313              		.loc 1 2183 21
 3314 0016 7B68     		ldr	r3, [r7, #4]
 3315 0018 93F84C30 		ldrb	r3, [r3, #76]	@ zero_extendqisi2
2182:Drivers/STM32L4xx_HAL_Driver/Src/stm32l4xx_hal_dfsdm.c ****       (hdfsdm_filter->State != HAL_DFSDM_FILTER_STATE_REG_INJ))
 3316              		.loc 1 2182 60 discriminator 1
 3317 001c 042B     		cmp	r3, #4
 3318 001e 02D0     		beq	.L193
2184:Drivers/STM32L4xx_HAL_Driver/Src/stm32l4xx_hal_dfsdm.c ****   {
2185:Drivers/STM32L4xx_HAL_Driver/Src/stm32l4xx_hal_dfsdm.c ****     /* Return error status */
2186:Drivers/STM32L4xx_HAL_Driver/Src/stm32l4xx_hal_dfsdm.c ****     status = HAL_ERROR;
 3319              		.loc 1 2186 12
 3320 0020 0123     		movs	r3, #1
 3321 0022 FB73     		strb	r3, [r7, #15]
 3322 0024 07E0     		b	.L194
 3323              	.L193:
2187:Drivers/STM32L4xx_HAL_Driver/Src/stm32l4xx_hal_dfsdm.c ****   }
2188:Drivers/STM32L4xx_HAL_Driver/Src/stm32l4xx_hal_dfsdm.c ****   else
2189:Drivers/STM32L4xx_HAL_Driver/Src/stm32l4xx_hal_dfsdm.c ****   {
2190:Drivers/STM32L4xx_HAL_Driver/Src/stm32l4xx_hal_dfsdm.c ****     /* Stop current DMA transfer */
2191:Drivers/STM32L4xx_HAL_Driver/Src/stm32l4xx_hal_dfsdm.c ****     /* No need to check the returned value of HAL_DMA_Abort. */
2192:Drivers/STM32L4xx_HAL_Driver/Src/stm32l4xx_hal_dfsdm.c ****     /* Only HAL_DMA_ERROR_NO_XFER can be returned in case of error and it's not an error for DFSDM.
2193:Drivers/STM32L4xx_HAL_Driver/Src/stm32l4xx_hal_dfsdm.c ****     (void) HAL_DMA_Abort(hdfsdm_filter->hdmaReg);
 3324              		.loc 1 2193 12
 3325 0026 7B68     		ldr	r3, [r7, #4]
 3326 0028 9B6A     		ldr	r3, [r3, #40]
 3327 002a 1846     		mov	r0, r3
ARM GAS  /tmp/ccrDNuCE.s 			page 98


 3328 002c FFF7FEFF 		bl	HAL_DMA_Abort
2194:Drivers/STM32L4xx_HAL_Driver/Src/stm32l4xx_hal_dfsdm.c **** 
2195:Drivers/STM32L4xx_HAL_Driver/Src/stm32l4xx_hal_dfsdm.c ****     /* Stop regular conversion */
2196:Drivers/STM32L4xx_HAL_Driver/Src/stm32l4xx_hal_dfsdm.c ****     DFSDM_RegConvStop(hdfsdm_filter);
 3329              		.loc 1 2196 5
 3330 0030 7868     		ldr	r0, [r7, #4]
 3331 0032 FFF7FEFF 		bl	DFSDM_RegConvStop
 3332              	.L194:
2197:Drivers/STM32L4xx_HAL_Driver/Src/stm32l4xx_hal_dfsdm.c ****   }
2198:Drivers/STM32L4xx_HAL_Driver/Src/stm32l4xx_hal_dfsdm.c ****   /* Return function status */
2199:Drivers/STM32L4xx_HAL_Driver/Src/stm32l4xx_hal_dfsdm.c ****   return status;
 3333              		.loc 1 2199 10
 3334 0036 FB7B     		ldrb	r3, [r7, #15]	@ zero_extendqisi2
2200:Drivers/STM32L4xx_HAL_Driver/Src/stm32l4xx_hal_dfsdm.c **** }
 3335              		.loc 1 2200 1
 3336 0038 1846     		mov	r0, r3
 3337 003a 1037     		adds	r7, r7, #16
 3338              		.cfi_def_cfa_offset 8
 3339 003c BD46     		mov	sp, r7
 3340              		.cfi_def_cfa_register 13
 3341              		@ sp needed
 3342 003e 80BD     		pop	{r7, pc}
 3343              		.cfi_endproc
 3344              	.LFE477:
 3346              		.section	.text.HAL_DFSDM_FilterGetRegularValue,"ax",%progbits
 3347              		.align	1
 3348              		.global	HAL_DFSDM_FilterGetRegularValue
 3349              		.syntax unified
 3350              		.thumb
 3351              		.thumb_func
 3353              	HAL_DFSDM_FilterGetRegularValue:
 3354              	.LFB478:
2201:Drivers/STM32L4xx_HAL_Driver/Src/stm32l4xx_hal_dfsdm.c **** 
2202:Drivers/STM32L4xx_HAL_Driver/Src/stm32l4xx_hal_dfsdm.c **** /**
2203:Drivers/STM32L4xx_HAL_Driver/Src/stm32l4xx_hal_dfsdm.c ****   * @brief  This function allows to get regular conversion value.
2204:Drivers/STM32L4xx_HAL_Driver/Src/stm32l4xx_hal_dfsdm.c ****   * @param  hdfsdm_filter DFSDM filter handle.
2205:Drivers/STM32L4xx_HAL_Driver/Src/stm32l4xx_hal_dfsdm.c ****   * @param  Channel Corresponding channel of regular conversion.
2206:Drivers/STM32L4xx_HAL_Driver/Src/stm32l4xx_hal_dfsdm.c ****   * @retval Regular conversion value
2207:Drivers/STM32L4xx_HAL_Driver/Src/stm32l4xx_hal_dfsdm.c ****   */
2208:Drivers/STM32L4xx_HAL_Driver/Src/stm32l4xx_hal_dfsdm.c **** int32_t HAL_DFSDM_FilterGetRegularValue(const DFSDM_Filter_HandleTypeDef *hdfsdm_filter,
2209:Drivers/STM32L4xx_HAL_Driver/Src/stm32l4xx_hal_dfsdm.c ****                                         uint32_t                   *Channel)
2210:Drivers/STM32L4xx_HAL_Driver/Src/stm32l4xx_hal_dfsdm.c **** {
 3355              		.loc 1 2210 1
 3356              		.cfi_startproc
 3357              		@ args = 0, pretend = 0, frame = 16
 3358              		@ frame_needed = 1, uses_anonymous_args = 0
 3359              		@ link register save eliminated.
 3360 0000 80B4     		push	{r7}
 3361              		.cfi_def_cfa_offset 4
 3362              		.cfi_offset 7, -4
 3363 0002 85B0     		sub	sp, sp, #20
 3364              		.cfi_def_cfa_offset 24
 3365 0004 00AF     		add	r7, sp, #0
 3366              		.cfi_def_cfa_register 7
 3367 0006 7860     		str	r0, [r7, #4]
 3368 0008 3960     		str	r1, [r7]
2211:Drivers/STM32L4xx_HAL_Driver/Src/stm32l4xx_hal_dfsdm.c ****   uint32_t reg;
ARM GAS  /tmp/ccrDNuCE.s 			page 99


2212:Drivers/STM32L4xx_HAL_Driver/Src/stm32l4xx_hal_dfsdm.c ****   int32_t  value;
2213:Drivers/STM32L4xx_HAL_Driver/Src/stm32l4xx_hal_dfsdm.c **** 
2214:Drivers/STM32L4xx_HAL_Driver/Src/stm32l4xx_hal_dfsdm.c ****   /* Check parameters */
2215:Drivers/STM32L4xx_HAL_Driver/Src/stm32l4xx_hal_dfsdm.c ****   assert_param(IS_DFSDM_FILTER_ALL_INSTANCE(hdfsdm_filter->Instance));
2216:Drivers/STM32L4xx_HAL_Driver/Src/stm32l4xx_hal_dfsdm.c ****   assert_param(Channel != (void *)0);
2217:Drivers/STM32L4xx_HAL_Driver/Src/stm32l4xx_hal_dfsdm.c **** 
2218:Drivers/STM32L4xx_HAL_Driver/Src/stm32l4xx_hal_dfsdm.c ****   /* Get value of data register for regular channel */
2219:Drivers/STM32L4xx_HAL_Driver/Src/stm32l4xx_hal_dfsdm.c ****   reg = hdfsdm_filter->Instance->FLTRDATAR;
 3369              		.loc 1 2219 22
 3370 000a 7B68     		ldr	r3, [r7, #4]
 3371 000c 1B68     		ldr	r3, [r3]
 3372              		.loc 1 2219 7
 3373 000e DB69     		ldr	r3, [r3, #28]
 3374 0010 FB60     		str	r3, [r7, #12]
2220:Drivers/STM32L4xx_HAL_Driver/Src/stm32l4xx_hal_dfsdm.c **** 
2221:Drivers/STM32L4xx_HAL_Driver/Src/stm32l4xx_hal_dfsdm.c ****   /* Extract channel and regular conversion value */
2222:Drivers/STM32L4xx_HAL_Driver/Src/stm32l4xx_hal_dfsdm.c ****   *Channel = (reg & DFSDM_FLTRDATAR_RDATACH);
 3375              		.loc 1 2222 19
 3376 0012 FB68     		ldr	r3, [r7, #12]
 3377 0014 03F00702 		and	r2, r3, #7
 3378              		.loc 1 2222 12
 3379 0018 3B68     		ldr	r3, [r7]
 3380 001a 1A60     		str	r2, [r3]
2223:Drivers/STM32L4xx_HAL_Driver/Src/stm32l4xx_hal_dfsdm.c ****   /* Regular conversion value is a signed value located on 24 MSB of register */
2224:Drivers/STM32L4xx_HAL_Driver/Src/stm32l4xx_hal_dfsdm.c ****   /* So after applying a mask on these bits we have to perform a division by 256 (2 raised to the p
2225:Drivers/STM32L4xx_HAL_Driver/Src/stm32l4xx_hal_dfsdm.c ****   reg &= DFSDM_FLTRDATAR_RDATA;
 3381              		.loc 1 2225 7
 3382 001c FB68     		ldr	r3, [r7, #12]
 3383 001e 23F0FF03 		bic	r3, r3, #255
 3384 0022 FB60     		str	r3, [r7, #12]
2226:Drivers/STM32L4xx_HAL_Driver/Src/stm32l4xx_hal_dfsdm.c ****   value = ((int32_t)reg) / 256;
 3385              		.loc 1 2226 12
 3386 0024 FB68     		ldr	r3, [r7, #12]
 3387              		.loc 1 2226 9
 3388 0026 002B     		cmp	r3, #0
 3389 0028 00DA     		bge	.L197
 3390 002a FF33     		adds	r3, r3, #255
 3391              	.L197:
 3392 002c 1B12     		asrs	r3, r3, #8
 3393 002e BB60     		str	r3, [r7, #8]
2227:Drivers/STM32L4xx_HAL_Driver/Src/stm32l4xx_hal_dfsdm.c **** 
2228:Drivers/STM32L4xx_HAL_Driver/Src/stm32l4xx_hal_dfsdm.c ****   /* return regular conversion value */
2229:Drivers/STM32L4xx_HAL_Driver/Src/stm32l4xx_hal_dfsdm.c ****   return value;
 3394              		.loc 1 2229 10
 3395 0030 BB68     		ldr	r3, [r7, #8]
2230:Drivers/STM32L4xx_HAL_Driver/Src/stm32l4xx_hal_dfsdm.c **** }
 3396              		.loc 1 2230 1
 3397 0032 1846     		mov	r0, r3
 3398 0034 1437     		adds	r7, r7, #20
 3399              		.cfi_def_cfa_offset 4
 3400 0036 BD46     		mov	sp, r7
 3401              		.cfi_def_cfa_register 13
 3402              		@ sp needed
 3403 0038 5DF8047B 		ldr	r7, [sp], #4
 3404              		.cfi_restore 7
 3405              		.cfi_def_cfa_offset 0
 3406 003c 7047     		bx	lr
ARM GAS  /tmp/ccrDNuCE.s 			page 100


 3407              		.cfi_endproc
 3408              	.LFE478:
 3410              		.section	.text.HAL_DFSDM_FilterInjectedStart,"ax",%progbits
 3411              		.align	1
 3412              		.global	HAL_DFSDM_FilterInjectedStart
 3413              		.syntax unified
 3414              		.thumb
 3415              		.thumb_func
 3417              	HAL_DFSDM_FilterInjectedStart:
 3418              	.LFB479:
2231:Drivers/STM32L4xx_HAL_Driver/Src/stm32l4xx_hal_dfsdm.c **** 
2232:Drivers/STM32L4xx_HAL_Driver/Src/stm32l4xx_hal_dfsdm.c **** /**
2233:Drivers/STM32L4xx_HAL_Driver/Src/stm32l4xx_hal_dfsdm.c ****   * @brief  This function allows to start injected conversion in polling mode.
2234:Drivers/STM32L4xx_HAL_Driver/Src/stm32l4xx_hal_dfsdm.c ****   * @note   This function should be called only when DFSDM filter instance is
2235:Drivers/STM32L4xx_HAL_Driver/Src/stm32l4xx_hal_dfsdm.c ****   *         in idle state or if regular conversion is ongoing.
2236:Drivers/STM32L4xx_HAL_Driver/Src/stm32l4xx_hal_dfsdm.c ****   * @param  hdfsdm_filter DFSDM filter handle.
2237:Drivers/STM32L4xx_HAL_Driver/Src/stm32l4xx_hal_dfsdm.c ****   * @retval HAL status
2238:Drivers/STM32L4xx_HAL_Driver/Src/stm32l4xx_hal_dfsdm.c ****   */
2239:Drivers/STM32L4xx_HAL_Driver/Src/stm32l4xx_hal_dfsdm.c **** HAL_StatusTypeDef HAL_DFSDM_FilterInjectedStart(DFSDM_Filter_HandleTypeDef *hdfsdm_filter)
2240:Drivers/STM32L4xx_HAL_Driver/Src/stm32l4xx_hal_dfsdm.c **** {
 3419              		.loc 1 2240 1
 3420              		.cfi_startproc
 3421              		@ args = 0, pretend = 0, frame = 16
 3422              		@ frame_needed = 1, uses_anonymous_args = 0
 3423 0000 80B5     		push	{r7, lr}
 3424              		.cfi_def_cfa_offset 8
 3425              		.cfi_offset 7, -8
 3426              		.cfi_offset 14, -4
 3427 0002 84B0     		sub	sp, sp, #16
 3428              		.cfi_def_cfa_offset 24
 3429 0004 00AF     		add	r7, sp, #0
 3430              		.cfi_def_cfa_register 7
 3431 0006 7860     		str	r0, [r7, #4]
2241:Drivers/STM32L4xx_HAL_Driver/Src/stm32l4xx_hal_dfsdm.c ****   HAL_StatusTypeDef status = HAL_OK;
 3432              		.loc 1 2241 21
 3433 0008 0023     		movs	r3, #0
 3434 000a FB73     		strb	r3, [r7, #15]
2242:Drivers/STM32L4xx_HAL_Driver/Src/stm32l4xx_hal_dfsdm.c **** 
2243:Drivers/STM32L4xx_HAL_Driver/Src/stm32l4xx_hal_dfsdm.c ****   /* Check parameters */
2244:Drivers/STM32L4xx_HAL_Driver/Src/stm32l4xx_hal_dfsdm.c ****   assert_param(IS_DFSDM_FILTER_ALL_INSTANCE(hdfsdm_filter->Instance));
2245:Drivers/STM32L4xx_HAL_Driver/Src/stm32l4xx_hal_dfsdm.c **** 
2246:Drivers/STM32L4xx_HAL_Driver/Src/stm32l4xx_hal_dfsdm.c ****   /* Check DFSDM filter state */
2247:Drivers/STM32L4xx_HAL_Driver/Src/stm32l4xx_hal_dfsdm.c ****   if ((hdfsdm_filter->State == HAL_DFSDM_FILTER_STATE_READY) || \
 3435              		.loc 1 2247 21
 3436 000c 7B68     		ldr	r3, [r7, #4]
 3437 000e 93F84C30 		ldrb	r3, [r3, #76]	@ zero_extendqisi2
 3438              		.loc 1 2247 6
 3439 0012 012B     		cmp	r3, #1
 3440 0014 04D0     		beq	.L200
2248:Drivers/STM32L4xx_HAL_Driver/Src/stm32l4xx_hal_dfsdm.c ****       (hdfsdm_filter->State == HAL_DFSDM_FILTER_STATE_REG))
 3441              		.loc 1 2248 21
 3442 0016 7B68     		ldr	r3, [r7, #4]
 3443 0018 93F84C30 		ldrb	r3, [r3, #76]	@ zero_extendqisi2
2247:Drivers/STM32L4xx_HAL_Driver/Src/stm32l4xx_hal_dfsdm.c ****       (hdfsdm_filter->State == HAL_DFSDM_FILTER_STATE_REG))
 3444              		.loc 1 2247 62 discriminator 1
 3445 001c 022B     		cmp	r3, #2
 3446 001e 03D1     		bne	.L201
ARM GAS  /tmp/ccrDNuCE.s 			page 101


 3447              	.L200:
2249:Drivers/STM32L4xx_HAL_Driver/Src/stm32l4xx_hal_dfsdm.c ****   {
2250:Drivers/STM32L4xx_HAL_Driver/Src/stm32l4xx_hal_dfsdm.c ****     /* Start injected conversion */
2251:Drivers/STM32L4xx_HAL_Driver/Src/stm32l4xx_hal_dfsdm.c ****     DFSDM_InjConvStart(hdfsdm_filter);
 3448              		.loc 1 2251 5
 3449 0020 7868     		ldr	r0, [r7, #4]
 3450 0022 FFF7FEFF 		bl	DFSDM_InjConvStart
 3451 0026 01E0     		b	.L202
 3452              	.L201:
2252:Drivers/STM32L4xx_HAL_Driver/Src/stm32l4xx_hal_dfsdm.c ****   }
2253:Drivers/STM32L4xx_HAL_Driver/Src/stm32l4xx_hal_dfsdm.c ****   else
2254:Drivers/STM32L4xx_HAL_Driver/Src/stm32l4xx_hal_dfsdm.c ****   {
2255:Drivers/STM32L4xx_HAL_Driver/Src/stm32l4xx_hal_dfsdm.c ****     status = HAL_ERROR;
 3453              		.loc 1 2255 12
 3454 0028 0123     		movs	r3, #1
 3455 002a FB73     		strb	r3, [r7, #15]
 3456              	.L202:
2256:Drivers/STM32L4xx_HAL_Driver/Src/stm32l4xx_hal_dfsdm.c ****   }
2257:Drivers/STM32L4xx_HAL_Driver/Src/stm32l4xx_hal_dfsdm.c ****   /* Return function status */
2258:Drivers/STM32L4xx_HAL_Driver/Src/stm32l4xx_hal_dfsdm.c ****   return status;
 3457              		.loc 1 2258 10
 3458 002c FB7B     		ldrb	r3, [r7, #15]	@ zero_extendqisi2
2259:Drivers/STM32L4xx_HAL_Driver/Src/stm32l4xx_hal_dfsdm.c **** }
 3459              		.loc 1 2259 1
 3460 002e 1846     		mov	r0, r3
 3461 0030 1037     		adds	r7, r7, #16
 3462              		.cfi_def_cfa_offset 8
 3463 0032 BD46     		mov	sp, r7
 3464              		.cfi_def_cfa_register 13
 3465              		@ sp needed
 3466 0034 80BD     		pop	{r7, pc}
 3467              		.cfi_endproc
 3468              	.LFE479:
 3470              		.section	.text.HAL_DFSDM_FilterPollForInjConversion,"ax",%progbits
 3471              		.align	1
 3472              		.global	HAL_DFSDM_FilterPollForInjConversion
 3473              		.syntax unified
 3474              		.thumb
 3475              		.thumb_func
 3477              	HAL_DFSDM_FilterPollForInjConversion:
 3478              	.LFB480:
2260:Drivers/STM32L4xx_HAL_Driver/Src/stm32l4xx_hal_dfsdm.c **** 
2261:Drivers/STM32L4xx_HAL_Driver/Src/stm32l4xx_hal_dfsdm.c **** /**
2262:Drivers/STM32L4xx_HAL_Driver/Src/stm32l4xx_hal_dfsdm.c ****   * @brief  This function allows to poll for the end of injected conversion.
2263:Drivers/STM32L4xx_HAL_Driver/Src/stm32l4xx_hal_dfsdm.c ****   * @note   This function should be called only if injected conversion is ongoing.
2264:Drivers/STM32L4xx_HAL_Driver/Src/stm32l4xx_hal_dfsdm.c ****   * @param  hdfsdm_filter DFSDM filter handle.
2265:Drivers/STM32L4xx_HAL_Driver/Src/stm32l4xx_hal_dfsdm.c ****   * @param  Timeout Timeout value in milliseconds.
2266:Drivers/STM32L4xx_HAL_Driver/Src/stm32l4xx_hal_dfsdm.c ****   * @retval HAL status
2267:Drivers/STM32L4xx_HAL_Driver/Src/stm32l4xx_hal_dfsdm.c ****   */
2268:Drivers/STM32L4xx_HAL_Driver/Src/stm32l4xx_hal_dfsdm.c **** HAL_StatusTypeDef HAL_DFSDM_FilterPollForInjConversion(DFSDM_Filter_HandleTypeDef *hdfsdm_filter,
2269:Drivers/STM32L4xx_HAL_Driver/Src/stm32l4xx_hal_dfsdm.c ****                                                        uint32_t                    Timeout)
2270:Drivers/STM32L4xx_HAL_Driver/Src/stm32l4xx_hal_dfsdm.c **** {
 3479              		.loc 1 2270 1
 3480              		.cfi_startproc
 3481              		@ args = 0, pretend = 0, frame = 16
 3482              		@ frame_needed = 1, uses_anonymous_args = 0
 3483 0000 80B5     		push	{r7, lr}
ARM GAS  /tmp/ccrDNuCE.s 			page 102


 3484              		.cfi_def_cfa_offset 8
 3485              		.cfi_offset 7, -8
 3486              		.cfi_offset 14, -4
 3487 0002 84B0     		sub	sp, sp, #16
 3488              		.cfi_def_cfa_offset 24
 3489 0004 00AF     		add	r7, sp, #0
 3490              		.cfi_def_cfa_register 7
 3491 0006 7860     		str	r0, [r7, #4]
 3492 0008 3960     		str	r1, [r7]
2271:Drivers/STM32L4xx_HAL_Driver/Src/stm32l4xx_hal_dfsdm.c ****   uint32_t tickstart;
2272:Drivers/STM32L4xx_HAL_Driver/Src/stm32l4xx_hal_dfsdm.c **** 
2273:Drivers/STM32L4xx_HAL_Driver/Src/stm32l4xx_hal_dfsdm.c ****   /* Check parameters */
2274:Drivers/STM32L4xx_HAL_Driver/Src/stm32l4xx_hal_dfsdm.c ****   assert_param(IS_DFSDM_FILTER_ALL_INSTANCE(hdfsdm_filter->Instance));
2275:Drivers/STM32L4xx_HAL_Driver/Src/stm32l4xx_hal_dfsdm.c **** 
2276:Drivers/STM32L4xx_HAL_Driver/Src/stm32l4xx_hal_dfsdm.c ****   /* Check DFSDM filter state */
2277:Drivers/STM32L4xx_HAL_Driver/Src/stm32l4xx_hal_dfsdm.c ****   if ((hdfsdm_filter->State != HAL_DFSDM_FILTER_STATE_INJ) && \
 3493              		.loc 1 2277 21
 3494 000a 7B68     		ldr	r3, [r7, #4]
 3495 000c 93F84C30 		ldrb	r3, [r3, #76]	@ zero_extendqisi2
 3496              		.loc 1 2277 6
 3497 0010 032B     		cmp	r3, #3
 3498 0012 06D0     		beq	.L205
2278:Drivers/STM32L4xx_HAL_Driver/Src/stm32l4xx_hal_dfsdm.c ****       (hdfsdm_filter->State != HAL_DFSDM_FILTER_STATE_REG_INJ))
 3499              		.loc 1 2278 21
 3500 0014 7B68     		ldr	r3, [r7, #4]
 3501 0016 93F84C30 		ldrb	r3, [r3, #76]	@ zero_extendqisi2
2277:Drivers/STM32L4xx_HAL_Driver/Src/stm32l4xx_hal_dfsdm.c ****       (hdfsdm_filter->State != HAL_DFSDM_FILTER_STATE_REG_INJ))
 3502              		.loc 1 2277 60 discriminator 1
 3503 001a 042B     		cmp	r3, #4
 3504 001c 01D0     		beq	.L205
2279:Drivers/STM32L4xx_HAL_Driver/Src/stm32l4xx_hal_dfsdm.c ****   {
2280:Drivers/STM32L4xx_HAL_Driver/Src/stm32l4xx_hal_dfsdm.c ****     /* Return error status */
2281:Drivers/STM32L4xx_HAL_Driver/Src/stm32l4xx_hal_dfsdm.c ****     return HAL_ERROR;
 3505              		.loc 1 2281 12
 3506 001e 0123     		movs	r3, #1
 3507 0020 50E0     		b	.L206
 3508              	.L205:
2282:Drivers/STM32L4xx_HAL_Driver/Src/stm32l4xx_hal_dfsdm.c ****   }
2283:Drivers/STM32L4xx_HAL_Driver/Src/stm32l4xx_hal_dfsdm.c ****   else
2284:Drivers/STM32L4xx_HAL_Driver/Src/stm32l4xx_hal_dfsdm.c ****   {
2285:Drivers/STM32L4xx_HAL_Driver/Src/stm32l4xx_hal_dfsdm.c ****     /* Get timeout */
2286:Drivers/STM32L4xx_HAL_Driver/Src/stm32l4xx_hal_dfsdm.c ****     tickstart = HAL_GetTick();
 3509              		.loc 1 2286 17
 3510 0022 FFF7FEFF 		bl	HAL_GetTick
 3511 0026 F860     		str	r0, [r7, #12]
2287:Drivers/STM32L4xx_HAL_Driver/Src/stm32l4xx_hal_dfsdm.c **** 
2288:Drivers/STM32L4xx_HAL_Driver/Src/stm32l4xx_hal_dfsdm.c ****     /* Wait end of injected conversions */
2289:Drivers/STM32L4xx_HAL_Driver/Src/stm32l4xx_hal_dfsdm.c ****     while ((hdfsdm_filter->Instance->FLTISR & DFSDM_FLTISR_JEOCF) != DFSDM_FLTISR_JEOCF)
 3512              		.loc 1 2289 11
 3513 0028 10E0     		b	.L208
 3514              	.L210:
2290:Drivers/STM32L4xx_HAL_Driver/Src/stm32l4xx_hal_dfsdm.c ****     {
2291:Drivers/STM32L4xx_HAL_Driver/Src/stm32l4xx_hal_dfsdm.c ****       /* Check the Timeout */
2292:Drivers/STM32L4xx_HAL_Driver/Src/stm32l4xx_hal_dfsdm.c ****       if (Timeout != HAL_MAX_DELAY)
 3515              		.loc 1 2292 10
 3516 002a 3B68     		ldr	r3, [r7]
 3517 002c B3F1FF3F 		cmp	r3, #-1
ARM GAS  /tmp/ccrDNuCE.s 			page 103


 3518 0030 0CD0     		beq	.L208
2293:Drivers/STM32L4xx_HAL_Driver/Src/stm32l4xx_hal_dfsdm.c ****       {
2294:Drivers/STM32L4xx_HAL_Driver/Src/stm32l4xx_hal_dfsdm.c ****         if (((HAL_GetTick() - tickstart) > Timeout) || (Timeout == 0U))
 3519              		.loc 1 2294 15
 3520 0032 FFF7FEFF 		bl	HAL_GetTick
 3521 0036 0246     		mov	r2, r0
 3522              		.loc 1 2294 29 discriminator 1
 3523 0038 FB68     		ldr	r3, [r7, #12]
 3524 003a D31A     		subs	r3, r2, r3
 3525              		.loc 1 2294 12 discriminator 1
 3526 003c 3A68     		ldr	r2, [r7]
 3527 003e 9A42     		cmp	r2, r3
 3528 0040 02D3     		bcc	.L209
 3529              		.loc 1 2294 53 discriminator 1
 3530 0042 3B68     		ldr	r3, [r7]
 3531 0044 002B     		cmp	r3, #0
 3532 0046 01D1     		bne	.L208
 3533              	.L209:
2295:Drivers/STM32L4xx_HAL_Driver/Src/stm32l4xx_hal_dfsdm.c ****         {
2296:Drivers/STM32L4xx_HAL_Driver/Src/stm32l4xx_hal_dfsdm.c ****           /* Return timeout status */
2297:Drivers/STM32L4xx_HAL_Driver/Src/stm32l4xx_hal_dfsdm.c ****           return HAL_TIMEOUT;
 3534              		.loc 1 2297 18
 3535 0048 0323     		movs	r3, #3
 3536 004a 3BE0     		b	.L206
 3537              	.L208:
2289:Drivers/STM32L4xx_HAL_Driver/Src/stm32l4xx_hal_dfsdm.c ****     {
 3538              		.loc 1 2289 26
 3539 004c 7B68     		ldr	r3, [r7, #4]
 3540 004e 1B68     		ldr	r3, [r3]
2289:Drivers/STM32L4xx_HAL_Driver/Src/stm32l4xx_hal_dfsdm.c ****     {
 3541              		.loc 1 2289 36
 3542 0050 9B68     		ldr	r3, [r3, #8]
2289:Drivers/STM32L4xx_HAL_Driver/Src/stm32l4xx_hal_dfsdm.c ****     {
 3543              		.loc 1 2289 45
 3544 0052 03F00103 		and	r3, r3, #1
2289:Drivers/STM32L4xx_HAL_Driver/Src/stm32l4xx_hal_dfsdm.c ****     {
 3545              		.loc 1 2289 67
 3546 0056 012B     		cmp	r3, #1
 3547 0058 E7D1     		bne	.L210
2298:Drivers/STM32L4xx_HAL_Driver/Src/stm32l4xx_hal_dfsdm.c ****         }
2299:Drivers/STM32L4xx_HAL_Driver/Src/stm32l4xx_hal_dfsdm.c ****       }
2300:Drivers/STM32L4xx_HAL_Driver/Src/stm32l4xx_hal_dfsdm.c ****     }
2301:Drivers/STM32L4xx_HAL_Driver/Src/stm32l4xx_hal_dfsdm.c ****     /* Check if overrun occurs */
2302:Drivers/STM32L4xx_HAL_Driver/Src/stm32l4xx_hal_dfsdm.c ****     if ((hdfsdm_filter->Instance->FLTISR & DFSDM_FLTISR_JOVRF) == DFSDM_FLTISR_JOVRF)
 3548              		.loc 1 2302 23
 3549 005a 7B68     		ldr	r3, [r7, #4]
 3550 005c 1B68     		ldr	r3, [r3]
 3551              		.loc 1 2302 33
 3552 005e 9B68     		ldr	r3, [r3, #8]
 3553              		.loc 1 2302 42
 3554 0060 03F00403 		and	r3, r3, #4
 3555              		.loc 1 2302 8
 3556 0064 042B     		cmp	r3, #4
 3557 0066 09D1     		bne	.L211
2303:Drivers/STM32L4xx_HAL_Driver/Src/stm32l4xx_hal_dfsdm.c ****     {
2304:Drivers/STM32L4xx_HAL_Driver/Src/stm32l4xx_hal_dfsdm.c ****       /* Update error code and call error callback */
2305:Drivers/STM32L4xx_HAL_Driver/Src/stm32l4xx_hal_dfsdm.c ****       hdfsdm_filter->ErrorCode = DFSDM_FILTER_ERROR_INJECTED_OVERRUN;
ARM GAS  /tmp/ccrDNuCE.s 			page 104


 3558              		.loc 1 2305 32
 3559 0068 7B68     		ldr	r3, [r7, #4]
 3560 006a 0222     		movs	r2, #2
 3561 006c 1A65     		str	r2, [r3, #80]
2306:Drivers/STM32L4xx_HAL_Driver/Src/stm32l4xx_hal_dfsdm.c **** #if (USE_HAL_DFSDM_REGISTER_CALLBACKS == 1)
2307:Drivers/STM32L4xx_HAL_Driver/Src/stm32l4xx_hal_dfsdm.c ****       hdfsdm_filter->ErrorCallback(hdfsdm_filter);
2308:Drivers/STM32L4xx_HAL_Driver/Src/stm32l4xx_hal_dfsdm.c **** #else
2309:Drivers/STM32L4xx_HAL_Driver/Src/stm32l4xx_hal_dfsdm.c ****       HAL_DFSDM_FilterErrorCallback(hdfsdm_filter);
 3562              		.loc 1 2309 7
 3563 006e 7868     		ldr	r0, [r7, #4]
 3564 0070 FFF7FEFF 		bl	HAL_DFSDM_FilterErrorCallback
2310:Drivers/STM32L4xx_HAL_Driver/Src/stm32l4xx_hal_dfsdm.c **** #endif
2311:Drivers/STM32L4xx_HAL_Driver/Src/stm32l4xx_hal_dfsdm.c **** 
2312:Drivers/STM32L4xx_HAL_Driver/Src/stm32l4xx_hal_dfsdm.c ****       /* Clear injected overrun flag */
2313:Drivers/STM32L4xx_HAL_Driver/Src/stm32l4xx_hal_dfsdm.c ****       hdfsdm_filter->Instance->FLTICR = DFSDM_FLTICR_CLRJOVRF;
 3565              		.loc 1 2313 20
 3566 0074 7B68     		ldr	r3, [r7, #4]
 3567 0076 1B68     		ldr	r3, [r3]
 3568              		.loc 1 2313 39
 3569 0078 0422     		movs	r2, #4
 3570 007a DA60     		str	r2, [r3, #12]
 3571              	.L211:
2314:Drivers/STM32L4xx_HAL_Driver/Src/stm32l4xx_hal_dfsdm.c ****     }
2315:Drivers/STM32L4xx_HAL_Driver/Src/stm32l4xx_hal_dfsdm.c **** 
2316:Drivers/STM32L4xx_HAL_Driver/Src/stm32l4xx_hal_dfsdm.c ****     /* Update remaining injected conversions */
2317:Drivers/STM32L4xx_HAL_Driver/Src/stm32l4xx_hal_dfsdm.c ****     hdfsdm_filter->InjConvRemaining--;
 3572              		.loc 1 2317 18
 3573 007c 7B68     		ldr	r3, [r7, #4]
 3574 007e 9B6C     		ldr	r3, [r3, #72]
 3575              		.loc 1 2317 36
 3576 0080 5A1E     		subs	r2, r3, #1
 3577 0082 7B68     		ldr	r3, [r7, #4]
 3578 0084 9A64     		str	r2, [r3, #72]
2318:Drivers/STM32L4xx_HAL_Driver/Src/stm32l4xx_hal_dfsdm.c ****     if (hdfsdm_filter->InjConvRemaining == 0U)
 3579              		.loc 1 2318 22
 3580 0086 7B68     		ldr	r3, [r7, #4]
 3581 0088 9B6C     		ldr	r3, [r3, #72]
 3582              		.loc 1 2318 8
 3583 008a 002B     		cmp	r3, #0
 3584 008c 19D1     		bne	.L212
2319:Drivers/STM32L4xx_HAL_Driver/Src/stm32l4xx_hal_dfsdm.c ****     {
2320:Drivers/STM32L4xx_HAL_Driver/Src/stm32l4xx_hal_dfsdm.c ****       /* Update DFSDM filter state only if trigger is software */
2321:Drivers/STM32L4xx_HAL_Driver/Src/stm32l4xx_hal_dfsdm.c ****       if (hdfsdm_filter->InjectedTrigger == DFSDM_FILTER_SW_TRIGGER)
 3585              		.loc 1 2321 24
 3586 008e 7B68     		ldr	r3, [r7, #4]
 3587 0090 9B6B     		ldr	r3, [r3, #56]
 3588              		.loc 1 2321 10
 3589 0092 002B     		cmp	r3, #0
 3590 0094 0AD1     		bne	.L213
2322:Drivers/STM32L4xx_HAL_Driver/Src/stm32l4xx_hal_dfsdm.c ****       {
2323:Drivers/STM32L4xx_HAL_Driver/Src/stm32l4xx_hal_dfsdm.c ****         hdfsdm_filter->State = (hdfsdm_filter->State == HAL_DFSDM_FILTER_STATE_INJ) ? \
 3591              		.loc 1 2323 46
 3592 0096 7B68     		ldr	r3, [r7, #4]
 3593 0098 93F84C30 		ldrb	r3, [r3, #76]	@ zero_extendqisi2
2324:Drivers/STM32L4xx_HAL_Driver/Src/stm32l4xx_hal_dfsdm.c ****                                HAL_DFSDM_FILTER_STATE_READY : HAL_DFSDM_FILTER_STATE_REG;
 3594              		.loc 1 2324 61
 3595 009c 032B     		cmp	r3, #3
ARM GAS  /tmp/ccrDNuCE.s 			page 105


 3596 009e 01D1     		bne	.L214
 3597              		.loc 1 2324 61 is_stmt 0 discriminator 1
 3598 00a0 0122     		movs	r2, #1
 3599 00a2 00E0     		b	.L215
 3600              	.L214:
 3601              		.loc 1 2324 61 discriminator 2
 3602 00a4 0222     		movs	r2, #2
 3603              	.L215:
2323:Drivers/STM32L4xx_HAL_Driver/Src/stm32l4xx_hal_dfsdm.c ****                                HAL_DFSDM_FILTER_STATE_READY : HAL_DFSDM_FILTER_STATE_REG;
 3604              		.loc 1 2323 30 is_stmt 1
 3605 00a6 7B68     		ldr	r3, [r7, #4]
 3606 00a8 83F84C20 		strb	r2, [r3, #76]
 3607              	.L213:
2325:Drivers/STM32L4xx_HAL_Driver/Src/stm32l4xx_hal_dfsdm.c ****       }
2326:Drivers/STM32L4xx_HAL_Driver/Src/stm32l4xx_hal_dfsdm.c **** 
2327:Drivers/STM32L4xx_HAL_Driver/Src/stm32l4xx_hal_dfsdm.c ****       /* end of injected sequence, reset the value */
2328:Drivers/STM32L4xx_HAL_Driver/Src/stm32l4xx_hal_dfsdm.c ****       hdfsdm_filter->InjConvRemaining = (hdfsdm_filter->InjectedScanMode == ENABLE) ? \
 3608              		.loc 1 2328 55
 3609 00ac 7B68     		ldr	r3, [r7, #4]
 3610 00ae 93F84030 		ldrb	r3, [r3, #64]	@ zero_extendqisi2
2329:Drivers/STM32L4xx_HAL_Driver/Src/stm32l4xx_hal_dfsdm.c ****                                         hdfsdm_filter->InjectedChannelsNbr : 1U;
 3611              		.loc 1 2329 76
 3612 00b2 012B     		cmp	r3, #1
 3613 00b4 02D1     		bne	.L216
 3614              		.loc 1 2329 76 is_stmt 0 discriminator 1
 3615 00b6 7B68     		ldr	r3, [r7, #4]
 3616 00b8 5B6C     		ldr	r3, [r3, #68]
 3617 00ba 00E0     		b	.L217
 3618              	.L216:
 3619              		.loc 1 2329 76 discriminator 2
 3620 00bc 0123     		movs	r3, #1
 3621              	.L217:
2328:Drivers/STM32L4xx_HAL_Driver/Src/stm32l4xx_hal_dfsdm.c ****                                         hdfsdm_filter->InjectedChannelsNbr : 1U;
 3622              		.loc 1 2328 39 is_stmt 1
 3623 00be 7A68     		ldr	r2, [r7, #4]
 3624 00c0 9364     		str	r3, [r2, #72]
 3625              	.L212:
2330:Drivers/STM32L4xx_HAL_Driver/Src/stm32l4xx_hal_dfsdm.c ****     }
2331:Drivers/STM32L4xx_HAL_Driver/Src/stm32l4xx_hal_dfsdm.c **** 
2332:Drivers/STM32L4xx_HAL_Driver/Src/stm32l4xx_hal_dfsdm.c ****     /* Return function status */
2333:Drivers/STM32L4xx_HAL_Driver/Src/stm32l4xx_hal_dfsdm.c ****     return HAL_OK;
 3626              		.loc 1 2333 12
 3627 00c2 0023     		movs	r3, #0
 3628              	.L206:
2334:Drivers/STM32L4xx_HAL_Driver/Src/stm32l4xx_hal_dfsdm.c ****   }
2335:Drivers/STM32L4xx_HAL_Driver/Src/stm32l4xx_hal_dfsdm.c **** }
 3629              		.loc 1 2335 1
 3630 00c4 1846     		mov	r0, r3
 3631 00c6 1037     		adds	r7, r7, #16
 3632              		.cfi_def_cfa_offset 8
 3633 00c8 BD46     		mov	sp, r7
 3634              		.cfi_def_cfa_register 13
 3635              		@ sp needed
 3636 00ca 80BD     		pop	{r7, pc}
 3637              		.cfi_endproc
 3638              	.LFE480:
 3640              		.section	.text.HAL_DFSDM_FilterInjectedStop,"ax",%progbits
ARM GAS  /tmp/ccrDNuCE.s 			page 106


 3641              		.align	1
 3642              		.global	HAL_DFSDM_FilterInjectedStop
 3643              		.syntax unified
 3644              		.thumb
 3645              		.thumb_func
 3647              	HAL_DFSDM_FilterInjectedStop:
 3648              	.LFB481:
2336:Drivers/STM32L4xx_HAL_Driver/Src/stm32l4xx_hal_dfsdm.c **** 
2337:Drivers/STM32L4xx_HAL_Driver/Src/stm32l4xx_hal_dfsdm.c **** /**
2338:Drivers/STM32L4xx_HAL_Driver/Src/stm32l4xx_hal_dfsdm.c ****   * @brief  This function allows to stop injected conversion in polling mode.
2339:Drivers/STM32L4xx_HAL_Driver/Src/stm32l4xx_hal_dfsdm.c ****   * @note   This function should be called only if injected conversion is ongoing.
2340:Drivers/STM32L4xx_HAL_Driver/Src/stm32l4xx_hal_dfsdm.c ****   * @param  hdfsdm_filter DFSDM filter handle.
2341:Drivers/STM32L4xx_HAL_Driver/Src/stm32l4xx_hal_dfsdm.c ****   * @retval HAL status
2342:Drivers/STM32L4xx_HAL_Driver/Src/stm32l4xx_hal_dfsdm.c ****   */
2343:Drivers/STM32L4xx_HAL_Driver/Src/stm32l4xx_hal_dfsdm.c **** HAL_StatusTypeDef HAL_DFSDM_FilterInjectedStop(DFSDM_Filter_HandleTypeDef *hdfsdm_filter)
2344:Drivers/STM32L4xx_HAL_Driver/Src/stm32l4xx_hal_dfsdm.c **** {
 3649              		.loc 1 2344 1
 3650              		.cfi_startproc
 3651              		@ args = 0, pretend = 0, frame = 16
 3652              		@ frame_needed = 1, uses_anonymous_args = 0
 3653 0000 80B5     		push	{r7, lr}
 3654              		.cfi_def_cfa_offset 8
 3655              		.cfi_offset 7, -8
 3656              		.cfi_offset 14, -4
 3657 0002 84B0     		sub	sp, sp, #16
 3658              		.cfi_def_cfa_offset 24
 3659 0004 00AF     		add	r7, sp, #0
 3660              		.cfi_def_cfa_register 7
 3661 0006 7860     		str	r0, [r7, #4]
2345:Drivers/STM32L4xx_HAL_Driver/Src/stm32l4xx_hal_dfsdm.c ****   HAL_StatusTypeDef status = HAL_OK;
 3662              		.loc 1 2345 21
 3663 0008 0023     		movs	r3, #0
 3664 000a FB73     		strb	r3, [r7, #15]
2346:Drivers/STM32L4xx_HAL_Driver/Src/stm32l4xx_hal_dfsdm.c **** 
2347:Drivers/STM32L4xx_HAL_Driver/Src/stm32l4xx_hal_dfsdm.c ****   /* Check parameters */
2348:Drivers/STM32L4xx_HAL_Driver/Src/stm32l4xx_hal_dfsdm.c ****   assert_param(IS_DFSDM_FILTER_ALL_INSTANCE(hdfsdm_filter->Instance));
2349:Drivers/STM32L4xx_HAL_Driver/Src/stm32l4xx_hal_dfsdm.c **** 
2350:Drivers/STM32L4xx_HAL_Driver/Src/stm32l4xx_hal_dfsdm.c ****   /* Check DFSDM filter state */
2351:Drivers/STM32L4xx_HAL_Driver/Src/stm32l4xx_hal_dfsdm.c ****   if ((hdfsdm_filter->State != HAL_DFSDM_FILTER_STATE_INJ) && \
 3665              		.loc 1 2351 21
 3666 000c 7B68     		ldr	r3, [r7, #4]
 3667 000e 93F84C30 		ldrb	r3, [r3, #76]	@ zero_extendqisi2
 3668              		.loc 1 2351 6
 3669 0012 032B     		cmp	r3, #3
 3670 0014 07D0     		beq	.L219
2352:Drivers/STM32L4xx_HAL_Driver/Src/stm32l4xx_hal_dfsdm.c ****       (hdfsdm_filter->State != HAL_DFSDM_FILTER_STATE_REG_INJ))
 3671              		.loc 1 2352 21
 3672 0016 7B68     		ldr	r3, [r7, #4]
 3673 0018 93F84C30 		ldrb	r3, [r3, #76]	@ zero_extendqisi2
2351:Drivers/STM32L4xx_HAL_Driver/Src/stm32l4xx_hal_dfsdm.c ****       (hdfsdm_filter->State != HAL_DFSDM_FILTER_STATE_REG_INJ))
 3674              		.loc 1 2351 60 discriminator 1
 3675 001c 042B     		cmp	r3, #4
 3676 001e 02D0     		beq	.L219
2353:Drivers/STM32L4xx_HAL_Driver/Src/stm32l4xx_hal_dfsdm.c ****   {
2354:Drivers/STM32L4xx_HAL_Driver/Src/stm32l4xx_hal_dfsdm.c ****     /* Return error status */
2355:Drivers/STM32L4xx_HAL_Driver/Src/stm32l4xx_hal_dfsdm.c ****     status = HAL_ERROR;
 3677              		.loc 1 2355 12
ARM GAS  /tmp/ccrDNuCE.s 			page 107


 3678 0020 0123     		movs	r3, #1
 3679 0022 FB73     		strb	r3, [r7, #15]
 3680 0024 02E0     		b	.L220
 3681              	.L219:
2356:Drivers/STM32L4xx_HAL_Driver/Src/stm32l4xx_hal_dfsdm.c ****   }
2357:Drivers/STM32L4xx_HAL_Driver/Src/stm32l4xx_hal_dfsdm.c ****   else
2358:Drivers/STM32L4xx_HAL_Driver/Src/stm32l4xx_hal_dfsdm.c ****   {
2359:Drivers/STM32L4xx_HAL_Driver/Src/stm32l4xx_hal_dfsdm.c ****     /* Stop injected conversion */
2360:Drivers/STM32L4xx_HAL_Driver/Src/stm32l4xx_hal_dfsdm.c ****     DFSDM_InjConvStop(hdfsdm_filter);
 3682              		.loc 1 2360 5
 3683 0026 7868     		ldr	r0, [r7, #4]
 3684 0028 FFF7FEFF 		bl	DFSDM_InjConvStop
 3685              	.L220:
2361:Drivers/STM32L4xx_HAL_Driver/Src/stm32l4xx_hal_dfsdm.c ****   }
2362:Drivers/STM32L4xx_HAL_Driver/Src/stm32l4xx_hal_dfsdm.c ****   /* Return function status */
2363:Drivers/STM32L4xx_HAL_Driver/Src/stm32l4xx_hal_dfsdm.c ****   return status;
 3686              		.loc 1 2363 10
 3687 002c FB7B     		ldrb	r3, [r7, #15]	@ zero_extendqisi2
2364:Drivers/STM32L4xx_HAL_Driver/Src/stm32l4xx_hal_dfsdm.c **** }
 3688              		.loc 1 2364 1
 3689 002e 1846     		mov	r0, r3
 3690 0030 1037     		adds	r7, r7, #16
 3691              		.cfi_def_cfa_offset 8
 3692 0032 BD46     		mov	sp, r7
 3693              		.cfi_def_cfa_register 13
 3694              		@ sp needed
 3695 0034 80BD     		pop	{r7, pc}
 3696              		.cfi_endproc
 3697              	.LFE481:
 3699              		.section	.text.HAL_DFSDM_FilterInjectedStart_IT,"ax",%progbits
 3700              		.align	1
 3701              		.global	HAL_DFSDM_FilterInjectedStart_IT
 3702              		.syntax unified
 3703              		.thumb
 3704              		.thumb_func
 3706              	HAL_DFSDM_FilterInjectedStart_IT:
 3707              	.LFB482:
2365:Drivers/STM32L4xx_HAL_Driver/Src/stm32l4xx_hal_dfsdm.c **** 
2366:Drivers/STM32L4xx_HAL_Driver/Src/stm32l4xx_hal_dfsdm.c **** /**
2367:Drivers/STM32L4xx_HAL_Driver/Src/stm32l4xx_hal_dfsdm.c ****   * @brief  This function allows to start injected conversion in interrupt mode.
2368:Drivers/STM32L4xx_HAL_Driver/Src/stm32l4xx_hal_dfsdm.c ****   * @note   This function should be called only when DFSDM filter instance is
2369:Drivers/STM32L4xx_HAL_Driver/Src/stm32l4xx_hal_dfsdm.c ****   *         in idle state or if regular conversion is ongoing.
2370:Drivers/STM32L4xx_HAL_Driver/Src/stm32l4xx_hal_dfsdm.c ****   * @param  hdfsdm_filter DFSDM filter handle.
2371:Drivers/STM32L4xx_HAL_Driver/Src/stm32l4xx_hal_dfsdm.c ****   * @retval HAL status
2372:Drivers/STM32L4xx_HAL_Driver/Src/stm32l4xx_hal_dfsdm.c ****   */
2373:Drivers/STM32L4xx_HAL_Driver/Src/stm32l4xx_hal_dfsdm.c **** HAL_StatusTypeDef HAL_DFSDM_FilterInjectedStart_IT(DFSDM_Filter_HandleTypeDef *hdfsdm_filter)
2374:Drivers/STM32L4xx_HAL_Driver/Src/stm32l4xx_hal_dfsdm.c **** {
 3708              		.loc 1 2374 1
 3709              		.cfi_startproc
 3710              		@ args = 0, pretend = 0, frame = 16
 3711              		@ frame_needed = 1, uses_anonymous_args = 0
 3712 0000 80B5     		push	{r7, lr}
 3713              		.cfi_def_cfa_offset 8
 3714              		.cfi_offset 7, -8
 3715              		.cfi_offset 14, -4
 3716 0002 84B0     		sub	sp, sp, #16
 3717              		.cfi_def_cfa_offset 24
ARM GAS  /tmp/ccrDNuCE.s 			page 108


 3718 0004 00AF     		add	r7, sp, #0
 3719              		.cfi_def_cfa_register 7
 3720 0006 7860     		str	r0, [r7, #4]
2375:Drivers/STM32L4xx_HAL_Driver/Src/stm32l4xx_hal_dfsdm.c ****   HAL_StatusTypeDef status = HAL_OK;
 3721              		.loc 1 2375 21
 3722 0008 0023     		movs	r3, #0
 3723 000a FB73     		strb	r3, [r7, #15]
2376:Drivers/STM32L4xx_HAL_Driver/Src/stm32l4xx_hal_dfsdm.c **** 
2377:Drivers/STM32L4xx_HAL_Driver/Src/stm32l4xx_hal_dfsdm.c ****   /* Check parameters */
2378:Drivers/STM32L4xx_HAL_Driver/Src/stm32l4xx_hal_dfsdm.c ****   assert_param(IS_DFSDM_FILTER_ALL_INSTANCE(hdfsdm_filter->Instance));
2379:Drivers/STM32L4xx_HAL_Driver/Src/stm32l4xx_hal_dfsdm.c **** 
2380:Drivers/STM32L4xx_HAL_Driver/Src/stm32l4xx_hal_dfsdm.c ****   /* Check DFSDM filter state */
2381:Drivers/STM32L4xx_HAL_Driver/Src/stm32l4xx_hal_dfsdm.c ****   if ((hdfsdm_filter->State == HAL_DFSDM_FILTER_STATE_READY) || \
 3724              		.loc 1 2381 21
 3725 000c 7B68     		ldr	r3, [r7, #4]
 3726 000e 93F84C30 		ldrb	r3, [r3, #76]	@ zero_extendqisi2
 3727              		.loc 1 2381 6
 3728 0012 012B     		cmp	r3, #1
 3729 0014 04D0     		beq	.L223
2382:Drivers/STM32L4xx_HAL_Driver/Src/stm32l4xx_hal_dfsdm.c ****       (hdfsdm_filter->State == HAL_DFSDM_FILTER_STATE_REG))
 3730              		.loc 1 2382 21
 3731 0016 7B68     		ldr	r3, [r7, #4]
 3732 0018 93F84C30 		ldrb	r3, [r3, #76]	@ zero_extendqisi2
2381:Drivers/STM32L4xx_HAL_Driver/Src/stm32l4xx_hal_dfsdm.c ****       (hdfsdm_filter->State == HAL_DFSDM_FILTER_STATE_REG))
 3733              		.loc 1 2381 62 discriminator 1
 3734 001c 022B     		cmp	r3, #2
 3735 001e 0BD1     		bne	.L224
 3736              	.L223:
2383:Drivers/STM32L4xx_HAL_Driver/Src/stm32l4xx_hal_dfsdm.c ****   {
2384:Drivers/STM32L4xx_HAL_Driver/Src/stm32l4xx_hal_dfsdm.c ****     /* Enable interrupts for injected conversions */
2385:Drivers/STM32L4xx_HAL_Driver/Src/stm32l4xx_hal_dfsdm.c ****     hdfsdm_filter->Instance->FLTCR2 |= (DFSDM_FLTCR2_JEOCIE | DFSDM_FLTCR2_JOVRIE);
 3737              		.loc 1 2385 18
 3738 0020 7B68     		ldr	r3, [r7, #4]
 3739 0022 1B68     		ldr	r3, [r3]
 3740              		.loc 1 2385 28
 3741 0024 5A68     		ldr	r2, [r3, #4]
 3742              		.loc 1 2385 18
 3743 0026 7B68     		ldr	r3, [r7, #4]
 3744 0028 1B68     		ldr	r3, [r3]
 3745              		.loc 1 2385 37
 3746 002a 42F00502 		orr	r2, r2, #5
 3747 002e 5A60     		str	r2, [r3, #4]
2386:Drivers/STM32L4xx_HAL_Driver/Src/stm32l4xx_hal_dfsdm.c **** 
2387:Drivers/STM32L4xx_HAL_Driver/Src/stm32l4xx_hal_dfsdm.c ****     /* Start injected conversion */
2388:Drivers/STM32L4xx_HAL_Driver/Src/stm32l4xx_hal_dfsdm.c ****     DFSDM_InjConvStart(hdfsdm_filter);
 3748              		.loc 1 2388 5
 3749 0030 7868     		ldr	r0, [r7, #4]
 3750 0032 FFF7FEFF 		bl	DFSDM_InjConvStart
 3751 0036 01E0     		b	.L225
 3752              	.L224:
2389:Drivers/STM32L4xx_HAL_Driver/Src/stm32l4xx_hal_dfsdm.c ****   }
2390:Drivers/STM32L4xx_HAL_Driver/Src/stm32l4xx_hal_dfsdm.c ****   else
2391:Drivers/STM32L4xx_HAL_Driver/Src/stm32l4xx_hal_dfsdm.c ****   {
2392:Drivers/STM32L4xx_HAL_Driver/Src/stm32l4xx_hal_dfsdm.c ****     status = HAL_ERROR;
 3753              		.loc 1 2392 12
 3754 0038 0123     		movs	r3, #1
 3755 003a FB73     		strb	r3, [r7, #15]
ARM GAS  /tmp/ccrDNuCE.s 			page 109


 3756              	.L225:
2393:Drivers/STM32L4xx_HAL_Driver/Src/stm32l4xx_hal_dfsdm.c ****   }
2394:Drivers/STM32L4xx_HAL_Driver/Src/stm32l4xx_hal_dfsdm.c ****   /* Return function status */
2395:Drivers/STM32L4xx_HAL_Driver/Src/stm32l4xx_hal_dfsdm.c ****   return status;
 3757              		.loc 1 2395 10
 3758 003c FB7B     		ldrb	r3, [r7, #15]	@ zero_extendqisi2
2396:Drivers/STM32L4xx_HAL_Driver/Src/stm32l4xx_hal_dfsdm.c **** }
 3759              		.loc 1 2396 1
 3760 003e 1846     		mov	r0, r3
 3761 0040 1037     		adds	r7, r7, #16
 3762              		.cfi_def_cfa_offset 8
 3763 0042 BD46     		mov	sp, r7
 3764              		.cfi_def_cfa_register 13
 3765              		@ sp needed
 3766 0044 80BD     		pop	{r7, pc}
 3767              		.cfi_endproc
 3768              	.LFE482:
 3770              		.section	.text.HAL_DFSDM_FilterInjectedStop_IT,"ax",%progbits
 3771              		.align	1
 3772              		.global	HAL_DFSDM_FilterInjectedStop_IT
 3773              		.syntax unified
 3774              		.thumb
 3775              		.thumb_func
 3777              	HAL_DFSDM_FilterInjectedStop_IT:
 3778              	.LFB483:
2397:Drivers/STM32L4xx_HAL_Driver/Src/stm32l4xx_hal_dfsdm.c **** 
2398:Drivers/STM32L4xx_HAL_Driver/Src/stm32l4xx_hal_dfsdm.c **** /**
2399:Drivers/STM32L4xx_HAL_Driver/Src/stm32l4xx_hal_dfsdm.c ****   * @brief  This function allows to stop injected conversion in interrupt mode.
2400:Drivers/STM32L4xx_HAL_Driver/Src/stm32l4xx_hal_dfsdm.c ****   * @note   This function should be called only if injected conversion is ongoing.
2401:Drivers/STM32L4xx_HAL_Driver/Src/stm32l4xx_hal_dfsdm.c ****   * @param  hdfsdm_filter DFSDM filter handle.
2402:Drivers/STM32L4xx_HAL_Driver/Src/stm32l4xx_hal_dfsdm.c ****   * @retval HAL status
2403:Drivers/STM32L4xx_HAL_Driver/Src/stm32l4xx_hal_dfsdm.c ****   */
2404:Drivers/STM32L4xx_HAL_Driver/Src/stm32l4xx_hal_dfsdm.c **** HAL_StatusTypeDef HAL_DFSDM_FilterInjectedStop_IT(DFSDM_Filter_HandleTypeDef *hdfsdm_filter)
2405:Drivers/STM32L4xx_HAL_Driver/Src/stm32l4xx_hal_dfsdm.c **** {
 3779              		.loc 1 2405 1
 3780              		.cfi_startproc
 3781              		@ args = 0, pretend = 0, frame = 16
 3782              		@ frame_needed = 1, uses_anonymous_args = 0
 3783 0000 80B5     		push	{r7, lr}
 3784              		.cfi_def_cfa_offset 8
 3785              		.cfi_offset 7, -8
 3786              		.cfi_offset 14, -4
 3787 0002 84B0     		sub	sp, sp, #16
 3788              		.cfi_def_cfa_offset 24
 3789 0004 00AF     		add	r7, sp, #0
 3790              		.cfi_def_cfa_register 7
 3791 0006 7860     		str	r0, [r7, #4]
2406:Drivers/STM32L4xx_HAL_Driver/Src/stm32l4xx_hal_dfsdm.c ****   HAL_StatusTypeDef status = HAL_OK;
 3792              		.loc 1 2406 21
 3793 0008 0023     		movs	r3, #0
 3794 000a FB73     		strb	r3, [r7, #15]
2407:Drivers/STM32L4xx_HAL_Driver/Src/stm32l4xx_hal_dfsdm.c **** 
2408:Drivers/STM32L4xx_HAL_Driver/Src/stm32l4xx_hal_dfsdm.c ****   /* Check parameters */
2409:Drivers/STM32L4xx_HAL_Driver/Src/stm32l4xx_hal_dfsdm.c ****   assert_param(IS_DFSDM_FILTER_ALL_INSTANCE(hdfsdm_filter->Instance));
2410:Drivers/STM32L4xx_HAL_Driver/Src/stm32l4xx_hal_dfsdm.c **** 
2411:Drivers/STM32L4xx_HAL_Driver/Src/stm32l4xx_hal_dfsdm.c ****   /* Check DFSDM filter state */
2412:Drivers/STM32L4xx_HAL_Driver/Src/stm32l4xx_hal_dfsdm.c ****   if ((hdfsdm_filter->State != HAL_DFSDM_FILTER_STATE_INJ) && \
ARM GAS  /tmp/ccrDNuCE.s 			page 110


 3795              		.loc 1 2412 21
 3796 000c 7B68     		ldr	r3, [r7, #4]
 3797 000e 93F84C30 		ldrb	r3, [r3, #76]	@ zero_extendqisi2
 3798              		.loc 1 2412 6
 3799 0012 032B     		cmp	r3, #3
 3800 0014 07D0     		beq	.L228
2413:Drivers/STM32L4xx_HAL_Driver/Src/stm32l4xx_hal_dfsdm.c ****       (hdfsdm_filter->State != HAL_DFSDM_FILTER_STATE_REG_INJ))
 3801              		.loc 1 2413 21
 3802 0016 7B68     		ldr	r3, [r7, #4]
 3803 0018 93F84C30 		ldrb	r3, [r3, #76]	@ zero_extendqisi2
2412:Drivers/STM32L4xx_HAL_Driver/Src/stm32l4xx_hal_dfsdm.c ****       (hdfsdm_filter->State != HAL_DFSDM_FILTER_STATE_REG_INJ))
 3804              		.loc 1 2412 60 discriminator 1
 3805 001c 042B     		cmp	r3, #4
 3806 001e 02D0     		beq	.L228
2414:Drivers/STM32L4xx_HAL_Driver/Src/stm32l4xx_hal_dfsdm.c ****   {
2415:Drivers/STM32L4xx_HAL_Driver/Src/stm32l4xx_hal_dfsdm.c ****     /* Return error status */
2416:Drivers/STM32L4xx_HAL_Driver/Src/stm32l4xx_hal_dfsdm.c ****     status = HAL_ERROR;
 3807              		.loc 1 2416 12
 3808 0020 0123     		movs	r3, #1
 3809 0022 FB73     		strb	r3, [r7, #15]
 3810 0024 0AE0     		b	.L229
 3811              	.L228:
2417:Drivers/STM32L4xx_HAL_Driver/Src/stm32l4xx_hal_dfsdm.c ****   }
2418:Drivers/STM32L4xx_HAL_Driver/Src/stm32l4xx_hal_dfsdm.c ****   else
2419:Drivers/STM32L4xx_HAL_Driver/Src/stm32l4xx_hal_dfsdm.c ****   {
2420:Drivers/STM32L4xx_HAL_Driver/Src/stm32l4xx_hal_dfsdm.c ****     /* Disable interrupts for injected conversions */
2421:Drivers/STM32L4xx_HAL_Driver/Src/stm32l4xx_hal_dfsdm.c ****     hdfsdm_filter->Instance->FLTCR2 &= ~(DFSDM_FLTCR2_JEOCIE | DFSDM_FLTCR2_JOVRIE);
 3812              		.loc 1 2421 18
 3813 0026 7B68     		ldr	r3, [r7, #4]
 3814 0028 1B68     		ldr	r3, [r3]
 3815              		.loc 1 2421 28
 3816 002a 5A68     		ldr	r2, [r3, #4]
 3817              		.loc 1 2421 18
 3818 002c 7B68     		ldr	r3, [r7, #4]
 3819 002e 1B68     		ldr	r3, [r3]
 3820              		.loc 1 2421 37
 3821 0030 22F00502 		bic	r2, r2, #5
 3822 0034 5A60     		str	r2, [r3, #4]
2422:Drivers/STM32L4xx_HAL_Driver/Src/stm32l4xx_hal_dfsdm.c **** 
2423:Drivers/STM32L4xx_HAL_Driver/Src/stm32l4xx_hal_dfsdm.c ****     /* Stop injected conversion */
2424:Drivers/STM32L4xx_HAL_Driver/Src/stm32l4xx_hal_dfsdm.c ****     DFSDM_InjConvStop(hdfsdm_filter);
 3823              		.loc 1 2424 5
 3824 0036 7868     		ldr	r0, [r7, #4]
 3825 0038 FFF7FEFF 		bl	DFSDM_InjConvStop
 3826              	.L229:
2425:Drivers/STM32L4xx_HAL_Driver/Src/stm32l4xx_hal_dfsdm.c ****   }
2426:Drivers/STM32L4xx_HAL_Driver/Src/stm32l4xx_hal_dfsdm.c ****   /* Return function status */
2427:Drivers/STM32L4xx_HAL_Driver/Src/stm32l4xx_hal_dfsdm.c ****   return status;
 3827              		.loc 1 2427 10
 3828 003c FB7B     		ldrb	r3, [r7, #15]	@ zero_extendqisi2
2428:Drivers/STM32L4xx_HAL_Driver/Src/stm32l4xx_hal_dfsdm.c **** }
 3829              		.loc 1 2428 1
 3830 003e 1846     		mov	r0, r3
 3831 0040 1037     		adds	r7, r7, #16
 3832              		.cfi_def_cfa_offset 8
 3833 0042 BD46     		mov	sp, r7
 3834              		.cfi_def_cfa_register 13
ARM GAS  /tmp/ccrDNuCE.s 			page 111


 3835              		@ sp needed
 3836 0044 80BD     		pop	{r7, pc}
 3837              		.cfi_endproc
 3838              	.LFE483:
 3840              		.section	.text.HAL_DFSDM_FilterInjectedStart_DMA,"ax",%progbits
 3841              		.align	1
 3842              		.global	HAL_DFSDM_FilterInjectedStart_DMA
 3843              		.syntax unified
 3844              		.thumb
 3845              		.thumb_func
 3847              	HAL_DFSDM_FilterInjectedStart_DMA:
 3848              	.LFB484:
2429:Drivers/STM32L4xx_HAL_Driver/Src/stm32l4xx_hal_dfsdm.c **** 
2430:Drivers/STM32L4xx_HAL_Driver/Src/stm32l4xx_hal_dfsdm.c **** /**
2431:Drivers/STM32L4xx_HAL_Driver/Src/stm32l4xx_hal_dfsdm.c ****   * @brief  This function allows to start injected conversion in DMA mode.
2432:Drivers/STM32L4xx_HAL_Driver/Src/stm32l4xx_hal_dfsdm.c ****   * @note   This function should be called only when DFSDM filter instance is
2433:Drivers/STM32L4xx_HAL_Driver/Src/stm32l4xx_hal_dfsdm.c ****   *         in idle state or if regular conversion is ongoing.
2434:Drivers/STM32L4xx_HAL_Driver/Src/stm32l4xx_hal_dfsdm.c ****   *         Please note that data on buffer will contain signed injected conversion
2435:Drivers/STM32L4xx_HAL_Driver/Src/stm32l4xx_hal_dfsdm.c ****   *         value on 24 most significant bits and corresponding channel on 3 least
2436:Drivers/STM32L4xx_HAL_Driver/Src/stm32l4xx_hal_dfsdm.c ****   *         significant bits.
2437:Drivers/STM32L4xx_HAL_Driver/Src/stm32l4xx_hal_dfsdm.c ****   * @param  hdfsdm_filter DFSDM filter handle.
2438:Drivers/STM32L4xx_HAL_Driver/Src/stm32l4xx_hal_dfsdm.c ****   * @param  pData The destination buffer address.
2439:Drivers/STM32L4xx_HAL_Driver/Src/stm32l4xx_hal_dfsdm.c ****   * @param  Length The length of data to be transferred from DFSDM filter to memory.
2440:Drivers/STM32L4xx_HAL_Driver/Src/stm32l4xx_hal_dfsdm.c ****   * @retval HAL status
2441:Drivers/STM32L4xx_HAL_Driver/Src/stm32l4xx_hal_dfsdm.c ****   */
2442:Drivers/STM32L4xx_HAL_Driver/Src/stm32l4xx_hal_dfsdm.c **** HAL_StatusTypeDef HAL_DFSDM_FilterInjectedStart_DMA(DFSDM_Filter_HandleTypeDef *hdfsdm_filter,
2443:Drivers/STM32L4xx_HAL_Driver/Src/stm32l4xx_hal_dfsdm.c ****                                                     int32_t                    *pData,
2444:Drivers/STM32L4xx_HAL_Driver/Src/stm32l4xx_hal_dfsdm.c ****                                                     uint32_t                    Length)
2445:Drivers/STM32L4xx_HAL_Driver/Src/stm32l4xx_hal_dfsdm.c **** {
 3849              		.loc 1 2445 1
 3850              		.cfi_startproc
 3851              		@ args = 0, pretend = 0, frame = 24
 3852              		@ frame_needed = 1, uses_anonymous_args = 0
 3853 0000 80B5     		push	{r7, lr}
 3854              		.cfi_def_cfa_offset 8
 3855              		.cfi_offset 7, -8
 3856              		.cfi_offset 14, -4
 3857 0002 86B0     		sub	sp, sp, #24
 3858              		.cfi_def_cfa_offset 32
 3859 0004 00AF     		add	r7, sp, #0
 3860              		.cfi_def_cfa_register 7
 3861 0006 F860     		str	r0, [r7, #12]
 3862 0008 B960     		str	r1, [r7, #8]
 3863 000a 7A60     		str	r2, [r7, #4]
2446:Drivers/STM32L4xx_HAL_Driver/Src/stm32l4xx_hal_dfsdm.c ****   HAL_StatusTypeDef status = HAL_OK;
 3864              		.loc 1 2446 21
 3865 000c 0023     		movs	r3, #0
 3866 000e FB75     		strb	r3, [r7, #23]
2447:Drivers/STM32L4xx_HAL_Driver/Src/stm32l4xx_hal_dfsdm.c **** 
2448:Drivers/STM32L4xx_HAL_Driver/Src/stm32l4xx_hal_dfsdm.c ****   /* Check parameters */
2449:Drivers/STM32L4xx_HAL_Driver/Src/stm32l4xx_hal_dfsdm.c ****   assert_param(IS_DFSDM_FILTER_ALL_INSTANCE(hdfsdm_filter->Instance));
2450:Drivers/STM32L4xx_HAL_Driver/Src/stm32l4xx_hal_dfsdm.c **** 
2451:Drivers/STM32L4xx_HAL_Driver/Src/stm32l4xx_hal_dfsdm.c ****   /* Check destination address and length */
2452:Drivers/STM32L4xx_HAL_Driver/Src/stm32l4xx_hal_dfsdm.c ****   if ((pData == NULL) || (Length == 0U))
 3867              		.loc 1 2452 6
 3868 0010 BB68     		ldr	r3, [r7, #8]
 3869 0012 002B     		cmp	r3, #0
ARM GAS  /tmp/ccrDNuCE.s 			page 112


 3870 0014 02D0     		beq	.L232
 3871              		.loc 1 2452 23 discriminator 1
 3872 0016 7B68     		ldr	r3, [r7, #4]
 3873 0018 002B     		cmp	r3, #0
 3874 001a 02D1     		bne	.L233
 3875              	.L232:
2453:Drivers/STM32L4xx_HAL_Driver/Src/stm32l4xx_hal_dfsdm.c ****   {
2454:Drivers/STM32L4xx_HAL_Driver/Src/stm32l4xx_hal_dfsdm.c ****     status = HAL_ERROR;
 3876              		.loc 1 2454 12
 3877 001c 0123     		movs	r3, #1
 3878 001e FB75     		strb	r3, [r7, #23]
 3879 0020 5DE0     		b	.L234
 3880              	.L233:
2455:Drivers/STM32L4xx_HAL_Driver/Src/stm32l4xx_hal_dfsdm.c ****   }
2456:Drivers/STM32L4xx_HAL_Driver/Src/stm32l4xx_hal_dfsdm.c ****   /* Check that DMA is enabled for injected conversion */
2457:Drivers/STM32L4xx_HAL_Driver/Src/stm32l4xx_hal_dfsdm.c ****   else if ((hdfsdm_filter->Instance->FLTCR1 & DFSDM_FLTCR1_JDMAEN) != DFSDM_FLTCR1_JDMAEN)
 3881              		.loc 1 2457 26
 3882 0022 FB68     		ldr	r3, [r7, #12]
 3883 0024 1B68     		ldr	r3, [r3]
 3884              		.loc 1 2457 36
 3885 0026 1B68     		ldr	r3, [r3]
 3886              		.loc 1 2457 45
 3887 0028 03F02003 		and	r3, r3, #32
 3888              		.loc 1 2457 11
 3889 002c 202B     		cmp	r3, #32
 3890 002e 02D0     		beq	.L235
2458:Drivers/STM32L4xx_HAL_Driver/Src/stm32l4xx_hal_dfsdm.c ****   {
2459:Drivers/STM32L4xx_HAL_Driver/Src/stm32l4xx_hal_dfsdm.c ****     status = HAL_ERROR;
 3891              		.loc 1 2459 12
 3892 0030 0123     		movs	r3, #1
 3893 0032 FB75     		strb	r3, [r7, #23]
 3894 0034 53E0     		b	.L234
 3895              	.L235:
2460:Drivers/STM32L4xx_HAL_Driver/Src/stm32l4xx_hal_dfsdm.c ****   }
2461:Drivers/STM32L4xx_HAL_Driver/Src/stm32l4xx_hal_dfsdm.c ****   /* Check parameters compatibility */
2462:Drivers/STM32L4xx_HAL_Driver/Src/stm32l4xx_hal_dfsdm.c ****   else if ((hdfsdm_filter->InjectedTrigger == DFSDM_FILTER_SW_TRIGGER) && \
 3896              		.loc 1 2462 26
 3897 0036 FB68     		ldr	r3, [r7, #12]
 3898 0038 9B6B     		ldr	r3, [r3, #56]
 3899              		.loc 1 2462 11
 3900 003a 002B     		cmp	r3, #0
 3901 003c 0CD1     		bne	.L236
2463:Drivers/STM32L4xx_HAL_Driver/Src/stm32l4xx_hal_dfsdm.c ****            (hdfsdm_filter->hdmaInj->Init.Mode == DMA_NORMAL) && \
 3902              		.loc 1 2463 26
 3903 003e FB68     		ldr	r3, [r7, #12]
 3904 0040 DB6A     		ldr	r3, [r3, #44]
 3905              		.loc 1 2463 41
 3906 0042 DB69     		ldr	r3, [r3, #28]
2462:Drivers/STM32L4xx_HAL_Driver/Src/stm32l4xx_hal_dfsdm.c ****            (hdfsdm_filter->hdmaInj->Init.Mode == DMA_NORMAL) && \
 3907              		.loc 1 2462 72 discriminator 1
 3908 0044 002B     		cmp	r3, #0
 3909 0046 07D1     		bne	.L236
2464:Drivers/STM32L4xx_HAL_Driver/Src/stm32l4xx_hal_dfsdm.c ****            (Length > hdfsdm_filter->InjConvRemaining))
 3910              		.loc 1 2464 35
 3911 0048 FB68     		ldr	r3, [r7, #12]
 3912 004a 9B6C     		ldr	r3, [r3, #72]
2463:Drivers/STM32L4xx_HAL_Driver/Src/stm32l4xx_hal_dfsdm.c ****            (hdfsdm_filter->hdmaInj->Init.Mode == DMA_NORMAL) && \
ARM GAS  /tmp/ccrDNuCE.s 			page 113


 3913              		.loc 1 2463 62
 3914 004c 7A68     		ldr	r2, [r7, #4]
 3915 004e 9A42     		cmp	r2, r3
 3916 0050 02D9     		bls	.L236
2465:Drivers/STM32L4xx_HAL_Driver/Src/stm32l4xx_hal_dfsdm.c ****   {
2466:Drivers/STM32L4xx_HAL_Driver/Src/stm32l4xx_hal_dfsdm.c ****     status = HAL_ERROR;
 3917              		.loc 1 2466 12
 3918 0052 0123     		movs	r3, #1
 3919 0054 FB75     		strb	r3, [r7, #23]
 3920 0056 42E0     		b	.L234
 3921              	.L236:
2467:Drivers/STM32L4xx_HAL_Driver/Src/stm32l4xx_hal_dfsdm.c ****   }
2468:Drivers/STM32L4xx_HAL_Driver/Src/stm32l4xx_hal_dfsdm.c ****   else if ((hdfsdm_filter->InjectedTrigger == DFSDM_FILTER_SW_TRIGGER) && \
 3922              		.loc 1 2468 26
 3923 0058 FB68     		ldr	r3, [r7, #12]
 3924 005a 9B6B     		ldr	r3, [r3, #56]
 3925              		.loc 1 2468 11
 3926 005c 002B     		cmp	r3, #0
 3927 005e 07D1     		bne	.L237
2469:Drivers/STM32L4xx_HAL_Driver/Src/stm32l4xx_hal_dfsdm.c ****            (hdfsdm_filter->hdmaInj->Init.Mode == DMA_CIRCULAR))
 3928              		.loc 1 2469 26
 3929 0060 FB68     		ldr	r3, [r7, #12]
 3930 0062 DB6A     		ldr	r3, [r3, #44]
 3931              		.loc 1 2469 41
 3932 0064 DB69     		ldr	r3, [r3, #28]
2468:Drivers/STM32L4xx_HAL_Driver/Src/stm32l4xx_hal_dfsdm.c ****            (hdfsdm_filter->hdmaInj->Init.Mode == DMA_CIRCULAR))
 3933              		.loc 1 2468 72 discriminator 1
 3934 0066 202B     		cmp	r3, #32
 3935 0068 02D1     		bne	.L237
2470:Drivers/STM32L4xx_HAL_Driver/Src/stm32l4xx_hal_dfsdm.c ****   {
2471:Drivers/STM32L4xx_HAL_Driver/Src/stm32l4xx_hal_dfsdm.c ****     status = HAL_ERROR;
 3936              		.loc 1 2471 12
 3937 006a 0123     		movs	r3, #1
 3938 006c FB75     		strb	r3, [r7, #23]
 3939 006e 36E0     		b	.L234
 3940              	.L237:
2472:Drivers/STM32L4xx_HAL_Driver/Src/stm32l4xx_hal_dfsdm.c ****   }
2473:Drivers/STM32L4xx_HAL_Driver/Src/stm32l4xx_hal_dfsdm.c ****   /* Check DFSDM filter state */
2474:Drivers/STM32L4xx_HAL_Driver/Src/stm32l4xx_hal_dfsdm.c ****   else if ((hdfsdm_filter->State == HAL_DFSDM_FILTER_STATE_READY) || \
 3941              		.loc 1 2474 26
 3942 0070 FB68     		ldr	r3, [r7, #12]
 3943 0072 93F84C30 		ldrb	r3, [r3, #76]	@ zero_extendqisi2
 3944              		.loc 1 2474 11
 3945 0076 012B     		cmp	r3, #1
 3946 0078 04D0     		beq	.L238
2475:Drivers/STM32L4xx_HAL_Driver/Src/stm32l4xx_hal_dfsdm.c ****            (hdfsdm_filter->State == HAL_DFSDM_FILTER_STATE_REG))
 3947              		.loc 1 2475 26
 3948 007a FB68     		ldr	r3, [r7, #12]
 3949 007c 93F84C30 		ldrb	r3, [r3, #76]	@ zero_extendqisi2
2474:Drivers/STM32L4xx_HAL_Driver/Src/stm32l4xx_hal_dfsdm.c ****            (hdfsdm_filter->State == HAL_DFSDM_FILTER_STATE_REG))
 3950              		.loc 1 2474 67 discriminator 1
 3951 0080 022B     		cmp	r3, #2
 3952 0082 2AD1     		bne	.L239
 3953              	.L238:
2476:Drivers/STM32L4xx_HAL_Driver/Src/stm32l4xx_hal_dfsdm.c ****   {
2477:Drivers/STM32L4xx_HAL_Driver/Src/stm32l4xx_hal_dfsdm.c ****     /* Set callbacks on DMA handler */
2478:Drivers/STM32L4xx_HAL_Driver/Src/stm32l4xx_hal_dfsdm.c ****     hdfsdm_filter->hdmaInj->XferCpltCallback = DFSDM_DMAInjectedConvCplt;
ARM GAS  /tmp/ccrDNuCE.s 			page 114


 3954              		.loc 1 2478 18
 3955 0084 FB68     		ldr	r3, [r7, #12]
 3956 0086 DB6A     		ldr	r3, [r3, #44]
 3957              		.loc 1 2478 46
 3958 0088 174A     		ldr	r2, .L245
 3959 008a DA62     		str	r2, [r3, #44]
2479:Drivers/STM32L4xx_HAL_Driver/Src/stm32l4xx_hal_dfsdm.c ****     hdfsdm_filter->hdmaInj->XferErrorCallback = DFSDM_DMAError;
 3960              		.loc 1 2479 18
 3961 008c FB68     		ldr	r3, [r7, #12]
 3962 008e DB6A     		ldr	r3, [r3, #44]
 3963              		.loc 1 2479 47
 3964 0090 164A     		ldr	r2, .L245+4
 3965 0092 5A63     		str	r2, [r3, #52]
2480:Drivers/STM32L4xx_HAL_Driver/Src/stm32l4xx_hal_dfsdm.c ****     hdfsdm_filter->hdmaInj->XferHalfCpltCallback = (hdfsdm_filter->hdmaInj->Init.Mode == DMA_CIRCUL
 3966              		.loc 1 2480 66
 3967 0094 FB68     		ldr	r3, [r7, #12]
 3968 0096 DB6A     		ldr	r3, [r3, #44]
 3969              		.loc 1 2480 81
 3970 0098 DB69     		ldr	r3, [r3, #28]
2481:Drivers/STM32L4xx_HAL_Driver/Src/stm32l4xx_hal_dfsdm.c ****                                                    DFSDM_DMAInjectedHalfConvCplt : NULL;
 3971              		.loc 1 2481 82
 3972 009a 202B     		cmp	r3, #32
 3973 009c 01D1     		bne	.L240
 3974              		.loc 1 2481 82 is_stmt 0 discriminator 1
 3975 009e 144A     		ldr	r2, .L245+8
 3976 00a0 00E0     		b	.L241
 3977              	.L240:
 3978              		.loc 1 2481 82 discriminator 2
 3979 00a2 0022     		movs	r2, #0
 3980              	.L241:
2480:Drivers/STM32L4xx_HAL_Driver/Src/stm32l4xx_hal_dfsdm.c ****     hdfsdm_filter->hdmaInj->XferHalfCpltCallback = (hdfsdm_filter->hdmaInj->Init.Mode == DMA_CIRCUL
 3981              		.loc 1 2480 18 is_stmt 1
 3982 00a4 FB68     		ldr	r3, [r7, #12]
 3983 00a6 DB6A     		ldr	r3, [r3, #44]
2480:Drivers/STM32L4xx_HAL_Driver/Src/stm32l4xx_hal_dfsdm.c ****     hdfsdm_filter->hdmaInj->XferHalfCpltCallback = (hdfsdm_filter->hdmaInj->Init.Mode == DMA_CIRCUL
 3984              		.loc 1 2480 50
 3985 00a8 1A63     		str	r2, [r3, #48]
2482:Drivers/STM32L4xx_HAL_Driver/Src/stm32l4xx_hal_dfsdm.c **** 
2483:Drivers/STM32L4xx_HAL_Driver/Src/stm32l4xx_hal_dfsdm.c ****     /* Start DMA in interrupt mode */
2484:Drivers/STM32L4xx_HAL_Driver/Src/stm32l4xx_hal_dfsdm.c ****     if (HAL_DMA_Start_IT(hdfsdm_filter->hdmaInj, (uint32_t)&hdfsdm_filter->Instance->FLTJDATAR, \
 3986              		.loc 1 2484 9
 3987 00aa FB68     		ldr	r3, [r7, #12]
 3988 00ac D86A     		ldr	r0, [r3, #44]
 3989              		.loc 1 2484 74
 3990 00ae FB68     		ldr	r3, [r7, #12]
 3991 00b0 1B68     		ldr	r3, [r3]
 3992              		.loc 1 2484 60
 3993 00b2 1833     		adds	r3, r3, #24
 3994              		.loc 1 2484 9
 3995 00b4 1946     		mov	r1, r3
 3996 00b6 BA68     		ldr	r2, [r7, #8]
 3997 00b8 7B68     		ldr	r3, [r7, #4]
 3998 00ba FFF7FEFF 		bl	HAL_DMA_Start_IT
 3999 00be 0346     		mov	r3, r0
 4000              		.loc 1 2484 8 discriminator 1
 4001 00c0 002B     		cmp	r3, #0
 4002 00c2 06D0     		beq	.L242
ARM GAS  /tmp/ccrDNuCE.s 			page 115


2485:Drivers/STM32L4xx_HAL_Driver/Src/stm32l4xx_hal_dfsdm.c ****                          (uint32_t) pData, Length) != HAL_OK)
2486:Drivers/STM32L4xx_HAL_Driver/Src/stm32l4xx_hal_dfsdm.c ****     {
2487:Drivers/STM32L4xx_HAL_Driver/Src/stm32l4xx_hal_dfsdm.c ****       /* Set DFSDM filter in error state */
2488:Drivers/STM32L4xx_HAL_Driver/Src/stm32l4xx_hal_dfsdm.c ****       hdfsdm_filter->State = HAL_DFSDM_FILTER_STATE_ERROR;
 4003              		.loc 1 2488 28
 4004 00c4 FB68     		ldr	r3, [r7, #12]
 4005 00c6 FF22     		movs	r2, #255
 4006 00c8 83F84C20 		strb	r2, [r3, #76]
2489:Drivers/STM32L4xx_HAL_Driver/Src/stm32l4xx_hal_dfsdm.c ****       status = HAL_ERROR;
 4007              		.loc 1 2489 14
 4008 00cc 0123     		movs	r3, #1
 4009 00ce FB75     		strb	r3, [r7, #23]
2484:Drivers/STM32L4xx_HAL_Driver/Src/stm32l4xx_hal_dfsdm.c ****                          (uint32_t) pData, Length) != HAL_OK)
 4010              		.loc 1 2484 8
 4011 00d0 05E0     		b	.L234
 4012              	.L242:
2490:Drivers/STM32L4xx_HAL_Driver/Src/stm32l4xx_hal_dfsdm.c ****     }
2491:Drivers/STM32L4xx_HAL_Driver/Src/stm32l4xx_hal_dfsdm.c ****     else
2492:Drivers/STM32L4xx_HAL_Driver/Src/stm32l4xx_hal_dfsdm.c ****     {
2493:Drivers/STM32L4xx_HAL_Driver/Src/stm32l4xx_hal_dfsdm.c ****       /* Start injected conversion */
2494:Drivers/STM32L4xx_HAL_Driver/Src/stm32l4xx_hal_dfsdm.c ****       DFSDM_InjConvStart(hdfsdm_filter);
 4013              		.loc 1 2494 7
 4014 00d2 F868     		ldr	r0, [r7, #12]
 4015 00d4 FFF7FEFF 		bl	DFSDM_InjConvStart
2484:Drivers/STM32L4xx_HAL_Driver/Src/stm32l4xx_hal_dfsdm.c ****                          (uint32_t) pData, Length) != HAL_OK)
 4016              		.loc 1 2484 8
 4017 00d8 01E0     		b	.L234
 4018              	.L239:
2495:Drivers/STM32L4xx_HAL_Driver/Src/stm32l4xx_hal_dfsdm.c ****     }
2496:Drivers/STM32L4xx_HAL_Driver/Src/stm32l4xx_hal_dfsdm.c ****   }
2497:Drivers/STM32L4xx_HAL_Driver/Src/stm32l4xx_hal_dfsdm.c ****   else
2498:Drivers/STM32L4xx_HAL_Driver/Src/stm32l4xx_hal_dfsdm.c ****   {
2499:Drivers/STM32L4xx_HAL_Driver/Src/stm32l4xx_hal_dfsdm.c ****     status = HAL_ERROR;
 4019              		.loc 1 2499 12
 4020 00da 0123     		movs	r3, #1
 4021 00dc FB75     		strb	r3, [r7, #23]
 4022              	.L234:
2500:Drivers/STM32L4xx_HAL_Driver/Src/stm32l4xx_hal_dfsdm.c ****   }
2501:Drivers/STM32L4xx_HAL_Driver/Src/stm32l4xx_hal_dfsdm.c ****   /* Return function status */
2502:Drivers/STM32L4xx_HAL_Driver/Src/stm32l4xx_hal_dfsdm.c ****   return status;
 4023              		.loc 1 2502 10
 4024 00de FB7D     		ldrb	r3, [r7, #23]	@ zero_extendqisi2
2503:Drivers/STM32L4xx_HAL_Driver/Src/stm32l4xx_hal_dfsdm.c **** }
 4025              		.loc 1 2503 1
 4026 00e0 1846     		mov	r0, r3
 4027 00e2 1837     		adds	r7, r7, #24
 4028              		.cfi_def_cfa_offset 8
 4029 00e4 BD46     		mov	sp, r7
 4030              		.cfi_def_cfa_register 13
 4031              		@ sp needed
 4032 00e6 80BD     		pop	{r7, pc}
 4033              	.L246:
 4034              		.align	2
 4035              	.L245:
 4036 00e8 00000000 		.word	DFSDM_DMAInjectedConvCplt
 4037 00ec 00000000 		.word	DFSDM_DMAError
 4038 00f0 00000000 		.word	DFSDM_DMAInjectedHalfConvCplt
ARM GAS  /tmp/ccrDNuCE.s 			page 116


 4039              		.cfi_endproc
 4040              	.LFE484:
 4042              		.section	.text.HAL_DFSDM_FilterInjectedMsbStart_DMA,"ax",%progbits
 4043              		.align	1
 4044              		.global	HAL_DFSDM_FilterInjectedMsbStart_DMA
 4045              		.syntax unified
 4046              		.thumb
 4047              		.thumb_func
 4049              	HAL_DFSDM_FilterInjectedMsbStart_DMA:
 4050              	.LFB485:
2504:Drivers/STM32L4xx_HAL_Driver/Src/stm32l4xx_hal_dfsdm.c **** 
2505:Drivers/STM32L4xx_HAL_Driver/Src/stm32l4xx_hal_dfsdm.c **** /**
2506:Drivers/STM32L4xx_HAL_Driver/Src/stm32l4xx_hal_dfsdm.c ****   * @brief  This function allows to start injected conversion in DMA mode and to get
2507:Drivers/STM32L4xx_HAL_Driver/Src/stm32l4xx_hal_dfsdm.c ****   *         only the 16 most significant bits of conversion.
2508:Drivers/STM32L4xx_HAL_Driver/Src/stm32l4xx_hal_dfsdm.c ****   * @note   This function should be called only when DFSDM filter instance is
2509:Drivers/STM32L4xx_HAL_Driver/Src/stm32l4xx_hal_dfsdm.c ****   *         in idle state or if regular conversion is ongoing.
2510:Drivers/STM32L4xx_HAL_Driver/Src/stm32l4xx_hal_dfsdm.c ****   *         Please note that data on buffer will contain signed 16 most significant
2511:Drivers/STM32L4xx_HAL_Driver/Src/stm32l4xx_hal_dfsdm.c ****   *         bits of injected conversion.
2512:Drivers/STM32L4xx_HAL_Driver/Src/stm32l4xx_hal_dfsdm.c ****   * @param  hdfsdm_filter DFSDM filter handle.
2513:Drivers/STM32L4xx_HAL_Driver/Src/stm32l4xx_hal_dfsdm.c ****   * @param  pData The destination buffer address.
2514:Drivers/STM32L4xx_HAL_Driver/Src/stm32l4xx_hal_dfsdm.c ****   * @param  Length The length of data to be transferred from DFSDM filter to memory.
2515:Drivers/STM32L4xx_HAL_Driver/Src/stm32l4xx_hal_dfsdm.c ****   * @retval HAL status
2516:Drivers/STM32L4xx_HAL_Driver/Src/stm32l4xx_hal_dfsdm.c ****   */
2517:Drivers/STM32L4xx_HAL_Driver/Src/stm32l4xx_hal_dfsdm.c **** HAL_StatusTypeDef HAL_DFSDM_FilterInjectedMsbStart_DMA(DFSDM_Filter_HandleTypeDef *hdfsdm_filter,
2518:Drivers/STM32L4xx_HAL_Driver/Src/stm32l4xx_hal_dfsdm.c ****                                                        int16_t                    *pData,
2519:Drivers/STM32L4xx_HAL_Driver/Src/stm32l4xx_hal_dfsdm.c ****                                                        uint32_t                    Length)
2520:Drivers/STM32L4xx_HAL_Driver/Src/stm32l4xx_hal_dfsdm.c **** {
 4051              		.loc 1 2520 1
 4052              		.cfi_startproc
 4053              		@ args = 0, pretend = 0, frame = 24
 4054              		@ frame_needed = 1, uses_anonymous_args = 0
 4055 0000 80B5     		push	{r7, lr}
 4056              		.cfi_def_cfa_offset 8
 4057              		.cfi_offset 7, -8
 4058              		.cfi_offset 14, -4
 4059 0002 86B0     		sub	sp, sp, #24
 4060              		.cfi_def_cfa_offset 32
 4061 0004 00AF     		add	r7, sp, #0
 4062              		.cfi_def_cfa_register 7
 4063 0006 F860     		str	r0, [r7, #12]
 4064 0008 B960     		str	r1, [r7, #8]
 4065 000a 7A60     		str	r2, [r7, #4]
2521:Drivers/STM32L4xx_HAL_Driver/Src/stm32l4xx_hal_dfsdm.c ****   HAL_StatusTypeDef status = HAL_OK;
 4066              		.loc 1 2521 21
 4067 000c 0023     		movs	r3, #0
 4068 000e FB75     		strb	r3, [r7, #23]
2522:Drivers/STM32L4xx_HAL_Driver/Src/stm32l4xx_hal_dfsdm.c **** 
2523:Drivers/STM32L4xx_HAL_Driver/Src/stm32l4xx_hal_dfsdm.c ****   /* Check parameters */
2524:Drivers/STM32L4xx_HAL_Driver/Src/stm32l4xx_hal_dfsdm.c ****   assert_param(IS_DFSDM_FILTER_ALL_INSTANCE(hdfsdm_filter->Instance));
2525:Drivers/STM32L4xx_HAL_Driver/Src/stm32l4xx_hal_dfsdm.c **** 
2526:Drivers/STM32L4xx_HAL_Driver/Src/stm32l4xx_hal_dfsdm.c ****   /* Check destination address and length */
2527:Drivers/STM32L4xx_HAL_Driver/Src/stm32l4xx_hal_dfsdm.c ****   if ((pData == NULL) || (Length == 0U))
 4069              		.loc 1 2527 6
 4070 0010 BB68     		ldr	r3, [r7, #8]
 4071 0012 002B     		cmp	r3, #0
 4072 0014 02D0     		beq	.L248
 4073              		.loc 1 2527 23 discriminator 1
ARM GAS  /tmp/ccrDNuCE.s 			page 117


 4074 0016 7B68     		ldr	r3, [r7, #4]
 4075 0018 002B     		cmp	r3, #0
 4076 001a 02D1     		bne	.L249
 4077              	.L248:
2528:Drivers/STM32L4xx_HAL_Driver/Src/stm32l4xx_hal_dfsdm.c ****   {
2529:Drivers/STM32L4xx_HAL_Driver/Src/stm32l4xx_hal_dfsdm.c ****     status = HAL_ERROR;
 4078              		.loc 1 2529 12
 4079 001c 0123     		movs	r3, #1
 4080 001e FB75     		strb	r3, [r7, #23]
 4081 0020 5DE0     		b	.L250
 4082              	.L249:
2530:Drivers/STM32L4xx_HAL_Driver/Src/stm32l4xx_hal_dfsdm.c ****   }
2531:Drivers/STM32L4xx_HAL_Driver/Src/stm32l4xx_hal_dfsdm.c ****   /* Check that DMA is enabled for injected conversion */
2532:Drivers/STM32L4xx_HAL_Driver/Src/stm32l4xx_hal_dfsdm.c ****   else if ((hdfsdm_filter->Instance->FLTCR1 & DFSDM_FLTCR1_JDMAEN) != DFSDM_FLTCR1_JDMAEN)
 4083              		.loc 1 2532 26
 4084 0022 FB68     		ldr	r3, [r7, #12]
 4085 0024 1B68     		ldr	r3, [r3]
 4086              		.loc 1 2532 36
 4087 0026 1B68     		ldr	r3, [r3]
 4088              		.loc 1 2532 45
 4089 0028 03F02003 		and	r3, r3, #32
 4090              		.loc 1 2532 11
 4091 002c 202B     		cmp	r3, #32
 4092 002e 02D0     		beq	.L251
2533:Drivers/STM32L4xx_HAL_Driver/Src/stm32l4xx_hal_dfsdm.c ****   {
2534:Drivers/STM32L4xx_HAL_Driver/Src/stm32l4xx_hal_dfsdm.c ****     status = HAL_ERROR;
 4093              		.loc 1 2534 12
 4094 0030 0123     		movs	r3, #1
 4095 0032 FB75     		strb	r3, [r7, #23]
 4096 0034 53E0     		b	.L250
 4097              	.L251:
2535:Drivers/STM32L4xx_HAL_Driver/Src/stm32l4xx_hal_dfsdm.c ****   }
2536:Drivers/STM32L4xx_HAL_Driver/Src/stm32l4xx_hal_dfsdm.c ****   /* Check parameters compatibility */
2537:Drivers/STM32L4xx_HAL_Driver/Src/stm32l4xx_hal_dfsdm.c ****   else if ((hdfsdm_filter->InjectedTrigger == DFSDM_FILTER_SW_TRIGGER) && \
 4098              		.loc 1 2537 26
 4099 0036 FB68     		ldr	r3, [r7, #12]
 4100 0038 9B6B     		ldr	r3, [r3, #56]
 4101              		.loc 1 2537 11
 4102 003a 002B     		cmp	r3, #0
 4103 003c 0CD1     		bne	.L252
2538:Drivers/STM32L4xx_HAL_Driver/Src/stm32l4xx_hal_dfsdm.c ****            (hdfsdm_filter->hdmaInj->Init.Mode == DMA_NORMAL) && \
 4104              		.loc 1 2538 26
 4105 003e FB68     		ldr	r3, [r7, #12]
 4106 0040 DB6A     		ldr	r3, [r3, #44]
 4107              		.loc 1 2538 41
 4108 0042 DB69     		ldr	r3, [r3, #28]
2537:Drivers/STM32L4xx_HAL_Driver/Src/stm32l4xx_hal_dfsdm.c ****            (hdfsdm_filter->hdmaInj->Init.Mode == DMA_NORMAL) && \
 4109              		.loc 1 2537 72 discriminator 1
 4110 0044 002B     		cmp	r3, #0
 4111 0046 07D1     		bne	.L252
2539:Drivers/STM32L4xx_HAL_Driver/Src/stm32l4xx_hal_dfsdm.c ****            (Length > hdfsdm_filter->InjConvRemaining))
 4112              		.loc 1 2539 35
 4113 0048 FB68     		ldr	r3, [r7, #12]
 4114 004a 9B6C     		ldr	r3, [r3, #72]
2538:Drivers/STM32L4xx_HAL_Driver/Src/stm32l4xx_hal_dfsdm.c ****            (hdfsdm_filter->hdmaInj->Init.Mode == DMA_NORMAL) && \
 4115              		.loc 1 2538 62
 4116 004c 7A68     		ldr	r2, [r7, #4]
ARM GAS  /tmp/ccrDNuCE.s 			page 118


 4117 004e 9A42     		cmp	r2, r3
 4118 0050 02D9     		bls	.L252
2540:Drivers/STM32L4xx_HAL_Driver/Src/stm32l4xx_hal_dfsdm.c ****   {
2541:Drivers/STM32L4xx_HAL_Driver/Src/stm32l4xx_hal_dfsdm.c ****     status = HAL_ERROR;
 4119              		.loc 1 2541 12
 4120 0052 0123     		movs	r3, #1
 4121 0054 FB75     		strb	r3, [r7, #23]
 4122 0056 42E0     		b	.L250
 4123              	.L252:
2542:Drivers/STM32L4xx_HAL_Driver/Src/stm32l4xx_hal_dfsdm.c ****   }
2543:Drivers/STM32L4xx_HAL_Driver/Src/stm32l4xx_hal_dfsdm.c ****   else if ((hdfsdm_filter->InjectedTrigger == DFSDM_FILTER_SW_TRIGGER) && \
 4124              		.loc 1 2543 26
 4125 0058 FB68     		ldr	r3, [r7, #12]
 4126 005a 9B6B     		ldr	r3, [r3, #56]
 4127              		.loc 1 2543 11
 4128 005c 002B     		cmp	r3, #0
 4129 005e 07D1     		bne	.L253
2544:Drivers/STM32L4xx_HAL_Driver/Src/stm32l4xx_hal_dfsdm.c ****            (hdfsdm_filter->hdmaInj->Init.Mode == DMA_CIRCULAR))
 4130              		.loc 1 2544 26
 4131 0060 FB68     		ldr	r3, [r7, #12]
 4132 0062 DB6A     		ldr	r3, [r3, #44]
 4133              		.loc 1 2544 41
 4134 0064 DB69     		ldr	r3, [r3, #28]
2543:Drivers/STM32L4xx_HAL_Driver/Src/stm32l4xx_hal_dfsdm.c ****            (hdfsdm_filter->hdmaInj->Init.Mode == DMA_CIRCULAR))
 4135              		.loc 1 2543 72 discriminator 1
 4136 0066 202B     		cmp	r3, #32
 4137 0068 02D1     		bne	.L253
2545:Drivers/STM32L4xx_HAL_Driver/Src/stm32l4xx_hal_dfsdm.c ****   {
2546:Drivers/STM32L4xx_HAL_Driver/Src/stm32l4xx_hal_dfsdm.c ****     status = HAL_ERROR;
 4138              		.loc 1 2546 12
 4139 006a 0123     		movs	r3, #1
 4140 006c FB75     		strb	r3, [r7, #23]
 4141 006e 36E0     		b	.L250
 4142              	.L253:
2547:Drivers/STM32L4xx_HAL_Driver/Src/stm32l4xx_hal_dfsdm.c ****   }
2548:Drivers/STM32L4xx_HAL_Driver/Src/stm32l4xx_hal_dfsdm.c ****   /* Check DFSDM filter state */
2549:Drivers/STM32L4xx_HAL_Driver/Src/stm32l4xx_hal_dfsdm.c ****   else if ((hdfsdm_filter->State == HAL_DFSDM_FILTER_STATE_READY) || \
 4143              		.loc 1 2549 26
 4144 0070 FB68     		ldr	r3, [r7, #12]
 4145 0072 93F84C30 		ldrb	r3, [r3, #76]	@ zero_extendqisi2
 4146              		.loc 1 2549 11
 4147 0076 012B     		cmp	r3, #1
 4148 0078 04D0     		beq	.L254
2550:Drivers/STM32L4xx_HAL_Driver/Src/stm32l4xx_hal_dfsdm.c ****            (hdfsdm_filter->State == HAL_DFSDM_FILTER_STATE_REG))
 4149              		.loc 1 2550 26
 4150 007a FB68     		ldr	r3, [r7, #12]
 4151 007c 93F84C30 		ldrb	r3, [r3, #76]	@ zero_extendqisi2
2549:Drivers/STM32L4xx_HAL_Driver/Src/stm32l4xx_hal_dfsdm.c ****            (hdfsdm_filter->State == HAL_DFSDM_FILTER_STATE_REG))
 4152              		.loc 1 2549 67 discriminator 1
 4153 0080 022B     		cmp	r3, #2
 4154 0082 2AD1     		bne	.L255
 4155              	.L254:
2551:Drivers/STM32L4xx_HAL_Driver/Src/stm32l4xx_hal_dfsdm.c ****   {
2552:Drivers/STM32L4xx_HAL_Driver/Src/stm32l4xx_hal_dfsdm.c ****     /* Set callbacks on DMA handler */
2553:Drivers/STM32L4xx_HAL_Driver/Src/stm32l4xx_hal_dfsdm.c ****     hdfsdm_filter->hdmaInj->XferCpltCallback = DFSDM_DMAInjectedConvCplt;
 4156              		.loc 1 2553 18
 4157 0084 FB68     		ldr	r3, [r7, #12]
ARM GAS  /tmp/ccrDNuCE.s 			page 119


 4158 0086 DB6A     		ldr	r3, [r3, #44]
 4159              		.loc 1 2553 46
 4160 0088 174A     		ldr	r2, .L261
 4161 008a DA62     		str	r2, [r3, #44]
2554:Drivers/STM32L4xx_HAL_Driver/Src/stm32l4xx_hal_dfsdm.c ****     hdfsdm_filter->hdmaInj->XferErrorCallback = DFSDM_DMAError;
 4162              		.loc 1 2554 18
 4163 008c FB68     		ldr	r3, [r7, #12]
 4164 008e DB6A     		ldr	r3, [r3, #44]
 4165              		.loc 1 2554 47
 4166 0090 164A     		ldr	r2, .L261+4
 4167 0092 5A63     		str	r2, [r3, #52]
2555:Drivers/STM32L4xx_HAL_Driver/Src/stm32l4xx_hal_dfsdm.c ****     hdfsdm_filter->hdmaInj->XferHalfCpltCallback = (hdfsdm_filter->hdmaInj->Init.Mode == DMA_CIRCUL
 4168              		.loc 1 2555 66
 4169 0094 FB68     		ldr	r3, [r7, #12]
 4170 0096 DB6A     		ldr	r3, [r3, #44]
 4171              		.loc 1 2555 81
 4172 0098 DB69     		ldr	r3, [r3, #28]
2556:Drivers/STM32L4xx_HAL_Driver/Src/stm32l4xx_hal_dfsdm.c ****                                                    DFSDM_DMAInjectedHalfConvCplt : NULL;
 4173              		.loc 1 2556 82
 4174 009a 202B     		cmp	r3, #32
 4175 009c 01D1     		bne	.L256
 4176              		.loc 1 2556 82 is_stmt 0 discriminator 1
 4177 009e 144A     		ldr	r2, .L261+8
 4178 00a0 00E0     		b	.L257
 4179              	.L256:
 4180              		.loc 1 2556 82 discriminator 2
 4181 00a2 0022     		movs	r2, #0
 4182              	.L257:
2555:Drivers/STM32L4xx_HAL_Driver/Src/stm32l4xx_hal_dfsdm.c ****     hdfsdm_filter->hdmaInj->XferHalfCpltCallback = (hdfsdm_filter->hdmaInj->Init.Mode == DMA_CIRCUL
 4183              		.loc 1 2555 18 is_stmt 1
 4184 00a4 FB68     		ldr	r3, [r7, #12]
 4185 00a6 DB6A     		ldr	r3, [r3, #44]
2555:Drivers/STM32L4xx_HAL_Driver/Src/stm32l4xx_hal_dfsdm.c ****     hdfsdm_filter->hdmaInj->XferHalfCpltCallback = (hdfsdm_filter->hdmaInj->Init.Mode == DMA_CIRCUL
 4186              		.loc 1 2555 50
 4187 00a8 1A63     		str	r2, [r3, #48]
2557:Drivers/STM32L4xx_HAL_Driver/Src/stm32l4xx_hal_dfsdm.c **** 
2558:Drivers/STM32L4xx_HAL_Driver/Src/stm32l4xx_hal_dfsdm.c ****     /* Start DMA in interrupt mode */
2559:Drivers/STM32L4xx_HAL_Driver/Src/stm32l4xx_hal_dfsdm.c ****     if (HAL_DMA_Start_IT(hdfsdm_filter->hdmaInj, (uint32_t)(&hdfsdm_filter->Instance->FLTJDATAR) + 
 4188              		.loc 1 2559 9
 4189 00aa FB68     		ldr	r3, [r7, #12]
 4190 00ac D86A     		ldr	r0, [r3, #44]
 4191              		.loc 1 2559 75
 4192 00ae FB68     		ldr	r3, [r7, #12]
 4193 00b0 1B68     		ldr	r3, [r3]
 4194              		.loc 1 2559 61
 4195 00b2 1833     		adds	r3, r3, #24
 4196              		.loc 1 2559 9
 4197 00b4 991C     		adds	r1, r3, #2
 4198 00b6 BA68     		ldr	r2, [r7, #8]
 4199 00b8 7B68     		ldr	r3, [r7, #4]
 4200 00ba FFF7FEFF 		bl	HAL_DMA_Start_IT
 4201 00be 0346     		mov	r3, r0
 4202              		.loc 1 2559 8 discriminator 1
 4203 00c0 002B     		cmp	r3, #0
 4204 00c2 06D0     		beq	.L258
2560:Drivers/STM32L4xx_HAL_Driver/Src/stm32l4xx_hal_dfsdm.c ****                          (uint32_t) pData, Length) != HAL_OK)
2561:Drivers/STM32L4xx_HAL_Driver/Src/stm32l4xx_hal_dfsdm.c ****     {
ARM GAS  /tmp/ccrDNuCE.s 			page 120


2562:Drivers/STM32L4xx_HAL_Driver/Src/stm32l4xx_hal_dfsdm.c ****       /* Set DFSDM filter in error state */
2563:Drivers/STM32L4xx_HAL_Driver/Src/stm32l4xx_hal_dfsdm.c ****       hdfsdm_filter->State = HAL_DFSDM_FILTER_STATE_ERROR;
 4205              		.loc 1 2563 28
 4206 00c4 FB68     		ldr	r3, [r7, #12]
 4207 00c6 FF22     		movs	r2, #255
 4208 00c8 83F84C20 		strb	r2, [r3, #76]
2564:Drivers/STM32L4xx_HAL_Driver/Src/stm32l4xx_hal_dfsdm.c ****       status = HAL_ERROR;
 4209              		.loc 1 2564 14
 4210 00cc 0123     		movs	r3, #1
 4211 00ce FB75     		strb	r3, [r7, #23]
2559:Drivers/STM32L4xx_HAL_Driver/Src/stm32l4xx_hal_dfsdm.c ****                          (uint32_t) pData, Length) != HAL_OK)
 4212              		.loc 1 2559 8
 4213 00d0 05E0     		b	.L250
 4214              	.L258:
2565:Drivers/STM32L4xx_HAL_Driver/Src/stm32l4xx_hal_dfsdm.c ****     }
2566:Drivers/STM32L4xx_HAL_Driver/Src/stm32l4xx_hal_dfsdm.c ****     else
2567:Drivers/STM32L4xx_HAL_Driver/Src/stm32l4xx_hal_dfsdm.c ****     {
2568:Drivers/STM32L4xx_HAL_Driver/Src/stm32l4xx_hal_dfsdm.c ****       /* Start injected conversion */
2569:Drivers/STM32L4xx_HAL_Driver/Src/stm32l4xx_hal_dfsdm.c ****       DFSDM_InjConvStart(hdfsdm_filter);
 4215              		.loc 1 2569 7
 4216 00d2 F868     		ldr	r0, [r7, #12]
 4217 00d4 FFF7FEFF 		bl	DFSDM_InjConvStart
2559:Drivers/STM32L4xx_HAL_Driver/Src/stm32l4xx_hal_dfsdm.c ****                          (uint32_t) pData, Length) != HAL_OK)
 4218              		.loc 1 2559 8
 4219 00d8 01E0     		b	.L250
 4220              	.L255:
2570:Drivers/STM32L4xx_HAL_Driver/Src/stm32l4xx_hal_dfsdm.c ****     }
2571:Drivers/STM32L4xx_HAL_Driver/Src/stm32l4xx_hal_dfsdm.c ****   }
2572:Drivers/STM32L4xx_HAL_Driver/Src/stm32l4xx_hal_dfsdm.c ****   else
2573:Drivers/STM32L4xx_HAL_Driver/Src/stm32l4xx_hal_dfsdm.c ****   {
2574:Drivers/STM32L4xx_HAL_Driver/Src/stm32l4xx_hal_dfsdm.c ****     status = HAL_ERROR;
 4221              		.loc 1 2574 12
 4222 00da 0123     		movs	r3, #1
 4223 00dc FB75     		strb	r3, [r7, #23]
 4224              	.L250:
2575:Drivers/STM32L4xx_HAL_Driver/Src/stm32l4xx_hal_dfsdm.c ****   }
2576:Drivers/STM32L4xx_HAL_Driver/Src/stm32l4xx_hal_dfsdm.c ****   /* Return function status */
2577:Drivers/STM32L4xx_HAL_Driver/Src/stm32l4xx_hal_dfsdm.c ****   return status;
 4225              		.loc 1 2577 10
 4226 00de FB7D     		ldrb	r3, [r7, #23]	@ zero_extendqisi2
2578:Drivers/STM32L4xx_HAL_Driver/Src/stm32l4xx_hal_dfsdm.c **** }
 4227              		.loc 1 2578 1
 4228 00e0 1846     		mov	r0, r3
 4229 00e2 1837     		adds	r7, r7, #24
 4230              		.cfi_def_cfa_offset 8
 4231 00e4 BD46     		mov	sp, r7
 4232              		.cfi_def_cfa_register 13
 4233              		@ sp needed
 4234 00e6 80BD     		pop	{r7, pc}
 4235              	.L262:
 4236              		.align	2
 4237              	.L261:
 4238 00e8 00000000 		.word	DFSDM_DMAInjectedConvCplt
 4239 00ec 00000000 		.word	DFSDM_DMAError
 4240 00f0 00000000 		.word	DFSDM_DMAInjectedHalfConvCplt
 4241              		.cfi_endproc
 4242              	.LFE485:
ARM GAS  /tmp/ccrDNuCE.s 			page 121


 4244              		.section	.text.HAL_DFSDM_FilterInjectedStop_DMA,"ax",%progbits
 4245              		.align	1
 4246              		.global	HAL_DFSDM_FilterInjectedStop_DMA
 4247              		.syntax unified
 4248              		.thumb
 4249              		.thumb_func
 4251              	HAL_DFSDM_FilterInjectedStop_DMA:
 4252              	.LFB486:
2579:Drivers/STM32L4xx_HAL_Driver/Src/stm32l4xx_hal_dfsdm.c **** 
2580:Drivers/STM32L4xx_HAL_Driver/Src/stm32l4xx_hal_dfsdm.c **** /**
2581:Drivers/STM32L4xx_HAL_Driver/Src/stm32l4xx_hal_dfsdm.c ****   * @brief  This function allows to stop injected conversion in DMA mode.
2582:Drivers/STM32L4xx_HAL_Driver/Src/stm32l4xx_hal_dfsdm.c ****   * @note   This function should be called only if injected conversion is ongoing.
2583:Drivers/STM32L4xx_HAL_Driver/Src/stm32l4xx_hal_dfsdm.c ****   * @param  hdfsdm_filter DFSDM filter handle.
2584:Drivers/STM32L4xx_HAL_Driver/Src/stm32l4xx_hal_dfsdm.c ****   * @retval HAL status
2585:Drivers/STM32L4xx_HAL_Driver/Src/stm32l4xx_hal_dfsdm.c ****   */
2586:Drivers/STM32L4xx_HAL_Driver/Src/stm32l4xx_hal_dfsdm.c **** HAL_StatusTypeDef HAL_DFSDM_FilterInjectedStop_DMA(DFSDM_Filter_HandleTypeDef *hdfsdm_filter)
2587:Drivers/STM32L4xx_HAL_Driver/Src/stm32l4xx_hal_dfsdm.c **** {
 4253              		.loc 1 2587 1
 4254              		.cfi_startproc
 4255              		@ args = 0, pretend = 0, frame = 16
 4256              		@ frame_needed = 1, uses_anonymous_args = 0
 4257 0000 80B5     		push	{r7, lr}
 4258              		.cfi_def_cfa_offset 8
 4259              		.cfi_offset 7, -8
 4260              		.cfi_offset 14, -4
 4261 0002 84B0     		sub	sp, sp, #16
 4262              		.cfi_def_cfa_offset 24
 4263 0004 00AF     		add	r7, sp, #0
 4264              		.cfi_def_cfa_register 7
 4265 0006 7860     		str	r0, [r7, #4]
2588:Drivers/STM32L4xx_HAL_Driver/Src/stm32l4xx_hal_dfsdm.c ****   HAL_StatusTypeDef status = HAL_OK;
 4266              		.loc 1 2588 21
 4267 0008 0023     		movs	r3, #0
 4268 000a FB73     		strb	r3, [r7, #15]
2589:Drivers/STM32L4xx_HAL_Driver/Src/stm32l4xx_hal_dfsdm.c **** 
2590:Drivers/STM32L4xx_HAL_Driver/Src/stm32l4xx_hal_dfsdm.c ****   /* Check parameters */
2591:Drivers/STM32L4xx_HAL_Driver/Src/stm32l4xx_hal_dfsdm.c ****   assert_param(IS_DFSDM_FILTER_ALL_INSTANCE(hdfsdm_filter->Instance));
2592:Drivers/STM32L4xx_HAL_Driver/Src/stm32l4xx_hal_dfsdm.c **** 
2593:Drivers/STM32L4xx_HAL_Driver/Src/stm32l4xx_hal_dfsdm.c ****   /* Check DFSDM filter state */
2594:Drivers/STM32L4xx_HAL_Driver/Src/stm32l4xx_hal_dfsdm.c ****   if ((hdfsdm_filter->State != HAL_DFSDM_FILTER_STATE_INJ) && \
 4269              		.loc 1 2594 21
 4270 000c 7B68     		ldr	r3, [r7, #4]
 4271 000e 93F84C30 		ldrb	r3, [r3, #76]	@ zero_extendqisi2
 4272              		.loc 1 2594 6
 4273 0012 032B     		cmp	r3, #3
 4274 0014 07D0     		beq	.L264
2595:Drivers/STM32L4xx_HAL_Driver/Src/stm32l4xx_hal_dfsdm.c ****       (hdfsdm_filter->State != HAL_DFSDM_FILTER_STATE_REG_INJ))
 4275              		.loc 1 2595 21
 4276 0016 7B68     		ldr	r3, [r7, #4]
 4277 0018 93F84C30 		ldrb	r3, [r3, #76]	@ zero_extendqisi2
2594:Drivers/STM32L4xx_HAL_Driver/Src/stm32l4xx_hal_dfsdm.c ****       (hdfsdm_filter->State != HAL_DFSDM_FILTER_STATE_REG_INJ))
 4278              		.loc 1 2594 60 discriminator 1
 4279 001c 042B     		cmp	r3, #4
 4280 001e 02D0     		beq	.L264
2596:Drivers/STM32L4xx_HAL_Driver/Src/stm32l4xx_hal_dfsdm.c ****   {
2597:Drivers/STM32L4xx_HAL_Driver/Src/stm32l4xx_hal_dfsdm.c ****     /* Return error status */
2598:Drivers/STM32L4xx_HAL_Driver/Src/stm32l4xx_hal_dfsdm.c ****     status = HAL_ERROR;
ARM GAS  /tmp/ccrDNuCE.s 			page 122


 4281              		.loc 1 2598 12
 4282 0020 0123     		movs	r3, #1
 4283 0022 FB73     		strb	r3, [r7, #15]
 4284 0024 07E0     		b	.L265
 4285              	.L264:
2599:Drivers/STM32L4xx_HAL_Driver/Src/stm32l4xx_hal_dfsdm.c ****   }
2600:Drivers/STM32L4xx_HAL_Driver/Src/stm32l4xx_hal_dfsdm.c ****   else
2601:Drivers/STM32L4xx_HAL_Driver/Src/stm32l4xx_hal_dfsdm.c ****   {
2602:Drivers/STM32L4xx_HAL_Driver/Src/stm32l4xx_hal_dfsdm.c ****     /* Stop current DMA transfer */
2603:Drivers/STM32L4xx_HAL_Driver/Src/stm32l4xx_hal_dfsdm.c ****     /* No need to check the returned value of HAL_DMA_Abort. */
2604:Drivers/STM32L4xx_HAL_Driver/Src/stm32l4xx_hal_dfsdm.c ****     /* Only HAL_DMA_ERROR_NO_XFER can be returned in case of error and it's not an error for DFSDM.
2605:Drivers/STM32L4xx_HAL_Driver/Src/stm32l4xx_hal_dfsdm.c ****     (void) HAL_DMA_Abort(hdfsdm_filter->hdmaInj);
 4286              		.loc 1 2605 12
 4287 0026 7B68     		ldr	r3, [r7, #4]
 4288 0028 DB6A     		ldr	r3, [r3, #44]
 4289 002a 1846     		mov	r0, r3
 4290 002c FFF7FEFF 		bl	HAL_DMA_Abort
2606:Drivers/STM32L4xx_HAL_Driver/Src/stm32l4xx_hal_dfsdm.c **** 
2607:Drivers/STM32L4xx_HAL_Driver/Src/stm32l4xx_hal_dfsdm.c ****     /* Stop regular conversion */
2608:Drivers/STM32L4xx_HAL_Driver/Src/stm32l4xx_hal_dfsdm.c ****     DFSDM_InjConvStop(hdfsdm_filter);
 4291              		.loc 1 2608 5
 4292 0030 7868     		ldr	r0, [r7, #4]
 4293 0032 FFF7FEFF 		bl	DFSDM_InjConvStop
 4294              	.L265:
2609:Drivers/STM32L4xx_HAL_Driver/Src/stm32l4xx_hal_dfsdm.c ****   }
2610:Drivers/STM32L4xx_HAL_Driver/Src/stm32l4xx_hal_dfsdm.c ****   /* Return function status */
2611:Drivers/STM32L4xx_HAL_Driver/Src/stm32l4xx_hal_dfsdm.c ****   return status;
 4295              		.loc 1 2611 10
 4296 0036 FB7B     		ldrb	r3, [r7, #15]	@ zero_extendqisi2
2612:Drivers/STM32L4xx_HAL_Driver/Src/stm32l4xx_hal_dfsdm.c **** }
 4297              		.loc 1 2612 1
 4298 0038 1846     		mov	r0, r3
 4299 003a 1037     		adds	r7, r7, #16
 4300              		.cfi_def_cfa_offset 8
 4301 003c BD46     		mov	sp, r7
 4302              		.cfi_def_cfa_register 13
 4303              		@ sp needed
 4304 003e 80BD     		pop	{r7, pc}
 4305              		.cfi_endproc
 4306              	.LFE486:
 4308              		.section	.text.HAL_DFSDM_FilterGetInjectedValue,"ax",%progbits
 4309              		.align	1
 4310              		.global	HAL_DFSDM_FilterGetInjectedValue
 4311              		.syntax unified
 4312              		.thumb
 4313              		.thumb_func
 4315              	HAL_DFSDM_FilterGetInjectedValue:
 4316              	.LFB487:
2613:Drivers/STM32L4xx_HAL_Driver/Src/stm32l4xx_hal_dfsdm.c **** 
2614:Drivers/STM32L4xx_HAL_Driver/Src/stm32l4xx_hal_dfsdm.c **** /**
2615:Drivers/STM32L4xx_HAL_Driver/Src/stm32l4xx_hal_dfsdm.c ****   * @brief  This function allows to get injected conversion value.
2616:Drivers/STM32L4xx_HAL_Driver/Src/stm32l4xx_hal_dfsdm.c ****   * @param  hdfsdm_filter DFSDM filter handle.
2617:Drivers/STM32L4xx_HAL_Driver/Src/stm32l4xx_hal_dfsdm.c ****   * @param  Channel Corresponding channel of injected conversion.
2618:Drivers/STM32L4xx_HAL_Driver/Src/stm32l4xx_hal_dfsdm.c ****   * @retval Injected conversion value
2619:Drivers/STM32L4xx_HAL_Driver/Src/stm32l4xx_hal_dfsdm.c ****   */
2620:Drivers/STM32L4xx_HAL_Driver/Src/stm32l4xx_hal_dfsdm.c **** int32_t HAL_DFSDM_FilterGetInjectedValue(const DFSDM_Filter_HandleTypeDef *hdfsdm_filter,
2621:Drivers/STM32L4xx_HAL_Driver/Src/stm32l4xx_hal_dfsdm.c ****                                          uint32_t                   *Channel)
ARM GAS  /tmp/ccrDNuCE.s 			page 123


2622:Drivers/STM32L4xx_HAL_Driver/Src/stm32l4xx_hal_dfsdm.c **** {
 4317              		.loc 1 2622 1
 4318              		.cfi_startproc
 4319              		@ args = 0, pretend = 0, frame = 16
 4320              		@ frame_needed = 1, uses_anonymous_args = 0
 4321              		@ link register save eliminated.
 4322 0000 80B4     		push	{r7}
 4323              		.cfi_def_cfa_offset 4
 4324              		.cfi_offset 7, -4
 4325 0002 85B0     		sub	sp, sp, #20
 4326              		.cfi_def_cfa_offset 24
 4327 0004 00AF     		add	r7, sp, #0
 4328              		.cfi_def_cfa_register 7
 4329 0006 7860     		str	r0, [r7, #4]
 4330 0008 3960     		str	r1, [r7]
2623:Drivers/STM32L4xx_HAL_Driver/Src/stm32l4xx_hal_dfsdm.c ****   uint32_t reg;
2624:Drivers/STM32L4xx_HAL_Driver/Src/stm32l4xx_hal_dfsdm.c ****   int32_t  value;
2625:Drivers/STM32L4xx_HAL_Driver/Src/stm32l4xx_hal_dfsdm.c **** 
2626:Drivers/STM32L4xx_HAL_Driver/Src/stm32l4xx_hal_dfsdm.c ****   /* Check parameters */
2627:Drivers/STM32L4xx_HAL_Driver/Src/stm32l4xx_hal_dfsdm.c ****   assert_param(IS_DFSDM_FILTER_ALL_INSTANCE(hdfsdm_filter->Instance));
2628:Drivers/STM32L4xx_HAL_Driver/Src/stm32l4xx_hal_dfsdm.c ****   assert_param(Channel != (void *)0);
2629:Drivers/STM32L4xx_HAL_Driver/Src/stm32l4xx_hal_dfsdm.c **** 
2630:Drivers/STM32L4xx_HAL_Driver/Src/stm32l4xx_hal_dfsdm.c ****   /* Get value of data register for injected channel */
2631:Drivers/STM32L4xx_HAL_Driver/Src/stm32l4xx_hal_dfsdm.c ****   reg = hdfsdm_filter->Instance->FLTJDATAR;
 4331              		.loc 1 2631 22
 4332 000a 7B68     		ldr	r3, [r7, #4]
 4333 000c 1B68     		ldr	r3, [r3]
 4334              		.loc 1 2631 7
 4335 000e 9B69     		ldr	r3, [r3, #24]
 4336 0010 FB60     		str	r3, [r7, #12]
2632:Drivers/STM32L4xx_HAL_Driver/Src/stm32l4xx_hal_dfsdm.c **** 
2633:Drivers/STM32L4xx_HAL_Driver/Src/stm32l4xx_hal_dfsdm.c ****   /* Extract channel and injected conversion value */
2634:Drivers/STM32L4xx_HAL_Driver/Src/stm32l4xx_hal_dfsdm.c ****   *Channel = (reg & DFSDM_FLTJDATAR_JDATACH);
 4337              		.loc 1 2634 19
 4338 0012 FB68     		ldr	r3, [r7, #12]
 4339 0014 03F00702 		and	r2, r3, #7
 4340              		.loc 1 2634 12
 4341 0018 3B68     		ldr	r3, [r7]
 4342 001a 1A60     		str	r2, [r3]
2635:Drivers/STM32L4xx_HAL_Driver/Src/stm32l4xx_hal_dfsdm.c ****   /* Injected conversion value is a signed value located on 24 MSB of register */
2636:Drivers/STM32L4xx_HAL_Driver/Src/stm32l4xx_hal_dfsdm.c ****   /* So after applying a mask on these bits we have to perform a division by 256 (2 raised to the p
2637:Drivers/STM32L4xx_HAL_Driver/Src/stm32l4xx_hal_dfsdm.c ****   reg &= DFSDM_FLTJDATAR_JDATA;
 4343              		.loc 1 2637 7
 4344 001c FB68     		ldr	r3, [r7, #12]
 4345 001e 23F0FF03 		bic	r3, r3, #255
 4346 0022 FB60     		str	r3, [r7, #12]
2638:Drivers/STM32L4xx_HAL_Driver/Src/stm32l4xx_hal_dfsdm.c ****   value = ((int32_t)reg) / 256;
 4347              		.loc 1 2638 12
 4348 0024 FB68     		ldr	r3, [r7, #12]
 4349              		.loc 1 2638 9
 4350 0026 002B     		cmp	r3, #0
 4351 0028 00DA     		bge	.L268
 4352 002a FF33     		adds	r3, r3, #255
 4353              	.L268:
 4354 002c 1B12     		asrs	r3, r3, #8
 4355 002e BB60     		str	r3, [r7, #8]
2639:Drivers/STM32L4xx_HAL_Driver/Src/stm32l4xx_hal_dfsdm.c **** 
ARM GAS  /tmp/ccrDNuCE.s 			page 124


2640:Drivers/STM32L4xx_HAL_Driver/Src/stm32l4xx_hal_dfsdm.c ****   /* return regular conversion value */
2641:Drivers/STM32L4xx_HAL_Driver/Src/stm32l4xx_hal_dfsdm.c ****   return value;
 4356              		.loc 1 2641 10
 4357 0030 BB68     		ldr	r3, [r7, #8]
2642:Drivers/STM32L4xx_HAL_Driver/Src/stm32l4xx_hal_dfsdm.c **** }
 4358              		.loc 1 2642 1
 4359 0032 1846     		mov	r0, r3
 4360 0034 1437     		adds	r7, r7, #20
 4361              		.cfi_def_cfa_offset 4
 4362 0036 BD46     		mov	sp, r7
 4363              		.cfi_def_cfa_register 13
 4364              		@ sp needed
 4365 0038 5DF8047B 		ldr	r7, [sp], #4
 4366              		.cfi_restore 7
 4367              		.cfi_def_cfa_offset 0
 4368 003c 7047     		bx	lr
 4369              		.cfi_endproc
 4370              	.LFE487:
 4372              		.section	.text.HAL_DFSDM_FilterAwdStart_IT,"ax",%progbits
 4373              		.align	1
 4374              		.global	HAL_DFSDM_FilterAwdStart_IT
 4375              		.syntax unified
 4376              		.thumb
 4377              		.thumb_func
 4379              	HAL_DFSDM_FilterAwdStart_IT:
 4380              	.LFB488:
2643:Drivers/STM32L4xx_HAL_Driver/Src/stm32l4xx_hal_dfsdm.c **** 
2644:Drivers/STM32L4xx_HAL_Driver/Src/stm32l4xx_hal_dfsdm.c **** /**
2645:Drivers/STM32L4xx_HAL_Driver/Src/stm32l4xx_hal_dfsdm.c ****   * @brief  This function allows to start filter analog watchdog in interrupt mode.
2646:Drivers/STM32L4xx_HAL_Driver/Src/stm32l4xx_hal_dfsdm.c ****   * @param  hdfsdm_filter DFSDM filter handle.
2647:Drivers/STM32L4xx_HAL_Driver/Src/stm32l4xx_hal_dfsdm.c ****   * @param  awdParam DFSDM filter analog watchdog parameters.
2648:Drivers/STM32L4xx_HAL_Driver/Src/stm32l4xx_hal_dfsdm.c ****   * @retval HAL status
2649:Drivers/STM32L4xx_HAL_Driver/Src/stm32l4xx_hal_dfsdm.c ****   */
2650:Drivers/STM32L4xx_HAL_Driver/Src/stm32l4xx_hal_dfsdm.c **** HAL_StatusTypeDef HAL_DFSDM_FilterAwdStart_IT(DFSDM_Filter_HandleTypeDef   *hdfsdm_filter,
2651:Drivers/STM32L4xx_HAL_Driver/Src/stm32l4xx_hal_dfsdm.c ****                                               const DFSDM_Filter_AwdParamTypeDef *awdParam)
2652:Drivers/STM32L4xx_HAL_Driver/Src/stm32l4xx_hal_dfsdm.c **** {
 4381              		.loc 1 2652 1
 4382              		.cfi_startproc
 4383              		@ args = 0, pretend = 0, frame = 16
 4384              		@ frame_needed = 1, uses_anonymous_args = 0
 4385              		@ link register save eliminated.
 4386 0000 80B4     		push	{r7}
 4387              		.cfi_def_cfa_offset 4
 4388              		.cfi_offset 7, -4
 4389 0002 85B0     		sub	sp, sp, #20
 4390              		.cfi_def_cfa_offset 24
 4391 0004 00AF     		add	r7, sp, #0
 4392              		.cfi_def_cfa_register 7
 4393 0006 7860     		str	r0, [r7, #4]
 4394 0008 3960     		str	r1, [r7]
2653:Drivers/STM32L4xx_HAL_Driver/Src/stm32l4xx_hal_dfsdm.c ****   HAL_StatusTypeDef status = HAL_OK;
 4395              		.loc 1 2653 21
 4396 000a 0023     		movs	r3, #0
 4397 000c FB73     		strb	r3, [r7, #15]
2654:Drivers/STM32L4xx_HAL_Driver/Src/stm32l4xx_hal_dfsdm.c **** 
2655:Drivers/STM32L4xx_HAL_Driver/Src/stm32l4xx_hal_dfsdm.c ****   /* Check parameters */
2656:Drivers/STM32L4xx_HAL_Driver/Src/stm32l4xx_hal_dfsdm.c ****   assert_param(IS_DFSDM_FILTER_ALL_INSTANCE(hdfsdm_filter->Instance));
ARM GAS  /tmp/ccrDNuCE.s 			page 125


2657:Drivers/STM32L4xx_HAL_Driver/Src/stm32l4xx_hal_dfsdm.c ****   assert_param(IS_DFSDM_FILTER_AWD_DATA_SOURCE(awdParam->DataSource));
2658:Drivers/STM32L4xx_HAL_Driver/Src/stm32l4xx_hal_dfsdm.c ****   assert_param(IS_DFSDM_INJECTED_CHANNEL(awdParam->Channel));
2659:Drivers/STM32L4xx_HAL_Driver/Src/stm32l4xx_hal_dfsdm.c ****   assert_param(IS_DFSDM_FILTER_AWD_THRESHOLD(awdParam->HighThreshold));
2660:Drivers/STM32L4xx_HAL_Driver/Src/stm32l4xx_hal_dfsdm.c ****   assert_param(IS_DFSDM_FILTER_AWD_THRESHOLD(awdParam->LowThreshold));
2661:Drivers/STM32L4xx_HAL_Driver/Src/stm32l4xx_hal_dfsdm.c ****   assert_param(IS_DFSDM_BREAK_SIGNALS(awdParam->HighBreakSignal));
2662:Drivers/STM32L4xx_HAL_Driver/Src/stm32l4xx_hal_dfsdm.c ****   assert_param(IS_DFSDM_BREAK_SIGNALS(awdParam->LowBreakSignal));
2663:Drivers/STM32L4xx_HAL_Driver/Src/stm32l4xx_hal_dfsdm.c **** 
2664:Drivers/STM32L4xx_HAL_Driver/Src/stm32l4xx_hal_dfsdm.c ****   /* Check DFSDM filter state */
2665:Drivers/STM32L4xx_HAL_Driver/Src/stm32l4xx_hal_dfsdm.c ****   if ((hdfsdm_filter->State == HAL_DFSDM_FILTER_STATE_RESET) || \
 4398              		.loc 1 2665 21
 4399 000e 7B68     		ldr	r3, [r7, #4]
 4400 0010 93F84C30 		ldrb	r3, [r3, #76]	@ zero_extendqisi2
 4401              		.loc 1 2665 6
 4402 0014 002B     		cmp	r3, #0
 4403 0016 04D0     		beq	.L271
2666:Drivers/STM32L4xx_HAL_Driver/Src/stm32l4xx_hal_dfsdm.c ****       (hdfsdm_filter->State == HAL_DFSDM_FILTER_STATE_ERROR))
 4404              		.loc 1 2666 21
 4405 0018 7B68     		ldr	r3, [r7, #4]
 4406 001a 93F84C30 		ldrb	r3, [r3, #76]	@ zero_extendqisi2
2665:Drivers/STM32L4xx_HAL_Driver/Src/stm32l4xx_hal_dfsdm.c ****       (hdfsdm_filter->State == HAL_DFSDM_FILTER_STATE_ERROR))
 4407              		.loc 1 2665 62 discriminator 1
 4408 001e FF2B     		cmp	r3, #255
 4409 0020 02D1     		bne	.L272
 4410              	.L271:
2667:Drivers/STM32L4xx_HAL_Driver/Src/stm32l4xx_hal_dfsdm.c ****   {
2668:Drivers/STM32L4xx_HAL_Driver/Src/stm32l4xx_hal_dfsdm.c ****     /* Return error status */
2669:Drivers/STM32L4xx_HAL_Driver/Src/stm32l4xx_hal_dfsdm.c ****     status = HAL_ERROR;
 4411              		.loc 1 2669 12
 4412 0022 0123     		movs	r3, #1
 4413 0024 FB73     		strb	r3, [r7, #15]
 4414 0026 4EE0     		b	.L273
 4415              	.L272:
2670:Drivers/STM32L4xx_HAL_Driver/Src/stm32l4xx_hal_dfsdm.c ****   }
2671:Drivers/STM32L4xx_HAL_Driver/Src/stm32l4xx_hal_dfsdm.c ****   else
2672:Drivers/STM32L4xx_HAL_Driver/Src/stm32l4xx_hal_dfsdm.c ****   {
2673:Drivers/STM32L4xx_HAL_Driver/Src/stm32l4xx_hal_dfsdm.c ****     /* Set analog watchdog data source */
2674:Drivers/STM32L4xx_HAL_Driver/Src/stm32l4xx_hal_dfsdm.c ****     hdfsdm_filter->Instance->FLTCR1 &= ~(DFSDM_FLTCR1_AWFSEL);
 4416              		.loc 1 2674 18
 4417 0028 7B68     		ldr	r3, [r7, #4]
 4418 002a 1B68     		ldr	r3, [r3]
 4419              		.loc 1 2674 28
 4420 002c 1A68     		ldr	r2, [r3]
 4421              		.loc 1 2674 18
 4422 002e 7B68     		ldr	r3, [r7, #4]
 4423 0030 1B68     		ldr	r3, [r3]
 4424              		.loc 1 2674 37
 4425 0032 22F08042 		bic	r2, r2, #1073741824
 4426 0036 1A60     		str	r2, [r3]
2675:Drivers/STM32L4xx_HAL_Driver/Src/stm32l4xx_hal_dfsdm.c ****     hdfsdm_filter->Instance->FLTCR1 |= awdParam->DataSource;
 4427              		.loc 1 2675 18
 4428 0038 7B68     		ldr	r3, [r7, #4]
 4429 003a 1B68     		ldr	r3, [r3]
 4430              		.loc 1 2675 28
 4431 003c 1968     		ldr	r1, [r3]
 4432              		.loc 1 2675 48
 4433 003e 3B68     		ldr	r3, [r7]
 4434 0040 1A68     		ldr	r2, [r3]
ARM GAS  /tmp/ccrDNuCE.s 			page 126


 4435              		.loc 1 2675 18
 4436 0042 7B68     		ldr	r3, [r7, #4]
 4437 0044 1B68     		ldr	r3, [r3]
 4438              		.loc 1 2675 37
 4439 0046 0A43     		orrs	r2, r2, r1
 4440 0048 1A60     		str	r2, [r3]
2676:Drivers/STM32L4xx_HAL_Driver/Src/stm32l4xx_hal_dfsdm.c **** 
2677:Drivers/STM32L4xx_HAL_Driver/Src/stm32l4xx_hal_dfsdm.c ****     /* Set thresholds and break signals */
2678:Drivers/STM32L4xx_HAL_Driver/Src/stm32l4xx_hal_dfsdm.c ****     hdfsdm_filter->Instance->FLTAWHTR &= ~(DFSDM_FLTAWHTR_AWHT | DFSDM_FLTAWHTR_BKAWH);
 4441              		.loc 1 2678 18
 4442 004a 7B68     		ldr	r3, [r7, #4]
 4443 004c 1B68     		ldr	r3, [r3]
 4444              		.loc 1 2678 28
 4445 004e 1A6A     		ldr	r2, [r3, #32]
 4446              		.loc 1 2678 18
 4447 0050 7B68     		ldr	r3, [r7, #4]
 4448 0052 1B68     		ldr	r3, [r3]
 4449              		.loc 1 2678 39
 4450 0054 02F0F002 		and	r2, r2, #240
 4451 0058 1A62     		str	r2, [r3, #32]
2679:Drivers/STM32L4xx_HAL_Driver/Src/stm32l4xx_hal_dfsdm.c ****     hdfsdm_filter->Instance->FLTAWHTR |= (((uint32_t) awdParam->HighThreshold << DFSDM_FLTAWHTR_AWH
 4452              		.loc 1 2679 18
 4453 005a 7B68     		ldr	r3, [r7, #4]
 4454 005c 1B68     		ldr	r3, [r3]
 4455              		.loc 1 2679 28
 4456 005e 196A     		ldr	r1, [r3, #32]
 4457              		.loc 1 2679 63
 4458 0060 3B68     		ldr	r3, [r7]
 4459 0062 9B68     		ldr	r3, [r3, #8]
 4460              		.loc 1 2679 79
 4461 0064 1A02     		lsls	r2, r3, #8
2680:Drivers/STM32L4xx_HAL_Driver/Src/stm32l4xx_hal_dfsdm.c ****                                           awdParam->HighBreakSignal);
 4462              		.loc 1 2680 51
 4463 0066 3B68     		ldr	r3, [r7]
 4464 0068 1B69     		ldr	r3, [r3, #16]
2679:Drivers/STM32L4xx_HAL_Driver/Src/stm32l4xx_hal_dfsdm.c ****     hdfsdm_filter->Instance->FLTAWHTR |= (((uint32_t) awdParam->HighThreshold << DFSDM_FLTAWHTR_AWH
 4465              		.loc 1 2679 107
 4466 006a 1A43     		orrs	r2, r2, r3
2679:Drivers/STM32L4xx_HAL_Driver/Src/stm32l4xx_hal_dfsdm.c ****     hdfsdm_filter->Instance->FLTAWHTR |= (((uint32_t) awdParam->HighThreshold << DFSDM_FLTAWHTR_AWH
 4467              		.loc 1 2679 18
 4468 006c 7B68     		ldr	r3, [r7, #4]
 4469 006e 1B68     		ldr	r3, [r3]
2679:Drivers/STM32L4xx_HAL_Driver/Src/stm32l4xx_hal_dfsdm.c ****     hdfsdm_filter->Instance->FLTAWHTR |= (((uint32_t) awdParam->HighThreshold << DFSDM_FLTAWHTR_AWH
 4470              		.loc 1 2679 39
 4471 0070 0A43     		orrs	r2, r2, r1
 4472 0072 1A62     		str	r2, [r3, #32]
2681:Drivers/STM32L4xx_HAL_Driver/Src/stm32l4xx_hal_dfsdm.c ****     hdfsdm_filter->Instance->FLTAWLTR &= ~(DFSDM_FLTAWLTR_AWLT | DFSDM_FLTAWLTR_BKAWL);
 4473              		.loc 1 2681 18
 4474 0074 7B68     		ldr	r3, [r7, #4]
 4475 0076 1B68     		ldr	r3, [r3]
 4476              		.loc 1 2681 28
 4477 0078 5A6A     		ldr	r2, [r3, #36]
 4478              		.loc 1 2681 18
 4479 007a 7B68     		ldr	r3, [r7, #4]
 4480 007c 1B68     		ldr	r3, [r3]
 4481              		.loc 1 2681 39
 4482 007e 02F0F002 		and	r2, r2, #240
ARM GAS  /tmp/ccrDNuCE.s 			page 127


 4483 0082 5A62     		str	r2, [r3, #36]
2682:Drivers/STM32L4xx_HAL_Driver/Src/stm32l4xx_hal_dfsdm.c ****     hdfsdm_filter->Instance->FLTAWLTR |= (((uint32_t) awdParam->LowThreshold << DFSDM_FLTAWLTR_AWLT
 4484              		.loc 1 2682 18
 4485 0084 7B68     		ldr	r3, [r7, #4]
 4486 0086 1B68     		ldr	r3, [r3]
 4487              		.loc 1 2682 28
 4488 0088 596A     		ldr	r1, [r3, #36]
 4489              		.loc 1 2682 63
 4490 008a 3B68     		ldr	r3, [r7]
 4491 008c DB68     		ldr	r3, [r3, #12]
 4492              		.loc 1 2682 78
 4493 008e 1A02     		lsls	r2, r3, #8
2683:Drivers/STM32L4xx_HAL_Driver/Src/stm32l4xx_hal_dfsdm.c ****                                           awdParam->LowBreakSignal);
 4494              		.loc 1 2683 51
 4495 0090 3B68     		ldr	r3, [r7]
 4496 0092 5B69     		ldr	r3, [r3, #20]
2682:Drivers/STM32L4xx_HAL_Driver/Src/stm32l4xx_hal_dfsdm.c ****     hdfsdm_filter->Instance->FLTAWLTR |= (((uint32_t) awdParam->LowThreshold << DFSDM_FLTAWLTR_AWLT
 4497              		.loc 1 2682 106
 4498 0094 1A43     		orrs	r2, r2, r3
2682:Drivers/STM32L4xx_HAL_Driver/Src/stm32l4xx_hal_dfsdm.c ****     hdfsdm_filter->Instance->FLTAWLTR |= (((uint32_t) awdParam->LowThreshold << DFSDM_FLTAWLTR_AWLT
 4499              		.loc 1 2682 18
 4500 0096 7B68     		ldr	r3, [r7, #4]
 4501 0098 1B68     		ldr	r3, [r3]
2682:Drivers/STM32L4xx_HAL_Driver/Src/stm32l4xx_hal_dfsdm.c ****     hdfsdm_filter->Instance->FLTAWLTR |= (((uint32_t) awdParam->LowThreshold << DFSDM_FLTAWLTR_AWLT
 4502              		.loc 1 2682 39
 4503 009a 0A43     		orrs	r2, r2, r1
 4504 009c 5A62     		str	r2, [r3, #36]
2684:Drivers/STM32L4xx_HAL_Driver/Src/stm32l4xx_hal_dfsdm.c **** 
2685:Drivers/STM32L4xx_HAL_Driver/Src/stm32l4xx_hal_dfsdm.c ****     /* Set channels and interrupt for analog watchdog */
2686:Drivers/STM32L4xx_HAL_Driver/Src/stm32l4xx_hal_dfsdm.c ****     hdfsdm_filter->Instance->FLTCR2 &= ~(DFSDM_FLTCR2_AWDCH);
 4505              		.loc 1 2686 18
 4506 009e 7B68     		ldr	r3, [r7, #4]
 4507 00a0 1B68     		ldr	r3, [r3]
 4508              		.loc 1 2686 28
 4509 00a2 5A68     		ldr	r2, [r3, #4]
 4510              		.loc 1 2686 18
 4511 00a4 7B68     		ldr	r3, [r7, #4]
 4512 00a6 1B68     		ldr	r3, [r3]
 4513              		.loc 1 2686 37
 4514 00a8 22F47F02 		bic	r2, r2, #16711680
 4515 00ac 5A60     		str	r2, [r3, #4]
2687:Drivers/STM32L4xx_HAL_Driver/Src/stm32l4xx_hal_dfsdm.c ****     hdfsdm_filter->Instance->FLTCR2 |= (((awdParam->Channel & DFSDM_LSB_MASK) << DFSDM_FLTCR2_AWDCH
 4516              		.loc 1 2687 18
 4517 00ae 7B68     		ldr	r3, [r7, #4]
 4518 00b0 1B68     		ldr	r3, [r3]
 4519              		.loc 1 2687 28
 4520 00b2 5A68     		ldr	r2, [r3, #4]
 4521              		.loc 1 2687 51
 4522 00b4 3B68     		ldr	r3, [r7]
 4523 00b6 5B68     		ldr	r3, [r3, #4]
 4524              		.loc 1 2687 79
 4525 00b8 1B04     		lsls	r3, r3, #16
 4526              		.loc 1 2687 37
 4527 00ba 1A43     		orrs	r2, r2, r3
 4528              		.loc 1 2687 18
 4529 00bc 7B68     		ldr	r3, [r7, #4]
 4530 00be 1B68     		ldr	r3, [r3]
ARM GAS  /tmp/ccrDNuCE.s 			page 128


 4531              		.loc 1 2687 37
 4532 00c0 42F01002 		orr	r2, r2, #16
 4533 00c4 5A60     		str	r2, [r3, #4]
 4534              	.L273:
2688:Drivers/STM32L4xx_HAL_Driver/Src/stm32l4xx_hal_dfsdm.c ****                                         DFSDM_FLTCR2_AWDIE);
2689:Drivers/STM32L4xx_HAL_Driver/Src/stm32l4xx_hal_dfsdm.c ****   }
2690:Drivers/STM32L4xx_HAL_Driver/Src/stm32l4xx_hal_dfsdm.c ****   /* Return function status */
2691:Drivers/STM32L4xx_HAL_Driver/Src/stm32l4xx_hal_dfsdm.c ****   return status;
 4535              		.loc 1 2691 10
 4536 00c6 FB7B     		ldrb	r3, [r7, #15]	@ zero_extendqisi2
2692:Drivers/STM32L4xx_HAL_Driver/Src/stm32l4xx_hal_dfsdm.c **** }
 4537              		.loc 1 2692 1
 4538 00c8 1846     		mov	r0, r3
 4539 00ca 1437     		adds	r7, r7, #20
 4540              		.cfi_def_cfa_offset 4
 4541 00cc BD46     		mov	sp, r7
 4542              		.cfi_def_cfa_register 13
 4543              		@ sp needed
 4544 00ce 5DF8047B 		ldr	r7, [sp], #4
 4545              		.cfi_restore 7
 4546              		.cfi_def_cfa_offset 0
 4547 00d2 7047     		bx	lr
 4548              		.cfi_endproc
 4549              	.LFE488:
 4551              		.section	.text.HAL_DFSDM_FilterAwdStop_IT,"ax",%progbits
 4552              		.align	1
 4553              		.global	HAL_DFSDM_FilterAwdStop_IT
 4554              		.syntax unified
 4555              		.thumb
 4556              		.thumb_func
 4558              	HAL_DFSDM_FilterAwdStop_IT:
 4559              	.LFB489:
2693:Drivers/STM32L4xx_HAL_Driver/Src/stm32l4xx_hal_dfsdm.c **** 
2694:Drivers/STM32L4xx_HAL_Driver/Src/stm32l4xx_hal_dfsdm.c **** /**
2695:Drivers/STM32L4xx_HAL_Driver/Src/stm32l4xx_hal_dfsdm.c ****   * @brief  This function allows to stop filter analog watchdog in interrupt mode.
2696:Drivers/STM32L4xx_HAL_Driver/Src/stm32l4xx_hal_dfsdm.c ****   * @param  hdfsdm_filter DFSDM filter handle.
2697:Drivers/STM32L4xx_HAL_Driver/Src/stm32l4xx_hal_dfsdm.c ****   * @retval HAL status
2698:Drivers/STM32L4xx_HAL_Driver/Src/stm32l4xx_hal_dfsdm.c ****   */
2699:Drivers/STM32L4xx_HAL_Driver/Src/stm32l4xx_hal_dfsdm.c **** HAL_StatusTypeDef HAL_DFSDM_FilterAwdStop_IT(DFSDM_Filter_HandleTypeDef *hdfsdm_filter)
2700:Drivers/STM32L4xx_HAL_Driver/Src/stm32l4xx_hal_dfsdm.c **** {
 4560              		.loc 1 2700 1
 4561              		.cfi_startproc
 4562              		@ args = 0, pretend = 0, frame = 16
 4563              		@ frame_needed = 1, uses_anonymous_args = 0
 4564              		@ link register save eliminated.
 4565 0000 80B4     		push	{r7}
 4566              		.cfi_def_cfa_offset 4
 4567              		.cfi_offset 7, -4
 4568 0002 85B0     		sub	sp, sp, #20
 4569              		.cfi_def_cfa_offset 24
 4570 0004 00AF     		add	r7, sp, #0
 4571              		.cfi_def_cfa_register 7
 4572 0006 7860     		str	r0, [r7, #4]
2701:Drivers/STM32L4xx_HAL_Driver/Src/stm32l4xx_hal_dfsdm.c ****   HAL_StatusTypeDef status = HAL_OK;
 4573              		.loc 1 2701 21
 4574 0008 0023     		movs	r3, #0
 4575 000a FB73     		strb	r3, [r7, #15]
ARM GAS  /tmp/ccrDNuCE.s 			page 129


2702:Drivers/STM32L4xx_HAL_Driver/Src/stm32l4xx_hal_dfsdm.c **** 
2703:Drivers/STM32L4xx_HAL_Driver/Src/stm32l4xx_hal_dfsdm.c ****   /* Check parameters */
2704:Drivers/STM32L4xx_HAL_Driver/Src/stm32l4xx_hal_dfsdm.c ****   assert_param(IS_DFSDM_FILTER_ALL_INSTANCE(hdfsdm_filter->Instance));
2705:Drivers/STM32L4xx_HAL_Driver/Src/stm32l4xx_hal_dfsdm.c **** 
2706:Drivers/STM32L4xx_HAL_Driver/Src/stm32l4xx_hal_dfsdm.c ****   /* Check DFSDM filter state */
2707:Drivers/STM32L4xx_HAL_Driver/Src/stm32l4xx_hal_dfsdm.c ****   if ((hdfsdm_filter->State == HAL_DFSDM_FILTER_STATE_RESET) || \
 4576              		.loc 1 2707 21
 4577 000c 7B68     		ldr	r3, [r7, #4]
 4578 000e 93F84C30 		ldrb	r3, [r3, #76]	@ zero_extendqisi2
 4579              		.loc 1 2707 6
 4580 0012 002B     		cmp	r3, #0
 4581 0014 04D0     		beq	.L276
2708:Drivers/STM32L4xx_HAL_Driver/Src/stm32l4xx_hal_dfsdm.c ****       (hdfsdm_filter->State == HAL_DFSDM_FILTER_STATE_ERROR))
 4582              		.loc 1 2708 21
 4583 0016 7B68     		ldr	r3, [r7, #4]
 4584 0018 93F84C30 		ldrb	r3, [r3, #76]	@ zero_extendqisi2
2707:Drivers/STM32L4xx_HAL_Driver/Src/stm32l4xx_hal_dfsdm.c ****       (hdfsdm_filter->State == HAL_DFSDM_FILTER_STATE_ERROR))
 4585              		.loc 1 2707 62 discriminator 1
 4586 001c FF2B     		cmp	r3, #255
 4587 001e 02D1     		bne	.L277
 4588              	.L276:
2709:Drivers/STM32L4xx_HAL_Driver/Src/stm32l4xx_hal_dfsdm.c ****   {
2710:Drivers/STM32L4xx_HAL_Driver/Src/stm32l4xx_hal_dfsdm.c ****     /* Return error status */
2711:Drivers/STM32L4xx_HAL_Driver/Src/stm32l4xx_hal_dfsdm.c ****     status = HAL_ERROR;
 4589              		.loc 1 2711 12
 4590 0020 0123     		movs	r3, #1
 4591 0022 FB73     		strb	r3, [r7, #15]
 4592 0024 26E0     		b	.L278
 4593              	.L277:
2712:Drivers/STM32L4xx_HAL_Driver/Src/stm32l4xx_hal_dfsdm.c ****   }
2713:Drivers/STM32L4xx_HAL_Driver/Src/stm32l4xx_hal_dfsdm.c ****   else
2714:Drivers/STM32L4xx_HAL_Driver/Src/stm32l4xx_hal_dfsdm.c ****   {
2715:Drivers/STM32L4xx_HAL_Driver/Src/stm32l4xx_hal_dfsdm.c ****     /* Reset channels for analog watchdog and deactivate interrupt */
2716:Drivers/STM32L4xx_HAL_Driver/Src/stm32l4xx_hal_dfsdm.c ****     hdfsdm_filter->Instance->FLTCR2 &= ~(DFSDM_FLTCR2_AWDCH | DFSDM_FLTCR2_AWDIE);
 4594              		.loc 1 2716 18
 4595 0026 7B68     		ldr	r3, [r7, #4]
 4596 0028 1B68     		ldr	r3, [r3]
 4597              		.loc 1 2716 28
 4598 002a 5B68     		ldr	r3, [r3, #4]
 4599              		.loc 1 2716 18
 4600 002c 7A68     		ldr	r2, [r7, #4]
 4601 002e 1268     		ldr	r2, [r2]
 4602              		.loc 1 2716 37
 4603 0030 23F47F03 		bic	r3, r3, #16711680
 4604 0034 23F01003 		bic	r3, r3, #16
 4605 0038 5360     		str	r3, [r2, #4]
2717:Drivers/STM32L4xx_HAL_Driver/Src/stm32l4xx_hal_dfsdm.c **** 
2718:Drivers/STM32L4xx_HAL_Driver/Src/stm32l4xx_hal_dfsdm.c ****     /* Clear all analog watchdog flags */
2719:Drivers/STM32L4xx_HAL_Driver/Src/stm32l4xx_hal_dfsdm.c ****     hdfsdm_filter->Instance->FLTAWCFR = (DFSDM_FLTAWCFR_CLRAWHTF | DFSDM_FLTAWCFR_CLRAWLTF);
 4606              		.loc 1 2719 18
 4607 003a 7B68     		ldr	r3, [r7, #4]
 4608 003c 1B68     		ldr	r3, [r3]
 4609              		.loc 1 2719 39
 4610 003e 4FF6FF72 		movw	r2, #65535
 4611 0042 DA62     		str	r2, [r3, #44]
2720:Drivers/STM32L4xx_HAL_Driver/Src/stm32l4xx_hal_dfsdm.c **** 
2721:Drivers/STM32L4xx_HAL_Driver/Src/stm32l4xx_hal_dfsdm.c ****     /* Reset thresholds and break signals */
ARM GAS  /tmp/ccrDNuCE.s 			page 130


2722:Drivers/STM32L4xx_HAL_Driver/Src/stm32l4xx_hal_dfsdm.c ****     hdfsdm_filter->Instance->FLTAWHTR &= ~(DFSDM_FLTAWHTR_AWHT | DFSDM_FLTAWHTR_BKAWH);
 4612              		.loc 1 2722 18
 4613 0044 7B68     		ldr	r3, [r7, #4]
 4614 0046 1B68     		ldr	r3, [r3]
 4615              		.loc 1 2722 28
 4616 0048 1A6A     		ldr	r2, [r3, #32]
 4617              		.loc 1 2722 18
 4618 004a 7B68     		ldr	r3, [r7, #4]
 4619 004c 1B68     		ldr	r3, [r3]
 4620              		.loc 1 2722 39
 4621 004e 02F0F002 		and	r2, r2, #240
 4622 0052 1A62     		str	r2, [r3, #32]
2723:Drivers/STM32L4xx_HAL_Driver/Src/stm32l4xx_hal_dfsdm.c ****     hdfsdm_filter->Instance->FLTAWLTR &= ~(DFSDM_FLTAWLTR_AWLT | DFSDM_FLTAWLTR_BKAWL);
 4623              		.loc 1 2723 18
 4624 0054 7B68     		ldr	r3, [r7, #4]
 4625 0056 1B68     		ldr	r3, [r3]
 4626              		.loc 1 2723 28
 4627 0058 5A6A     		ldr	r2, [r3, #36]
 4628              		.loc 1 2723 18
 4629 005a 7B68     		ldr	r3, [r7, #4]
 4630 005c 1B68     		ldr	r3, [r3]
 4631              		.loc 1 2723 39
 4632 005e 02F0F002 		and	r2, r2, #240
 4633 0062 5A62     		str	r2, [r3, #36]
2724:Drivers/STM32L4xx_HAL_Driver/Src/stm32l4xx_hal_dfsdm.c **** 
2725:Drivers/STM32L4xx_HAL_Driver/Src/stm32l4xx_hal_dfsdm.c ****     /* Reset analog watchdog data source */
2726:Drivers/STM32L4xx_HAL_Driver/Src/stm32l4xx_hal_dfsdm.c ****     hdfsdm_filter->Instance->FLTCR1 &= ~(DFSDM_FLTCR1_AWFSEL);
 4634              		.loc 1 2726 18
 4635 0064 7B68     		ldr	r3, [r7, #4]
 4636 0066 1B68     		ldr	r3, [r3]
 4637              		.loc 1 2726 28
 4638 0068 1A68     		ldr	r2, [r3]
 4639              		.loc 1 2726 18
 4640 006a 7B68     		ldr	r3, [r7, #4]
 4641 006c 1B68     		ldr	r3, [r3]
 4642              		.loc 1 2726 37
 4643 006e 22F08042 		bic	r2, r2, #1073741824
 4644 0072 1A60     		str	r2, [r3]
 4645              	.L278:
2727:Drivers/STM32L4xx_HAL_Driver/Src/stm32l4xx_hal_dfsdm.c ****   }
2728:Drivers/STM32L4xx_HAL_Driver/Src/stm32l4xx_hal_dfsdm.c ****   /* Return function status */
2729:Drivers/STM32L4xx_HAL_Driver/Src/stm32l4xx_hal_dfsdm.c ****   return status;
 4646              		.loc 1 2729 10
 4647 0074 FB7B     		ldrb	r3, [r7, #15]	@ zero_extendqisi2
2730:Drivers/STM32L4xx_HAL_Driver/Src/stm32l4xx_hal_dfsdm.c **** }
 4648              		.loc 1 2730 1
 4649 0076 1846     		mov	r0, r3
 4650 0078 1437     		adds	r7, r7, #20
 4651              		.cfi_def_cfa_offset 4
 4652 007a BD46     		mov	sp, r7
 4653              		.cfi_def_cfa_register 13
 4654              		@ sp needed
 4655 007c 5DF8047B 		ldr	r7, [sp], #4
 4656              		.cfi_restore 7
 4657              		.cfi_def_cfa_offset 0
 4658 0080 7047     		bx	lr
 4659              		.cfi_endproc
ARM GAS  /tmp/ccrDNuCE.s 			page 131


 4660              	.LFE489:
 4662              		.section	.text.HAL_DFSDM_FilterExdStart,"ax",%progbits
 4663              		.align	1
 4664              		.global	HAL_DFSDM_FilterExdStart
 4665              		.syntax unified
 4666              		.thumb
 4667              		.thumb_func
 4669              	HAL_DFSDM_FilterExdStart:
 4670              	.LFB490:
2731:Drivers/STM32L4xx_HAL_Driver/Src/stm32l4xx_hal_dfsdm.c **** 
2732:Drivers/STM32L4xx_HAL_Driver/Src/stm32l4xx_hal_dfsdm.c **** /**
2733:Drivers/STM32L4xx_HAL_Driver/Src/stm32l4xx_hal_dfsdm.c ****   * @brief  This function allows to start extreme detector feature.
2734:Drivers/STM32L4xx_HAL_Driver/Src/stm32l4xx_hal_dfsdm.c ****   * @param  hdfsdm_filter DFSDM filter handle.
2735:Drivers/STM32L4xx_HAL_Driver/Src/stm32l4xx_hal_dfsdm.c ****   * @param  Channel Channels where extreme detector is enabled.
2736:Drivers/STM32L4xx_HAL_Driver/Src/stm32l4xx_hal_dfsdm.c ****   *         This parameter can be a values combination of @ref DFSDM_Channel_Selection.
2737:Drivers/STM32L4xx_HAL_Driver/Src/stm32l4xx_hal_dfsdm.c ****   * @retval HAL status
2738:Drivers/STM32L4xx_HAL_Driver/Src/stm32l4xx_hal_dfsdm.c ****   */
2739:Drivers/STM32L4xx_HAL_Driver/Src/stm32l4xx_hal_dfsdm.c **** HAL_StatusTypeDef HAL_DFSDM_FilterExdStart(DFSDM_Filter_HandleTypeDef *hdfsdm_filter,
2740:Drivers/STM32L4xx_HAL_Driver/Src/stm32l4xx_hal_dfsdm.c ****                                            uint32_t                    Channel)
2741:Drivers/STM32L4xx_HAL_Driver/Src/stm32l4xx_hal_dfsdm.c **** {
 4671              		.loc 1 2741 1
 4672              		.cfi_startproc
 4673              		@ args = 0, pretend = 0, frame = 16
 4674              		@ frame_needed = 1, uses_anonymous_args = 0
 4675              		@ link register save eliminated.
 4676 0000 80B4     		push	{r7}
 4677              		.cfi_def_cfa_offset 4
 4678              		.cfi_offset 7, -4
 4679 0002 85B0     		sub	sp, sp, #20
 4680              		.cfi_def_cfa_offset 24
 4681 0004 00AF     		add	r7, sp, #0
 4682              		.cfi_def_cfa_register 7
 4683 0006 7860     		str	r0, [r7, #4]
 4684 0008 3960     		str	r1, [r7]
2742:Drivers/STM32L4xx_HAL_Driver/Src/stm32l4xx_hal_dfsdm.c ****   HAL_StatusTypeDef status = HAL_OK;
 4685              		.loc 1 2742 21
 4686 000a 0023     		movs	r3, #0
 4687 000c FB73     		strb	r3, [r7, #15]
2743:Drivers/STM32L4xx_HAL_Driver/Src/stm32l4xx_hal_dfsdm.c **** 
2744:Drivers/STM32L4xx_HAL_Driver/Src/stm32l4xx_hal_dfsdm.c ****   /* Check parameters */
2745:Drivers/STM32L4xx_HAL_Driver/Src/stm32l4xx_hal_dfsdm.c ****   assert_param(IS_DFSDM_FILTER_ALL_INSTANCE(hdfsdm_filter->Instance));
2746:Drivers/STM32L4xx_HAL_Driver/Src/stm32l4xx_hal_dfsdm.c ****   assert_param(IS_DFSDM_INJECTED_CHANNEL(Channel));
2747:Drivers/STM32L4xx_HAL_Driver/Src/stm32l4xx_hal_dfsdm.c **** 
2748:Drivers/STM32L4xx_HAL_Driver/Src/stm32l4xx_hal_dfsdm.c ****   /* Check DFSDM filter state */
2749:Drivers/STM32L4xx_HAL_Driver/Src/stm32l4xx_hal_dfsdm.c ****   if ((hdfsdm_filter->State == HAL_DFSDM_FILTER_STATE_RESET) || \
 4688              		.loc 1 2749 21
 4689 000e 7B68     		ldr	r3, [r7, #4]
 4690 0010 93F84C30 		ldrb	r3, [r3, #76]	@ zero_extendqisi2
 4691              		.loc 1 2749 6
 4692 0014 002B     		cmp	r3, #0
 4693 0016 04D0     		beq	.L281
2750:Drivers/STM32L4xx_HAL_Driver/Src/stm32l4xx_hal_dfsdm.c ****       (hdfsdm_filter->State == HAL_DFSDM_FILTER_STATE_ERROR))
 4694              		.loc 1 2750 21
 4695 0018 7B68     		ldr	r3, [r7, #4]
 4696 001a 93F84C30 		ldrb	r3, [r3, #76]	@ zero_extendqisi2
2749:Drivers/STM32L4xx_HAL_Driver/Src/stm32l4xx_hal_dfsdm.c ****       (hdfsdm_filter->State == HAL_DFSDM_FILTER_STATE_ERROR))
 4697              		.loc 1 2749 62 discriminator 1
ARM GAS  /tmp/ccrDNuCE.s 			page 132


 4698 001e FF2B     		cmp	r3, #255
 4699 0020 02D1     		bne	.L282
 4700              	.L281:
2751:Drivers/STM32L4xx_HAL_Driver/Src/stm32l4xx_hal_dfsdm.c ****   {
2752:Drivers/STM32L4xx_HAL_Driver/Src/stm32l4xx_hal_dfsdm.c ****     /* Return error status */
2753:Drivers/STM32L4xx_HAL_Driver/Src/stm32l4xx_hal_dfsdm.c ****     status = HAL_ERROR;
 4701              		.loc 1 2753 12
 4702 0022 0123     		movs	r3, #1
 4703 0024 FB73     		strb	r3, [r7, #15]
 4704 0026 14E0     		b	.L283
 4705              	.L282:
2754:Drivers/STM32L4xx_HAL_Driver/Src/stm32l4xx_hal_dfsdm.c ****   }
2755:Drivers/STM32L4xx_HAL_Driver/Src/stm32l4xx_hal_dfsdm.c ****   else
2756:Drivers/STM32L4xx_HAL_Driver/Src/stm32l4xx_hal_dfsdm.c ****   {
2757:Drivers/STM32L4xx_HAL_Driver/Src/stm32l4xx_hal_dfsdm.c ****     /* Set channels for extreme detector */
2758:Drivers/STM32L4xx_HAL_Driver/Src/stm32l4xx_hal_dfsdm.c ****     hdfsdm_filter->Instance->FLTCR2 &= ~(DFSDM_FLTCR2_EXCH);
 4706              		.loc 1 2758 18
 4707 0028 7B68     		ldr	r3, [r7, #4]
 4708 002a 1B68     		ldr	r3, [r3]
 4709              		.loc 1 2758 28
 4710 002c 5A68     		ldr	r2, [r3, #4]
 4711              		.loc 1 2758 18
 4712 002e 7B68     		ldr	r3, [r7, #4]
 4713 0030 1B68     		ldr	r3, [r3]
 4714              		.loc 1 2758 37
 4715 0032 22F47F42 		bic	r2, r2, #65280
 4716 0036 5A60     		str	r2, [r3, #4]
2759:Drivers/STM32L4xx_HAL_Driver/Src/stm32l4xx_hal_dfsdm.c ****     hdfsdm_filter->Instance->FLTCR2 |= ((Channel & DFSDM_LSB_MASK) << DFSDM_FLTCR2_EXCH_Pos);
 4717              		.loc 1 2759 18
 4718 0038 7B68     		ldr	r3, [r7, #4]
 4719 003a 1B68     		ldr	r3, [r3]
 4720              		.loc 1 2759 28
 4721 003c 5968     		ldr	r1, [r3, #4]
 4722              		.loc 1 2759 68
 4723 003e 3B68     		ldr	r3, [r7]
 4724 0040 1B02     		lsls	r3, r3, #8
 4725 0042 23F07F43 		bic	r3, r3, #-16777216
 4726 0046 23F0FF03 		bic	r3, r3, #255
 4727              		.loc 1 2759 18
 4728 004a 7A68     		ldr	r2, [r7, #4]
 4729 004c 1268     		ldr	r2, [r2]
 4730              		.loc 1 2759 37
 4731 004e 0B43     		orrs	r3, r3, r1
 4732 0050 5360     		str	r3, [r2, #4]
 4733              	.L283:
2760:Drivers/STM32L4xx_HAL_Driver/Src/stm32l4xx_hal_dfsdm.c ****   }
2761:Drivers/STM32L4xx_HAL_Driver/Src/stm32l4xx_hal_dfsdm.c ****   /* Return function status */
2762:Drivers/STM32L4xx_HAL_Driver/Src/stm32l4xx_hal_dfsdm.c ****   return status;
 4734              		.loc 1 2762 10
 4735 0052 FB7B     		ldrb	r3, [r7, #15]	@ zero_extendqisi2
2763:Drivers/STM32L4xx_HAL_Driver/Src/stm32l4xx_hal_dfsdm.c **** }
 4736              		.loc 1 2763 1
 4737 0054 1846     		mov	r0, r3
 4738 0056 1437     		adds	r7, r7, #20
 4739              		.cfi_def_cfa_offset 4
 4740 0058 BD46     		mov	sp, r7
 4741              		.cfi_def_cfa_register 13
ARM GAS  /tmp/ccrDNuCE.s 			page 133


 4742              		@ sp needed
 4743 005a 5DF8047B 		ldr	r7, [sp], #4
 4744              		.cfi_restore 7
 4745              		.cfi_def_cfa_offset 0
 4746 005e 7047     		bx	lr
 4747              		.cfi_endproc
 4748              	.LFE490:
 4750              		.section	.text.HAL_DFSDM_FilterExdStop,"ax",%progbits
 4751              		.align	1
 4752              		.global	HAL_DFSDM_FilterExdStop
 4753              		.syntax unified
 4754              		.thumb
 4755              		.thumb_func
 4757              	HAL_DFSDM_FilterExdStop:
 4758              	.LFB491:
2764:Drivers/STM32L4xx_HAL_Driver/Src/stm32l4xx_hal_dfsdm.c **** 
2765:Drivers/STM32L4xx_HAL_Driver/Src/stm32l4xx_hal_dfsdm.c **** /**
2766:Drivers/STM32L4xx_HAL_Driver/Src/stm32l4xx_hal_dfsdm.c ****   * @brief  This function allows to stop extreme detector feature.
2767:Drivers/STM32L4xx_HAL_Driver/Src/stm32l4xx_hal_dfsdm.c ****   * @param  hdfsdm_filter DFSDM filter handle.
2768:Drivers/STM32L4xx_HAL_Driver/Src/stm32l4xx_hal_dfsdm.c ****   * @retval HAL status
2769:Drivers/STM32L4xx_HAL_Driver/Src/stm32l4xx_hal_dfsdm.c ****   */
2770:Drivers/STM32L4xx_HAL_Driver/Src/stm32l4xx_hal_dfsdm.c **** HAL_StatusTypeDef HAL_DFSDM_FilterExdStop(DFSDM_Filter_HandleTypeDef *hdfsdm_filter)
2771:Drivers/STM32L4xx_HAL_Driver/Src/stm32l4xx_hal_dfsdm.c **** {
 4759              		.loc 1 2771 1
 4760              		.cfi_startproc
 4761              		@ args = 0, pretend = 0, frame = 24
 4762              		@ frame_needed = 1, uses_anonymous_args = 0
 4763              		@ link register save eliminated.
 4764 0000 80B4     		push	{r7}
 4765              		.cfi_def_cfa_offset 4
 4766              		.cfi_offset 7, -4
 4767 0002 87B0     		sub	sp, sp, #28
 4768              		.cfi_def_cfa_offset 32
 4769 0004 00AF     		add	r7, sp, #0
 4770              		.cfi_def_cfa_register 7
 4771 0006 7860     		str	r0, [r7, #4]
2772:Drivers/STM32L4xx_HAL_Driver/Src/stm32l4xx_hal_dfsdm.c ****   HAL_StatusTypeDef status = HAL_OK;
 4772              		.loc 1 2772 21
 4773 0008 0023     		movs	r3, #0
 4774 000a FB75     		strb	r3, [r7, #23]
2773:Drivers/STM32L4xx_HAL_Driver/Src/stm32l4xx_hal_dfsdm.c ****   __IO uint32_t     reg1;
2774:Drivers/STM32L4xx_HAL_Driver/Src/stm32l4xx_hal_dfsdm.c ****   __IO uint32_t     reg2;
2775:Drivers/STM32L4xx_HAL_Driver/Src/stm32l4xx_hal_dfsdm.c **** 
2776:Drivers/STM32L4xx_HAL_Driver/Src/stm32l4xx_hal_dfsdm.c ****   /* Check parameters */
2777:Drivers/STM32L4xx_HAL_Driver/Src/stm32l4xx_hal_dfsdm.c ****   assert_param(IS_DFSDM_FILTER_ALL_INSTANCE(hdfsdm_filter->Instance));
2778:Drivers/STM32L4xx_HAL_Driver/Src/stm32l4xx_hal_dfsdm.c **** 
2779:Drivers/STM32L4xx_HAL_Driver/Src/stm32l4xx_hal_dfsdm.c ****   /* Check DFSDM filter state */
2780:Drivers/STM32L4xx_HAL_Driver/Src/stm32l4xx_hal_dfsdm.c ****   if ((hdfsdm_filter->State == HAL_DFSDM_FILTER_STATE_RESET) || \
 4775              		.loc 1 2780 21
 4776 000c 7B68     		ldr	r3, [r7, #4]
 4777 000e 93F84C30 		ldrb	r3, [r3, #76]	@ zero_extendqisi2
 4778              		.loc 1 2780 6
 4779 0012 002B     		cmp	r3, #0
 4780 0014 04D0     		beq	.L286
2781:Drivers/STM32L4xx_HAL_Driver/Src/stm32l4xx_hal_dfsdm.c ****       (hdfsdm_filter->State == HAL_DFSDM_FILTER_STATE_ERROR))
 4781              		.loc 1 2781 21
 4782 0016 7B68     		ldr	r3, [r7, #4]
ARM GAS  /tmp/ccrDNuCE.s 			page 134


 4783 0018 93F84C30 		ldrb	r3, [r3, #76]	@ zero_extendqisi2
2780:Drivers/STM32L4xx_HAL_Driver/Src/stm32l4xx_hal_dfsdm.c ****       (hdfsdm_filter->State == HAL_DFSDM_FILTER_STATE_ERROR))
 4784              		.loc 1 2780 62 discriminator 1
 4785 001c FF2B     		cmp	r3, #255
 4786 001e 02D1     		bne	.L287
 4787              	.L286:
2782:Drivers/STM32L4xx_HAL_Driver/Src/stm32l4xx_hal_dfsdm.c ****   {
2783:Drivers/STM32L4xx_HAL_Driver/Src/stm32l4xx_hal_dfsdm.c ****     /* Return error status */
2784:Drivers/STM32L4xx_HAL_Driver/Src/stm32l4xx_hal_dfsdm.c ****     status = HAL_ERROR;
 4788              		.loc 1 2784 12
 4789 0020 0123     		movs	r3, #1
 4790 0022 FB75     		strb	r3, [r7, #23]
 4791 0024 11E0     		b	.L288
 4792              	.L287:
2785:Drivers/STM32L4xx_HAL_Driver/Src/stm32l4xx_hal_dfsdm.c ****   }
2786:Drivers/STM32L4xx_HAL_Driver/Src/stm32l4xx_hal_dfsdm.c ****   else
2787:Drivers/STM32L4xx_HAL_Driver/Src/stm32l4xx_hal_dfsdm.c ****   {
2788:Drivers/STM32L4xx_HAL_Driver/Src/stm32l4xx_hal_dfsdm.c ****     /* Reset channels for extreme detector */
2789:Drivers/STM32L4xx_HAL_Driver/Src/stm32l4xx_hal_dfsdm.c ****     hdfsdm_filter->Instance->FLTCR2 &= ~(DFSDM_FLTCR2_EXCH);
 4793              		.loc 1 2789 18
 4794 0026 7B68     		ldr	r3, [r7, #4]
 4795 0028 1B68     		ldr	r3, [r3]
 4796              		.loc 1 2789 28
 4797 002a 5A68     		ldr	r2, [r3, #4]
 4798              		.loc 1 2789 18
 4799 002c 7B68     		ldr	r3, [r7, #4]
 4800 002e 1B68     		ldr	r3, [r3]
 4801              		.loc 1 2789 37
 4802 0030 22F47F42 		bic	r2, r2, #65280
 4803 0034 5A60     		str	r2, [r3, #4]
2790:Drivers/STM32L4xx_HAL_Driver/Src/stm32l4xx_hal_dfsdm.c **** 
2791:Drivers/STM32L4xx_HAL_Driver/Src/stm32l4xx_hal_dfsdm.c ****     /* Clear extreme detector values */
2792:Drivers/STM32L4xx_HAL_Driver/Src/stm32l4xx_hal_dfsdm.c ****     reg1 = hdfsdm_filter->Instance->FLTEXMAX;
 4804              		.loc 1 2792 25
 4805 0036 7B68     		ldr	r3, [r7, #4]
 4806 0038 1B68     		ldr	r3, [r3]
 4807              		.loc 1 2792 35
 4808 003a 1B6B     		ldr	r3, [r3, #48]
 4809              		.loc 1 2792 10
 4810 003c 3B61     		str	r3, [r7, #16]
2793:Drivers/STM32L4xx_HAL_Driver/Src/stm32l4xx_hal_dfsdm.c ****     reg2 = hdfsdm_filter->Instance->FLTEXMIN;
 4811              		.loc 1 2793 25
 4812 003e 7B68     		ldr	r3, [r7, #4]
 4813 0040 1B68     		ldr	r3, [r3]
 4814              		.loc 1 2793 35
 4815 0042 5B6B     		ldr	r3, [r3, #52]
 4816              		.loc 1 2793 10
 4817 0044 FB60     		str	r3, [r7, #12]
2794:Drivers/STM32L4xx_HAL_Driver/Src/stm32l4xx_hal_dfsdm.c ****     UNUSED(reg1); /* To avoid GCC warning */
 4818              		.loc 1 2794 5
 4819 0046 3B69     		ldr	r3, [r7, #16]
2795:Drivers/STM32L4xx_HAL_Driver/Src/stm32l4xx_hal_dfsdm.c ****     UNUSED(reg2); /* To avoid GCC warning */
 4820              		.loc 1 2795 5
 4821 0048 FB68     		ldr	r3, [r7, #12]
 4822              	.L288:
2796:Drivers/STM32L4xx_HAL_Driver/Src/stm32l4xx_hal_dfsdm.c ****   }
2797:Drivers/STM32L4xx_HAL_Driver/Src/stm32l4xx_hal_dfsdm.c ****   /* Return function status */
ARM GAS  /tmp/ccrDNuCE.s 			page 135


2798:Drivers/STM32L4xx_HAL_Driver/Src/stm32l4xx_hal_dfsdm.c ****   return status;
 4823              		.loc 1 2798 10
 4824 004a FB7D     		ldrb	r3, [r7, #23]	@ zero_extendqisi2
2799:Drivers/STM32L4xx_HAL_Driver/Src/stm32l4xx_hal_dfsdm.c **** }
 4825              		.loc 1 2799 1
 4826 004c 1846     		mov	r0, r3
 4827 004e 1C37     		adds	r7, r7, #28
 4828              		.cfi_def_cfa_offset 4
 4829 0050 BD46     		mov	sp, r7
 4830              		.cfi_def_cfa_register 13
 4831              		@ sp needed
 4832 0052 5DF8047B 		ldr	r7, [sp], #4
 4833              		.cfi_restore 7
 4834              		.cfi_def_cfa_offset 0
 4835 0056 7047     		bx	lr
 4836              		.cfi_endproc
 4837              	.LFE491:
 4839              		.section	.text.HAL_DFSDM_FilterGetExdMaxValue,"ax",%progbits
 4840              		.align	1
 4841              		.global	HAL_DFSDM_FilterGetExdMaxValue
 4842              		.syntax unified
 4843              		.thumb
 4844              		.thumb_func
 4846              	HAL_DFSDM_FilterGetExdMaxValue:
 4847              	.LFB492:
2800:Drivers/STM32L4xx_HAL_Driver/Src/stm32l4xx_hal_dfsdm.c **** 
2801:Drivers/STM32L4xx_HAL_Driver/Src/stm32l4xx_hal_dfsdm.c **** /**
2802:Drivers/STM32L4xx_HAL_Driver/Src/stm32l4xx_hal_dfsdm.c ****   * @brief  This function allows to get extreme detector maximum value.
2803:Drivers/STM32L4xx_HAL_Driver/Src/stm32l4xx_hal_dfsdm.c ****   * @param  hdfsdm_filter DFSDM filter handle.
2804:Drivers/STM32L4xx_HAL_Driver/Src/stm32l4xx_hal_dfsdm.c ****   * @param  Channel Corresponding channel.
2805:Drivers/STM32L4xx_HAL_Driver/Src/stm32l4xx_hal_dfsdm.c ****   * @retval Extreme detector maximum value
2806:Drivers/STM32L4xx_HAL_Driver/Src/stm32l4xx_hal_dfsdm.c ****   *         This value is between Min_Data = -8388608 and Max_Data = 8388607.
2807:Drivers/STM32L4xx_HAL_Driver/Src/stm32l4xx_hal_dfsdm.c ****   */
2808:Drivers/STM32L4xx_HAL_Driver/Src/stm32l4xx_hal_dfsdm.c **** int32_t HAL_DFSDM_FilterGetExdMaxValue(const DFSDM_Filter_HandleTypeDef *hdfsdm_filter,
2809:Drivers/STM32L4xx_HAL_Driver/Src/stm32l4xx_hal_dfsdm.c ****                                        uint32_t                   *Channel)
2810:Drivers/STM32L4xx_HAL_Driver/Src/stm32l4xx_hal_dfsdm.c **** {
 4848              		.loc 1 2810 1
 4849              		.cfi_startproc
 4850              		@ args = 0, pretend = 0, frame = 16
 4851              		@ frame_needed = 1, uses_anonymous_args = 0
 4852              		@ link register save eliminated.
 4853 0000 80B4     		push	{r7}
 4854              		.cfi_def_cfa_offset 4
 4855              		.cfi_offset 7, -4
 4856 0002 85B0     		sub	sp, sp, #20
 4857              		.cfi_def_cfa_offset 24
 4858 0004 00AF     		add	r7, sp, #0
 4859              		.cfi_def_cfa_register 7
 4860 0006 7860     		str	r0, [r7, #4]
 4861 0008 3960     		str	r1, [r7]
2811:Drivers/STM32L4xx_HAL_Driver/Src/stm32l4xx_hal_dfsdm.c ****   uint32_t reg;
2812:Drivers/STM32L4xx_HAL_Driver/Src/stm32l4xx_hal_dfsdm.c ****   int32_t  value;
2813:Drivers/STM32L4xx_HAL_Driver/Src/stm32l4xx_hal_dfsdm.c **** 
2814:Drivers/STM32L4xx_HAL_Driver/Src/stm32l4xx_hal_dfsdm.c ****   /* Check parameters */
2815:Drivers/STM32L4xx_HAL_Driver/Src/stm32l4xx_hal_dfsdm.c ****   assert_param(IS_DFSDM_FILTER_ALL_INSTANCE(hdfsdm_filter->Instance));
2816:Drivers/STM32L4xx_HAL_Driver/Src/stm32l4xx_hal_dfsdm.c ****   assert_param(Channel != (void *)0);
2817:Drivers/STM32L4xx_HAL_Driver/Src/stm32l4xx_hal_dfsdm.c **** 
ARM GAS  /tmp/ccrDNuCE.s 			page 136


2818:Drivers/STM32L4xx_HAL_Driver/Src/stm32l4xx_hal_dfsdm.c ****   /* Get value of extreme detector maximum register */
2819:Drivers/STM32L4xx_HAL_Driver/Src/stm32l4xx_hal_dfsdm.c ****   reg = hdfsdm_filter->Instance->FLTEXMAX;
 4862              		.loc 1 2819 22
 4863 000a 7B68     		ldr	r3, [r7, #4]
 4864 000c 1B68     		ldr	r3, [r3]
 4865              		.loc 1 2819 7
 4866 000e 1B6B     		ldr	r3, [r3, #48]
 4867 0010 FB60     		str	r3, [r7, #12]
2820:Drivers/STM32L4xx_HAL_Driver/Src/stm32l4xx_hal_dfsdm.c **** 
2821:Drivers/STM32L4xx_HAL_Driver/Src/stm32l4xx_hal_dfsdm.c ****   /* Extract channel and extreme detector maximum value */
2822:Drivers/STM32L4xx_HAL_Driver/Src/stm32l4xx_hal_dfsdm.c ****   *Channel = (reg & DFSDM_FLTEXMAX_EXMAXCH);
 4868              		.loc 1 2822 19
 4869 0012 FB68     		ldr	r3, [r7, #12]
 4870 0014 03F00702 		and	r2, r3, #7
 4871              		.loc 1 2822 12
 4872 0018 3B68     		ldr	r3, [r7]
 4873 001a 1A60     		str	r2, [r3]
2823:Drivers/STM32L4xx_HAL_Driver/Src/stm32l4xx_hal_dfsdm.c ****   /* Extreme detector maximum value is a signed value located on 24 MSB of register */
2824:Drivers/STM32L4xx_HAL_Driver/Src/stm32l4xx_hal_dfsdm.c ****   /* So after applying a mask on these bits we have to perform a division by 256 (2 raised to the p
2825:Drivers/STM32L4xx_HAL_Driver/Src/stm32l4xx_hal_dfsdm.c ****   reg &= DFSDM_FLTEXMAX_EXMAX;
 4874              		.loc 1 2825 7
 4875 001c FB68     		ldr	r3, [r7, #12]
 4876 001e 23F0FF03 		bic	r3, r3, #255
 4877 0022 FB60     		str	r3, [r7, #12]
2826:Drivers/STM32L4xx_HAL_Driver/Src/stm32l4xx_hal_dfsdm.c ****   value = ((int32_t)reg) / 256;
 4878              		.loc 1 2826 12
 4879 0024 FB68     		ldr	r3, [r7, #12]
 4880              		.loc 1 2826 9
 4881 0026 002B     		cmp	r3, #0
 4882 0028 00DA     		bge	.L291
 4883 002a FF33     		adds	r3, r3, #255
 4884              	.L291:
 4885 002c 1B12     		asrs	r3, r3, #8
 4886 002e BB60     		str	r3, [r7, #8]
2827:Drivers/STM32L4xx_HAL_Driver/Src/stm32l4xx_hal_dfsdm.c **** 
2828:Drivers/STM32L4xx_HAL_Driver/Src/stm32l4xx_hal_dfsdm.c ****   /* return extreme detector maximum value */
2829:Drivers/STM32L4xx_HAL_Driver/Src/stm32l4xx_hal_dfsdm.c ****   return value;
 4887              		.loc 1 2829 10
 4888 0030 BB68     		ldr	r3, [r7, #8]
2830:Drivers/STM32L4xx_HAL_Driver/Src/stm32l4xx_hal_dfsdm.c **** }
 4889              		.loc 1 2830 1
 4890 0032 1846     		mov	r0, r3
 4891 0034 1437     		adds	r7, r7, #20
 4892              		.cfi_def_cfa_offset 4
 4893 0036 BD46     		mov	sp, r7
 4894              		.cfi_def_cfa_register 13
 4895              		@ sp needed
 4896 0038 5DF8047B 		ldr	r7, [sp], #4
 4897              		.cfi_restore 7
 4898              		.cfi_def_cfa_offset 0
 4899 003c 7047     		bx	lr
 4900              		.cfi_endproc
 4901              	.LFE492:
 4903              		.section	.text.HAL_DFSDM_FilterGetExdMinValue,"ax",%progbits
 4904              		.align	1
 4905              		.global	HAL_DFSDM_FilterGetExdMinValue
 4906              		.syntax unified
ARM GAS  /tmp/ccrDNuCE.s 			page 137


 4907              		.thumb
 4908              		.thumb_func
 4910              	HAL_DFSDM_FilterGetExdMinValue:
 4911              	.LFB493:
2831:Drivers/STM32L4xx_HAL_Driver/Src/stm32l4xx_hal_dfsdm.c **** 
2832:Drivers/STM32L4xx_HAL_Driver/Src/stm32l4xx_hal_dfsdm.c **** /**
2833:Drivers/STM32L4xx_HAL_Driver/Src/stm32l4xx_hal_dfsdm.c ****   * @brief  This function allows to get extreme detector minimum value.
2834:Drivers/STM32L4xx_HAL_Driver/Src/stm32l4xx_hal_dfsdm.c ****   * @param  hdfsdm_filter DFSDM filter handle.
2835:Drivers/STM32L4xx_HAL_Driver/Src/stm32l4xx_hal_dfsdm.c ****   * @param  Channel Corresponding channel.
2836:Drivers/STM32L4xx_HAL_Driver/Src/stm32l4xx_hal_dfsdm.c ****   * @retval Extreme detector minimum value
2837:Drivers/STM32L4xx_HAL_Driver/Src/stm32l4xx_hal_dfsdm.c ****   *         This value is between Min_Data = -8388608 and Max_Data = 8388607.
2838:Drivers/STM32L4xx_HAL_Driver/Src/stm32l4xx_hal_dfsdm.c ****   */
2839:Drivers/STM32L4xx_HAL_Driver/Src/stm32l4xx_hal_dfsdm.c **** int32_t HAL_DFSDM_FilterGetExdMinValue(const DFSDM_Filter_HandleTypeDef *hdfsdm_filter,
2840:Drivers/STM32L4xx_HAL_Driver/Src/stm32l4xx_hal_dfsdm.c ****                                        uint32_t                   *Channel)
2841:Drivers/STM32L4xx_HAL_Driver/Src/stm32l4xx_hal_dfsdm.c **** {
 4912              		.loc 1 2841 1
 4913              		.cfi_startproc
 4914              		@ args = 0, pretend = 0, frame = 16
 4915              		@ frame_needed = 1, uses_anonymous_args = 0
 4916              		@ link register save eliminated.
 4917 0000 80B4     		push	{r7}
 4918              		.cfi_def_cfa_offset 4
 4919              		.cfi_offset 7, -4
 4920 0002 85B0     		sub	sp, sp, #20
 4921              		.cfi_def_cfa_offset 24
 4922 0004 00AF     		add	r7, sp, #0
 4923              		.cfi_def_cfa_register 7
 4924 0006 7860     		str	r0, [r7, #4]
 4925 0008 3960     		str	r1, [r7]
2842:Drivers/STM32L4xx_HAL_Driver/Src/stm32l4xx_hal_dfsdm.c ****   uint32_t reg;
2843:Drivers/STM32L4xx_HAL_Driver/Src/stm32l4xx_hal_dfsdm.c ****   int32_t  value;
2844:Drivers/STM32L4xx_HAL_Driver/Src/stm32l4xx_hal_dfsdm.c **** 
2845:Drivers/STM32L4xx_HAL_Driver/Src/stm32l4xx_hal_dfsdm.c ****   /* Check parameters */
2846:Drivers/STM32L4xx_HAL_Driver/Src/stm32l4xx_hal_dfsdm.c ****   assert_param(IS_DFSDM_FILTER_ALL_INSTANCE(hdfsdm_filter->Instance));
2847:Drivers/STM32L4xx_HAL_Driver/Src/stm32l4xx_hal_dfsdm.c ****   assert_param(Channel != (void *)0);
2848:Drivers/STM32L4xx_HAL_Driver/Src/stm32l4xx_hal_dfsdm.c **** 
2849:Drivers/STM32L4xx_HAL_Driver/Src/stm32l4xx_hal_dfsdm.c ****   /* Get value of extreme detector minimum register */
2850:Drivers/STM32L4xx_HAL_Driver/Src/stm32l4xx_hal_dfsdm.c ****   reg = hdfsdm_filter->Instance->FLTEXMIN;
 4926              		.loc 1 2850 22
 4927 000a 7B68     		ldr	r3, [r7, #4]
 4928 000c 1B68     		ldr	r3, [r3]
 4929              		.loc 1 2850 7
 4930 000e 5B6B     		ldr	r3, [r3, #52]
 4931 0010 FB60     		str	r3, [r7, #12]
2851:Drivers/STM32L4xx_HAL_Driver/Src/stm32l4xx_hal_dfsdm.c **** 
2852:Drivers/STM32L4xx_HAL_Driver/Src/stm32l4xx_hal_dfsdm.c ****   /* Extract channel and extreme detector minimum value */
2853:Drivers/STM32L4xx_HAL_Driver/Src/stm32l4xx_hal_dfsdm.c ****   *Channel = (reg & DFSDM_FLTEXMIN_EXMINCH);
 4932              		.loc 1 2853 19
 4933 0012 FB68     		ldr	r3, [r7, #12]
 4934 0014 03F00702 		and	r2, r3, #7
 4935              		.loc 1 2853 12
 4936 0018 3B68     		ldr	r3, [r7]
 4937 001a 1A60     		str	r2, [r3]
2854:Drivers/STM32L4xx_HAL_Driver/Src/stm32l4xx_hal_dfsdm.c ****   /* Extreme detector minimum value is a signed value located on 24 MSB of register */
2855:Drivers/STM32L4xx_HAL_Driver/Src/stm32l4xx_hal_dfsdm.c ****   /* So after applying a mask on these bits we have to perform a division by 256 (2 raised to the p
2856:Drivers/STM32L4xx_HAL_Driver/Src/stm32l4xx_hal_dfsdm.c ****   reg &= DFSDM_FLTEXMIN_EXMIN;
 4938              		.loc 1 2856 7
ARM GAS  /tmp/ccrDNuCE.s 			page 138


 4939 001c FB68     		ldr	r3, [r7, #12]
 4940 001e 23F0FF03 		bic	r3, r3, #255
 4941 0022 FB60     		str	r3, [r7, #12]
2857:Drivers/STM32L4xx_HAL_Driver/Src/stm32l4xx_hal_dfsdm.c ****   value = ((int32_t)reg) / 256;
 4942              		.loc 1 2857 12
 4943 0024 FB68     		ldr	r3, [r7, #12]
 4944              		.loc 1 2857 9
 4945 0026 002B     		cmp	r3, #0
 4946 0028 00DA     		bge	.L294
 4947 002a FF33     		adds	r3, r3, #255
 4948              	.L294:
 4949 002c 1B12     		asrs	r3, r3, #8
 4950 002e BB60     		str	r3, [r7, #8]
2858:Drivers/STM32L4xx_HAL_Driver/Src/stm32l4xx_hal_dfsdm.c **** 
2859:Drivers/STM32L4xx_HAL_Driver/Src/stm32l4xx_hal_dfsdm.c ****   /* return extreme detector minimum value */
2860:Drivers/STM32L4xx_HAL_Driver/Src/stm32l4xx_hal_dfsdm.c ****   return value;
 4951              		.loc 1 2860 10
 4952 0030 BB68     		ldr	r3, [r7, #8]
2861:Drivers/STM32L4xx_HAL_Driver/Src/stm32l4xx_hal_dfsdm.c **** }
 4953              		.loc 1 2861 1
 4954 0032 1846     		mov	r0, r3
 4955 0034 1437     		adds	r7, r7, #20
 4956              		.cfi_def_cfa_offset 4
 4957 0036 BD46     		mov	sp, r7
 4958              		.cfi_def_cfa_register 13
 4959              		@ sp needed
 4960 0038 5DF8047B 		ldr	r7, [sp], #4
 4961              		.cfi_restore 7
 4962              		.cfi_def_cfa_offset 0
 4963 003c 7047     		bx	lr
 4964              		.cfi_endproc
 4965              	.LFE493:
 4967              		.section	.text.HAL_DFSDM_FilterGetConvTimeValue,"ax",%progbits
 4968              		.align	1
 4969              		.global	HAL_DFSDM_FilterGetConvTimeValue
 4970              		.syntax unified
 4971              		.thumb
 4972              		.thumb_func
 4974              	HAL_DFSDM_FilterGetConvTimeValue:
 4975              	.LFB494:
2862:Drivers/STM32L4xx_HAL_Driver/Src/stm32l4xx_hal_dfsdm.c **** 
2863:Drivers/STM32L4xx_HAL_Driver/Src/stm32l4xx_hal_dfsdm.c **** /**
2864:Drivers/STM32L4xx_HAL_Driver/Src/stm32l4xx_hal_dfsdm.c ****   * @brief  This function allows to get conversion time value.
2865:Drivers/STM32L4xx_HAL_Driver/Src/stm32l4xx_hal_dfsdm.c ****   * @param  hdfsdm_filter DFSDM filter handle.
2866:Drivers/STM32L4xx_HAL_Driver/Src/stm32l4xx_hal_dfsdm.c ****   * @retval Conversion time value
2867:Drivers/STM32L4xx_HAL_Driver/Src/stm32l4xx_hal_dfsdm.c ****   * @note   To get time in second, this value has to be divided by DFSDM clock frequency.
2868:Drivers/STM32L4xx_HAL_Driver/Src/stm32l4xx_hal_dfsdm.c ****   */
2869:Drivers/STM32L4xx_HAL_Driver/Src/stm32l4xx_hal_dfsdm.c **** uint32_t HAL_DFSDM_FilterGetConvTimeValue(const DFSDM_Filter_HandleTypeDef *hdfsdm_filter)
2870:Drivers/STM32L4xx_HAL_Driver/Src/stm32l4xx_hal_dfsdm.c **** {
 4976              		.loc 1 2870 1
 4977              		.cfi_startproc
 4978              		@ args = 0, pretend = 0, frame = 16
 4979              		@ frame_needed = 1, uses_anonymous_args = 0
 4980              		@ link register save eliminated.
 4981 0000 80B4     		push	{r7}
 4982              		.cfi_def_cfa_offset 4
 4983              		.cfi_offset 7, -4
ARM GAS  /tmp/ccrDNuCE.s 			page 139


 4984 0002 85B0     		sub	sp, sp, #20
 4985              		.cfi_def_cfa_offset 24
 4986 0004 00AF     		add	r7, sp, #0
 4987              		.cfi_def_cfa_register 7
 4988 0006 7860     		str	r0, [r7, #4]
2871:Drivers/STM32L4xx_HAL_Driver/Src/stm32l4xx_hal_dfsdm.c ****   uint32_t reg;
2872:Drivers/STM32L4xx_HAL_Driver/Src/stm32l4xx_hal_dfsdm.c ****   uint32_t value;
2873:Drivers/STM32L4xx_HAL_Driver/Src/stm32l4xx_hal_dfsdm.c **** 
2874:Drivers/STM32L4xx_HAL_Driver/Src/stm32l4xx_hal_dfsdm.c ****   /* Check parameters */
2875:Drivers/STM32L4xx_HAL_Driver/Src/stm32l4xx_hal_dfsdm.c ****   assert_param(IS_DFSDM_FILTER_ALL_INSTANCE(hdfsdm_filter->Instance));
2876:Drivers/STM32L4xx_HAL_Driver/Src/stm32l4xx_hal_dfsdm.c **** 
2877:Drivers/STM32L4xx_HAL_Driver/Src/stm32l4xx_hal_dfsdm.c ****   /* Get value of conversion timer register */
2878:Drivers/STM32L4xx_HAL_Driver/Src/stm32l4xx_hal_dfsdm.c ****   reg = hdfsdm_filter->Instance->FLTCNVTIMR;
 4989              		.loc 1 2878 22
 4990 0008 7B68     		ldr	r3, [r7, #4]
 4991 000a 1B68     		ldr	r3, [r3]
 4992              		.loc 1 2878 7
 4993 000c 9B6B     		ldr	r3, [r3, #56]
 4994 000e FB60     		str	r3, [r7, #12]
2879:Drivers/STM32L4xx_HAL_Driver/Src/stm32l4xx_hal_dfsdm.c **** 
2880:Drivers/STM32L4xx_HAL_Driver/Src/stm32l4xx_hal_dfsdm.c ****   /* Extract conversion time value */
2881:Drivers/STM32L4xx_HAL_Driver/Src/stm32l4xx_hal_dfsdm.c ****   value = ((reg & DFSDM_FLTCNVTIMR_CNVCNT) >> DFSDM_FLTCNVTIMR_CNVCNT_Pos);
 4995              		.loc 1 2881 9
 4996 0010 FB68     		ldr	r3, [r7, #12]
 4997 0012 1B09     		lsrs	r3, r3, #4
 4998 0014 BB60     		str	r3, [r7, #8]
2882:Drivers/STM32L4xx_HAL_Driver/Src/stm32l4xx_hal_dfsdm.c **** 
2883:Drivers/STM32L4xx_HAL_Driver/Src/stm32l4xx_hal_dfsdm.c ****   /* return extreme detector minimum value */
2884:Drivers/STM32L4xx_HAL_Driver/Src/stm32l4xx_hal_dfsdm.c ****   return value;
 4999              		.loc 1 2884 10
 5000 0016 BB68     		ldr	r3, [r7, #8]
2885:Drivers/STM32L4xx_HAL_Driver/Src/stm32l4xx_hal_dfsdm.c **** }
 5001              		.loc 1 2885 1
 5002 0018 1846     		mov	r0, r3
 5003 001a 1437     		adds	r7, r7, #20
 5004              		.cfi_def_cfa_offset 4
 5005 001c BD46     		mov	sp, r7
 5006              		.cfi_def_cfa_register 13
 5007              		@ sp needed
 5008 001e 5DF8047B 		ldr	r7, [sp], #4
 5009              		.cfi_restore 7
 5010              		.cfi_def_cfa_offset 0
 5011 0022 7047     		bx	lr
 5012              		.cfi_endproc
 5013              	.LFE494:
 5015              		.section	.text.HAL_DFSDM_IRQHandler,"ax",%progbits
 5016              		.align	1
 5017              		.global	HAL_DFSDM_IRQHandler
 5018              		.syntax unified
 5019              		.thumb
 5020              		.thumb_func
 5022              	HAL_DFSDM_IRQHandler:
 5023              	.LFB495:
2886:Drivers/STM32L4xx_HAL_Driver/Src/stm32l4xx_hal_dfsdm.c **** 
2887:Drivers/STM32L4xx_HAL_Driver/Src/stm32l4xx_hal_dfsdm.c **** /**
2888:Drivers/STM32L4xx_HAL_Driver/Src/stm32l4xx_hal_dfsdm.c ****   * @brief  This function handles the DFSDM interrupts.
2889:Drivers/STM32L4xx_HAL_Driver/Src/stm32l4xx_hal_dfsdm.c ****   * @param  hdfsdm_filter DFSDM filter handle.
ARM GAS  /tmp/ccrDNuCE.s 			page 140


2890:Drivers/STM32L4xx_HAL_Driver/Src/stm32l4xx_hal_dfsdm.c ****   * @retval None
2891:Drivers/STM32L4xx_HAL_Driver/Src/stm32l4xx_hal_dfsdm.c ****   */
2892:Drivers/STM32L4xx_HAL_Driver/Src/stm32l4xx_hal_dfsdm.c **** void HAL_DFSDM_IRQHandler(DFSDM_Filter_HandleTypeDef *hdfsdm_filter)
2893:Drivers/STM32L4xx_HAL_Driver/Src/stm32l4xx_hal_dfsdm.c **** {
 5024              		.loc 1 2893 1
 5025              		.cfi_startproc
 5026              		@ args = 0, pretend = 0, frame = 48
 5027              		@ frame_needed = 1, uses_anonymous_args = 0
 5028 0000 80B5     		push	{r7, lr}
 5029              		.cfi_def_cfa_offset 8
 5030              		.cfi_offset 7, -8
 5031              		.cfi_offset 14, -4
 5032 0002 8CB0     		sub	sp, sp, #48
 5033              		.cfi_def_cfa_offset 56
 5034 0004 00AF     		add	r7, sp, #0
 5035              		.cfi_def_cfa_register 7
 5036 0006 7860     		str	r0, [r7, #4]
2894:Drivers/STM32L4xx_HAL_Driver/Src/stm32l4xx_hal_dfsdm.c ****   /* Get FTLISR and FLTCR2 register values */
2895:Drivers/STM32L4xx_HAL_Driver/Src/stm32l4xx_hal_dfsdm.c ****   const uint32_t temp_fltisr = hdfsdm_filter->Instance->FLTISR;
 5037              		.loc 1 2895 45
 5038 0008 7B68     		ldr	r3, [r7, #4]
 5039 000a 1B68     		ldr	r3, [r3]
 5040              		.loc 1 2895 18
 5041 000c 9B68     		ldr	r3, [r3, #8]
 5042 000e 7B61     		str	r3, [r7, #20]
2896:Drivers/STM32L4xx_HAL_Driver/Src/stm32l4xx_hal_dfsdm.c ****   const uint32_t temp_fltcr2 = hdfsdm_filter->Instance->FLTCR2;
 5043              		.loc 1 2896 45
 5044 0010 7B68     		ldr	r3, [r7, #4]
 5045 0012 1B68     		ldr	r3, [r3]
 5046              		.loc 1 2896 18
 5047 0014 5B68     		ldr	r3, [r3, #4]
 5048 0016 3B61     		str	r3, [r7, #16]
2897:Drivers/STM32L4xx_HAL_Driver/Src/stm32l4xx_hal_dfsdm.c **** 
2898:Drivers/STM32L4xx_HAL_Driver/Src/stm32l4xx_hal_dfsdm.c ****   /* Check if overrun occurs during regular conversion */
2899:Drivers/STM32L4xx_HAL_Driver/Src/stm32l4xx_hal_dfsdm.c ****   if (((temp_fltisr & DFSDM_FLTISR_ROVRF) != 0U) && \
 5049              		.loc 1 2899 21
 5050 0018 7B69     		ldr	r3, [r7, #20]
 5051 001a 03F00803 		and	r3, r3, #8
 5052              		.loc 1 2899 6
 5053 001e 002B     		cmp	r3, #0
 5054 0020 0FD0     		beq	.L299
2900:Drivers/STM32L4xx_HAL_Driver/Src/stm32l4xx_hal_dfsdm.c ****       ((temp_fltcr2 & DFSDM_FLTCR2_ROVRIE) != 0U))
 5055              		.loc 1 2900 21
 5056 0022 3B69     		ldr	r3, [r7, #16]
 5057 0024 03F00803 		and	r3, r3, #8
2899:Drivers/STM32L4xx_HAL_Driver/Src/stm32l4xx_hal_dfsdm.c ****       ((temp_fltcr2 & DFSDM_FLTCR2_ROVRIE) != 0U))
 5058              		.loc 1 2899 50 discriminator 1
 5059 0028 002B     		cmp	r3, #0
 5060 002a 0AD0     		beq	.L299
2901:Drivers/STM32L4xx_HAL_Driver/Src/stm32l4xx_hal_dfsdm.c ****   {
2902:Drivers/STM32L4xx_HAL_Driver/Src/stm32l4xx_hal_dfsdm.c ****     /* Clear regular overrun flag */
2903:Drivers/STM32L4xx_HAL_Driver/Src/stm32l4xx_hal_dfsdm.c ****     hdfsdm_filter->Instance->FLTICR = DFSDM_FLTICR_CLRROVRF;
 5061              		.loc 1 2903 18
 5062 002c 7B68     		ldr	r3, [r7, #4]
 5063 002e 1B68     		ldr	r3, [r3]
 5064              		.loc 1 2903 37
 5065 0030 0822     		movs	r2, #8
ARM GAS  /tmp/ccrDNuCE.s 			page 141


 5066 0032 DA60     		str	r2, [r3, #12]
2904:Drivers/STM32L4xx_HAL_Driver/Src/stm32l4xx_hal_dfsdm.c **** 
2905:Drivers/STM32L4xx_HAL_Driver/Src/stm32l4xx_hal_dfsdm.c ****     /* Update error code */
2906:Drivers/STM32L4xx_HAL_Driver/Src/stm32l4xx_hal_dfsdm.c ****     hdfsdm_filter->ErrorCode = DFSDM_FILTER_ERROR_REGULAR_OVERRUN;
 5067              		.loc 1 2906 30
 5068 0034 7B68     		ldr	r3, [r7, #4]
 5069 0036 0122     		movs	r2, #1
 5070 0038 1A65     		str	r2, [r3, #80]
2907:Drivers/STM32L4xx_HAL_Driver/Src/stm32l4xx_hal_dfsdm.c **** 
2908:Drivers/STM32L4xx_HAL_Driver/Src/stm32l4xx_hal_dfsdm.c ****     /* Call error callback */
2909:Drivers/STM32L4xx_HAL_Driver/Src/stm32l4xx_hal_dfsdm.c **** #if (USE_HAL_DFSDM_REGISTER_CALLBACKS == 1)
2910:Drivers/STM32L4xx_HAL_Driver/Src/stm32l4xx_hal_dfsdm.c ****     hdfsdm_filter->ErrorCallback(hdfsdm_filter);
2911:Drivers/STM32L4xx_HAL_Driver/Src/stm32l4xx_hal_dfsdm.c **** #else
2912:Drivers/STM32L4xx_HAL_Driver/Src/stm32l4xx_hal_dfsdm.c ****     HAL_DFSDM_FilterErrorCallback(hdfsdm_filter);
 5071              		.loc 1 2912 5
 5072 003a 7868     		ldr	r0, [r7, #4]
 5073 003c FFF7FEFF 		bl	HAL_DFSDM_FilterErrorCallback
 5074 0040 3AE1     		b	.L300
 5075              	.L299:
2913:Drivers/STM32L4xx_HAL_Driver/Src/stm32l4xx_hal_dfsdm.c **** #endif
2914:Drivers/STM32L4xx_HAL_Driver/Src/stm32l4xx_hal_dfsdm.c ****   }
2915:Drivers/STM32L4xx_HAL_Driver/Src/stm32l4xx_hal_dfsdm.c ****   /* Check if overrun occurs during injected conversion */
2916:Drivers/STM32L4xx_HAL_Driver/Src/stm32l4xx_hal_dfsdm.c ****   else if (((temp_fltisr & DFSDM_FLTISR_JOVRF) != 0U) && \
 5076              		.loc 1 2916 26
 5077 0042 7B69     		ldr	r3, [r7, #20]
 5078 0044 03F00403 		and	r3, r3, #4
 5079              		.loc 1 2916 11
 5080 0048 002B     		cmp	r3, #0
 5081 004a 0FD0     		beq	.L301
2917:Drivers/STM32L4xx_HAL_Driver/Src/stm32l4xx_hal_dfsdm.c ****            ((temp_fltcr2 & DFSDM_FLTCR2_JOVRIE) != 0U))
 5082              		.loc 1 2917 26
 5083 004c 3B69     		ldr	r3, [r7, #16]
 5084 004e 03F00403 		and	r3, r3, #4
2916:Drivers/STM32L4xx_HAL_Driver/Src/stm32l4xx_hal_dfsdm.c ****            ((temp_fltcr2 & DFSDM_FLTCR2_JOVRIE) != 0U))
 5085              		.loc 1 2916 55 discriminator 1
 5086 0052 002B     		cmp	r3, #0
 5087 0054 0AD0     		beq	.L301
2918:Drivers/STM32L4xx_HAL_Driver/Src/stm32l4xx_hal_dfsdm.c ****   {
2919:Drivers/STM32L4xx_HAL_Driver/Src/stm32l4xx_hal_dfsdm.c ****     /* Clear injected overrun flag */
2920:Drivers/STM32L4xx_HAL_Driver/Src/stm32l4xx_hal_dfsdm.c ****     hdfsdm_filter->Instance->FLTICR = DFSDM_FLTICR_CLRJOVRF;
 5088              		.loc 1 2920 18
 5089 0056 7B68     		ldr	r3, [r7, #4]
 5090 0058 1B68     		ldr	r3, [r3]
 5091              		.loc 1 2920 37
 5092 005a 0422     		movs	r2, #4
 5093 005c DA60     		str	r2, [r3, #12]
2921:Drivers/STM32L4xx_HAL_Driver/Src/stm32l4xx_hal_dfsdm.c **** 
2922:Drivers/STM32L4xx_HAL_Driver/Src/stm32l4xx_hal_dfsdm.c ****     /* Update error code */
2923:Drivers/STM32L4xx_HAL_Driver/Src/stm32l4xx_hal_dfsdm.c ****     hdfsdm_filter->ErrorCode = DFSDM_FILTER_ERROR_INJECTED_OVERRUN;
 5094              		.loc 1 2923 30
 5095 005e 7B68     		ldr	r3, [r7, #4]
 5096 0060 0222     		movs	r2, #2
 5097 0062 1A65     		str	r2, [r3, #80]
2924:Drivers/STM32L4xx_HAL_Driver/Src/stm32l4xx_hal_dfsdm.c **** 
2925:Drivers/STM32L4xx_HAL_Driver/Src/stm32l4xx_hal_dfsdm.c ****     /* Call error callback */
2926:Drivers/STM32L4xx_HAL_Driver/Src/stm32l4xx_hal_dfsdm.c **** #if (USE_HAL_DFSDM_REGISTER_CALLBACKS == 1)
2927:Drivers/STM32L4xx_HAL_Driver/Src/stm32l4xx_hal_dfsdm.c ****     hdfsdm_filter->ErrorCallback(hdfsdm_filter);
ARM GAS  /tmp/ccrDNuCE.s 			page 142


2928:Drivers/STM32L4xx_HAL_Driver/Src/stm32l4xx_hal_dfsdm.c **** #else
2929:Drivers/STM32L4xx_HAL_Driver/Src/stm32l4xx_hal_dfsdm.c ****     HAL_DFSDM_FilterErrorCallback(hdfsdm_filter);
 5098              		.loc 1 2929 5
 5099 0064 7868     		ldr	r0, [r7, #4]
 5100 0066 FFF7FEFF 		bl	HAL_DFSDM_FilterErrorCallback
 5101 006a 25E1     		b	.L300
 5102              	.L301:
2930:Drivers/STM32L4xx_HAL_Driver/Src/stm32l4xx_hal_dfsdm.c **** #endif
2931:Drivers/STM32L4xx_HAL_Driver/Src/stm32l4xx_hal_dfsdm.c ****   }
2932:Drivers/STM32L4xx_HAL_Driver/Src/stm32l4xx_hal_dfsdm.c ****   /* Check if end of regular conversion */
2933:Drivers/STM32L4xx_HAL_Driver/Src/stm32l4xx_hal_dfsdm.c ****   else if (((temp_fltisr & DFSDM_FLTISR_REOCF) != 0U) && \
 5103              		.loc 1 2933 26
 5104 006c 7B69     		ldr	r3, [r7, #20]
 5105 006e 03F00203 		and	r3, r3, #2
 5106              		.loc 1 2933 11
 5107 0072 002B     		cmp	r3, #0
 5108 0074 25D0     		beq	.L302
2934:Drivers/STM32L4xx_HAL_Driver/Src/stm32l4xx_hal_dfsdm.c ****            ((temp_fltcr2 & DFSDM_FLTCR2_REOCIE) != 0U))
 5109              		.loc 1 2934 26
 5110 0076 3B69     		ldr	r3, [r7, #16]
 5111 0078 03F00203 		and	r3, r3, #2
2933:Drivers/STM32L4xx_HAL_Driver/Src/stm32l4xx_hal_dfsdm.c ****            ((temp_fltcr2 & DFSDM_FLTCR2_REOCIE) != 0U))
 5112              		.loc 1 2933 55 discriminator 1
 5113 007c 002B     		cmp	r3, #0
 5114 007e 20D0     		beq	.L302
2935:Drivers/STM32L4xx_HAL_Driver/Src/stm32l4xx_hal_dfsdm.c ****   {
2936:Drivers/STM32L4xx_HAL_Driver/Src/stm32l4xx_hal_dfsdm.c ****     /* Call regular conversion complete callback */
2937:Drivers/STM32L4xx_HAL_Driver/Src/stm32l4xx_hal_dfsdm.c **** #if (USE_HAL_DFSDM_REGISTER_CALLBACKS == 1)
2938:Drivers/STM32L4xx_HAL_Driver/Src/stm32l4xx_hal_dfsdm.c ****     hdfsdm_filter->RegConvCpltCallback(hdfsdm_filter);
2939:Drivers/STM32L4xx_HAL_Driver/Src/stm32l4xx_hal_dfsdm.c **** #else
2940:Drivers/STM32L4xx_HAL_Driver/Src/stm32l4xx_hal_dfsdm.c ****     HAL_DFSDM_FilterRegConvCpltCallback(hdfsdm_filter);
 5115              		.loc 1 2940 5
 5116 0080 7868     		ldr	r0, [r7, #4]
 5117 0082 FFF7FEFF 		bl	HAL_DFSDM_FilterRegConvCpltCallback
2941:Drivers/STM32L4xx_HAL_Driver/Src/stm32l4xx_hal_dfsdm.c **** #endif
2942:Drivers/STM32L4xx_HAL_Driver/Src/stm32l4xx_hal_dfsdm.c **** 
2943:Drivers/STM32L4xx_HAL_Driver/Src/stm32l4xx_hal_dfsdm.c ****     /* End of conversion if mode is not continuous and software trigger */
2944:Drivers/STM32L4xx_HAL_Driver/Src/stm32l4xx_hal_dfsdm.c ****     if ((hdfsdm_filter->RegularContMode == DFSDM_CONTINUOUS_CONV_OFF) && \
 5118              		.loc 1 2944 23
 5119 0086 7B68     		ldr	r3, [r7, #4]
 5120 0088 1B6B     		ldr	r3, [r3, #48]
 5121              		.loc 1 2944 8
 5122 008a 002B     		cmp	r3, #0
 5123 008c 40F01381 		bne	.L329
2945:Drivers/STM32L4xx_HAL_Driver/Src/stm32l4xx_hal_dfsdm.c ****         (hdfsdm_filter->RegularTrigger == DFSDM_FILTER_SW_TRIGGER))
 5124              		.loc 1 2945 23
 5125 0090 7B68     		ldr	r3, [r7, #4]
 5126 0092 5B6B     		ldr	r3, [r3, #52]
2944:Drivers/STM32L4xx_HAL_Driver/Src/stm32l4xx_hal_dfsdm.c ****         (hdfsdm_filter->RegularTrigger == DFSDM_FILTER_SW_TRIGGER))
 5127              		.loc 1 2944 71 discriminator 1
 5128 0094 002B     		cmp	r3, #0
 5129 0096 40F00E81 		bne	.L329
2946:Drivers/STM32L4xx_HAL_Driver/Src/stm32l4xx_hal_dfsdm.c ****     {
2947:Drivers/STM32L4xx_HAL_Driver/Src/stm32l4xx_hal_dfsdm.c ****       /* Disable interrupts for regular conversions */
2948:Drivers/STM32L4xx_HAL_Driver/Src/stm32l4xx_hal_dfsdm.c ****       hdfsdm_filter->Instance->FLTCR2 &= ~(DFSDM_FLTCR2_REOCIE);
 5130              		.loc 1 2948 20
 5131 009a 7B68     		ldr	r3, [r7, #4]
ARM GAS  /tmp/ccrDNuCE.s 			page 143


 5132 009c 1B68     		ldr	r3, [r3]
 5133              		.loc 1 2948 30
 5134 009e 5A68     		ldr	r2, [r3, #4]
 5135              		.loc 1 2948 20
 5136 00a0 7B68     		ldr	r3, [r7, #4]
 5137 00a2 1B68     		ldr	r3, [r3]
 5138              		.loc 1 2948 39
 5139 00a4 22F00202 		bic	r2, r2, #2
 5140 00a8 5A60     		str	r2, [r3, #4]
2949:Drivers/STM32L4xx_HAL_Driver/Src/stm32l4xx_hal_dfsdm.c **** 
2950:Drivers/STM32L4xx_HAL_Driver/Src/stm32l4xx_hal_dfsdm.c ****       /* Update DFSDM filter state */
2951:Drivers/STM32L4xx_HAL_Driver/Src/stm32l4xx_hal_dfsdm.c ****       hdfsdm_filter->State = (hdfsdm_filter->State == HAL_DFSDM_FILTER_STATE_REG) ? \
 5141              		.loc 1 2951 44
 5142 00aa 7B68     		ldr	r3, [r7, #4]
 5143 00ac 93F84C30 		ldrb	r3, [r3, #76]	@ zero_extendqisi2
2952:Drivers/STM32L4xx_HAL_Driver/Src/stm32l4xx_hal_dfsdm.c ****                              HAL_DFSDM_FILTER_STATE_READY : HAL_DFSDM_FILTER_STATE_INJ;
 5144              		.loc 1 2952 59
 5145 00b0 022B     		cmp	r3, #2
 5146 00b2 01D1     		bne	.L304
 5147              		.loc 1 2952 59 is_stmt 0 discriminator 1
 5148 00b4 0122     		movs	r2, #1
 5149 00b6 00E0     		b	.L305
 5150              	.L304:
 5151              		.loc 1 2952 59 discriminator 2
 5152 00b8 0322     		movs	r2, #3
 5153              	.L305:
2951:Drivers/STM32L4xx_HAL_Driver/Src/stm32l4xx_hal_dfsdm.c ****                              HAL_DFSDM_FILTER_STATE_READY : HAL_DFSDM_FILTER_STATE_INJ;
 5154              		.loc 1 2951 28 is_stmt 1
 5155 00ba 7B68     		ldr	r3, [r7, #4]
 5156 00bc 83F84C20 		strb	r2, [r3, #76]
2944:Drivers/STM32L4xx_HAL_Driver/Src/stm32l4xx_hal_dfsdm.c ****         (hdfsdm_filter->RegularTrigger == DFSDM_FILTER_SW_TRIGGER))
 5157              		.loc 1 2944 8
 5158 00c0 F9E0     		b	.L329
 5159              	.L302:
2953:Drivers/STM32L4xx_HAL_Driver/Src/stm32l4xx_hal_dfsdm.c ****     }
2954:Drivers/STM32L4xx_HAL_Driver/Src/stm32l4xx_hal_dfsdm.c ****   }
2955:Drivers/STM32L4xx_HAL_Driver/Src/stm32l4xx_hal_dfsdm.c ****   /* Check if end of injected conversion */
2956:Drivers/STM32L4xx_HAL_Driver/Src/stm32l4xx_hal_dfsdm.c ****   else if (((temp_fltisr & DFSDM_FLTISR_JEOCF) != 0U) && \
 5160              		.loc 1 2956 26
 5161 00c2 7B69     		ldr	r3, [r7, #20]
 5162 00c4 03F00103 		and	r3, r3, #1
 5163              		.loc 1 2956 11
 5164 00c8 002B     		cmp	r3, #0
 5165 00ca 34D0     		beq	.L306
2957:Drivers/STM32L4xx_HAL_Driver/Src/stm32l4xx_hal_dfsdm.c ****            ((temp_fltcr2 & DFSDM_FLTCR2_JEOCIE) != 0U))
 5166              		.loc 1 2957 26
 5167 00cc 3B69     		ldr	r3, [r7, #16]
 5168 00ce 03F00103 		and	r3, r3, #1
2956:Drivers/STM32L4xx_HAL_Driver/Src/stm32l4xx_hal_dfsdm.c ****            ((temp_fltcr2 & DFSDM_FLTCR2_JEOCIE) != 0U))
 5169              		.loc 1 2956 55 discriminator 1
 5170 00d2 002B     		cmp	r3, #0
 5171 00d4 2FD0     		beq	.L306
2958:Drivers/STM32L4xx_HAL_Driver/Src/stm32l4xx_hal_dfsdm.c ****   {
2959:Drivers/STM32L4xx_HAL_Driver/Src/stm32l4xx_hal_dfsdm.c ****     /* Call injected conversion complete callback */
2960:Drivers/STM32L4xx_HAL_Driver/Src/stm32l4xx_hal_dfsdm.c **** #if (USE_HAL_DFSDM_REGISTER_CALLBACKS == 1)
2961:Drivers/STM32L4xx_HAL_Driver/Src/stm32l4xx_hal_dfsdm.c ****     hdfsdm_filter->InjConvCpltCallback(hdfsdm_filter);
2962:Drivers/STM32L4xx_HAL_Driver/Src/stm32l4xx_hal_dfsdm.c **** #else
ARM GAS  /tmp/ccrDNuCE.s 			page 144


2963:Drivers/STM32L4xx_HAL_Driver/Src/stm32l4xx_hal_dfsdm.c ****     HAL_DFSDM_FilterInjConvCpltCallback(hdfsdm_filter);
 5172              		.loc 1 2963 5
 5173 00d6 7868     		ldr	r0, [r7, #4]
 5174 00d8 FFF7FEFF 		bl	HAL_DFSDM_FilterInjConvCpltCallback
2964:Drivers/STM32L4xx_HAL_Driver/Src/stm32l4xx_hal_dfsdm.c **** #endif
2965:Drivers/STM32L4xx_HAL_Driver/Src/stm32l4xx_hal_dfsdm.c **** 
2966:Drivers/STM32L4xx_HAL_Driver/Src/stm32l4xx_hal_dfsdm.c ****     /* Update remaining injected conversions */
2967:Drivers/STM32L4xx_HAL_Driver/Src/stm32l4xx_hal_dfsdm.c ****     hdfsdm_filter->InjConvRemaining--;
 5175              		.loc 1 2967 18
 5176 00dc 7B68     		ldr	r3, [r7, #4]
 5177 00de 9B6C     		ldr	r3, [r3, #72]
 5178              		.loc 1 2967 36
 5179 00e0 5A1E     		subs	r2, r3, #1
 5180 00e2 7B68     		ldr	r3, [r7, #4]
 5181 00e4 9A64     		str	r2, [r3, #72]
2968:Drivers/STM32L4xx_HAL_Driver/Src/stm32l4xx_hal_dfsdm.c ****     if (hdfsdm_filter->InjConvRemaining == 0U)
 5182              		.loc 1 2968 22
 5183 00e6 7B68     		ldr	r3, [r7, #4]
 5184 00e8 9B6C     		ldr	r3, [r3, #72]
 5185              		.loc 1 2968 8
 5186 00ea 002B     		cmp	r3, #0
 5187 00ec 40F0E480 		bne	.L300
2969:Drivers/STM32L4xx_HAL_Driver/Src/stm32l4xx_hal_dfsdm.c ****     {
2970:Drivers/STM32L4xx_HAL_Driver/Src/stm32l4xx_hal_dfsdm.c ****       /* End of conversion if trigger is software */
2971:Drivers/STM32L4xx_HAL_Driver/Src/stm32l4xx_hal_dfsdm.c ****       if (hdfsdm_filter->InjectedTrigger == DFSDM_FILTER_SW_TRIGGER)
 5188              		.loc 1 2971 24
 5189 00f0 7B68     		ldr	r3, [r7, #4]
 5190 00f2 9B6B     		ldr	r3, [r3, #56]
 5191              		.loc 1 2971 10
 5192 00f4 002B     		cmp	r3, #0
 5193 00f6 12D1     		bne	.L308
2972:Drivers/STM32L4xx_HAL_Driver/Src/stm32l4xx_hal_dfsdm.c ****       {
2973:Drivers/STM32L4xx_HAL_Driver/Src/stm32l4xx_hal_dfsdm.c ****         /* Disable interrupts for injected conversions */
2974:Drivers/STM32L4xx_HAL_Driver/Src/stm32l4xx_hal_dfsdm.c ****         hdfsdm_filter->Instance->FLTCR2 &= ~(DFSDM_FLTCR2_JEOCIE);
 5194              		.loc 1 2974 22
 5195 00f8 7B68     		ldr	r3, [r7, #4]
 5196 00fa 1B68     		ldr	r3, [r3]
 5197              		.loc 1 2974 32
 5198 00fc 5A68     		ldr	r2, [r3, #4]
 5199              		.loc 1 2974 22
 5200 00fe 7B68     		ldr	r3, [r7, #4]
 5201 0100 1B68     		ldr	r3, [r3]
 5202              		.loc 1 2974 41
 5203 0102 22F00102 		bic	r2, r2, #1
 5204 0106 5A60     		str	r2, [r3, #4]
2975:Drivers/STM32L4xx_HAL_Driver/Src/stm32l4xx_hal_dfsdm.c **** 
2976:Drivers/STM32L4xx_HAL_Driver/Src/stm32l4xx_hal_dfsdm.c ****         /* Update DFSDM filter state */
2977:Drivers/STM32L4xx_HAL_Driver/Src/stm32l4xx_hal_dfsdm.c ****         hdfsdm_filter->State = (hdfsdm_filter->State == HAL_DFSDM_FILTER_STATE_INJ) ? \
 5205              		.loc 1 2977 46
 5206 0108 7B68     		ldr	r3, [r7, #4]
 5207 010a 93F84C30 		ldrb	r3, [r3, #76]	@ zero_extendqisi2
2978:Drivers/STM32L4xx_HAL_Driver/Src/stm32l4xx_hal_dfsdm.c ****                                HAL_DFSDM_FILTER_STATE_READY : HAL_DFSDM_FILTER_STATE_REG;
 5208              		.loc 1 2978 61
 5209 010e 032B     		cmp	r3, #3
 5210 0110 01D1     		bne	.L309
 5211              		.loc 1 2978 61 is_stmt 0 discriminator 1
 5212 0112 0122     		movs	r2, #1
ARM GAS  /tmp/ccrDNuCE.s 			page 145


 5213 0114 00E0     		b	.L310
 5214              	.L309:
 5215              		.loc 1 2978 61 discriminator 2
 5216 0116 0222     		movs	r2, #2
 5217              	.L310:
2977:Drivers/STM32L4xx_HAL_Driver/Src/stm32l4xx_hal_dfsdm.c ****                                HAL_DFSDM_FILTER_STATE_READY : HAL_DFSDM_FILTER_STATE_REG;
 5218              		.loc 1 2977 30 is_stmt 1
 5219 0118 7B68     		ldr	r3, [r7, #4]
 5220 011a 83F84C20 		strb	r2, [r3, #76]
 5221              	.L308:
2979:Drivers/STM32L4xx_HAL_Driver/Src/stm32l4xx_hal_dfsdm.c ****       }
2980:Drivers/STM32L4xx_HAL_Driver/Src/stm32l4xx_hal_dfsdm.c ****       /* end of injected sequence, reset the value */
2981:Drivers/STM32L4xx_HAL_Driver/Src/stm32l4xx_hal_dfsdm.c ****       hdfsdm_filter->InjConvRemaining = (hdfsdm_filter->InjectedScanMode == ENABLE) ? \
 5222              		.loc 1 2981 55
 5223 011e 7B68     		ldr	r3, [r7, #4]
 5224 0120 93F84030 		ldrb	r3, [r3, #64]	@ zero_extendqisi2
2982:Drivers/STM32L4xx_HAL_Driver/Src/stm32l4xx_hal_dfsdm.c ****                                         hdfsdm_filter->InjectedChannelsNbr : 1U;
 5225              		.loc 1 2982 76
 5226 0124 012B     		cmp	r3, #1
 5227 0126 02D1     		bne	.L311
 5228              		.loc 1 2982 76 is_stmt 0 discriminator 1
 5229 0128 7B68     		ldr	r3, [r7, #4]
 5230 012a 5B6C     		ldr	r3, [r3, #68]
 5231 012c 00E0     		b	.L312
 5232              	.L311:
 5233              		.loc 1 2982 76 discriminator 2
 5234 012e 0123     		movs	r3, #1
 5235              	.L312:
2981:Drivers/STM32L4xx_HAL_Driver/Src/stm32l4xx_hal_dfsdm.c ****                                         hdfsdm_filter->InjectedChannelsNbr : 1U;
 5236              		.loc 1 2981 39 is_stmt 1
 5237 0130 7A68     		ldr	r2, [r7, #4]
 5238 0132 9364     		str	r3, [r2, #72]
2968:Drivers/STM32L4xx_HAL_Driver/Src/stm32l4xx_hal_dfsdm.c ****     {
 5239              		.loc 1 2968 8
 5240 0134 C0E0     		b	.L300
 5241              	.L306:
2983:Drivers/STM32L4xx_HAL_Driver/Src/stm32l4xx_hal_dfsdm.c ****     }
2984:Drivers/STM32L4xx_HAL_Driver/Src/stm32l4xx_hal_dfsdm.c ****   }
2985:Drivers/STM32L4xx_HAL_Driver/Src/stm32l4xx_hal_dfsdm.c ****   /* Check if analog watchdog occurs */
2986:Drivers/STM32L4xx_HAL_Driver/Src/stm32l4xx_hal_dfsdm.c ****   else if (((temp_fltisr & DFSDM_FLTISR_AWDF) != 0U) && \
 5242              		.loc 1 2986 26
 5243 0136 7B69     		ldr	r3, [r7, #20]
 5244 0138 03F01003 		and	r3, r3, #16
 5245              		.loc 1 2986 11
 5246 013c 002B     		cmp	r3, #0
 5247 013e 3DD0     		beq	.L313
2987:Drivers/STM32L4xx_HAL_Driver/Src/stm32l4xx_hal_dfsdm.c ****            ((temp_fltcr2 & DFSDM_FLTCR2_AWDIE) != 0U))
 5248              		.loc 1 2987 26
 5249 0140 3B69     		ldr	r3, [r7, #16]
 5250 0142 03F01003 		and	r3, r3, #16
2986:Drivers/STM32L4xx_HAL_Driver/Src/stm32l4xx_hal_dfsdm.c ****            ((temp_fltcr2 & DFSDM_FLTCR2_AWDIE) != 0U))
 5251              		.loc 1 2986 54 discriminator 1
 5252 0146 002B     		cmp	r3, #0
 5253 0148 38D0     		beq	.L313
 5254              	.LBB2:
2988:Drivers/STM32L4xx_HAL_Driver/Src/stm32l4xx_hal_dfsdm.c ****   {
2989:Drivers/STM32L4xx_HAL_Driver/Src/stm32l4xx_hal_dfsdm.c ****     uint32_t reg;
ARM GAS  /tmp/ccrDNuCE.s 			page 146


2990:Drivers/STM32L4xx_HAL_Driver/Src/stm32l4xx_hal_dfsdm.c ****     uint32_t threshold;
2991:Drivers/STM32L4xx_HAL_Driver/Src/stm32l4xx_hal_dfsdm.c ****     uint32_t channel = 0;
 5255              		.loc 1 2991 14
 5256 014a 0023     		movs	r3, #0
 5257 014c BB62     		str	r3, [r7, #40]
2992:Drivers/STM32L4xx_HAL_Driver/Src/stm32l4xx_hal_dfsdm.c **** 
2993:Drivers/STM32L4xx_HAL_Driver/Src/stm32l4xx_hal_dfsdm.c ****     /* Get channel and threshold */
2994:Drivers/STM32L4xx_HAL_Driver/Src/stm32l4xx_hal_dfsdm.c ****     reg = hdfsdm_filter->Instance->FLTAWSR;
 5258              		.loc 1 2994 24
 5259 014e 7B68     		ldr	r3, [r7, #4]
 5260 0150 1B68     		ldr	r3, [r3]
 5261              		.loc 1 2994 9
 5262 0152 9B6A     		ldr	r3, [r3, #40]
 5263 0154 FB62     		str	r3, [r7, #44]
2995:Drivers/STM32L4xx_HAL_Driver/Src/stm32l4xx_hal_dfsdm.c ****     threshold = ((reg & DFSDM_FLTAWSR_AWLTF) != 0U) ? DFSDM_AWD_LOW_THRESHOLD : DFSDM_AWD_HIGH_THRE
 5264              		.loc 1 2995 23
 5265 0156 FB6A     		ldr	r3, [r7, #44]
 5266 0158 DBB2     		uxtb	r3, r3
 5267              		.loc 1 2995 79
 5268 015a 002B     		cmp	r3, #0
 5269 015c 01D0     		beq	.L314
 5270              		.loc 1 2995 79 is_stmt 0 discriminator 1
 5271 015e 0123     		movs	r3, #1
 5272 0160 00E0     		b	.L315
 5273              	.L314:
 5274              		.loc 1 2995 79 discriminator 2
 5275 0162 0023     		movs	r3, #0
 5276              	.L315:
 5277              		.loc 1 2995 15 is_stmt 1 discriminator 4
 5278 0164 FB60     		str	r3, [r7, #12]
2996:Drivers/STM32L4xx_HAL_Driver/Src/stm32l4xx_hal_dfsdm.c ****     if (threshold == DFSDM_AWD_HIGH_THRESHOLD)
 5279              		.loc 1 2996 8
 5280 0166 FB68     		ldr	r3, [r7, #12]
 5281 0168 002B     		cmp	r3, #0
 5282 016a 09D1     		bne	.L317
2997:Drivers/STM32L4xx_HAL_Driver/Src/stm32l4xx_hal_dfsdm.c ****     {
2998:Drivers/STM32L4xx_HAL_Driver/Src/stm32l4xx_hal_dfsdm.c ****       reg = reg >> DFSDM_FLTAWSR_AWHTF_Pos;
 5283              		.loc 1 2998 11
 5284 016c FB6A     		ldr	r3, [r7, #44]
 5285 016e 1B0A     		lsrs	r3, r3, #8
 5286 0170 FB62     		str	r3, [r7, #44]
2999:Drivers/STM32L4xx_HAL_Driver/Src/stm32l4xx_hal_dfsdm.c ****     }
3000:Drivers/STM32L4xx_HAL_Driver/Src/stm32l4xx_hal_dfsdm.c ****     while (((reg & 1U) == 0U) && (channel < (DFSDM1_CHANNEL_NUMBER - 1U)))
 5287              		.loc 1 3000 11
 5288 0172 05E0     		b	.L317
 5289              	.L319:
3001:Drivers/STM32L4xx_HAL_Driver/Src/stm32l4xx_hal_dfsdm.c ****     {
3002:Drivers/STM32L4xx_HAL_Driver/Src/stm32l4xx_hal_dfsdm.c ****       channel++;
 5290              		.loc 1 3002 14
 5291 0174 BB6A     		ldr	r3, [r7, #40]
 5292 0176 0133     		adds	r3, r3, #1
 5293 0178 BB62     		str	r3, [r7, #40]
3003:Drivers/STM32L4xx_HAL_Driver/Src/stm32l4xx_hal_dfsdm.c ****       reg = reg >> 1;
 5294              		.loc 1 3003 11
 5295 017a FB6A     		ldr	r3, [r7, #44]
 5296 017c 5B08     		lsrs	r3, r3, #1
 5297 017e FB62     		str	r3, [r7, #44]
ARM GAS  /tmp/ccrDNuCE.s 			page 147


 5298              	.L317:
3000:Drivers/STM32L4xx_HAL_Driver/Src/stm32l4xx_hal_dfsdm.c ****     {
 5299              		.loc 1 3000 18
 5300 0180 FB6A     		ldr	r3, [r7, #44]
 5301 0182 03F00103 		and	r3, r3, #1
3000:Drivers/STM32L4xx_HAL_Driver/Src/stm32l4xx_hal_dfsdm.c ****     {
 5302              		.loc 1 3000 31
 5303 0186 002B     		cmp	r3, #0
 5304 0188 02D1     		bne	.L318
3000:Drivers/STM32L4xx_HAL_Driver/Src/stm32l4xx_hal_dfsdm.c ****     {
 5305              		.loc 1 3000 31 is_stmt 0 discriminator 1
 5306 018a BB6A     		ldr	r3, [r7, #40]
 5307 018c 062B     		cmp	r3, #6
 5308 018e F1D9     		bls	.L319
 5309              	.L318:
3004:Drivers/STM32L4xx_HAL_Driver/Src/stm32l4xx_hal_dfsdm.c ****     }
3005:Drivers/STM32L4xx_HAL_Driver/Src/stm32l4xx_hal_dfsdm.c ****     /* Clear analog watchdog flag */
3006:Drivers/STM32L4xx_HAL_Driver/Src/stm32l4xx_hal_dfsdm.c ****     hdfsdm_filter->Instance->FLTAWCFR = (threshold == DFSDM_AWD_HIGH_THRESHOLD) ? \
3007:Drivers/STM32L4xx_HAL_Driver/Src/stm32l4xx_hal_dfsdm.c ****                                         (1UL << (DFSDM_FLTAWSR_AWHTF_Pos + channel)) : \
 5310              		.loc 1 3007 86 is_stmt 1
 5311 0190 FB68     		ldr	r3, [r7, #12]
 5312 0192 002B     		cmp	r3, #0
 5313 0194 05D1     		bne	.L320
 5314              		.loc 1 3007 74 discriminator 1
 5315 0196 BB6A     		ldr	r3, [r7, #40]
 5316 0198 0833     		adds	r3, r3, #8
 5317              		.loc 1 3007 86 discriminator 1
 5318 019a 0122     		movs	r2, #1
 5319 019c 02FA03F3 		lsl	r3, r2, r3
 5320 01a0 03E0     		b	.L321
 5321              	.L320:
 5322              		.loc 1 3007 86 is_stmt 0 discriminator 2
 5323 01a2 0122     		movs	r2, #1
 5324 01a4 BB6A     		ldr	r3, [r7, #40]
 5325 01a6 02FA03F3 		lsl	r3, r2, r3
 5326              	.L321:
3006:Drivers/STM32L4xx_HAL_Driver/Src/stm32l4xx_hal_dfsdm.c ****                                         (1UL << (DFSDM_FLTAWSR_AWHTF_Pos + channel)) : \
 5327              		.loc 1 3006 18 is_stmt 1
 5328 01aa 7A68     		ldr	r2, [r7, #4]
 5329 01ac 1268     		ldr	r2, [r2]
3006:Drivers/STM32L4xx_HAL_Driver/Src/stm32l4xx_hal_dfsdm.c ****                                         (1UL << (DFSDM_FLTAWSR_AWHTF_Pos + channel)) : \
 5330              		.loc 1 3006 39
 5331 01ae D362     		str	r3, [r2, #44]
3008:Drivers/STM32L4xx_HAL_Driver/Src/stm32l4xx_hal_dfsdm.c ****                                         (1UL << channel);
3009:Drivers/STM32L4xx_HAL_Driver/Src/stm32l4xx_hal_dfsdm.c **** 
3010:Drivers/STM32L4xx_HAL_Driver/Src/stm32l4xx_hal_dfsdm.c ****     /* Call analog watchdog callback */
3011:Drivers/STM32L4xx_HAL_Driver/Src/stm32l4xx_hal_dfsdm.c **** #if (USE_HAL_DFSDM_REGISTER_CALLBACKS == 1)
3012:Drivers/STM32L4xx_HAL_Driver/Src/stm32l4xx_hal_dfsdm.c ****     hdfsdm_filter->AwdCallback(hdfsdm_filter, channel, threshold);
3013:Drivers/STM32L4xx_HAL_Driver/Src/stm32l4xx_hal_dfsdm.c **** #else
3014:Drivers/STM32L4xx_HAL_Driver/Src/stm32l4xx_hal_dfsdm.c ****     HAL_DFSDM_FilterAwdCallback(hdfsdm_filter, channel, threshold);
 5332              		.loc 1 3014 5
 5333 01b0 FA68     		ldr	r2, [r7, #12]
 5334 01b2 B96A     		ldr	r1, [r7, #40]
 5335 01b4 7868     		ldr	r0, [r7, #4]
 5336 01b6 FFF7FEFF 		bl	HAL_DFSDM_FilterAwdCallback
 5337              	.LBE2:
2988:Drivers/STM32L4xx_HAL_Driver/Src/stm32l4xx_hal_dfsdm.c ****     uint32_t reg;
ARM GAS  /tmp/ccrDNuCE.s 			page 148


 5338              		.loc 1 2988 3
 5339 01ba 7DE0     		b	.L300
 5340              	.L313:
3015:Drivers/STM32L4xx_HAL_Driver/Src/stm32l4xx_hal_dfsdm.c **** #endif
3016:Drivers/STM32L4xx_HAL_Driver/Src/stm32l4xx_hal_dfsdm.c ****   }
3017:Drivers/STM32L4xx_HAL_Driver/Src/stm32l4xx_hal_dfsdm.c ****   /* Check if clock absence occurs */
3018:Drivers/STM32L4xx_HAL_Driver/Src/stm32l4xx_hal_dfsdm.c ****   else if ((hdfsdm_filter->Instance == DFSDM1_Filter0) && \
 5341              		.loc 1 3018 26
 5342 01bc 7B68     		ldr	r3, [r7, #4]
 5343 01be 1B68     		ldr	r3, [r3]
 5344              		.loc 1 3018 11
 5345 01c0 3F4A     		ldr	r2, .L331
 5346 01c2 9342     		cmp	r3, r2
 5347 01c4 41D1     		bne	.L322
3019:Drivers/STM32L4xx_HAL_Driver/Src/stm32l4xx_hal_dfsdm.c ****            ((temp_fltisr & DFSDM_FLTISR_CKABF) != 0U) && \
 5348              		.loc 1 3019 26
 5349 01c6 7B69     		ldr	r3, [r7, #20]
 5350 01c8 03F47F03 		and	r3, r3, #16711680
3018:Drivers/STM32L4xx_HAL_Driver/Src/stm32l4xx_hal_dfsdm.c ****            ((temp_fltisr & DFSDM_FLTISR_CKABF) != 0U) && \
 5351              		.loc 1 3018 56 discriminator 1
 5352 01cc 002B     		cmp	r3, #0
 5353 01ce 3CD0     		beq	.L322
3020:Drivers/STM32L4xx_HAL_Driver/Src/stm32l4xx_hal_dfsdm.c ****            ((temp_fltcr2 & DFSDM_FLTCR2_CKABIE) != 0U))
 5354              		.loc 1 3020 26
 5355 01d0 3B69     		ldr	r3, [r7, #16]
 5356 01d2 03F04003 		and	r3, r3, #64
3019:Drivers/STM32L4xx_HAL_Driver/Src/stm32l4xx_hal_dfsdm.c ****            ((temp_fltisr & DFSDM_FLTISR_CKABF) != 0U) && \
 5357              		.loc 1 3019 55
 5358 01d6 002B     		cmp	r3, #0
 5359 01d8 37D0     		beq	.L322
 5360              	.LBB3:
3021:Drivers/STM32L4xx_HAL_Driver/Src/stm32l4xx_hal_dfsdm.c ****   {
3022:Drivers/STM32L4xx_HAL_Driver/Src/stm32l4xx_hal_dfsdm.c ****     uint32_t reg;
3023:Drivers/STM32L4xx_HAL_Driver/Src/stm32l4xx_hal_dfsdm.c ****     uint32_t channel = 0;
 5361              		.loc 1 3023 14
 5362 01da 0023     		movs	r3, #0
 5363 01dc 3B62     		str	r3, [r7, #32]
3024:Drivers/STM32L4xx_HAL_Driver/Src/stm32l4xx_hal_dfsdm.c **** 
3025:Drivers/STM32L4xx_HAL_Driver/Src/stm32l4xx_hal_dfsdm.c ****     reg = ((hdfsdm_filter->Instance->FLTISR & DFSDM_FLTISR_CKABF) >> DFSDM_FLTISR_CKABF_Pos);
 5364              		.loc 1 3025 26
 5365 01de 7B68     		ldr	r3, [r7, #4]
 5366 01e0 1B68     		ldr	r3, [r3]
 5367              		.loc 1 3025 36
 5368 01e2 9B68     		ldr	r3, [r3, #8]
 5369              		.loc 1 3025 67
 5370 01e4 1B0C     		lsrs	r3, r3, #16
 5371              		.loc 1 3025 9
 5372 01e6 DBB2     		uxtb	r3, r3
 5373 01e8 7B62     		str	r3, [r7, #36]
3026:Drivers/STM32L4xx_HAL_Driver/Src/stm32l4xx_hal_dfsdm.c **** 
3027:Drivers/STM32L4xx_HAL_Driver/Src/stm32l4xx_hal_dfsdm.c ****     while (channel < DFSDM1_CHANNEL_NUMBER)
 5374              		.loc 1 3027 11
 5375 01ea 2AE0     		b	.L323
 5376              	.L325:
3028:Drivers/STM32L4xx_HAL_Driver/Src/stm32l4xx_hal_dfsdm.c ****     {
3029:Drivers/STM32L4xx_HAL_Driver/Src/stm32l4xx_hal_dfsdm.c ****       /* Check if flag is set and corresponding channel is enabled */
3030:Drivers/STM32L4xx_HAL_Driver/Src/stm32l4xx_hal_dfsdm.c ****       if (((reg & 1U) != 0U) && (a_dfsdm1ChannelHandle[channel] != NULL))
ARM GAS  /tmp/ccrDNuCE.s 			page 149


 5377              		.loc 1 3030 17
 5378 01ec 7B6A     		ldr	r3, [r7, #36]
 5379 01ee 03F00103 		and	r3, r3, #1
 5380              		.loc 1 3030 10
 5381 01f2 002B     		cmp	r3, #0
 5382 01f4 1FD0     		beq	.L324
 5383              		.loc 1 3030 55 discriminator 1
 5384 01f6 334A     		ldr	r2, .L331+4
 5385 01f8 3B6A     		ldr	r3, [r7, #32]
 5386 01fa 52F82330 		ldr	r3, [r2, r3, lsl #2]
 5387              		.loc 1 3030 30 discriminator 1
 5388 01fe 002B     		cmp	r3, #0
 5389 0200 19D0     		beq	.L324
3031:Drivers/STM32L4xx_HAL_Driver/Src/stm32l4xx_hal_dfsdm.c ****       {
3032:Drivers/STM32L4xx_HAL_Driver/Src/stm32l4xx_hal_dfsdm.c ****         /* Check clock absence has been enabled for this channel */
3033:Drivers/STM32L4xx_HAL_Driver/Src/stm32l4xx_hal_dfsdm.c ****         if ((a_dfsdm1ChannelHandle[channel]->Instance->CHCFGR1 & DFSDM_CHCFGR1_CKABEN) != 0U)
 5390              		.loc 1 3033 35
 5391 0202 304A     		ldr	r2, .L331+4
 5392 0204 3B6A     		ldr	r3, [r7, #32]
 5393 0206 52F82330 		ldr	r3, [r2, r3, lsl #2]
 5394              		.loc 1 3033 44
 5395 020a 1B68     		ldr	r3, [r3]
 5396              		.loc 1 3033 54
 5397 020c 1B68     		ldr	r3, [r3]
 5398              		.loc 1 3033 64
 5399 020e 03F04003 		and	r3, r3, #64
 5400              		.loc 1 3033 12
 5401 0212 002B     		cmp	r3, #0
 5402 0214 0FD0     		beq	.L324
3034:Drivers/STM32L4xx_HAL_Driver/Src/stm32l4xx_hal_dfsdm.c ****         {
3035:Drivers/STM32L4xx_HAL_Driver/Src/stm32l4xx_hal_dfsdm.c ****           /* Clear clock absence flag */
3036:Drivers/STM32L4xx_HAL_Driver/Src/stm32l4xx_hal_dfsdm.c ****           hdfsdm_filter->Instance->FLTICR = (1UL << (DFSDM_FLTICR_CLRCKABF_Pos + channel));
 5403              		.loc 1 3036 80
 5404 0216 3B6A     		ldr	r3, [r7, #32]
 5405 0218 03F11002 		add	r2, r3, #16
 5406              		.loc 1 3036 24
 5407 021c 7B68     		ldr	r3, [r7, #4]
 5408 021e 1B68     		ldr	r3, [r3]
 5409              		.loc 1 3036 50
 5410 0220 0121     		movs	r1, #1
 5411 0222 01FA02F2 		lsl	r2, r1, r2
 5412              		.loc 1 3036 43
 5413 0226 DA60     		str	r2, [r3, #12]
3037:Drivers/STM32L4xx_HAL_Driver/Src/stm32l4xx_hal_dfsdm.c **** 
3038:Drivers/STM32L4xx_HAL_Driver/Src/stm32l4xx_hal_dfsdm.c ****           /* Call clock absence callback */
3039:Drivers/STM32L4xx_HAL_Driver/Src/stm32l4xx_hal_dfsdm.c **** #if (USE_HAL_DFSDM_REGISTER_CALLBACKS == 1)
3040:Drivers/STM32L4xx_HAL_Driver/Src/stm32l4xx_hal_dfsdm.c ****           a_dfsdm1ChannelHandle[channel]->CkabCallback(a_dfsdm1ChannelHandle[channel]);
3041:Drivers/STM32L4xx_HAL_Driver/Src/stm32l4xx_hal_dfsdm.c **** #else
3042:Drivers/STM32L4xx_HAL_Driver/Src/stm32l4xx_hal_dfsdm.c ****           HAL_DFSDM_ChannelCkabCallback(a_dfsdm1ChannelHandle[channel]);
 5414              		.loc 1 3042 11
 5415 0228 264A     		ldr	r2, .L331+4
 5416 022a 3B6A     		ldr	r3, [r7, #32]
 5417 022c 52F82330 		ldr	r3, [r2, r3, lsl #2]
 5418 0230 1846     		mov	r0, r3
 5419 0232 FFF7FEFF 		bl	HAL_DFSDM_ChannelCkabCallback
 5420              	.L324:
3043:Drivers/STM32L4xx_HAL_Driver/Src/stm32l4xx_hal_dfsdm.c **** #endif
ARM GAS  /tmp/ccrDNuCE.s 			page 150


3044:Drivers/STM32L4xx_HAL_Driver/Src/stm32l4xx_hal_dfsdm.c ****         }
3045:Drivers/STM32L4xx_HAL_Driver/Src/stm32l4xx_hal_dfsdm.c ****       }
3046:Drivers/STM32L4xx_HAL_Driver/Src/stm32l4xx_hal_dfsdm.c ****       channel++;
 5421              		.loc 1 3046 14
 5422 0236 3B6A     		ldr	r3, [r7, #32]
 5423 0238 0133     		adds	r3, r3, #1
 5424 023a 3B62     		str	r3, [r7, #32]
3047:Drivers/STM32L4xx_HAL_Driver/Src/stm32l4xx_hal_dfsdm.c ****       reg = reg >> 1;
 5425              		.loc 1 3047 11
 5426 023c 7B6A     		ldr	r3, [r7, #36]
 5427 023e 5B08     		lsrs	r3, r3, #1
 5428 0240 7B62     		str	r3, [r7, #36]
 5429              	.L323:
3027:Drivers/STM32L4xx_HAL_Driver/Src/stm32l4xx_hal_dfsdm.c ****     {
 5430              		.loc 1 3027 20
 5431 0242 3B6A     		ldr	r3, [r7, #32]
 5432 0244 072B     		cmp	r3, #7
 5433 0246 D1D9     		bls	.L325
 5434              	.LBE3:
3021:Drivers/STM32L4xx_HAL_Driver/Src/stm32l4xx_hal_dfsdm.c ****     uint32_t reg;
 5435              		.loc 1 3021 3
 5436 0248 36E0     		b	.L300
 5437              	.L322:
3048:Drivers/STM32L4xx_HAL_Driver/Src/stm32l4xx_hal_dfsdm.c ****     }
3049:Drivers/STM32L4xx_HAL_Driver/Src/stm32l4xx_hal_dfsdm.c ****   }
3050:Drivers/STM32L4xx_HAL_Driver/Src/stm32l4xx_hal_dfsdm.c ****   /* Check if short circuit detection occurs */
3051:Drivers/STM32L4xx_HAL_Driver/Src/stm32l4xx_hal_dfsdm.c ****   else if ((hdfsdm_filter->Instance == DFSDM1_Filter0) && \
 5438              		.loc 1 3051 26
 5439 024a 7B68     		ldr	r3, [r7, #4]
 5440 024c 1B68     		ldr	r3, [r3]
 5441              		.loc 1 3051 11
 5442 024e 1C4A     		ldr	r2, .L331
 5443 0250 9342     		cmp	r3, r2
 5444 0252 31D1     		bne	.L330
 5445              		.loc 1 3051 56 discriminator 1
 5446 0254 7B69     		ldr	r3, [r7, #20]
 5447 0256 B3F1807F 		cmp	r3, #16777216
 5448 025a 2DD3     		bcc	.L330
3052:Drivers/STM32L4xx_HAL_Driver/Src/stm32l4xx_hal_dfsdm.c ****            ((temp_fltisr & DFSDM_FLTISR_SCDF) != 0U) && \
3053:Drivers/STM32L4xx_HAL_Driver/Src/stm32l4xx_hal_dfsdm.c ****            ((temp_fltcr2 & DFSDM_FLTCR2_SCDIE) != 0U))
 5449              		.loc 1 3053 26
 5450 025c 3B69     		ldr	r3, [r7, #16]
 5451 025e 03F02003 		and	r3, r3, #32
3052:Drivers/STM32L4xx_HAL_Driver/Src/stm32l4xx_hal_dfsdm.c ****            ((temp_fltisr & DFSDM_FLTISR_SCDF) != 0U) && \
 5452              		.loc 1 3052 54
 5453 0262 002B     		cmp	r3, #0
 5454 0264 28D0     		beq	.L330
 5455              	.LBB4:
3054:Drivers/STM32L4xx_HAL_Driver/Src/stm32l4xx_hal_dfsdm.c ****   {
3055:Drivers/STM32L4xx_HAL_Driver/Src/stm32l4xx_hal_dfsdm.c ****     uint32_t reg;
3056:Drivers/STM32L4xx_HAL_Driver/Src/stm32l4xx_hal_dfsdm.c ****     uint32_t channel = 0;
 5456              		.loc 1 3056 14
 5457 0266 0023     		movs	r3, #0
 5458 0268 BB61     		str	r3, [r7, #24]
3057:Drivers/STM32L4xx_HAL_Driver/Src/stm32l4xx_hal_dfsdm.c **** 
3058:Drivers/STM32L4xx_HAL_Driver/Src/stm32l4xx_hal_dfsdm.c ****     /* Get channel */
3059:Drivers/STM32L4xx_HAL_Driver/Src/stm32l4xx_hal_dfsdm.c ****     reg = ((hdfsdm_filter->Instance->FLTISR & DFSDM_FLTISR_SCDF) >> DFSDM_FLTISR_SCDF_Pos);
ARM GAS  /tmp/ccrDNuCE.s 			page 151


 5459              		.loc 1 3059 26
 5460 026a 7B68     		ldr	r3, [r7, #4]
 5461 026c 1B68     		ldr	r3, [r3]
 5462              		.loc 1 3059 36
 5463 026e 9B68     		ldr	r3, [r3, #8]
 5464              		.loc 1 3059 66
 5465 0270 1B0E     		lsrs	r3, r3, #24
 5466              		.loc 1 3059 9
 5467 0272 DBB2     		uxtb	r3, r3
 5468 0274 FB61     		str	r3, [r7, #28]
3060:Drivers/STM32L4xx_HAL_Driver/Src/stm32l4xx_hal_dfsdm.c ****     while (((reg & 1U) == 0U) && (channel < (DFSDM1_CHANNEL_NUMBER - 1U)))
 5469              		.loc 1 3060 11
 5470 0276 05E0     		b	.L326
 5471              	.L328:
3061:Drivers/STM32L4xx_HAL_Driver/Src/stm32l4xx_hal_dfsdm.c ****     {
3062:Drivers/STM32L4xx_HAL_Driver/Src/stm32l4xx_hal_dfsdm.c ****       channel++;
 5472              		.loc 1 3062 14
 5473 0278 BB69     		ldr	r3, [r7, #24]
 5474 027a 0133     		adds	r3, r3, #1
 5475 027c BB61     		str	r3, [r7, #24]
3063:Drivers/STM32L4xx_HAL_Driver/Src/stm32l4xx_hal_dfsdm.c ****       reg = reg >> 1;
 5476              		.loc 1 3063 11
 5477 027e FB69     		ldr	r3, [r7, #28]
 5478 0280 5B08     		lsrs	r3, r3, #1
 5479 0282 FB61     		str	r3, [r7, #28]
 5480              	.L326:
3060:Drivers/STM32L4xx_HAL_Driver/Src/stm32l4xx_hal_dfsdm.c ****     while (((reg & 1U) == 0U) && (channel < (DFSDM1_CHANNEL_NUMBER - 1U)))
 5481              		.loc 1 3060 18
 5482 0284 FB69     		ldr	r3, [r7, #28]
 5483 0286 03F00103 		and	r3, r3, #1
3060:Drivers/STM32L4xx_HAL_Driver/Src/stm32l4xx_hal_dfsdm.c ****     while (((reg & 1U) == 0U) && (channel < (DFSDM1_CHANNEL_NUMBER - 1U)))
 5484              		.loc 1 3060 31
 5485 028a 002B     		cmp	r3, #0
 5486 028c 02D1     		bne	.L327
3060:Drivers/STM32L4xx_HAL_Driver/Src/stm32l4xx_hal_dfsdm.c ****     while (((reg & 1U) == 0U) && (channel < (DFSDM1_CHANNEL_NUMBER - 1U)))
 5487              		.loc 1 3060 31 is_stmt 0 discriminator 1
 5488 028e BB69     		ldr	r3, [r7, #24]
 5489 0290 062B     		cmp	r3, #6
 5490 0292 F1D9     		bls	.L328
 5491              	.L327:
3064:Drivers/STM32L4xx_HAL_Driver/Src/stm32l4xx_hal_dfsdm.c ****     }
3065:Drivers/STM32L4xx_HAL_Driver/Src/stm32l4xx_hal_dfsdm.c **** 
3066:Drivers/STM32L4xx_HAL_Driver/Src/stm32l4xx_hal_dfsdm.c ****     /* Clear short circuit detection flag */
3067:Drivers/STM32L4xx_HAL_Driver/Src/stm32l4xx_hal_dfsdm.c ****     hdfsdm_filter->Instance->FLTICR = (1UL << (DFSDM_FLTICR_CLRSCDF_Pos + channel));
 5492              		.loc 1 3067 73 is_stmt 1
 5493 0294 BB69     		ldr	r3, [r7, #24]
 5494 0296 03F11802 		add	r2, r3, #24
 5495              		.loc 1 3067 18
 5496 029a 7B68     		ldr	r3, [r7, #4]
 5497 029c 1B68     		ldr	r3, [r3]
 5498              		.loc 1 3067 44
 5499 029e 0121     		movs	r1, #1
 5500 02a0 01FA02F2 		lsl	r2, r1, r2
 5501              		.loc 1 3067 37
 5502 02a4 DA60     		str	r2, [r3, #12]
3068:Drivers/STM32L4xx_HAL_Driver/Src/stm32l4xx_hal_dfsdm.c **** 
3069:Drivers/STM32L4xx_HAL_Driver/Src/stm32l4xx_hal_dfsdm.c ****     /* Call short circuit detection callback */
ARM GAS  /tmp/ccrDNuCE.s 			page 152


3070:Drivers/STM32L4xx_HAL_Driver/Src/stm32l4xx_hal_dfsdm.c **** #if (USE_HAL_DFSDM_REGISTER_CALLBACKS == 1)
3071:Drivers/STM32L4xx_HAL_Driver/Src/stm32l4xx_hal_dfsdm.c ****     a_dfsdm1ChannelHandle[channel]->ScdCallback(a_dfsdm1ChannelHandle[channel]);
3072:Drivers/STM32L4xx_HAL_Driver/Src/stm32l4xx_hal_dfsdm.c **** #else
3073:Drivers/STM32L4xx_HAL_Driver/Src/stm32l4xx_hal_dfsdm.c ****     HAL_DFSDM_ChannelScdCallback(a_dfsdm1ChannelHandle[channel]);
 5503              		.loc 1 3073 5
 5504 02a6 074A     		ldr	r2, .L331+4
 5505 02a8 BB69     		ldr	r3, [r7, #24]
 5506 02aa 52F82330 		ldr	r3, [r2, r3, lsl #2]
 5507 02ae 1846     		mov	r0, r3
 5508 02b0 FFF7FEFF 		bl	HAL_DFSDM_ChannelScdCallback
 5509              	.LBE4:
3074:Drivers/STM32L4xx_HAL_Driver/Src/stm32l4xx_hal_dfsdm.c **** #endif
3075:Drivers/STM32L4xx_HAL_Driver/Src/stm32l4xx_hal_dfsdm.c ****   }
3076:Drivers/STM32L4xx_HAL_Driver/Src/stm32l4xx_hal_dfsdm.c **** }
 5510              		.loc 1 3076 1
 5511 02b4 00E0     		b	.L330
 5512              	.L329:
2944:Drivers/STM32L4xx_HAL_Driver/Src/stm32l4xx_hal_dfsdm.c ****         (hdfsdm_filter->RegularTrigger == DFSDM_FILTER_SW_TRIGGER))
 5513              		.loc 1 2944 8
 5514 02b6 00BF     		nop
 5515              	.L300:
 5516              	.L330:
 5517              		.loc 1 3076 1
 5518 02b8 00BF     		nop
 5519 02ba 3037     		adds	r7, r7, #48
 5520              		.cfi_def_cfa_offset 8
 5521 02bc BD46     		mov	sp, r7
 5522              		.cfi_def_cfa_register 13
 5523              		@ sp needed
 5524 02be 80BD     		pop	{r7, pc}
 5525              	.L332:
 5526              		.align	2
 5527              	.L331:
 5528 02c0 00610140 		.word	1073832192
 5529 02c4 00000000 		.word	a_dfsdm1ChannelHandle
 5530              		.cfi_endproc
 5531              	.LFE495:
 5533              		.section	.text.HAL_DFSDM_FilterRegConvCpltCallback,"ax",%progbits
 5534              		.align	1
 5535              		.weak	HAL_DFSDM_FilterRegConvCpltCallback
 5536              		.syntax unified
 5537              		.thumb
 5538              		.thumb_func
 5540              	HAL_DFSDM_FilterRegConvCpltCallback:
 5541              	.LFB496:
3077:Drivers/STM32L4xx_HAL_Driver/Src/stm32l4xx_hal_dfsdm.c **** 
3078:Drivers/STM32L4xx_HAL_Driver/Src/stm32l4xx_hal_dfsdm.c **** /**
3079:Drivers/STM32L4xx_HAL_Driver/Src/stm32l4xx_hal_dfsdm.c ****   * @brief  Regular conversion complete callback.
3080:Drivers/STM32L4xx_HAL_Driver/Src/stm32l4xx_hal_dfsdm.c ****   * @note   In interrupt mode, user has to read conversion value in this function
3081:Drivers/STM32L4xx_HAL_Driver/Src/stm32l4xx_hal_dfsdm.c ****   *         using HAL_DFSDM_FilterGetRegularValue.
3082:Drivers/STM32L4xx_HAL_Driver/Src/stm32l4xx_hal_dfsdm.c ****   * @param  hdfsdm_filter DFSDM filter handle.
3083:Drivers/STM32L4xx_HAL_Driver/Src/stm32l4xx_hal_dfsdm.c ****   * @retval None
3084:Drivers/STM32L4xx_HAL_Driver/Src/stm32l4xx_hal_dfsdm.c ****   */
3085:Drivers/STM32L4xx_HAL_Driver/Src/stm32l4xx_hal_dfsdm.c **** __weak void HAL_DFSDM_FilterRegConvCpltCallback(DFSDM_Filter_HandleTypeDef *hdfsdm_filter)
3086:Drivers/STM32L4xx_HAL_Driver/Src/stm32l4xx_hal_dfsdm.c **** {
 5542              		.loc 1 3086 1
 5543              		.cfi_startproc
ARM GAS  /tmp/ccrDNuCE.s 			page 153


 5544              		@ args = 0, pretend = 0, frame = 8
 5545              		@ frame_needed = 1, uses_anonymous_args = 0
 5546              		@ link register save eliminated.
 5547 0000 80B4     		push	{r7}
 5548              		.cfi_def_cfa_offset 4
 5549              		.cfi_offset 7, -4
 5550 0002 83B0     		sub	sp, sp, #12
 5551              		.cfi_def_cfa_offset 16
 5552 0004 00AF     		add	r7, sp, #0
 5553              		.cfi_def_cfa_register 7
 5554 0006 7860     		str	r0, [r7, #4]
3087:Drivers/STM32L4xx_HAL_Driver/Src/stm32l4xx_hal_dfsdm.c ****   /* Prevent unused argument(s) compilation warning */
3088:Drivers/STM32L4xx_HAL_Driver/Src/stm32l4xx_hal_dfsdm.c ****   UNUSED(hdfsdm_filter);
3089:Drivers/STM32L4xx_HAL_Driver/Src/stm32l4xx_hal_dfsdm.c **** 
3090:Drivers/STM32L4xx_HAL_Driver/Src/stm32l4xx_hal_dfsdm.c ****   /* NOTE : This function should not be modified, when the callback is needed,
3091:Drivers/STM32L4xx_HAL_Driver/Src/stm32l4xx_hal_dfsdm.c ****             the HAL_DFSDM_FilterRegConvCpltCallback could be implemented in the user file.
3092:Drivers/STM32L4xx_HAL_Driver/Src/stm32l4xx_hal_dfsdm.c ****    */
3093:Drivers/STM32L4xx_HAL_Driver/Src/stm32l4xx_hal_dfsdm.c **** }
 5555              		.loc 1 3093 1
 5556 0008 00BF     		nop
 5557 000a 0C37     		adds	r7, r7, #12
 5558              		.cfi_def_cfa_offset 4
 5559 000c BD46     		mov	sp, r7
 5560              		.cfi_def_cfa_register 13
 5561              		@ sp needed
 5562 000e 5DF8047B 		ldr	r7, [sp], #4
 5563              		.cfi_restore 7
 5564              		.cfi_def_cfa_offset 0
 5565 0012 7047     		bx	lr
 5566              		.cfi_endproc
 5567              	.LFE496:
 5569              		.section	.text.HAL_DFSDM_FilterRegConvHalfCpltCallback,"ax",%progbits
 5570              		.align	1
 5571              		.weak	HAL_DFSDM_FilterRegConvHalfCpltCallback
 5572              		.syntax unified
 5573              		.thumb
 5574              		.thumb_func
 5576              	HAL_DFSDM_FilterRegConvHalfCpltCallback:
 5577              	.LFB497:
3094:Drivers/STM32L4xx_HAL_Driver/Src/stm32l4xx_hal_dfsdm.c **** 
3095:Drivers/STM32L4xx_HAL_Driver/Src/stm32l4xx_hal_dfsdm.c **** /**
3096:Drivers/STM32L4xx_HAL_Driver/Src/stm32l4xx_hal_dfsdm.c ****   * @brief  Half regular conversion complete callback.
3097:Drivers/STM32L4xx_HAL_Driver/Src/stm32l4xx_hal_dfsdm.c ****   * @param  hdfsdm_filter DFSDM filter handle.
3098:Drivers/STM32L4xx_HAL_Driver/Src/stm32l4xx_hal_dfsdm.c ****   * @retval None
3099:Drivers/STM32L4xx_HAL_Driver/Src/stm32l4xx_hal_dfsdm.c ****   */
3100:Drivers/STM32L4xx_HAL_Driver/Src/stm32l4xx_hal_dfsdm.c **** __weak void HAL_DFSDM_FilterRegConvHalfCpltCallback(DFSDM_Filter_HandleTypeDef *hdfsdm_filter)
3101:Drivers/STM32L4xx_HAL_Driver/Src/stm32l4xx_hal_dfsdm.c **** {
 5578              		.loc 1 3101 1
 5579              		.cfi_startproc
 5580              		@ args = 0, pretend = 0, frame = 8
 5581              		@ frame_needed = 1, uses_anonymous_args = 0
 5582              		@ link register save eliminated.
 5583 0000 80B4     		push	{r7}
 5584              		.cfi_def_cfa_offset 4
 5585              		.cfi_offset 7, -4
 5586 0002 83B0     		sub	sp, sp, #12
 5587              		.cfi_def_cfa_offset 16
ARM GAS  /tmp/ccrDNuCE.s 			page 154


 5588 0004 00AF     		add	r7, sp, #0
 5589              		.cfi_def_cfa_register 7
 5590 0006 7860     		str	r0, [r7, #4]
3102:Drivers/STM32L4xx_HAL_Driver/Src/stm32l4xx_hal_dfsdm.c ****   /* Prevent unused argument(s) compilation warning */
3103:Drivers/STM32L4xx_HAL_Driver/Src/stm32l4xx_hal_dfsdm.c ****   UNUSED(hdfsdm_filter);
3104:Drivers/STM32L4xx_HAL_Driver/Src/stm32l4xx_hal_dfsdm.c **** 
3105:Drivers/STM32L4xx_HAL_Driver/Src/stm32l4xx_hal_dfsdm.c ****   /* NOTE : This function should not be modified, when the callback is needed,
3106:Drivers/STM32L4xx_HAL_Driver/Src/stm32l4xx_hal_dfsdm.c ****             the HAL_DFSDM_FilterRegConvHalfCpltCallback could be implemented in the user file.
3107:Drivers/STM32L4xx_HAL_Driver/Src/stm32l4xx_hal_dfsdm.c ****    */
3108:Drivers/STM32L4xx_HAL_Driver/Src/stm32l4xx_hal_dfsdm.c **** }
 5591              		.loc 1 3108 1
 5592 0008 00BF     		nop
 5593 000a 0C37     		adds	r7, r7, #12
 5594              		.cfi_def_cfa_offset 4
 5595 000c BD46     		mov	sp, r7
 5596              		.cfi_def_cfa_register 13
 5597              		@ sp needed
 5598 000e 5DF8047B 		ldr	r7, [sp], #4
 5599              		.cfi_restore 7
 5600              		.cfi_def_cfa_offset 0
 5601 0012 7047     		bx	lr
 5602              		.cfi_endproc
 5603              	.LFE497:
 5605              		.section	.text.HAL_DFSDM_FilterInjConvCpltCallback,"ax",%progbits
 5606              		.align	1
 5607              		.weak	HAL_DFSDM_FilterInjConvCpltCallback
 5608              		.syntax unified
 5609              		.thumb
 5610              		.thumb_func
 5612              	HAL_DFSDM_FilterInjConvCpltCallback:
 5613              	.LFB498:
3109:Drivers/STM32L4xx_HAL_Driver/Src/stm32l4xx_hal_dfsdm.c **** 
3110:Drivers/STM32L4xx_HAL_Driver/Src/stm32l4xx_hal_dfsdm.c **** /**
3111:Drivers/STM32L4xx_HAL_Driver/Src/stm32l4xx_hal_dfsdm.c ****   * @brief  Injected conversion complete callback.
3112:Drivers/STM32L4xx_HAL_Driver/Src/stm32l4xx_hal_dfsdm.c ****   * @note   In interrupt mode, user has to read conversion value in this function
3113:Drivers/STM32L4xx_HAL_Driver/Src/stm32l4xx_hal_dfsdm.c ****   *         using HAL_DFSDM_FilterGetInjectedValue.
3114:Drivers/STM32L4xx_HAL_Driver/Src/stm32l4xx_hal_dfsdm.c ****   * @param  hdfsdm_filter DFSDM filter handle.
3115:Drivers/STM32L4xx_HAL_Driver/Src/stm32l4xx_hal_dfsdm.c ****   * @retval None
3116:Drivers/STM32L4xx_HAL_Driver/Src/stm32l4xx_hal_dfsdm.c ****   */
3117:Drivers/STM32L4xx_HAL_Driver/Src/stm32l4xx_hal_dfsdm.c **** __weak void HAL_DFSDM_FilterInjConvCpltCallback(DFSDM_Filter_HandleTypeDef *hdfsdm_filter)
3118:Drivers/STM32L4xx_HAL_Driver/Src/stm32l4xx_hal_dfsdm.c **** {
 5614              		.loc 1 3118 1
 5615              		.cfi_startproc
 5616              		@ args = 0, pretend = 0, frame = 8
 5617              		@ frame_needed = 1, uses_anonymous_args = 0
 5618              		@ link register save eliminated.
 5619 0000 80B4     		push	{r7}
 5620              		.cfi_def_cfa_offset 4
 5621              		.cfi_offset 7, -4
 5622 0002 83B0     		sub	sp, sp, #12
 5623              		.cfi_def_cfa_offset 16
 5624 0004 00AF     		add	r7, sp, #0
 5625              		.cfi_def_cfa_register 7
 5626 0006 7860     		str	r0, [r7, #4]
3119:Drivers/STM32L4xx_HAL_Driver/Src/stm32l4xx_hal_dfsdm.c ****   /* Prevent unused argument(s) compilation warning */
3120:Drivers/STM32L4xx_HAL_Driver/Src/stm32l4xx_hal_dfsdm.c ****   UNUSED(hdfsdm_filter);
3121:Drivers/STM32L4xx_HAL_Driver/Src/stm32l4xx_hal_dfsdm.c **** 
ARM GAS  /tmp/ccrDNuCE.s 			page 155


3122:Drivers/STM32L4xx_HAL_Driver/Src/stm32l4xx_hal_dfsdm.c ****   /* NOTE : This function should not be modified, when the callback is needed,
3123:Drivers/STM32L4xx_HAL_Driver/Src/stm32l4xx_hal_dfsdm.c ****             the HAL_DFSDM_FilterInjConvCpltCallback could be implemented in the user file.
3124:Drivers/STM32L4xx_HAL_Driver/Src/stm32l4xx_hal_dfsdm.c ****    */
3125:Drivers/STM32L4xx_HAL_Driver/Src/stm32l4xx_hal_dfsdm.c **** }
 5627              		.loc 1 3125 1
 5628 0008 00BF     		nop
 5629 000a 0C37     		adds	r7, r7, #12
 5630              		.cfi_def_cfa_offset 4
 5631 000c BD46     		mov	sp, r7
 5632              		.cfi_def_cfa_register 13
 5633              		@ sp needed
 5634 000e 5DF8047B 		ldr	r7, [sp], #4
 5635              		.cfi_restore 7
 5636              		.cfi_def_cfa_offset 0
 5637 0012 7047     		bx	lr
 5638              		.cfi_endproc
 5639              	.LFE498:
 5641              		.section	.text.HAL_DFSDM_FilterInjConvHalfCpltCallback,"ax",%progbits
 5642              		.align	1
 5643              		.weak	HAL_DFSDM_FilterInjConvHalfCpltCallback
 5644              		.syntax unified
 5645              		.thumb
 5646              		.thumb_func
 5648              	HAL_DFSDM_FilterInjConvHalfCpltCallback:
 5649              	.LFB499:
3126:Drivers/STM32L4xx_HAL_Driver/Src/stm32l4xx_hal_dfsdm.c **** 
3127:Drivers/STM32L4xx_HAL_Driver/Src/stm32l4xx_hal_dfsdm.c **** /**
3128:Drivers/STM32L4xx_HAL_Driver/Src/stm32l4xx_hal_dfsdm.c ****   * @brief  Half injected conversion complete callback.
3129:Drivers/STM32L4xx_HAL_Driver/Src/stm32l4xx_hal_dfsdm.c ****   * @param  hdfsdm_filter DFSDM filter handle.
3130:Drivers/STM32L4xx_HAL_Driver/Src/stm32l4xx_hal_dfsdm.c ****   * @retval None
3131:Drivers/STM32L4xx_HAL_Driver/Src/stm32l4xx_hal_dfsdm.c ****   */
3132:Drivers/STM32L4xx_HAL_Driver/Src/stm32l4xx_hal_dfsdm.c **** __weak void HAL_DFSDM_FilterInjConvHalfCpltCallback(DFSDM_Filter_HandleTypeDef *hdfsdm_filter)
3133:Drivers/STM32L4xx_HAL_Driver/Src/stm32l4xx_hal_dfsdm.c **** {
 5650              		.loc 1 3133 1
 5651              		.cfi_startproc
 5652              		@ args = 0, pretend = 0, frame = 8
 5653              		@ frame_needed = 1, uses_anonymous_args = 0
 5654              		@ link register save eliminated.
 5655 0000 80B4     		push	{r7}
 5656              		.cfi_def_cfa_offset 4
 5657              		.cfi_offset 7, -4
 5658 0002 83B0     		sub	sp, sp, #12
 5659              		.cfi_def_cfa_offset 16
 5660 0004 00AF     		add	r7, sp, #0
 5661              		.cfi_def_cfa_register 7
 5662 0006 7860     		str	r0, [r7, #4]
3134:Drivers/STM32L4xx_HAL_Driver/Src/stm32l4xx_hal_dfsdm.c ****   /* Prevent unused argument(s) compilation warning */
3135:Drivers/STM32L4xx_HAL_Driver/Src/stm32l4xx_hal_dfsdm.c ****   UNUSED(hdfsdm_filter);
3136:Drivers/STM32L4xx_HAL_Driver/Src/stm32l4xx_hal_dfsdm.c **** 
3137:Drivers/STM32L4xx_HAL_Driver/Src/stm32l4xx_hal_dfsdm.c ****   /* NOTE : This function should not be modified, when the callback is needed,
3138:Drivers/STM32L4xx_HAL_Driver/Src/stm32l4xx_hal_dfsdm.c ****             the HAL_DFSDM_FilterInjConvHalfCpltCallback could be implemented in the user file.
3139:Drivers/STM32L4xx_HAL_Driver/Src/stm32l4xx_hal_dfsdm.c ****    */
3140:Drivers/STM32L4xx_HAL_Driver/Src/stm32l4xx_hal_dfsdm.c **** }
 5663              		.loc 1 3140 1
 5664 0008 00BF     		nop
 5665 000a 0C37     		adds	r7, r7, #12
 5666              		.cfi_def_cfa_offset 4
ARM GAS  /tmp/ccrDNuCE.s 			page 156


 5667 000c BD46     		mov	sp, r7
 5668              		.cfi_def_cfa_register 13
 5669              		@ sp needed
 5670 000e 5DF8047B 		ldr	r7, [sp], #4
 5671              		.cfi_restore 7
 5672              		.cfi_def_cfa_offset 0
 5673 0012 7047     		bx	lr
 5674              		.cfi_endproc
 5675              	.LFE499:
 5677              		.section	.text.HAL_DFSDM_FilterAwdCallback,"ax",%progbits
 5678              		.align	1
 5679              		.weak	HAL_DFSDM_FilterAwdCallback
 5680              		.syntax unified
 5681              		.thumb
 5682              		.thumb_func
 5684              	HAL_DFSDM_FilterAwdCallback:
 5685              	.LFB500:
3141:Drivers/STM32L4xx_HAL_Driver/Src/stm32l4xx_hal_dfsdm.c **** 
3142:Drivers/STM32L4xx_HAL_Driver/Src/stm32l4xx_hal_dfsdm.c **** /**
3143:Drivers/STM32L4xx_HAL_Driver/Src/stm32l4xx_hal_dfsdm.c ****   * @brief  Filter analog watchdog callback.
3144:Drivers/STM32L4xx_HAL_Driver/Src/stm32l4xx_hal_dfsdm.c ****   * @param  hdfsdm_filter DFSDM filter handle.
3145:Drivers/STM32L4xx_HAL_Driver/Src/stm32l4xx_hal_dfsdm.c ****   * @param  Channel Corresponding channel.
3146:Drivers/STM32L4xx_HAL_Driver/Src/stm32l4xx_hal_dfsdm.c ****   * @param  Threshold Low or high threshold has been reached.
3147:Drivers/STM32L4xx_HAL_Driver/Src/stm32l4xx_hal_dfsdm.c ****   * @retval None
3148:Drivers/STM32L4xx_HAL_Driver/Src/stm32l4xx_hal_dfsdm.c ****   */
3149:Drivers/STM32L4xx_HAL_Driver/Src/stm32l4xx_hal_dfsdm.c **** __weak void HAL_DFSDM_FilterAwdCallback(DFSDM_Filter_HandleTypeDef *hdfsdm_filter,
3150:Drivers/STM32L4xx_HAL_Driver/Src/stm32l4xx_hal_dfsdm.c ****                                         uint32_t Channel, uint32_t Threshold)
3151:Drivers/STM32L4xx_HAL_Driver/Src/stm32l4xx_hal_dfsdm.c **** {
 5686              		.loc 1 3151 1
 5687              		.cfi_startproc
 5688              		@ args = 0, pretend = 0, frame = 16
 5689              		@ frame_needed = 1, uses_anonymous_args = 0
 5690              		@ link register save eliminated.
 5691 0000 80B4     		push	{r7}
 5692              		.cfi_def_cfa_offset 4
 5693              		.cfi_offset 7, -4
 5694 0002 85B0     		sub	sp, sp, #20
 5695              		.cfi_def_cfa_offset 24
 5696 0004 00AF     		add	r7, sp, #0
 5697              		.cfi_def_cfa_register 7
 5698 0006 F860     		str	r0, [r7, #12]
 5699 0008 B960     		str	r1, [r7, #8]
 5700 000a 7A60     		str	r2, [r7, #4]
3152:Drivers/STM32L4xx_HAL_Driver/Src/stm32l4xx_hal_dfsdm.c ****   /* Prevent unused argument(s) compilation warning */
3153:Drivers/STM32L4xx_HAL_Driver/Src/stm32l4xx_hal_dfsdm.c ****   UNUSED(hdfsdm_filter);
3154:Drivers/STM32L4xx_HAL_Driver/Src/stm32l4xx_hal_dfsdm.c ****   UNUSED(Channel);
3155:Drivers/STM32L4xx_HAL_Driver/Src/stm32l4xx_hal_dfsdm.c ****   UNUSED(Threshold);
3156:Drivers/STM32L4xx_HAL_Driver/Src/stm32l4xx_hal_dfsdm.c **** 
3157:Drivers/STM32L4xx_HAL_Driver/Src/stm32l4xx_hal_dfsdm.c ****   /* NOTE : This function should not be modified, when the callback is needed,
3158:Drivers/STM32L4xx_HAL_Driver/Src/stm32l4xx_hal_dfsdm.c ****             the HAL_DFSDM_FilterAwdCallback could be implemented in the user file.
3159:Drivers/STM32L4xx_HAL_Driver/Src/stm32l4xx_hal_dfsdm.c ****    */
3160:Drivers/STM32L4xx_HAL_Driver/Src/stm32l4xx_hal_dfsdm.c **** }
 5701              		.loc 1 3160 1
 5702 000c 00BF     		nop
 5703 000e 1437     		adds	r7, r7, #20
 5704              		.cfi_def_cfa_offset 4
 5705 0010 BD46     		mov	sp, r7
ARM GAS  /tmp/ccrDNuCE.s 			page 157


 5706              		.cfi_def_cfa_register 13
 5707              		@ sp needed
 5708 0012 5DF8047B 		ldr	r7, [sp], #4
 5709              		.cfi_restore 7
 5710              		.cfi_def_cfa_offset 0
 5711 0016 7047     		bx	lr
 5712              		.cfi_endproc
 5713              	.LFE500:
 5715              		.section	.text.HAL_DFSDM_FilterErrorCallback,"ax",%progbits
 5716              		.align	1
 5717              		.weak	HAL_DFSDM_FilterErrorCallback
 5718              		.syntax unified
 5719              		.thumb
 5720              		.thumb_func
 5722              	HAL_DFSDM_FilterErrorCallback:
 5723              	.LFB501:
3161:Drivers/STM32L4xx_HAL_Driver/Src/stm32l4xx_hal_dfsdm.c **** 
3162:Drivers/STM32L4xx_HAL_Driver/Src/stm32l4xx_hal_dfsdm.c **** /**
3163:Drivers/STM32L4xx_HAL_Driver/Src/stm32l4xx_hal_dfsdm.c ****   * @brief  Error callback.
3164:Drivers/STM32L4xx_HAL_Driver/Src/stm32l4xx_hal_dfsdm.c ****   * @param  hdfsdm_filter DFSDM filter handle.
3165:Drivers/STM32L4xx_HAL_Driver/Src/stm32l4xx_hal_dfsdm.c ****   * @retval None
3166:Drivers/STM32L4xx_HAL_Driver/Src/stm32l4xx_hal_dfsdm.c ****   */
3167:Drivers/STM32L4xx_HAL_Driver/Src/stm32l4xx_hal_dfsdm.c **** __weak void HAL_DFSDM_FilterErrorCallback(DFSDM_Filter_HandleTypeDef *hdfsdm_filter)
3168:Drivers/STM32L4xx_HAL_Driver/Src/stm32l4xx_hal_dfsdm.c **** {
 5724              		.loc 1 3168 1
 5725              		.cfi_startproc
 5726              		@ args = 0, pretend = 0, frame = 8
 5727              		@ frame_needed = 1, uses_anonymous_args = 0
 5728              		@ link register save eliminated.
 5729 0000 80B4     		push	{r7}
 5730              		.cfi_def_cfa_offset 4
 5731              		.cfi_offset 7, -4
 5732 0002 83B0     		sub	sp, sp, #12
 5733              		.cfi_def_cfa_offset 16
 5734 0004 00AF     		add	r7, sp, #0
 5735              		.cfi_def_cfa_register 7
 5736 0006 7860     		str	r0, [r7, #4]
3169:Drivers/STM32L4xx_HAL_Driver/Src/stm32l4xx_hal_dfsdm.c ****   /* Prevent unused argument(s) compilation warning */
3170:Drivers/STM32L4xx_HAL_Driver/Src/stm32l4xx_hal_dfsdm.c ****   UNUSED(hdfsdm_filter);
3171:Drivers/STM32L4xx_HAL_Driver/Src/stm32l4xx_hal_dfsdm.c **** 
3172:Drivers/STM32L4xx_HAL_Driver/Src/stm32l4xx_hal_dfsdm.c ****   /* NOTE : This function should not be modified, when the callback is needed,
3173:Drivers/STM32L4xx_HAL_Driver/Src/stm32l4xx_hal_dfsdm.c ****             the HAL_DFSDM_FilterErrorCallback could be implemented in the user file.
3174:Drivers/STM32L4xx_HAL_Driver/Src/stm32l4xx_hal_dfsdm.c ****    */
3175:Drivers/STM32L4xx_HAL_Driver/Src/stm32l4xx_hal_dfsdm.c **** }
 5737              		.loc 1 3175 1
 5738 0008 00BF     		nop
 5739 000a 0C37     		adds	r7, r7, #12
 5740              		.cfi_def_cfa_offset 4
 5741 000c BD46     		mov	sp, r7
 5742              		.cfi_def_cfa_register 13
 5743              		@ sp needed
 5744 000e 5DF8047B 		ldr	r7, [sp], #4
 5745              		.cfi_restore 7
 5746              		.cfi_def_cfa_offset 0
 5747 0012 7047     		bx	lr
 5748              		.cfi_endproc
 5749              	.LFE501:
ARM GAS  /tmp/ccrDNuCE.s 			page 158


 5751              		.section	.text.HAL_DFSDM_FilterGetState,"ax",%progbits
 5752              		.align	1
 5753              		.global	HAL_DFSDM_FilterGetState
 5754              		.syntax unified
 5755              		.thumb
 5756              		.thumb_func
 5758              	HAL_DFSDM_FilterGetState:
 5759              	.LFB502:
3176:Drivers/STM32L4xx_HAL_Driver/Src/stm32l4xx_hal_dfsdm.c **** 
3177:Drivers/STM32L4xx_HAL_Driver/Src/stm32l4xx_hal_dfsdm.c **** /**
3178:Drivers/STM32L4xx_HAL_Driver/Src/stm32l4xx_hal_dfsdm.c ****   * @}
3179:Drivers/STM32L4xx_HAL_Driver/Src/stm32l4xx_hal_dfsdm.c ****   */
3180:Drivers/STM32L4xx_HAL_Driver/Src/stm32l4xx_hal_dfsdm.c **** 
3181:Drivers/STM32L4xx_HAL_Driver/Src/stm32l4xx_hal_dfsdm.c **** /** @defgroup DFSDM_Exported_Functions_Group4_Filter Filter state functions
3182:Drivers/STM32L4xx_HAL_Driver/Src/stm32l4xx_hal_dfsdm.c ****  *  @brief    Filter state functions
3183:Drivers/STM32L4xx_HAL_Driver/Src/stm32l4xx_hal_dfsdm.c ****  *
3184:Drivers/STM32L4xx_HAL_Driver/Src/stm32l4xx_hal_dfsdm.c **** @verbatim
3185:Drivers/STM32L4xx_HAL_Driver/Src/stm32l4xx_hal_dfsdm.c ****   ==============================================================================
3186:Drivers/STM32L4xx_HAL_Driver/Src/stm32l4xx_hal_dfsdm.c ****                      ##### Filter state functions #####
3187:Drivers/STM32L4xx_HAL_Driver/Src/stm32l4xx_hal_dfsdm.c ****   ==============================================================================
3188:Drivers/STM32L4xx_HAL_Driver/Src/stm32l4xx_hal_dfsdm.c ****     [..]  This section provides functions allowing to:
3189:Drivers/STM32L4xx_HAL_Driver/Src/stm32l4xx_hal_dfsdm.c ****       (+) Get the DFSDM filter state.
3190:Drivers/STM32L4xx_HAL_Driver/Src/stm32l4xx_hal_dfsdm.c ****       (+) Get the DFSDM filter error.
3191:Drivers/STM32L4xx_HAL_Driver/Src/stm32l4xx_hal_dfsdm.c **** @endverbatim
3192:Drivers/STM32L4xx_HAL_Driver/Src/stm32l4xx_hal_dfsdm.c ****   * @{
3193:Drivers/STM32L4xx_HAL_Driver/Src/stm32l4xx_hal_dfsdm.c ****   */
3194:Drivers/STM32L4xx_HAL_Driver/Src/stm32l4xx_hal_dfsdm.c **** 
3195:Drivers/STM32L4xx_HAL_Driver/Src/stm32l4xx_hal_dfsdm.c **** /**
3196:Drivers/STM32L4xx_HAL_Driver/Src/stm32l4xx_hal_dfsdm.c ****   * @brief  This function allows to get the current DFSDM filter handle state.
3197:Drivers/STM32L4xx_HAL_Driver/Src/stm32l4xx_hal_dfsdm.c ****   * @param  hdfsdm_filter DFSDM filter handle.
3198:Drivers/STM32L4xx_HAL_Driver/Src/stm32l4xx_hal_dfsdm.c ****   * @retval DFSDM filter state.
3199:Drivers/STM32L4xx_HAL_Driver/Src/stm32l4xx_hal_dfsdm.c ****   */
3200:Drivers/STM32L4xx_HAL_Driver/Src/stm32l4xx_hal_dfsdm.c **** HAL_DFSDM_Filter_StateTypeDef HAL_DFSDM_FilterGetState(const DFSDM_Filter_HandleTypeDef *hdfsdm_fil
3201:Drivers/STM32L4xx_HAL_Driver/Src/stm32l4xx_hal_dfsdm.c **** {
 5760              		.loc 1 3201 1
 5761              		.cfi_startproc
 5762              		@ args = 0, pretend = 0, frame = 8
 5763              		@ frame_needed = 1, uses_anonymous_args = 0
 5764              		@ link register save eliminated.
 5765 0000 80B4     		push	{r7}
 5766              		.cfi_def_cfa_offset 4
 5767              		.cfi_offset 7, -4
 5768 0002 83B0     		sub	sp, sp, #12
 5769              		.cfi_def_cfa_offset 16
 5770 0004 00AF     		add	r7, sp, #0
 5771              		.cfi_def_cfa_register 7
 5772 0006 7860     		str	r0, [r7, #4]
3202:Drivers/STM32L4xx_HAL_Driver/Src/stm32l4xx_hal_dfsdm.c ****   /* Return DFSDM filter handle state */
3203:Drivers/STM32L4xx_HAL_Driver/Src/stm32l4xx_hal_dfsdm.c ****   return hdfsdm_filter->State;
 5773              		.loc 1 3203 23
 5774 0008 7B68     		ldr	r3, [r7, #4]
 5775 000a 93F84C30 		ldrb	r3, [r3, #76]	@ zero_extendqisi2
3204:Drivers/STM32L4xx_HAL_Driver/Src/stm32l4xx_hal_dfsdm.c **** }
 5776              		.loc 1 3204 1
 5777 000e 1846     		mov	r0, r3
 5778 0010 0C37     		adds	r7, r7, #12
 5779              		.cfi_def_cfa_offset 4
ARM GAS  /tmp/ccrDNuCE.s 			page 159


 5780 0012 BD46     		mov	sp, r7
 5781              		.cfi_def_cfa_register 13
 5782              		@ sp needed
 5783 0014 5DF8047B 		ldr	r7, [sp], #4
 5784              		.cfi_restore 7
 5785              		.cfi_def_cfa_offset 0
 5786 0018 7047     		bx	lr
 5787              		.cfi_endproc
 5788              	.LFE502:
 5790              		.section	.text.HAL_DFSDM_FilterGetError,"ax",%progbits
 5791              		.align	1
 5792              		.global	HAL_DFSDM_FilterGetError
 5793              		.syntax unified
 5794              		.thumb
 5795              		.thumb_func
 5797              	HAL_DFSDM_FilterGetError:
 5798              	.LFB503:
3205:Drivers/STM32L4xx_HAL_Driver/Src/stm32l4xx_hal_dfsdm.c **** 
3206:Drivers/STM32L4xx_HAL_Driver/Src/stm32l4xx_hal_dfsdm.c **** /**
3207:Drivers/STM32L4xx_HAL_Driver/Src/stm32l4xx_hal_dfsdm.c ****   * @brief  This function allows to get the current DFSDM filter error.
3208:Drivers/STM32L4xx_HAL_Driver/Src/stm32l4xx_hal_dfsdm.c ****   * @param  hdfsdm_filter DFSDM filter handle.
3209:Drivers/STM32L4xx_HAL_Driver/Src/stm32l4xx_hal_dfsdm.c ****   * @retval DFSDM filter error code.
3210:Drivers/STM32L4xx_HAL_Driver/Src/stm32l4xx_hal_dfsdm.c ****   */
3211:Drivers/STM32L4xx_HAL_Driver/Src/stm32l4xx_hal_dfsdm.c **** uint32_t HAL_DFSDM_FilterGetError(const DFSDM_Filter_HandleTypeDef *hdfsdm_filter)
3212:Drivers/STM32L4xx_HAL_Driver/Src/stm32l4xx_hal_dfsdm.c **** {
 5799              		.loc 1 3212 1
 5800              		.cfi_startproc
 5801              		@ args = 0, pretend = 0, frame = 8
 5802              		@ frame_needed = 1, uses_anonymous_args = 0
 5803              		@ link register save eliminated.
 5804 0000 80B4     		push	{r7}
 5805              		.cfi_def_cfa_offset 4
 5806              		.cfi_offset 7, -4
 5807 0002 83B0     		sub	sp, sp, #12
 5808              		.cfi_def_cfa_offset 16
 5809 0004 00AF     		add	r7, sp, #0
 5810              		.cfi_def_cfa_register 7
 5811 0006 7860     		str	r0, [r7, #4]
3213:Drivers/STM32L4xx_HAL_Driver/Src/stm32l4xx_hal_dfsdm.c ****   return hdfsdm_filter->ErrorCode;
 5812              		.loc 1 3213 23
 5813 0008 7B68     		ldr	r3, [r7, #4]
 5814 000a 1B6D     		ldr	r3, [r3, #80]
3214:Drivers/STM32L4xx_HAL_Driver/Src/stm32l4xx_hal_dfsdm.c **** }
 5815              		.loc 1 3214 1
 5816 000c 1846     		mov	r0, r3
 5817 000e 0C37     		adds	r7, r7, #12
 5818              		.cfi_def_cfa_offset 4
 5819 0010 BD46     		mov	sp, r7
 5820              		.cfi_def_cfa_register 13
 5821              		@ sp needed
 5822 0012 5DF8047B 		ldr	r7, [sp], #4
 5823              		.cfi_restore 7
 5824              		.cfi_def_cfa_offset 0
 5825 0016 7047     		bx	lr
 5826              		.cfi_endproc
 5827              	.LFE503:
 5829              		.section	.text.DFSDM_DMARegularHalfConvCplt,"ax",%progbits
ARM GAS  /tmp/ccrDNuCE.s 			page 160


 5830              		.align	1
 5831              		.syntax unified
 5832              		.thumb
 5833              		.thumb_func
 5835              	DFSDM_DMARegularHalfConvCplt:
 5836              	.LFB504:
3215:Drivers/STM32L4xx_HAL_Driver/Src/stm32l4xx_hal_dfsdm.c **** 
3216:Drivers/STM32L4xx_HAL_Driver/Src/stm32l4xx_hal_dfsdm.c **** /**
3217:Drivers/STM32L4xx_HAL_Driver/Src/stm32l4xx_hal_dfsdm.c ****   * @}
3218:Drivers/STM32L4xx_HAL_Driver/Src/stm32l4xx_hal_dfsdm.c ****   */
3219:Drivers/STM32L4xx_HAL_Driver/Src/stm32l4xx_hal_dfsdm.c **** 
3220:Drivers/STM32L4xx_HAL_Driver/Src/stm32l4xx_hal_dfsdm.c **** /**
3221:Drivers/STM32L4xx_HAL_Driver/Src/stm32l4xx_hal_dfsdm.c ****   * @}
3222:Drivers/STM32L4xx_HAL_Driver/Src/stm32l4xx_hal_dfsdm.c ****   */
3223:Drivers/STM32L4xx_HAL_Driver/Src/stm32l4xx_hal_dfsdm.c **** /* End of exported functions -------------------------------------------------*/
3224:Drivers/STM32L4xx_HAL_Driver/Src/stm32l4xx_hal_dfsdm.c **** 
3225:Drivers/STM32L4xx_HAL_Driver/Src/stm32l4xx_hal_dfsdm.c **** /* Private functions ---------------------------------------------------------*/
3226:Drivers/STM32L4xx_HAL_Driver/Src/stm32l4xx_hal_dfsdm.c **** /** @addtogroup DFSDM_Private_Functions DFSDM Private Functions
3227:Drivers/STM32L4xx_HAL_Driver/Src/stm32l4xx_hal_dfsdm.c ****   * @{
3228:Drivers/STM32L4xx_HAL_Driver/Src/stm32l4xx_hal_dfsdm.c ****   */
3229:Drivers/STM32L4xx_HAL_Driver/Src/stm32l4xx_hal_dfsdm.c **** 
3230:Drivers/STM32L4xx_HAL_Driver/Src/stm32l4xx_hal_dfsdm.c **** /**
3231:Drivers/STM32L4xx_HAL_Driver/Src/stm32l4xx_hal_dfsdm.c ****   * @brief  DMA half transfer complete callback for regular conversion.
3232:Drivers/STM32L4xx_HAL_Driver/Src/stm32l4xx_hal_dfsdm.c ****   * @param  hdma DMA handle.
3233:Drivers/STM32L4xx_HAL_Driver/Src/stm32l4xx_hal_dfsdm.c ****   * @retval None
3234:Drivers/STM32L4xx_HAL_Driver/Src/stm32l4xx_hal_dfsdm.c ****   */
3235:Drivers/STM32L4xx_HAL_Driver/Src/stm32l4xx_hal_dfsdm.c **** static void DFSDM_DMARegularHalfConvCplt(DMA_HandleTypeDef *hdma)
3236:Drivers/STM32L4xx_HAL_Driver/Src/stm32l4xx_hal_dfsdm.c **** {
 5837              		.loc 1 3236 1
 5838              		.cfi_startproc
 5839              		@ args = 0, pretend = 0, frame = 16
 5840              		@ frame_needed = 1, uses_anonymous_args = 0
 5841 0000 80B5     		push	{r7, lr}
 5842              		.cfi_def_cfa_offset 8
 5843              		.cfi_offset 7, -8
 5844              		.cfi_offset 14, -4
 5845 0002 84B0     		sub	sp, sp, #16
 5846              		.cfi_def_cfa_offset 24
 5847 0004 00AF     		add	r7, sp, #0
 5848              		.cfi_def_cfa_register 7
 5849 0006 7860     		str	r0, [r7, #4]
3237:Drivers/STM32L4xx_HAL_Driver/Src/stm32l4xx_hal_dfsdm.c ****   /* Get DFSDM filter handle */
3238:Drivers/STM32L4xx_HAL_Driver/Src/stm32l4xx_hal_dfsdm.c ****   DFSDM_Filter_HandleTypeDef *hdfsdm_filter = (DFSDM_Filter_HandleTypeDef *)((DMA_HandleTypeDef *)h
 5850              		.loc 1 3238 31
 5851 0008 7B68     		ldr	r3, [r7, #4]
 5852 000a 9B6A     		ldr	r3, [r3, #40]
 5853 000c FB60     		str	r3, [r7, #12]
3239:Drivers/STM32L4xx_HAL_Driver/Src/stm32l4xx_hal_dfsdm.c **** 
3240:Drivers/STM32L4xx_HAL_Driver/Src/stm32l4xx_hal_dfsdm.c ****   /* Call regular half conversion complete callback */
3241:Drivers/STM32L4xx_HAL_Driver/Src/stm32l4xx_hal_dfsdm.c **** #if (USE_HAL_DFSDM_REGISTER_CALLBACKS == 1)
3242:Drivers/STM32L4xx_HAL_Driver/Src/stm32l4xx_hal_dfsdm.c ****   hdfsdm_filter->RegConvHalfCpltCallback(hdfsdm_filter);
3243:Drivers/STM32L4xx_HAL_Driver/Src/stm32l4xx_hal_dfsdm.c **** #else
3244:Drivers/STM32L4xx_HAL_Driver/Src/stm32l4xx_hal_dfsdm.c ****   HAL_DFSDM_FilterRegConvHalfCpltCallback(hdfsdm_filter);
 5854              		.loc 1 3244 3
 5855 000e F868     		ldr	r0, [r7, #12]
 5856 0010 FFF7FEFF 		bl	HAL_DFSDM_FilterRegConvHalfCpltCallback
3245:Drivers/STM32L4xx_HAL_Driver/Src/stm32l4xx_hal_dfsdm.c **** #endif
ARM GAS  /tmp/ccrDNuCE.s 			page 161


3246:Drivers/STM32L4xx_HAL_Driver/Src/stm32l4xx_hal_dfsdm.c **** }
 5857              		.loc 1 3246 1
 5858 0014 00BF     		nop
 5859 0016 1037     		adds	r7, r7, #16
 5860              		.cfi_def_cfa_offset 8
 5861 0018 BD46     		mov	sp, r7
 5862              		.cfi_def_cfa_register 13
 5863              		@ sp needed
 5864 001a 80BD     		pop	{r7, pc}
 5865              		.cfi_endproc
 5866              	.LFE504:
 5868              		.section	.text.DFSDM_DMARegularConvCplt,"ax",%progbits
 5869              		.align	1
 5870              		.syntax unified
 5871              		.thumb
 5872              		.thumb_func
 5874              	DFSDM_DMARegularConvCplt:
 5875              	.LFB505:
3247:Drivers/STM32L4xx_HAL_Driver/Src/stm32l4xx_hal_dfsdm.c **** 
3248:Drivers/STM32L4xx_HAL_Driver/Src/stm32l4xx_hal_dfsdm.c **** /**
3249:Drivers/STM32L4xx_HAL_Driver/Src/stm32l4xx_hal_dfsdm.c ****   * @brief  DMA transfer complete callback for regular conversion.
3250:Drivers/STM32L4xx_HAL_Driver/Src/stm32l4xx_hal_dfsdm.c ****   * @param  hdma DMA handle.
3251:Drivers/STM32L4xx_HAL_Driver/Src/stm32l4xx_hal_dfsdm.c ****   * @retval None
3252:Drivers/STM32L4xx_HAL_Driver/Src/stm32l4xx_hal_dfsdm.c ****   */
3253:Drivers/STM32L4xx_HAL_Driver/Src/stm32l4xx_hal_dfsdm.c **** static void DFSDM_DMARegularConvCplt(DMA_HandleTypeDef *hdma)
3254:Drivers/STM32L4xx_HAL_Driver/Src/stm32l4xx_hal_dfsdm.c **** {
 5876              		.loc 1 3254 1
 5877              		.cfi_startproc
 5878              		@ args = 0, pretend = 0, frame = 16
 5879              		@ frame_needed = 1, uses_anonymous_args = 0
 5880 0000 80B5     		push	{r7, lr}
 5881              		.cfi_def_cfa_offset 8
 5882              		.cfi_offset 7, -8
 5883              		.cfi_offset 14, -4
 5884 0002 84B0     		sub	sp, sp, #16
 5885              		.cfi_def_cfa_offset 24
 5886 0004 00AF     		add	r7, sp, #0
 5887              		.cfi_def_cfa_register 7
 5888 0006 7860     		str	r0, [r7, #4]
3255:Drivers/STM32L4xx_HAL_Driver/Src/stm32l4xx_hal_dfsdm.c ****   /* Get DFSDM filter handle */
3256:Drivers/STM32L4xx_HAL_Driver/Src/stm32l4xx_hal_dfsdm.c ****   DFSDM_Filter_HandleTypeDef *hdfsdm_filter = (DFSDM_Filter_HandleTypeDef *)((DMA_HandleTypeDef *)h
 5889              		.loc 1 3256 31
 5890 0008 7B68     		ldr	r3, [r7, #4]
 5891 000a 9B6A     		ldr	r3, [r3, #40]
 5892 000c FB60     		str	r3, [r7, #12]
3257:Drivers/STM32L4xx_HAL_Driver/Src/stm32l4xx_hal_dfsdm.c **** 
3258:Drivers/STM32L4xx_HAL_Driver/Src/stm32l4xx_hal_dfsdm.c ****   /* Call regular conversion complete callback */
3259:Drivers/STM32L4xx_HAL_Driver/Src/stm32l4xx_hal_dfsdm.c **** #if (USE_HAL_DFSDM_REGISTER_CALLBACKS == 1)
3260:Drivers/STM32L4xx_HAL_Driver/Src/stm32l4xx_hal_dfsdm.c ****   hdfsdm_filter->RegConvCpltCallback(hdfsdm_filter);
3261:Drivers/STM32L4xx_HAL_Driver/Src/stm32l4xx_hal_dfsdm.c **** #else
3262:Drivers/STM32L4xx_HAL_Driver/Src/stm32l4xx_hal_dfsdm.c ****   HAL_DFSDM_FilterRegConvCpltCallback(hdfsdm_filter);
 5893              		.loc 1 3262 3
 5894 000e F868     		ldr	r0, [r7, #12]
 5895 0010 FFF7FEFF 		bl	HAL_DFSDM_FilterRegConvCpltCallback
3263:Drivers/STM32L4xx_HAL_Driver/Src/stm32l4xx_hal_dfsdm.c **** #endif
3264:Drivers/STM32L4xx_HAL_Driver/Src/stm32l4xx_hal_dfsdm.c **** }
 5896              		.loc 1 3264 1
ARM GAS  /tmp/ccrDNuCE.s 			page 162


 5897 0014 00BF     		nop
 5898 0016 1037     		adds	r7, r7, #16
 5899              		.cfi_def_cfa_offset 8
 5900 0018 BD46     		mov	sp, r7
 5901              		.cfi_def_cfa_register 13
 5902              		@ sp needed
 5903 001a 80BD     		pop	{r7, pc}
 5904              		.cfi_endproc
 5905              	.LFE505:
 5907              		.section	.text.DFSDM_DMAInjectedHalfConvCplt,"ax",%progbits
 5908              		.align	1
 5909              		.syntax unified
 5910              		.thumb
 5911              		.thumb_func
 5913              	DFSDM_DMAInjectedHalfConvCplt:
 5914              	.LFB506:
3265:Drivers/STM32L4xx_HAL_Driver/Src/stm32l4xx_hal_dfsdm.c **** 
3266:Drivers/STM32L4xx_HAL_Driver/Src/stm32l4xx_hal_dfsdm.c **** /**
3267:Drivers/STM32L4xx_HAL_Driver/Src/stm32l4xx_hal_dfsdm.c ****   * @brief  DMA half transfer complete callback for injected conversion.
3268:Drivers/STM32L4xx_HAL_Driver/Src/stm32l4xx_hal_dfsdm.c ****   * @param  hdma DMA handle.
3269:Drivers/STM32L4xx_HAL_Driver/Src/stm32l4xx_hal_dfsdm.c ****   * @retval None
3270:Drivers/STM32L4xx_HAL_Driver/Src/stm32l4xx_hal_dfsdm.c ****   */
3271:Drivers/STM32L4xx_HAL_Driver/Src/stm32l4xx_hal_dfsdm.c **** static void DFSDM_DMAInjectedHalfConvCplt(DMA_HandleTypeDef *hdma)
3272:Drivers/STM32L4xx_HAL_Driver/Src/stm32l4xx_hal_dfsdm.c **** {
 5915              		.loc 1 3272 1
 5916              		.cfi_startproc
 5917              		@ args = 0, pretend = 0, frame = 16
 5918              		@ frame_needed = 1, uses_anonymous_args = 0
 5919 0000 80B5     		push	{r7, lr}
 5920              		.cfi_def_cfa_offset 8
 5921              		.cfi_offset 7, -8
 5922              		.cfi_offset 14, -4
 5923 0002 84B0     		sub	sp, sp, #16
 5924              		.cfi_def_cfa_offset 24
 5925 0004 00AF     		add	r7, sp, #0
 5926              		.cfi_def_cfa_register 7
 5927 0006 7860     		str	r0, [r7, #4]
3273:Drivers/STM32L4xx_HAL_Driver/Src/stm32l4xx_hal_dfsdm.c ****   /* Get DFSDM filter handle */
3274:Drivers/STM32L4xx_HAL_Driver/Src/stm32l4xx_hal_dfsdm.c ****   DFSDM_Filter_HandleTypeDef *hdfsdm_filter = (DFSDM_Filter_HandleTypeDef *)((DMA_HandleTypeDef *)h
 5928              		.loc 1 3274 31
 5929 0008 7B68     		ldr	r3, [r7, #4]
 5930 000a 9B6A     		ldr	r3, [r3, #40]
 5931 000c FB60     		str	r3, [r7, #12]
3275:Drivers/STM32L4xx_HAL_Driver/Src/stm32l4xx_hal_dfsdm.c **** 
3276:Drivers/STM32L4xx_HAL_Driver/Src/stm32l4xx_hal_dfsdm.c ****   /* Call injected half conversion complete callback */
3277:Drivers/STM32L4xx_HAL_Driver/Src/stm32l4xx_hal_dfsdm.c **** #if (USE_HAL_DFSDM_REGISTER_CALLBACKS == 1)
3278:Drivers/STM32L4xx_HAL_Driver/Src/stm32l4xx_hal_dfsdm.c ****   hdfsdm_filter->InjConvHalfCpltCallback(hdfsdm_filter);
3279:Drivers/STM32L4xx_HAL_Driver/Src/stm32l4xx_hal_dfsdm.c **** #else
3280:Drivers/STM32L4xx_HAL_Driver/Src/stm32l4xx_hal_dfsdm.c ****   HAL_DFSDM_FilterInjConvHalfCpltCallback(hdfsdm_filter);
 5932              		.loc 1 3280 3
 5933 000e F868     		ldr	r0, [r7, #12]
 5934 0010 FFF7FEFF 		bl	HAL_DFSDM_FilterInjConvHalfCpltCallback
3281:Drivers/STM32L4xx_HAL_Driver/Src/stm32l4xx_hal_dfsdm.c **** #endif
3282:Drivers/STM32L4xx_HAL_Driver/Src/stm32l4xx_hal_dfsdm.c **** }
 5935              		.loc 1 3282 1
 5936 0014 00BF     		nop
 5937 0016 1037     		adds	r7, r7, #16
ARM GAS  /tmp/ccrDNuCE.s 			page 163


 5938              		.cfi_def_cfa_offset 8
 5939 0018 BD46     		mov	sp, r7
 5940              		.cfi_def_cfa_register 13
 5941              		@ sp needed
 5942 001a 80BD     		pop	{r7, pc}
 5943              		.cfi_endproc
 5944              	.LFE506:
 5946              		.section	.text.DFSDM_DMAInjectedConvCplt,"ax",%progbits
 5947              		.align	1
 5948              		.syntax unified
 5949              		.thumb
 5950              		.thumb_func
 5952              	DFSDM_DMAInjectedConvCplt:
 5953              	.LFB507:
3283:Drivers/STM32L4xx_HAL_Driver/Src/stm32l4xx_hal_dfsdm.c **** 
3284:Drivers/STM32L4xx_HAL_Driver/Src/stm32l4xx_hal_dfsdm.c **** /**
3285:Drivers/STM32L4xx_HAL_Driver/Src/stm32l4xx_hal_dfsdm.c ****   * @brief  DMA transfer complete callback for injected conversion.
3286:Drivers/STM32L4xx_HAL_Driver/Src/stm32l4xx_hal_dfsdm.c ****   * @param  hdma DMA handle.
3287:Drivers/STM32L4xx_HAL_Driver/Src/stm32l4xx_hal_dfsdm.c ****   * @retval None
3288:Drivers/STM32L4xx_HAL_Driver/Src/stm32l4xx_hal_dfsdm.c ****   */
3289:Drivers/STM32L4xx_HAL_Driver/Src/stm32l4xx_hal_dfsdm.c **** static void DFSDM_DMAInjectedConvCplt(DMA_HandleTypeDef *hdma)
3290:Drivers/STM32L4xx_HAL_Driver/Src/stm32l4xx_hal_dfsdm.c **** {
 5954              		.loc 1 3290 1
 5955              		.cfi_startproc
 5956              		@ args = 0, pretend = 0, frame = 16
 5957              		@ frame_needed = 1, uses_anonymous_args = 0
 5958 0000 80B5     		push	{r7, lr}
 5959              		.cfi_def_cfa_offset 8
 5960              		.cfi_offset 7, -8
 5961              		.cfi_offset 14, -4
 5962 0002 84B0     		sub	sp, sp, #16
 5963              		.cfi_def_cfa_offset 24
 5964 0004 00AF     		add	r7, sp, #0
 5965              		.cfi_def_cfa_register 7
 5966 0006 7860     		str	r0, [r7, #4]
3291:Drivers/STM32L4xx_HAL_Driver/Src/stm32l4xx_hal_dfsdm.c ****   /* Get DFSDM filter handle */
3292:Drivers/STM32L4xx_HAL_Driver/Src/stm32l4xx_hal_dfsdm.c ****   DFSDM_Filter_HandleTypeDef *hdfsdm_filter = (DFSDM_Filter_HandleTypeDef *)((DMA_HandleTypeDef *)h
 5967              		.loc 1 3292 31
 5968 0008 7B68     		ldr	r3, [r7, #4]
 5969 000a 9B6A     		ldr	r3, [r3, #40]
 5970 000c FB60     		str	r3, [r7, #12]
3293:Drivers/STM32L4xx_HAL_Driver/Src/stm32l4xx_hal_dfsdm.c **** 
3294:Drivers/STM32L4xx_HAL_Driver/Src/stm32l4xx_hal_dfsdm.c ****   /* Call injected conversion complete callback */
3295:Drivers/STM32L4xx_HAL_Driver/Src/stm32l4xx_hal_dfsdm.c **** #if (USE_HAL_DFSDM_REGISTER_CALLBACKS == 1)
3296:Drivers/STM32L4xx_HAL_Driver/Src/stm32l4xx_hal_dfsdm.c ****   hdfsdm_filter->InjConvCpltCallback(hdfsdm_filter);
3297:Drivers/STM32L4xx_HAL_Driver/Src/stm32l4xx_hal_dfsdm.c **** #else
3298:Drivers/STM32L4xx_HAL_Driver/Src/stm32l4xx_hal_dfsdm.c ****   HAL_DFSDM_FilterInjConvCpltCallback(hdfsdm_filter);
 5971              		.loc 1 3298 3
 5972 000e F868     		ldr	r0, [r7, #12]
 5973 0010 FFF7FEFF 		bl	HAL_DFSDM_FilterInjConvCpltCallback
3299:Drivers/STM32L4xx_HAL_Driver/Src/stm32l4xx_hal_dfsdm.c **** #endif
3300:Drivers/STM32L4xx_HAL_Driver/Src/stm32l4xx_hal_dfsdm.c **** }
 5974              		.loc 1 3300 1
 5975 0014 00BF     		nop
 5976 0016 1037     		adds	r7, r7, #16
 5977              		.cfi_def_cfa_offset 8
 5978 0018 BD46     		mov	sp, r7
ARM GAS  /tmp/ccrDNuCE.s 			page 164


 5979              		.cfi_def_cfa_register 13
 5980              		@ sp needed
 5981 001a 80BD     		pop	{r7, pc}
 5982              		.cfi_endproc
 5983              	.LFE507:
 5985              		.section	.text.DFSDM_DMAError,"ax",%progbits
 5986              		.align	1
 5987              		.syntax unified
 5988              		.thumb
 5989              		.thumb_func
 5991              	DFSDM_DMAError:
 5992              	.LFB508:
3301:Drivers/STM32L4xx_HAL_Driver/Src/stm32l4xx_hal_dfsdm.c **** 
3302:Drivers/STM32L4xx_HAL_Driver/Src/stm32l4xx_hal_dfsdm.c **** /**
3303:Drivers/STM32L4xx_HAL_Driver/Src/stm32l4xx_hal_dfsdm.c ****   * @brief  DMA error callback.
3304:Drivers/STM32L4xx_HAL_Driver/Src/stm32l4xx_hal_dfsdm.c ****   * @param  hdma DMA handle.
3305:Drivers/STM32L4xx_HAL_Driver/Src/stm32l4xx_hal_dfsdm.c ****   * @retval None
3306:Drivers/STM32L4xx_HAL_Driver/Src/stm32l4xx_hal_dfsdm.c ****   */
3307:Drivers/STM32L4xx_HAL_Driver/Src/stm32l4xx_hal_dfsdm.c **** static void DFSDM_DMAError(DMA_HandleTypeDef *hdma)
3308:Drivers/STM32L4xx_HAL_Driver/Src/stm32l4xx_hal_dfsdm.c **** {
 5993              		.loc 1 3308 1
 5994              		.cfi_startproc
 5995              		@ args = 0, pretend = 0, frame = 16
 5996              		@ frame_needed = 1, uses_anonymous_args = 0
 5997 0000 80B5     		push	{r7, lr}
 5998              		.cfi_def_cfa_offset 8
 5999              		.cfi_offset 7, -8
 6000              		.cfi_offset 14, -4
 6001 0002 84B0     		sub	sp, sp, #16
 6002              		.cfi_def_cfa_offset 24
 6003 0004 00AF     		add	r7, sp, #0
 6004              		.cfi_def_cfa_register 7
 6005 0006 7860     		str	r0, [r7, #4]
3309:Drivers/STM32L4xx_HAL_Driver/Src/stm32l4xx_hal_dfsdm.c ****   /* Get DFSDM filter handle */
3310:Drivers/STM32L4xx_HAL_Driver/Src/stm32l4xx_hal_dfsdm.c ****   DFSDM_Filter_HandleTypeDef *hdfsdm_filter = (DFSDM_Filter_HandleTypeDef *)((DMA_HandleTypeDef *)h
 6006              		.loc 1 3310 31
 6007 0008 7B68     		ldr	r3, [r7, #4]
 6008 000a 9B6A     		ldr	r3, [r3, #40]
 6009 000c FB60     		str	r3, [r7, #12]
3311:Drivers/STM32L4xx_HAL_Driver/Src/stm32l4xx_hal_dfsdm.c **** 
3312:Drivers/STM32L4xx_HAL_Driver/Src/stm32l4xx_hal_dfsdm.c ****   /* Update error code */
3313:Drivers/STM32L4xx_HAL_Driver/Src/stm32l4xx_hal_dfsdm.c ****   hdfsdm_filter->ErrorCode = DFSDM_FILTER_ERROR_DMA;
 6010              		.loc 1 3313 28
 6011 000e FB68     		ldr	r3, [r7, #12]
 6012 0010 0322     		movs	r2, #3
 6013 0012 1A65     		str	r2, [r3, #80]
3314:Drivers/STM32L4xx_HAL_Driver/Src/stm32l4xx_hal_dfsdm.c **** 
3315:Drivers/STM32L4xx_HAL_Driver/Src/stm32l4xx_hal_dfsdm.c ****   /* Call error callback */
3316:Drivers/STM32L4xx_HAL_Driver/Src/stm32l4xx_hal_dfsdm.c **** #if (USE_HAL_DFSDM_REGISTER_CALLBACKS == 1)
3317:Drivers/STM32L4xx_HAL_Driver/Src/stm32l4xx_hal_dfsdm.c ****   hdfsdm_filter->ErrorCallback(hdfsdm_filter);
3318:Drivers/STM32L4xx_HAL_Driver/Src/stm32l4xx_hal_dfsdm.c **** #else
3319:Drivers/STM32L4xx_HAL_Driver/Src/stm32l4xx_hal_dfsdm.c ****   HAL_DFSDM_FilterErrorCallback(hdfsdm_filter);
 6014              		.loc 1 3319 3
 6015 0014 F868     		ldr	r0, [r7, #12]
 6016 0016 FFF7FEFF 		bl	HAL_DFSDM_FilterErrorCallback
3320:Drivers/STM32L4xx_HAL_Driver/Src/stm32l4xx_hal_dfsdm.c **** #endif
3321:Drivers/STM32L4xx_HAL_Driver/Src/stm32l4xx_hal_dfsdm.c **** }
ARM GAS  /tmp/ccrDNuCE.s 			page 165


 6017              		.loc 1 3321 1
 6018 001a 00BF     		nop
 6019 001c 1037     		adds	r7, r7, #16
 6020              		.cfi_def_cfa_offset 8
 6021 001e BD46     		mov	sp, r7
 6022              		.cfi_def_cfa_register 13
 6023              		@ sp needed
 6024 0020 80BD     		pop	{r7, pc}
 6025              		.cfi_endproc
 6026              	.LFE508:
 6028              		.section	.text.DFSDM_GetInjChannelsNbr,"ax",%progbits
 6029              		.align	1
 6030              		.syntax unified
 6031              		.thumb
 6032              		.thumb_func
 6034              	DFSDM_GetInjChannelsNbr:
 6035              	.LFB509:
3322:Drivers/STM32L4xx_HAL_Driver/Src/stm32l4xx_hal_dfsdm.c **** 
3323:Drivers/STM32L4xx_HAL_Driver/Src/stm32l4xx_hal_dfsdm.c **** /**
3324:Drivers/STM32L4xx_HAL_Driver/Src/stm32l4xx_hal_dfsdm.c ****   * @brief  This function allows to get the number of injected channels.
3325:Drivers/STM32L4xx_HAL_Driver/Src/stm32l4xx_hal_dfsdm.c ****   * @param  Channels bitfield of injected channels.
3326:Drivers/STM32L4xx_HAL_Driver/Src/stm32l4xx_hal_dfsdm.c ****   * @retval Number of injected channels.
3327:Drivers/STM32L4xx_HAL_Driver/Src/stm32l4xx_hal_dfsdm.c ****   */
3328:Drivers/STM32L4xx_HAL_Driver/Src/stm32l4xx_hal_dfsdm.c **** static uint32_t DFSDM_GetInjChannelsNbr(uint32_t Channels)
3329:Drivers/STM32L4xx_HAL_Driver/Src/stm32l4xx_hal_dfsdm.c **** {
 6036              		.loc 1 3329 1
 6037              		.cfi_startproc
 6038              		@ args = 0, pretend = 0, frame = 16
 6039              		@ frame_needed = 1, uses_anonymous_args = 0
 6040              		@ link register save eliminated.
 6041 0000 80B4     		push	{r7}
 6042              		.cfi_def_cfa_offset 4
 6043              		.cfi_offset 7, -4
 6044 0002 85B0     		sub	sp, sp, #20
 6045              		.cfi_def_cfa_offset 24
 6046 0004 00AF     		add	r7, sp, #0
 6047              		.cfi_def_cfa_register 7
 6048 0006 7860     		str	r0, [r7, #4]
3330:Drivers/STM32L4xx_HAL_Driver/Src/stm32l4xx_hal_dfsdm.c ****   uint32_t nbChannels = 0;
 6049              		.loc 1 3330 12
 6050 0008 0023     		movs	r3, #0
 6051 000a FB60     		str	r3, [r7, #12]
3331:Drivers/STM32L4xx_HAL_Driver/Src/stm32l4xx_hal_dfsdm.c ****   uint32_t tmp;
3332:Drivers/STM32L4xx_HAL_Driver/Src/stm32l4xx_hal_dfsdm.c **** 
3333:Drivers/STM32L4xx_HAL_Driver/Src/stm32l4xx_hal_dfsdm.c ****   /* Get the number of channels from bitfield */
3334:Drivers/STM32L4xx_HAL_Driver/Src/stm32l4xx_hal_dfsdm.c ****   tmp = (uint32_t)(Channels & DFSDM_LSB_MASK);
 6052              		.loc 1 3334 7
 6053 000c 7B68     		ldr	r3, [r7, #4]
 6054 000e 9BB2     		uxth	r3, r3
 6055 0010 BB60     		str	r3, [r7, #8]
3335:Drivers/STM32L4xx_HAL_Driver/Src/stm32l4xx_hal_dfsdm.c ****   while (tmp != 0U)
 6056              		.loc 1 3335 9
 6057 0012 0AE0     		b	.L349
 6058              	.L351:
3336:Drivers/STM32L4xx_HAL_Driver/Src/stm32l4xx_hal_dfsdm.c ****   {
3337:Drivers/STM32L4xx_HAL_Driver/Src/stm32l4xx_hal_dfsdm.c ****     if ((tmp & 1U) != 0U)
 6059              		.loc 1 3337 14
ARM GAS  /tmp/ccrDNuCE.s 			page 166


 6060 0014 BB68     		ldr	r3, [r7, #8]
 6061 0016 03F00103 		and	r3, r3, #1
 6062              		.loc 1 3337 8
 6063 001a 002B     		cmp	r3, #0
 6064 001c 02D0     		beq	.L350
3338:Drivers/STM32L4xx_HAL_Driver/Src/stm32l4xx_hal_dfsdm.c ****     {
3339:Drivers/STM32L4xx_HAL_Driver/Src/stm32l4xx_hal_dfsdm.c ****       nbChannels++;
 6065              		.loc 1 3339 17
 6066 001e FB68     		ldr	r3, [r7, #12]
 6067 0020 0133     		adds	r3, r3, #1
 6068 0022 FB60     		str	r3, [r7, #12]
 6069              	.L350:
3340:Drivers/STM32L4xx_HAL_Driver/Src/stm32l4xx_hal_dfsdm.c ****     }
3341:Drivers/STM32L4xx_HAL_Driver/Src/stm32l4xx_hal_dfsdm.c ****     tmp = (uint32_t)(tmp >> 1);
 6070              		.loc 1 3341 9
 6071 0024 BB68     		ldr	r3, [r7, #8]
 6072 0026 5B08     		lsrs	r3, r3, #1
 6073 0028 BB60     		str	r3, [r7, #8]
 6074              	.L349:
3335:Drivers/STM32L4xx_HAL_Driver/Src/stm32l4xx_hal_dfsdm.c ****   {
 6075              		.loc 1 3335 14
 6076 002a BB68     		ldr	r3, [r7, #8]
 6077 002c 002B     		cmp	r3, #0
 6078 002e F1D1     		bne	.L351
3342:Drivers/STM32L4xx_HAL_Driver/Src/stm32l4xx_hal_dfsdm.c ****   }
3343:Drivers/STM32L4xx_HAL_Driver/Src/stm32l4xx_hal_dfsdm.c ****   return nbChannels;
 6079              		.loc 1 3343 10
 6080 0030 FB68     		ldr	r3, [r7, #12]
3344:Drivers/STM32L4xx_HAL_Driver/Src/stm32l4xx_hal_dfsdm.c **** }
 6081              		.loc 1 3344 1
 6082 0032 1846     		mov	r0, r3
 6083 0034 1437     		adds	r7, r7, #20
 6084              		.cfi_def_cfa_offset 4
 6085 0036 BD46     		mov	sp, r7
 6086              		.cfi_def_cfa_register 13
 6087              		@ sp needed
 6088 0038 5DF8047B 		ldr	r7, [sp], #4
 6089              		.cfi_restore 7
 6090              		.cfi_def_cfa_offset 0
 6091 003c 7047     		bx	lr
 6092              		.cfi_endproc
 6093              	.LFE509:
 6095              		.section	.text.DFSDM_GetChannelFromInstance,"ax",%progbits
 6096              		.align	1
 6097              		.syntax unified
 6098              		.thumb
 6099              		.thumb_func
 6101              	DFSDM_GetChannelFromInstance:
 6102              	.LFB510:
3345:Drivers/STM32L4xx_HAL_Driver/Src/stm32l4xx_hal_dfsdm.c **** 
3346:Drivers/STM32L4xx_HAL_Driver/Src/stm32l4xx_hal_dfsdm.c **** /**
3347:Drivers/STM32L4xx_HAL_Driver/Src/stm32l4xx_hal_dfsdm.c ****   * @brief  This function allows to get the channel number from channel instance.
3348:Drivers/STM32L4xx_HAL_Driver/Src/stm32l4xx_hal_dfsdm.c ****   * @param  Instance DFSDM channel instance.
3349:Drivers/STM32L4xx_HAL_Driver/Src/stm32l4xx_hal_dfsdm.c ****   * @retval Channel number.
3350:Drivers/STM32L4xx_HAL_Driver/Src/stm32l4xx_hal_dfsdm.c ****   */
3351:Drivers/STM32L4xx_HAL_Driver/Src/stm32l4xx_hal_dfsdm.c **** static uint32_t DFSDM_GetChannelFromInstance(const DFSDM_Channel_TypeDef *Instance)
3352:Drivers/STM32L4xx_HAL_Driver/Src/stm32l4xx_hal_dfsdm.c **** {
ARM GAS  /tmp/ccrDNuCE.s 			page 167


 6103              		.loc 1 3352 1
 6104              		.cfi_startproc
 6105              		@ args = 0, pretend = 0, frame = 16
 6106              		@ frame_needed = 1, uses_anonymous_args = 0
 6107              		@ link register save eliminated.
 6108 0000 80B4     		push	{r7}
 6109              		.cfi_def_cfa_offset 4
 6110              		.cfi_offset 7, -4
 6111 0002 85B0     		sub	sp, sp, #20
 6112              		.cfi_def_cfa_offset 24
 6113 0004 00AF     		add	r7, sp, #0
 6114              		.cfi_def_cfa_register 7
 6115 0006 7860     		str	r0, [r7, #4]
3353:Drivers/STM32L4xx_HAL_Driver/Src/stm32l4xx_hal_dfsdm.c ****   uint32_t channel;
3354:Drivers/STM32L4xx_HAL_Driver/Src/stm32l4xx_hal_dfsdm.c **** 
3355:Drivers/STM32L4xx_HAL_Driver/Src/stm32l4xx_hal_dfsdm.c ****   /* Get channel from instance */
3356:Drivers/STM32L4xx_HAL_Driver/Src/stm32l4xx_hal_dfsdm.c ****   if (Instance == DFSDM1_Channel0)
 6116              		.loc 1 3356 6
 6117 0008 7B68     		ldr	r3, [r7, #4]
 6118 000a 1C4A     		ldr	r2, .L363
 6119 000c 9342     		cmp	r3, r2
 6120 000e 02D1     		bne	.L354
3357:Drivers/STM32L4xx_HAL_Driver/Src/stm32l4xx_hal_dfsdm.c ****   {
3358:Drivers/STM32L4xx_HAL_Driver/Src/stm32l4xx_hal_dfsdm.c ****     channel = 0;
 6121              		.loc 1 3358 13
 6122 0010 0023     		movs	r3, #0
 6123 0012 FB60     		str	r3, [r7, #12]
 6124 0014 2BE0     		b	.L355
 6125              	.L354:
3359:Drivers/STM32L4xx_HAL_Driver/Src/stm32l4xx_hal_dfsdm.c ****   }
3360:Drivers/STM32L4xx_HAL_Driver/Src/stm32l4xx_hal_dfsdm.c ****   else if (Instance == DFSDM1_Channel1)
 6126              		.loc 1 3360 11
 6127 0016 7B68     		ldr	r3, [r7, #4]
 6128 0018 194A     		ldr	r2, .L363+4
 6129 001a 9342     		cmp	r3, r2
 6130 001c 02D1     		bne	.L356
3361:Drivers/STM32L4xx_HAL_Driver/Src/stm32l4xx_hal_dfsdm.c ****   {
3362:Drivers/STM32L4xx_HAL_Driver/Src/stm32l4xx_hal_dfsdm.c ****     channel = 1;
 6131              		.loc 1 3362 13
 6132 001e 0123     		movs	r3, #1
 6133 0020 FB60     		str	r3, [r7, #12]
 6134 0022 24E0     		b	.L355
 6135              	.L356:
3363:Drivers/STM32L4xx_HAL_Driver/Src/stm32l4xx_hal_dfsdm.c ****   }
3364:Drivers/STM32L4xx_HAL_Driver/Src/stm32l4xx_hal_dfsdm.c ****   else if (Instance == DFSDM1_Channel2)
 6136              		.loc 1 3364 11
 6137 0024 7B68     		ldr	r3, [r7, #4]
 6138 0026 174A     		ldr	r2, .L363+8
 6139 0028 9342     		cmp	r3, r2
 6140 002a 02D1     		bne	.L357
3365:Drivers/STM32L4xx_HAL_Driver/Src/stm32l4xx_hal_dfsdm.c ****   {
3366:Drivers/STM32L4xx_HAL_Driver/Src/stm32l4xx_hal_dfsdm.c ****     channel = 2;
 6141              		.loc 1 3366 13
 6142 002c 0223     		movs	r3, #2
 6143 002e FB60     		str	r3, [r7, #12]
 6144 0030 1DE0     		b	.L355
 6145              	.L357:
ARM GAS  /tmp/ccrDNuCE.s 			page 168


3367:Drivers/STM32L4xx_HAL_Driver/Src/stm32l4xx_hal_dfsdm.c ****   }
3368:Drivers/STM32L4xx_HAL_Driver/Src/stm32l4xx_hal_dfsdm.c **** #if defined(STM32L471xx) || defined(STM32L475xx) || defined(STM32L476xx) || defined(STM32L485xx) ||
3369:Drivers/STM32L4xx_HAL_Driver/Src/stm32l4xx_hal_dfsdm.c ****     defined(STM32L496xx) || defined(STM32L4A6xx) || \
3370:Drivers/STM32L4xx_HAL_Driver/Src/stm32l4xx_hal_dfsdm.c ****     defined(STM32L4R5xx) || defined(STM32L4R7xx) || defined(STM32L4R9xx) || defined(STM32L4S5xx) ||
3371:Drivers/STM32L4xx_HAL_Driver/Src/stm32l4xx_hal_dfsdm.c ****   else if (Instance == DFSDM1_Channel4)
 6146              		.loc 1 3371 11
 6147 0032 7B68     		ldr	r3, [r7, #4]
 6148 0034 144A     		ldr	r2, .L363+12
 6149 0036 9342     		cmp	r3, r2
 6150 0038 02D1     		bne	.L358
3372:Drivers/STM32L4xx_HAL_Driver/Src/stm32l4xx_hal_dfsdm.c ****   {
3373:Drivers/STM32L4xx_HAL_Driver/Src/stm32l4xx_hal_dfsdm.c ****     channel = 4;
 6151              		.loc 1 3373 13
 6152 003a 0423     		movs	r3, #4
 6153 003c FB60     		str	r3, [r7, #12]
 6154 003e 16E0     		b	.L355
 6155              	.L358:
3374:Drivers/STM32L4xx_HAL_Driver/Src/stm32l4xx_hal_dfsdm.c ****   }
3375:Drivers/STM32L4xx_HAL_Driver/Src/stm32l4xx_hal_dfsdm.c ****   else if (Instance == DFSDM1_Channel5)
 6156              		.loc 1 3375 11
 6157 0040 7B68     		ldr	r3, [r7, #4]
 6158 0042 124A     		ldr	r2, .L363+16
 6159 0044 9342     		cmp	r3, r2
 6160 0046 02D1     		bne	.L359
3376:Drivers/STM32L4xx_HAL_Driver/Src/stm32l4xx_hal_dfsdm.c ****   {
3377:Drivers/STM32L4xx_HAL_Driver/Src/stm32l4xx_hal_dfsdm.c ****     channel = 5;
 6161              		.loc 1 3377 13
 6162 0048 0523     		movs	r3, #5
 6163 004a FB60     		str	r3, [r7, #12]
 6164 004c 0FE0     		b	.L355
 6165              	.L359:
3378:Drivers/STM32L4xx_HAL_Driver/Src/stm32l4xx_hal_dfsdm.c ****   }
3379:Drivers/STM32L4xx_HAL_Driver/Src/stm32l4xx_hal_dfsdm.c ****   else if (Instance == DFSDM1_Channel6)
 6166              		.loc 1 3379 11
 6167 004e 7B68     		ldr	r3, [r7, #4]
 6168 0050 0F4A     		ldr	r2, .L363+20
 6169 0052 9342     		cmp	r3, r2
 6170 0054 02D1     		bne	.L360
3380:Drivers/STM32L4xx_HAL_Driver/Src/stm32l4xx_hal_dfsdm.c ****   {
3381:Drivers/STM32L4xx_HAL_Driver/Src/stm32l4xx_hal_dfsdm.c ****     channel = 6;
 6171              		.loc 1 3381 13
 6172 0056 0623     		movs	r3, #6
 6173 0058 FB60     		str	r3, [r7, #12]
 6174 005a 08E0     		b	.L355
 6175              	.L360:
3382:Drivers/STM32L4xx_HAL_Driver/Src/stm32l4xx_hal_dfsdm.c ****   }
3383:Drivers/STM32L4xx_HAL_Driver/Src/stm32l4xx_hal_dfsdm.c ****   else if (Instance == DFSDM1_Channel7)
 6176              		.loc 1 3383 11
 6177 005c 7B68     		ldr	r3, [r7, #4]
 6178 005e 0D4A     		ldr	r2, .L363+24
 6179 0060 9342     		cmp	r3, r2
 6180 0062 02D1     		bne	.L361
3384:Drivers/STM32L4xx_HAL_Driver/Src/stm32l4xx_hal_dfsdm.c ****   {
3385:Drivers/STM32L4xx_HAL_Driver/Src/stm32l4xx_hal_dfsdm.c ****     channel = 7;
 6181              		.loc 1 3385 13
 6182 0064 0723     		movs	r3, #7
 6183 0066 FB60     		str	r3, [r7, #12]
ARM GAS  /tmp/ccrDNuCE.s 			page 169


 6184 0068 01E0     		b	.L355
 6185              	.L361:
3386:Drivers/STM32L4xx_HAL_Driver/Src/stm32l4xx_hal_dfsdm.c ****   }
3387:Drivers/STM32L4xx_HAL_Driver/Src/stm32l4xx_hal_dfsdm.c **** #endif /* STM32L471xx || STM32L475xx || STM32L476xx || STM32L485xx || STM32L486xx || STM32L496xx ||
3388:Drivers/STM32L4xx_HAL_Driver/Src/stm32l4xx_hal_dfsdm.c ****   else /* DFSDM1_Channel3 */
3389:Drivers/STM32L4xx_HAL_Driver/Src/stm32l4xx_hal_dfsdm.c ****   {
3390:Drivers/STM32L4xx_HAL_Driver/Src/stm32l4xx_hal_dfsdm.c ****     channel = 3;
 6186              		.loc 1 3390 13
 6187 006a 0323     		movs	r3, #3
 6188 006c FB60     		str	r3, [r7, #12]
 6189              	.L355:
3391:Drivers/STM32L4xx_HAL_Driver/Src/stm32l4xx_hal_dfsdm.c ****   }
3392:Drivers/STM32L4xx_HAL_Driver/Src/stm32l4xx_hal_dfsdm.c **** 
3393:Drivers/STM32L4xx_HAL_Driver/Src/stm32l4xx_hal_dfsdm.c ****   return channel;
 6190              		.loc 1 3393 10
 6191 006e FB68     		ldr	r3, [r7, #12]
3394:Drivers/STM32L4xx_HAL_Driver/Src/stm32l4xx_hal_dfsdm.c **** }
 6192              		.loc 1 3394 1
 6193 0070 1846     		mov	r0, r3
 6194 0072 1437     		adds	r7, r7, #20
 6195              		.cfi_def_cfa_offset 4
 6196 0074 BD46     		mov	sp, r7
 6197              		.cfi_def_cfa_register 13
 6198              		@ sp needed
 6199 0076 5DF8047B 		ldr	r7, [sp], #4
 6200              		.cfi_restore 7
 6201              		.cfi_def_cfa_offset 0
 6202 007a 7047     		bx	lr
 6203              	.L364:
 6204              		.align	2
 6205              	.L363:
 6206 007c 00600140 		.word	1073831936
 6207 0080 20600140 		.word	1073831968
 6208 0084 40600140 		.word	1073832000
 6209 0088 80600140 		.word	1073832064
 6210 008c A0600140 		.word	1073832096
 6211 0090 C0600140 		.word	1073832128
 6212 0094 E0600140 		.word	1073832160
 6213              		.cfi_endproc
 6214              	.LFE510:
 6216              		.section	.text.DFSDM_RegConvStart,"ax",%progbits
 6217              		.align	1
 6218              		.syntax unified
 6219              		.thumb
 6220              		.thumb_func
 6222              	DFSDM_RegConvStart:
 6223              	.LFB511:
3395:Drivers/STM32L4xx_HAL_Driver/Src/stm32l4xx_hal_dfsdm.c **** 
3396:Drivers/STM32L4xx_HAL_Driver/Src/stm32l4xx_hal_dfsdm.c **** /**
3397:Drivers/STM32L4xx_HAL_Driver/Src/stm32l4xx_hal_dfsdm.c ****   * @brief  This function allows to really start regular conversion.
3398:Drivers/STM32L4xx_HAL_Driver/Src/stm32l4xx_hal_dfsdm.c ****   * @param  hdfsdm_filter DFSDM filter handle.
3399:Drivers/STM32L4xx_HAL_Driver/Src/stm32l4xx_hal_dfsdm.c ****   * @retval None
3400:Drivers/STM32L4xx_HAL_Driver/Src/stm32l4xx_hal_dfsdm.c ****   */
3401:Drivers/STM32L4xx_HAL_Driver/Src/stm32l4xx_hal_dfsdm.c **** static void DFSDM_RegConvStart(DFSDM_Filter_HandleTypeDef *hdfsdm_filter)
3402:Drivers/STM32L4xx_HAL_Driver/Src/stm32l4xx_hal_dfsdm.c **** {
 6224              		.loc 1 3402 1
 6225              		.cfi_startproc
ARM GAS  /tmp/ccrDNuCE.s 			page 170


 6226              		@ args = 0, pretend = 0, frame = 8
 6227              		@ frame_needed = 1, uses_anonymous_args = 0
 6228              		@ link register save eliminated.
 6229 0000 80B4     		push	{r7}
 6230              		.cfi_def_cfa_offset 4
 6231              		.cfi_offset 7, -4
 6232 0002 83B0     		sub	sp, sp, #12
 6233              		.cfi_def_cfa_offset 16
 6234 0004 00AF     		add	r7, sp, #0
 6235              		.cfi_def_cfa_register 7
 6236 0006 7860     		str	r0, [r7, #4]
3403:Drivers/STM32L4xx_HAL_Driver/Src/stm32l4xx_hal_dfsdm.c ****   /* Check regular trigger */
3404:Drivers/STM32L4xx_HAL_Driver/Src/stm32l4xx_hal_dfsdm.c ****   if (hdfsdm_filter->RegularTrigger == DFSDM_FILTER_SW_TRIGGER)
 6237              		.loc 1 3404 20
 6238 0008 7B68     		ldr	r3, [r7, #4]
 6239 000a 5B6B     		ldr	r3, [r3, #52]
 6240              		.loc 1 3404 6
 6241 000c 002B     		cmp	r3, #0
 6242 000e 08D1     		bne	.L366
3405:Drivers/STM32L4xx_HAL_Driver/Src/stm32l4xx_hal_dfsdm.c ****   {
3406:Drivers/STM32L4xx_HAL_Driver/Src/stm32l4xx_hal_dfsdm.c ****     /* Software start of regular conversion */
3407:Drivers/STM32L4xx_HAL_Driver/Src/stm32l4xx_hal_dfsdm.c ****     hdfsdm_filter->Instance->FLTCR1 |= DFSDM_FLTCR1_RSWSTART;
 6243              		.loc 1 3407 18
 6244 0010 7B68     		ldr	r3, [r7, #4]
 6245 0012 1B68     		ldr	r3, [r3]
 6246              		.loc 1 3407 28
 6247 0014 1A68     		ldr	r2, [r3]
 6248              		.loc 1 3407 18
 6249 0016 7B68     		ldr	r3, [r7, #4]
 6250 0018 1B68     		ldr	r3, [r3]
 6251              		.loc 1 3407 37
 6252 001a 42F40032 		orr	r2, r2, #131072
 6253 001e 1A60     		str	r2, [r3]
 6254 0020 33E0     		b	.L367
 6255              	.L366:
3408:Drivers/STM32L4xx_HAL_Driver/Src/stm32l4xx_hal_dfsdm.c ****   }
3409:Drivers/STM32L4xx_HAL_Driver/Src/stm32l4xx_hal_dfsdm.c ****   else /* synchronous trigger */
3410:Drivers/STM32L4xx_HAL_Driver/Src/stm32l4xx_hal_dfsdm.c ****   {
3411:Drivers/STM32L4xx_HAL_Driver/Src/stm32l4xx_hal_dfsdm.c ****     /* Disable DFSDM filter */
3412:Drivers/STM32L4xx_HAL_Driver/Src/stm32l4xx_hal_dfsdm.c ****     hdfsdm_filter->Instance->FLTCR1 &= ~(DFSDM_FLTCR1_DFEN);
 6256              		.loc 1 3412 18
 6257 0022 7B68     		ldr	r3, [r7, #4]
 6258 0024 1B68     		ldr	r3, [r3]
 6259              		.loc 1 3412 28
 6260 0026 1A68     		ldr	r2, [r3]
 6261              		.loc 1 3412 18
 6262 0028 7B68     		ldr	r3, [r7, #4]
 6263 002a 1B68     		ldr	r3, [r3]
 6264              		.loc 1 3412 37
 6265 002c 22F00102 		bic	r2, r2, #1
 6266 0030 1A60     		str	r2, [r3]
3413:Drivers/STM32L4xx_HAL_Driver/Src/stm32l4xx_hal_dfsdm.c **** 
3414:Drivers/STM32L4xx_HAL_Driver/Src/stm32l4xx_hal_dfsdm.c ****     /* Set RSYNC bit in DFSDM_FLTCR1 register */
3415:Drivers/STM32L4xx_HAL_Driver/Src/stm32l4xx_hal_dfsdm.c ****     hdfsdm_filter->Instance->FLTCR1 |= DFSDM_FLTCR1_RSYNC;
 6267              		.loc 1 3415 18
 6268 0032 7B68     		ldr	r3, [r7, #4]
 6269 0034 1B68     		ldr	r3, [r3]
ARM GAS  /tmp/ccrDNuCE.s 			page 171


 6270              		.loc 1 3415 28
 6271 0036 1A68     		ldr	r2, [r3]
 6272              		.loc 1 3415 18
 6273 0038 7B68     		ldr	r3, [r7, #4]
 6274 003a 1B68     		ldr	r3, [r3]
 6275              		.loc 1 3415 37
 6276 003c 42F40022 		orr	r2, r2, #524288
 6277 0040 1A60     		str	r2, [r3]
3416:Drivers/STM32L4xx_HAL_Driver/Src/stm32l4xx_hal_dfsdm.c **** 
3417:Drivers/STM32L4xx_HAL_Driver/Src/stm32l4xx_hal_dfsdm.c ****     /* Enable DFSDM  filter */
3418:Drivers/STM32L4xx_HAL_Driver/Src/stm32l4xx_hal_dfsdm.c ****     hdfsdm_filter->Instance->FLTCR1 |= DFSDM_FLTCR1_DFEN;
 6278              		.loc 1 3418 18
 6279 0042 7B68     		ldr	r3, [r7, #4]
 6280 0044 1B68     		ldr	r3, [r3]
 6281              		.loc 1 3418 28
 6282 0046 1A68     		ldr	r2, [r3]
 6283              		.loc 1 3418 18
 6284 0048 7B68     		ldr	r3, [r7, #4]
 6285 004a 1B68     		ldr	r3, [r3]
 6286              		.loc 1 3418 37
 6287 004c 42F00102 		orr	r2, r2, #1
 6288 0050 1A60     		str	r2, [r3]
3419:Drivers/STM32L4xx_HAL_Driver/Src/stm32l4xx_hal_dfsdm.c **** 
3420:Drivers/STM32L4xx_HAL_Driver/Src/stm32l4xx_hal_dfsdm.c ****     /* If injected conversion was in progress, restart it */
3421:Drivers/STM32L4xx_HAL_Driver/Src/stm32l4xx_hal_dfsdm.c ****     if (hdfsdm_filter->State == HAL_DFSDM_FILTER_STATE_INJ)
 6289              		.loc 1 3421 22
 6290 0052 7B68     		ldr	r3, [r7, #4]
 6291 0054 93F84C30 		ldrb	r3, [r3, #76]	@ zero_extendqisi2
 6292              		.loc 1 3421 8
 6293 0058 032B     		cmp	r3, #3
 6294 005a 16D1     		bne	.L367
3422:Drivers/STM32L4xx_HAL_Driver/Src/stm32l4xx_hal_dfsdm.c ****     {
3423:Drivers/STM32L4xx_HAL_Driver/Src/stm32l4xx_hal_dfsdm.c ****       if (hdfsdm_filter->InjectedTrigger == DFSDM_FILTER_SW_TRIGGER)
 6295              		.loc 1 3423 24
 6296 005c 7B68     		ldr	r3, [r7, #4]
 6297 005e 9B6B     		ldr	r3, [r3, #56]
 6298              		.loc 1 3423 10
 6299 0060 002B     		cmp	r3, #0
 6300 0062 07D1     		bne	.L368
3424:Drivers/STM32L4xx_HAL_Driver/Src/stm32l4xx_hal_dfsdm.c ****       {
3425:Drivers/STM32L4xx_HAL_Driver/Src/stm32l4xx_hal_dfsdm.c ****         hdfsdm_filter->Instance->FLTCR1 |= DFSDM_FLTCR1_JSWSTART;
 6301              		.loc 1 3425 22
 6302 0064 7B68     		ldr	r3, [r7, #4]
 6303 0066 1B68     		ldr	r3, [r3]
 6304              		.loc 1 3425 32
 6305 0068 1A68     		ldr	r2, [r3]
 6306              		.loc 1 3425 22
 6307 006a 7B68     		ldr	r3, [r7, #4]
 6308 006c 1B68     		ldr	r3, [r3]
 6309              		.loc 1 3425 41
 6310 006e 42F00202 		orr	r2, r2, #2
 6311 0072 1A60     		str	r2, [r3]
 6312              	.L368:
3426:Drivers/STM32L4xx_HAL_Driver/Src/stm32l4xx_hal_dfsdm.c ****       }
3427:Drivers/STM32L4xx_HAL_Driver/Src/stm32l4xx_hal_dfsdm.c ****       /* Update remaining injected conversions */
3428:Drivers/STM32L4xx_HAL_Driver/Src/stm32l4xx_hal_dfsdm.c ****       hdfsdm_filter->InjConvRemaining = (hdfsdm_filter->InjectedScanMode == ENABLE) ? \
 6313              		.loc 1 3428 55
ARM GAS  /tmp/ccrDNuCE.s 			page 172


 6314 0074 7B68     		ldr	r3, [r7, #4]
 6315 0076 93F84030 		ldrb	r3, [r3, #64]	@ zero_extendqisi2
3429:Drivers/STM32L4xx_HAL_Driver/Src/stm32l4xx_hal_dfsdm.c ****                                         hdfsdm_filter->InjectedChannelsNbr : 1U;
 6316              		.loc 1 3429 76
 6317 007a 012B     		cmp	r3, #1
 6318 007c 02D1     		bne	.L369
 6319              		.loc 1 3429 76 is_stmt 0 discriminator 1
 6320 007e 7B68     		ldr	r3, [r7, #4]
 6321 0080 5B6C     		ldr	r3, [r3, #68]
 6322 0082 00E0     		b	.L370
 6323              	.L369:
 6324              		.loc 1 3429 76 discriminator 2
 6325 0084 0123     		movs	r3, #1
 6326              	.L370:
3428:Drivers/STM32L4xx_HAL_Driver/Src/stm32l4xx_hal_dfsdm.c ****                                         hdfsdm_filter->InjectedChannelsNbr : 1U;
 6327              		.loc 1 3428 39 is_stmt 1
 6328 0086 7A68     		ldr	r2, [r7, #4]
 6329 0088 9364     		str	r3, [r2, #72]
 6330              	.L367:
3430:Drivers/STM32L4xx_HAL_Driver/Src/stm32l4xx_hal_dfsdm.c ****     }
3431:Drivers/STM32L4xx_HAL_Driver/Src/stm32l4xx_hal_dfsdm.c ****   }
3432:Drivers/STM32L4xx_HAL_Driver/Src/stm32l4xx_hal_dfsdm.c ****   /* Update DFSDM filter state */
3433:Drivers/STM32L4xx_HAL_Driver/Src/stm32l4xx_hal_dfsdm.c ****   hdfsdm_filter->State = (hdfsdm_filter->State == HAL_DFSDM_FILTER_STATE_READY) ? \
 6331              		.loc 1 3433 40
 6332 008a 7B68     		ldr	r3, [r7, #4]
 6333 008c 93F84C30 		ldrb	r3, [r3, #76]	@ zero_extendqisi2
3434:Drivers/STM32L4xx_HAL_Driver/Src/stm32l4xx_hal_dfsdm.c ****                          HAL_DFSDM_FILTER_STATE_REG : HAL_DFSDM_FILTER_STATE_REG_INJ;
 6334              		.loc 1 3434 53
 6335 0090 012B     		cmp	r3, #1
 6336 0092 01D1     		bne	.L371
 6337              		.loc 1 3434 53 is_stmt 0 discriminator 1
 6338 0094 0222     		movs	r2, #2
 6339 0096 00E0     		b	.L372
 6340              	.L371:
 6341              		.loc 1 3434 53 discriminator 2
 6342 0098 0422     		movs	r2, #4
 6343              	.L372:
3433:Drivers/STM32L4xx_HAL_Driver/Src/stm32l4xx_hal_dfsdm.c ****                          HAL_DFSDM_FILTER_STATE_REG : HAL_DFSDM_FILTER_STATE_REG_INJ;
 6344              		.loc 1 3433 24 is_stmt 1
 6345 009a 7B68     		ldr	r3, [r7, #4]
 6346 009c 83F84C20 		strb	r2, [r3, #76]
3435:Drivers/STM32L4xx_HAL_Driver/Src/stm32l4xx_hal_dfsdm.c **** }
 6347              		.loc 1 3435 1
 6348 00a0 00BF     		nop
 6349 00a2 0C37     		adds	r7, r7, #12
 6350              		.cfi_def_cfa_offset 4
 6351 00a4 BD46     		mov	sp, r7
 6352              		.cfi_def_cfa_register 13
 6353              		@ sp needed
 6354 00a6 5DF8047B 		ldr	r7, [sp], #4
 6355              		.cfi_restore 7
 6356              		.cfi_def_cfa_offset 0
 6357 00aa 7047     		bx	lr
 6358              		.cfi_endproc
 6359              	.LFE511:
 6361              		.section	.text.DFSDM_RegConvStop,"ax",%progbits
 6362              		.align	1
ARM GAS  /tmp/ccrDNuCE.s 			page 173


 6363              		.syntax unified
 6364              		.thumb
 6365              		.thumb_func
 6367              	DFSDM_RegConvStop:
 6368              	.LFB512:
3436:Drivers/STM32L4xx_HAL_Driver/Src/stm32l4xx_hal_dfsdm.c **** 
3437:Drivers/STM32L4xx_HAL_Driver/Src/stm32l4xx_hal_dfsdm.c **** /**
3438:Drivers/STM32L4xx_HAL_Driver/Src/stm32l4xx_hal_dfsdm.c ****   * @brief  This function allows to really stop regular conversion.
3439:Drivers/STM32L4xx_HAL_Driver/Src/stm32l4xx_hal_dfsdm.c ****   * @param  hdfsdm_filter DFSDM filter handle.
3440:Drivers/STM32L4xx_HAL_Driver/Src/stm32l4xx_hal_dfsdm.c ****   * @retval None
3441:Drivers/STM32L4xx_HAL_Driver/Src/stm32l4xx_hal_dfsdm.c ****   */
3442:Drivers/STM32L4xx_HAL_Driver/Src/stm32l4xx_hal_dfsdm.c **** static void DFSDM_RegConvStop(DFSDM_Filter_HandleTypeDef *hdfsdm_filter)
3443:Drivers/STM32L4xx_HAL_Driver/Src/stm32l4xx_hal_dfsdm.c **** {
 6369              		.loc 1 3443 1
 6370              		.cfi_startproc
 6371              		@ args = 0, pretend = 0, frame = 8
 6372              		@ frame_needed = 1, uses_anonymous_args = 0
 6373              		@ link register save eliminated.
 6374 0000 80B4     		push	{r7}
 6375              		.cfi_def_cfa_offset 4
 6376              		.cfi_offset 7, -4
 6377 0002 83B0     		sub	sp, sp, #12
 6378              		.cfi_def_cfa_offset 16
 6379 0004 00AF     		add	r7, sp, #0
 6380              		.cfi_def_cfa_register 7
 6381 0006 7860     		str	r0, [r7, #4]
3444:Drivers/STM32L4xx_HAL_Driver/Src/stm32l4xx_hal_dfsdm.c ****   /* Disable DFSDM filter */
3445:Drivers/STM32L4xx_HAL_Driver/Src/stm32l4xx_hal_dfsdm.c ****   hdfsdm_filter->Instance->FLTCR1 &= ~(DFSDM_FLTCR1_DFEN);
 6382              		.loc 1 3445 16
 6383 0008 7B68     		ldr	r3, [r7, #4]
 6384 000a 1B68     		ldr	r3, [r3]
 6385              		.loc 1 3445 26
 6386 000c 1A68     		ldr	r2, [r3]
 6387              		.loc 1 3445 16
 6388 000e 7B68     		ldr	r3, [r7, #4]
 6389 0010 1B68     		ldr	r3, [r3]
 6390              		.loc 1 3445 35
 6391 0012 22F00102 		bic	r2, r2, #1
 6392 0016 1A60     		str	r2, [r3]
3446:Drivers/STM32L4xx_HAL_Driver/Src/stm32l4xx_hal_dfsdm.c **** 
3447:Drivers/STM32L4xx_HAL_Driver/Src/stm32l4xx_hal_dfsdm.c ****   /* If regular trigger was synchronous, reset RSYNC bit in DFSDM_FLTCR1 register */
3448:Drivers/STM32L4xx_HAL_Driver/Src/stm32l4xx_hal_dfsdm.c ****   if (hdfsdm_filter->RegularTrigger == DFSDM_FILTER_SYNC_TRIGGER)
 6393              		.loc 1 3448 20
 6394 0018 7B68     		ldr	r3, [r7, #4]
 6395 001a 5B6B     		ldr	r3, [r3, #52]
 6396              		.loc 1 3448 6
 6397 001c 012B     		cmp	r3, #1
 6398 001e 07D1     		bne	.L374
3449:Drivers/STM32L4xx_HAL_Driver/Src/stm32l4xx_hal_dfsdm.c ****   {
3450:Drivers/STM32L4xx_HAL_Driver/Src/stm32l4xx_hal_dfsdm.c ****     hdfsdm_filter->Instance->FLTCR1 &= ~(DFSDM_FLTCR1_RSYNC);
 6399              		.loc 1 3450 18
 6400 0020 7B68     		ldr	r3, [r7, #4]
 6401 0022 1B68     		ldr	r3, [r3]
 6402              		.loc 1 3450 28
 6403 0024 1A68     		ldr	r2, [r3]
 6404              		.loc 1 3450 18
 6405 0026 7B68     		ldr	r3, [r7, #4]
ARM GAS  /tmp/ccrDNuCE.s 			page 174


 6406 0028 1B68     		ldr	r3, [r3]
 6407              		.loc 1 3450 37
 6408 002a 22F40022 		bic	r2, r2, #524288
 6409 002e 1A60     		str	r2, [r3]
 6410              	.L374:
3451:Drivers/STM32L4xx_HAL_Driver/Src/stm32l4xx_hal_dfsdm.c ****   }
3452:Drivers/STM32L4xx_HAL_Driver/Src/stm32l4xx_hal_dfsdm.c **** 
3453:Drivers/STM32L4xx_HAL_Driver/Src/stm32l4xx_hal_dfsdm.c ****   /* Enable DFSDM filter */
3454:Drivers/STM32L4xx_HAL_Driver/Src/stm32l4xx_hal_dfsdm.c ****   hdfsdm_filter->Instance->FLTCR1 |= DFSDM_FLTCR1_DFEN;
 6411              		.loc 1 3454 16
 6412 0030 7B68     		ldr	r3, [r7, #4]
 6413 0032 1B68     		ldr	r3, [r3]
 6414              		.loc 1 3454 26
 6415 0034 1A68     		ldr	r2, [r3]
 6416              		.loc 1 3454 16
 6417 0036 7B68     		ldr	r3, [r7, #4]
 6418 0038 1B68     		ldr	r3, [r3]
 6419              		.loc 1 3454 35
 6420 003a 42F00102 		orr	r2, r2, #1
 6421 003e 1A60     		str	r2, [r3]
3455:Drivers/STM32L4xx_HAL_Driver/Src/stm32l4xx_hal_dfsdm.c **** 
3456:Drivers/STM32L4xx_HAL_Driver/Src/stm32l4xx_hal_dfsdm.c ****   /* If injected conversion was in progress, restart it */
3457:Drivers/STM32L4xx_HAL_Driver/Src/stm32l4xx_hal_dfsdm.c ****   if (hdfsdm_filter->State == HAL_DFSDM_FILTER_STATE_REG_INJ)
 6422              		.loc 1 3457 20
 6423 0040 7B68     		ldr	r3, [r7, #4]
 6424 0042 93F84C30 		ldrb	r3, [r3, #76]	@ zero_extendqisi2
 6425              		.loc 1 3457 6
 6426 0046 042B     		cmp	r3, #4
 6427 0048 16D1     		bne	.L375
3458:Drivers/STM32L4xx_HAL_Driver/Src/stm32l4xx_hal_dfsdm.c ****   {
3459:Drivers/STM32L4xx_HAL_Driver/Src/stm32l4xx_hal_dfsdm.c ****     if (hdfsdm_filter->InjectedTrigger == DFSDM_FILTER_SW_TRIGGER)
 6428              		.loc 1 3459 22
 6429 004a 7B68     		ldr	r3, [r7, #4]
 6430 004c 9B6B     		ldr	r3, [r3, #56]
 6431              		.loc 1 3459 8
 6432 004e 002B     		cmp	r3, #0
 6433 0050 07D1     		bne	.L376
3460:Drivers/STM32L4xx_HAL_Driver/Src/stm32l4xx_hal_dfsdm.c ****     {
3461:Drivers/STM32L4xx_HAL_Driver/Src/stm32l4xx_hal_dfsdm.c ****       hdfsdm_filter->Instance->FLTCR1 |= DFSDM_FLTCR1_JSWSTART;
 6434              		.loc 1 3461 20
 6435 0052 7B68     		ldr	r3, [r7, #4]
 6436 0054 1B68     		ldr	r3, [r3]
 6437              		.loc 1 3461 30
 6438 0056 1A68     		ldr	r2, [r3]
 6439              		.loc 1 3461 20
 6440 0058 7B68     		ldr	r3, [r7, #4]
 6441 005a 1B68     		ldr	r3, [r3]
 6442              		.loc 1 3461 39
 6443 005c 42F00202 		orr	r2, r2, #2
 6444 0060 1A60     		str	r2, [r3]
 6445              	.L376:
3462:Drivers/STM32L4xx_HAL_Driver/Src/stm32l4xx_hal_dfsdm.c ****     }
3463:Drivers/STM32L4xx_HAL_Driver/Src/stm32l4xx_hal_dfsdm.c ****     /* Update remaining injected conversions */
3464:Drivers/STM32L4xx_HAL_Driver/Src/stm32l4xx_hal_dfsdm.c ****     hdfsdm_filter->InjConvRemaining = (hdfsdm_filter->InjectedScanMode == ENABLE) ? \
 6446              		.loc 1 3464 53
 6447 0062 7B68     		ldr	r3, [r7, #4]
 6448 0064 93F84030 		ldrb	r3, [r3, #64]	@ zero_extendqisi2
ARM GAS  /tmp/ccrDNuCE.s 			page 175


3465:Drivers/STM32L4xx_HAL_Driver/Src/stm32l4xx_hal_dfsdm.c ****                                       hdfsdm_filter->InjectedChannelsNbr : 1U;
 6449              		.loc 1 3465 74
 6450 0068 012B     		cmp	r3, #1
 6451 006a 02D1     		bne	.L377
 6452              		.loc 1 3465 74 is_stmt 0 discriminator 1
 6453 006c 7B68     		ldr	r3, [r7, #4]
 6454 006e 5B6C     		ldr	r3, [r3, #68]
 6455 0070 00E0     		b	.L378
 6456              	.L377:
 6457              		.loc 1 3465 74 discriminator 2
 6458 0072 0123     		movs	r3, #1
 6459              	.L378:
3464:Drivers/STM32L4xx_HAL_Driver/Src/stm32l4xx_hal_dfsdm.c ****                                       hdfsdm_filter->InjectedChannelsNbr : 1U;
 6460              		.loc 1 3464 37 is_stmt 1
 6461 0074 7A68     		ldr	r2, [r7, #4]
 6462 0076 9364     		str	r3, [r2, #72]
 6463              	.L375:
3466:Drivers/STM32L4xx_HAL_Driver/Src/stm32l4xx_hal_dfsdm.c ****   }
3467:Drivers/STM32L4xx_HAL_Driver/Src/stm32l4xx_hal_dfsdm.c **** 
3468:Drivers/STM32L4xx_HAL_Driver/Src/stm32l4xx_hal_dfsdm.c ****   /* Update DFSDM filter state */
3469:Drivers/STM32L4xx_HAL_Driver/Src/stm32l4xx_hal_dfsdm.c ****   hdfsdm_filter->State = (hdfsdm_filter->State == HAL_DFSDM_FILTER_STATE_REG) ? \
 6464              		.loc 1 3469 40
 6465 0078 7B68     		ldr	r3, [r7, #4]
 6466 007a 93F84C30 		ldrb	r3, [r3, #76]	@ zero_extendqisi2
3470:Drivers/STM32L4xx_HAL_Driver/Src/stm32l4xx_hal_dfsdm.c ****                          HAL_DFSDM_FILTER_STATE_READY : HAL_DFSDM_FILTER_STATE_INJ;
 6467              		.loc 1 3470 55
 6468 007e 022B     		cmp	r3, #2
 6469 0080 01D1     		bne	.L379
 6470              		.loc 1 3470 55 is_stmt 0 discriminator 1
 6471 0082 0122     		movs	r2, #1
 6472 0084 00E0     		b	.L380
 6473              	.L379:
 6474              		.loc 1 3470 55 discriminator 2
 6475 0086 0322     		movs	r2, #3
 6476              	.L380:
3469:Drivers/STM32L4xx_HAL_Driver/Src/stm32l4xx_hal_dfsdm.c ****                          HAL_DFSDM_FILTER_STATE_READY : HAL_DFSDM_FILTER_STATE_INJ;
 6477              		.loc 1 3469 24 is_stmt 1
 6478 0088 7B68     		ldr	r3, [r7, #4]
 6479 008a 83F84C20 		strb	r2, [r3, #76]
3471:Drivers/STM32L4xx_HAL_Driver/Src/stm32l4xx_hal_dfsdm.c **** }
 6480              		.loc 1 3471 1
 6481 008e 00BF     		nop
 6482 0090 0C37     		adds	r7, r7, #12
 6483              		.cfi_def_cfa_offset 4
 6484 0092 BD46     		mov	sp, r7
 6485              		.cfi_def_cfa_register 13
 6486              		@ sp needed
 6487 0094 5DF8047B 		ldr	r7, [sp], #4
 6488              		.cfi_restore 7
 6489              		.cfi_def_cfa_offset 0
 6490 0098 7047     		bx	lr
 6491              		.cfi_endproc
 6492              	.LFE512:
 6494              		.section	.text.DFSDM_InjConvStart,"ax",%progbits
 6495              		.align	1
 6496              		.syntax unified
 6497              		.thumb
ARM GAS  /tmp/ccrDNuCE.s 			page 176


 6498              		.thumb_func
 6500              	DFSDM_InjConvStart:
 6501              	.LFB513:
3472:Drivers/STM32L4xx_HAL_Driver/Src/stm32l4xx_hal_dfsdm.c **** 
3473:Drivers/STM32L4xx_HAL_Driver/Src/stm32l4xx_hal_dfsdm.c **** /**
3474:Drivers/STM32L4xx_HAL_Driver/Src/stm32l4xx_hal_dfsdm.c ****   * @brief  This function allows to really start injected conversion.
3475:Drivers/STM32L4xx_HAL_Driver/Src/stm32l4xx_hal_dfsdm.c ****   * @param  hdfsdm_filter DFSDM filter handle.
3476:Drivers/STM32L4xx_HAL_Driver/Src/stm32l4xx_hal_dfsdm.c ****   * @retval None
3477:Drivers/STM32L4xx_HAL_Driver/Src/stm32l4xx_hal_dfsdm.c ****   */
3478:Drivers/STM32L4xx_HAL_Driver/Src/stm32l4xx_hal_dfsdm.c **** static void DFSDM_InjConvStart(DFSDM_Filter_HandleTypeDef *hdfsdm_filter)
3479:Drivers/STM32L4xx_HAL_Driver/Src/stm32l4xx_hal_dfsdm.c **** {
 6502              		.loc 1 3479 1
 6503              		.cfi_startproc
 6504              		@ args = 0, pretend = 0, frame = 8
 6505              		@ frame_needed = 1, uses_anonymous_args = 0
 6506              		@ link register save eliminated.
 6507 0000 80B4     		push	{r7}
 6508              		.cfi_def_cfa_offset 4
 6509              		.cfi_offset 7, -4
 6510 0002 83B0     		sub	sp, sp, #12
 6511              		.cfi_def_cfa_offset 16
 6512 0004 00AF     		add	r7, sp, #0
 6513              		.cfi_def_cfa_register 7
 6514 0006 7860     		str	r0, [r7, #4]
3480:Drivers/STM32L4xx_HAL_Driver/Src/stm32l4xx_hal_dfsdm.c ****   /* Check injected trigger */
3481:Drivers/STM32L4xx_HAL_Driver/Src/stm32l4xx_hal_dfsdm.c ****   if (hdfsdm_filter->InjectedTrigger == DFSDM_FILTER_SW_TRIGGER)
 6515              		.loc 1 3481 20
 6516 0008 7B68     		ldr	r3, [r7, #4]
 6517 000a 9B6B     		ldr	r3, [r3, #56]
 6518              		.loc 1 3481 6
 6519 000c 002B     		cmp	r3, #0
 6520 000e 08D1     		bne	.L382
3482:Drivers/STM32L4xx_HAL_Driver/Src/stm32l4xx_hal_dfsdm.c ****   {
3483:Drivers/STM32L4xx_HAL_Driver/Src/stm32l4xx_hal_dfsdm.c ****     /* Software start of injected conversion */
3484:Drivers/STM32L4xx_HAL_Driver/Src/stm32l4xx_hal_dfsdm.c ****     hdfsdm_filter->Instance->FLTCR1 |= DFSDM_FLTCR1_JSWSTART;
 6521              		.loc 1 3484 18
 6522 0010 7B68     		ldr	r3, [r7, #4]
 6523 0012 1B68     		ldr	r3, [r3]
 6524              		.loc 1 3484 28
 6525 0014 1A68     		ldr	r2, [r3]
 6526              		.loc 1 3484 18
 6527 0016 7B68     		ldr	r3, [r7, #4]
 6528 0018 1B68     		ldr	r3, [r3]
 6529              		.loc 1 3484 37
 6530 001a 42F00202 		orr	r2, r2, #2
 6531 001e 1A60     		str	r2, [r3]
 6532 0020 36E0     		b	.L383
 6533              	.L382:
3485:Drivers/STM32L4xx_HAL_Driver/Src/stm32l4xx_hal_dfsdm.c ****   }
3486:Drivers/STM32L4xx_HAL_Driver/Src/stm32l4xx_hal_dfsdm.c ****   else /* external or synchronous trigger */
3487:Drivers/STM32L4xx_HAL_Driver/Src/stm32l4xx_hal_dfsdm.c ****   {
3488:Drivers/STM32L4xx_HAL_Driver/Src/stm32l4xx_hal_dfsdm.c ****     /* Disable DFSDM filter */
3489:Drivers/STM32L4xx_HAL_Driver/Src/stm32l4xx_hal_dfsdm.c ****     hdfsdm_filter->Instance->FLTCR1 &= ~(DFSDM_FLTCR1_DFEN);
 6534              		.loc 1 3489 18
 6535 0022 7B68     		ldr	r3, [r7, #4]
 6536 0024 1B68     		ldr	r3, [r3]
 6537              		.loc 1 3489 28
ARM GAS  /tmp/ccrDNuCE.s 			page 177


 6538 0026 1A68     		ldr	r2, [r3]
 6539              		.loc 1 3489 18
 6540 0028 7B68     		ldr	r3, [r7, #4]
 6541 002a 1B68     		ldr	r3, [r3]
 6542              		.loc 1 3489 37
 6543 002c 22F00102 		bic	r2, r2, #1
 6544 0030 1A60     		str	r2, [r3]
3490:Drivers/STM32L4xx_HAL_Driver/Src/stm32l4xx_hal_dfsdm.c **** 
3491:Drivers/STM32L4xx_HAL_Driver/Src/stm32l4xx_hal_dfsdm.c ****     if (hdfsdm_filter->InjectedTrigger == DFSDM_FILTER_SYNC_TRIGGER)
 6545              		.loc 1 3491 22
 6546 0032 7B68     		ldr	r3, [r7, #4]
 6547 0034 9B6B     		ldr	r3, [r3, #56]
 6548              		.loc 1 3491 8
 6549 0036 012B     		cmp	r3, #1
 6550 0038 08D1     		bne	.L384
3492:Drivers/STM32L4xx_HAL_Driver/Src/stm32l4xx_hal_dfsdm.c ****     {
3493:Drivers/STM32L4xx_HAL_Driver/Src/stm32l4xx_hal_dfsdm.c ****       /* Set JSYNC bit in DFSDM_FLTCR1 register */
3494:Drivers/STM32L4xx_HAL_Driver/Src/stm32l4xx_hal_dfsdm.c ****       hdfsdm_filter->Instance->FLTCR1 |= DFSDM_FLTCR1_JSYNC;
 6551              		.loc 1 3494 20
 6552 003a 7B68     		ldr	r3, [r7, #4]
 6553 003c 1B68     		ldr	r3, [r3]
 6554              		.loc 1 3494 30
 6555 003e 1A68     		ldr	r2, [r3]
 6556              		.loc 1 3494 20
 6557 0040 7B68     		ldr	r3, [r7, #4]
 6558 0042 1B68     		ldr	r3, [r3]
 6559              		.loc 1 3494 39
 6560 0044 42F00802 		orr	r2, r2, #8
 6561 0048 1A60     		str	r2, [r3]
 6562 004a 08E0     		b	.L385
 6563              	.L384:
3495:Drivers/STM32L4xx_HAL_Driver/Src/stm32l4xx_hal_dfsdm.c ****     }
3496:Drivers/STM32L4xx_HAL_Driver/Src/stm32l4xx_hal_dfsdm.c ****     else /* external trigger */
3497:Drivers/STM32L4xx_HAL_Driver/Src/stm32l4xx_hal_dfsdm.c ****     {
3498:Drivers/STM32L4xx_HAL_Driver/Src/stm32l4xx_hal_dfsdm.c ****       /* Set JEXTEN[1:0] bits in DFSDM_FLTCR1 register */
3499:Drivers/STM32L4xx_HAL_Driver/Src/stm32l4xx_hal_dfsdm.c ****       hdfsdm_filter->Instance->FLTCR1 |= hdfsdm_filter->ExtTriggerEdge;
 6564              		.loc 1 3499 20
 6565 004c 7B68     		ldr	r3, [r7, #4]
 6566 004e 1B68     		ldr	r3, [r3]
 6567              		.loc 1 3499 30
 6568 0050 1968     		ldr	r1, [r3]
 6569              		.loc 1 3499 55
 6570 0052 7B68     		ldr	r3, [r7, #4]
 6571 0054 DA6B     		ldr	r2, [r3, #60]
 6572              		.loc 1 3499 20
 6573 0056 7B68     		ldr	r3, [r7, #4]
 6574 0058 1B68     		ldr	r3, [r3]
 6575              		.loc 1 3499 39
 6576 005a 0A43     		orrs	r2, r2, r1
 6577 005c 1A60     		str	r2, [r3]
 6578              	.L385:
3500:Drivers/STM32L4xx_HAL_Driver/Src/stm32l4xx_hal_dfsdm.c ****     }
3501:Drivers/STM32L4xx_HAL_Driver/Src/stm32l4xx_hal_dfsdm.c **** 
3502:Drivers/STM32L4xx_HAL_Driver/Src/stm32l4xx_hal_dfsdm.c ****     /* Enable DFSDM filter */
3503:Drivers/STM32L4xx_HAL_Driver/Src/stm32l4xx_hal_dfsdm.c ****     hdfsdm_filter->Instance->FLTCR1 |= DFSDM_FLTCR1_DFEN;
 6579              		.loc 1 3503 18
 6580 005e 7B68     		ldr	r3, [r7, #4]
ARM GAS  /tmp/ccrDNuCE.s 			page 178


 6581 0060 1B68     		ldr	r3, [r3]
 6582              		.loc 1 3503 28
 6583 0062 1A68     		ldr	r2, [r3]
 6584              		.loc 1 3503 18
 6585 0064 7B68     		ldr	r3, [r7, #4]
 6586 0066 1B68     		ldr	r3, [r3]
 6587              		.loc 1 3503 37
 6588 0068 42F00102 		orr	r2, r2, #1
 6589 006c 1A60     		str	r2, [r3]
3504:Drivers/STM32L4xx_HAL_Driver/Src/stm32l4xx_hal_dfsdm.c **** 
3505:Drivers/STM32L4xx_HAL_Driver/Src/stm32l4xx_hal_dfsdm.c ****     /* If regular conversion was in progress, restart it */
3506:Drivers/STM32L4xx_HAL_Driver/Src/stm32l4xx_hal_dfsdm.c ****     if ((hdfsdm_filter->State == HAL_DFSDM_FILTER_STATE_REG) && \
 6590              		.loc 1 3506 23
 6591 006e 7B68     		ldr	r3, [r7, #4]
 6592 0070 93F84C30 		ldrb	r3, [r3, #76]	@ zero_extendqisi2
 6593              		.loc 1 3506 8
 6594 0074 022B     		cmp	r3, #2
 6595 0076 0BD1     		bne	.L383
3507:Drivers/STM32L4xx_HAL_Driver/Src/stm32l4xx_hal_dfsdm.c ****         (hdfsdm_filter->RegularTrigger == DFSDM_FILTER_SW_TRIGGER))
 6596              		.loc 1 3507 23
 6597 0078 7B68     		ldr	r3, [r7, #4]
 6598 007a 5B6B     		ldr	r3, [r3, #52]
3506:Drivers/STM32L4xx_HAL_Driver/Src/stm32l4xx_hal_dfsdm.c ****         (hdfsdm_filter->RegularTrigger == DFSDM_FILTER_SW_TRIGGER))
 6599              		.loc 1 3506 62 discriminator 1
 6600 007c 002B     		cmp	r3, #0
 6601 007e 07D1     		bne	.L383
3508:Drivers/STM32L4xx_HAL_Driver/Src/stm32l4xx_hal_dfsdm.c ****     {
3509:Drivers/STM32L4xx_HAL_Driver/Src/stm32l4xx_hal_dfsdm.c ****       hdfsdm_filter->Instance->FLTCR1 |= DFSDM_FLTCR1_RSWSTART;
 6602              		.loc 1 3509 20
 6603 0080 7B68     		ldr	r3, [r7, #4]
 6604 0082 1B68     		ldr	r3, [r3]
 6605              		.loc 1 3509 30
 6606 0084 1A68     		ldr	r2, [r3]
 6607              		.loc 1 3509 20
 6608 0086 7B68     		ldr	r3, [r7, #4]
 6609 0088 1B68     		ldr	r3, [r3]
 6610              		.loc 1 3509 39
 6611 008a 42F40032 		orr	r2, r2, #131072
 6612 008e 1A60     		str	r2, [r3]
 6613              	.L383:
3510:Drivers/STM32L4xx_HAL_Driver/Src/stm32l4xx_hal_dfsdm.c ****     }
3511:Drivers/STM32L4xx_HAL_Driver/Src/stm32l4xx_hal_dfsdm.c ****   }
3512:Drivers/STM32L4xx_HAL_Driver/Src/stm32l4xx_hal_dfsdm.c ****   /* Update DFSDM filter state */
3513:Drivers/STM32L4xx_HAL_Driver/Src/stm32l4xx_hal_dfsdm.c ****   hdfsdm_filter->State = (hdfsdm_filter->State == HAL_DFSDM_FILTER_STATE_READY) ? \
 6614              		.loc 1 3513 40
 6615 0090 7B68     		ldr	r3, [r7, #4]
 6616 0092 93F84C30 		ldrb	r3, [r3, #76]	@ zero_extendqisi2
3514:Drivers/STM32L4xx_HAL_Driver/Src/stm32l4xx_hal_dfsdm.c ****                          HAL_DFSDM_FILTER_STATE_INJ : HAL_DFSDM_FILTER_STATE_REG_INJ;
 6617              		.loc 1 3514 53
 6618 0096 012B     		cmp	r3, #1
 6619 0098 01D1     		bne	.L386
 6620              		.loc 1 3514 53 is_stmt 0 discriminator 1
 6621 009a 0322     		movs	r2, #3
 6622 009c 00E0     		b	.L387
 6623              	.L386:
 6624              		.loc 1 3514 53 discriminator 2
 6625 009e 0422     		movs	r2, #4
ARM GAS  /tmp/ccrDNuCE.s 			page 179


 6626              	.L387:
3513:Drivers/STM32L4xx_HAL_Driver/Src/stm32l4xx_hal_dfsdm.c ****                          HAL_DFSDM_FILTER_STATE_INJ : HAL_DFSDM_FILTER_STATE_REG_INJ;
 6627              		.loc 1 3513 24 is_stmt 1
 6628 00a0 7B68     		ldr	r3, [r7, #4]
 6629 00a2 83F84C20 		strb	r2, [r3, #76]
3515:Drivers/STM32L4xx_HAL_Driver/Src/stm32l4xx_hal_dfsdm.c **** }
 6630              		.loc 1 3515 1
 6631 00a6 00BF     		nop
 6632 00a8 0C37     		adds	r7, r7, #12
 6633              		.cfi_def_cfa_offset 4
 6634 00aa BD46     		mov	sp, r7
 6635              		.cfi_def_cfa_register 13
 6636              		@ sp needed
 6637 00ac 5DF8047B 		ldr	r7, [sp], #4
 6638              		.cfi_restore 7
 6639              		.cfi_def_cfa_offset 0
 6640 00b0 7047     		bx	lr
 6641              		.cfi_endproc
 6642              	.LFE513:
 6644              		.section	.text.DFSDM_InjConvStop,"ax",%progbits
 6645              		.align	1
 6646              		.syntax unified
 6647              		.thumb
 6648              		.thumb_func
 6650              	DFSDM_InjConvStop:
 6651              	.LFB514:
3516:Drivers/STM32L4xx_HAL_Driver/Src/stm32l4xx_hal_dfsdm.c **** 
3517:Drivers/STM32L4xx_HAL_Driver/Src/stm32l4xx_hal_dfsdm.c **** /**
3518:Drivers/STM32L4xx_HAL_Driver/Src/stm32l4xx_hal_dfsdm.c ****   * @brief  This function allows to really stop injected conversion.
3519:Drivers/STM32L4xx_HAL_Driver/Src/stm32l4xx_hal_dfsdm.c ****   * @param  hdfsdm_filter DFSDM filter handle.
3520:Drivers/STM32L4xx_HAL_Driver/Src/stm32l4xx_hal_dfsdm.c ****   * @retval None
3521:Drivers/STM32L4xx_HAL_Driver/Src/stm32l4xx_hal_dfsdm.c ****   */
3522:Drivers/STM32L4xx_HAL_Driver/Src/stm32l4xx_hal_dfsdm.c **** static void DFSDM_InjConvStop(DFSDM_Filter_HandleTypeDef *hdfsdm_filter)
3523:Drivers/STM32L4xx_HAL_Driver/Src/stm32l4xx_hal_dfsdm.c **** {
 6652              		.loc 1 3523 1
 6653              		.cfi_startproc
 6654              		@ args = 0, pretend = 0, frame = 8
 6655              		@ frame_needed = 1, uses_anonymous_args = 0
 6656              		@ link register save eliminated.
 6657 0000 80B4     		push	{r7}
 6658              		.cfi_def_cfa_offset 4
 6659              		.cfi_offset 7, -4
 6660 0002 83B0     		sub	sp, sp, #12
 6661              		.cfi_def_cfa_offset 16
 6662 0004 00AF     		add	r7, sp, #0
 6663              		.cfi_def_cfa_register 7
 6664 0006 7860     		str	r0, [r7, #4]
3524:Drivers/STM32L4xx_HAL_Driver/Src/stm32l4xx_hal_dfsdm.c ****   /* Disable DFSDM filter */
3525:Drivers/STM32L4xx_HAL_Driver/Src/stm32l4xx_hal_dfsdm.c ****   hdfsdm_filter->Instance->FLTCR1 &= ~(DFSDM_FLTCR1_DFEN);
 6665              		.loc 1 3525 16
 6666 0008 7B68     		ldr	r3, [r7, #4]
 6667 000a 1B68     		ldr	r3, [r3]
 6668              		.loc 1 3525 26
 6669 000c 1A68     		ldr	r2, [r3]
 6670              		.loc 1 3525 16
 6671 000e 7B68     		ldr	r3, [r7, #4]
 6672 0010 1B68     		ldr	r3, [r3]
ARM GAS  /tmp/ccrDNuCE.s 			page 180


 6673              		.loc 1 3525 35
 6674 0012 22F00102 		bic	r2, r2, #1
 6675 0016 1A60     		str	r2, [r3]
3526:Drivers/STM32L4xx_HAL_Driver/Src/stm32l4xx_hal_dfsdm.c **** 
3527:Drivers/STM32L4xx_HAL_Driver/Src/stm32l4xx_hal_dfsdm.c ****   /* If injected trigger was synchronous, reset JSYNC bit in DFSDM_FLTCR1 register */
3528:Drivers/STM32L4xx_HAL_Driver/Src/stm32l4xx_hal_dfsdm.c ****   if (hdfsdm_filter->InjectedTrigger == DFSDM_FILTER_SYNC_TRIGGER)
 6676              		.loc 1 3528 20
 6677 0018 7B68     		ldr	r3, [r7, #4]
 6678 001a 9B6B     		ldr	r3, [r3, #56]
 6679              		.loc 1 3528 6
 6680 001c 012B     		cmp	r3, #1
 6681 001e 08D1     		bne	.L389
3529:Drivers/STM32L4xx_HAL_Driver/Src/stm32l4xx_hal_dfsdm.c ****   {
3530:Drivers/STM32L4xx_HAL_Driver/Src/stm32l4xx_hal_dfsdm.c ****     hdfsdm_filter->Instance->FLTCR1 &= ~(DFSDM_FLTCR1_JSYNC);
 6682              		.loc 1 3530 18
 6683 0020 7B68     		ldr	r3, [r7, #4]
 6684 0022 1B68     		ldr	r3, [r3]
 6685              		.loc 1 3530 28
 6686 0024 1A68     		ldr	r2, [r3]
 6687              		.loc 1 3530 18
 6688 0026 7B68     		ldr	r3, [r7, #4]
 6689 0028 1B68     		ldr	r3, [r3]
 6690              		.loc 1 3530 37
 6691 002a 22F00802 		bic	r2, r2, #8
 6692 002e 1A60     		str	r2, [r3]
 6693 0030 0BE0     		b	.L390
 6694              	.L389:
3531:Drivers/STM32L4xx_HAL_Driver/Src/stm32l4xx_hal_dfsdm.c ****   }
3532:Drivers/STM32L4xx_HAL_Driver/Src/stm32l4xx_hal_dfsdm.c ****   else if (hdfsdm_filter->InjectedTrigger == DFSDM_FILTER_EXT_TRIGGER)
 6695              		.loc 1 3532 25
 6696 0032 7B68     		ldr	r3, [r7, #4]
 6697 0034 9B6B     		ldr	r3, [r3, #56]
 6698              		.loc 1 3532 11
 6699 0036 022B     		cmp	r3, #2
 6700 0038 07D1     		bne	.L390
3533:Drivers/STM32L4xx_HAL_Driver/Src/stm32l4xx_hal_dfsdm.c ****   {
3534:Drivers/STM32L4xx_HAL_Driver/Src/stm32l4xx_hal_dfsdm.c ****     /* Reset JEXTEN[1:0] bits in DFSDM_FLTCR1 register */
3535:Drivers/STM32L4xx_HAL_Driver/Src/stm32l4xx_hal_dfsdm.c ****     hdfsdm_filter->Instance->FLTCR1 &= ~(DFSDM_FLTCR1_JEXTEN);
 6701              		.loc 1 3535 18
 6702 003a 7B68     		ldr	r3, [r7, #4]
 6703 003c 1B68     		ldr	r3, [r3]
 6704              		.loc 1 3535 28
 6705 003e 1A68     		ldr	r2, [r3]
 6706              		.loc 1 3535 18
 6707 0040 7B68     		ldr	r3, [r7, #4]
 6708 0042 1B68     		ldr	r3, [r3]
 6709              		.loc 1 3535 37
 6710 0044 22F4C042 		bic	r2, r2, #24576
 6711 0048 1A60     		str	r2, [r3]
 6712              	.L390:
3536:Drivers/STM32L4xx_HAL_Driver/Src/stm32l4xx_hal_dfsdm.c ****   }
3537:Drivers/STM32L4xx_HAL_Driver/Src/stm32l4xx_hal_dfsdm.c ****   else
3538:Drivers/STM32L4xx_HAL_Driver/Src/stm32l4xx_hal_dfsdm.c ****   {
3539:Drivers/STM32L4xx_HAL_Driver/Src/stm32l4xx_hal_dfsdm.c ****     /* Nothing to do */
3540:Drivers/STM32L4xx_HAL_Driver/Src/stm32l4xx_hal_dfsdm.c ****   }
3541:Drivers/STM32L4xx_HAL_Driver/Src/stm32l4xx_hal_dfsdm.c **** 
3542:Drivers/STM32L4xx_HAL_Driver/Src/stm32l4xx_hal_dfsdm.c ****   /* Enable DFSDM filter */
ARM GAS  /tmp/ccrDNuCE.s 			page 181


3543:Drivers/STM32L4xx_HAL_Driver/Src/stm32l4xx_hal_dfsdm.c ****   hdfsdm_filter->Instance->FLTCR1 |= DFSDM_FLTCR1_DFEN;
 6713              		.loc 1 3543 16
 6714 004a 7B68     		ldr	r3, [r7, #4]
 6715 004c 1B68     		ldr	r3, [r3]
 6716              		.loc 1 3543 26
 6717 004e 1A68     		ldr	r2, [r3]
 6718              		.loc 1 3543 16
 6719 0050 7B68     		ldr	r3, [r7, #4]
 6720 0052 1B68     		ldr	r3, [r3]
 6721              		.loc 1 3543 35
 6722 0054 42F00102 		orr	r2, r2, #1
 6723 0058 1A60     		str	r2, [r3]
3544:Drivers/STM32L4xx_HAL_Driver/Src/stm32l4xx_hal_dfsdm.c **** 
3545:Drivers/STM32L4xx_HAL_Driver/Src/stm32l4xx_hal_dfsdm.c ****   /* If regular conversion was in progress, restart it */
3546:Drivers/STM32L4xx_HAL_Driver/Src/stm32l4xx_hal_dfsdm.c ****   if ((hdfsdm_filter->State == HAL_DFSDM_FILTER_STATE_REG_INJ) && \
 6724              		.loc 1 3546 21
 6725 005a 7B68     		ldr	r3, [r7, #4]
 6726 005c 93F84C30 		ldrb	r3, [r3, #76]	@ zero_extendqisi2
 6727              		.loc 1 3546 6
 6728 0060 042B     		cmp	r3, #4
 6729 0062 0BD1     		bne	.L391
3547:Drivers/STM32L4xx_HAL_Driver/Src/stm32l4xx_hal_dfsdm.c ****       (hdfsdm_filter->RegularTrigger == DFSDM_FILTER_SW_TRIGGER))
 6730              		.loc 1 3547 21
 6731 0064 7B68     		ldr	r3, [r7, #4]
 6732 0066 5B6B     		ldr	r3, [r3, #52]
3546:Drivers/STM32L4xx_HAL_Driver/Src/stm32l4xx_hal_dfsdm.c ****       (hdfsdm_filter->RegularTrigger == DFSDM_FILTER_SW_TRIGGER))
 6733              		.loc 1 3546 64 discriminator 1
 6734 0068 002B     		cmp	r3, #0
 6735 006a 07D1     		bne	.L391
3548:Drivers/STM32L4xx_HAL_Driver/Src/stm32l4xx_hal_dfsdm.c ****   {
3549:Drivers/STM32L4xx_HAL_Driver/Src/stm32l4xx_hal_dfsdm.c ****     hdfsdm_filter->Instance->FLTCR1 |= DFSDM_FLTCR1_RSWSTART;
 6736              		.loc 1 3549 18
 6737 006c 7B68     		ldr	r3, [r7, #4]
 6738 006e 1B68     		ldr	r3, [r3]
 6739              		.loc 1 3549 28
 6740 0070 1A68     		ldr	r2, [r3]
 6741              		.loc 1 3549 18
 6742 0072 7B68     		ldr	r3, [r7, #4]
 6743 0074 1B68     		ldr	r3, [r3]
 6744              		.loc 1 3549 37
 6745 0076 42F40032 		orr	r2, r2, #131072
 6746 007a 1A60     		str	r2, [r3]
 6747              	.L391:
3550:Drivers/STM32L4xx_HAL_Driver/Src/stm32l4xx_hal_dfsdm.c ****   }
3551:Drivers/STM32L4xx_HAL_Driver/Src/stm32l4xx_hal_dfsdm.c **** 
3552:Drivers/STM32L4xx_HAL_Driver/Src/stm32l4xx_hal_dfsdm.c ****   /* Update remaining injected conversions */
3553:Drivers/STM32L4xx_HAL_Driver/Src/stm32l4xx_hal_dfsdm.c ****   hdfsdm_filter->InjConvRemaining = (hdfsdm_filter->InjectedScanMode == ENABLE) ? \
 6748              		.loc 1 3553 51
 6749 007c 7B68     		ldr	r3, [r7, #4]
 6750 007e 93F84030 		ldrb	r3, [r3, #64]	@ zero_extendqisi2
3554:Drivers/STM32L4xx_HAL_Driver/Src/stm32l4xx_hal_dfsdm.c ****                                     hdfsdm_filter->InjectedChannelsNbr : 1U;
 6751              		.loc 1 3554 72
 6752 0082 012B     		cmp	r3, #1
 6753 0084 02D1     		bne	.L392
 6754              		.loc 1 3554 72 is_stmt 0 discriminator 1
 6755 0086 7B68     		ldr	r3, [r7, #4]
 6756 0088 5B6C     		ldr	r3, [r3, #68]
ARM GAS  /tmp/ccrDNuCE.s 			page 182


 6757 008a 00E0     		b	.L393
 6758              	.L392:
 6759              		.loc 1 3554 72 discriminator 2
 6760 008c 0123     		movs	r3, #1
 6761              	.L393:
3553:Drivers/STM32L4xx_HAL_Driver/Src/stm32l4xx_hal_dfsdm.c ****                                     hdfsdm_filter->InjectedChannelsNbr : 1U;
 6762              		.loc 1 3553 35 is_stmt 1
 6763 008e 7A68     		ldr	r2, [r7, #4]
 6764 0090 9364     		str	r3, [r2, #72]
3555:Drivers/STM32L4xx_HAL_Driver/Src/stm32l4xx_hal_dfsdm.c **** 
3556:Drivers/STM32L4xx_HAL_Driver/Src/stm32l4xx_hal_dfsdm.c ****   /* Update DFSDM filter state */
3557:Drivers/STM32L4xx_HAL_Driver/Src/stm32l4xx_hal_dfsdm.c ****   hdfsdm_filter->State = (hdfsdm_filter->State == HAL_DFSDM_FILTER_STATE_INJ) ? \
 6765              		.loc 1 3557 40
 6766 0092 7B68     		ldr	r3, [r7, #4]
 6767 0094 93F84C30 		ldrb	r3, [r3, #76]	@ zero_extendqisi2
3558:Drivers/STM32L4xx_HAL_Driver/Src/stm32l4xx_hal_dfsdm.c ****                          HAL_DFSDM_FILTER_STATE_READY : HAL_DFSDM_FILTER_STATE_REG;
 6768              		.loc 1 3558 55
 6769 0098 032B     		cmp	r3, #3
 6770 009a 01D1     		bne	.L394
 6771              		.loc 1 3558 55 is_stmt 0 discriminator 1
 6772 009c 0122     		movs	r2, #1
 6773 009e 00E0     		b	.L395
 6774              	.L394:
 6775              		.loc 1 3558 55 discriminator 2
 6776 00a0 0222     		movs	r2, #2
 6777              	.L395:
3557:Drivers/STM32L4xx_HAL_Driver/Src/stm32l4xx_hal_dfsdm.c ****                          HAL_DFSDM_FILTER_STATE_READY : HAL_DFSDM_FILTER_STATE_REG;
 6778              		.loc 1 3557 24 is_stmt 1
 6779 00a2 7B68     		ldr	r3, [r7, #4]
 6780 00a4 83F84C20 		strb	r2, [r3, #76]
3559:Drivers/STM32L4xx_HAL_Driver/Src/stm32l4xx_hal_dfsdm.c **** }
 6781              		.loc 1 3559 1
 6782 00a8 00BF     		nop
 6783 00aa 0C37     		adds	r7, r7, #12
 6784              		.cfi_def_cfa_offset 4
 6785 00ac BD46     		mov	sp, r7
 6786              		.cfi_def_cfa_register 13
 6787              		@ sp needed
 6788 00ae 5DF8047B 		ldr	r7, [sp], #4
 6789              		.cfi_restore 7
 6790              		.cfi_def_cfa_offset 0
 6791 00b2 7047     		bx	lr
 6792              		.cfi_endproc
 6793              	.LFE514:
 6795              		.text
 6796              	.Letext0:
 6797              		.file 2 "/usr/lib/gcc/arm-none-eabi/13.2.1/include/stdint.h"
 6798              		.file 3 "Drivers/CMSIS/Device/ST/STM32L4xx/Include/stm32l475xx.h"
 6799              		.file 4 "Drivers/CMSIS/Device/ST/STM32L4xx/Include/stm32l4xx.h"
 6800              		.file 5 "Drivers/STM32L4xx_HAL_Driver/Inc/stm32l4xx_hal_def.h"
 6801              		.file 6 "Drivers/STM32L4xx_HAL_Driver/Inc/stm32l4xx_hal_dma.h"
 6802              		.file 7 "Drivers/STM32L4xx_HAL_Driver/Inc/stm32l4xx_hal_dfsdm.h"
 6803              		.file 8 "Drivers/STM32L4xx_HAL_Driver/Inc/stm32l4xx_ll_dma.h"
 6804              		.file 9 "Drivers/STM32L4xx_HAL_Driver/Inc/stm32l4xx_hal.h"
ARM GAS  /tmp/ccrDNuCE.s 			page 183


DEFINED SYMBOLS
                            *ABS*:00000000 stm32l4xx_hal_dfsdm.c
     /tmp/ccrDNuCE.s:21     .rodata.CHANNEL_OFFSET_TAB:00000000 $d
     /tmp/ccrDNuCE.s:24     .rodata.CHANNEL_OFFSET_TAB:00000000 CHANNEL_OFFSET_TAB
     /tmp/ccrDNuCE.s:27     .bss.v_dfsdm1ChannelCounter:00000000 $d
     /tmp/ccrDNuCE.s:30     .bss.v_dfsdm1ChannelCounter:00000000 v_dfsdm1ChannelCounter
     /tmp/ccrDNuCE.s:33     .bss.a_dfsdm1ChannelHandle:00000000 $d
     /tmp/ccrDNuCE.s:36     .bss.a_dfsdm1ChannelHandle:00000000 a_dfsdm1ChannelHandle
     /tmp/ccrDNuCE.s:39     .text.HAL_DFSDM_ChannelInit:00000000 $t
     /tmp/ccrDNuCE.s:45     .text.HAL_DFSDM_ChannelInit:00000000 HAL_DFSDM_ChannelInit
     /tmp/ccrDNuCE.s:6101   .text.DFSDM_GetChannelFromInstance:00000000 DFSDM_GetChannelFromInstance
     /tmp/ccrDNuCE.s:457    .text.HAL_DFSDM_ChannelMspInit:00000000 HAL_DFSDM_ChannelMspInit
     /tmp/ccrDNuCE.s:328    .text.HAL_DFSDM_ChannelInit:00000174 $d
     /tmp/ccrDNuCE.s:335    .text.HAL_DFSDM_ChannelDeInit:00000000 $t
     /tmp/ccrDNuCE.s:341    .text.HAL_DFSDM_ChannelDeInit:00000000 HAL_DFSDM_ChannelDeInit
     /tmp/ccrDNuCE.s:493    .text.HAL_DFSDM_ChannelMspDeInit:00000000 HAL_DFSDM_ChannelMspDeInit
     /tmp/ccrDNuCE.s:444    .text.HAL_DFSDM_ChannelDeInit:00000088 $d
     /tmp/ccrDNuCE.s:451    .text.HAL_DFSDM_ChannelMspInit:00000000 $t
     /tmp/ccrDNuCE.s:487    .text.HAL_DFSDM_ChannelMspDeInit:00000000 $t
     /tmp/ccrDNuCE.s:523    .text.HAL_DFSDM_ChannelCkabStart:00000000 $t
     /tmp/ccrDNuCE.s:529    .text.HAL_DFSDM_ChannelCkabStart:00000000 HAL_DFSDM_ChannelCkabStart
     /tmp/ccrDNuCE.s:642    .text.HAL_DFSDM_ChannelCkabStart:00000090 $d
     /tmp/ccrDNuCE.s:647    .text.HAL_DFSDM_ChannelPollForCkab:00000000 $t
     /tmp/ccrDNuCE.s:653    .text.HAL_DFSDM_ChannelPollForCkab:00000000 HAL_DFSDM_ChannelPollForCkab
     /tmp/ccrDNuCE.s:754    .text.HAL_DFSDM_ChannelPollForCkab:00000080 $d
     /tmp/ccrDNuCE.s:759    .text.HAL_DFSDM_ChannelCkabStop:00000000 $t
     /tmp/ccrDNuCE.s:765    .text.HAL_DFSDM_ChannelCkabStop:00000000 HAL_DFSDM_ChannelCkabStop
     /tmp/ccrDNuCE.s:836    .text.HAL_DFSDM_ChannelCkabStop:00000050 $d
     /tmp/ccrDNuCE.s:841    .text.HAL_DFSDM_ChannelCkabStart_IT:00000000 $t
     /tmp/ccrDNuCE.s:847    .text.HAL_DFSDM_ChannelCkabStart_IT:00000000 HAL_DFSDM_ChannelCkabStart_IT
     /tmp/ccrDNuCE.s:967    .text.HAL_DFSDM_ChannelCkabStart_IT:0000009c $d
     /tmp/ccrDNuCE.s:972    .text.HAL_DFSDM_ChannelCkabCallback:00000000 $t
     /tmp/ccrDNuCE.s:978    .text.HAL_DFSDM_ChannelCkabCallback:00000000 HAL_DFSDM_ChannelCkabCallback
     /tmp/ccrDNuCE.s:1008   .text.HAL_DFSDM_ChannelCkabStop_IT:00000000 $t
     /tmp/ccrDNuCE.s:1014   .text.HAL_DFSDM_ChannelCkabStop_IT:00000000 HAL_DFSDM_ChannelCkabStop_IT
     /tmp/ccrDNuCE.s:1092   .text.HAL_DFSDM_ChannelCkabStop_IT:0000005c $d
     /tmp/ccrDNuCE.s:1097   .text.HAL_DFSDM_ChannelScdStart:00000000 $t
     /tmp/ccrDNuCE.s:1103   .text.HAL_DFSDM_ChannelScdStart:00000000 HAL_DFSDM_ChannelScdStart
     /tmp/ccrDNuCE.s:1192   .text.HAL_DFSDM_ChannelPollForScd:00000000 $t
     /tmp/ccrDNuCE.s:1198   .text.HAL_DFSDM_ChannelPollForScd:00000000 HAL_DFSDM_ChannelPollForScd
     /tmp/ccrDNuCE.s:1297   .text.HAL_DFSDM_ChannelPollForScd:0000007c $d
     /tmp/ccrDNuCE.s:1302   .text.HAL_DFSDM_ChannelScdStop:00000000 $t
     /tmp/ccrDNuCE.s:1308   .text.HAL_DFSDM_ChannelScdStop:00000000 HAL_DFSDM_ChannelScdStop
     /tmp/ccrDNuCE.s:1379   .text.HAL_DFSDM_ChannelScdStop:00000050 $d
     /tmp/ccrDNuCE.s:1384   .text.HAL_DFSDM_ChannelScdStart_IT:00000000 $t
     /tmp/ccrDNuCE.s:1390   .text.HAL_DFSDM_ChannelScdStart_IT:00000000 HAL_DFSDM_ChannelScdStart_IT
     /tmp/ccrDNuCE.s:1485   .text.HAL_DFSDM_ChannelScdStart_IT:00000074 $d
     /tmp/ccrDNuCE.s:1490   .text.HAL_DFSDM_ChannelScdCallback:00000000 $t
     /tmp/ccrDNuCE.s:1496   .text.HAL_DFSDM_ChannelScdCallback:00000000 HAL_DFSDM_ChannelScdCallback
     /tmp/ccrDNuCE.s:1526   .text.HAL_DFSDM_ChannelScdStop_IT:00000000 $t
     /tmp/ccrDNuCE.s:1532   .text.HAL_DFSDM_ChannelScdStop_IT:00000000 HAL_DFSDM_ChannelScdStop_IT
     /tmp/ccrDNuCE.s:1610   .text.HAL_DFSDM_ChannelScdStop_IT:0000005c $d
     /tmp/ccrDNuCE.s:1615   .text.HAL_DFSDM_ChannelGetAwdValue:00000000 $t
     /tmp/ccrDNuCE.s:1621   .text.HAL_DFSDM_ChannelGetAwdValue:00000000 HAL_DFSDM_ChannelGetAwdValue
     /tmp/ccrDNuCE.s:1658   .text.HAL_DFSDM_ChannelModifyOffset:00000000 $t
     /tmp/ccrDNuCE.s:1664   .text.HAL_DFSDM_ChannelModifyOffset:00000000 HAL_DFSDM_ChannelModifyOffset
     /tmp/ccrDNuCE.s:1738   .text.HAL_DFSDM_ChannelGetState:00000000 $t
ARM GAS  /tmp/ccrDNuCE.s 			page 184


     /tmp/ccrDNuCE.s:1744   .text.HAL_DFSDM_ChannelGetState:00000000 HAL_DFSDM_ChannelGetState
     /tmp/ccrDNuCE.s:1777   .text.HAL_DFSDM_FilterInit:00000000 $t
     /tmp/ccrDNuCE.s:1783   .text.HAL_DFSDM_FilterInit:00000000 HAL_DFSDM_FilterInit
     /tmp/ccrDNuCE.s:2185   .text.HAL_DFSDM_FilterMspInit:00000000 HAL_DFSDM_FilterMspInit
     /tmp/ccrDNuCE.s:2112   .text.HAL_DFSDM_FilterInit:000001b0 $d
     /tmp/ccrDNuCE.s:2117   .text.HAL_DFSDM_FilterDeInit:00000000 $t
     /tmp/ccrDNuCE.s:2123   .text.HAL_DFSDM_FilterDeInit:00000000 HAL_DFSDM_FilterDeInit
     /tmp/ccrDNuCE.s:2221   .text.HAL_DFSDM_FilterMspDeInit:00000000 HAL_DFSDM_FilterMspDeInit
     /tmp/ccrDNuCE.s:2179   .text.HAL_DFSDM_FilterMspInit:00000000 $t
     /tmp/ccrDNuCE.s:2215   .text.HAL_DFSDM_FilterMspDeInit:00000000 $t
     /tmp/ccrDNuCE.s:2251   .text.HAL_DFSDM_FilterConfigRegChannel:00000000 $t
     /tmp/ccrDNuCE.s:2257   .text.HAL_DFSDM_FilterConfigRegChannel:00000000 HAL_DFSDM_FilterConfigRegChannel
     /tmp/ccrDNuCE.s:2367   .text.HAL_DFSDM_FilterConfigInjChannel:00000000 $t
     /tmp/ccrDNuCE.s:2373   .text.HAL_DFSDM_FilterConfigInjChannel:00000000 HAL_DFSDM_FilterConfigInjChannel
     /tmp/ccrDNuCE.s:6034   .text.DFSDM_GetInjChannelsNbr:00000000 DFSDM_GetInjChannelsNbr
     /tmp/ccrDNuCE.s:2456   .text.HAL_DFSDM_FilterRegularStart:00000000 $t
     /tmp/ccrDNuCE.s:2462   .text.HAL_DFSDM_FilterRegularStart:00000000 HAL_DFSDM_FilterRegularStart
     /tmp/ccrDNuCE.s:6222   .text.DFSDM_RegConvStart:00000000 DFSDM_RegConvStart
     /tmp/ccrDNuCE.s:2516   .text.HAL_DFSDM_FilterPollForRegConversion:00000000 $t
     /tmp/ccrDNuCE.s:2522   .text.HAL_DFSDM_FilterPollForRegConversion:00000000 HAL_DFSDM_FilterPollForRegConversion
     /tmp/ccrDNuCE.s:5722   .text.HAL_DFSDM_FilterErrorCallback:00000000 HAL_DFSDM_FilterErrorCallback
     /tmp/ccrDNuCE.s:2661   .text.HAL_DFSDM_FilterRegularStop:00000000 $t
     /tmp/ccrDNuCE.s:2667   .text.HAL_DFSDM_FilterRegularStop:00000000 HAL_DFSDM_FilterRegularStop
     /tmp/ccrDNuCE.s:6367   .text.DFSDM_RegConvStop:00000000 DFSDM_RegConvStop
     /tmp/ccrDNuCE.s:2720   .text.HAL_DFSDM_FilterRegularStart_IT:00000000 $t
     /tmp/ccrDNuCE.s:2726   .text.HAL_DFSDM_FilterRegularStart_IT:00000000 HAL_DFSDM_FilterRegularStart_IT
     /tmp/ccrDNuCE.s:2791   .text.HAL_DFSDM_FilterRegularStop_IT:00000000 $t
     /tmp/ccrDNuCE.s:2797   .text.HAL_DFSDM_FilterRegularStop_IT:00000000 HAL_DFSDM_FilterRegularStop_IT
     /tmp/ccrDNuCE.s:2861   .text.HAL_DFSDM_FilterRegularStart_DMA:00000000 $t
     /tmp/ccrDNuCE.s:2867   .text.HAL_DFSDM_FilterRegularStart_DMA:00000000 HAL_DFSDM_FilterRegularStart_DMA
     /tmp/ccrDNuCE.s:3065   .text.HAL_DFSDM_FilterRegularStart_DMA:000000f8 $d
     /tmp/ccrDNuCE.s:5874   .text.DFSDM_DMARegularConvCplt:00000000 DFSDM_DMARegularConvCplt
     /tmp/ccrDNuCE.s:5991   .text.DFSDM_DMAError:00000000 DFSDM_DMAError
     /tmp/ccrDNuCE.s:5835   .text.DFSDM_DMARegularHalfConvCplt:00000000 DFSDM_DMARegularHalfConvCplt
     /tmp/ccrDNuCE.s:3072   .text.HAL_DFSDM_FilterRegularMsbStart_DMA:00000000 $t
     /tmp/ccrDNuCE.s:3078   .text.HAL_DFSDM_FilterRegularMsbStart_DMA:00000000 HAL_DFSDM_FilterRegularMsbStart_DMA
     /tmp/ccrDNuCE.s:3276   .text.HAL_DFSDM_FilterRegularMsbStart_DMA:000000f8 $d
     /tmp/ccrDNuCE.s:3283   .text.HAL_DFSDM_FilterRegularStop_DMA:00000000 $t
     /tmp/ccrDNuCE.s:3289   .text.HAL_DFSDM_FilterRegularStop_DMA:00000000 HAL_DFSDM_FilterRegularStop_DMA
     /tmp/ccrDNuCE.s:3347   .text.HAL_DFSDM_FilterGetRegularValue:00000000 $t
     /tmp/ccrDNuCE.s:3353   .text.HAL_DFSDM_FilterGetRegularValue:00000000 HAL_DFSDM_FilterGetRegularValue
     /tmp/ccrDNuCE.s:3411   .text.HAL_DFSDM_FilterInjectedStart:00000000 $t
     /tmp/ccrDNuCE.s:3417   .text.HAL_DFSDM_FilterInjectedStart:00000000 HAL_DFSDM_FilterInjectedStart
     /tmp/ccrDNuCE.s:6500   .text.DFSDM_InjConvStart:00000000 DFSDM_InjConvStart
     /tmp/ccrDNuCE.s:3471   .text.HAL_DFSDM_FilterPollForInjConversion:00000000 $t
     /tmp/ccrDNuCE.s:3477   .text.HAL_DFSDM_FilterPollForInjConversion:00000000 HAL_DFSDM_FilterPollForInjConversion
     /tmp/ccrDNuCE.s:3641   .text.HAL_DFSDM_FilterInjectedStop:00000000 $t
     /tmp/ccrDNuCE.s:3647   .text.HAL_DFSDM_FilterInjectedStop:00000000 HAL_DFSDM_FilterInjectedStop
     /tmp/ccrDNuCE.s:6650   .text.DFSDM_InjConvStop:00000000 DFSDM_InjConvStop
     /tmp/ccrDNuCE.s:3700   .text.HAL_DFSDM_FilterInjectedStart_IT:00000000 $t
     /tmp/ccrDNuCE.s:3706   .text.HAL_DFSDM_FilterInjectedStart_IT:00000000 HAL_DFSDM_FilterInjectedStart_IT
     /tmp/ccrDNuCE.s:3771   .text.HAL_DFSDM_FilterInjectedStop_IT:00000000 $t
     /tmp/ccrDNuCE.s:3777   .text.HAL_DFSDM_FilterInjectedStop_IT:00000000 HAL_DFSDM_FilterInjectedStop_IT
     /tmp/ccrDNuCE.s:3841   .text.HAL_DFSDM_FilterInjectedStart_DMA:00000000 $t
     /tmp/ccrDNuCE.s:3847   .text.HAL_DFSDM_FilterInjectedStart_DMA:00000000 HAL_DFSDM_FilterInjectedStart_DMA
     /tmp/ccrDNuCE.s:4036   .text.HAL_DFSDM_FilterInjectedStart_DMA:000000e8 $d
     /tmp/ccrDNuCE.s:5952   .text.DFSDM_DMAInjectedConvCplt:00000000 DFSDM_DMAInjectedConvCplt
ARM GAS  /tmp/ccrDNuCE.s 			page 185


     /tmp/ccrDNuCE.s:5913   .text.DFSDM_DMAInjectedHalfConvCplt:00000000 DFSDM_DMAInjectedHalfConvCplt
     /tmp/ccrDNuCE.s:4043   .text.HAL_DFSDM_FilterInjectedMsbStart_DMA:00000000 $t
     /tmp/ccrDNuCE.s:4049   .text.HAL_DFSDM_FilterInjectedMsbStart_DMA:00000000 HAL_DFSDM_FilterInjectedMsbStart_DMA
     /tmp/ccrDNuCE.s:4238   .text.HAL_DFSDM_FilterInjectedMsbStart_DMA:000000e8 $d
     /tmp/ccrDNuCE.s:4245   .text.HAL_DFSDM_FilterInjectedStop_DMA:00000000 $t
     /tmp/ccrDNuCE.s:4251   .text.HAL_DFSDM_FilterInjectedStop_DMA:00000000 HAL_DFSDM_FilterInjectedStop_DMA
     /tmp/ccrDNuCE.s:4309   .text.HAL_DFSDM_FilterGetInjectedValue:00000000 $t
     /tmp/ccrDNuCE.s:4315   .text.HAL_DFSDM_FilterGetInjectedValue:00000000 HAL_DFSDM_FilterGetInjectedValue
     /tmp/ccrDNuCE.s:4373   .text.HAL_DFSDM_FilterAwdStart_IT:00000000 $t
     /tmp/ccrDNuCE.s:4379   .text.HAL_DFSDM_FilterAwdStart_IT:00000000 HAL_DFSDM_FilterAwdStart_IT
     /tmp/ccrDNuCE.s:4552   .text.HAL_DFSDM_FilterAwdStop_IT:00000000 $t
     /tmp/ccrDNuCE.s:4558   .text.HAL_DFSDM_FilterAwdStop_IT:00000000 HAL_DFSDM_FilterAwdStop_IT
     /tmp/ccrDNuCE.s:4663   .text.HAL_DFSDM_FilterExdStart:00000000 $t
     /tmp/ccrDNuCE.s:4669   .text.HAL_DFSDM_FilterExdStart:00000000 HAL_DFSDM_FilterExdStart
     /tmp/ccrDNuCE.s:4751   .text.HAL_DFSDM_FilterExdStop:00000000 $t
     /tmp/ccrDNuCE.s:4757   .text.HAL_DFSDM_FilterExdStop:00000000 HAL_DFSDM_FilterExdStop
     /tmp/ccrDNuCE.s:4840   .text.HAL_DFSDM_FilterGetExdMaxValue:00000000 $t
     /tmp/ccrDNuCE.s:4846   .text.HAL_DFSDM_FilterGetExdMaxValue:00000000 HAL_DFSDM_FilterGetExdMaxValue
     /tmp/ccrDNuCE.s:4904   .text.HAL_DFSDM_FilterGetExdMinValue:00000000 $t
     /tmp/ccrDNuCE.s:4910   .text.HAL_DFSDM_FilterGetExdMinValue:00000000 HAL_DFSDM_FilterGetExdMinValue
     /tmp/ccrDNuCE.s:4968   .text.HAL_DFSDM_FilterGetConvTimeValue:00000000 $t
     /tmp/ccrDNuCE.s:4974   .text.HAL_DFSDM_FilterGetConvTimeValue:00000000 HAL_DFSDM_FilterGetConvTimeValue
     /tmp/ccrDNuCE.s:5016   .text.HAL_DFSDM_IRQHandler:00000000 $t
     /tmp/ccrDNuCE.s:5022   .text.HAL_DFSDM_IRQHandler:00000000 HAL_DFSDM_IRQHandler
     /tmp/ccrDNuCE.s:5540   .text.HAL_DFSDM_FilterRegConvCpltCallback:00000000 HAL_DFSDM_FilterRegConvCpltCallback
     /tmp/ccrDNuCE.s:5612   .text.HAL_DFSDM_FilterInjConvCpltCallback:00000000 HAL_DFSDM_FilterInjConvCpltCallback
     /tmp/ccrDNuCE.s:5684   .text.HAL_DFSDM_FilterAwdCallback:00000000 HAL_DFSDM_FilterAwdCallback
     /tmp/ccrDNuCE.s:5528   .text.HAL_DFSDM_IRQHandler:000002c0 $d
     /tmp/ccrDNuCE.s:5534   .text.HAL_DFSDM_FilterRegConvCpltCallback:00000000 $t
     /tmp/ccrDNuCE.s:5570   .text.HAL_DFSDM_FilterRegConvHalfCpltCallback:00000000 $t
     /tmp/ccrDNuCE.s:5576   .text.HAL_DFSDM_FilterRegConvHalfCpltCallback:00000000 HAL_DFSDM_FilterRegConvHalfCpltCallback
     /tmp/ccrDNuCE.s:5606   .text.HAL_DFSDM_FilterInjConvCpltCallback:00000000 $t
     /tmp/ccrDNuCE.s:5642   .text.HAL_DFSDM_FilterInjConvHalfCpltCallback:00000000 $t
     /tmp/ccrDNuCE.s:5648   .text.HAL_DFSDM_FilterInjConvHalfCpltCallback:00000000 HAL_DFSDM_FilterInjConvHalfCpltCallback
     /tmp/ccrDNuCE.s:5678   .text.HAL_DFSDM_FilterAwdCallback:00000000 $t
     /tmp/ccrDNuCE.s:5716   .text.HAL_DFSDM_FilterErrorCallback:00000000 $t
     /tmp/ccrDNuCE.s:5752   .text.HAL_DFSDM_FilterGetState:00000000 $t
     /tmp/ccrDNuCE.s:5758   .text.HAL_DFSDM_FilterGetState:00000000 HAL_DFSDM_FilterGetState
     /tmp/ccrDNuCE.s:5791   .text.HAL_DFSDM_FilterGetError:00000000 $t
     /tmp/ccrDNuCE.s:5797   .text.HAL_DFSDM_FilterGetError:00000000 HAL_DFSDM_FilterGetError
     /tmp/ccrDNuCE.s:5830   .text.DFSDM_DMARegularHalfConvCplt:00000000 $t
     /tmp/ccrDNuCE.s:5869   .text.DFSDM_DMARegularConvCplt:00000000 $t
     /tmp/ccrDNuCE.s:5908   .text.DFSDM_DMAInjectedHalfConvCplt:00000000 $t
     /tmp/ccrDNuCE.s:5947   .text.DFSDM_DMAInjectedConvCplt:00000000 $t
     /tmp/ccrDNuCE.s:5986   .text.DFSDM_DMAError:00000000 $t
     /tmp/ccrDNuCE.s:6029   .text.DFSDM_GetInjChannelsNbr:00000000 $t
     /tmp/ccrDNuCE.s:6096   .text.DFSDM_GetChannelFromInstance:00000000 $t
     /tmp/ccrDNuCE.s:6206   .text.DFSDM_GetChannelFromInstance:0000007c $d
     /tmp/ccrDNuCE.s:6217   .text.DFSDM_RegConvStart:00000000 $t
     /tmp/ccrDNuCE.s:6362   .text.DFSDM_RegConvStop:00000000 $t
     /tmp/ccrDNuCE.s:6495   .text.DFSDM_InjConvStart:00000000 $t
     /tmp/ccrDNuCE.s:6645   .text.DFSDM_InjConvStop:00000000 $t
                           .group:00000000 wm4.0.e7b64c2c371cf922f2c8028878d5c18e
                           .group:00000000 wm4.stm32l4xx_hal_conf.h.23.286c2f63aaa73ed97ffb4d26f7caa6e9
                           .group:00000000 wm4.stm32l4xx.h.38.9f5830373ca31b8a3cd182fdc6c7b69a
                           .group:00000000 wm4.stm32l475xx.h.34.2f1a75aed66751e299f09004aef64973
                           .group:00000000 wm4.stdint.h.29.6d480f4ba0f60596e88234283d42444f
ARM GAS  /tmp/ccrDNuCE.s 			page 186


                           .group:00000000 wm4.cmsis_version.h.32.46e8eccfa2cfeaae11d008bb2823a3ed
                           .group:00000000 wm4.core_cm4.h.66.e4ff136c4a17abc46741866f64f8e729
                           .group:00000000 wm4.cmsis_gcc.h.26.78077cef1206e937f7b56043ffca496a
                           .group:00000000 wm4.core_cm4.h.174.fcddd62df80231752fa39eb9b61dadfe
                           .group:00000000 wm4.mpu_armv7.h.32.4049752bb5792d4e15357775e9506cfc
                           .group:00000000 wm4.stm32l475xx.h.423.4d783859c9ac66890c9807dd7bd3a4db
                           .group:00000000 wm4.stm32l4xx.h.196.f5ae8047c57b6175c94f246ef967a286
                           .group:00000000 wm4.stm32_hal_legacy.h.22.08b8350ccf512ba8d98002fb33e7cbe5
                           .group:00000000 wm4.stddef.h.39.0dc9006b34572d4d9cae4c8b422c4971
                           .group:00000000 wm4.stm32l4xx_hal_def.h.58.1058a33f7217e935f2a6b51956d66a69
                           .group:00000000 wm4.stm32l4xx_hal_rcc.h.156.ab8eecc4e10f4827a2aa75d3549a356d
                           .group:00000000 wm4.stm32l4xx_hal_rcc_ex.h.20.4a82a27d561b6d42fa16a54f82e29067
                           .group:00000000 wm4.stm32l4xx_hal_gpio.h.21.2d2b1fd6aa6afa7b6dcc89cf752a9a25
                           .group:00000000 wm4.stm32l4xx_hal_gpio_ex.h.21.7ea705f5185dd3c6b8ea336f2858cd46
                           .group:00000000 wm4.stm32l4xx_ll_dma.h.21.b30e7f48d60d1fc53041ec1e3fd6e54a
                           .group:00000000 wm4.stm32l4xx_hal_dma.h.166.54a7f8d65cee6f051d541dc010387b5a
                           .group:00000000 wm4.stm32l4xx_hal_dfsdm.h.21.6785e38d00075079c7f2e5657def82ae
                           .group:00000000 wm4.stm32l4xx_hal_cortex.h.21.cb491126bd2d6f44e90b66f27acb8434
                           .group:00000000 wm4.stm32l4xx_ll_adc.h.21.0c578f71501c74365c67044efed214d6
                           .group:00000000 wm4.stm32l4xx_hal_adc.h.411.68f60682cdb20556089756a482f23764
                           .group:00000000 wm4.stm32l4xx_hal_adc_ex.h.21.7b82cb80166a21dfa8cb3e2fa8f8e654
                           .group:00000000 wm4.stm32l4xx_hal_can.h.21.5019586d8e7137c0cec16eb1f9d6677b
                           .group:00000000 wm4.stm32l4xx_ll_exti.h.21.d866eff070d6f999af2ce4ea60aa40ac
                           .group:00000000 wm4.stm32l4xx_hal_comp.h.87.7f14cb673a463359c83faa552328844d
                           .group:00000000 wm4.stm32l4xx_hal_crc.h.21.4c36a140cca35e6a8e478e76c6ad98e3
                           .group:00000000 wm4.stm32l4xx_hal_crc_ex.h.21.9cc3dead436542d416ee5572c231a242
                           .group:00000000 wm4.stm32l4xx_hal_dac.h.21.69feba704135531cf3d9b92de27b71d5
                           .group:00000000 wm4.stm32l4xx_hal_dac_ex.h.21.c86699169bead5415cc3e94027b67df4
                           .group:00000000 wm4.stm32l4xx_hal_exti.h.21.242e0410874d91d6d7523948fff74125
                           .group:00000000 wm4.stm32l4xx_hal_firewall.h.21.7ed44f4228fcc2ef96d2177dd8632645
                           .group:00000000 wm4.stm32l4xx_hal_flash.h.20.5e337018ccfa211b4afe888a79aae9f5
                           .group:00000000 wm4.stm32l4xx_hal_flash.h.846.0445f6ea07a3f9aac82891c8687d96fb
                           .group:00000000 wm4.stm32l4xx_ll_usb.h.21.5b5e42fb72a33dd326d7b20064953946
                           .group:00000000 wm4.stm32l4xx_hal_hcd.h.107.73f2fd24f57e8822da5cc86bd5ad3dfd
                           .group:00000000 wm4.stm32l4xx_hal_i2c.h.21.e7fc2065051c77019a818818e4a637d8
                           .group:00000000 wm4.stm32l4xx_hal_i2c_ex.h.21.ad4ad4e558d4fec06df87d163a6927d7
                           .group:00000000 wm4.stm32l4xx_hal_i2c.h.737.fa3908c81294cf0f9894ae336466002c
                           .group:00000000 wm4.stm32l4xx_hal_irda.h.21.136c042f9eef333167a549cc099df0c9
                           .group:00000000 wm4.stm32l4xx_hal_irda_ex.h.21.e0ada4e6d2b2cadfb512dd3c8ac0a637
                           .group:00000000 wm4.stm32l4xx_hal_iwdg.h.21.f94ca75f2fe1ebc7a2a8d0f5b58d8430
                           .group:00000000 wm4.stm32l4xx_hal_lptim.h.21.78222ea6639fc8c02789d293a048991e
                           .group:00000000 wm4.stm32l4xx_ll_sdmmc.h.21.65a5a8696b6ca7b87cc93d218084d702
                           .group:00000000 wm4.stm32l4xx_hal_mmc.h.69.8f4159f0a88ef1ebc33c58a8f10362b9
                           .group:00000000 wm4.stm32l4xx_ll_fmc.h.21.156a244c55010643ee92c6119049cb68
                           .group:00000000 wm4.stm32l4xx_hal_nand.h.176.9bfeac6e4e757991088bbd0df44e2be9
                           .group:00000000 wm4.stm32l4xx_hal_nor.h.21.d47e91e825f466bbac02fac0a7845a7a
                           .group:00000000 wm4.stm32l4xx_hal_opamp.h.21.9d841e1eaccee939f247b3f973f8af5f
                           .group:00000000 wm4.stm32l4xx_hal_pcd.h.169.addb1fac652268a18a0707cfcb5e2e47
                           .group:00000000 wm4.stm32l4xx_hal_pwr.h.21.7ddab2caa97243c36e496eca17b27618
                           .group:00000000 wm4.stm32l4xx_hal_pwr_ex.h.21.65ad8bbdbcb1950d945c0de10f22dc80
                           .group:00000000 wm4.stm32l4xx_hal_qspi.h.21.0291dad4eaa82101f2f77d76315c9b12
                           .group:00000000 wm4.stm32l4xx_hal_rng.h.21.96593715bdeab0c74ac9dfc538fb2feb
                           .group:00000000 wm4.stm32l4xx_hal_rtc.h.21.9da6b1aeebde99930891f803cb7f9678
                           .group:00000000 wm4.stm32l4xx_hal_rtc_ex.h.21.c692539378320719c7f2a2da1ca64502
                           .group:00000000 wm4.stm32l4xx_hal_rtc.h.999.c8bd9450c783628bd606ecb31bea5cc9
                           .group:00000000 wm4.stm32l4xx_hal_sai.h.21.c1165aaf2bbde65fae28ed4817be5cc5
                           .group:00000000 wm4.stm32l4xx_hal_sd.h.21.b395c90a87e82f7e8d77d4a518036063
ARM GAS  /tmp/ccrDNuCE.s 			page 187


                           .group:00000000 wm4.stm32l4xx_hal_smartcard.h.21.423c3ad63e0df35b864303e89e6d253c
                           .group:00000000 wm4.stm32l4xx_hal_smartcard_ex.h.21.801a2ce9252a785aec000b3fc7667a74
                           .group:00000000 wm4.stm32l4xx_hal_smbus.h.21.7480adb16468bfdce819ee591f21299e
                           .group:00000000 wm4.stm32l4xx_hal_smbus_ex.h.21.bdc715f5f6fb6612a871d3c03c3b871f
                           .group:00000000 wm4.stm32l4xx_hal_spi.h.21.3b51f9f7b241962f6b3483c47a43334f
                           .group:00000000 wm4.stm32l4xx_hal_sram.h.21.285210181e158bddc1cdde63dde572fd
                           .group:00000000 wm4.stm32l4xx_hal_swpmi.h.21.787f994f40b117a62aad9a6dd408b8fc
                           .group:00000000 wm4.stm32l4xx_hal_tim.h.21.d190832030e7505384ad081daa7ba8d6
                           .group:00000000 wm4.stm32l4xx_hal_tim_ex.h.21.1d0860218366ee9f64a97fd8af0ddee1
                           .group:00000000 wm4.stm32l4xx_hal_tsc.h.21.e9010049847ea38297d4b95a5ede0d8c
                           .group:00000000 wm4.stm32l4xx_hal_uart.h.21.480c0a64ca01596a921cda9dceb01df4
                           .group:00000000 wm4.stm32l4xx_hal_uart_ex.h.21.d793e64693c93af07c90464aef42bd83
                           .group:00000000 wm4.stm32l4xx_hal_usart.h.21.561c0058e33cb8df6671dcd29d5d25f9
                           .group:00000000 wm4.stm32l4xx_hal_usart_ex.h.21.111da650523691ebc80d64103d7b26e5
                           .group:00000000 wm4.stm32l4xx_hal_wwdg.h.21.073aa79d58120ae4fb8590c46b210051
                           .group:00000000 wm4.stm32l4xx_hal.h.75.d364b3778b3801d2f66bb409c48d396d

UNDEFINED SYMBOLS
HAL_GetTick
HAL_DMA_Start_IT
HAL_DMA_Abort
