ARM GAS  /tmp/cc8wC0d3.s 			page 1


   1              		.cpu cortex-m4
   2              		.arch armv7e-m
   3              		.fpu fpv4-sp-d16
   4              		.eabi_attribute 27, 1
   5              		.eabi_attribute 28, 1
   6              		.eabi_attribute 20, 1
   7              		.eabi_attribute 21, 1
   8              		.eabi_attribute 23, 3
   9              		.eabi_attribute 24, 1
  10              		.eabi_attribute 25, 1
  11              		.eabi_attribute 26, 1
  12              		.eabi_attribute 30, 6
  13              		.eabi_attribute 34, 1
  14              		.eabi_attribute 18, 4
  15              		.file	"stm32l4xx_hal_dac.c"
  16              		.text
  17              	.Ltext0:
  18              		.cfi_sections	.debug_frame
  19              		.file 1 "Drivers/STM32L4xx_HAL_Driver/Src/stm32l4xx_hal_dac.c"
  20              		.section	.rodata.CHANNEL_OFFSET_TAB,"a"
  21              		.align	2
  24              	CHANNEL_OFFSET_TAB:
  25 0000 081C3044 		.ascii	"\010\0340DXl\200"
  25      586C80
  26              		.section	.text.HAL_DAC_Init,"ax",%progbits
  27              		.align	1
  28              		.global	HAL_DAC_Init
  29              		.syntax unified
  30              		.thumb
  31              		.thumb_func
  33              	HAL_DAC_Init:
  34              	.LFB445:
   1:Drivers/STM32L4xx_HAL_Driver/Src/stm32l4xx_hal_dac.c **** /**
   2:Drivers/STM32L4xx_HAL_Driver/Src/stm32l4xx_hal_dac.c ****   ******************************************************************************
   3:Drivers/STM32L4xx_HAL_Driver/Src/stm32l4xx_hal_dac.c ****   * @file    stm32l4xx_hal_dac.c
   4:Drivers/STM32L4xx_HAL_Driver/Src/stm32l4xx_hal_dac.c ****   * @author  MCD Application Team
   5:Drivers/STM32L4xx_HAL_Driver/Src/stm32l4xx_hal_dac.c ****   * @brief   DAC HAL module driver.
   6:Drivers/STM32L4xx_HAL_Driver/Src/stm32l4xx_hal_dac.c ****   *         This file provides firmware functions to manage the following
   7:Drivers/STM32L4xx_HAL_Driver/Src/stm32l4xx_hal_dac.c ****   *         functionalities of the Digital to Analog Converter (DAC) peripheral:
   8:Drivers/STM32L4xx_HAL_Driver/Src/stm32l4xx_hal_dac.c ****   *           + Initialization and de-initialization functions
   9:Drivers/STM32L4xx_HAL_Driver/Src/stm32l4xx_hal_dac.c ****   *           + Peripheral Control functions
  10:Drivers/STM32L4xx_HAL_Driver/Src/stm32l4xx_hal_dac.c ****   *           + Peripheral State and Errors functions
  11:Drivers/STM32L4xx_HAL_Driver/Src/stm32l4xx_hal_dac.c ****   *
  12:Drivers/STM32L4xx_HAL_Driver/Src/stm32l4xx_hal_dac.c ****   *
  13:Drivers/STM32L4xx_HAL_Driver/Src/stm32l4xx_hal_dac.c ****   ******************************************************************************
  14:Drivers/STM32L4xx_HAL_Driver/Src/stm32l4xx_hal_dac.c ****   * @attention
  15:Drivers/STM32L4xx_HAL_Driver/Src/stm32l4xx_hal_dac.c ****   *
  16:Drivers/STM32L4xx_HAL_Driver/Src/stm32l4xx_hal_dac.c ****   * Copyright (c) 2017 STMicroelectronics.
  17:Drivers/STM32L4xx_HAL_Driver/Src/stm32l4xx_hal_dac.c ****   * All rights reserved.
  18:Drivers/STM32L4xx_HAL_Driver/Src/stm32l4xx_hal_dac.c ****   *
  19:Drivers/STM32L4xx_HAL_Driver/Src/stm32l4xx_hal_dac.c ****   * This software is licensed under terms that can be found in the LICENSE file
  20:Drivers/STM32L4xx_HAL_Driver/Src/stm32l4xx_hal_dac.c ****   * in the root directory of this software component.
  21:Drivers/STM32L4xx_HAL_Driver/Src/stm32l4xx_hal_dac.c ****   * If no LICENSE file comes with this software, it is provided AS-IS.
  22:Drivers/STM32L4xx_HAL_Driver/Src/stm32l4xx_hal_dac.c ****   *
  23:Drivers/STM32L4xx_HAL_Driver/Src/stm32l4xx_hal_dac.c ****   ******************************************************************************
  24:Drivers/STM32L4xx_HAL_Driver/Src/stm32l4xx_hal_dac.c ****   @verbatim
  25:Drivers/STM32L4xx_HAL_Driver/Src/stm32l4xx_hal_dac.c ****   ==============================================================================
ARM GAS  /tmp/cc8wC0d3.s 			page 2


  26:Drivers/STM32L4xx_HAL_Driver/Src/stm32l4xx_hal_dac.c ****                       ##### DAC Peripheral features #####
  27:Drivers/STM32L4xx_HAL_Driver/Src/stm32l4xx_hal_dac.c ****   ==============================================================================
  28:Drivers/STM32L4xx_HAL_Driver/Src/stm32l4xx_hal_dac.c ****     [..]
  29:Drivers/STM32L4xx_HAL_Driver/Src/stm32l4xx_hal_dac.c ****       *** DAC Channels ***
  30:Drivers/STM32L4xx_HAL_Driver/Src/stm32l4xx_hal_dac.c ****       ====================
  31:Drivers/STM32L4xx_HAL_Driver/Src/stm32l4xx_hal_dac.c ****     [..]
  32:Drivers/STM32L4xx_HAL_Driver/Src/stm32l4xx_hal_dac.c ****     STM32L4 devices integrate one or two 12-bit Digital Analog Converters
  33:Drivers/STM32L4xx_HAL_Driver/Src/stm32l4xx_hal_dac.c ****     (i.e. one or 2 channel(s))
  34:Drivers/STM32L4xx_HAL_Driver/Src/stm32l4xx_hal_dac.c ****     1 channel : STM32L451xx STM32L452xx STM32L462xx
  35:Drivers/STM32L4xx_HAL_Driver/Src/stm32l4xx_hal_dac.c ****     2 channels: STM32L431xx STM32L432xx STM32L433xx STM32L442xx STM32L443xx
  36:Drivers/STM32L4xx_HAL_Driver/Src/stm32l4xx_hal_dac.c ****                 STM32L471xx STM32L475xx STM32L476xx STM32L485xx STM32L486xx STM32L496xx STM32L4A6xx
  37:Drivers/STM32L4xx_HAL_Driver/Src/stm32l4xx_hal_dac.c ****                 STM32L4P5xx STM32L4Q5xx
  38:Drivers/STM32L4xx_HAL_Driver/Src/stm32l4xx_hal_dac.c ****                 STM32L4R5xx STM32L4R7xx STM32L4R9xx STM32L4S5xx STM32L4S7xx STM32L4S9xx
  39:Drivers/STM32L4xx_HAL_Driver/Src/stm32l4xx_hal_dac.c **** 
  40:Drivers/STM32L4xx_HAL_Driver/Src/stm32l4xx_hal_dac.c ****     When 2 channels are available, the 2 converters (i.e. channel1 & channel2)
  41:Drivers/STM32L4xx_HAL_Driver/Src/stm32l4xx_hal_dac.c ****     can be used independently or simultaneously (dual mode):
  42:Drivers/STM32L4xx_HAL_Driver/Src/stm32l4xx_hal_dac.c ****       (#) DAC channel1 with DAC_OUT1 (PA4) as output or connected to on-chip
  43:Drivers/STM32L4xx_HAL_Driver/Src/stm32l4xx_hal_dac.c ****           peripherals.
  44:Drivers/STM32L4xx_HAL_Driver/Src/stm32l4xx_hal_dac.c ****       (#) Whenever present, DAC channel2 with DAC_OUT2 (PA5) as output
  45:Drivers/STM32L4xx_HAL_Driver/Src/stm32l4xx_hal_dac.c ****           or connected to on-chip peripherals.
  46:Drivers/STM32L4xx_HAL_Driver/Src/stm32l4xx_hal_dac.c **** 
  47:Drivers/STM32L4xx_HAL_Driver/Src/stm32l4xx_hal_dac.c ****       *** DAC Triggers ***
  48:Drivers/STM32L4xx_HAL_Driver/Src/stm32l4xx_hal_dac.c ****       ====================
  49:Drivers/STM32L4xx_HAL_Driver/Src/stm32l4xx_hal_dac.c ****     [..]
  50:Drivers/STM32L4xx_HAL_Driver/Src/stm32l4xx_hal_dac.c ****     Digital to Analog conversion can be non-triggered using DAC_TRIGGER_NONE
  51:Drivers/STM32L4xx_HAL_Driver/Src/stm32l4xx_hal_dac.c ****     and DAC_OUT1/DAC_OUT2 is available once writing to DHRx register.
  52:Drivers/STM32L4xx_HAL_Driver/Src/stm32l4xx_hal_dac.c ****     [..]
  53:Drivers/STM32L4xx_HAL_Driver/Src/stm32l4xx_hal_dac.c ****     Digital to Analog conversion can be triggered by:
  54:Drivers/STM32L4xx_HAL_Driver/Src/stm32l4xx_hal_dac.c ****       (#) External event: EXTI Line 9 (any GPIOx_PIN_9) using DAC_TRIGGER_EXT_IT9.
  55:Drivers/STM32L4xx_HAL_Driver/Src/stm32l4xx_hal_dac.c ****           The used pin (GPIOx_PIN_9) must be configured in input mode.
  56:Drivers/STM32L4xx_HAL_Driver/Src/stm32l4xx_hal_dac.c **** 
  57:Drivers/STM32L4xx_HAL_Driver/Src/stm32l4xx_hal_dac.c ****       (#) Timers TRGO: TIM2, TIM3, TIM4, TIM5, TIM6 and TIM7
  58:Drivers/STM32L4xx_HAL_Driver/Src/stm32l4xx_hal_dac.c ****           (DAC_TRIGGER_T2_TRGO, DAC_TRIGGER_T3_TRGO...)
  59:Drivers/STM32L4xx_HAL_Driver/Src/stm32l4xx_hal_dac.c **** 
  60:Drivers/STM32L4xx_HAL_Driver/Src/stm32l4xx_hal_dac.c ****       (#) Software using DAC_TRIGGER_SOFTWARE
  61:Drivers/STM32L4xx_HAL_Driver/Src/stm32l4xx_hal_dac.c **** 
  62:Drivers/STM32L4xx_HAL_Driver/Src/stm32l4xx_hal_dac.c ****       *** DAC Buffer mode feature ***
  63:Drivers/STM32L4xx_HAL_Driver/Src/stm32l4xx_hal_dac.c ****       ===============================
  64:Drivers/STM32L4xx_HAL_Driver/Src/stm32l4xx_hal_dac.c ****       [..]
  65:Drivers/STM32L4xx_HAL_Driver/Src/stm32l4xx_hal_dac.c ****       Each DAC channel integrates an output buffer that can be used to
  66:Drivers/STM32L4xx_HAL_Driver/Src/stm32l4xx_hal_dac.c ****       reduce the output impedance, and to drive external loads directly
  67:Drivers/STM32L4xx_HAL_Driver/Src/stm32l4xx_hal_dac.c ****       without having to add an external operational amplifier.
  68:Drivers/STM32L4xx_HAL_Driver/Src/stm32l4xx_hal_dac.c ****       To enable, the output buffer use
  69:Drivers/STM32L4xx_HAL_Driver/Src/stm32l4xx_hal_dac.c ****       sConfig.DAC_OutputBuffer = DAC_OUTPUTBUFFER_ENABLE;
  70:Drivers/STM32L4xx_HAL_Driver/Src/stm32l4xx_hal_dac.c ****       [..]
  71:Drivers/STM32L4xx_HAL_Driver/Src/stm32l4xx_hal_dac.c ****       (@) Refer to the device datasheet for more details about output
  72:Drivers/STM32L4xx_HAL_Driver/Src/stm32l4xx_hal_dac.c ****           impedance value with and without output buffer.
  73:Drivers/STM32L4xx_HAL_Driver/Src/stm32l4xx_hal_dac.c **** 
  74:Drivers/STM32L4xx_HAL_Driver/Src/stm32l4xx_hal_dac.c ****       *** DAC connect feature ***
  75:Drivers/STM32L4xx_HAL_Driver/Src/stm32l4xx_hal_dac.c ****       ===============================
  76:Drivers/STM32L4xx_HAL_Driver/Src/stm32l4xx_hal_dac.c ****       [..]
  77:Drivers/STM32L4xx_HAL_Driver/Src/stm32l4xx_hal_dac.c ****       Each DAC channel can be connected internally.
  78:Drivers/STM32L4xx_HAL_Driver/Src/stm32l4xx_hal_dac.c ****       To connect, use
  79:Drivers/STM32L4xx_HAL_Driver/Src/stm32l4xx_hal_dac.c ****       sConfig.DAC_ConnectOnChipPeripheral = DAC_CHIPCONNECT_ENABLE;
  80:Drivers/STM32L4xx_HAL_Driver/Src/stm32l4xx_hal_dac.c **** 
  81:Drivers/STM32L4xx_HAL_Driver/Src/stm32l4xx_hal_dac.c ****       *** GPIO configurations guidelines ***
  82:Drivers/STM32L4xx_HAL_Driver/Src/stm32l4xx_hal_dac.c ****       =====================
ARM GAS  /tmp/cc8wC0d3.s 			page 3


  83:Drivers/STM32L4xx_HAL_Driver/Src/stm32l4xx_hal_dac.c ****       [..]
  84:Drivers/STM32L4xx_HAL_Driver/Src/stm32l4xx_hal_dac.c ****       When a DAC channel is used (ex channel1 on PA4) and the other is not
  85:Drivers/STM32L4xx_HAL_Driver/Src/stm32l4xx_hal_dac.c ****       (ex channel2 on PA5 is configured in Analog and disabled).
  86:Drivers/STM32L4xx_HAL_Driver/Src/stm32l4xx_hal_dac.c ****       Channel1 may disturb channel2 as coupling effect.
  87:Drivers/STM32L4xx_HAL_Driver/Src/stm32l4xx_hal_dac.c ****       Note that there is no coupling on channel2 as soon as channel2 is turned on.
  88:Drivers/STM32L4xx_HAL_Driver/Src/stm32l4xx_hal_dac.c ****       Coupling on adjacent channel could be avoided as follows:
  89:Drivers/STM32L4xx_HAL_Driver/Src/stm32l4xx_hal_dac.c ****       when unused PA5 is configured as INPUT PULL-UP or DOWN.
  90:Drivers/STM32L4xx_HAL_Driver/Src/stm32l4xx_hal_dac.c ****       PA5 is configured in ANALOG just before it is turned on.
  91:Drivers/STM32L4xx_HAL_Driver/Src/stm32l4xx_hal_dac.c **** 
  92:Drivers/STM32L4xx_HAL_Driver/Src/stm32l4xx_hal_dac.c ****       *** DAC Sample and Hold feature ***
  93:Drivers/STM32L4xx_HAL_Driver/Src/stm32l4xx_hal_dac.c ****       ========================
  94:Drivers/STM32L4xx_HAL_Driver/Src/stm32l4xx_hal_dac.c ****       [..]
  95:Drivers/STM32L4xx_HAL_Driver/Src/stm32l4xx_hal_dac.c ****       For each converter, 2 modes are supported: normal mode and
  96:Drivers/STM32L4xx_HAL_Driver/Src/stm32l4xx_hal_dac.c ****       "sample and hold" mode (i.e. low power mode).
  97:Drivers/STM32L4xx_HAL_Driver/Src/stm32l4xx_hal_dac.c ****       In the sample and hold mode, the DAC core converts data, then holds the
  98:Drivers/STM32L4xx_HAL_Driver/Src/stm32l4xx_hal_dac.c ****       converted voltage on a capacitor. When not converting, the DAC cores and
  99:Drivers/STM32L4xx_HAL_Driver/Src/stm32l4xx_hal_dac.c ****       buffer are completely turned off between samples and the DAC output is
 100:Drivers/STM32L4xx_HAL_Driver/Src/stm32l4xx_hal_dac.c ****       tri-stated, therefore  reducing the overall power consumption. A new
 101:Drivers/STM32L4xx_HAL_Driver/Src/stm32l4xx_hal_dac.c ****       stabilization period is needed before each new conversion.
 102:Drivers/STM32L4xx_HAL_Driver/Src/stm32l4xx_hal_dac.c **** 
 103:Drivers/STM32L4xx_HAL_Driver/Src/stm32l4xx_hal_dac.c ****       The sample and hold allow setting internal or external voltage @
 104:Drivers/STM32L4xx_HAL_Driver/Src/stm32l4xx_hal_dac.c ****       low power consumption cost (output value can be at any given rate either
 105:Drivers/STM32L4xx_HAL_Driver/Src/stm32l4xx_hal_dac.c ****       by CPU or DMA).
 106:Drivers/STM32L4xx_HAL_Driver/Src/stm32l4xx_hal_dac.c **** 
 107:Drivers/STM32L4xx_HAL_Driver/Src/stm32l4xx_hal_dac.c ****       The Sample and hold block and registers uses either LSI & run in
 108:Drivers/STM32L4xx_HAL_Driver/Src/stm32l4xx_hal_dac.c ****       several power modes: run mode, sleep mode, low power run, low power sleep
 109:Drivers/STM32L4xx_HAL_Driver/Src/stm32l4xx_hal_dac.c ****       mode & stop1 mode.
 110:Drivers/STM32L4xx_HAL_Driver/Src/stm32l4xx_hal_dac.c **** 
 111:Drivers/STM32L4xx_HAL_Driver/Src/stm32l4xx_hal_dac.c ****       Low power stop1 mode allows only static conversion.
 112:Drivers/STM32L4xx_HAL_Driver/Src/stm32l4xx_hal_dac.c **** 
 113:Drivers/STM32L4xx_HAL_Driver/Src/stm32l4xx_hal_dac.c ****       To enable Sample and Hold mode
 114:Drivers/STM32L4xx_HAL_Driver/Src/stm32l4xx_hal_dac.c ****       Enable LSI using HAL_RCC_OscConfig with RCC_OSCILLATORTYPE_LSI &
 115:Drivers/STM32L4xx_HAL_Driver/Src/stm32l4xx_hal_dac.c ****       RCC_LSI_ON parameters.
 116:Drivers/STM32L4xx_HAL_Driver/Src/stm32l4xx_hal_dac.c **** 
 117:Drivers/STM32L4xx_HAL_Driver/Src/stm32l4xx_hal_dac.c ****       Use DAC_InitStructure.DAC_SampleAndHold = DAC_SAMPLEANDHOLD_ENABLE;
 118:Drivers/STM32L4xx_HAL_Driver/Src/stm32l4xx_hal_dac.c ****          & DAC_ChannelConfTypeDef.DAC_SampleAndHoldConfig.DAC_SampleTime,
 119:Drivers/STM32L4xx_HAL_Driver/Src/stm32l4xx_hal_dac.c ****            DAC_HoldTime & DAC_RefreshTime;
 120:Drivers/STM32L4xx_HAL_Driver/Src/stm32l4xx_hal_dac.c **** 
 121:Drivers/STM32L4xx_HAL_Driver/Src/stm32l4xx_hal_dac.c ****        *** DAC calibration feature ***
 122:Drivers/STM32L4xx_HAL_Driver/Src/stm32l4xx_hal_dac.c ****        ===================================
 123:Drivers/STM32L4xx_HAL_Driver/Src/stm32l4xx_hal_dac.c ****       [..]
 124:Drivers/STM32L4xx_HAL_Driver/Src/stm32l4xx_hal_dac.c ****        (#)  The 2 converters (channel1 & channel2) provide calibration capabilities.
 125:Drivers/STM32L4xx_HAL_Driver/Src/stm32l4xx_hal_dac.c ****        (++) Calibration aims at correcting some offset of output buffer.
 126:Drivers/STM32L4xx_HAL_Driver/Src/stm32l4xx_hal_dac.c ****        (++) The DAC uses either factory calibration settings OR user defined
 127:Drivers/STM32L4xx_HAL_Driver/Src/stm32l4xx_hal_dac.c ****            calibration (trimming) settings (i.e. trimming mode).
 128:Drivers/STM32L4xx_HAL_Driver/Src/stm32l4xx_hal_dac.c ****        (++) The user defined settings can be figured out using self calibration
 129:Drivers/STM32L4xx_HAL_Driver/Src/stm32l4xx_hal_dac.c ****            handled by HAL_DACEx_SelfCalibrate.
 130:Drivers/STM32L4xx_HAL_Driver/Src/stm32l4xx_hal_dac.c ****        (++) HAL_DACEx_SelfCalibrate:
 131:Drivers/STM32L4xx_HAL_Driver/Src/stm32l4xx_hal_dac.c ****        (+++) Runs automatically the calibration.
 132:Drivers/STM32L4xx_HAL_Driver/Src/stm32l4xx_hal_dac.c ****        (+++) Enables the user trimming mode
 133:Drivers/STM32L4xx_HAL_Driver/Src/stm32l4xx_hal_dac.c ****        (+++) Updates a structure with trimming values with fresh calibration
 134:Drivers/STM32L4xx_HAL_Driver/Src/stm32l4xx_hal_dac.c ****             results.
 135:Drivers/STM32L4xx_HAL_Driver/Src/stm32l4xx_hal_dac.c ****             The user may store the calibration results for larger
 136:Drivers/STM32L4xx_HAL_Driver/Src/stm32l4xx_hal_dac.c ****             (ex monitoring the trimming as a function of temperature
 137:Drivers/STM32L4xx_HAL_Driver/Src/stm32l4xx_hal_dac.c ****             for instance)
 138:Drivers/STM32L4xx_HAL_Driver/Src/stm32l4xx_hal_dac.c **** 
 139:Drivers/STM32L4xx_HAL_Driver/Src/stm32l4xx_hal_dac.c ****        *** DAC wave generation feature ***
ARM GAS  /tmp/cc8wC0d3.s 			page 4


 140:Drivers/STM32L4xx_HAL_Driver/Src/stm32l4xx_hal_dac.c ****        ===================================
 141:Drivers/STM32L4xx_HAL_Driver/Src/stm32l4xx_hal_dac.c ****        [..]
 142:Drivers/STM32L4xx_HAL_Driver/Src/stm32l4xx_hal_dac.c ****        Both DAC channels can be used to generate
 143:Drivers/STM32L4xx_HAL_Driver/Src/stm32l4xx_hal_dac.c ****          (#) Noise wave
 144:Drivers/STM32L4xx_HAL_Driver/Src/stm32l4xx_hal_dac.c ****          (#) Triangle wave
 145:Drivers/STM32L4xx_HAL_Driver/Src/stm32l4xx_hal_dac.c **** 
 146:Drivers/STM32L4xx_HAL_Driver/Src/stm32l4xx_hal_dac.c ****        *** DAC data format ***
 147:Drivers/STM32L4xx_HAL_Driver/Src/stm32l4xx_hal_dac.c ****        =======================
 148:Drivers/STM32L4xx_HAL_Driver/Src/stm32l4xx_hal_dac.c ****        [..]
 149:Drivers/STM32L4xx_HAL_Driver/Src/stm32l4xx_hal_dac.c ****        The DAC data format can be:
 150:Drivers/STM32L4xx_HAL_Driver/Src/stm32l4xx_hal_dac.c ****          (#) 8-bit right alignment using DAC_ALIGN_8B_R
 151:Drivers/STM32L4xx_HAL_Driver/Src/stm32l4xx_hal_dac.c ****          (#) 12-bit left alignment using DAC_ALIGN_12B_L
 152:Drivers/STM32L4xx_HAL_Driver/Src/stm32l4xx_hal_dac.c ****          (#) 12-bit right alignment using DAC_ALIGN_12B_R
 153:Drivers/STM32L4xx_HAL_Driver/Src/stm32l4xx_hal_dac.c **** 
 154:Drivers/STM32L4xx_HAL_Driver/Src/stm32l4xx_hal_dac.c ****        *** DAC data value to voltage correspondence ***
 155:Drivers/STM32L4xx_HAL_Driver/Src/stm32l4xx_hal_dac.c ****        ================================================
 156:Drivers/STM32L4xx_HAL_Driver/Src/stm32l4xx_hal_dac.c ****        [..]
 157:Drivers/STM32L4xx_HAL_Driver/Src/stm32l4xx_hal_dac.c ****        The analog output voltage on each DAC channel pin is determined
 158:Drivers/STM32L4xx_HAL_Driver/Src/stm32l4xx_hal_dac.c ****        by the following equation:
 159:Drivers/STM32L4xx_HAL_Driver/Src/stm32l4xx_hal_dac.c ****        [..]
 160:Drivers/STM32L4xx_HAL_Driver/Src/stm32l4xx_hal_dac.c ****        DAC_OUTx = VREF+ * DOR / 4095
 161:Drivers/STM32L4xx_HAL_Driver/Src/stm32l4xx_hal_dac.c ****        (+) with  DOR is the Data Output Register
 162:Drivers/STM32L4xx_HAL_Driver/Src/stm32l4xx_hal_dac.c ****        [..]
 163:Drivers/STM32L4xx_HAL_Driver/Src/stm32l4xx_hal_dac.c ****           VEF+ is the input voltage reference (refer to the device datasheet)
 164:Drivers/STM32L4xx_HAL_Driver/Src/stm32l4xx_hal_dac.c ****        [..]
 165:Drivers/STM32L4xx_HAL_Driver/Src/stm32l4xx_hal_dac.c ****         e.g. To set DAC_OUT1 to 0.7V, use
 166:Drivers/STM32L4xx_HAL_Driver/Src/stm32l4xx_hal_dac.c ****        (+) Assuming that VREF+ = 3.3V, DAC_OUT1 = (3.3 * 868) / 4095 = 0.7V
 167:Drivers/STM32L4xx_HAL_Driver/Src/stm32l4xx_hal_dac.c **** 
 168:Drivers/STM32L4xx_HAL_Driver/Src/stm32l4xx_hal_dac.c ****        *** DMA requests ***
 169:Drivers/STM32L4xx_HAL_Driver/Src/stm32l4xx_hal_dac.c ****        =====================
 170:Drivers/STM32L4xx_HAL_Driver/Src/stm32l4xx_hal_dac.c ****        [..]
 171:Drivers/STM32L4xx_HAL_Driver/Src/stm32l4xx_hal_dac.c ****        A DMA1 request can be generated when an external trigger (but not a software trigger)
 172:Drivers/STM32L4xx_HAL_Driver/Src/stm32l4xx_hal_dac.c ****        occurs if DMA1 requests are enabled using HAL_DAC_Start_DMA().
 173:Drivers/STM32L4xx_HAL_Driver/Src/stm32l4xx_hal_dac.c ****        DMA requests are mapped as following:
 174:Drivers/STM32L4xx_HAL_Driver/Src/stm32l4xx_hal_dac.c ****        (#) When DMAMUX is NOT present:
 175:Drivers/STM32L4xx_HAL_Driver/Src/stm32l4xx_hal_dac.c ****            DMA1 requests are mapped as following:
 176:Drivers/STM32L4xx_HAL_Driver/Src/stm32l4xx_hal_dac.c ****              (+) DAC channel1 mapped on DMA1 request 6 / channel3
 177:Drivers/STM32L4xx_HAL_Driver/Src/stm32l4xx_hal_dac.c ****              (+) DAC channel2 mapped on DMA1 request 5 / channel4
 178:Drivers/STM32L4xx_HAL_Driver/Src/stm32l4xx_hal_dac.c ****            DMA2 requests are mapped as following:
 179:Drivers/STM32L4xx_HAL_Driver/Src/stm32l4xx_hal_dac.c ****              (+) DAC channel1 mapped on DMA2 request 3 / channel4
 180:Drivers/STM32L4xx_HAL_Driver/Src/stm32l4xx_hal_dac.c ****              (+) DAC channel2 mapped on DMA2 request 3 / channel5
 181:Drivers/STM32L4xx_HAL_Driver/Src/stm32l4xx_hal_dac.c ****        (#) When DMAMUX is present:
 182:Drivers/STM32L4xx_HAL_Driver/Src/stm32l4xx_hal_dac.c ****              (+) DAC channel1 mapped on DMA1/DMA2 request 6 (can be any DMA channel)
 183:Drivers/STM32L4xx_HAL_Driver/Src/stm32l4xx_hal_dac.c ****              (+) DAC channel2 mapped on DMA1/DMA2 request 7 (can be any DMA channel)
 184:Drivers/STM32L4xx_HAL_Driver/Src/stm32l4xx_hal_dac.c **** 
 185:Drivers/STM32L4xx_HAL_Driver/Src/stm32l4xx_hal_dac.c ****        *** High frequency interface mode ***
 186:Drivers/STM32L4xx_HAL_Driver/Src/stm32l4xx_hal_dac.c ****        =====================================
 187:Drivers/STM32L4xx_HAL_Driver/Src/stm32l4xx_hal_dac.c ****        [..]
 188:Drivers/STM32L4xx_HAL_Driver/Src/stm32l4xx_hal_dac.c ****        The high frequency interface informs DAC instance about the bus frequency in use.
 189:Drivers/STM32L4xx_HAL_Driver/Src/stm32l4xx_hal_dac.c ****        It is mandatory information for DAC (as internal timing of DAC is bus frequency dependent)
 190:Drivers/STM32L4xx_HAL_Driver/Src/stm32l4xx_hal_dac.c ****        provided thanks to parameter DAC_HighFrequency handled in HAL_DAC_ConfigChannel () function.
 191:Drivers/STM32L4xx_HAL_Driver/Src/stm32l4xx_hal_dac.c ****        Use of DAC_HIGH_FREQUENCY_INTERFACE_MODE_AUTOMATIC value of DAC_HighFrequency is recommended
 192:Drivers/STM32L4xx_HAL_Driver/Src/stm32l4xx_hal_dac.c ****        function figured out the correct setting.
 193:Drivers/STM32L4xx_HAL_Driver/Src/stm32l4xx_hal_dac.c ****        The high frequency mode is same for all converters of a same DAC instance. Either same
 194:Drivers/STM32L4xx_HAL_Driver/Src/stm32l4xx_hal_dac.c ****        parameter DAC_HighFrequency is used for all DAC converters or again self
 195:Drivers/STM32L4xx_HAL_Driver/Src/stm32l4xx_hal_dac.c ****        DAC_HIGH_FREQUENCY_INTERFACE_MODE_AUTOMATIC detection parameter.
 196:Drivers/STM32L4xx_HAL_Driver/Src/stm32l4xx_hal_dac.c **** 
ARM GAS  /tmp/cc8wC0d3.s 			page 5


 197:Drivers/STM32L4xx_HAL_Driver/Src/stm32l4xx_hal_dac.c ****      [..]
 198:Drivers/STM32L4xx_HAL_Driver/Src/stm32l4xx_hal_dac.c ****     (@) For Dual mode and specific signal (Triangle and noise) generation please
 199:Drivers/STM32L4xx_HAL_Driver/Src/stm32l4xx_hal_dac.c ****         refer to Extended Features Driver description
 200:Drivers/STM32L4xx_HAL_Driver/Src/stm32l4xx_hal_dac.c **** 
 201:Drivers/STM32L4xx_HAL_Driver/Src/stm32l4xx_hal_dac.c ****                       ##### How to use this driver #####
 202:Drivers/STM32L4xx_HAL_Driver/Src/stm32l4xx_hal_dac.c ****   ==============================================================================
 203:Drivers/STM32L4xx_HAL_Driver/Src/stm32l4xx_hal_dac.c ****     [..]
 204:Drivers/STM32L4xx_HAL_Driver/Src/stm32l4xx_hal_dac.c ****       (+) DAC APB clock must be enabled to get write access to DAC
 205:Drivers/STM32L4xx_HAL_Driver/Src/stm32l4xx_hal_dac.c ****           registers using HAL_DAC_Init()
 206:Drivers/STM32L4xx_HAL_Driver/Src/stm32l4xx_hal_dac.c ****       (+) Configure DAC_OUTx (DAC_OUT1: PA4, DAC_OUT2: PA5) in analog mode.
 207:Drivers/STM32L4xx_HAL_Driver/Src/stm32l4xx_hal_dac.c ****       (+) Configure the DAC channel using HAL_DAC_ConfigChannel() function.
 208:Drivers/STM32L4xx_HAL_Driver/Src/stm32l4xx_hal_dac.c ****       (+) Enable the DAC channel using HAL_DAC_Start() or HAL_DAC_Start_DMA() functions.
 209:Drivers/STM32L4xx_HAL_Driver/Src/stm32l4xx_hal_dac.c **** 
 210:Drivers/STM32L4xx_HAL_Driver/Src/stm32l4xx_hal_dac.c ****      *** Calibration mode IO operation ***
 211:Drivers/STM32L4xx_HAL_Driver/Src/stm32l4xx_hal_dac.c ****      ======================================
 212:Drivers/STM32L4xx_HAL_Driver/Src/stm32l4xx_hal_dac.c ****      [..]
 213:Drivers/STM32L4xx_HAL_Driver/Src/stm32l4xx_hal_dac.c ****        (+) Retrieve the factory trimming (calibration settings) using HAL_DACEx_GetTrimOffset()
 214:Drivers/STM32L4xx_HAL_Driver/Src/stm32l4xx_hal_dac.c ****        (+) Run the calibration using HAL_DACEx_SelfCalibrate()
 215:Drivers/STM32L4xx_HAL_Driver/Src/stm32l4xx_hal_dac.c ****        (+) Update the trimming while DAC running using HAL_DACEx_SetUserTrimming()
 216:Drivers/STM32L4xx_HAL_Driver/Src/stm32l4xx_hal_dac.c **** 
 217:Drivers/STM32L4xx_HAL_Driver/Src/stm32l4xx_hal_dac.c ****      *** Polling mode IO operation ***
 218:Drivers/STM32L4xx_HAL_Driver/Src/stm32l4xx_hal_dac.c ****      =================================
 219:Drivers/STM32L4xx_HAL_Driver/Src/stm32l4xx_hal_dac.c ****      [..]
 220:Drivers/STM32L4xx_HAL_Driver/Src/stm32l4xx_hal_dac.c ****        (+) Start the DAC peripheral using HAL_DAC_Start()
 221:Drivers/STM32L4xx_HAL_Driver/Src/stm32l4xx_hal_dac.c ****        (+) To read the DAC last data output value, use the HAL_DAC_GetValue() function.
 222:Drivers/STM32L4xx_HAL_Driver/Src/stm32l4xx_hal_dac.c ****        (+) Stop the DAC peripheral using HAL_DAC_Stop()
 223:Drivers/STM32L4xx_HAL_Driver/Src/stm32l4xx_hal_dac.c **** 
 224:Drivers/STM32L4xx_HAL_Driver/Src/stm32l4xx_hal_dac.c ****      *** DMA mode IO operation ***
 225:Drivers/STM32L4xx_HAL_Driver/Src/stm32l4xx_hal_dac.c ****      ==============================
 226:Drivers/STM32L4xx_HAL_Driver/Src/stm32l4xx_hal_dac.c ****      [..]
 227:Drivers/STM32L4xx_HAL_Driver/Src/stm32l4xx_hal_dac.c ****        (+) Start the DAC peripheral using HAL_DAC_Start_DMA(), at this stage the user specify the l
 228:Drivers/STM32L4xx_HAL_Driver/Src/stm32l4xx_hal_dac.c ****            of data to be transferred at each end of conversion
 229:Drivers/STM32L4xx_HAL_Driver/Src/stm32l4xx_hal_dac.c ****            First issued trigger will start the conversion of the value previously set by HAL_DAC_Se
 230:Drivers/STM32L4xx_HAL_Driver/Src/stm32l4xx_hal_dac.c ****        (+) At the middle of data transfer HAL_DAC_ConvHalfCpltCallbackCh1() or HAL_DACEx_ConvHalfCp
 231:Drivers/STM32L4xx_HAL_Driver/Src/stm32l4xx_hal_dac.c ****            function is executed and user can add his own code by customization of function pointer
 232:Drivers/STM32L4xx_HAL_Driver/Src/stm32l4xx_hal_dac.c ****            HAL_DAC_ConvHalfCpltCallbackCh1() or HAL_DACEx_ConvHalfCpltCallbackCh2()
 233:Drivers/STM32L4xx_HAL_Driver/Src/stm32l4xx_hal_dac.c ****        (+) At The end of data transfer HAL_DAC_ConvCpltCallbackCh1() or HAL_DACEx_ConvHalfCpltCallb
 234:Drivers/STM32L4xx_HAL_Driver/Src/stm32l4xx_hal_dac.c ****            function is executed and user can add his own code by customization of function pointer
 235:Drivers/STM32L4xx_HAL_Driver/Src/stm32l4xx_hal_dac.c ****            HAL_DAC_ConvCpltCallbackCh1() or HAL_DACEx_ConvHalfCpltCallbackCh2()
 236:Drivers/STM32L4xx_HAL_Driver/Src/stm32l4xx_hal_dac.c ****        (+) In case of transfer Error, HAL_DAC_ErrorCallbackCh1() function is executed and user can
 237:Drivers/STM32L4xx_HAL_Driver/Src/stm32l4xx_hal_dac.c ****             add his own code by customization of function pointer HAL_DAC_ErrorCallbackCh1
 238:Drivers/STM32L4xx_HAL_Driver/Src/stm32l4xx_hal_dac.c ****        (+) In case of DMA underrun, DAC interruption triggers and execute internal function HAL_DAC
 239:Drivers/STM32L4xx_HAL_Driver/Src/stm32l4xx_hal_dac.c ****            HAL_DAC_DMAUnderrunCallbackCh1() or HAL_DACEx_DMAUnderrunCallbackCh2()
 240:Drivers/STM32L4xx_HAL_Driver/Src/stm32l4xx_hal_dac.c ****            function is executed and user can add his own code by customization of function pointer
 241:Drivers/STM32L4xx_HAL_Driver/Src/stm32l4xx_hal_dac.c ****            HAL_DAC_DMAUnderrunCallbackCh1() or HAL_DACEx_DMAUnderrunCallbackCh2() and
 242:Drivers/STM32L4xx_HAL_Driver/Src/stm32l4xx_hal_dac.c ****            add his own code by customization of function pointer HAL_DAC_ErrorCallbackCh1()
 243:Drivers/STM32L4xx_HAL_Driver/Src/stm32l4xx_hal_dac.c ****        (+) Stop the DAC peripheral using HAL_DAC_Stop_DMA()
 244:Drivers/STM32L4xx_HAL_Driver/Src/stm32l4xx_hal_dac.c **** 
 245:Drivers/STM32L4xx_HAL_Driver/Src/stm32l4xx_hal_dac.c ****     *** Callback registration ***
 246:Drivers/STM32L4xx_HAL_Driver/Src/stm32l4xx_hal_dac.c ****     =============================================
 247:Drivers/STM32L4xx_HAL_Driver/Src/stm32l4xx_hal_dac.c ****     [..]
 248:Drivers/STM32L4xx_HAL_Driver/Src/stm32l4xx_hal_dac.c ****       The compilation define  USE_HAL_DAC_REGISTER_CALLBACKS when set to 1
 249:Drivers/STM32L4xx_HAL_Driver/Src/stm32l4xx_hal_dac.c ****       allows the user to configure dynamically the driver callbacks.
 250:Drivers/STM32L4xx_HAL_Driver/Src/stm32l4xx_hal_dac.c **** 
 251:Drivers/STM32L4xx_HAL_Driver/Src/stm32l4xx_hal_dac.c ****     Use Functions HAL_DAC_RegisterCallback() to register a user callback,
 252:Drivers/STM32L4xx_HAL_Driver/Src/stm32l4xx_hal_dac.c ****       it allows to register following callbacks:
 253:Drivers/STM32L4xx_HAL_Driver/Src/stm32l4xx_hal_dac.c ****       (+) ConvCpltCallbackCh1     : callback when a half transfer is completed on Ch1.
ARM GAS  /tmp/cc8wC0d3.s 			page 6


 254:Drivers/STM32L4xx_HAL_Driver/Src/stm32l4xx_hal_dac.c ****       (+) ConvHalfCpltCallbackCh1 : callback when a transfer is completed on Ch1.
 255:Drivers/STM32L4xx_HAL_Driver/Src/stm32l4xx_hal_dac.c ****       (+) ErrorCallbackCh1        : callback when an error occurs on Ch1.
 256:Drivers/STM32L4xx_HAL_Driver/Src/stm32l4xx_hal_dac.c ****       (+) DMAUnderrunCallbackCh1  : callback when an underrun error occurs on Ch1.
 257:Drivers/STM32L4xx_HAL_Driver/Src/stm32l4xx_hal_dac.c ****       (+) ConvCpltCallbackCh2     : callback when a half transfer is completed on Ch2.
 258:Drivers/STM32L4xx_HAL_Driver/Src/stm32l4xx_hal_dac.c ****       (+) ConvHalfCpltCallbackCh2 : callback when a transfer is completed on Ch2.
 259:Drivers/STM32L4xx_HAL_Driver/Src/stm32l4xx_hal_dac.c ****       (+) ErrorCallbackCh2        : callback when an error occurs on Ch2.
 260:Drivers/STM32L4xx_HAL_Driver/Src/stm32l4xx_hal_dac.c ****       (+) DMAUnderrunCallbackCh2  : callback when an underrun error occurs on Ch2.
 261:Drivers/STM32L4xx_HAL_Driver/Src/stm32l4xx_hal_dac.c ****       (+) MspInitCallback         : DAC MspInit.
 262:Drivers/STM32L4xx_HAL_Driver/Src/stm32l4xx_hal_dac.c ****       (+) MspDeInitCallback       : DAC MspdeInit.
 263:Drivers/STM32L4xx_HAL_Driver/Src/stm32l4xx_hal_dac.c ****       This function takes as parameters the HAL peripheral handle, the Callback ID
 264:Drivers/STM32L4xx_HAL_Driver/Src/stm32l4xx_hal_dac.c ****       and a pointer to the user callback function.
 265:Drivers/STM32L4xx_HAL_Driver/Src/stm32l4xx_hal_dac.c **** 
 266:Drivers/STM32L4xx_HAL_Driver/Src/stm32l4xx_hal_dac.c ****     Use function HAL_DAC_UnRegisterCallback() to reset a callback to the default
 267:Drivers/STM32L4xx_HAL_Driver/Src/stm32l4xx_hal_dac.c ****       weak (overridden) function. It allows to reset following callbacks:
 268:Drivers/STM32L4xx_HAL_Driver/Src/stm32l4xx_hal_dac.c ****       (+) ConvCpltCallbackCh1     : callback when a half transfer is completed on Ch1.
 269:Drivers/STM32L4xx_HAL_Driver/Src/stm32l4xx_hal_dac.c ****       (+) ConvHalfCpltCallbackCh1 : callback when a transfer is completed on Ch1.
 270:Drivers/STM32L4xx_HAL_Driver/Src/stm32l4xx_hal_dac.c ****       (+) ErrorCallbackCh1        : callback when an error occurs on Ch1.
 271:Drivers/STM32L4xx_HAL_Driver/Src/stm32l4xx_hal_dac.c ****       (+) DMAUnderrunCallbackCh1  : callback when an underrun error occurs on Ch1.
 272:Drivers/STM32L4xx_HAL_Driver/Src/stm32l4xx_hal_dac.c ****       (+) ConvCpltCallbackCh2     : callback when a half transfer is completed on Ch2.
 273:Drivers/STM32L4xx_HAL_Driver/Src/stm32l4xx_hal_dac.c ****       (+) ConvHalfCpltCallbackCh2 : callback when a transfer is completed on Ch2.
 274:Drivers/STM32L4xx_HAL_Driver/Src/stm32l4xx_hal_dac.c ****       (+) ErrorCallbackCh2        : callback when an error occurs on Ch2.
 275:Drivers/STM32L4xx_HAL_Driver/Src/stm32l4xx_hal_dac.c ****       (+) DMAUnderrunCallbackCh2  : callback when an underrun error occurs on Ch2.
 276:Drivers/STM32L4xx_HAL_Driver/Src/stm32l4xx_hal_dac.c ****       (+) MspInitCallback         : DAC MspInit.
 277:Drivers/STM32L4xx_HAL_Driver/Src/stm32l4xx_hal_dac.c ****       (+) MspDeInitCallback       : DAC MspdeInit.
 278:Drivers/STM32L4xx_HAL_Driver/Src/stm32l4xx_hal_dac.c ****       (+) All Callbacks
 279:Drivers/STM32L4xx_HAL_Driver/Src/stm32l4xx_hal_dac.c ****       This function) takes as parameters the HAL peripheral handle and the Callback ID.
 280:Drivers/STM32L4xx_HAL_Driver/Src/stm32l4xx_hal_dac.c **** 
 281:Drivers/STM32L4xx_HAL_Driver/Src/stm32l4xx_hal_dac.c ****       By default, after the HAL_DAC_Init and if the state is HAL_DAC_STATE_RESET
 282:Drivers/STM32L4xx_HAL_Driver/Src/stm32l4xx_hal_dac.c ****       all callbacks are reset to the corresponding legacy weak (overridden) functions.
 283:Drivers/STM32L4xx_HAL_Driver/Src/stm32l4xx_hal_dac.c ****       Exception done for MspInit and MspDeInit callbacks that are respectively
 284:Drivers/STM32L4xx_HAL_Driver/Src/stm32l4xx_hal_dac.c ****       reset to the legacy weak (overridden) functions in the HAL_DAC_Init
 285:Drivers/STM32L4xx_HAL_Driver/Src/stm32l4xx_hal_dac.c ****       and HAL_DAC_DeInit only when these callbacks are null (not registered beforehand).
 286:Drivers/STM32L4xx_HAL_Driver/Src/stm32l4xx_hal_dac.c ****       If not, MspInit or MspDeInit are not null, the HAL_DAC_Init and HAL_DAC_DeInit
 287:Drivers/STM32L4xx_HAL_Driver/Src/stm32l4xx_hal_dac.c ****       keep and use the user MspInit/MspDeInit callbacks (registered beforehand)
 288:Drivers/STM32L4xx_HAL_Driver/Src/stm32l4xx_hal_dac.c **** 
 289:Drivers/STM32L4xx_HAL_Driver/Src/stm32l4xx_hal_dac.c ****       Callbacks can be registered/unregistered in READY state only.
 290:Drivers/STM32L4xx_HAL_Driver/Src/stm32l4xx_hal_dac.c ****       Exception done for MspInit/MspDeInit callbacks that can be registered/unregistered
 291:Drivers/STM32L4xx_HAL_Driver/Src/stm32l4xx_hal_dac.c ****       in READY or RESET state, thus registered (user) MspInit/DeInit callbacks can be used
 292:Drivers/STM32L4xx_HAL_Driver/Src/stm32l4xx_hal_dac.c ****       during the Init/DeInit.
 293:Drivers/STM32L4xx_HAL_Driver/Src/stm32l4xx_hal_dac.c ****       In that case first register the MspInit/MspDeInit user callbacks
 294:Drivers/STM32L4xx_HAL_Driver/Src/stm32l4xx_hal_dac.c ****       using HAL_DAC_RegisterCallback before calling HAL_DAC_DeInit
 295:Drivers/STM32L4xx_HAL_Driver/Src/stm32l4xx_hal_dac.c ****       or HAL_DAC_Init function.
 296:Drivers/STM32L4xx_HAL_Driver/Src/stm32l4xx_hal_dac.c **** 
 297:Drivers/STM32L4xx_HAL_Driver/Src/stm32l4xx_hal_dac.c ****       When The compilation define USE_HAL_DAC_REGISTER_CALLBACKS is set to 0 or
 298:Drivers/STM32L4xx_HAL_Driver/Src/stm32l4xx_hal_dac.c ****       not defined, the callback registering feature is not available
 299:Drivers/STM32L4xx_HAL_Driver/Src/stm32l4xx_hal_dac.c ****       and weak (overridden) callbacks are used.
 300:Drivers/STM32L4xx_HAL_Driver/Src/stm32l4xx_hal_dac.c **** 
 301:Drivers/STM32L4xx_HAL_Driver/Src/stm32l4xx_hal_dac.c ****      *** DAC HAL driver macros list ***
 302:Drivers/STM32L4xx_HAL_Driver/Src/stm32l4xx_hal_dac.c ****      =============================================
 303:Drivers/STM32L4xx_HAL_Driver/Src/stm32l4xx_hal_dac.c ****      [..]
 304:Drivers/STM32L4xx_HAL_Driver/Src/stm32l4xx_hal_dac.c ****        Below the list of most used macros in DAC HAL driver.
 305:Drivers/STM32L4xx_HAL_Driver/Src/stm32l4xx_hal_dac.c **** 
 306:Drivers/STM32L4xx_HAL_Driver/Src/stm32l4xx_hal_dac.c ****       (+) __HAL_DAC_ENABLE : Enable the DAC peripheral
 307:Drivers/STM32L4xx_HAL_Driver/Src/stm32l4xx_hal_dac.c ****       (+) __HAL_DAC_DISABLE : Disable the DAC peripheral
 308:Drivers/STM32L4xx_HAL_Driver/Src/stm32l4xx_hal_dac.c ****       (+) __HAL_DAC_CLEAR_FLAG: Clear the DAC's pending flags
 309:Drivers/STM32L4xx_HAL_Driver/Src/stm32l4xx_hal_dac.c ****       (+) __HAL_DAC_GET_FLAG: Get the selected DAC's flag status
 310:Drivers/STM32L4xx_HAL_Driver/Src/stm32l4xx_hal_dac.c **** 
ARM GAS  /tmp/cc8wC0d3.s 			page 7


 311:Drivers/STM32L4xx_HAL_Driver/Src/stm32l4xx_hal_dac.c ****      [..]
 312:Drivers/STM32L4xx_HAL_Driver/Src/stm32l4xx_hal_dac.c ****       (@) You can refer to the DAC HAL driver header file for more useful macros
 313:Drivers/STM32L4xx_HAL_Driver/Src/stm32l4xx_hal_dac.c **** 
 314:Drivers/STM32L4xx_HAL_Driver/Src/stm32l4xx_hal_dac.c ****  @endverbatim
 315:Drivers/STM32L4xx_HAL_Driver/Src/stm32l4xx_hal_dac.c ****   ******************************************************************************
 316:Drivers/STM32L4xx_HAL_Driver/Src/stm32l4xx_hal_dac.c ****   */
 317:Drivers/STM32L4xx_HAL_Driver/Src/stm32l4xx_hal_dac.c **** 
 318:Drivers/STM32L4xx_HAL_Driver/Src/stm32l4xx_hal_dac.c **** /* Includes ------------------------------------------------------------------*/
 319:Drivers/STM32L4xx_HAL_Driver/Src/stm32l4xx_hal_dac.c **** #include "stm32l4xx_hal.h"
 320:Drivers/STM32L4xx_HAL_Driver/Src/stm32l4xx_hal_dac.c **** 
 321:Drivers/STM32L4xx_HAL_Driver/Src/stm32l4xx_hal_dac.c **** /** @addtogroup STM32L4xx_HAL_Driver
 322:Drivers/STM32L4xx_HAL_Driver/Src/stm32l4xx_hal_dac.c ****   * @{
 323:Drivers/STM32L4xx_HAL_Driver/Src/stm32l4xx_hal_dac.c ****   */
 324:Drivers/STM32L4xx_HAL_Driver/Src/stm32l4xx_hal_dac.c **** 
 325:Drivers/STM32L4xx_HAL_Driver/Src/stm32l4xx_hal_dac.c **** #ifdef HAL_DAC_MODULE_ENABLED
 326:Drivers/STM32L4xx_HAL_Driver/Src/stm32l4xx_hal_dac.c **** #if defined(DAC1)
 327:Drivers/STM32L4xx_HAL_Driver/Src/stm32l4xx_hal_dac.c **** 
 328:Drivers/STM32L4xx_HAL_Driver/Src/stm32l4xx_hal_dac.c ****   /** @defgroup DAC DAC
 329:Drivers/STM32L4xx_HAL_Driver/Src/stm32l4xx_hal_dac.c ****   * @brief DAC driver modules
 330:Drivers/STM32L4xx_HAL_Driver/Src/stm32l4xx_hal_dac.c ****   * @{
 331:Drivers/STM32L4xx_HAL_Driver/Src/stm32l4xx_hal_dac.c ****   */
 332:Drivers/STM32L4xx_HAL_Driver/Src/stm32l4xx_hal_dac.c **** 
 333:Drivers/STM32L4xx_HAL_Driver/Src/stm32l4xx_hal_dac.c **** /* Private typedef -----------------------------------------------------------*/
 334:Drivers/STM32L4xx_HAL_Driver/Src/stm32l4xx_hal_dac.c **** /* Private define ------------------------------------------------------------*/
 335:Drivers/STM32L4xx_HAL_Driver/Src/stm32l4xx_hal_dac.c **** /* Private constants ---------------------------------------------------------*/
 336:Drivers/STM32L4xx_HAL_Driver/Src/stm32l4xx_hal_dac.c **** /** @addtogroup DAC_Private_Constants DAC Private Constants
 337:Drivers/STM32L4xx_HAL_Driver/Src/stm32l4xx_hal_dac.c ****   * @{
 338:Drivers/STM32L4xx_HAL_Driver/Src/stm32l4xx_hal_dac.c ****   */
 339:Drivers/STM32L4xx_HAL_Driver/Src/stm32l4xx_hal_dac.c **** #define TIMEOUT_DAC_CALIBCONFIG        1U         /* 1   ms        */
 340:Drivers/STM32L4xx_HAL_Driver/Src/stm32l4xx_hal_dac.c **** #define HFSEL_ENABLE_THRESHOLD_80MHZ   80000000U  /* 80 MHz        */
 341:Drivers/STM32L4xx_HAL_Driver/Src/stm32l4xx_hal_dac.c **** 
 342:Drivers/STM32L4xx_HAL_Driver/Src/stm32l4xx_hal_dac.c **** /**
 343:Drivers/STM32L4xx_HAL_Driver/Src/stm32l4xx_hal_dac.c ****   * @}
 344:Drivers/STM32L4xx_HAL_Driver/Src/stm32l4xx_hal_dac.c ****   */
 345:Drivers/STM32L4xx_HAL_Driver/Src/stm32l4xx_hal_dac.c **** 
 346:Drivers/STM32L4xx_HAL_Driver/Src/stm32l4xx_hal_dac.c **** /* Private macro -------------------------------------------------------------*/
 347:Drivers/STM32L4xx_HAL_Driver/Src/stm32l4xx_hal_dac.c **** /* Private variables ---------------------------------------------------------*/
 348:Drivers/STM32L4xx_HAL_Driver/Src/stm32l4xx_hal_dac.c **** /* Private function prototypes -----------------------------------------------*/
 349:Drivers/STM32L4xx_HAL_Driver/Src/stm32l4xx_hal_dac.c **** /* Exported functions -------------------------------------------------------*/
 350:Drivers/STM32L4xx_HAL_Driver/Src/stm32l4xx_hal_dac.c **** 
 351:Drivers/STM32L4xx_HAL_Driver/Src/stm32l4xx_hal_dac.c **** /** @defgroup DAC_Exported_Functions DAC Exported Functions
 352:Drivers/STM32L4xx_HAL_Driver/Src/stm32l4xx_hal_dac.c ****   * @{
 353:Drivers/STM32L4xx_HAL_Driver/Src/stm32l4xx_hal_dac.c ****   */
 354:Drivers/STM32L4xx_HAL_Driver/Src/stm32l4xx_hal_dac.c **** 
 355:Drivers/STM32L4xx_HAL_Driver/Src/stm32l4xx_hal_dac.c **** /** @defgroup DAC_Exported_Functions_Group1 Initialization and de-initialization functions
 356:Drivers/STM32L4xx_HAL_Driver/Src/stm32l4xx_hal_dac.c ****  *  @brief    Initialization and Configuration functions
 357:Drivers/STM32L4xx_HAL_Driver/Src/stm32l4xx_hal_dac.c ****  *
 358:Drivers/STM32L4xx_HAL_Driver/Src/stm32l4xx_hal_dac.c **** @verbatim
 359:Drivers/STM32L4xx_HAL_Driver/Src/stm32l4xx_hal_dac.c ****   ==============================================================================
 360:Drivers/STM32L4xx_HAL_Driver/Src/stm32l4xx_hal_dac.c ****               ##### Initialization and de-initialization functions #####
 361:Drivers/STM32L4xx_HAL_Driver/Src/stm32l4xx_hal_dac.c ****   ==============================================================================
 362:Drivers/STM32L4xx_HAL_Driver/Src/stm32l4xx_hal_dac.c ****     [..]  This section provides functions allowing to:
 363:Drivers/STM32L4xx_HAL_Driver/Src/stm32l4xx_hal_dac.c ****       (+) Initialize and configure the DAC.
 364:Drivers/STM32L4xx_HAL_Driver/Src/stm32l4xx_hal_dac.c ****       (+) De-initialize the DAC.
 365:Drivers/STM32L4xx_HAL_Driver/Src/stm32l4xx_hal_dac.c **** 
 366:Drivers/STM32L4xx_HAL_Driver/Src/stm32l4xx_hal_dac.c **** @endverbatim
 367:Drivers/STM32L4xx_HAL_Driver/Src/stm32l4xx_hal_dac.c ****   * @{
ARM GAS  /tmp/cc8wC0d3.s 			page 8


 368:Drivers/STM32L4xx_HAL_Driver/Src/stm32l4xx_hal_dac.c ****   */
 369:Drivers/STM32L4xx_HAL_Driver/Src/stm32l4xx_hal_dac.c **** 
 370:Drivers/STM32L4xx_HAL_Driver/Src/stm32l4xx_hal_dac.c **** /**
 371:Drivers/STM32L4xx_HAL_Driver/Src/stm32l4xx_hal_dac.c ****   * @brief  Initialize the DAC peripheral according to the specified parameters
 372:Drivers/STM32L4xx_HAL_Driver/Src/stm32l4xx_hal_dac.c ****   *         in the DAC_InitStruct and initialize the associated handle.
 373:Drivers/STM32L4xx_HAL_Driver/Src/stm32l4xx_hal_dac.c ****   * @param  hdac pointer to a DAC_HandleTypeDef structure that contains
 374:Drivers/STM32L4xx_HAL_Driver/Src/stm32l4xx_hal_dac.c ****   *         the configuration information for the specified DAC.
 375:Drivers/STM32L4xx_HAL_Driver/Src/stm32l4xx_hal_dac.c ****   * @retval HAL status
 376:Drivers/STM32L4xx_HAL_Driver/Src/stm32l4xx_hal_dac.c ****   */
 377:Drivers/STM32L4xx_HAL_Driver/Src/stm32l4xx_hal_dac.c **** HAL_StatusTypeDef HAL_DAC_Init(DAC_HandleTypeDef *hdac)
 378:Drivers/STM32L4xx_HAL_Driver/Src/stm32l4xx_hal_dac.c **** {
  35              		.loc 1 378 1
  36              		.cfi_startproc
  37              		@ args = 0, pretend = 0, frame = 8
  38              		@ frame_needed = 1, uses_anonymous_args = 0
  39 0000 80B5     		push	{r7, lr}
  40              		.cfi_def_cfa_offset 8
  41              		.cfi_offset 7, -8
  42              		.cfi_offset 14, -4
  43 0002 82B0     		sub	sp, sp, #8
  44              		.cfi_def_cfa_offset 16
  45 0004 00AF     		add	r7, sp, #0
  46              		.cfi_def_cfa_register 7
  47 0006 7860     		str	r0, [r7, #4]
 379:Drivers/STM32L4xx_HAL_Driver/Src/stm32l4xx_hal_dac.c ****   /* Check DAC handle */
 380:Drivers/STM32L4xx_HAL_Driver/Src/stm32l4xx_hal_dac.c ****   if (hdac == NULL)
  48              		.loc 1 380 6
  49 0008 7B68     		ldr	r3, [r7, #4]
  50 000a 002B     		cmp	r3, #0
  51 000c 01D1     		bne	.L2
 381:Drivers/STM32L4xx_HAL_Driver/Src/stm32l4xx_hal_dac.c ****   {
 382:Drivers/STM32L4xx_HAL_Driver/Src/stm32l4xx_hal_dac.c ****      return HAL_ERROR;
  52              		.loc 1 382 13
  53 000e 0123     		movs	r3, #1
  54 0010 14E0     		b	.L3
  55              	.L2:
 383:Drivers/STM32L4xx_HAL_Driver/Src/stm32l4xx_hal_dac.c ****   }
 384:Drivers/STM32L4xx_HAL_Driver/Src/stm32l4xx_hal_dac.c ****   /* Check the parameters */
 385:Drivers/STM32L4xx_HAL_Driver/Src/stm32l4xx_hal_dac.c ****   assert_param(IS_DAC_ALL_INSTANCE(hdac->Instance));
 386:Drivers/STM32L4xx_HAL_Driver/Src/stm32l4xx_hal_dac.c **** 
 387:Drivers/STM32L4xx_HAL_Driver/Src/stm32l4xx_hal_dac.c ****   if (hdac->State == HAL_DAC_STATE_RESET)
  56              		.loc 1 387 11
  57 0012 7B68     		ldr	r3, [r7, #4]
  58 0014 1B79     		ldrb	r3, [r3, #4]
  59 0016 DBB2     		uxtb	r3, r3
  60              		.loc 1 387 6
  61 0018 002B     		cmp	r3, #0
  62 001a 05D1     		bne	.L4
 388:Drivers/STM32L4xx_HAL_Driver/Src/stm32l4xx_hal_dac.c ****   {
 389:Drivers/STM32L4xx_HAL_Driver/Src/stm32l4xx_hal_dac.c **** #if (USE_HAL_DAC_REGISTER_CALLBACKS == 1)
 390:Drivers/STM32L4xx_HAL_Driver/Src/stm32l4xx_hal_dac.c ****     /* Init the DAC Callback settings */
 391:Drivers/STM32L4xx_HAL_Driver/Src/stm32l4xx_hal_dac.c ****     hdac->ConvCpltCallbackCh1           = HAL_DAC_ConvCpltCallbackCh1;
 392:Drivers/STM32L4xx_HAL_Driver/Src/stm32l4xx_hal_dac.c ****     hdac->ConvHalfCpltCallbackCh1       = HAL_DAC_ConvHalfCpltCallbackCh1;
 393:Drivers/STM32L4xx_HAL_Driver/Src/stm32l4xx_hal_dac.c ****     hdac->ErrorCallbackCh1              = HAL_DAC_ErrorCallbackCh1;
 394:Drivers/STM32L4xx_HAL_Driver/Src/stm32l4xx_hal_dac.c ****     hdac->DMAUnderrunCallbackCh1        = HAL_DAC_DMAUnderrunCallbackCh1;
 395:Drivers/STM32L4xx_HAL_Driver/Src/stm32l4xx_hal_dac.c **** 
 396:Drivers/STM32L4xx_HAL_Driver/Src/stm32l4xx_hal_dac.c **** #if defined (STM32L431xx) || defined (STM32L432xx) || defined (STM32L433xx) || defined (STM32L442xx
ARM GAS  /tmp/cc8wC0d3.s 			page 9


 397:Drivers/STM32L4xx_HAL_Driver/Src/stm32l4xx_hal_dac.c ****     defined (STM32L471xx) || defined (STM32L475xx) || defined (STM32L476xx) || defined (STM32L485xx
 398:Drivers/STM32L4xx_HAL_Driver/Src/stm32l4xx_hal_dac.c ****     defined (STM32L4P5xx) || defined (STM32L4Q5xx) || \
 399:Drivers/STM32L4xx_HAL_Driver/Src/stm32l4xx_hal_dac.c ****     defined (STM32L4R5xx) || defined (STM32L4R7xx) || defined (STM32L4R9xx) || defined (STM32L4S5xx
 400:Drivers/STM32L4xx_HAL_Driver/Src/stm32l4xx_hal_dac.c ****     hdac->ConvCpltCallbackCh2           = HAL_DACEx_ConvCpltCallbackCh2;
 401:Drivers/STM32L4xx_HAL_Driver/Src/stm32l4xx_hal_dac.c ****     hdac->ConvHalfCpltCallbackCh2       = HAL_DACEx_ConvHalfCpltCallbackCh2;
 402:Drivers/STM32L4xx_HAL_Driver/Src/stm32l4xx_hal_dac.c ****     hdac->ErrorCallbackCh2              = HAL_DACEx_ErrorCallbackCh2;
 403:Drivers/STM32L4xx_HAL_Driver/Src/stm32l4xx_hal_dac.c ****     hdac->DMAUnderrunCallbackCh2        = HAL_DACEx_DMAUnderrunCallbackCh2;
 404:Drivers/STM32L4xx_HAL_Driver/Src/stm32l4xx_hal_dac.c **** #endif  /* STM32L431xx STM32L432xx STM32L433xx STM32L442xx STM32L443xx                         */
 405:Drivers/STM32L4xx_HAL_Driver/Src/stm32l4xx_hal_dac.c ****         /* STM32L471xx STM32L475xx STM32L476xx STM32L485xx STM32L486xx STM32L496xx STM32L4A6xx */
 406:Drivers/STM32L4xx_HAL_Driver/Src/stm32l4xx_hal_dac.c ****         /* STM32L4P5xx STM32L4Q5xx                                                             */
 407:Drivers/STM32L4xx_HAL_Driver/Src/stm32l4xx_hal_dac.c ****         /* STM32L4R5xx STM32L4R7xx STM32L4R9xx STM32L4S5xx STM32L4S7xx STM32L4S9xx             */
 408:Drivers/STM32L4xx_HAL_Driver/Src/stm32l4xx_hal_dac.c **** 
 409:Drivers/STM32L4xx_HAL_Driver/Src/stm32l4xx_hal_dac.c ****     if (hdac->MspInitCallback == NULL)
 410:Drivers/STM32L4xx_HAL_Driver/Src/stm32l4xx_hal_dac.c ****     {
 411:Drivers/STM32L4xx_HAL_Driver/Src/stm32l4xx_hal_dac.c ****       hdac->MspInitCallback             = HAL_DAC_MspInit;
 412:Drivers/STM32L4xx_HAL_Driver/Src/stm32l4xx_hal_dac.c ****     }
 413:Drivers/STM32L4xx_HAL_Driver/Src/stm32l4xx_hal_dac.c **** #endif /* USE_HAL_DAC_REGISTER_CALLBACKS */
 414:Drivers/STM32L4xx_HAL_Driver/Src/stm32l4xx_hal_dac.c **** 
 415:Drivers/STM32L4xx_HAL_Driver/Src/stm32l4xx_hal_dac.c ****     /* Allocate lock resource and initialize it */
 416:Drivers/STM32L4xx_HAL_Driver/Src/stm32l4xx_hal_dac.c ****     hdac->Lock = HAL_UNLOCKED;
  63              		.loc 1 416 16
  64 001c 7B68     		ldr	r3, [r7, #4]
  65 001e 0022     		movs	r2, #0
  66 0020 5A71     		strb	r2, [r3, #5]
 417:Drivers/STM32L4xx_HAL_Driver/Src/stm32l4xx_hal_dac.c **** 
 418:Drivers/STM32L4xx_HAL_Driver/Src/stm32l4xx_hal_dac.c **** #if (USE_HAL_DAC_REGISTER_CALLBACKS == 1)
 419:Drivers/STM32L4xx_HAL_Driver/Src/stm32l4xx_hal_dac.c ****     /* Init the low level hardware */
 420:Drivers/STM32L4xx_HAL_Driver/Src/stm32l4xx_hal_dac.c ****     hdac->MspInitCallback(hdac);
 421:Drivers/STM32L4xx_HAL_Driver/Src/stm32l4xx_hal_dac.c **** #else
 422:Drivers/STM32L4xx_HAL_Driver/Src/stm32l4xx_hal_dac.c ****     /* Init the low level hardware */
 423:Drivers/STM32L4xx_HAL_Driver/Src/stm32l4xx_hal_dac.c ****     HAL_DAC_MspInit(hdac);
  67              		.loc 1 423 5
  68 0022 7868     		ldr	r0, [r7, #4]
  69 0024 FFF7FEFF 		bl	HAL_DAC_MspInit
  70              	.L4:
 424:Drivers/STM32L4xx_HAL_Driver/Src/stm32l4xx_hal_dac.c **** #endif /* USE_HAL_DAC_REGISTER_CALLBACKS */
 425:Drivers/STM32L4xx_HAL_Driver/Src/stm32l4xx_hal_dac.c ****   }
 426:Drivers/STM32L4xx_HAL_Driver/Src/stm32l4xx_hal_dac.c **** 
 427:Drivers/STM32L4xx_HAL_Driver/Src/stm32l4xx_hal_dac.c ****   /* Initialize the DAC state*/
 428:Drivers/STM32L4xx_HAL_Driver/Src/stm32l4xx_hal_dac.c ****   hdac->State = HAL_DAC_STATE_BUSY;
  71              		.loc 1 428 15
  72 0028 7B68     		ldr	r3, [r7, #4]
  73 002a 0222     		movs	r2, #2
  74 002c 1A71     		strb	r2, [r3, #4]
 429:Drivers/STM32L4xx_HAL_Driver/Src/stm32l4xx_hal_dac.c **** 
 430:Drivers/STM32L4xx_HAL_Driver/Src/stm32l4xx_hal_dac.c ****   /* Set DAC error code to none */
 431:Drivers/STM32L4xx_HAL_Driver/Src/stm32l4xx_hal_dac.c ****   hdac->ErrorCode = HAL_DAC_ERROR_NONE;
  75              		.loc 1 431 19
  76 002e 7B68     		ldr	r3, [r7, #4]
  77 0030 0022     		movs	r2, #0
  78 0032 1A61     		str	r2, [r3, #16]
 432:Drivers/STM32L4xx_HAL_Driver/Src/stm32l4xx_hal_dac.c **** 
 433:Drivers/STM32L4xx_HAL_Driver/Src/stm32l4xx_hal_dac.c ****   /* Initialize the DAC state*/
 434:Drivers/STM32L4xx_HAL_Driver/Src/stm32l4xx_hal_dac.c ****   hdac->State = HAL_DAC_STATE_READY;
  79              		.loc 1 434 15
  80 0034 7B68     		ldr	r3, [r7, #4]
  81 0036 0122     		movs	r2, #1
ARM GAS  /tmp/cc8wC0d3.s 			page 10


  82 0038 1A71     		strb	r2, [r3, #4]
 435:Drivers/STM32L4xx_HAL_Driver/Src/stm32l4xx_hal_dac.c **** 
 436:Drivers/STM32L4xx_HAL_Driver/Src/stm32l4xx_hal_dac.c ****   /* Return function status */
 437:Drivers/STM32L4xx_HAL_Driver/Src/stm32l4xx_hal_dac.c ****   return HAL_OK;
  83              		.loc 1 437 10
  84 003a 0023     		movs	r3, #0
  85              	.L3:
 438:Drivers/STM32L4xx_HAL_Driver/Src/stm32l4xx_hal_dac.c **** }
  86              		.loc 1 438 1
  87 003c 1846     		mov	r0, r3
  88 003e 0837     		adds	r7, r7, #8
  89              		.cfi_def_cfa_offset 8
  90 0040 BD46     		mov	sp, r7
  91              		.cfi_def_cfa_register 13
  92              		@ sp needed
  93 0042 80BD     		pop	{r7, pc}
  94              		.cfi_endproc
  95              	.LFE445:
  97              		.section	.text.HAL_DAC_DeInit,"ax",%progbits
  98              		.align	1
  99              		.global	HAL_DAC_DeInit
 100              		.syntax unified
 101              		.thumb
 102              		.thumb_func
 104              	HAL_DAC_DeInit:
 105              	.LFB446:
 439:Drivers/STM32L4xx_HAL_Driver/Src/stm32l4xx_hal_dac.c **** 
 440:Drivers/STM32L4xx_HAL_Driver/Src/stm32l4xx_hal_dac.c **** /**
 441:Drivers/STM32L4xx_HAL_Driver/Src/stm32l4xx_hal_dac.c ****   * @brief  Deinitialize the DAC peripheral registers to their default reset values.
 442:Drivers/STM32L4xx_HAL_Driver/Src/stm32l4xx_hal_dac.c ****   * @param  hdac pointer to a DAC_HandleTypeDef structure that contains
 443:Drivers/STM32L4xx_HAL_Driver/Src/stm32l4xx_hal_dac.c ****   *         the configuration information for the specified DAC.
 444:Drivers/STM32L4xx_HAL_Driver/Src/stm32l4xx_hal_dac.c ****   * @retval HAL status
 445:Drivers/STM32L4xx_HAL_Driver/Src/stm32l4xx_hal_dac.c ****   */
 446:Drivers/STM32L4xx_HAL_Driver/Src/stm32l4xx_hal_dac.c **** HAL_StatusTypeDef HAL_DAC_DeInit(DAC_HandleTypeDef *hdac)
 447:Drivers/STM32L4xx_HAL_Driver/Src/stm32l4xx_hal_dac.c **** {
 106              		.loc 1 447 1
 107              		.cfi_startproc
 108              		@ args = 0, pretend = 0, frame = 8
 109              		@ frame_needed = 1, uses_anonymous_args = 0
 110 0000 80B5     		push	{r7, lr}
 111              		.cfi_def_cfa_offset 8
 112              		.cfi_offset 7, -8
 113              		.cfi_offset 14, -4
 114 0002 82B0     		sub	sp, sp, #8
 115              		.cfi_def_cfa_offset 16
 116 0004 00AF     		add	r7, sp, #0
 117              		.cfi_def_cfa_register 7
 118 0006 7860     		str	r0, [r7, #4]
 448:Drivers/STM32L4xx_HAL_Driver/Src/stm32l4xx_hal_dac.c ****   /* Check DAC handle */
 449:Drivers/STM32L4xx_HAL_Driver/Src/stm32l4xx_hal_dac.c ****   if (hdac == NULL)
 119              		.loc 1 449 6
 120 0008 7B68     		ldr	r3, [r7, #4]
 121 000a 002B     		cmp	r3, #0
 122 000c 01D1     		bne	.L6
 450:Drivers/STM32L4xx_HAL_Driver/Src/stm32l4xx_hal_dac.c ****   {
 451:Drivers/STM32L4xx_HAL_Driver/Src/stm32l4xx_hal_dac.c ****     return HAL_ERROR;
 123              		.loc 1 451 12
ARM GAS  /tmp/cc8wC0d3.s 			page 11


 124 000e 0123     		movs	r3, #1
 125 0010 0FE0     		b	.L7
 126              	.L6:
 452:Drivers/STM32L4xx_HAL_Driver/Src/stm32l4xx_hal_dac.c ****   }
 453:Drivers/STM32L4xx_HAL_Driver/Src/stm32l4xx_hal_dac.c **** 
 454:Drivers/STM32L4xx_HAL_Driver/Src/stm32l4xx_hal_dac.c ****   /* Check the parameters */
 455:Drivers/STM32L4xx_HAL_Driver/Src/stm32l4xx_hal_dac.c ****   assert_param(IS_DAC_ALL_INSTANCE(hdac->Instance));
 456:Drivers/STM32L4xx_HAL_Driver/Src/stm32l4xx_hal_dac.c **** 
 457:Drivers/STM32L4xx_HAL_Driver/Src/stm32l4xx_hal_dac.c ****   /* Change DAC state */
 458:Drivers/STM32L4xx_HAL_Driver/Src/stm32l4xx_hal_dac.c ****   hdac->State = HAL_DAC_STATE_BUSY;
 127              		.loc 1 458 15
 128 0012 7B68     		ldr	r3, [r7, #4]
 129 0014 0222     		movs	r2, #2
 130 0016 1A71     		strb	r2, [r3, #4]
 459:Drivers/STM32L4xx_HAL_Driver/Src/stm32l4xx_hal_dac.c **** 
 460:Drivers/STM32L4xx_HAL_Driver/Src/stm32l4xx_hal_dac.c **** #if (USE_HAL_DAC_REGISTER_CALLBACKS == 1)
 461:Drivers/STM32L4xx_HAL_Driver/Src/stm32l4xx_hal_dac.c ****   if (hdac->MspDeInitCallback == NULL)
 462:Drivers/STM32L4xx_HAL_Driver/Src/stm32l4xx_hal_dac.c ****   {
 463:Drivers/STM32L4xx_HAL_Driver/Src/stm32l4xx_hal_dac.c ****     hdac->MspDeInitCallback = HAL_DAC_MspDeInit;
 464:Drivers/STM32L4xx_HAL_Driver/Src/stm32l4xx_hal_dac.c ****   }
 465:Drivers/STM32L4xx_HAL_Driver/Src/stm32l4xx_hal_dac.c ****   /* DeInit the low level hardware */
 466:Drivers/STM32L4xx_HAL_Driver/Src/stm32l4xx_hal_dac.c ****   hdac->MspDeInitCallback(hdac);
 467:Drivers/STM32L4xx_HAL_Driver/Src/stm32l4xx_hal_dac.c **** #else
 468:Drivers/STM32L4xx_HAL_Driver/Src/stm32l4xx_hal_dac.c ****   /* DeInit the low level hardware */
 469:Drivers/STM32L4xx_HAL_Driver/Src/stm32l4xx_hal_dac.c ****   HAL_DAC_MspDeInit(hdac);
 131              		.loc 1 469 3
 132 0018 7868     		ldr	r0, [r7, #4]
 133 001a FFF7FEFF 		bl	HAL_DAC_MspDeInit
 470:Drivers/STM32L4xx_HAL_Driver/Src/stm32l4xx_hal_dac.c **** #endif /* USE_HAL_DAC_REGISTER_CALLBACKS */
 471:Drivers/STM32L4xx_HAL_Driver/Src/stm32l4xx_hal_dac.c **** 
 472:Drivers/STM32L4xx_HAL_Driver/Src/stm32l4xx_hal_dac.c ****   /* Set DAC error code to none */
 473:Drivers/STM32L4xx_HAL_Driver/Src/stm32l4xx_hal_dac.c ****   hdac->ErrorCode = HAL_DAC_ERROR_NONE;
 134              		.loc 1 473 19
 135 001e 7B68     		ldr	r3, [r7, #4]
 136 0020 0022     		movs	r2, #0
 137 0022 1A61     		str	r2, [r3, #16]
 474:Drivers/STM32L4xx_HAL_Driver/Src/stm32l4xx_hal_dac.c **** 
 475:Drivers/STM32L4xx_HAL_Driver/Src/stm32l4xx_hal_dac.c ****   /* Change DAC state */
 476:Drivers/STM32L4xx_HAL_Driver/Src/stm32l4xx_hal_dac.c ****   hdac->State = HAL_DAC_STATE_RESET;
 138              		.loc 1 476 15
 139 0024 7B68     		ldr	r3, [r7, #4]
 140 0026 0022     		movs	r2, #0
 141 0028 1A71     		strb	r2, [r3, #4]
 477:Drivers/STM32L4xx_HAL_Driver/Src/stm32l4xx_hal_dac.c **** 
 478:Drivers/STM32L4xx_HAL_Driver/Src/stm32l4xx_hal_dac.c ****   /* Release Lock */
 479:Drivers/STM32L4xx_HAL_Driver/Src/stm32l4xx_hal_dac.c ****   __HAL_UNLOCK(hdac);
 142              		.loc 1 479 3
 143 002a 7B68     		ldr	r3, [r7, #4]
 144 002c 0022     		movs	r2, #0
 145 002e 5A71     		strb	r2, [r3, #5]
 480:Drivers/STM32L4xx_HAL_Driver/Src/stm32l4xx_hal_dac.c **** 
 481:Drivers/STM32L4xx_HAL_Driver/Src/stm32l4xx_hal_dac.c ****   /* Return function status */
 482:Drivers/STM32L4xx_HAL_Driver/Src/stm32l4xx_hal_dac.c ****   return HAL_OK;
 146              		.loc 1 482 10
 147 0030 0023     		movs	r3, #0
 148              	.L7:
 483:Drivers/STM32L4xx_HAL_Driver/Src/stm32l4xx_hal_dac.c **** }
ARM GAS  /tmp/cc8wC0d3.s 			page 12


 149              		.loc 1 483 1
 150 0032 1846     		mov	r0, r3
 151 0034 0837     		adds	r7, r7, #8
 152              		.cfi_def_cfa_offset 8
 153 0036 BD46     		mov	sp, r7
 154              		.cfi_def_cfa_register 13
 155              		@ sp needed
 156 0038 80BD     		pop	{r7, pc}
 157              		.cfi_endproc
 158              	.LFE446:
 160              		.section	.text.HAL_DAC_MspInit,"ax",%progbits
 161              		.align	1
 162              		.weak	HAL_DAC_MspInit
 163              		.syntax unified
 164              		.thumb
 165              		.thumb_func
 167              	HAL_DAC_MspInit:
 168              	.LFB447:
 484:Drivers/STM32L4xx_HAL_Driver/Src/stm32l4xx_hal_dac.c **** 
 485:Drivers/STM32L4xx_HAL_Driver/Src/stm32l4xx_hal_dac.c **** /**
 486:Drivers/STM32L4xx_HAL_Driver/Src/stm32l4xx_hal_dac.c ****   * @brief  Initialize the DAC MSP.
 487:Drivers/STM32L4xx_HAL_Driver/Src/stm32l4xx_hal_dac.c ****   * @param  hdac pointer to a DAC_HandleTypeDef structure that contains
 488:Drivers/STM32L4xx_HAL_Driver/Src/stm32l4xx_hal_dac.c ****   *         the configuration information for the specified DAC.
 489:Drivers/STM32L4xx_HAL_Driver/Src/stm32l4xx_hal_dac.c ****   * @retval None
 490:Drivers/STM32L4xx_HAL_Driver/Src/stm32l4xx_hal_dac.c ****   */
 491:Drivers/STM32L4xx_HAL_Driver/Src/stm32l4xx_hal_dac.c **** __weak void HAL_DAC_MspInit(DAC_HandleTypeDef *hdac)
 492:Drivers/STM32L4xx_HAL_Driver/Src/stm32l4xx_hal_dac.c **** {
 169              		.loc 1 492 1
 170              		.cfi_startproc
 171              		@ args = 0, pretend = 0, frame = 8
 172              		@ frame_needed = 1, uses_anonymous_args = 0
 173              		@ link register save eliminated.
 174 0000 80B4     		push	{r7}
 175              		.cfi_def_cfa_offset 4
 176              		.cfi_offset 7, -4
 177 0002 83B0     		sub	sp, sp, #12
 178              		.cfi_def_cfa_offset 16
 179 0004 00AF     		add	r7, sp, #0
 180              		.cfi_def_cfa_register 7
 181 0006 7860     		str	r0, [r7, #4]
 493:Drivers/STM32L4xx_HAL_Driver/Src/stm32l4xx_hal_dac.c ****   /* Prevent unused argument(s) compilation warning */
 494:Drivers/STM32L4xx_HAL_Driver/Src/stm32l4xx_hal_dac.c ****   UNUSED(hdac);
 495:Drivers/STM32L4xx_HAL_Driver/Src/stm32l4xx_hal_dac.c **** 
 496:Drivers/STM32L4xx_HAL_Driver/Src/stm32l4xx_hal_dac.c ****   /* NOTE : This function should not be modified, when the callback is needed,
 497:Drivers/STM32L4xx_HAL_Driver/Src/stm32l4xx_hal_dac.c ****             the HAL_DAC_MspInit could be implemented in the user file
 498:Drivers/STM32L4xx_HAL_Driver/Src/stm32l4xx_hal_dac.c ****    */
 499:Drivers/STM32L4xx_HAL_Driver/Src/stm32l4xx_hal_dac.c **** }
 182              		.loc 1 499 1
 183 0008 00BF     		nop
 184 000a 0C37     		adds	r7, r7, #12
 185              		.cfi_def_cfa_offset 4
 186 000c BD46     		mov	sp, r7
 187              		.cfi_def_cfa_register 13
 188              		@ sp needed
 189 000e 5DF8047B 		ldr	r7, [sp], #4
 190              		.cfi_restore 7
 191              		.cfi_def_cfa_offset 0
ARM GAS  /tmp/cc8wC0d3.s 			page 13


 192 0012 7047     		bx	lr
 193              		.cfi_endproc
 194              	.LFE447:
 196              		.section	.text.HAL_DAC_MspDeInit,"ax",%progbits
 197              		.align	1
 198              		.weak	HAL_DAC_MspDeInit
 199              		.syntax unified
 200              		.thumb
 201              		.thumb_func
 203              	HAL_DAC_MspDeInit:
 204              	.LFB448:
 500:Drivers/STM32L4xx_HAL_Driver/Src/stm32l4xx_hal_dac.c **** 
 501:Drivers/STM32L4xx_HAL_Driver/Src/stm32l4xx_hal_dac.c **** /**
 502:Drivers/STM32L4xx_HAL_Driver/Src/stm32l4xx_hal_dac.c ****   * @brief  DeInitialize the DAC MSP.
 503:Drivers/STM32L4xx_HAL_Driver/Src/stm32l4xx_hal_dac.c ****   * @param  hdac pointer to a DAC_HandleTypeDef structure that contains
 504:Drivers/STM32L4xx_HAL_Driver/Src/stm32l4xx_hal_dac.c ****   *         the configuration information for the specified DAC.
 505:Drivers/STM32L4xx_HAL_Driver/Src/stm32l4xx_hal_dac.c ****   * @retval None
 506:Drivers/STM32L4xx_HAL_Driver/Src/stm32l4xx_hal_dac.c ****   */
 507:Drivers/STM32L4xx_HAL_Driver/Src/stm32l4xx_hal_dac.c **** __weak void HAL_DAC_MspDeInit(DAC_HandleTypeDef *hdac)
 508:Drivers/STM32L4xx_HAL_Driver/Src/stm32l4xx_hal_dac.c **** {
 205              		.loc 1 508 1
 206              		.cfi_startproc
 207              		@ args = 0, pretend = 0, frame = 8
 208              		@ frame_needed = 1, uses_anonymous_args = 0
 209              		@ link register save eliminated.
 210 0000 80B4     		push	{r7}
 211              		.cfi_def_cfa_offset 4
 212              		.cfi_offset 7, -4
 213 0002 83B0     		sub	sp, sp, #12
 214              		.cfi_def_cfa_offset 16
 215 0004 00AF     		add	r7, sp, #0
 216              		.cfi_def_cfa_register 7
 217 0006 7860     		str	r0, [r7, #4]
 509:Drivers/STM32L4xx_HAL_Driver/Src/stm32l4xx_hal_dac.c ****   /* Prevent unused argument(s) compilation warning */
 510:Drivers/STM32L4xx_HAL_Driver/Src/stm32l4xx_hal_dac.c ****   UNUSED(hdac);
 511:Drivers/STM32L4xx_HAL_Driver/Src/stm32l4xx_hal_dac.c **** 
 512:Drivers/STM32L4xx_HAL_Driver/Src/stm32l4xx_hal_dac.c ****   /* NOTE : This function should not be modified, when the callback is needed,
 513:Drivers/STM32L4xx_HAL_Driver/Src/stm32l4xx_hal_dac.c ****             the HAL_DAC_MspDeInit could be implemented in the user file
 514:Drivers/STM32L4xx_HAL_Driver/Src/stm32l4xx_hal_dac.c ****    */
 515:Drivers/STM32L4xx_HAL_Driver/Src/stm32l4xx_hal_dac.c **** }
 218              		.loc 1 515 1
 219 0008 00BF     		nop
 220 000a 0C37     		adds	r7, r7, #12
 221              		.cfi_def_cfa_offset 4
 222 000c BD46     		mov	sp, r7
 223              		.cfi_def_cfa_register 13
 224              		@ sp needed
 225 000e 5DF8047B 		ldr	r7, [sp], #4
 226              		.cfi_restore 7
 227              		.cfi_def_cfa_offset 0
 228 0012 7047     		bx	lr
 229              		.cfi_endproc
 230              	.LFE448:
 232              		.section	.text.HAL_DAC_Start,"ax",%progbits
 233              		.align	1
 234              		.global	HAL_DAC_Start
 235              		.syntax unified
ARM GAS  /tmp/cc8wC0d3.s 			page 14


 236              		.thumb
 237              		.thumb_func
 239              	HAL_DAC_Start:
 240              	.LFB449:
 516:Drivers/STM32L4xx_HAL_Driver/Src/stm32l4xx_hal_dac.c **** 
 517:Drivers/STM32L4xx_HAL_Driver/Src/stm32l4xx_hal_dac.c **** /**
 518:Drivers/STM32L4xx_HAL_Driver/Src/stm32l4xx_hal_dac.c ****   * @}
 519:Drivers/STM32L4xx_HAL_Driver/Src/stm32l4xx_hal_dac.c ****   */
 520:Drivers/STM32L4xx_HAL_Driver/Src/stm32l4xx_hal_dac.c **** 
 521:Drivers/STM32L4xx_HAL_Driver/Src/stm32l4xx_hal_dac.c **** /** @defgroup DAC_Exported_Functions_Group2 IO operation functions
 522:Drivers/STM32L4xx_HAL_Driver/Src/stm32l4xx_hal_dac.c ****  *  @brief    IO operation functions
 523:Drivers/STM32L4xx_HAL_Driver/Src/stm32l4xx_hal_dac.c ****  *
 524:Drivers/STM32L4xx_HAL_Driver/Src/stm32l4xx_hal_dac.c **** @verbatim
 525:Drivers/STM32L4xx_HAL_Driver/Src/stm32l4xx_hal_dac.c ****   ==============================================================================
 526:Drivers/STM32L4xx_HAL_Driver/Src/stm32l4xx_hal_dac.c ****              ##### IO operation functions #####
 527:Drivers/STM32L4xx_HAL_Driver/Src/stm32l4xx_hal_dac.c ****   ==============================================================================
 528:Drivers/STM32L4xx_HAL_Driver/Src/stm32l4xx_hal_dac.c ****     [..]  This section provides functions allowing to:
 529:Drivers/STM32L4xx_HAL_Driver/Src/stm32l4xx_hal_dac.c ****       (+) Start conversion.
 530:Drivers/STM32L4xx_HAL_Driver/Src/stm32l4xx_hal_dac.c ****       (+) Stop conversion.
 531:Drivers/STM32L4xx_HAL_Driver/Src/stm32l4xx_hal_dac.c ****       (+) Start conversion and enable DMA transfer.
 532:Drivers/STM32L4xx_HAL_Driver/Src/stm32l4xx_hal_dac.c ****       (+) Stop conversion and disable DMA transfer.
 533:Drivers/STM32L4xx_HAL_Driver/Src/stm32l4xx_hal_dac.c ****       (+) Get result of conversion.
 534:Drivers/STM32L4xx_HAL_Driver/Src/stm32l4xx_hal_dac.c **** 
 535:Drivers/STM32L4xx_HAL_Driver/Src/stm32l4xx_hal_dac.c **** @endverbatim
 536:Drivers/STM32L4xx_HAL_Driver/Src/stm32l4xx_hal_dac.c ****   * @{
 537:Drivers/STM32L4xx_HAL_Driver/Src/stm32l4xx_hal_dac.c ****   */
 538:Drivers/STM32L4xx_HAL_Driver/Src/stm32l4xx_hal_dac.c **** 
 539:Drivers/STM32L4xx_HAL_Driver/Src/stm32l4xx_hal_dac.c **** /**
 540:Drivers/STM32L4xx_HAL_Driver/Src/stm32l4xx_hal_dac.c ****   * @brief  Enables DAC and starts conversion of channel.
 541:Drivers/STM32L4xx_HAL_Driver/Src/stm32l4xx_hal_dac.c ****   * @param  hdac pointer to a DAC_HandleTypeDef structure that contains
 542:Drivers/STM32L4xx_HAL_Driver/Src/stm32l4xx_hal_dac.c ****   *         the configuration information for the specified DAC.
 543:Drivers/STM32L4xx_HAL_Driver/Src/stm32l4xx_hal_dac.c ****   * @param  Channel The selected DAC channel.
 544:Drivers/STM32L4xx_HAL_Driver/Src/stm32l4xx_hal_dac.c ****   *          This parameter can be one of the following values:
 545:Drivers/STM32L4xx_HAL_Driver/Src/stm32l4xx_hal_dac.c ****   *            @arg DAC_CHANNEL_1: DAC Channel1 selected
 546:Drivers/STM32L4xx_HAL_Driver/Src/stm32l4xx_hal_dac.c ****   *            @arg DAC_CHANNEL_2: DAC Channel2 selected (when supported)
 547:Drivers/STM32L4xx_HAL_Driver/Src/stm32l4xx_hal_dac.c ****   * @retval HAL status
 548:Drivers/STM32L4xx_HAL_Driver/Src/stm32l4xx_hal_dac.c ****   */
 549:Drivers/STM32L4xx_HAL_Driver/Src/stm32l4xx_hal_dac.c **** HAL_StatusTypeDef HAL_DAC_Start(DAC_HandleTypeDef *hdac, uint32_t Channel)
 550:Drivers/STM32L4xx_HAL_Driver/Src/stm32l4xx_hal_dac.c **** {
 241              		.loc 1 550 1
 242              		.cfi_startproc
 243              		@ args = 0, pretend = 0, frame = 8
 244              		@ frame_needed = 1, uses_anonymous_args = 0
 245              		@ link register save eliminated.
 246 0000 80B4     		push	{r7}
 247              		.cfi_def_cfa_offset 4
 248              		.cfi_offset 7, -4
 249 0002 83B0     		sub	sp, sp, #12
 250              		.cfi_def_cfa_offset 16
 251 0004 00AF     		add	r7, sp, #0
 252              		.cfi_def_cfa_register 7
 253 0006 7860     		str	r0, [r7, #4]
 254 0008 3960     		str	r1, [r7]
 551:Drivers/STM32L4xx_HAL_Driver/Src/stm32l4xx_hal_dac.c ****   /* Check the parameters */
 552:Drivers/STM32L4xx_HAL_Driver/Src/stm32l4xx_hal_dac.c ****   assert_param(IS_DAC_CHANNEL(Channel));
 553:Drivers/STM32L4xx_HAL_Driver/Src/stm32l4xx_hal_dac.c **** 
 554:Drivers/STM32L4xx_HAL_Driver/Src/stm32l4xx_hal_dac.c ****   /* Process locked */
ARM GAS  /tmp/cc8wC0d3.s 			page 15


 555:Drivers/STM32L4xx_HAL_Driver/Src/stm32l4xx_hal_dac.c ****   __HAL_LOCK(hdac);
 255              		.loc 1 555 3
 256 000a 7B68     		ldr	r3, [r7, #4]
 257 000c 5B79     		ldrb	r3, [r3, #5]	@ zero_extendqisi2
 258 000e 012B     		cmp	r3, #1
 259 0010 01D1     		bne	.L11
 260              		.loc 1 555 3 is_stmt 0 discriminator 1
 261 0012 0223     		movs	r3, #2
 262              		.loc 1 555 3
 263 0014 3BE0     		b	.L12
 264              	.L11:
 265              		.loc 1 555 3 discriminator 2
 266 0016 7B68     		ldr	r3, [r7, #4]
 267 0018 0122     		movs	r2, #1
 268 001a 5A71     		strb	r2, [r3, #5]
 556:Drivers/STM32L4xx_HAL_Driver/Src/stm32l4xx_hal_dac.c **** 
 557:Drivers/STM32L4xx_HAL_Driver/Src/stm32l4xx_hal_dac.c ****   /* Change DAC state */
 558:Drivers/STM32L4xx_HAL_Driver/Src/stm32l4xx_hal_dac.c ****   hdac->State = HAL_DAC_STATE_BUSY;
 269              		.loc 1 558 15 is_stmt 1
 270 001c 7B68     		ldr	r3, [r7, #4]
 271 001e 0222     		movs	r2, #2
 272 0020 1A71     		strb	r2, [r3, #4]
 559:Drivers/STM32L4xx_HAL_Driver/Src/stm32l4xx_hal_dac.c **** 
 560:Drivers/STM32L4xx_HAL_Driver/Src/stm32l4xx_hal_dac.c ****   /* Enable the Peripheral */
 561:Drivers/STM32L4xx_HAL_Driver/Src/stm32l4xx_hal_dac.c ****   __HAL_DAC_ENABLE(hdac, Channel);
 273              		.loc 1 561 3
 274 0022 7B68     		ldr	r3, [r7, #4]
 275 0024 1B68     		ldr	r3, [r3]
 276 0026 1968     		ldr	r1, [r3]
 277 0028 3B68     		ldr	r3, [r7]
 278 002a 03F01003 		and	r3, r3, #16
 279 002e 0122     		movs	r2, #1
 280 0030 9A40     		lsls	r2, r2, r3
 281 0032 7B68     		ldr	r3, [r7, #4]
 282 0034 1B68     		ldr	r3, [r3]
 283 0036 0A43     		orrs	r2, r2, r1
 284 0038 1A60     		str	r2, [r3]
 562:Drivers/STM32L4xx_HAL_Driver/Src/stm32l4xx_hal_dac.c **** 
 563:Drivers/STM32L4xx_HAL_Driver/Src/stm32l4xx_hal_dac.c **** #if defined (STM32L4P5xx) || defined (STM32L4Q5xx) || defined (STM32L4R5xx) || defined (STM32L4R7xx
 564:Drivers/STM32L4xx_HAL_Driver/Src/stm32l4xx_hal_dac.c ****   if (Channel == DAC_CHANNEL_1)
 565:Drivers/STM32L4xx_HAL_Driver/Src/stm32l4xx_hal_dac.c ****   {
 566:Drivers/STM32L4xx_HAL_Driver/Src/stm32l4xx_hal_dac.c ****     /* Check if software trigger enabled */
 567:Drivers/STM32L4xx_HAL_Driver/Src/stm32l4xx_hal_dac.c ****     if ((hdac->Instance->CR & (DAC_CR_TEN1 | DAC_CR_TSEL1)) == DAC_TRIGGER_SOFTWARE)
 568:Drivers/STM32L4xx_HAL_Driver/Src/stm32l4xx_hal_dac.c ****     {
 569:Drivers/STM32L4xx_HAL_Driver/Src/stm32l4xx_hal_dac.c ****       /* Enable the selected DAC software conversion */
 570:Drivers/STM32L4xx_HAL_Driver/Src/stm32l4xx_hal_dac.c ****       SET_BIT(hdac->Instance->SWTRIGR, DAC_SWTRIGR_SWTRIG1);
 571:Drivers/STM32L4xx_HAL_Driver/Src/stm32l4xx_hal_dac.c ****     }
 572:Drivers/STM32L4xx_HAL_Driver/Src/stm32l4xx_hal_dac.c ****   }
 573:Drivers/STM32L4xx_HAL_Driver/Src/stm32l4xx_hal_dac.c ****   else
 574:Drivers/STM32L4xx_HAL_Driver/Src/stm32l4xx_hal_dac.c ****   {
 575:Drivers/STM32L4xx_HAL_Driver/Src/stm32l4xx_hal_dac.c ****     /* Check if software trigger enabled */
 576:Drivers/STM32L4xx_HAL_Driver/Src/stm32l4xx_hal_dac.c ****     if ((hdac->Instance->CR & (DAC_CR_TEN2 | DAC_CR_TSEL2)) == (DAC_TRIGGER_SOFTWARE << (Channel & 
 577:Drivers/STM32L4xx_HAL_Driver/Src/stm32l4xx_hal_dac.c ****     {
 578:Drivers/STM32L4xx_HAL_Driver/Src/stm32l4xx_hal_dac.c ****       /* Enable the selected DAC software conversion*/
 579:Drivers/STM32L4xx_HAL_Driver/Src/stm32l4xx_hal_dac.c ****       SET_BIT(hdac->Instance->SWTRIGR, DAC_SWTRIGR_SWTRIG2);
 580:Drivers/STM32L4xx_HAL_Driver/Src/stm32l4xx_hal_dac.c ****     }
 581:Drivers/STM32L4xx_HAL_Driver/Src/stm32l4xx_hal_dac.c ****   }
ARM GAS  /tmp/cc8wC0d3.s 			page 16


 582:Drivers/STM32L4xx_HAL_Driver/Src/stm32l4xx_hal_dac.c **** 
 583:Drivers/STM32L4xx_HAL_Driver/Src/stm32l4xx_hal_dac.c **** #endif /* STM32L4P5xx STM32L4Q5xx STM32L4R5xx STM32L4R7xx STM32L4R9xx STM32L4S5xx STM32L4S7xx STM32
 584:Drivers/STM32L4xx_HAL_Driver/Src/stm32l4xx_hal_dac.c **** 
 585:Drivers/STM32L4xx_HAL_Driver/Src/stm32l4xx_hal_dac.c **** #if defined (STM32L431xx) || defined (STM32L432xx) || defined (STM32L433xx) || defined (STM32L442xx
 586:Drivers/STM32L4xx_HAL_Driver/Src/stm32l4xx_hal_dac.c ****     defined (STM32L471xx) || defined (STM32L475xx) || defined (STM32L476xx) || defined (STM32L485xx
 587:Drivers/STM32L4xx_HAL_Driver/Src/stm32l4xx_hal_dac.c ****   if(Channel == DAC_CHANNEL_1)
 285              		.loc 1 587 5
 286 003a 3B68     		ldr	r3, [r7]
 287 003c 002B     		cmp	r3, #0
 288 003e 0FD1     		bne	.L13
 588:Drivers/STM32L4xx_HAL_Driver/Src/stm32l4xx_hal_dac.c ****   {
 589:Drivers/STM32L4xx_HAL_Driver/Src/stm32l4xx_hal_dac.c ****     /* Check if software trigger enabled */
 590:Drivers/STM32L4xx_HAL_Driver/Src/stm32l4xx_hal_dac.c ****     if ((hdac->Instance->CR & (DAC_CR_TEN1 | DAC_CR_TSEL1)) == (DAC_CR_TEN1 | DAC_CR_TSEL1))
 289              		.loc 1 590 14
 290 0040 7B68     		ldr	r3, [r7, #4]
 291 0042 1B68     		ldr	r3, [r3]
 292              		.loc 1 590 24
 293 0044 1B68     		ldr	r3, [r3]
 294              		.loc 1 590 29
 295 0046 03F03C03 		and	r3, r3, #60
 296              		.loc 1 590 8
 297 004a 3C2B     		cmp	r3, #60
 298 004c 18D1     		bne	.L14
 591:Drivers/STM32L4xx_HAL_Driver/Src/stm32l4xx_hal_dac.c ****     {
 592:Drivers/STM32L4xx_HAL_Driver/Src/stm32l4xx_hal_dac.c ****       /* Enable the selected DAC software conversion */
 593:Drivers/STM32L4xx_HAL_Driver/Src/stm32l4xx_hal_dac.c ****       SET_BIT(hdac->Instance->SWTRIGR, DAC_SWTRIGR_SWTRIG1);
 299              		.loc 1 593 7
 300 004e 7B68     		ldr	r3, [r7, #4]
 301 0050 1B68     		ldr	r3, [r3]
 302 0052 5A68     		ldr	r2, [r3, #4]
 303 0054 7B68     		ldr	r3, [r7, #4]
 304 0056 1B68     		ldr	r3, [r3]
 305 0058 42F00102 		orr	r2, r2, #1
 306 005c 5A60     		str	r2, [r3, #4]
 307 005e 0FE0     		b	.L14
 308              	.L13:
 594:Drivers/STM32L4xx_HAL_Driver/Src/stm32l4xx_hal_dac.c ****     }
 595:Drivers/STM32L4xx_HAL_Driver/Src/stm32l4xx_hal_dac.c ****   }
 596:Drivers/STM32L4xx_HAL_Driver/Src/stm32l4xx_hal_dac.c ****   else
 597:Drivers/STM32L4xx_HAL_Driver/Src/stm32l4xx_hal_dac.c ****   {
 598:Drivers/STM32L4xx_HAL_Driver/Src/stm32l4xx_hal_dac.c ****     /* Check if software trigger enabled */
 599:Drivers/STM32L4xx_HAL_Driver/Src/stm32l4xx_hal_dac.c ****     if ((hdac->Instance->CR & (DAC_CR_TEN2 | DAC_CR_TSEL2)) == (DAC_CR_TEN2 | DAC_CR_TSEL2))
 309              		.loc 1 599 14
 310 0060 7B68     		ldr	r3, [r7, #4]
 311 0062 1B68     		ldr	r3, [r3]
 312              		.loc 1 599 24
 313 0064 1B68     		ldr	r3, [r3]
 314              		.loc 1 599 29
 315 0066 03F47013 		and	r3, r3, #3932160
 316              		.loc 1 599 8
 317 006a B3F5701F 		cmp	r3, #3932160
 318 006e 07D1     		bne	.L14
 600:Drivers/STM32L4xx_HAL_Driver/Src/stm32l4xx_hal_dac.c ****     {
 601:Drivers/STM32L4xx_HAL_Driver/Src/stm32l4xx_hal_dac.c ****       /* Enable the selected DAC software conversion*/
 602:Drivers/STM32L4xx_HAL_Driver/Src/stm32l4xx_hal_dac.c ****       SET_BIT(hdac->Instance->SWTRIGR, DAC_SWTRIGR_SWTRIG2);
 319              		.loc 1 602 7
 320 0070 7B68     		ldr	r3, [r7, #4]
ARM GAS  /tmp/cc8wC0d3.s 			page 17


 321 0072 1B68     		ldr	r3, [r3]
 322 0074 5A68     		ldr	r2, [r3, #4]
 323 0076 7B68     		ldr	r3, [r7, #4]
 324 0078 1B68     		ldr	r3, [r3]
 325 007a 42F00202 		orr	r2, r2, #2
 326 007e 5A60     		str	r2, [r3, #4]
 327              	.L14:
 603:Drivers/STM32L4xx_HAL_Driver/Src/stm32l4xx_hal_dac.c ****     }
 604:Drivers/STM32L4xx_HAL_Driver/Src/stm32l4xx_hal_dac.c ****   }
 605:Drivers/STM32L4xx_HAL_Driver/Src/stm32l4xx_hal_dac.c **** #endif  /* STM32L431xx STM32L432xx STM32L433xx STM32L442xx STM32L443xx                         */
 606:Drivers/STM32L4xx_HAL_Driver/Src/stm32l4xx_hal_dac.c ****         /* STM32L471xx STM32L475xx STM32L476xx STM32L485xx STM32L486xx STM32L496xx STM32L4A6xx */
 607:Drivers/STM32L4xx_HAL_Driver/Src/stm32l4xx_hal_dac.c **** 
 608:Drivers/STM32L4xx_HAL_Driver/Src/stm32l4xx_hal_dac.c **** 
 609:Drivers/STM32L4xx_HAL_Driver/Src/stm32l4xx_hal_dac.c **** #if defined (STM32L451xx) || defined (STM32L452xx) || defined (STM32L462xx)
 610:Drivers/STM32L4xx_HAL_Driver/Src/stm32l4xx_hal_dac.c ****   /* Check if software trigger enabled */
 611:Drivers/STM32L4xx_HAL_Driver/Src/stm32l4xx_hal_dac.c ****   if((hdac->Instance->CR & (DAC_CR_TEN1 | DAC_CR_TSEL1)) == (DAC_CR_TEN1 | DAC_CR_TSEL1))
 612:Drivers/STM32L4xx_HAL_Driver/Src/stm32l4xx_hal_dac.c ****   {
 613:Drivers/STM32L4xx_HAL_Driver/Src/stm32l4xx_hal_dac.c ****     /* Enable the selected DAC software conversion */
 614:Drivers/STM32L4xx_HAL_Driver/Src/stm32l4xx_hal_dac.c ****     SET_BIT(hdac->Instance->SWTRIGR, DAC_SWTRIGR_SWTRIG1);
 615:Drivers/STM32L4xx_HAL_Driver/Src/stm32l4xx_hal_dac.c ****   }
 616:Drivers/STM32L4xx_HAL_Driver/Src/stm32l4xx_hal_dac.c **** #endif /* STM32L451xx STM32L452xx STM32L462xx */
 617:Drivers/STM32L4xx_HAL_Driver/Src/stm32l4xx_hal_dac.c ****   /* Change DAC state */
 618:Drivers/STM32L4xx_HAL_Driver/Src/stm32l4xx_hal_dac.c ****   hdac->State = HAL_DAC_STATE_READY;
 328              		.loc 1 618 15
 329 0080 7B68     		ldr	r3, [r7, #4]
 330 0082 0122     		movs	r2, #1
 331 0084 1A71     		strb	r2, [r3, #4]
 619:Drivers/STM32L4xx_HAL_Driver/Src/stm32l4xx_hal_dac.c **** 
 620:Drivers/STM32L4xx_HAL_Driver/Src/stm32l4xx_hal_dac.c ****   /* Process unlocked */
 621:Drivers/STM32L4xx_HAL_Driver/Src/stm32l4xx_hal_dac.c ****   __HAL_UNLOCK(hdac);
 332              		.loc 1 621 3
 333 0086 7B68     		ldr	r3, [r7, #4]
 334 0088 0022     		movs	r2, #0
 335 008a 5A71     		strb	r2, [r3, #5]
 622:Drivers/STM32L4xx_HAL_Driver/Src/stm32l4xx_hal_dac.c **** 
 623:Drivers/STM32L4xx_HAL_Driver/Src/stm32l4xx_hal_dac.c ****   /* Return function status */
 624:Drivers/STM32L4xx_HAL_Driver/Src/stm32l4xx_hal_dac.c ****   return HAL_OK;
 336              		.loc 1 624 10
 337 008c 0023     		movs	r3, #0
 338              	.L12:
 625:Drivers/STM32L4xx_HAL_Driver/Src/stm32l4xx_hal_dac.c **** }
 339              		.loc 1 625 1
 340 008e 1846     		mov	r0, r3
 341 0090 0C37     		adds	r7, r7, #12
 342              		.cfi_def_cfa_offset 4
 343 0092 BD46     		mov	sp, r7
 344              		.cfi_def_cfa_register 13
 345              		@ sp needed
 346 0094 5DF8047B 		ldr	r7, [sp], #4
 347              		.cfi_restore 7
 348              		.cfi_def_cfa_offset 0
 349 0098 7047     		bx	lr
 350              		.cfi_endproc
 351              	.LFE449:
 353              		.section	.text.HAL_DAC_Stop,"ax",%progbits
 354              		.align	1
 355              		.global	HAL_DAC_Stop
ARM GAS  /tmp/cc8wC0d3.s 			page 18


 356              		.syntax unified
 357              		.thumb
 358              		.thumb_func
 360              	HAL_DAC_Stop:
 361              	.LFB450:
 626:Drivers/STM32L4xx_HAL_Driver/Src/stm32l4xx_hal_dac.c **** 
 627:Drivers/STM32L4xx_HAL_Driver/Src/stm32l4xx_hal_dac.c **** /**
 628:Drivers/STM32L4xx_HAL_Driver/Src/stm32l4xx_hal_dac.c ****   * @brief  Disables DAC and stop conversion of channel.
 629:Drivers/STM32L4xx_HAL_Driver/Src/stm32l4xx_hal_dac.c ****   * @param  hdac pointer to a DAC_HandleTypeDef structure that contains
 630:Drivers/STM32L4xx_HAL_Driver/Src/stm32l4xx_hal_dac.c ****   *         the configuration information for the specified DAC.
 631:Drivers/STM32L4xx_HAL_Driver/Src/stm32l4xx_hal_dac.c ****   * @param  Channel The selected DAC channel.
 632:Drivers/STM32L4xx_HAL_Driver/Src/stm32l4xx_hal_dac.c ****   *          This parameter can be one of the following values:
 633:Drivers/STM32L4xx_HAL_Driver/Src/stm32l4xx_hal_dac.c ****   *            @arg DAC_CHANNEL_1: DAC Channel1 selected
 634:Drivers/STM32L4xx_HAL_Driver/Src/stm32l4xx_hal_dac.c ****   *            @arg DAC_CHANNEL_2: DAC Channel2 selected
 635:Drivers/STM32L4xx_HAL_Driver/Src/stm32l4xx_hal_dac.c ****   * @retval HAL status
 636:Drivers/STM32L4xx_HAL_Driver/Src/stm32l4xx_hal_dac.c ****   */
 637:Drivers/STM32L4xx_HAL_Driver/Src/stm32l4xx_hal_dac.c **** HAL_StatusTypeDef HAL_DAC_Stop(DAC_HandleTypeDef *hdac, uint32_t Channel)
 638:Drivers/STM32L4xx_HAL_Driver/Src/stm32l4xx_hal_dac.c **** {
 362              		.loc 1 638 1
 363              		.cfi_startproc
 364              		@ args = 0, pretend = 0, frame = 8
 365              		@ frame_needed = 1, uses_anonymous_args = 0
 366              		@ link register save eliminated.
 367 0000 80B4     		push	{r7}
 368              		.cfi_def_cfa_offset 4
 369              		.cfi_offset 7, -4
 370 0002 83B0     		sub	sp, sp, #12
 371              		.cfi_def_cfa_offset 16
 372 0004 00AF     		add	r7, sp, #0
 373              		.cfi_def_cfa_register 7
 374 0006 7860     		str	r0, [r7, #4]
 375 0008 3960     		str	r1, [r7]
 639:Drivers/STM32L4xx_HAL_Driver/Src/stm32l4xx_hal_dac.c ****   /* Check the parameters */
 640:Drivers/STM32L4xx_HAL_Driver/Src/stm32l4xx_hal_dac.c ****   assert_param(IS_DAC_CHANNEL(Channel));
 641:Drivers/STM32L4xx_HAL_Driver/Src/stm32l4xx_hal_dac.c **** 
 642:Drivers/STM32L4xx_HAL_Driver/Src/stm32l4xx_hal_dac.c ****   /* Disable the Peripheral */
 643:Drivers/STM32L4xx_HAL_Driver/Src/stm32l4xx_hal_dac.c ****   __HAL_DAC_DISABLE(hdac, Channel);
 376              		.loc 1 643 3
 377 000a 7B68     		ldr	r3, [r7, #4]
 378 000c 1B68     		ldr	r3, [r3]
 379 000e 1968     		ldr	r1, [r3]
 380 0010 3B68     		ldr	r3, [r7]
 381 0012 03F01003 		and	r3, r3, #16
 382 0016 0122     		movs	r2, #1
 383 0018 02FA03F3 		lsl	r3, r2, r3
 384 001c DA43     		mvns	r2, r3
 385 001e 7B68     		ldr	r3, [r7, #4]
 386 0020 1B68     		ldr	r3, [r3]
 387 0022 0A40     		ands	r2, r2, r1
 388 0024 1A60     		str	r2, [r3]
 644:Drivers/STM32L4xx_HAL_Driver/Src/stm32l4xx_hal_dac.c **** 
 645:Drivers/STM32L4xx_HAL_Driver/Src/stm32l4xx_hal_dac.c ****   /* Change DAC state */
 646:Drivers/STM32L4xx_HAL_Driver/Src/stm32l4xx_hal_dac.c ****   hdac->State = HAL_DAC_STATE_READY;
 389              		.loc 1 646 15
 390 0026 7B68     		ldr	r3, [r7, #4]
 391 0028 0122     		movs	r2, #1
 392 002a 1A71     		strb	r2, [r3, #4]
ARM GAS  /tmp/cc8wC0d3.s 			page 19


 647:Drivers/STM32L4xx_HAL_Driver/Src/stm32l4xx_hal_dac.c **** 
 648:Drivers/STM32L4xx_HAL_Driver/Src/stm32l4xx_hal_dac.c ****   /* Return function status */
 649:Drivers/STM32L4xx_HAL_Driver/Src/stm32l4xx_hal_dac.c ****   return HAL_OK;
 393              		.loc 1 649 10
 394 002c 0023     		movs	r3, #0
 650:Drivers/STM32L4xx_HAL_Driver/Src/stm32l4xx_hal_dac.c **** }
 395              		.loc 1 650 1
 396 002e 1846     		mov	r0, r3
 397 0030 0C37     		adds	r7, r7, #12
 398              		.cfi_def_cfa_offset 4
 399 0032 BD46     		mov	sp, r7
 400              		.cfi_def_cfa_register 13
 401              		@ sp needed
 402 0034 5DF8047B 		ldr	r7, [sp], #4
 403              		.cfi_restore 7
 404              		.cfi_def_cfa_offset 0
 405 0038 7047     		bx	lr
 406              		.cfi_endproc
 407              	.LFE450:
 409              		.section	.text.HAL_DAC_Start_DMA,"ax",%progbits
 410              		.align	1
 411              		.global	HAL_DAC_Start_DMA
 412              		.syntax unified
 413              		.thumb
 414              		.thumb_func
 416              	HAL_DAC_Start_DMA:
 417              	.LFB451:
 651:Drivers/STM32L4xx_HAL_Driver/Src/stm32l4xx_hal_dac.c **** 
 652:Drivers/STM32L4xx_HAL_Driver/Src/stm32l4xx_hal_dac.c **** #if defined (STM32L451xx) || defined (STM32L452xx) || defined (STM32L462xx)
 653:Drivers/STM32L4xx_HAL_Driver/Src/stm32l4xx_hal_dac.c **** /**
 654:Drivers/STM32L4xx_HAL_Driver/Src/stm32l4xx_hal_dac.c ****   * @brief  Enables DAC and starts conversion of channel.
 655:Drivers/STM32L4xx_HAL_Driver/Src/stm32l4xx_hal_dac.c ****   * @param  hdac pointer to a DAC_HandleTypeDef structure that contains
 656:Drivers/STM32L4xx_HAL_Driver/Src/stm32l4xx_hal_dac.c ****   *         the configuration information for the specified DAC.
 657:Drivers/STM32L4xx_HAL_Driver/Src/stm32l4xx_hal_dac.c ****   * @param  Channel The selected DAC channel.
 658:Drivers/STM32L4xx_HAL_Driver/Src/stm32l4xx_hal_dac.c ****   *          This parameter can be one of the following values:
 659:Drivers/STM32L4xx_HAL_Driver/Src/stm32l4xx_hal_dac.c ****   *            @arg DAC_CHANNEL_1: DAC Channel1 selected
 660:Drivers/STM32L4xx_HAL_Driver/Src/stm32l4xx_hal_dac.c ****   * @param  pData The destination peripheral Buffer address.
 661:Drivers/STM32L4xx_HAL_Driver/Src/stm32l4xx_hal_dac.c ****   * @param  Length The length of data to be transferred from memory to DAC peripheral
 662:Drivers/STM32L4xx_HAL_Driver/Src/stm32l4xx_hal_dac.c ****   * @param  Alignment Specifies the data alignment for DAC channel.
 663:Drivers/STM32L4xx_HAL_Driver/Src/stm32l4xx_hal_dac.c ****   *          This parameter can be one of the following values:
 664:Drivers/STM32L4xx_HAL_Driver/Src/stm32l4xx_hal_dac.c ****   *            @arg DAC_ALIGN_8B_R: 8bit right data alignment selected
 665:Drivers/STM32L4xx_HAL_Driver/Src/stm32l4xx_hal_dac.c ****   *            @arg DAC_ALIGN_12B_L: 12bit left data alignment selected
 666:Drivers/STM32L4xx_HAL_Driver/Src/stm32l4xx_hal_dac.c ****   *            @arg DAC_ALIGN_12B_R: 12bit right data alignment selected
 667:Drivers/STM32L4xx_HAL_Driver/Src/stm32l4xx_hal_dac.c ****   * @retval HAL status
 668:Drivers/STM32L4xx_HAL_Driver/Src/stm32l4xx_hal_dac.c ****   */
 669:Drivers/STM32L4xx_HAL_Driver/Src/stm32l4xx_hal_dac.c **** HAL_StatusTypeDef HAL_DAC_Start_DMA(DAC_HandleTypeDef *hdac, uint32_t Channel, uint32_t *pData, uin
 670:Drivers/STM32L4xx_HAL_Driver/Src/stm32l4xx_hal_dac.c ****                                     uint32_t Alignment)
 671:Drivers/STM32L4xx_HAL_Driver/Src/stm32l4xx_hal_dac.c **** {
 672:Drivers/STM32L4xx_HAL_Driver/Src/stm32l4xx_hal_dac.c ****   HAL_StatusTypeDef status;
 673:Drivers/STM32L4xx_HAL_Driver/Src/stm32l4xx_hal_dac.c ****   uint32_t tmpreg = 0U;
 674:Drivers/STM32L4xx_HAL_Driver/Src/stm32l4xx_hal_dac.c **** 
 675:Drivers/STM32L4xx_HAL_Driver/Src/stm32l4xx_hal_dac.c ****   /* Check the parameters */
 676:Drivers/STM32L4xx_HAL_Driver/Src/stm32l4xx_hal_dac.c ****   assert_param(IS_DAC_CHANNEL(Channel));
 677:Drivers/STM32L4xx_HAL_Driver/Src/stm32l4xx_hal_dac.c ****   assert_param(IS_DAC_ALIGN(Alignment));
 678:Drivers/STM32L4xx_HAL_Driver/Src/stm32l4xx_hal_dac.c **** 
 679:Drivers/STM32L4xx_HAL_Driver/Src/stm32l4xx_hal_dac.c ****   /* Process locked */
 680:Drivers/STM32L4xx_HAL_Driver/Src/stm32l4xx_hal_dac.c ****   __HAL_LOCK(hdac);
ARM GAS  /tmp/cc8wC0d3.s 			page 20


 681:Drivers/STM32L4xx_HAL_Driver/Src/stm32l4xx_hal_dac.c **** 
 682:Drivers/STM32L4xx_HAL_Driver/Src/stm32l4xx_hal_dac.c ****   /* Change DAC state */
 683:Drivers/STM32L4xx_HAL_Driver/Src/stm32l4xx_hal_dac.c ****   hdac->State = HAL_DAC_STATE_BUSY;
 684:Drivers/STM32L4xx_HAL_Driver/Src/stm32l4xx_hal_dac.c **** 
 685:Drivers/STM32L4xx_HAL_Driver/Src/stm32l4xx_hal_dac.c ****   /* Set the DMA transfer complete callback for channel1 */
 686:Drivers/STM32L4xx_HAL_Driver/Src/stm32l4xx_hal_dac.c ****   hdac->DMA_Handle1->XferCpltCallback = DAC_DMAConvCpltCh1;
 687:Drivers/STM32L4xx_HAL_Driver/Src/stm32l4xx_hal_dac.c **** 
 688:Drivers/STM32L4xx_HAL_Driver/Src/stm32l4xx_hal_dac.c ****   /* Set the DMA half transfer complete callback for channel1 */
 689:Drivers/STM32L4xx_HAL_Driver/Src/stm32l4xx_hal_dac.c ****   hdac->DMA_Handle1->XferHalfCpltCallback = DAC_DMAHalfConvCpltCh1;
 690:Drivers/STM32L4xx_HAL_Driver/Src/stm32l4xx_hal_dac.c **** 
 691:Drivers/STM32L4xx_HAL_Driver/Src/stm32l4xx_hal_dac.c ****   /* Set the DMA error callback for channel1 */
 692:Drivers/STM32L4xx_HAL_Driver/Src/stm32l4xx_hal_dac.c ****   hdac->DMA_Handle1->XferErrorCallback = DAC_DMAErrorCh1;
 693:Drivers/STM32L4xx_HAL_Driver/Src/stm32l4xx_hal_dac.c **** 
 694:Drivers/STM32L4xx_HAL_Driver/Src/stm32l4xx_hal_dac.c ****   /* Enable the selected DAC channel1 DMA request */
 695:Drivers/STM32L4xx_HAL_Driver/Src/stm32l4xx_hal_dac.c ****   SET_BIT(hdac->Instance->CR, DAC_CR_DMAEN1);
 696:Drivers/STM32L4xx_HAL_Driver/Src/stm32l4xx_hal_dac.c **** 
 697:Drivers/STM32L4xx_HAL_Driver/Src/stm32l4xx_hal_dac.c ****   /* Case of use of channel 1 */
 698:Drivers/STM32L4xx_HAL_Driver/Src/stm32l4xx_hal_dac.c ****   switch (Alignment)
 699:Drivers/STM32L4xx_HAL_Driver/Src/stm32l4xx_hal_dac.c ****   {
 700:Drivers/STM32L4xx_HAL_Driver/Src/stm32l4xx_hal_dac.c ****     case DAC_ALIGN_12B_R:
 701:Drivers/STM32L4xx_HAL_Driver/Src/stm32l4xx_hal_dac.c ****       /* Get DHR12R1 address */
 702:Drivers/STM32L4xx_HAL_Driver/Src/stm32l4xx_hal_dac.c ****       tmpreg = (uint32_t)&hdac->Instance->DHR12R1;
 703:Drivers/STM32L4xx_HAL_Driver/Src/stm32l4xx_hal_dac.c ****       break;
 704:Drivers/STM32L4xx_HAL_Driver/Src/stm32l4xx_hal_dac.c ****     case DAC_ALIGN_12B_L:
 705:Drivers/STM32L4xx_HAL_Driver/Src/stm32l4xx_hal_dac.c ****       /* Get DHR12L1 address */
 706:Drivers/STM32L4xx_HAL_Driver/Src/stm32l4xx_hal_dac.c ****       tmpreg = (uint32_t)&hdac->Instance->DHR12L1;
 707:Drivers/STM32L4xx_HAL_Driver/Src/stm32l4xx_hal_dac.c ****       break;
 708:Drivers/STM32L4xx_HAL_Driver/Src/stm32l4xx_hal_dac.c ****     case DAC_ALIGN_8B_R:
 709:Drivers/STM32L4xx_HAL_Driver/Src/stm32l4xx_hal_dac.c ****       /* Get DHR8R1 address */
 710:Drivers/STM32L4xx_HAL_Driver/Src/stm32l4xx_hal_dac.c ****       tmpreg = (uint32_t)&hdac->Instance->DHR8R1;
 711:Drivers/STM32L4xx_HAL_Driver/Src/stm32l4xx_hal_dac.c ****       break;
 712:Drivers/STM32L4xx_HAL_Driver/Src/stm32l4xx_hal_dac.c ****     default:
 713:Drivers/STM32L4xx_HAL_Driver/Src/stm32l4xx_hal_dac.c ****       break;
 714:Drivers/STM32L4xx_HAL_Driver/Src/stm32l4xx_hal_dac.c ****   }
 715:Drivers/STM32L4xx_HAL_Driver/Src/stm32l4xx_hal_dac.c **** 
 716:Drivers/STM32L4xx_HAL_Driver/Src/stm32l4xx_hal_dac.c ****   /* Enable the DMA channel */
 717:Drivers/STM32L4xx_HAL_Driver/Src/stm32l4xx_hal_dac.c ****   /* Enable the DAC DMA underrun interrupt */
 718:Drivers/STM32L4xx_HAL_Driver/Src/stm32l4xx_hal_dac.c ****   __HAL_DAC_ENABLE_IT(hdac, DAC_IT_DMAUDR1);
 719:Drivers/STM32L4xx_HAL_Driver/Src/stm32l4xx_hal_dac.c **** 
 720:Drivers/STM32L4xx_HAL_Driver/Src/stm32l4xx_hal_dac.c ****   /* Enable the DMA channel */
 721:Drivers/STM32L4xx_HAL_Driver/Src/stm32l4xx_hal_dac.c ****   status = HAL_DMA_Start_IT(hdac->DMA_Handle1, (uint32_t)pData, tmpreg, Length);
 722:Drivers/STM32L4xx_HAL_Driver/Src/stm32l4xx_hal_dac.c **** 
 723:Drivers/STM32L4xx_HAL_Driver/Src/stm32l4xx_hal_dac.c ****   /* Process Unlocked */
 724:Drivers/STM32L4xx_HAL_Driver/Src/stm32l4xx_hal_dac.c ****   __HAL_UNLOCK(hdac);
 725:Drivers/STM32L4xx_HAL_Driver/Src/stm32l4xx_hal_dac.c **** 
 726:Drivers/STM32L4xx_HAL_Driver/Src/stm32l4xx_hal_dac.c ****   if (status == HAL_OK)
 727:Drivers/STM32L4xx_HAL_Driver/Src/stm32l4xx_hal_dac.c ****   {
 728:Drivers/STM32L4xx_HAL_Driver/Src/stm32l4xx_hal_dac.c ****     /* Enable the Peripheral */
 729:Drivers/STM32L4xx_HAL_Driver/Src/stm32l4xx_hal_dac.c ****     __HAL_DAC_ENABLE(hdac, Channel);
 730:Drivers/STM32L4xx_HAL_Driver/Src/stm32l4xx_hal_dac.c ****   }
 731:Drivers/STM32L4xx_HAL_Driver/Src/stm32l4xx_hal_dac.c ****   else
 732:Drivers/STM32L4xx_HAL_Driver/Src/stm32l4xx_hal_dac.c ****   {
 733:Drivers/STM32L4xx_HAL_Driver/Src/stm32l4xx_hal_dac.c ****     hdac->ErrorCode |= HAL_DAC_ERROR_DMA;
 734:Drivers/STM32L4xx_HAL_Driver/Src/stm32l4xx_hal_dac.c ****   }
 735:Drivers/STM32L4xx_HAL_Driver/Src/stm32l4xx_hal_dac.c **** 
 736:Drivers/STM32L4xx_HAL_Driver/Src/stm32l4xx_hal_dac.c ****   /* Return function status */
 737:Drivers/STM32L4xx_HAL_Driver/Src/stm32l4xx_hal_dac.c ****   return status;
ARM GAS  /tmp/cc8wC0d3.s 			page 21


 738:Drivers/STM32L4xx_HAL_Driver/Src/stm32l4xx_hal_dac.c **** }
 739:Drivers/STM32L4xx_HAL_Driver/Src/stm32l4xx_hal_dac.c **** #endif /* STM32L451xx STM32L452xx STM32L462xx */
 740:Drivers/STM32L4xx_HAL_Driver/Src/stm32l4xx_hal_dac.c **** 
 741:Drivers/STM32L4xx_HAL_Driver/Src/stm32l4xx_hal_dac.c **** #if defined (STM32L431xx) || defined (STM32L432xx) || defined (STM32L433xx) || defined (STM32L442xx
 742:Drivers/STM32L4xx_HAL_Driver/Src/stm32l4xx_hal_dac.c ****     defined (STM32L471xx) || defined (STM32L475xx) || defined (STM32L476xx) || defined (STM32L485xx
 743:Drivers/STM32L4xx_HAL_Driver/Src/stm32l4xx_hal_dac.c ****     defined (STM32L4P5xx) || defined (STM32L4Q5xx) || \
 744:Drivers/STM32L4xx_HAL_Driver/Src/stm32l4xx_hal_dac.c ****     defined (STM32L4R5xx) || defined (STM32L4R7xx) || defined (STM32L4R9xx) || defined (STM32L4S5xx
 745:Drivers/STM32L4xx_HAL_Driver/Src/stm32l4xx_hal_dac.c **** 
 746:Drivers/STM32L4xx_HAL_Driver/Src/stm32l4xx_hal_dac.c **** /**
 747:Drivers/STM32L4xx_HAL_Driver/Src/stm32l4xx_hal_dac.c ****   * @brief  Enables DAC and starts conversion of channel.
 748:Drivers/STM32L4xx_HAL_Driver/Src/stm32l4xx_hal_dac.c ****   * @param  hdac pointer to a DAC_HandleTypeDef structure that contains
 749:Drivers/STM32L4xx_HAL_Driver/Src/stm32l4xx_hal_dac.c ****   *         the configuration information for the specified DAC.
 750:Drivers/STM32L4xx_HAL_Driver/Src/stm32l4xx_hal_dac.c ****   * @param  Channel The selected DAC channel.
 751:Drivers/STM32L4xx_HAL_Driver/Src/stm32l4xx_hal_dac.c ****   *          This parameter can be one of the following values:
 752:Drivers/STM32L4xx_HAL_Driver/Src/stm32l4xx_hal_dac.c ****   *            @arg DAC_CHANNEL_1: DAC Channel1 selected
 753:Drivers/STM32L4xx_HAL_Driver/Src/stm32l4xx_hal_dac.c ****   *            @arg DAC_CHANNEL_2: DAC Channel2 selected
 754:Drivers/STM32L4xx_HAL_Driver/Src/stm32l4xx_hal_dac.c ****   * @param  pData The destination peripheral Buffer address.
 755:Drivers/STM32L4xx_HAL_Driver/Src/stm32l4xx_hal_dac.c ****   * @param  Length The length of data to be transferred from memory to DAC peripheral
 756:Drivers/STM32L4xx_HAL_Driver/Src/stm32l4xx_hal_dac.c ****   * @param  Alignment Specifies the data alignment for DAC channel.
 757:Drivers/STM32L4xx_HAL_Driver/Src/stm32l4xx_hal_dac.c ****   *          This parameter can be one of the following values:
 758:Drivers/STM32L4xx_HAL_Driver/Src/stm32l4xx_hal_dac.c ****   *            @arg DAC_ALIGN_8B_R: 8bit right data alignment selected
 759:Drivers/STM32L4xx_HAL_Driver/Src/stm32l4xx_hal_dac.c ****   *            @arg DAC_ALIGN_12B_L: 12bit left data alignment selected
 760:Drivers/STM32L4xx_HAL_Driver/Src/stm32l4xx_hal_dac.c ****   *            @arg DAC_ALIGN_12B_R: 12bit right data alignment selected
 761:Drivers/STM32L4xx_HAL_Driver/Src/stm32l4xx_hal_dac.c ****   * @retval HAL status
 762:Drivers/STM32L4xx_HAL_Driver/Src/stm32l4xx_hal_dac.c ****   */
 763:Drivers/STM32L4xx_HAL_Driver/Src/stm32l4xx_hal_dac.c **** HAL_StatusTypeDef HAL_DAC_Start_DMA(DAC_HandleTypeDef *hdac, uint32_t Channel, uint32_t *pData, uin
 764:Drivers/STM32L4xx_HAL_Driver/Src/stm32l4xx_hal_dac.c ****                                     uint32_t Alignment)
 765:Drivers/STM32L4xx_HAL_Driver/Src/stm32l4xx_hal_dac.c **** {
 418              		.loc 1 765 1
 419              		.cfi_startproc
 420              		@ args = 4, pretend = 0, frame = 24
 421              		@ frame_needed = 1, uses_anonymous_args = 0
 422 0000 80B5     		push	{r7, lr}
 423              		.cfi_def_cfa_offset 8
 424              		.cfi_offset 7, -8
 425              		.cfi_offset 14, -4
 426 0002 86B0     		sub	sp, sp, #24
 427              		.cfi_def_cfa_offset 32
 428 0004 00AF     		add	r7, sp, #0
 429              		.cfi_def_cfa_register 7
 430 0006 F860     		str	r0, [r7, #12]
 431 0008 B960     		str	r1, [r7, #8]
 432 000a 7A60     		str	r2, [r7, #4]
 433 000c 3B60     		str	r3, [r7]
 766:Drivers/STM32L4xx_HAL_Driver/Src/stm32l4xx_hal_dac.c ****   HAL_StatusTypeDef status;
 767:Drivers/STM32L4xx_HAL_Driver/Src/stm32l4xx_hal_dac.c ****   uint32_t tmpreg = 0U;
 434              		.loc 1 767 12
 435 000e 0023     		movs	r3, #0
 436 0010 3B61     		str	r3, [r7, #16]
 768:Drivers/STM32L4xx_HAL_Driver/Src/stm32l4xx_hal_dac.c **** 
 769:Drivers/STM32L4xx_HAL_Driver/Src/stm32l4xx_hal_dac.c ****   /* Check the parameters */
 770:Drivers/STM32L4xx_HAL_Driver/Src/stm32l4xx_hal_dac.c ****   assert_param(IS_DAC_CHANNEL(Channel));
 771:Drivers/STM32L4xx_HAL_Driver/Src/stm32l4xx_hal_dac.c ****   assert_param(IS_DAC_ALIGN(Alignment));
 772:Drivers/STM32L4xx_HAL_Driver/Src/stm32l4xx_hal_dac.c **** 
 773:Drivers/STM32L4xx_HAL_Driver/Src/stm32l4xx_hal_dac.c ****   /* Process locked */
 774:Drivers/STM32L4xx_HAL_Driver/Src/stm32l4xx_hal_dac.c ****   __HAL_LOCK(hdac);
 437              		.loc 1 774 3
ARM GAS  /tmp/cc8wC0d3.s 			page 22


 438 0012 FB68     		ldr	r3, [r7, #12]
 439 0014 5B79     		ldrb	r3, [r3, #5]	@ zero_extendqisi2
 440 0016 012B     		cmp	r3, #1
 441 0018 01D1     		bne	.L18
 442              		.loc 1 774 3 is_stmt 0 discriminator 1
 443 001a 0223     		movs	r3, #2
 444              		.loc 1 774 3
 445 001c ABE0     		b	.L19
 446              	.L18:
 447              		.loc 1 774 3 discriminator 2
 448 001e FB68     		ldr	r3, [r7, #12]
 449 0020 0122     		movs	r2, #1
 450 0022 5A71     		strb	r2, [r3, #5]
 775:Drivers/STM32L4xx_HAL_Driver/Src/stm32l4xx_hal_dac.c **** 
 776:Drivers/STM32L4xx_HAL_Driver/Src/stm32l4xx_hal_dac.c ****   /* Change DAC state */
 777:Drivers/STM32L4xx_HAL_Driver/Src/stm32l4xx_hal_dac.c ****   hdac->State = HAL_DAC_STATE_BUSY;
 451              		.loc 1 777 15 is_stmt 1
 452 0024 FB68     		ldr	r3, [r7, #12]
 453 0026 0222     		movs	r2, #2
 454 0028 1A71     		strb	r2, [r3, #4]
 778:Drivers/STM32L4xx_HAL_Driver/Src/stm32l4xx_hal_dac.c **** 
 779:Drivers/STM32L4xx_HAL_Driver/Src/stm32l4xx_hal_dac.c ****   if (Channel == DAC_CHANNEL_1)
 455              		.loc 1 779 6
 456 002a BB68     		ldr	r3, [r7, #8]
 457 002c 002B     		cmp	r3, #0
 458 002e 2FD1     		bne	.L20
 780:Drivers/STM32L4xx_HAL_Driver/Src/stm32l4xx_hal_dac.c ****   {
 781:Drivers/STM32L4xx_HAL_Driver/Src/stm32l4xx_hal_dac.c ****     /* Set the DMA transfer complete callback for channel1 */
 782:Drivers/STM32L4xx_HAL_Driver/Src/stm32l4xx_hal_dac.c ****     hdac->DMA_Handle1->XferCpltCallback = DAC_DMAConvCpltCh1;
 459              		.loc 1 782 9
 460 0030 FB68     		ldr	r3, [r7, #12]
 461 0032 9B68     		ldr	r3, [r3, #8]
 462              		.loc 1 782 41
 463 0034 524A     		ldr	r2, .L37
 464 0036 DA62     		str	r2, [r3, #44]
 783:Drivers/STM32L4xx_HAL_Driver/Src/stm32l4xx_hal_dac.c **** 
 784:Drivers/STM32L4xx_HAL_Driver/Src/stm32l4xx_hal_dac.c ****     /* Set the DMA half transfer complete callback for channel1 */
 785:Drivers/STM32L4xx_HAL_Driver/Src/stm32l4xx_hal_dac.c ****     hdac->DMA_Handle1->XferHalfCpltCallback = DAC_DMAHalfConvCpltCh1;
 465              		.loc 1 785 9
 466 0038 FB68     		ldr	r3, [r7, #12]
 467 003a 9B68     		ldr	r3, [r3, #8]
 468              		.loc 1 785 45
 469 003c 514A     		ldr	r2, .L37+4
 470 003e 1A63     		str	r2, [r3, #48]
 786:Drivers/STM32L4xx_HAL_Driver/Src/stm32l4xx_hal_dac.c **** 
 787:Drivers/STM32L4xx_HAL_Driver/Src/stm32l4xx_hal_dac.c ****     /* Set the DMA error callback for channel1 */
 788:Drivers/STM32L4xx_HAL_Driver/Src/stm32l4xx_hal_dac.c ****     hdac->DMA_Handle1->XferErrorCallback = DAC_DMAErrorCh1;
 471              		.loc 1 788 9
 472 0040 FB68     		ldr	r3, [r7, #12]
 473 0042 9B68     		ldr	r3, [r3, #8]
 474              		.loc 1 788 42
 475 0044 504A     		ldr	r2, .L37+8
 476 0046 5A63     		str	r2, [r3, #52]
 789:Drivers/STM32L4xx_HAL_Driver/Src/stm32l4xx_hal_dac.c **** 
 790:Drivers/STM32L4xx_HAL_Driver/Src/stm32l4xx_hal_dac.c ****     /* Enable the selected DAC channel1 DMA request */
 791:Drivers/STM32L4xx_HAL_Driver/Src/stm32l4xx_hal_dac.c ****     SET_BIT(hdac->Instance->CR, DAC_CR_DMAEN1);
 477              		.loc 1 791 5
ARM GAS  /tmp/cc8wC0d3.s 			page 23


 478 0048 FB68     		ldr	r3, [r7, #12]
 479 004a 1B68     		ldr	r3, [r3]
 480 004c 1A68     		ldr	r2, [r3]
 481 004e FB68     		ldr	r3, [r7, #12]
 482 0050 1B68     		ldr	r3, [r3]
 483 0052 42F48052 		orr	r2, r2, #4096
 484 0056 1A60     		str	r2, [r3]
 792:Drivers/STM32L4xx_HAL_Driver/Src/stm32l4xx_hal_dac.c **** 
 793:Drivers/STM32L4xx_HAL_Driver/Src/stm32l4xx_hal_dac.c ****     /* Case of use of channel 1 */
 794:Drivers/STM32L4xx_HAL_Driver/Src/stm32l4xx_hal_dac.c ****     switch (Alignment)
 485              		.loc 1 794 5
 486 0058 3B6A     		ldr	r3, [r7, #32]
 487 005a 082B     		cmp	r3, #8
 488 005c 13D0     		beq	.L21
 489 005e 3B6A     		ldr	r3, [r7, #32]
 490 0060 082B     		cmp	r3, #8
 491 0062 45D8     		bhi	.L35
 492 0064 3B6A     		ldr	r3, [r7, #32]
 493 0066 002B     		cmp	r3, #0
 494 0068 03D0     		beq	.L23
 495 006a 3B6A     		ldr	r3, [r7, #32]
 496 006c 042B     		cmp	r3, #4
 497 006e 05D0     		beq	.L24
 795:Drivers/STM32L4xx_HAL_Driver/Src/stm32l4xx_hal_dac.c ****     {
 796:Drivers/STM32L4xx_HAL_Driver/Src/stm32l4xx_hal_dac.c ****       case DAC_ALIGN_12B_R:
 797:Drivers/STM32L4xx_HAL_Driver/Src/stm32l4xx_hal_dac.c ****         /* Get DHR12R1 address */
 798:Drivers/STM32L4xx_HAL_Driver/Src/stm32l4xx_hal_dac.c ****         tmpreg = (uint32_t)&hdac->Instance->DHR12R1;
 799:Drivers/STM32L4xx_HAL_Driver/Src/stm32l4xx_hal_dac.c ****         break;
 800:Drivers/STM32L4xx_HAL_Driver/Src/stm32l4xx_hal_dac.c ****       case DAC_ALIGN_12B_L:
 801:Drivers/STM32L4xx_HAL_Driver/Src/stm32l4xx_hal_dac.c ****         /* Get DHR12L1 address */
 802:Drivers/STM32L4xx_HAL_Driver/Src/stm32l4xx_hal_dac.c ****         tmpreg = (uint32_t)&hdac->Instance->DHR12L1;
 803:Drivers/STM32L4xx_HAL_Driver/Src/stm32l4xx_hal_dac.c ****         break;
 804:Drivers/STM32L4xx_HAL_Driver/Src/stm32l4xx_hal_dac.c ****       case DAC_ALIGN_8B_R:
 805:Drivers/STM32L4xx_HAL_Driver/Src/stm32l4xx_hal_dac.c ****         /* Get DHR8R1 address */
 806:Drivers/STM32L4xx_HAL_Driver/Src/stm32l4xx_hal_dac.c ****         tmpreg = (uint32_t)&hdac->Instance->DHR8R1;
 807:Drivers/STM32L4xx_HAL_Driver/Src/stm32l4xx_hal_dac.c ****         break;
 808:Drivers/STM32L4xx_HAL_Driver/Src/stm32l4xx_hal_dac.c ****       default:
 809:Drivers/STM32L4xx_HAL_Driver/Src/stm32l4xx_hal_dac.c ****         break;
 498              		.loc 1 809 9
 499 0070 3EE0     		b	.L35
 500              	.L23:
 798:Drivers/STM32L4xx_HAL_Driver/Src/stm32l4xx_hal_dac.c ****         break;
 501              		.loc 1 798 33
 502 0072 FB68     		ldr	r3, [r7, #12]
 503 0074 1B68     		ldr	r3, [r3]
 798:Drivers/STM32L4xx_HAL_Driver/Src/stm32l4xx_hal_dac.c ****         break;
 504              		.loc 1 798 28
 505 0076 0833     		adds	r3, r3, #8
 798:Drivers/STM32L4xx_HAL_Driver/Src/stm32l4xx_hal_dac.c ****         break;
 506              		.loc 1 798 16
 507 0078 3B61     		str	r3, [r7, #16]
 799:Drivers/STM32L4xx_HAL_Driver/Src/stm32l4xx_hal_dac.c ****       case DAC_ALIGN_12B_L:
 508              		.loc 1 799 9
 509 007a 3CE0     		b	.L26
 510              	.L24:
 802:Drivers/STM32L4xx_HAL_Driver/Src/stm32l4xx_hal_dac.c ****         break;
 511              		.loc 1 802 33
ARM GAS  /tmp/cc8wC0d3.s 			page 24


 512 007c FB68     		ldr	r3, [r7, #12]
 513 007e 1B68     		ldr	r3, [r3]
 802:Drivers/STM32L4xx_HAL_Driver/Src/stm32l4xx_hal_dac.c ****         break;
 514              		.loc 1 802 28
 515 0080 0C33     		adds	r3, r3, #12
 802:Drivers/STM32L4xx_HAL_Driver/Src/stm32l4xx_hal_dac.c ****         break;
 516              		.loc 1 802 16
 517 0082 3B61     		str	r3, [r7, #16]
 803:Drivers/STM32L4xx_HAL_Driver/Src/stm32l4xx_hal_dac.c ****       case DAC_ALIGN_8B_R:
 518              		.loc 1 803 9
 519 0084 37E0     		b	.L26
 520              	.L21:
 806:Drivers/STM32L4xx_HAL_Driver/Src/stm32l4xx_hal_dac.c ****         break;
 521              		.loc 1 806 33
 522 0086 FB68     		ldr	r3, [r7, #12]
 523 0088 1B68     		ldr	r3, [r3]
 806:Drivers/STM32L4xx_HAL_Driver/Src/stm32l4xx_hal_dac.c ****         break;
 524              		.loc 1 806 28
 525 008a 1033     		adds	r3, r3, #16
 806:Drivers/STM32L4xx_HAL_Driver/Src/stm32l4xx_hal_dac.c ****         break;
 526              		.loc 1 806 16
 527 008c 3B61     		str	r3, [r7, #16]
 807:Drivers/STM32L4xx_HAL_Driver/Src/stm32l4xx_hal_dac.c ****       default:
 528              		.loc 1 807 9
 529 008e 32E0     		b	.L26
 530              	.L20:
 810:Drivers/STM32L4xx_HAL_Driver/Src/stm32l4xx_hal_dac.c ****     }
 811:Drivers/STM32L4xx_HAL_Driver/Src/stm32l4xx_hal_dac.c ****   }
 812:Drivers/STM32L4xx_HAL_Driver/Src/stm32l4xx_hal_dac.c ****   else
 813:Drivers/STM32L4xx_HAL_Driver/Src/stm32l4xx_hal_dac.c ****   {
 814:Drivers/STM32L4xx_HAL_Driver/Src/stm32l4xx_hal_dac.c ****     /* Set the DMA transfer complete callback for channel2 */
 815:Drivers/STM32L4xx_HAL_Driver/Src/stm32l4xx_hal_dac.c ****     hdac->DMA_Handle2->XferCpltCallback = DAC_DMAConvCpltCh2;
 531              		.loc 1 815 9
 532 0090 FB68     		ldr	r3, [r7, #12]
 533 0092 DB68     		ldr	r3, [r3, #12]
 534              		.loc 1 815 41
 535 0094 3D4A     		ldr	r2, .L37+12
 536 0096 DA62     		str	r2, [r3, #44]
 816:Drivers/STM32L4xx_HAL_Driver/Src/stm32l4xx_hal_dac.c **** 
 817:Drivers/STM32L4xx_HAL_Driver/Src/stm32l4xx_hal_dac.c ****     /* Set the DMA half transfer complete callback for channel2 */
 818:Drivers/STM32L4xx_HAL_Driver/Src/stm32l4xx_hal_dac.c ****     hdac->DMA_Handle2->XferHalfCpltCallback = DAC_DMAHalfConvCpltCh2;
 537              		.loc 1 818 9
 538 0098 FB68     		ldr	r3, [r7, #12]
 539 009a DB68     		ldr	r3, [r3, #12]
 540              		.loc 1 818 45
 541 009c 3C4A     		ldr	r2, .L37+16
 542 009e 1A63     		str	r2, [r3, #48]
 819:Drivers/STM32L4xx_HAL_Driver/Src/stm32l4xx_hal_dac.c **** 
 820:Drivers/STM32L4xx_HAL_Driver/Src/stm32l4xx_hal_dac.c ****     /* Set the DMA error callback for channel2 */
 821:Drivers/STM32L4xx_HAL_Driver/Src/stm32l4xx_hal_dac.c ****     hdac->DMA_Handle2->XferErrorCallback = DAC_DMAErrorCh2;
 543              		.loc 1 821 9
 544 00a0 FB68     		ldr	r3, [r7, #12]
 545 00a2 DB68     		ldr	r3, [r3, #12]
 546              		.loc 1 821 42
 547 00a4 3B4A     		ldr	r2, .L37+20
 548 00a6 5A63     		str	r2, [r3, #52]
 822:Drivers/STM32L4xx_HAL_Driver/Src/stm32l4xx_hal_dac.c **** 
ARM GAS  /tmp/cc8wC0d3.s 			page 25


 823:Drivers/STM32L4xx_HAL_Driver/Src/stm32l4xx_hal_dac.c ****     /* Enable the selected DAC channel2 DMA request */
 824:Drivers/STM32L4xx_HAL_Driver/Src/stm32l4xx_hal_dac.c ****     SET_BIT(hdac->Instance->CR, DAC_CR_DMAEN2);
 549              		.loc 1 824 5
 550 00a8 FB68     		ldr	r3, [r7, #12]
 551 00aa 1B68     		ldr	r3, [r3]
 552 00ac 1A68     		ldr	r2, [r3]
 553 00ae FB68     		ldr	r3, [r7, #12]
 554 00b0 1B68     		ldr	r3, [r3]
 555 00b2 42F08052 		orr	r2, r2, #268435456
 556 00b6 1A60     		str	r2, [r3]
 825:Drivers/STM32L4xx_HAL_Driver/Src/stm32l4xx_hal_dac.c **** 
 826:Drivers/STM32L4xx_HAL_Driver/Src/stm32l4xx_hal_dac.c ****     /* Case of use of channel 2 */
 827:Drivers/STM32L4xx_HAL_Driver/Src/stm32l4xx_hal_dac.c ****     switch (Alignment)
 557              		.loc 1 827 5
 558 00b8 3B6A     		ldr	r3, [r7, #32]
 559 00ba 082B     		cmp	r3, #8
 560 00bc 13D0     		beq	.L27
 561 00be 3B6A     		ldr	r3, [r7, #32]
 562 00c0 082B     		cmp	r3, #8
 563 00c2 17D8     		bhi	.L36
 564 00c4 3B6A     		ldr	r3, [r7, #32]
 565 00c6 002B     		cmp	r3, #0
 566 00c8 03D0     		beq	.L29
 567 00ca 3B6A     		ldr	r3, [r7, #32]
 568 00cc 042B     		cmp	r3, #4
 569 00ce 05D0     		beq	.L30
 828:Drivers/STM32L4xx_HAL_Driver/Src/stm32l4xx_hal_dac.c ****     {
 829:Drivers/STM32L4xx_HAL_Driver/Src/stm32l4xx_hal_dac.c ****       case DAC_ALIGN_12B_R:
 830:Drivers/STM32L4xx_HAL_Driver/Src/stm32l4xx_hal_dac.c ****         /* Get DHR12R2 address */
 831:Drivers/STM32L4xx_HAL_Driver/Src/stm32l4xx_hal_dac.c ****         tmpreg = (uint32_t)&hdac->Instance->DHR12R2;
 832:Drivers/STM32L4xx_HAL_Driver/Src/stm32l4xx_hal_dac.c ****         break;
 833:Drivers/STM32L4xx_HAL_Driver/Src/stm32l4xx_hal_dac.c ****       case DAC_ALIGN_12B_L:
 834:Drivers/STM32L4xx_HAL_Driver/Src/stm32l4xx_hal_dac.c ****         /* Get DHR12L2 address */
 835:Drivers/STM32L4xx_HAL_Driver/Src/stm32l4xx_hal_dac.c ****         tmpreg = (uint32_t)&hdac->Instance->DHR12L2;
 836:Drivers/STM32L4xx_HAL_Driver/Src/stm32l4xx_hal_dac.c ****         break;
 837:Drivers/STM32L4xx_HAL_Driver/Src/stm32l4xx_hal_dac.c ****       case DAC_ALIGN_8B_R:
 838:Drivers/STM32L4xx_HAL_Driver/Src/stm32l4xx_hal_dac.c ****         /* Get DHR8R2 address */
 839:Drivers/STM32L4xx_HAL_Driver/Src/stm32l4xx_hal_dac.c ****         tmpreg = (uint32_t)&hdac->Instance->DHR8R2;
 840:Drivers/STM32L4xx_HAL_Driver/Src/stm32l4xx_hal_dac.c ****         break;
 841:Drivers/STM32L4xx_HAL_Driver/Src/stm32l4xx_hal_dac.c ****       default:
 842:Drivers/STM32L4xx_HAL_Driver/Src/stm32l4xx_hal_dac.c ****         break;
 570              		.loc 1 842 9
 571 00d0 10E0     		b	.L36
 572              	.L29:
 831:Drivers/STM32L4xx_HAL_Driver/Src/stm32l4xx_hal_dac.c ****         break;
 573              		.loc 1 831 33
 574 00d2 FB68     		ldr	r3, [r7, #12]
 575 00d4 1B68     		ldr	r3, [r3]
 831:Drivers/STM32L4xx_HAL_Driver/Src/stm32l4xx_hal_dac.c ****         break;
 576              		.loc 1 831 28
 577 00d6 1433     		adds	r3, r3, #20
 831:Drivers/STM32L4xx_HAL_Driver/Src/stm32l4xx_hal_dac.c ****         break;
 578              		.loc 1 831 16
 579 00d8 3B61     		str	r3, [r7, #16]
 832:Drivers/STM32L4xx_HAL_Driver/Src/stm32l4xx_hal_dac.c ****       case DAC_ALIGN_12B_L:
 580              		.loc 1 832 9
 581 00da 0CE0     		b	.L26
ARM GAS  /tmp/cc8wC0d3.s 			page 26


 582              	.L30:
 835:Drivers/STM32L4xx_HAL_Driver/Src/stm32l4xx_hal_dac.c ****         break;
 583              		.loc 1 835 33
 584 00dc FB68     		ldr	r3, [r7, #12]
 585 00de 1B68     		ldr	r3, [r3]
 835:Drivers/STM32L4xx_HAL_Driver/Src/stm32l4xx_hal_dac.c ****         break;
 586              		.loc 1 835 28
 587 00e0 1833     		adds	r3, r3, #24
 835:Drivers/STM32L4xx_HAL_Driver/Src/stm32l4xx_hal_dac.c ****         break;
 588              		.loc 1 835 16
 589 00e2 3B61     		str	r3, [r7, #16]
 836:Drivers/STM32L4xx_HAL_Driver/Src/stm32l4xx_hal_dac.c ****       case DAC_ALIGN_8B_R:
 590              		.loc 1 836 9
 591 00e4 07E0     		b	.L26
 592              	.L27:
 839:Drivers/STM32L4xx_HAL_Driver/Src/stm32l4xx_hal_dac.c ****         break;
 593              		.loc 1 839 33
 594 00e6 FB68     		ldr	r3, [r7, #12]
 595 00e8 1B68     		ldr	r3, [r3]
 839:Drivers/STM32L4xx_HAL_Driver/Src/stm32l4xx_hal_dac.c ****         break;
 596              		.loc 1 839 28
 597 00ea 1C33     		adds	r3, r3, #28
 839:Drivers/STM32L4xx_HAL_Driver/Src/stm32l4xx_hal_dac.c ****         break;
 598              		.loc 1 839 16
 599 00ec 3B61     		str	r3, [r7, #16]
 840:Drivers/STM32L4xx_HAL_Driver/Src/stm32l4xx_hal_dac.c ****       default:
 600              		.loc 1 840 9
 601 00ee 02E0     		b	.L26
 602              	.L35:
 809:Drivers/STM32L4xx_HAL_Driver/Src/stm32l4xx_hal_dac.c ****     }
 603              		.loc 1 809 9
 604 00f0 00BF     		nop
 605 00f2 00E0     		b	.L26
 606              	.L36:
 607              		.loc 1 842 9
 608 00f4 00BF     		nop
 609              	.L26:
 843:Drivers/STM32L4xx_HAL_Driver/Src/stm32l4xx_hal_dac.c ****     }
 844:Drivers/STM32L4xx_HAL_Driver/Src/stm32l4xx_hal_dac.c ****   }
 845:Drivers/STM32L4xx_HAL_Driver/Src/stm32l4xx_hal_dac.c **** 
 846:Drivers/STM32L4xx_HAL_Driver/Src/stm32l4xx_hal_dac.c ****   /* Enable the DMA channel */
 847:Drivers/STM32L4xx_HAL_Driver/Src/stm32l4xx_hal_dac.c ****   if (Channel == DAC_CHANNEL_1)
 610              		.loc 1 847 6
 611 00f6 BB68     		ldr	r3, [r7, #8]
 612 00f8 002B     		cmp	r3, #0
 613 00fa 11D1     		bne	.L31
 848:Drivers/STM32L4xx_HAL_Driver/Src/stm32l4xx_hal_dac.c ****   {
 849:Drivers/STM32L4xx_HAL_Driver/Src/stm32l4xx_hal_dac.c ****     /* Enable the DAC DMA underrun interrupt */
 850:Drivers/STM32L4xx_HAL_Driver/Src/stm32l4xx_hal_dac.c ****     __HAL_DAC_ENABLE_IT(hdac, DAC_IT_DMAUDR1);
 614              		.loc 1 850 5
 615 00fc FB68     		ldr	r3, [r7, #12]
 616 00fe 1B68     		ldr	r3, [r3]
 617 0100 1A68     		ldr	r2, [r3]
 618 0102 FB68     		ldr	r3, [r7, #12]
 619 0104 1B68     		ldr	r3, [r3]
 620 0106 42F40052 		orr	r2, r2, #8192
 621 010a 1A60     		str	r2, [r3]
ARM GAS  /tmp/cc8wC0d3.s 			page 27


 851:Drivers/STM32L4xx_HAL_Driver/Src/stm32l4xx_hal_dac.c **** 
 852:Drivers/STM32L4xx_HAL_Driver/Src/stm32l4xx_hal_dac.c ****     /* Enable the DMA channel */
 853:Drivers/STM32L4xx_HAL_Driver/Src/stm32l4xx_hal_dac.c ****     status = HAL_DMA_Start_IT(hdac->DMA_Handle1, (uint32_t)pData, tmpreg, Length);
 622              		.loc 1 853 14
 623 010c FB68     		ldr	r3, [r7, #12]
 624 010e 9868     		ldr	r0, [r3, #8]
 625 0110 7968     		ldr	r1, [r7, #4]
 626 0112 3B68     		ldr	r3, [r7]
 627 0114 3A69     		ldr	r2, [r7, #16]
 628 0116 FFF7FEFF 		bl	HAL_DMA_Start_IT
 629 011a 0346     		mov	r3, r0
 630 011c FB75     		strb	r3, [r7, #23]
 631 011e 10E0     		b	.L32
 632              	.L31:
 854:Drivers/STM32L4xx_HAL_Driver/Src/stm32l4xx_hal_dac.c ****   }
 855:Drivers/STM32L4xx_HAL_Driver/Src/stm32l4xx_hal_dac.c ****   else
 856:Drivers/STM32L4xx_HAL_Driver/Src/stm32l4xx_hal_dac.c ****   {
 857:Drivers/STM32L4xx_HAL_Driver/Src/stm32l4xx_hal_dac.c ****     /* Enable the DAC DMA underrun interrupt */
 858:Drivers/STM32L4xx_HAL_Driver/Src/stm32l4xx_hal_dac.c ****     __HAL_DAC_ENABLE_IT(hdac, DAC_IT_DMAUDR2);
 633              		.loc 1 858 5
 634 0120 FB68     		ldr	r3, [r7, #12]
 635 0122 1B68     		ldr	r3, [r3]
 636 0124 1A68     		ldr	r2, [r3]
 637 0126 FB68     		ldr	r3, [r7, #12]
 638 0128 1B68     		ldr	r3, [r3]
 639 012a 42F00052 		orr	r2, r2, #536870912
 640 012e 1A60     		str	r2, [r3]
 859:Drivers/STM32L4xx_HAL_Driver/Src/stm32l4xx_hal_dac.c **** 
 860:Drivers/STM32L4xx_HAL_Driver/Src/stm32l4xx_hal_dac.c ****     /* Enable the DMA channel */
 861:Drivers/STM32L4xx_HAL_Driver/Src/stm32l4xx_hal_dac.c ****     status = HAL_DMA_Start_IT(hdac->DMA_Handle2, (uint32_t)pData, tmpreg, Length);
 641              		.loc 1 861 14
 642 0130 FB68     		ldr	r3, [r7, #12]
 643 0132 D868     		ldr	r0, [r3, #12]
 644 0134 7968     		ldr	r1, [r7, #4]
 645 0136 3B68     		ldr	r3, [r7]
 646 0138 3A69     		ldr	r2, [r7, #16]
 647 013a FFF7FEFF 		bl	HAL_DMA_Start_IT
 648 013e 0346     		mov	r3, r0
 649 0140 FB75     		strb	r3, [r7, #23]
 650              	.L32:
 862:Drivers/STM32L4xx_HAL_Driver/Src/stm32l4xx_hal_dac.c ****   }
 863:Drivers/STM32L4xx_HAL_Driver/Src/stm32l4xx_hal_dac.c **** 
 864:Drivers/STM32L4xx_HAL_Driver/Src/stm32l4xx_hal_dac.c ****   /* Process Unlocked */
 865:Drivers/STM32L4xx_HAL_Driver/Src/stm32l4xx_hal_dac.c ****   __HAL_UNLOCK(hdac);
 651              		.loc 1 865 3
 652 0142 FB68     		ldr	r3, [r7, #12]
 653 0144 0022     		movs	r2, #0
 654 0146 5A71     		strb	r2, [r3, #5]
 866:Drivers/STM32L4xx_HAL_Driver/Src/stm32l4xx_hal_dac.c **** 
 867:Drivers/STM32L4xx_HAL_Driver/Src/stm32l4xx_hal_dac.c ****   if (status == HAL_OK)
 655              		.loc 1 867 6
 656 0148 FB7D     		ldrb	r3, [r7, #23]	@ zero_extendqisi2
 657 014a 002B     		cmp	r3, #0
 658 014c 0CD1     		bne	.L33
 868:Drivers/STM32L4xx_HAL_Driver/Src/stm32l4xx_hal_dac.c ****   {
 869:Drivers/STM32L4xx_HAL_Driver/Src/stm32l4xx_hal_dac.c ****     /* Enable the Peripheral */
 870:Drivers/STM32L4xx_HAL_Driver/Src/stm32l4xx_hal_dac.c ****     __HAL_DAC_ENABLE(hdac, Channel);
ARM GAS  /tmp/cc8wC0d3.s 			page 28


 659              		.loc 1 870 5
 660 014e FB68     		ldr	r3, [r7, #12]
 661 0150 1B68     		ldr	r3, [r3]
 662 0152 1968     		ldr	r1, [r3]
 663 0154 BB68     		ldr	r3, [r7, #8]
 664 0156 03F01003 		and	r3, r3, #16
 665 015a 0122     		movs	r2, #1
 666 015c 9A40     		lsls	r2, r2, r3
 667 015e FB68     		ldr	r3, [r7, #12]
 668 0160 1B68     		ldr	r3, [r3]
 669 0162 0A43     		orrs	r2, r2, r1
 670 0164 1A60     		str	r2, [r3]
 671 0166 05E0     		b	.L34
 672              	.L33:
 871:Drivers/STM32L4xx_HAL_Driver/Src/stm32l4xx_hal_dac.c ****   }
 872:Drivers/STM32L4xx_HAL_Driver/Src/stm32l4xx_hal_dac.c ****   else
 873:Drivers/STM32L4xx_HAL_Driver/Src/stm32l4xx_hal_dac.c ****   {
 874:Drivers/STM32L4xx_HAL_Driver/Src/stm32l4xx_hal_dac.c ****     hdac->ErrorCode |= HAL_DAC_ERROR_DMA;
 673              		.loc 1 874 9
 674 0168 FB68     		ldr	r3, [r7, #12]
 675 016a 1B69     		ldr	r3, [r3, #16]
 676              		.loc 1 874 21
 677 016c 43F00402 		orr	r2, r3, #4
 678 0170 FB68     		ldr	r3, [r7, #12]
 679 0172 1A61     		str	r2, [r3, #16]
 680              	.L34:
 875:Drivers/STM32L4xx_HAL_Driver/Src/stm32l4xx_hal_dac.c ****   }
 876:Drivers/STM32L4xx_HAL_Driver/Src/stm32l4xx_hal_dac.c **** 
 877:Drivers/STM32L4xx_HAL_Driver/Src/stm32l4xx_hal_dac.c ****   /* Return function status */
 878:Drivers/STM32L4xx_HAL_Driver/Src/stm32l4xx_hal_dac.c ****   return status;
 681              		.loc 1 878 10
 682 0174 FB7D     		ldrb	r3, [r7, #23]	@ zero_extendqisi2
 683              	.L19:
 879:Drivers/STM32L4xx_HAL_Driver/Src/stm32l4xx_hal_dac.c **** }
 684              		.loc 1 879 1
 685 0176 1846     		mov	r0, r3
 686 0178 1837     		adds	r7, r7, #24
 687              		.cfi_def_cfa_offset 8
 688 017a BD46     		mov	sp, r7
 689              		.cfi_def_cfa_register 13
 690              		@ sp needed
 691 017c 80BD     		pop	{r7, pc}
 692              	.L38:
 693 017e 00BF     		.align	2
 694              	.L37:
 695 0180 00000000 		.word	DAC_DMAConvCpltCh1
 696 0184 00000000 		.word	DAC_DMAHalfConvCpltCh1
 697 0188 00000000 		.word	DAC_DMAErrorCh1
 698 018c 00000000 		.word	DAC_DMAConvCpltCh2
 699 0190 00000000 		.word	DAC_DMAHalfConvCpltCh2
 700 0194 00000000 		.word	DAC_DMAErrorCh2
 701              		.cfi_endproc
 702              	.LFE451:
 704              		.section	.text.HAL_DAC_Stop_DMA,"ax",%progbits
 705              		.align	1
 706              		.global	HAL_DAC_Stop_DMA
 707              		.syntax unified
ARM GAS  /tmp/cc8wC0d3.s 			page 29


 708              		.thumb
 709              		.thumb_func
 711              	HAL_DAC_Stop_DMA:
 712              	.LFB452:
 880:Drivers/STM32L4xx_HAL_Driver/Src/stm32l4xx_hal_dac.c **** #endif  /* STM32L431xx STM32L432xx STM32L433xx STM32L442xx STM32L443xx                         */
 881:Drivers/STM32L4xx_HAL_Driver/Src/stm32l4xx_hal_dac.c ****         /* STM32L471xx STM32L475xx STM32L476xx STM32L485xx STM32L486xx STM32L496xx STM32L4A6xx */
 882:Drivers/STM32L4xx_HAL_Driver/Src/stm32l4xx_hal_dac.c ****         /* STM32L4P5xx STM32L4Q5xx                                                             */
 883:Drivers/STM32L4xx_HAL_Driver/Src/stm32l4xx_hal_dac.c ****         /* STM32L4R5xx STM32L4R7xx STM32L4R9xx STM32L4S5xx STM32L4S7xx STM32L4S9xx             */
 884:Drivers/STM32L4xx_HAL_Driver/Src/stm32l4xx_hal_dac.c **** 
 885:Drivers/STM32L4xx_HAL_Driver/Src/stm32l4xx_hal_dac.c **** /**
 886:Drivers/STM32L4xx_HAL_Driver/Src/stm32l4xx_hal_dac.c ****   * @brief  Disables DAC and stop conversion of channel.
 887:Drivers/STM32L4xx_HAL_Driver/Src/stm32l4xx_hal_dac.c ****   * @param  hdac pointer to a DAC_HandleTypeDef structure that contains
 888:Drivers/STM32L4xx_HAL_Driver/Src/stm32l4xx_hal_dac.c ****   *         the configuration information for the specified DAC.
 889:Drivers/STM32L4xx_HAL_Driver/Src/stm32l4xx_hal_dac.c ****   * @param  Channel The selected DAC channel.
 890:Drivers/STM32L4xx_HAL_Driver/Src/stm32l4xx_hal_dac.c ****   *          This parameter can be one of the following values:
 891:Drivers/STM32L4xx_HAL_Driver/Src/stm32l4xx_hal_dac.c ****   *            @arg DAC_CHANNEL_1: DAC Channel1 selected
 892:Drivers/STM32L4xx_HAL_Driver/Src/stm32l4xx_hal_dac.c ****   *            @arg DAC_CHANNEL_2: DAC Channel2 selected
 893:Drivers/STM32L4xx_HAL_Driver/Src/stm32l4xx_hal_dac.c ****   * @retval HAL status
 894:Drivers/STM32L4xx_HAL_Driver/Src/stm32l4xx_hal_dac.c ****   */
 895:Drivers/STM32L4xx_HAL_Driver/Src/stm32l4xx_hal_dac.c **** HAL_StatusTypeDef HAL_DAC_Stop_DMA(DAC_HandleTypeDef *hdac, uint32_t Channel)
 896:Drivers/STM32L4xx_HAL_Driver/Src/stm32l4xx_hal_dac.c **** {
 713              		.loc 1 896 1
 714              		.cfi_startproc
 715              		@ args = 0, pretend = 0, frame = 8
 716              		@ frame_needed = 1, uses_anonymous_args = 0
 717 0000 80B5     		push	{r7, lr}
 718              		.cfi_def_cfa_offset 8
 719              		.cfi_offset 7, -8
 720              		.cfi_offset 14, -4
 721 0002 82B0     		sub	sp, sp, #8
 722              		.cfi_def_cfa_offset 16
 723 0004 00AF     		add	r7, sp, #0
 724              		.cfi_def_cfa_register 7
 725 0006 7860     		str	r0, [r7, #4]
 726 0008 3960     		str	r1, [r7]
 897:Drivers/STM32L4xx_HAL_Driver/Src/stm32l4xx_hal_dac.c ****   /* Check the parameters */
 898:Drivers/STM32L4xx_HAL_Driver/Src/stm32l4xx_hal_dac.c ****   assert_param(IS_DAC_CHANNEL(Channel));
 899:Drivers/STM32L4xx_HAL_Driver/Src/stm32l4xx_hal_dac.c **** 
 900:Drivers/STM32L4xx_HAL_Driver/Src/stm32l4xx_hal_dac.c ****   /* Disable the selected DAC channel DMA request */
 901:Drivers/STM32L4xx_HAL_Driver/Src/stm32l4xx_hal_dac.c ****   hdac->Instance->CR &= ~(DAC_CR_DMAEN1 << (Channel & 0x10UL));
 727              		.loc 1 901 7
 728 000a 7B68     		ldr	r3, [r7, #4]
 729 000c 1B68     		ldr	r3, [r3]
 730              		.loc 1 901 17
 731 000e 1968     		ldr	r1, [r3]
 732              		.loc 1 901 53
 733 0010 3B68     		ldr	r3, [r7]
 734 0012 03F01003 		and	r3, r3, #16
 735              		.loc 1 901 41
 736 0016 4FF48052 		mov	r2, #4096
 737 001a 02FA03F3 		lsl	r3, r2, r3
 738              		.loc 1 901 25
 739 001e DA43     		mvns	r2, r3
 740              		.loc 1 901 7
 741 0020 7B68     		ldr	r3, [r7, #4]
 742 0022 1B68     		ldr	r3, [r3]
 743              		.loc 1 901 22
ARM GAS  /tmp/cc8wC0d3.s 			page 30


 744 0024 0A40     		ands	r2, r2, r1
 745 0026 1A60     		str	r2, [r3]
 902:Drivers/STM32L4xx_HAL_Driver/Src/stm32l4xx_hal_dac.c **** 
 903:Drivers/STM32L4xx_HAL_Driver/Src/stm32l4xx_hal_dac.c ****   /* Disable the Peripheral */
 904:Drivers/STM32L4xx_HAL_Driver/Src/stm32l4xx_hal_dac.c ****   __HAL_DAC_DISABLE(hdac, Channel);
 746              		.loc 1 904 3
 747 0028 7B68     		ldr	r3, [r7, #4]
 748 002a 1B68     		ldr	r3, [r3]
 749 002c 1968     		ldr	r1, [r3]
 750 002e 3B68     		ldr	r3, [r7]
 751 0030 03F01003 		and	r3, r3, #16
 752 0034 0122     		movs	r2, #1
 753 0036 02FA03F3 		lsl	r3, r2, r3
 754 003a DA43     		mvns	r2, r3
 755 003c 7B68     		ldr	r3, [r7, #4]
 756 003e 1B68     		ldr	r3, [r3]
 757 0040 0A40     		ands	r2, r2, r1
 758 0042 1A60     		str	r2, [r3]
 905:Drivers/STM32L4xx_HAL_Driver/Src/stm32l4xx_hal_dac.c **** 
 906:Drivers/STM32L4xx_HAL_Driver/Src/stm32l4xx_hal_dac.c ****   /* Disable the DMA channel */
 907:Drivers/STM32L4xx_HAL_Driver/Src/stm32l4xx_hal_dac.c **** #if defined (STM32L431xx) || defined (STM32L432xx) || defined (STM32L433xx) || defined (STM32L442xx
 908:Drivers/STM32L4xx_HAL_Driver/Src/stm32l4xx_hal_dac.c ****     defined (STM32L471xx) || defined (STM32L475xx) || defined (STM32L476xx) || defined (STM32L485xx
 909:Drivers/STM32L4xx_HAL_Driver/Src/stm32l4xx_hal_dac.c ****     defined (STM32L4P5xx) || defined (STM32L4Q5xx) || \
 910:Drivers/STM32L4xx_HAL_Driver/Src/stm32l4xx_hal_dac.c ****     defined (STM32L4R5xx) || defined (STM32L4R7xx) || defined (STM32L4R9xx) || defined (STM32L4S5xx
 911:Drivers/STM32L4xx_HAL_Driver/Src/stm32l4xx_hal_dac.c ****   /* Channel1 is used */
 912:Drivers/STM32L4xx_HAL_Driver/Src/stm32l4xx_hal_dac.c ****   if (Channel == DAC_CHANNEL_1)
 759              		.loc 1 912 6
 760 0044 3B68     		ldr	r3, [r7]
 761 0046 002B     		cmp	r3, #0
 762 0048 0DD1     		bne	.L40
 913:Drivers/STM32L4xx_HAL_Driver/Src/stm32l4xx_hal_dac.c ****   {
 914:Drivers/STM32L4xx_HAL_Driver/Src/stm32l4xx_hal_dac.c ****     /* Disable the DMA channel */
 915:Drivers/STM32L4xx_HAL_Driver/Src/stm32l4xx_hal_dac.c ****     (void)HAL_DMA_Abort(hdac->DMA_Handle1);
 763              		.loc 1 915 11
 764 004a 7B68     		ldr	r3, [r7, #4]
 765 004c 9B68     		ldr	r3, [r3, #8]
 766 004e 1846     		mov	r0, r3
 767 0050 FFF7FEFF 		bl	HAL_DMA_Abort
 916:Drivers/STM32L4xx_HAL_Driver/Src/stm32l4xx_hal_dac.c **** 
 917:Drivers/STM32L4xx_HAL_Driver/Src/stm32l4xx_hal_dac.c ****     /* Disable the DAC DMA underrun interrupt */
 918:Drivers/STM32L4xx_HAL_Driver/Src/stm32l4xx_hal_dac.c ****     __HAL_DAC_DISABLE_IT(hdac, DAC_IT_DMAUDR1);
 768              		.loc 1 918 5
 769 0054 7B68     		ldr	r3, [r7, #4]
 770 0056 1B68     		ldr	r3, [r3]
 771 0058 1A68     		ldr	r2, [r3]
 772 005a 7B68     		ldr	r3, [r7, #4]
 773 005c 1B68     		ldr	r3, [r3]
 774 005e 22F40052 		bic	r2, r2, #8192
 775 0062 1A60     		str	r2, [r3]
 776 0064 0CE0     		b	.L41
 777              	.L40:
 919:Drivers/STM32L4xx_HAL_Driver/Src/stm32l4xx_hal_dac.c ****   }
 920:Drivers/STM32L4xx_HAL_Driver/Src/stm32l4xx_hal_dac.c ****   else /* Channel2 is used for */
 921:Drivers/STM32L4xx_HAL_Driver/Src/stm32l4xx_hal_dac.c ****   {
 922:Drivers/STM32L4xx_HAL_Driver/Src/stm32l4xx_hal_dac.c ****     /* Disable the DMA channel */
 923:Drivers/STM32L4xx_HAL_Driver/Src/stm32l4xx_hal_dac.c ****     (void)HAL_DMA_Abort(hdac->DMA_Handle2);
 778              		.loc 1 923 11
ARM GAS  /tmp/cc8wC0d3.s 			page 31


 779 0066 7B68     		ldr	r3, [r7, #4]
 780 0068 DB68     		ldr	r3, [r3, #12]
 781 006a 1846     		mov	r0, r3
 782 006c FFF7FEFF 		bl	HAL_DMA_Abort
 924:Drivers/STM32L4xx_HAL_Driver/Src/stm32l4xx_hal_dac.c **** 
 925:Drivers/STM32L4xx_HAL_Driver/Src/stm32l4xx_hal_dac.c ****     /* Disable the DAC DMA underrun interrupt */
 926:Drivers/STM32L4xx_HAL_Driver/Src/stm32l4xx_hal_dac.c ****     __HAL_DAC_DISABLE_IT(hdac, DAC_IT_DMAUDR2);
 783              		.loc 1 926 5
 784 0070 7B68     		ldr	r3, [r7, #4]
 785 0072 1B68     		ldr	r3, [r3]
 786 0074 1A68     		ldr	r2, [r3]
 787 0076 7B68     		ldr	r3, [r7, #4]
 788 0078 1B68     		ldr	r3, [r3]
 789 007a 22F00052 		bic	r2, r2, #536870912
 790 007e 1A60     		str	r2, [r3]
 791              	.L41:
 927:Drivers/STM32L4xx_HAL_Driver/Src/stm32l4xx_hal_dac.c ****   }
 928:Drivers/STM32L4xx_HAL_Driver/Src/stm32l4xx_hal_dac.c **** #endif  /* STM32L431xx STM32L432xx STM32L433xx STM32L442xx STM32L443xx                         */
 929:Drivers/STM32L4xx_HAL_Driver/Src/stm32l4xx_hal_dac.c ****         /* STM32L471xx STM32L475xx STM32L476xx STM32L485xx STM32L486xx STM32L496xx STM32L4A6xx */
 930:Drivers/STM32L4xx_HAL_Driver/Src/stm32l4xx_hal_dac.c ****         /* STM32L4P5xx STM32L4Q5xx                                                             */
 931:Drivers/STM32L4xx_HAL_Driver/Src/stm32l4xx_hal_dac.c ****         /* STM32L4R5xx STM32L4R7xx STM32L4R9xx STM32L4S5xx STM32L4S7xx STM32L4S9xx             */
 932:Drivers/STM32L4xx_HAL_Driver/Src/stm32l4xx_hal_dac.c **** 
 933:Drivers/STM32L4xx_HAL_Driver/Src/stm32l4xx_hal_dac.c **** #if defined (STM32L451xx) || defined (STM32L452xx) || defined (STM32L462xx)
 934:Drivers/STM32L4xx_HAL_Driver/Src/stm32l4xx_hal_dac.c ****   /* Disable the DMA channel */
 935:Drivers/STM32L4xx_HAL_Driver/Src/stm32l4xx_hal_dac.c ****   (void)HAL_DMA_Abort(hdac->DMA_Handle1);
 936:Drivers/STM32L4xx_HAL_Driver/Src/stm32l4xx_hal_dac.c **** 
 937:Drivers/STM32L4xx_HAL_Driver/Src/stm32l4xx_hal_dac.c ****   /* Disable the DAC DMA underrun interrupt */
 938:Drivers/STM32L4xx_HAL_Driver/Src/stm32l4xx_hal_dac.c ****   __HAL_DAC_DISABLE_IT(hdac, DAC_IT_DMAUDR1);
 939:Drivers/STM32L4xx_HAL_Driver/Src/stm32l4xx_hal_dac.c **** #endif /* STM32L451xx STM32L452xx STM32L462xx */
 940:Drivers/STM32L4xx_HAL_Driver/Src/stm32l4xx_hal_dac.c **** 
 941:Drivers/STM32L4xx_HAL_Driver/Src/stm32l4xx_hal_dac.c ****   /* Return function status */
 942:Drivers/STM32L4xx_HAL_Driver/Src/stm32l4xx_hal_dac.c ****   return HAL_OK;
 792              		.loc 1 942 10
 793 0080 0023     		movs	r3, #0
 943:Drivers/STM32L4xx_HAL_Driver/Src/stm32l4xx_hal_dac.c **** }
 794              		.loc 1 943 1
 795 0082 1846     		mov	r0, r3
 796 0084 0837     		adds	r7, r7, #8
 797              		.cfi_def_cfa_offset 8
 798 0086 BD46     		mov	sp, r7
 799              		.cfi_def_cfa_register 13
 800              		@ sp needed
 801 0088 80BD     		pop	{r7, pc}
 802              		.cfi_endproc
 803              	.LFE452:
 805              		.section	.text.HAL_DAC_IRQHandler,"ax",%progbits
 806              		.align	1
 807              		.global	HAL_DAC_IRQHandler
 808              		.syntax unified
 809              		.thumb
 810              		.thumb_func
 812              	HAL_DAC_IRQHandler:
 813              	.LFB453:
 944:Drivers/STM32L4xx_HAL_Driver/Src/stm32l4xx_hal_dac.c **** 
 945:Drivers/STM32L4xx_HAL_Driver/Src/stm32l4xx_hal_dac.c **** /* DAC channel 2 is available on top of DAC channel 1 in */
 946:Drivers/STM32L4xx_HAL_Driver/Src/stm32l4xx_hal_dac.c **** /* STM32L431xx STM32L432xx STM32L433xx STM32L442xx STM32L443xx                         */
 947:Drivers/STM32L4xx_HAL_Driver/Src/stm32l4xx_hal_dac.c **** /* STM32L471xx STM32L475xx STM32L476xx STM32L485xx STM32L486xx STM32L496xx STM32L4A6xx */
ARM GAS  /tmp/cc8wC0d3.s 			page 32


 948:Drivers/STM32L4xx_HAL_Driver/Src/stm32l4xx_hal_dac.c **** 
 949:Drivers/STM32L4xx_HAL_Driver/Src/stm32l4xx_hal_dac.c **** /**
 950:Drivers/STM32L4xx_HAL_Driver/Src/stm32l4xx_hal_dac.c ****   * @brief  Handles DAC interrupt request
 951:Drivers/STM32L4xx_HAL_Driver/Src/stm32l4xx_hal_dac.c ****   *         This function uses the interruption of DMA
 952:Drivers/STM32L4xx_HAL_Driver/Src/stm32l4xx_hal_dac.c ****   *         underrun.
 953:Drivers/STM32L4xx_HAL_Driver/Src/stm32l4xx_hal_dac.c ****   * @param  hdac pointer to a DAC_HandleTypeDef structure that contains
 954:Drivers/STM32L4xx_HAL_Driver/Src/stm32l4xx_hal_dac.c ****   *         the configuration information for the specified DAC.
 955:Drivers/STM32L4xx_HAL_Driver/Src/stm32l4xx_hal_dac.c ****   * @retval None
 956:Drivers/STM32L4xx_HAL_Driver/Src/stm32l4xx_hal_dac.c ****   */
 957:Drivers/STM32L4xx_HAL_Driver/Src/stm32l4xx_hal_dac.c **** void HAL_DAC_IRQHandler(DAC_HandleTypeDef *hdac)
 958:Drivers/STM32L4xx_HAL_Driver/Src/stm32l4xx_hal_dac.c **** {
 814              		.loc 1 958 1
 815              		.cfi_startproc
 816              		@ args = 0, pretend = 0, frame = 8
 817              		@ frame_needed = 1, uses_anonymous_args = 0
 818 0000 80B5     		push	{r7, lr}
 819              		.cfi_def_cfa_offset 8
 820              		.cfi_offset 7, -8
 821              		.cfi_offset 14, -4
 822 0002 82B0     		sub	sp, sp, #8
 823              		.cfi_def_cfa_offset 16
 824 0004 00AF     		add	r7, sp, #0
 825              		.cfi_def_cfa_register 7
 826 0006 7860     		str	r0, [r7, #4]
 959:Drivers/STM32L4xx_HAL_Driver/Src/stm32l4xx_hal_dac.c ****   if (__HAL_DAC_GET_IT_SOURCE(hdac, DAC_IT_DMAUDR1))
 827              		.loc 1 959 7
 828 0008 7B68     		ldr	r3, [r7, #4]
 829 000a 1B68     		ldr	r3, [r3]
 830 000c 1B68     		ldr	r3, [r3]
 831 000e 03F40053 		and	r3, r3, #8192
 832              		.loc 1 959 6
 833 0012 B3F5005F 		cmp	r3, #8192
 834 0016 20D1     		bne	.L44
 960:Drivers/STM32L4xx_HAL_Driver/Src/stm32l4xx_hal_dac.c ****   {
 961:Drivers/STM32L4xx_HAL_Driver/Src/stm32l4xx_hal_dac.c ****     /* Check underrun flag of DAC channel 1 */
 962:Drivers/STM32L4xx_HAL_Driver/Src/stm32l4xx_hal_dac.c ****     if (__HAL_DAC_GET_FLAG(hdac, DAC_FLAG_DMAUDR1))
 835              		.loc 1 962 9
 836 0018 7B68     		ldr	r3, [r7, #4]
 837 001a 1B68     		ldr	r3, [r3]
 838 001c 5B6B     		ldr	r3, [r3, #52]
 839 001e 03F40053 		and	r3, r3, #8192
 840              		.loc 1 962 8
 841 0022 B3F5005F 		cmp	r3, #8192
 842 0026 18D1     		bne	.L44
 963:Drivers/STM32L4xx_HAL_Driver/Src/stm32l4xx_hal_dac.c ****     {
 964:Drivers/STM32L4xx_HAL_Driver/Src/stm32l4xx_hal_dac.c ****       /* Change DAC state to error state */
 965:Drivers/STM32L4xx_HAL_Driver/Src/stm32l4xx_hal_dac.c ****       hdac->State = HAL_DAC_STATE_ERROR;
 843              		.loc 1 965 19
 844 0028 7B68     		ldr	r3, [r7, #4]
 845 002a 0422     		movs	r2, #4
 846 002c 1A71     		strb	r2, [r3, #4]
 966:Drivers/STM32L4xx_HAL_Driver/Src/stm32l4xx_hal_dac.c **** 
 967:Drivers/STM32L4xx_HAL_Driver/Src/stm32l4xx_hal_dac.c ****       /* Set DAC error code to chanel1 DMA underrun error */
 968:Drivers/STM32L4xx_HAL_Driver/Src/stm32l4xx_hal_dac.c ****       SET_BIT(hdac->ErrorCode, HAL_DAC_ERROR_DMAUNDERRUNCH1);
 847              		.loc 1 968 7
 848 002e 7B68     		ldr	r3, [r7, #4]
 849 0030 1B69     		ldr	r3, [r3, #16]
ARM GAS  /tmp/cc8wC0d3.s 			page 33


 850 0032 43F00102 		orr	r2, r3, #1
 851 0036 7B68     		ldr	r3, [r7, #4]
 852 0038 1A61     		str	r2, [r3, #16]
 969:Drivers/STM32L4xx_HAL_Driver/Src/stm32l4xx_hal_dac.c **** 
 970:Drivers/STM32L4xx_HAL_Driver/Src/stm32l4xx_hal_dac.c ****       /* Clear the underrun flag */
 971:Drivers/STM32L4xx_HAL_Driver/Src/stm32l4xx_hal_dac.c ****       __HAL_DAC_CLEAR_FLAG(hdac, DAC_FLAG_DMAUDR1);
 853              		.loc 1 971 7
 854 003a 7B68     		ldr	r3, [r7, #4]
 855 003c 1B68     		ldr	r3, [r3]
 856 003e 4FF40052 		mov	r2, #8192
 857 0042 5A63     		str	r2, [r3, #52]
 972:Drivers/STM32L4xx_HAL_Driver/Src/stm32l4xx_hal_dac.c **** 
 973:Drivers/STM32L4xx_HAL_Driver/Src/stm32l4xx_hal_dac.c ****       /* Disable the selected DAC channel1 DMA request */
 974:Drivers/STM32L4xx_HAL_Driver/Src/stm32l4xx_hal_dac.c ****       CLEAR_BIT(hdac->Instance->CR, DAC_CR_DMAEN1);
 858              		.loc 1 974 7
 859 0044 7B68     		ldr	r3, [r7, #4]
 860 0046 1B68     		ldr	r3, [r3]
 861 0048 1A68     		ldr	r2, [r3]
 862 004a 7B68     		ldr	r3, [r7, #4]
 863 004c 1B68     		ldr	r3, [r3]
 864 004e 22F48052 		bic	r2, r2, #4096
 865 0052 1A60     		str	r2, [r3]
 975:Drivers/STM32L4xx_HAL_Driver/Src/stm32l4xx_hal_dac.c **** 
 976:Drivers/STM32L4xx_HAL_Driver/Src/stm32l4xx_hal_dac.c ****       /* Error callback */
 977:Drivers/STM32L4xx_HAL_Driver/Src/stm32l4xx_hal_dac.c **** #if (USE_HAL_DAC_REGISTER_CALLBACKS == 1)
 978:Drivers/STM32L4xx_HAL_Driver/Src/stm32l4xx_hal_dac.c ****       hdac->DMAUnderrunCallbackCh1(hdac);
 979:Drivers/STM32L4xx_HAL_Driver/Src/stm32l4xx_hal_dac.c **** #else
 980:Drivers/STM32L4xx_HAL_Driver/Src/stm32l4xx_hal_dac.c ****       HAL_DAC_DMAUnderrunCallbackCh1(hdac);
 866              		.loc 1 980 7
 867 0054 7868     		ldr	r0, [r7, #4]
 868 0056 FFF7FEFF 		bl	HAL_DAC_DMAUnderrunCallbackCh1
 869              	.L44:
 981:Drivers/STM32L4xx_HAL_Driver/Src/stm32l4xx_hal_dac.c **** #endif /* USE_HAL_DAC_REGISTER_CALLBACKS */
 982:Drivers/STM32L4xx_HAL_Driver/Src/stm32l4xx_hal_dac.c ****     }
 983:Drivers/STM32L4xx_HAL_Driver/Src/stm32l4xx_hal_dac.c ****   }
 984:Drivers/STM32L4xx_HAL_Driver/Src/stm32l4xx_hal_dac.c **** #if defined (STM32L431xx) || defined (STM32L432xx) || defined (STM32L433xx) || defined (STM32L442xx
 985:Drivers/STM32L4xx_HAL_Driver/Src/stm32l4xx_hal_dac.c ****     defined (STM32L471xx) || defined (STM32L475xx) || defined (STM32L476xx) || defined (STM32L485xx
 986:Drivers/STM32L4xx_HAL_Driver/Src/stm32l4xx_hal_dac.c ****     defined (STM32L4P5xx) || defined (STM32L4Q5xx) || \
 987:Drivers/STM32L4xx_HAL_Driver/Src/stm32l4xx_hal_dac.c ****     defined (STM32L4R5xx) || defined (STM32L4R7xx) || defined (STM32L4R9xx) || defined (STM32L4S5xx
 988:Drivers/STM32L4xx_HAL_Driver/Src/stm32l4xx_hal_dac.c ****   if(__HAL_DAC_GET_IT_SOURCE(hdac, DAC_IT_DMAUDR2))
 870              		.loc 1 988 6
 871 005a 7B68     		ldr	r3, [r7, #4]
 872 005c 1B68     		ldr	r3, [r3]
 873 005e 1B68     		ldr	r3, [r3]
 874 0060 03F00053 		and	r3, r3, #536870912
 875              		.loc 1 988 5
 876 0064 B3F1005F 		cmp	r3, #536870912
 877 0068 20D1     		bne	.L46
 989:Drivers/STM32L4xx_HAL_Driver/Src/stm32l4xx_hal_dac.c ****   {
 990:Drivers/STM32L4xx_HAL_Driver/Src/stm32l4xx_hal_dac.c ****     /* Check underrun flag of DAC channel 2 */
 991:Drivers/STM32L4xx_HAL_Driver/Src/stm32l4xx_hal_dac.c ****     if (__HAL_DAC_GET_FLAG(hdac, DAC_FLAG_DMAUDR2))
 878              		.loc 1 991 9
 879 006a 7B68     		ldr	r3, [r7, #4]
 880 006c 1B68     		ldr	r3, [r3]
 881 006e 5B6B     		ldr	r3, [r3, #52]
 882 0070 03F00053 		and	r3, r3, #536870912
 883              		.loc 1 991 8
ARM GAS  /tmp/cc8wC0d3.s 			page 34


 884 0074 B3F1005F 		cmp	r3, #536870912
 885 0078 18D1     		bne	.L46
 992:Drivers/STM32L4xx_HAL_Driver/Src/stm32l4xx_hal_dac.c ****     {
 993:Drivers/STM32L4xx_HAL_Driver/Src/stm32l4xx_hal_dac.c ****       /* Change DAC state to error state */
 994:Drivers/STM32L4xx_HAL_Driver/Src/stm32l4xx_hal_dac.c ****       hdac->State = HAL_DAC_STATE_ERROR;
 886              		.loc 1 994 19
 887 007a 7B68     		ldr	r3, [r7, #4]
 888 007c 0422     		movs	r2, #4
 889 007e 1A71     		strb	r2, [r3, #4]
 995:Drivers/STM32L4xx_HAL_Driver/Src/stm32l4xx_hal_dac.c **** 
 996:Drivers/STM32L4xx_HAL_Driver/Src/stm32l4xx_hal_dac.c ****       /* Set DAC error code to channel2 DMA underrun error */
 997:Drivers/STM32L4xx_HAL_Driver/Src/stm32l4xx_hal_dac.c ****       SET_BIT(hdac->ErrorCode, HAL_DAC_ERROR_DMAUNDERRUNCH2);
 890              		.loc 1 997 7
 891 0080 7B68     		ldr	r3, [r7, #4]
 892 0082 1B69     		ldr	r3, [r3, #16]
 893 0084 43F00202 		orr	r2, r3, #2
 894 0088 7B68     		ldr	r3, [r7, #4]
 895 008a 1A61     		str	r2, [r3, #16]
 998:Drivers/STM32L4xx_HAL_Driver/Src/stm32l4xx_hal_dac.c **** 
 999:Drivers/STM32L4xx_HAL_Driver/Src/stm32l4xx_hal_dac.c ****       /* Clear the underrun flag */
1000:Drivers/STM32L4xx_HAL_Driver/Src/stm32l4xx_hal_dac.c ****       __HAL_DAC_CLEAR_FLAG(hdac, DAC_FLAG_DMAUDR2);
 896              		.loc 1 1000 7
 897 008c 7B68     		ldr	r3, [r7, #4]
 898 008e 1B68     		ldr	r3, [r3]
 899 0090 4FF00052 		mov	r2, #536870912
 900 0094 5A63     		str	r2, [r3, #52]
1001:Drivers/STM32L4xx_HAL_Driver/Src/stm32l4xx_hal_dac.c **** 
1002:Drivers/STM32L4xx_HAL_Driver/Src/stm32l4xx_hal_dac.c ****       /* Disable the selected DAC channel2 DMA request */
1003:Drivers/STM32L4xx_HAL_Driver/Src/stm32l4xx_hal_dac.c ****       CLEAR_BIT(hdac->Instance->CR, DAC_CR_DMAEN2);
 901              		.loc 1 1003 7
 902 0096 7B68     		ldr	r3, [r7, #4]
 903 0098 1B68     		ldr	r3, [r3]
 904 009a 1A68     		ldr	r2, [r3]
 905 009c 7B68     		ldr	r3, [r7, #4]
 906 009e 1B68     		ldr	r3, [r3]
 907 00a0 22F08052 		bic	r2, r2, #268435456
 908 00a4 1A60     		str	r2, [r3]
1004:Drivers/STM32L4xx_HAL_Driver/Src/stm32l4xx_hal_dac.c **** 
1005:Drivers/STM32L4xx_HAL_Driver/Src/stm32l4xx_hal_dac.c ****       /* Error callback */
1006:Drivers/STM32L4xx_HAL_Driver/Src/stm32l4xx_hal_dac.c **** #if (USE_HAL_DAC_REGISTER_CALLBACKS == 1)
1007:Drivers/STM32L4xx_HAL_Driver/Src/stm32l4xx_hal_dac.c ****       hdac->DMAUnderrunCallbackCh2(hdac);
1008:Drivers/STM32L4xx_HAL_Driver/Src/stm32l4xx_hal_dac.c **** #else
1009:Drivers/STM32L4xx_HAL_Driver/Src/stm32l4xx_hal_dac.c ****       HAL_DACEx_DMAUnderrunCallbackCh2(hdac);
 909              		.loc 1 1009 7
 910 00a6 7868     		ldr	r0, [r7, #4]
 911 00a8 FFF7FEFF 		bl	HAL_DACEx_DMAUnderrunCallbackCh2
 912              	.L46:
1010:Drivers/STM32L4xx_HAL_Driver/Src/stm32l4xx_hal_dac.c **** #endif /* USE_HAL_DAC_REGISTER_CALLBACKS */
1011:Drivers/STM32L4xx_HAL_Driver/Src/stm32l4xx_hal_dac.c ****     }
1012:Drivers/STM32L4xx_HAL_Driver/Src/stm32l4xx_hal_dac.c ****   }
1013:Drivers/STM32L4xx_HAL_Driver/Src/stm32l4xx_hal_dac.c **** #endif  /* STM32L431xx STM32L432xx STM32L433xx STM32L442xx STM32L443xx                         */
1014:Drivers/STM32L4xx_HAL_Driver/Src/stm32l4xx_hal_dac.c ****         /* STM32L471xx STM32L475xx STM32L476xx STM32L485xx STM32L486xx STM32L496xx STM32L4A6xx */
1015:Drivers/STM32L4xx_HAL_Driver/Src/stm32l4xx_hal_dac.c ****         /* STM32L4P5xx STM32L4Q5xx                                                             */
1016:Drivers/STM32L4xx_HAL_Driver/Src/stm32l4xx_hal_dac.c ****         /* STM32L4R5xx STM32L4R7xx STM32L4R9xx STM32L4S5xx STM32L4S7xx STM32L4S9xx             */
1017:Drivers/STM32L4xx_HAL_Driver/Src/stm32l4xx_hal_dac.c **** }
 913              		.loc 1 1017 1
 914 00ac 00BF     		nop
ARM GAS  /tmp/cc8wC0d3.s 			page 35


 915 00ae 0837     		adds	r7, r7, #8
 916              		.cfi_def_cfa_offset 8
 917 00b0 BD46     		mov	sp, r7
 918              		.cfi_def_cfa_register 13
 919              		@ sp needed
 920 00b2 80BD     		pop	{r7, pc}
 921              		.cfi_endproc
 922              	.LFE453:
 924              		.section	.text.HAL_DAC_SetValue,"ax",%progbits
 925              		.align	1
 926              		.global	HAL_DAC_SetValue
 927              		.syntax unified
 928              		.thumb
 929              		.thumb_func
 931              	HAL_DAC_SetValue:
 932              	.LFB454:
1018:Drivers/STM32L4xx_HAL_Driver/Src/stm32l4xx_hal_dac.c **** 
1019:Drivers/STM32L4xx_HAL_Driver/Src/stm32l4xx_hal_dac.c **** /**
1020:Drivers/STM32L4xx_HAL_Driver/Src/stm32l4xx_hal_dac.c ****   * @brief  Set the specified data holding register value for DAC channel.
1021:Drivers/STM32L4xx_HAL_Driver/Src/stm32l4xx_hal_dac.c ****   * @param  hdac pointer to a DAC_HandleTypeDef structure that contains
1022:Drivers/STM32L4xx_HAL_Driver/Src/stm32l4xx_hal_dac.c ****   *         the configuration information for the specified DAC.
1023:Drivers/STM32L4xx_HAL_Driver/Src/stm32l4xx_hal_dac.c ****   * @param  Channel The selected DAC channel.
1024:Drivers/STM32L4xx_HAL_Driver/Src/stm32l4xx_hal_dac.c ****   *          This parameter can be one of the following values:
1025:Drivers/STM32L4xx_HAL_Driver/Src/stm32l4xx_hal_dac.c ****   *            @arg DAC_CHANNEL_1: DAC Channel1 selected
1026:Drivers/STM32L4xx_HAL_Driver/Src/stm32l4xx_hal_dac.c ****   *            @arg DAC_CHANNEL_2: DAC Channel2 selected
1027:Drivers/STM32L4xx_HAL_Driver/Src/stm32l4xx_hal_dac.c ****   * @param  Alignment Specifies the data alignment.
1028:Drivers/STM32L4xx_HAL_Driver/Src/stm32l4xx_hal_dac.c ****   *          This parameter can be one of the following values:
1029:Drivers/STM32L4xx_HAL_Driver/Src/stm32l4xx_hal_dac.c ****   *            @arg DAC_ALIGN_8B_R: 8bit right data alignment selected
1030:Drivers/STM32L4xx_HAL_Driver/Src/stm32l4xx_hal_dac.c ****   *            @arg DAC_ALIGN_12B_L: 12bit left data alignment selected
1031:Drivers/STM32L4xx_HAL_Driver/Src/stm32l4xx_hal_dac.c ****   *            @arg DAC_ALIGN_12B_R: 12bit right data alignment selected
1032:Drivers/STM32L4xx_HAL_Driver/Src/stm32l4xx_hal_dac.c ****   * @param  Data Data to be loaded in the selected data holding register.
1033:Drivers/STM32L4xx_HAL_Driver/Src/stm32l4xx_hal_dac.c ****   * @retval HAL status
1034:Drivers/STM32L4xx_HAL_Driver/Src/stm32l4xx_hal_dac.c ****   */
1035:Drivers/STM32L4xx_HAL_Driver/Src/stm32l4xx_hal_dac.c **** HAL_StatusTypeDef HAL_DAC_SetValue(DAC_HandleTypeDef *hdac, uint32_t Channel, uint32_t Alignment, u
1036:Drivers/STM32L4xx_HAL_Driver/Src/stm32l4xx_hal_dac.c **** {
 933              		.loc 1 1036 1
 934              		.cfi_startproc
 935              		@ args = 0, pretend = 0, frame = 24
 936              		@ frame_needed = 1, uses_anonymous_args = 0
 937              		@ link register save eliminated.
 938 0000 80B4     		push	{r7}
 939              		.cfi_def_cfa_offset 4
 940              		.cfi_offset 7, -4
 941 0002 87B0     		sub	sp, sp, #28
 942              		.cfi_def_cfa_offset 32
 943 0004 00AF     		add	r7, sp, #0
 944              		.cfi_def_cfa_register 7
 945 0006 F860     		str	r0, [r7, #12]
 946 0008 B960     		str	r1, [r7, #8]
 947 000a 7A60     		str	r2, [r7, #4]
 948 000c 3B60     		str	r3, [r7]
1037:Drivers/STM32L4xx_HAL_Driver/Src/stm32l4xx_hal_dac.c ****   __IO uint32_t tmp = 0;
 949              		.loc 1 1037 17
 950 000e 0023     		movs	r3, #0
 951 0010 7B61     		str	r3, [r7, #20]
1038:Drivers/STM32L4xx_HAL_Driver/Src/stm32l4xx_hal_dac.c **** 
1039:Drivers/STM32L4xx_HAL_Driver/Src/stm32l4xx_hal_dac.c ****   /* Check the parameters */
ARM GAS  /tmp/cc8wC0d3.s 			page 36


1040:Drivers/STM32L4xx_HAL_Driver/Src/stm32l4xx_hal_dac.c ****   assert_param(IS_DAC_CHANNEL(Channel));
1041:Drivers/STM32L4xx_HAL_Driver/Src/stm32l4xx_hal_dac.c ****   assert_param(IS_DAC_ALIGN(Alignment));
1042:Drivers/STM32L4xx_HAL_Driver/Src/stm32l4xx_hal_dac.c ****   assert_param(IS_DAC_DATA(Data));
1043:Drivers/STM32L4xx_HAL_Driver/Src/stm32l4xx_hal_dac.c **** 
1044:Drivers/STM32L4xx_HAL_Driver/Src/stm32l4xx_hal_dac.c ****   tmp = (uint32_t)hdac->Instance;
 952              		.loc 1 1044 23
 953 0012 FB68     		ldr	r3, [r7, #12]
 954 0014 1B68     		ldr	r3, [r3]
 955              		.loc 1 1044 7
 956 0016 7B61     		str	r3, [r7, #20]
1045:Drivers/STM32L4xx_HAL_Driver/Src/stm32l4xx_hal_dac.c ****   if (Channel == DAC_CHANNEL_1)
 957              		.loc 1 1045 6
 958 0018 BB68     		ldr	r3, [r7, #8]
 959 001a 002B     		cmp	r3, #0
 960 001c 05D1     		bne	.L48
1046:Drivers/STM32L4xx_HAL_Driver/Src/stm32l4xx_hal_dac.c ****   {
1047:Drivers/STM32L4xx_HAL_Driver/Src/stm32l4xx_hal_dac.c ****     tmp += DAC_DHR12R1_ALIGNMENT(Alignment);
 961              		.loc 1 1047 9
 962 001e 7A69     		ldr	r2, [r7, #20]
 963 0020 7B68     		ldr	r3, [r7, #4]
 964 0022 1344     		add	r3, r3, r2
 965 0024 0833     		adds	r3, r3, #8
 966 0026 7B61     		str	r3, [r7, #20]
 967 0028 04E0     		b	.L49
 968              	.L48:
1048:Drivers/STM32L4xx_HAL_Driver/Src/stm32l4xx_hal_dac.c ****   }
1049:Drivers/STM32L4xx_HAL_Driver/Src/stm32l4xx_hal_dac.c ****   else
1050:Drivers/STM32L4xx_HAL_Driver/Src/stm32l4xx_hal_dac.c ****   {
1051:Drivers/STM32L4xx_HAL_Driver/Src/stm32l4xx_hal_dac.c ****     tmp += DAC_DHR12R2_ALIGNMENT(Alignment);
 969              		.loc 1 1051 9
 970 002a 7A69     		ldr	r2, [r7, #20]
 971 002c 7B68     		ldr	r3, [r7, #4]
 972 002e 1344     		add	r3, r3, r2
 973 0030 1433     		adds	r3, r3, #20
 974 0032 7B61     		str	r3, [r7, #20]
 975              	.L49:
1052:Drivers/STM32L4xx_HAL_Driver/Src/stm32l4xx_hal_dac.c ****   }
1053:Drivers/STM32L4xx_HAL_Driver/Src/stm32l4xx_hal_dac.c **** 
1054:Drivers/STM32L4xx_HAL_Driver/Src/stm32l4xx_hal_dac.c ****   /* Set the DAC channel selected data holding register */
1055:Drivers/STM32L4xx_HAL_Driver/Src/stm32l4xx_hal_dac.c ****   *(__IO uint32_t *) tmp = Data;
 976              		.loc 1 1055 4
 977 0034 7B69     		ldr	r3, [r7, #20]
 978 0036 1A46     		mov	r2, r3
 979              		.loc 1 1055 26
 980 0038 3B68     		ldr	r3, [r7]
 981 003a 1360     		str	r3, [r2]
1056:Drivers/STM32L4xx_HAL_Driver/Src/stm32l4xx_hal_dac.c **** 
1057:Drivers/STM32L4xx_HAL_Driver/Src/stm32l4xx_hal_dac.c ****   /* Return function status */
1058:Drivers/STM32L4xx_HAL_Driver/Src/stm32l4xx_hal_dac.c ****   return HAL_OK;
 982              		.loc 1 1058 10
 983 003c 0023     		movs	r3, #0
1059:Drivers/STM32L4xx_HAL_Driver/Src/stm32l4xx_hal_dac.c **** }
 984              		.loc 1 1059 1
 985 003e 1846     		mov	r0, r3
 986 0040 1C37     		adds	r7, r7, #28
 987              		.cfi_def_cfa_offset 4
 988 0042 BD46     		mov	sp, r7
ARM GAS  /tmp/cc8wC0d3.s 			page 37


 989              		.cfi_def_cfa_register 13
 990              		@ sp needed
 991 0044 5DF8047B 		ldr	r7, [sp], #4
 992              		.cfi_restore 7
 993              		.cfi_def_cfa_offset 0
 994 0048 7047     		bx	lr
 995              		.cfi_endproc
 996              	.LFE454:
 998              		.section	.text.HAL_DAC_ConvCpltCallbackCh1,"ax",%progbits
 999              		.align	1
 1000              		.weak	HAL_DAC_ConvCpltCallbackCh1
 1001              		.syntax unified
 1002              		.thumb
 1003              		.thumb_func
 1005              	HAL_DAC_ConvCpltCallbackCh1:
 1006              	.LFB455:
1060:Drivers/STM32L4xx_HAL_Driver/Src/stm32l4xx_hal_dac.c **** 
1061:Drivers/STM32L4xx_HAL_Driver/Src/stm32l4xx_hal_dac.c **** /**
1062:Drivers/STM32L4xx_HAL_Driver/Src/stm32l4xx_hal_dac.c ****   * @brief  Conversion complete callback in non-blocking mode for Channel1
1063:Drivers/STM32L4xx_HAL_Driver/Src/stm32l4xx_hal_dac.c ****   * @param  hdac pointer to a DAC_HandleTypeDef structure that contains
1064:Drivers/STM32L4xx_HAL_Driver/Src/stm32l4xx_hal_dac.c ****   *         the configuration information for the specified DAC.
1065:Drivers/STM32L4xx_HAL_Driver/Src/stm32l4xx_hal_dac.c ****   * @retval None
1066:Drivers/STM32L4xx_HAL_Driver/Src/stm32l4xx_hal_dac.c ****   */
1067:Drivers/STM32L4xx_HAL_Driver/Src/stm32l4xx_hal_dac.c **** __weak void HAL_DAC_ConvCpltCallbackCh1(DAC_HandleTypeDef *hdac)
1068:Drivers/STM32L4xx_HAL_Driver/Src/stm32l4xx_hal_dac.c **** {
 1007              		.loc 1 1068 1
 1008              		.cfi_startproc
 1009              		@ args = 0, pretend = 0, frame = 8
 1010              		@ frame_needed = 1, uses_anonymous_args = 0
 1011              		@ link register save eliminated.
 1012 0000 80B4     		push	{r7}
 1013              		.cfi_def_cfa_offset 4
 1014              		.cfi_offset 7, -4
 1015 0002 83B0     		sub	sp, sp, #12
 1016              		.cfi_def_cfa_offset 16
 1017 0004 00AF     		add	r7, sp, #0
 1018              		.cfi_def_cfa_register 7
 1019 0006 7860     		str	r0, [r7, #4]
1069:Drivers/STM32L4xx_HAL_Driver/Src/stm32l4xx_hal_dac.c ****   /* Prevent unused argument(s) compilation warning */
1070:Drivers/STM32L4xx_HAL_Driver/Src/stm32l4xx_hal_dac.c ****   UNUSED(hdac);
1071:Drivers/STM32L4xx_HAL_Driver/Src/stm32l4xx_hal_dac.c **** 
1072:Drivers/STM32L4xx_HAL_Driver/Src/stm32l4xx_hal_dac.c ****   /* NOTE : This function should not be modified, when the callback is needed,
1073:Drivers/STM32L4xx_HAL_Driver/Src/stm32l4xx_hal_dac.c ****             the HAL_DAC_ConvCpltCallbackCh1 could be implemented in the user file
1074:Drivers/STM32L4xx_HAL_Driver/Src/stm32l4xx_hal_dac.c ****    */
1075:Drivers/STM32L4xx_HAL_Driver/Src/stm32l4xx_hal_dac.c **** }
 1020              		.loc 1 1075 1
 1021 0008 00BF     		nop
 1022 000a 0C37     		adds	r7, r7, #12
 1023              		.cfi_def_cfa_offset 4
 1024 000c BD46     		mov	sp, r7
 1025              		.cfi_def_cfa_register 13
 1026              		@ sp needed
 1027 000e 5DF8047B 		ldr	r7, [sp], #4
 1028              		.cfi_restore 7
 1029              		.cfi_def_cfa_offset 0
 1030 0012 7047     		bx	lr
 1031              		.cfi_endproc
ARM GAS  /tmp/cc8wC0d3.s 			page 38


 1032              	.LFE455:
 1034              		.section	.text.HAL_DAC_ConvHalfCpltCallbackCh1,"ax",%progbits
 1035              		.align	1
 1036              		.weak	HAL_DAC_ConvHalfCpltCallbackCh1
 1037              		.syntax unified
 1038              		.thumb
 1039              		.thumb_func
 1041              	HAL_DAC_ConvHalfCpltCallbackCh1:
 1042              	.LFB456:
1076:Drivers/STM32L4xx_HAL_Driver/Src/stm32l4xx_hal_dac.c **** 
1077:Drivers/STM32L4xx_HAL_Driver/Src/stm32l4xx_hal_dac.c **** /**
1078:Drivers/STM32L4xx_HAL_Driver/Src/stm32l4xx_hal_dac.c ****   * @brief  Conversion half DMA transfer callback in non-blocking mode for Channel1
1079:Drivers/STM32L4xx_HAL_Driver/Src/stm32l4xx_hal_dac.c ****   * @param  hdac pointer to a DAC_HandleTypeDef structure that contains
1080:Drivers/STM32L4xx_HAL_Driver/Src/stm32l4xx_hal_dac.c ****   *         the configuration information for the specified DAC.
1081:Drivers/STM32L4xx_HAL_Driver/Src/stm32l4xx_hal_dac.c ****   * @retval None
1082:Drivers/STM32L4xx_HAL_Driver/Src/stm32l4xx_hal_dac.c ****   */
1083:Drivers/STM32L4xx_HAL_Driver/Src/stm32l4xx_hal_dac.c **** __weak void HAL_DAC_ConvHalfCpltCallbackCh1(DAC_HandleTypeDef *hdac)
1084:Drivers/STM32L4xx_HAL_Driver/Src/stm32l4xx_hal_dac.c **** {
 1043              		.loc 1 1084 1
 1044              		.cfi_startproc
 1045              		@ args = 0, pretend = 0, frame = 8
 1046              		@ frame_needed = 1, uses_anonymous_args = 0
 1047              		@ link register save eliminated.
 1048 0000 80B4     		push	{r7}
 1049              		.cfi_def_cfa_offset 4
 1050              		.cfi_offset 7, -4
 1051 0002 83B0     		sub	sp, sp, #12
 1052              		.cfi_def_cfa_offset 16
 1053 0004 00AF     		add	r7, sp, #0
 1054              		.cfi_def_cfa_register 7
 1055 0006 7860     		str	r0, [r7, #4]
1085:Drivers/STM32L4xx_HAL_Driver/Src/stm32l4xx_hal_dac.c ****   /* Prevent unused argument(s) compilation warning */
1086:Drivers/STM32L4xx_HAL_Driver/Src/stm32l4xx_hal_dac.c ****   UNUSED(hdac);
1087:Drivers/STM32L4xx_HAL_Driver/Src/stm32l4xx_hal_dac.c **** 
1088:Drivers/STM32L4xx_HAL_Driver/Src/stm32l4xx_hal_dac.c ****   /* NOTE : This function should not be modified, when the callback is needed,
1089:Drivers/STM32L4xx_HAL_Driver/Src/stm32l4xx_hal_dac.c ****             the HAL_DAC_ConvHalfCpltCallbackCh1 could be implemented in the user file
1090:Drivers/STM32L4xx_HAL_Driver/Src/stm32l4xx_hal_dac.c ****    */
1091:Drivers/STM32L4xx_HAL_Driver/Src/stm32l4xx_hal_dac.c **** }
 1056              		.loc 1 1091 1
 1057 0008 00BF     		nop
 1058 000a 0C37     		adds	r7, r7, #12
 1059              		.cfi_def_cfa_offset 4
 1060 000c BD46     		mov	sp, r7
 1061              		.cfi_def_cfa_register 13
 1062              		@ sp needed
 1063 000e 5DF8047B 		ldr	r7, [sp], #4
 1064              		.cfi_restore 7
 1065              		.cfi_def_cfa_offset 0
 1066 0012 7047     		bx	lr
 1067              		.cfi_endproc
 1068              	.LFE456:
 1070              		.section	.text.HAL_DAC_ErrorCallbackCh1,"ax",%progbits
 1071              		.align	1
 1072              		.weak	HAL_DAC_ErrorCallbackCh1
 1073              		.syntax unified
 1074              		.thumb
 1075              		.thumb_func
ARM GAS  /tmp/cc8wC0d3.s 			page 39


 1077              	HAL_DAC_ErrorCallbackCh1:
 1078              	.LFB457:
1092:Drivers/STM32L4xx_HAL_Driver/Src/stm32l4xx_hal_dac.c **** 
1093:Drivers/STM32L4xx_HAL_Driver/Src/stm32l4xx_hal_dac.c **** /**
1094:Drivers/STM32L4xx_HAL_Driver/Src/stm32l4xx_hal_dac.c ****   * @brief  Error DAC callback for Channel1.
1095:Drivers/STM32L4xx_HAL_Driver/Src/stm32l4xx_hal_dac.c ****   * @param  hdac pointer to a DAC_HandleTypeDef structure that contains
1096:Drivers/STM32L4xx_HAL_Driver/Src/stm32l4xx_hal_dac.c ****   *         the configuration information for the specified DAC.
1097:Drivers/STM32L4xx_HAL_Driver/Src/stm32l4xx_hal_dac.c ****   * @retval None
1098:Drivers/STM32L4xx_HAL_Driver/Src/stm32l4xx_hal_dac.c ****   */
1099:Drivers/STM32L4xx_HAL_Driver/Src/stm32l4xx_hal_dac.c **** __weak void HAL_DAC_ErrorCallbackCh1(DAC_HandleTypeDef *hdac)
1100:Drivers/STM32L4xx_HAL_Driver/Src/stm32l4xx_hal_dac.c **** {
 1079              		.loc 1 1100 1
 1080              		.cfi_startproc
 1081              		@ args = 0, pretend = 0, frame = 8
 1082              		@ frame_needed = 1, uses_anonymous_args = 0
 1083              		@ link register save eliminated.
 1084 0000 80B4     		push	{r7}
 1085              		.cfi_def_cfa_offset 4
 1086              		.cfi_offset 7, -4
 1087 0002 83B0     		sub	sp, sp, #12
 1088              		.cfi_def_cfa_offset 16
 1089 0004 00AF     		add	r7, sp, #0
 1090              		.cfi_def_cfa_register 7
 1091 0006 7860     		str	r0, [r7, #4]
1101:Drivers/STM32L4xx_HAL_Driver/Src/stm32l4xx_hal_dac.c ****   /* Prevent unused argument(s) compilation warning */
1102:Drivers/STM32L4xx_HAL_Driver/Src/stm32l4xx_hal_dac.c ****   UNUSED(hdac);
1103:Drivers/STM32L4xx_HAL_Driver/Src/stm32l4xx_hal_dac.c **** 
1104:Drivers/STM32L4xx_HAL_Driver/Src/stm32l4xx_hal_dac.c ****   /* NOTE : This function should not be modified, when the callback is needed,
1105:Drivers/STM32L4xx_HAL_Driver/Src/stm32l4xx_hal_dac.c ****             the HAL_DAC_ErrorCallbackCh1 could be implemented in the user file
1106:Drivers/STM32L4xx_HAL_Driver/Src/stm32l4xx_hal_dac.c ****    */
1107:Drivers/STM32L4xx_HAL_Driver/Src/stm32l4xx_hal_dac.c **** }
 1092              		.loc 1 1107 1
 1093 0008 00BF     		nop
 1094 000a 0C37     		adds	r7, r7, #12
 1095              		.cfi_def_cfa_offset 4
 1096 000c BD46     		mov	sp, r7
 1097              		.cfi_def_cfa_register 13
 1098              		@ sp needed
 1099 000e 5DF8047B 		ldr	r7, [sp], #4
 1100              		.cfi_restore 7
 1101              		.cfi_def_cfa_offset 0
 1102 0012 7047     		bx	lr
 1103              		.cfi_endproc
 1104              	.LFE457:
 1106              		.section	.text.HAL_DAC_DMAUnderrunCallbackCh1,"ax",%progbits
 1107              		.align	1
 1108              		.weak	HAL_DAC_DMAUnderrunCallbackCh1
 1109              		.syntax unified
 1110              		.thumb
 1111              		.thumb_func
 1113              	HAL_DAC_DMAUnderrunCallbackCh1:
 1114              	.LFB458:
1108:Drivers/STM32L4xx_HAL_Driver/Src/stm32l4xx_hal_dac.c **** 
1109:Drivers/STM32L4xx_HAL_Driver/Src/stm32l4xx_hal_dac.c **** /**
1110:Drivers/STM32L4xx_HAL_Driver/Src/stm32l4xx_hal_dac.c ****   * @brief  DMA underrun DAC callback for channel1.
1111:Drivers/STM32L4xx_HAL_Driver/Src/stm32l4xx_hal_dac.c ****   * @param  hdac pointer to a DAC_HandleTypeDef structure that contains
1112:Drivers/STM32L4xx_HAL_Driver/Src/stm32l4xx_hal_dac.c ****   *         the configuration information for the specified DAC.
ARM GAS  /tmp/cc8wC0d3.s 			page 40


1113:Drivers/STM32L4xx_HAL_Driver/Src/stm32l4xx_hal_dac.c ****   * @retval None
1114:Drivers/STM32L4xx_HAL_Driver/Src/stm32l4xx_hal_dac.c ****   */
1115:Drivers/STM32L4xx_HAL_Driver/Src/stm32l4xx_hal_dac.c **** __weak void HAL_DAC_DMAUnderrunCallbackCh1(DAC_HandleTypeDef *hdac)
1116:Drivers/STM32L4xx_HAL_Driver/Src/stm32l4xx_hal_dac.c **** {
 1115              		.loc 1 1116 1
 1116              		.cfi_startproc
 1117              		@ args = 0, pretend = 0, frame = 8
 1118              		@ frame_needed = 1, uses_anonymous_args = 0
 1119              		@ link register save eliminated.
 1120 0000 80B4     		push	{r7}
 1121              		.cfi_def_cfa_offset 4
 1122              		.cfi_offset 7, -4
 1123 0002 83B0     		sub	sp, sp, #12
 1124              		.cfi_def_cfa_offset 16
 1125 0004 00AF     		add	r7, sp, #0
 1126              		.cfi_def_cfa_register 7
 1127 0006 7860     		str	r0, [r7, #4]
1117:Drivers/STM32L4xx_HAL_Driver/Src/stm32l4xx_hal_dac.c ****   /* Prevent unused argument(s) compilation warning */
1118:Drivers/STM32L4xx_HAL_Driver/Src/stm32l4xx_hal_dac.c ****   UNUSED(hdac);
1119:Drivers/STM32L4xx_HAL_Driver/Src/stm32l4xx_hal_dac.c **** 
1120:Drivers/STM32L4xx_HAL_Driver/Src/stm32l4xx_hal_dac.c ****   /* NOTE : This function should not be modified, when the callback is needed,
1121:Drivers/STM32L4xx_HAL_Driver/Src/stm32l4xx_hal_dac.c ****             the HAL_DAC_DMAUnderrunCallbackCh1 could be implemented in the user file
1122:Drivers/STM32L4xx_HAL_Driver/Src/stm32l4xx_hal_dac.c ****    */
1123:Drivers/STM32L4xx_HAL_Driver/Src/stm32l4xx_hal_dac.c **** }
 1128              		.loc 1 1123 1
 1129 0008 00BF     		nop
 1130 000a 0C37     		adds	r7, r7, #12
 1131              		.cfi_def_cfa_offset 4
 1132 000c BD46     		mov	sp, r7
 1133              		.cfi_def_cfa_register 13
 1134              		@ sp needed
 1135 000e 5DF8047B 		ldr	r7, [sp], #4
 1136              		.cfi_restore 7
 1137              		.cfi_def_cfa_offset 0
 1138 0012 7047     		bx	lr
 1139              		.cfi_endproc
 1140              	.LFE458:
 1142              		.section	.text.HAL_DAC_GetValue,"ax",%progbits
 1143              		.align	1
 1144              		.global	HAL_DAC_GetValue
 1145              		.syntax unified
 1146              		.thumb
 1147              		.thumb_func
 1149              	HAL_DAC_GetValue:
 1150              	.LFB459:
1124:Drivers/STM32L4xx_HAL_Driver/Src/stm32l4xx_hal_dac.c **** 
1125:Drivers/STM32L4xx_HAL_Driver/Src/stm32l4xx_hal_dac.c **** /**
1126:Drivers/STM32L4xx_HAL_Driver/Src/stm32l4xx_hal_dac.c ****   * @}
1127:Drivers/STM32L4xx_HAL_Driver/Src/stm32l4xx_hal_dac.c ****   */
1128:Drivers/STM32L4xx_HAL_Driver/Src/stm32l4xx_hal_dac.c **** 
1129:Drivers/STM32L4xx_HAL_Driver/Src/stm32l4xx_hal_dac.c **** /** @defgroup DAC_Exported_Functions_Group3 Peripheral Control functions
1130:Drivers/STM32L4xx_HAL_Driver/Src/stm32l4xx_hal_dac.c ****  *  @brief    Peripheral Control functions
1131:Drivers/STM32L4xx_HAL_Driver/Src/stm32l4xx_hal_dac.c ****  *
1132:Drivers/STM32L4xx_HAL_Driver/Src/stm32l4xx_hal_dac.c **** @verbatim
1133:Drivers/STM32L4xx_HAL_Driver/Src/stm32l4xx_hal_dac.c ****   ==============================================================================
1134:Drivers/STM32L4xx_HAL_Driver/Src/stm32l4xx_hal_dac.c ****              ##### Peripheral Control functions #####
1135:Drivers/STM32L4xx_HAL_Driver/Src/stm32l4xx_hal_dac.c ****   ==============================================================================
ARM GAS  /tmp/cc8wC0d3.s 			page 41


1136:Drivers/STM32L4xx_HAL_Driver/Src/stm32l4xx_hal_dac.c ****     [..]  This section provides functions allowing to:
1137:Drivers/STM32L4xx_HAL_Driver/Src/stm32l4xx_hal_dac.c ****       (+) Configure channels.
1138:Drivers/STM32L4xx_HAL_Driver/Src/stm32l4xx_hal_dac.c ****       (+) Set the specified data holding register value for DAC channel.
1139:Drivers/STM32L4xx_HAL_Driver/Src/stm32l4xx_hal_dac.c **** 
1140:Drivers/STM32L4xx_HAL_Driver/Src/stm32l4xx_hal_dac.c **** @endverbatim
1141:Drivers/STM32L4xx_HAL_Driver/Src/stm32l4xx_hal_dac.c ****   * @{
1142:Drivers/STM32L4xx_HAL_Driver/Src/stm32l4xx_hal_dac.c ****   */
1143:Drivers/STM32L4xx_HAL_Driver/Src/stm32l4xx_hal_dac.c **** 
1144:Drivers/STM32L4xx_HAL_Driver/Src/stm32l4xx_hal_dac.c **** /**
1145:Drivers/STM32L4xx_HAL_Driver/Src/stm32l4xx_hal_dac.c ****   * @brief  Returns the last data output value of the selected DAC channel.
1146:Drivers/STM32L4xx_HAL_Driver/Src/stm32l4xx_hal_dac.c ****   * @param  hdac pointer to a DAC_HandleTypeDef structure that contains
1147:Drivers/STM32L4xx_HAL_Driver/Src/stm32l4xx_hal_dac.c ****   *         the configuration information for the specified DAC.
1148:Drivers/STM32L4xx_HAL_Driver/Src/stm32l4xx_hal_dac.c ****   * @param  Channel The selected DAC channel.
1149:Drivers/STM32L4xx_HAL_Driver/Src/stm32l4xx_hal_dac.c ****   *          This parameter can be one of the following values:
1150:Drivers/STM32L4xx_HAL_Driver/Src/stm32l4xx_hal_dac.c ****   *            @arg DAC_CHANNEL_1: DAC Channel1 selected
1151:Drivers/STM32L4xx_HAL_Driver/Src/stm32l4xx_hal_dac.c ****   *            @arg DAC_CHANNEL_2: DAC Channel2 selected
1152:Drivers/STM32L4xx_HAL_Driver/Src/stm32l4xx_hal_dac.c ****   * @retval The selected DAC channel data output value.
1153:Drivers/STM32L4xx_HAL_Driver/Src/stm32l4xx_hal_dac.c ****   */
1154:Drivers/STM32L4xx_HAL_Driver/Src/stm32l4xx_hal_dac.c **** uint32_t HAL_DAC_GetValue(DAC_HandleTypeDef *hdac, uint32_t Channel)
1155:Drivers/STM32L4xx_HAL_Driver/Src/stm32l4xx_hal_dac.c **** {
 1151              		.loc 1 1155 1
 1152              		.cfi_startproc
 1153              		@ args = 0, pretend = 0, frame = 8
 1154              		@ frame_needed = 1, uses_anonymous_args = 0
 1155              		@ link register save eliminated.
 1156 0000 80B4     		push	{r7}
 1157              		.cfi_def_cfa_offset 4
 1158              		.cfi_offset 7, -4
 1159 0002 83B0     		sub	sp, sp, #12
 1160              		.cfi_def_cfa_offset 16
 1161 0004 00AF     		add	r7, sp, #0
 1162              		.cfi_def_cfa_register 7
 1163 0006 7860     		str	r0, [r7, #4]
 1164 0008 3960     		str	r1, [r7]
1156:Drivers/STM32L4xx_HAL_Driver/Src/stm32l4xx_hal_dac.c ****   /* Check the parameters */
1157:Drivers/STM32L4xx_HAL_Driver/Src/stm32l4xx_hal_dac.c ****   assert_param(IS_DAC_CHANNEL(Channel));
1158:Drivers/STM32L4xx_HAL_Driver/Src/stm32l4xx_hal_dac.c **** 
1159:Drivers/STM32L4xx_HAL_Driver/Src/stm32l4xx_hal_dac.c ****   /* Returns the DAC channel data output register value */
1160:Drivers/STM32L4xx_HAL_Driver/Src/stm32l4xx_hal_dac.c **** #if defined (STM32L451xx) || defined (STM32L452xx) || defined (STM32L462xx)
1161:Drivers/STM32L4xx_HAL_Driver/Src/stm32l4xx_hal_dac.c ****   /* Prevent unused argument(s) compilation warning if no assert_param check */
1162:Drivers/STM32L4xx_HAL_Driver/Src/stm32l4xx_hal_dac.c ****   UNUSED(Channel);
1163:Drivers/STM32L4xx_HAL_Driver/Src/stm32l4xx_hal_dac.c **** 
1164:Drivers/STM32L4xx_HAL_Driver/Src/stm32l4xx_hal_dac.c ****   return hdac->Instance->DOR1;
1165:Drivers/STM32L4xx_HAL_Driver/Src/stm32l4xx_hal_dac.c **** #endif /* STM32L451xx STM32L452xx STM32L462xx */
1166:Drivers/STM32L4xx_HAL_Driver/Src/stm32l4xx_hal_dac.c **** 
1167:Drivers/STM32L4xx_HAL_Driver/Src/stm32l4xx_hal_dac.c **** #if defined (STM32L431xx) || defined (STM32L432xx) || defined (STM32L433xx) || defined (STM32L442xx
1168:Drivers/STM32L4xx_HAL_Driver/Src/stm32l4xx_hal_dac.c ****     defined (STM32L471xx) || defined (STM32L475xx) || defined (STM32L476xx) || defined (STM32L485xx
1169:Drivers/STM32L4xx_HAL_Driver/Src/stm32l4xx_hal_dac.c ****     defined (STM32L4P5xx) || defined (STM32L4Q5xx) || \
1170:Drivers/STM32L4xx_HAL_Driver/Src/stm32l4xx_hal_dac.c ****     defined (STM32L4R5xx) || defined (STM32L4R7xx) || defined (STM32L4R9xx) || defined (STM32L4S5xx
1171:Drivers/STM32L4xx_HAL_Driver/Src/stm32l4xx_hal_dac.c ****   if(Channel == DAC_CHANNEL_1)
 1165              		.loc 1 1171 5
 1166 000a 3B68     		ldr	r3, [r7]
 1167 000c 002B     		cmp	r3, #0
 1168 000e 03D1     		bne	.L56
1172:Drivers/STM32L4xx_HAL_Driver/Src/stm32l4xx_hal_dac.c ****   {
1173:Drivers/STM32L4xx_HAL_Driver/Src/stm32l4xx_hal_dac.c ****     return hdac->Instance->DOR1;
 1169              		.loc 1 1173 16
ARM GAS  /tmp/cc8wC0d3.s 			page 42


 1170 0010 7B68     		ldr	r3, [r7, #4]
 1171 0012 1B68     		ldr	r3, [r3]
 1172              		.loc 1 1173 26
 1173 0014 DB6A     		ldr	r3, [r3, #44]
 1174 0016 02E0     		b	.L57
 1175              	.L56:
1174:Drivers/STM32L4xx_HAL_Driver/Src/stm32l4xx_hal_dac.c ****   }
1175:Drivers/STM32L4xx_HAL_Driver/Src/stm32l4xx_hal_dac.c ****   else
1176:Drivers/STM32L4xx_HAL_Driver/Src/stm32l4xx_hal_dac.c ****   {
1177:Drivers/STM32L4xx_HAL_Driver/Src/stm32l4xx_hal_dac.c ****     return hdac->Instance->DOR2;
 1176              		.loc 1 1177 16
 1177 0018 7B68     		ldr	r3, [r7, #4]
 1178 001a 1B68     		ldr	r3, [r3]
 1179              		.loc 1 1177 26
 1180 001c 1B6B     		ldr	r3, [r3, #48]
 1181              	.L57:
1178:Drivers/STM32L4xx_HAL_Driver/Src/stm32l4xx_hal_dac.c ****   }
1179:Drivers/STM32L4xx_HAL_Driver/Src/stm32l4xx_hal_dac.c **** #endif  /* STM32L431xx STM32L432xx STM32L433xx STM32L442xx STM32L443xx                         */
1180:Drivers/STM32L4xx_HAL_Driver/Src/stm32l4xx_hal_dac.c ****         /* STM32L471xx STM32L475xx STM32L476xx STM32L485xx STM32L486xx STM32L496xx STM32L4A6xx */
1181:Drivers/STM32L4xx_HAL_Driver/Src/stm32l4xx_hal_dac.c ****         /* STM32L4P5xx STM32L4Q5xx                                                             */
1182:Drivers/STM32L4xx_HAL_Driver/Src/stm32l4xx_hal_dac.c ****         /* STM32L4R5xx STM32L4R7xx STM32L4R9xx STM32L4S5xx STM32L4S7xx STM32L4S9xx             */
1183:Drivers/STM32L4xx_HAL_Driver/Src/stm32l4xx_hal_dac.c **** }
 1182              		.loc 1 1183 1
 1183 001e 1846     		mov	r0, r3
 1184 0020 0C37     		adds	r7, r7, #12
 1185              		.cfi_def_cfa_offset 4
 1186 0022 BD46     		mov	sp, r7
 1187              		.cfi_def_cfa_register 13
 1188              		@ sp needed
 1189 0024 5DF8047B 		ldr	r7, [sp], #4
 1190              		.cfi_restore 7
 1191              		.cfi_def_cfa_offset 0
 1192 0028 7047     		bx	lr
 1193              		.cfi_endproc
 1194              	.LFE459:
 1196              		.section	.text.HAL_DAC_ConfigChannel,"ax",%progbits
 1197              		.align	1
 1198              		.global	HAL_DAC_ConfigChannel
 1199              		.syntax unified
 1200              		.thumb
 1201              		.thumb_func
 1203              	HAL_DAC_ConfigChannel:
 1204              	.LFB460:
1184:Drivers/STM32L4xx_HAL_Driver/Src/stm32l4xx_hal_dac.c **** 
1185:Drivers/STM32L4xx_HAL_Driver/Src/stm32l4xx_hal_dac.c **** /**
1186:Drivers/STM32L4xx_HAL_Driver/Src/stm32l4xx_hal_dac.c ****   * @brief  Configures the selected DAC channel.
1187:Drivers/STM32L4xx_HAL_Driver/Src/stm32l4xx_hal_dac.c ****   * @note   By calling this function, the high frequency interface mode (HFSEL bits)
1188:Drivers/STM32L4xx_HAL_Driver/Src/stm32l4xx_hal_dac.c ****   *         will be set. This parameter scope is the DAC instance. As the function
1189:Drivers/STM32L4xx_HAL_Driver/Src/stm32l4xx_hal_dac.c ****   *         is called for each channel, the @ref DAC_HighFrequency of @arg sConfig
1190:Drivers/STM32L4xx_HAL_Driver/Src/stm32l4xx_hal_dac.c ****   *         must be the same at each call.
1191:Drivers/STM32L4xx_HAL_Driver/Src/stm32l4xx_hal_dac.c ****   *         (or DAC_HIGH_FREQUENCY_INTERFACE_MODE_AUTOMATIC self detect).
1192:Drivers/STM32L4xx_HAL_Driver/Src/stm32l4xx_hal_dac.c ****   * @param  hdac pointer to a DAC_HandleTypeDef structure that contains
1193:Drivers/STM32L4xx_HAL_Driver/Src/stm32l4xx_hal_dac.c ****   *         the configuration information for the specified DAC.
1194:Drivers/STM32L4xx_HAL_Driver/Src/stm32l4xx_hal_dac.c ****   * @param  sConfig DAC configuration structure.
1195:Drivers/STM32L4xx_HAL_Driver/Src/stm32l4xx_hal_dac.c ****   * @param  Channel The selected DAC channel.
1196:Drivers/STM32L4xx_HAL_Driver/Src/stm32l4xx_hal_dac.c ****   *          This parameter can be one of the following values:
1197:Drivers/STM32L4xx_HAL_Driver/Src/stm32l4xx_hal_dac.c ****   *            @arg DAC_CHANNEL_1: DAC Channel1 selected
ARM GAS  /tmp/cc8wC0d3.s 			page 43


1198:Drivers/STM32L4xx_HAL_Driver/Src/stm32l4xx_hal_dac.c ****   *            @arg DAC_CHANNEL_2: DAC Channel2 selected (Whenever present)
1199:Drivers/STM32L4xx_HAL_Driver/Src/stm32l4xx_hal_dac.c ****   * @retval HAL status
1200:Drivers/STM32L4xx_HAL_Driver/Src/stm32l4xx_hal_dac.c ****   */
1201:Drivers/STM32L4xx_HAL_Driver/Src/stm32l4xx_hal_dac.c **** HAL_StatusTypeDef HAL_DAC_ConfigChannel(DAC_HandleTypeDef *hdac, DAC_ChannelConfTypeDef *sConfig, u
1202:Drivers/STM32L4xx_HAL_Driver/Src/stm32l4xx_hal_dac.c **** {
 1205              		.loc 1 1202 1
 1206              		.cfi_startproc
 1207              		@ args = 0, pretend = 0, frame = 32
 1208              		@ frame_needed = 1, uses_anonymous_args = 0
 1209 0000 80B5     		push	{r7, lr}
 1210              		.cfi_def_cfa_offset 8
 1211              		.cfi_offset 7, -8
 1212              		.cfi_offset 14, -4
 1213 0002 88B0     		sub	sp, sp, #32
 1214              		.cfi_def_cfa_offset 40
 1215 0004 00AF     		add	r7, sp, #0
 1216              		.cfi_def_cfa_register 7
 1217 0006 F860     		str	r0, [r7, #12]
 1218 0008 B960     		str	r1, [r7, #8]
 1219 000a 7A60     		str	r2, [r7, #4]
1203:Drivers/STM32L4xx_HAL_Driver/Src/stm32l4xx_hal_dac.c ****   uint32_t tmpreg1;
1204:Drivers/STM32L4xx_HAL_Driver/Src/stm32l4xx_hal_dac.c ****   uint32_t tmpreg2;
1205:Drivers/STM32L4xx_HAL_Driver/Src/stm32l4xx_hal_dac.c ****   uint32_t tickstart = 0U;
 1220              		.loc 1 1205 12
 1221 000c 0023     		movs	r3, #0
 1222 000e FB61     		str	r3, [r7, #28]
1206:Drivers/STM32L4xx_HAL_Driver/Src/stm32l4xx_hal_dac.c **** #if defined (STM32L4P5xx) || defined (STM32L4Q5xx) || defined (STM32L4R5xx) || defined (STM32L4R7xx
1207:Drivers/STM32L4xx_HAL_Driver/Src/stm32l4xx_hal_dac.c ****   uint32_t hclkfreq;
1208:Drivers/STM32L4xx_HAL_Driver/Src/stm32l4xx_hal_dac.c **** #endif /* STM32L4P5xx STM32L4Q5xx STM32L4R5xx STM32L4R7xx STM32L4R9xx STM32L4S5xx STM32L4S7xx STM32
1209:Drivers/STM32L4xx_HAL_Driver/Src/stm32l4xx_hal_dac.c **** 
1210:Drivers/STM32L4xx_HAL_Driver/Src/stm32l4xx_hal_dac.c ****   /* Check the DAC parameters */
1211:Drivers/STM32L4xx_HAL_Driver/Src/stm32l4xx_hal_dac.c **** #if defined (STM32L4P5xx) || defined (STM32L4Q5xx) || defined (STM32L4R5xx) || defined (STM32L4R7xx
1212:Drivers/STM32L4xx_HAL_Driver/Src/stm32l4xx_hal_dac.c ****   assert_param(IS_DAC_HIGH_FREQUENCY_MODE(sConfig->DAC_HighFrequency));
1213:Drivers/STM32L4xx_HAL_Driver/Src/stm32l4xx_hal_dac.c **** #endif /* STM32L4P5xx STM32L4Q5xx STM32L4R5xx STM32L4R7xx STM32L4R9xx STM32L4S5xx STM32L4S7xx STM32
1214:Drivers/STM32L4xx_HAL_Driver/Src/stm32l4xx_hal_dac.c ****   assert_param(IS_DAC_TRIGGER(sConfig->DAC_Trigger));
1215:Drivers/STM32L4xx_HAL_Driver/Src/stm32l4xx_hal_dac.c ****   assert_param(IS_DAC_OUTPUT_BUFFER_STATE(sConfig->DAC_OutputBuffer));
1216:Drivers/STM32L4xx_HAL_Driver/Src/stm32l4xx_hal_dac.c ****   assert_param(IS_DAC_CHIP_CONNECTION(sConfig->DAC_ConnectOnChipPeripheral));
1217:Drivers/STM32L4xx_HAL_Driver/Src/stm32l4xx_hal_dac.c ****   assert_param(IS_DAC_TRIMMING(sConfig->DAC_UserTrimming));
1218:Drivers/STM32L4xx_HAL_Driver/Src/stm32l4xx_hal_dac.c ****   if ((sConfig->DAC_UserTrimming) == DAC_TRIMMING_USER)
1219:Drivers/STM32L4xx_HAL_Driver/Src/stm32l4xx_hal_dac.c ****   {
1220:Drivers/STM32L4xx_HAL_Driver/Src/stm32l4xx_hal_dac.c ****     assert_param(IS_DAC_TRIMMINGVALUE(sConfig->DAC_TrimmingValue));
1221:Drivers/STM32L4xx_HAL_Driver/Src/stm32l4xx_hal_dac.c ****   }
1222:Drivers/STM32L4xx_HAL_Driver/Src/stm32l4xx_hal_dac.c ****   assert_param(IS_DAC_SAMPLEANDHOLD(sConfig->DAC_SampleAndHold));
1223:Drivers/STM32L4xx_HAL_Driver/Src/stm32l4xx_hal_dac.c ****   if ((sConfig->DAC_SampleAndHold) == DAC_SAMPLEANDHOLD_ENABLE)
1224:Drivers/STM32L4xx_HAL_Driver/Src/stm32l4xx_hal_dac.c ****   {
1225:Drivers/STM32L4xx_HAL_Driver/Src/stm32l4xx_hal_dac.c ****     assert_param(IS_DAC_SAMPLETIME(sConfig->DAC_SampleAndHoldConfig.DAC_SampleTime));
1226:Drivers/STM32L4xx_HAL_Driver/Src/stm32l4xx_hal_dac.c ****     assert_param(IS_DAC_HOLDTIME(sConfig->DAC_SampleAndHoldConfig.DAC_HoldTime));
1227:Drivers/STM32L4xx_HAL_Driver/Src/stm32l4xx_hal_dac.c ****     assert_param(IS_DAC_REFRESHTIME(sConfig->DAC_SampleAndHoldConfig.DAC_RefreshTime));
1228:Drivers/STM32L4xx_HAL_Driver/Src/stm32l4xx_hal_dac.c ****   }
1229:Drivers/STM32L4xx_HAL_Driver/Src/stm32l4xx_hal_dac.c ****   assert_param(IS_DAC_CHANNEL(Channel));
1230:Drivers/STM32L4xx_HAL_Driver/Src/stm32l4xx_hal_dac.c **** 
1231:Drivers/STM32L4xx_HAL_Driver/Src/stm32l4xx_hal_dac.c ****   /* Process locked */
1232:Drivers/STM32L4xx_HAL_Driver/Src/stm32l4xx_hal_dac.c ****   __HAL_LOCK(hdac);
 1223              		.loc 1 1232 3
 1224 0010 FB68     		ldr	r3, [r7, #12]
 1225 0012 5B79     		ldrb	r3, [r3, #5]	@ zero_extendqisi2
 1226 0014 012B     		cmp	r3, #1
ARM GAS  /tmp/cc8wC0d3.s 			page 44


 1227 0016 01D1     		bne	.L59
 1228              		.loc 1 1232 3 is_stmt 0 discriminator 1
 1229 0018 0223     		movs	r3, #2
 1230              		.loc 1 1232 3
 1231 001a 14E1     		b	.L60
 1232              	.L59:
 1233              		.loc 1 1232 3 discriminator 2
 1234 001c FB68     		ldr	r3, [r7, #12]
 1235 001e 0122     		movs	r2, #1
 1236 0020 5A71     		strb	r2, [r3, #5]
1233:Drivers/STM32L4xx_HAL_Driver/Src/stm32l4xx_hal_dac.c **** 
1234:Drivers/STM32L4xx_HAL_Driver/Src/stm32l4xx_hal_dac.c ****   /* Change DAC state */
1235:Drivers/STM32L4xx_HAL_Driver/Src/stm32l4xx_hal_dac.c ****   hdac->State = HAL_DAC_STATE_BUSY;
 1237              		.loc 1 1235 15 is_stmt 1
 1238 0022 FB68     		ldr	r3, [r7, #12]
 1239 0024 0222     		movs	r2, #2
 1240 0026 1A71     		strb	r2, [r3, #4]
1236:Drivers/STM32L4xx_HAL_Driver/Src/stm32l4xx_hal_dac.c **** 
1237:Drivers/STM32L4xx_HAL_Driver/Src/stm32l4xx_hal_dac.c ****   if (sConfig->DAC_SampleAndHold == DAC_SAMPLEANDHOLD_ENABLE)
 1241              		.loc 1 1237 14
 1242 0028 BB68     		ldr	r3, [r7, #8]
 1243 002a 1B68     		ldr	r3, [r3]
 1244              		.loc 1 1237 6
 1245 002c 042B     		cmp	r3, #4
 1246 002e 40F08180 		bne	.L61
1238:Drivers/STM32L4xx_HAL_Driver/Src/stm32l4xx_hal_dac.c ****   /* Sample on old configuration */
1239:Drivers/STM32L4xx_HAL_Driver/Src/stm32l4xx_hal_dac.c ****   {
1240:Drivers/STM32L4xx_HAL_Driver/Src/stm32l4xx_hal_dac.c ****     /* Get timeout */
1241:Drivers/STM32L4xx_HAL_Driver/Src/stm32l4xx_hal_dac.c ****     tickstart = HAL_GetTick();
 1247              		.loc 1 1241 17
 1248 0032 FFF7FEFF 		bl	HAL_GetTick
 1249 0036 F861     		str	r0, [r7, #28]
1242:Drivers/STM32L4xx_HAL_Driver/Src/stm32l4xx_hal_dac.c **** 
1243:Drivers/STM32L4xx_HAL_Driver/Src/stm32l4xx_hal_dac.c ****     if (Channel == DAC_CHANNEL_1)
 1250              		.loc 1 1243 8
 1251 0038 7B68     		ldr	r3, [r7, #4]
 1252 003a 002B     		cmp	r3, #0
 1253 003c 40D1     		bne	.L67
1244:Drivers/STM32L4xx_HAL_Driver/Src/stm32l4xx_hal_dac.c ****     {
1245:Drivers/STM32L4xx_HAL_Driver/Src/stm32l4xx_hal_dac.c **** 
1246:Drivers/STM32L4xx_HAL_Driver/Src/stm32l4xx_hal_dac.c ****       /* SHSR1 can be written when BWST1 is cleared */
1247:Drivers/STM32L4xx_HAL_Driver/Src/stm32l4xx_hal_dac.c ****       while (((hdac->Instance->SR) & DAC_SR_BWST1) != 0UL)
 1254              		.loc 1 1247 13
 1255 003e 18E0     		b	.L63
 1256              	.L65:
1248:Drivers/STM32L4xx_HAL_Driver/Src/stm32l4xx_hal_dac.c ****       {
1249:Drivers/STM32L4xx_HAL_Driver/Src/stm32l4xx_hal_dac.c ****         /* Check for the Timeout */
1250:Drivers/STM32L4xx_HAL_Driver/Src/stm32l4xx_hal_dac.c ****         if ((HAL_GetTick() - tickstart) > TIMEOUT_DAC_CALIBCONFIG)
 1257              		.loc 1 1250 14
 1258 0040 FFF7FEFF 		bl	HAL_GetTick
 1259 0044 0246     		mov	r2, r0
 1260              		.loc 1 1250 28 discriminator 1
 1261 0046 FB69     		ldr	r3, [r7, #28]
 1262 0048 D31A     		subs	r3, r2, r3
 1263              		.loc 1 1250 12 discriminator 1
 1264 004a 012B     		cmp	r3, #1
 1265 004c 11D9     		bls	.L63
ARM GAS  /tmp/cc8wC0d3.s 			page 45


1251:Drivers/STM32L4xx_HAL_Driver/Src/stm32l4xx_hal_dac.c ****         {
1252:Drivers/STM32L4xx_HAL_Driver/Src/stm32l4xx_hal_dac.c ****           /* New check to avoid false timeout detection in case of preemption */
1253:Drivers/STM32L4xx_HAL_Driver/Src/stm32l4xx_hal_dac.c ****           if(((hdac->Instance->SR) & DAC_SR_BWST1) != 0UL)
 1266              		.loc 1 1253 20
 1267 004e FB68     		ldr	r3, [r7, #12]
 1268 0050 1B68     		ldr	r3, [r3]
 1269              		.loc 1 1253 30
 1270 0052 5B6B     		ldr	r3, [r3, #52]
 1271              		.loc 1 1253 36
 1272 0054 03F40043 		and	r3, r3, #32768
 1273              		.loc 1 1253 13
 1274 0058 002B     		cmp	r3, #0
 1275 005a 0AD0     		beq	.L63
1254:Drivers/STM32L4xx_HAL_Driver/Src/stm32l4xx_hal_dac.c ****           {
1255:Drivers/STM32L4xx_HAL_Driver/Src/stm32l4xx_hal_dac.c ****             /* Update error code */
1256:Drivers/STM32L4xx_HAL_Driver/Src/stm32l4xx_hal_dac.c ****             SET_BIT(hdac->ErrorCode, HAL_DAC_ERROR_TIMEOUT);
 1276              		.loc 1 1256 13
 1277 005c FB68     		ldr	r3, [r7, #12]
 1278 005e 1B69     		ldr	r3, [r3, #16]
 1279 0060 43F00802 		orr	r2, r3, #8
 1280 0064 FB68     		ldr	r3, [r7, #12]
 1281 0066 1A61     		str	r2, [r3, #16]
1257:Drivers/STM32L4xx_HAL_Driver/Src/stm32l4xx_hal_dac.c **** 
1258:Drivers/STM32L4xx_HAL_Driver/Src/stm32l4xx_hal_dac.c ****             /* Change the DMA state */
1259:Drivers/STM32L4xx_HAL_Driver/Src/stm32l4xx_hal_dac.c ****             hdac->State = HAL_DAC_STATE_TIMEOUT;
 1282              		.loc 1 1259 25
 1283 0068 FB68     		ldr	r3, [r7, #12]
 1284 006a 0322     		movs	r2, #3
 1285 006c 1A71     		strb	r2, [r3, #4]
1260:Drivers/STM32L4xx_HAL_Driver/Src/stm32l4xx_hal_dac.c **** 
1261:Drivers/STM32L4xx_HAL_Driver/Src/stm32l4xx_hal_dac.c ****             return HAL_TIMEOUT;
 1286              		.loc 1 1261 20
 1287 006e 0323     		movs	r3, #3
 1288 0070 E9E0     		b	.L60
 1289              	.L63:
1247:Drivers/STM32L4xx_HAL_Driver/Src/stm32l4xx_hal_dac.c ****       {
 1290              		.loc 1 1247 20
 1291 0072 FB68     		ldr	r3, [r7, #12]
 1292 0074 1B68     		ldr	r3, [r3]
1247:Drivers/STM32L4xx_HAL_Driver/Src/stm32l4xx_hal_dac.c ****       {
 1293              		.loc 1 1247 30
 1294 0076 5B6B     		ldr	r3, [r3, #52]
1247:Drivers/STM32L4xx_HAL_Driver/Src/stm32l4xx_hal_dac.c ****       {
 1295              		.loc 1 1247 36
 1296 0078 03F40043 		and	r3, r3, #32768
1247:Drivers/STM32L4xx_HAL_Driver/Src/stm32l4xx_hal_dac.c ****       {
 1297              		.loc 1 1247 52
 1298 007c 002B     		cmp	r3, #0
 1299 007e DFD1     		bne	.L65
1262:Drivers/STM32L4xx_HAL_Driver/Src/stm32l4xx_hal_dac.c ****           }
1263:Drivers/STM32L4xx_HAL_Driver/Src/stm32l4xx_hal_dac.c ****         }
1264:Drivers/STM32L4xx_HAL_Driver/Src/stm32l4xx_hal_dac.c ****       }
1265:Drivers/STM32L4xx_HAL_Driver/Src/stm32l4xx_hal_dac.c ****       HAL_Delay(1);
 1300              		.loc 1 1265 7
 1301 0080 0120     		movs	r0, #1
 1302 0082 FFF7FEFF 		bl	HAL_Delay
1266:Drivers/STM32L4xx_HAL_Driver/Src/stm32l4xx_hal_dac.c ****       hdac->Instance->SHSR1 = sConfig->DAC_SampleAndHoldConfig.DAC_SampleTime;
ARM GAS  /tmp/cc8wC0d3.s 			page 46


 1303              		.loc 1 1266 11
 1304 0086 FB68     		ldr	r3, [r7, #12]
 1305 0088 1B68     		ldr	r3, [r3]
 1306              		.loc 1 1266 63
 1307 008a BA68     		ldr	r2, [r7, #8]
 1308 008c 9269     		ldr	r2, [r2, #24]
 1309              		.loc 1 1266 29
 1310 008e 1A64     		str	r2, [r3, #64]
 1311 0090 23E0     		b	.L66
 1312              	.L69:
1267:Drivers/STM32L4xx_HAL_Driver/Src/stm32l4xx_hal_dac.c ****     }
1268:Drivers/STM32L4xx_HAL_Driver/Src/stm32l4xx_hal_dac.c **** #if !defined (STM32L451xx) & !defined (STM32L452xx) & !defined (STM32L462xx)
1269:Drivers/STM32L4xx_HAL_Driver/Src/stm32l4xx_hal_dac.c ****     else /* Channel 2 */
1270:Drivers/STM32L4xx_HAL_Driver/Src/stm32l4xx_hal_dac.c ****     {
1271:Drivers/STM32L4xx_HAL_Driver/Src/stm32l4xx_hal_dac.c ****       /* SHSR2 can be written when BWST2 is cleared */
1272:Drivers/STM32L4xx_HAL_Driver/Src/stm32l4xx_hal_dac.c **** 
1273:Drivers/STM32L4xx_HAL_Driver/Src/stm32l4xx_hal_dac.c ****       while (((hdac->Instance->SR) & DAC_SR_BWST2) != 0UL)
1274:Drivers/STM32L4xx_HAL_Driver/Src/stm32l4xx_hal_dac.c ****       {
1275:Drivers/STM32L4xx_HAL_Driver/Src/stm32l4xx_hal_dac.c ****         /* Check for the Timeout */
1276:Drivers/STM32L4xx_HAL_Driver/Src/stm32l4xx_hal_dac.c ****         if ((HAL_GetTick() - tickstart) > TIMEOUT_DAC_CALIBCONFIG)
 1313              		.loc 1 1276 14
 1314 0092 FFF7FEFF 		bl	HAL_GetTick
 1315 0096 0246     		mov	r2, r0
 1316              		.loc 1 1276 28 discriminator 1
 1317 0098 FB69     		ldr	r3, [r7, #28]
 1318 009a D31A     		subs	r3, r2, r3
 1319              		.loc 1 1276 12 discriminator 1
 1320 009c 012B     		cmp	r3, #1
 1321 009e 0FD9     		bls	.L67
1277:Drivers/STM32L4xx_HAL_Driver/Src/stm32l4xx_hal_dac.c ****         {
1278:Drivers/STM32L4xx_HAL_Driver/Src/stm32l4xx_hal_dac.c ****           /* New check to avoid false timeout detection in case of preemption */
1279:Drivers/STM32L4xx_HAL_Driver/Src/stm32l4xx_hal_dac.c ****           if(((hdac->Instance->SR) & DAC_SR_BWST2) != 0UL)
 1322              		.loc 1 1279 20
 1323 00a0 FB68     		ldr	r3, [r7, #12]
 1324 00a2 1B68     		ldr	r3, [r3]
 1325              		.loc 1 1279 30
 1326 00a4 5B6B     		ldr	r3, [r3, #52]
 1327              		.loc 1 1279 13
 1328 00a6 002B     		cmp	r3, #0
 1329 00a8 0ADA     		bge	.L67
1280:Drivers/STM32L4xx_HAL_Driver/Src/stm32l4xx_hal_dac.c ****           {
1281:Drivers/STM32L4xx_HAL_Driver/Src/stm32l4xx_hal_dac.c ****             /* Update error code */
1282:Drivers/STM32L4xx_HAL_Driver/Src/stm32l4xx_hal_dac.c ****             SET_BIT(hdac->ErrorCode, HAL_DAC_ERROR_TIMEOUT);
 1330              		.loc 1 1282 13
 1331 00aa FB68     		ldr	r3, [r7, #12]
 1332 00ac 1B69     		ldr	r3, [r3, #16]
 1333 00ae 43F00802 		orr	r2, r3, #8
 1334 00b2 FB68     		ldr	r3, [r7, #12]
 1335 00b4 1A61     		str	r2, [r3, #16]
1283:Drivers/STM32L4xx_HAL_Driver/Src/stm32l4xx_hal_dac.c **** 
1284:Drivers/STM32L4xx_HAL_Driver/Src/stm32l4xx_hal_dac.c ****             /* Change the DMA state */
1285:Drivers/STM32L4xx_HAL_Driver/Src/stm32l4xx_hal_dac.c ****             hdac->State = HAL_DAC_STATE_TIMEOUT;
 1336              		.loc 1 1285 25
 1337 00b6 FB68     		ldr	r3, [r7, #12]
 1338 00b8 0322     		movs	r2, #3
 1339 00ba 1A71     		strb	r2, [r3, #4]
1286:Drivers/STM32L4xx_HAL_Driver/Src/stm32l4xx_hal_dac.c **** 
ARM GAS  /tmp/cc8wC0d3.s 			page 47


1287:Drivers/STM32L4xx_HAL_Driver/Src/stm32l4xx_hal_dac.c ****             return HAL_TIMEOUT;
 1340              		.loc 1 1287 20
 1341 00bc 0323     		movs	r3, #3
 1342 00be C2E0     		b	.L60
 1343              	.L67:
1273:Drivers/STM32L4xx_HAL_Driver/Src/stm32l4xx_hal_dac.c ****       {
 1344              		.loc 1 1273 20
 1345 00c0 FB68     		ldr	r3, [r7, #12]
 1346 00c2 1B68     		ldr	r3, [r3]
1273:Drivers/STM32L4xx_HAL_Driver/Src/stm32l4xx_hal_dac.c ****       {
 1347              		.loc 1 1273 30
 1348 00c4 5B6B     		ldr	r3, [r3, #52]
1273:Drivers/STM32L4xx_HAL_Driver/Src/stm32l4xx_hal_dac.c ****       {
 1349              		.loc 1 1273 52
 1350 00c6 002B     		cmp	r3, #0
 1351 00c8 E3DB     		blt	.L69
1288:Drivers/STM32L4xx_HAL_Driver/Src/stm32l4xx_hal_dac.c ****           }
1289:Drivers/STM32L4xx_HAL_Driver/Src/stm32l4xx_hal_dac.c ****         }
1290:Drivers/STM32L4xx_HAL_Driver/Src/stm32l4xx_hal_dac.c ****       }
1291:Drivers/STM32L4xx_HAL_Driver/Src/stm32l4xx_hal_dac.c ****       HAL_Delay(1U);
 1352              		.loc 1 1291 7
 1353 00ca 0120     		movs	r0, #1
 1354 00cc FFF7FEFF 		bl	HAL_Delay
1292:Drivers/STM32L4xx_HAL_Driver/Src/stm32l4xx_hal_dac.c ****       hdac->Instance->SHSR2 = sConfig->DAC_SampleAndHoldConfig.DAC_SampleTime;
 1355              		.loc 1 1292 11
 1356 00d0 FB68     		ldr	r3, [r7, #12]
 1357 00d2 1B68     		ldr	r3, [r3]
 1358              		.loc 1 1292 63
 1359 00d4 BA68     		ldr	r2, [r7, #8]
 1360 00d6 9269     		ldr	r2, [r2, #24]
 1361              		.loc 1 1292 29
 1362 00d8 5A64     		str	r2, [r3, #68]
 1363              	.L66:
1293:Drivers/STM32L4xx_HAL_Driver/Src/stm32l4xx_hal_dac.c ****     }
1294:Drivers/STM32L4xx_HAL_Driver/Src/stm32l4xx_hal_dac.c **** #endif /* STM32L451xx STM32L452xx STM32L462xx */
1295:Drivers/STM32L4xx_HAL_Driver/Src/stm32l4xx_hal_dac.c **** 
1296:Drivers/STM32L4xx_HAL_Driver/Src/stm32l4xx_hal_dac.c ****     /* HoldTime */
1297:Drivers/STM32L4xx_HAL_Driver/Src/stm32l4xx_hal_dac.c ****     MODIFY_REG(hdac->Instance->SHHR, DAC_SHHR_THOLD1 << (Channel & 0x10UL), (sConfig->DAC_SampleAnd
 1364              		.loc 1 1297 5
 1365 00da FB68     		ldr	r3, [r7, #12]
 1366 00dc 1B68     		ldr	r3, [r3]
 1367 00de 9A6C     		ldr	r2, [r3, #72]
 1368 00e0 7B68     		ldr	r3, [r7, #4]
 1369 00e2 03F01003 		and	r3, r3, #16
 1370 00e6 40F2FF31 		movw	r1, #1023
 1371 00ea 01FA03F3 		lsl	r3, r1, r3
 1372 00ee DB43     		mvns	r3, r3
 1373 00f0 02EA0301 		and	r1, r2, r3
 1374 00f4 BB68     		ldr	r3, [r7, #8]
 1375 00f6 DA69     		ldr	r2, [r3, #28]
 1376 00f8 7B68     		ldr	r3, [r7, #4]
 1377 00fa 03F01003 		and	r3, r3, #16
 1378 00fe 9A40     		lsls	r2, r2, r3
 1379 0100 FB68     		ldr	r3, [r7, #12]
 1380 0102 1B68     		ldr	r3, [r3]
 1381 0104 0A43     		orrs	r2, r2, r1
 1382 0106 9A64     		str	r2, [r3, #72]
ARM GAS  /tmp/cc8wC0d3.s 			page 48


1298:Drivers/STM32L4xx_HAL_Driver/Src/stm32l4xx_hal_dac.c ****     /* RefreshTime */
1299:Drivers/STM32L4xx_HAL_Driver/Src/stm32l4xx_hal_dac.c ****     MODIFY_REG(hdac->Instance->SHRR, DAC_SHRR_TREFRESH1 << (Channel & 0x10UL), (sConfig->DAC_Sample
 1383              		.loc 1 1299 5
 1384 0108 FB68     		ldr	r3, [r7, #12]
 1385 010a 1B68     		ldr	r3, [r3]
 1386 010c DA6C     		ldr	r2, [r3, #76]
 1387 010e 7B68     		ldr	r3, [r7, #4]
 1388 0110 03F01003 		and	r3, r3, #16
 1389 0114 FF21     		movs	r1, #255
 1390 0116 01FA03F3 		lsl	r3, r1, r3
 1391 011a DB43     		mvns	r3, r3
 1392 011c 02EA0301 		and	r1, r2, r3
 1393 0120 BB68     		ldr	r3, [r7, #8]
 1394 0122 1A6A     		ldr	r2, [r3, #32]
 1395 0124 7B68     		ldr	r3, [r7, #4]
 1396 0126 03F01003 		and	r3, r3, #16
 1397 012a 9A40     		lsls	r2, r2, r3
 1398 012c FB68     		ldr	r3, [r7, #12]
 1399 012e 1B68     		ldr	r3, [r3]
 1400 0130 0A43     		orrs	r2, r2, r1
 1401 0132 DA64     		str	r2, [r3, #76]
 1402              	.L61:
1300:Drivers/STM32L4xx_HAL_Driver/Src/stm32l4xx_hal_dac.c ****   }
1301:Drivers/STM32L4xx_HAL_Driver/Src/stm32l4xx_hal_dac.c **** 
1302:Drivers/STM32L4xx_HAL_Driver/Src/stm32l4xx_hal_dac.c ****   if (sConfig->DAC_UserTrimming == DAC_TRIMMING_USER)
 1403              		.loc 1 1302 14
 1404 0134 BB68     		ldr	r3, [r7, #8]
 1405 0136 1B69     		ldr	r3, [r3, #16]
 1406              		.loc 1 1302 6
 1407 0138 012B     		cmp	r3, #1
 1408 013a 1DD1     		bne	.L70
1303:Drivers/STM32L4xx_HAL_Driver/Src/stm32l4xx_hal_dac.c ****   /* USER TRIMMING */
1304:Drivers/STM32L4xx_HAL_Driver/Src/stm32l4xx_hal_dac.c ****   {
1305:Drivers/STM32L4xx_HAL_Driver/Src/stm32l4xx_hal_dac.c ****     /* Get the DAC CCR value */
1306:Drivers/STM32L4xx_HAL_Driver/Src/stm32l4xx_hal_dac.c ****     tmpreg1 = hdac->Instance->CCR;
 1409              		.loc 1 1306 19
 1410 013c FB68     		ldr	r3, [r7, #12]
 1411 013e 1B68     		ldr	r3, [r3]
 1412              		.loc 1 1306 13
 1413 0140 9B6B     		ldr	r3, [r3, #56]
 1414 0142 BB61     		str	r3, [r7, #24]
1307:Drivers/STM32L4xx_HAL_Driver/Src/stm32l4xx_hal_dac.c ****     /* Clear trimming value */
1308:Drivers/STM32L4xx_HAL_Driver/Src/stm32l4xx_hal_dac.c ****     tmpreg1 &= ~(((uint32_t)(DAC_CCR_OTRIM1)) << (Channel & 0x10UL));
 1415              		.loc 1 1308 59
 1416 0144 7B68     		ldr	r3, [r7, #4]
 1417 0146 03F01003 		and	r3, r3, #16
 1418              		.loc 1 1308 47
 1419 014a 1F22     		movs	r2, #31
 1420 014c 02FA03F3 		lsl	r3, r2, r3
 1421              		.loc 1 1308 16
 1422 0150 DB43     		mvns	r3, r3
 1423              		.loc 1 1308 13
 1424 0152 BA69     		ldr	r2, [r7, #24]
 1425 0154 1340     		ands	r3, r3, r2
 1426 0156 BB61     		str	r3, [r7, #24]
1309:Drivers/STM32L4xx_HAL_Driver/Src/stm32l4xx_hal_dac.c ****     /* Configure for the selected trimming offset */
1310:Drivers/STM32L4xx_HAL_Driver/Src/stm32l4xx_hal_dac.c ****     tmpreg2 = sConfig->DAC_TrimmingValue;
ARM GAS  /tmp/cc8wC0d3.s 			page 49


 1427              		.loc 1 1310 13
 1428 0158 BB68     		ldr	r3, [r7, #8]
 1429 015a 5B69     		ldr	r3, [r3, #20]
 1430 015c 7B61     		str	r3, [r7, #20]
1311:Drivers/STM32L4xx_HAL_Driver/Src/stm32l4xx_hal_dac.c ****     /* Calculate CCR register value depending on DAC_Channel */
1312:Drivers/STM32L4xx_HAL_Driver/Src/stm32l4xx_hal_dac.c ****     tmpreg1 |= tmpreg2 << (Channel & 0x10UL);
 1431              		.loc 1 1312 36
 1432 015e 7B68     		ldr	r3, [r7, #4]
 1433 0160 03F01003 		and	r3, r3, #16
 1434              		.loc 1 1312 24
 1435 0164 7A69     		ldr	r2, [r7, #20]
 1436 0166 02FA03F3 		lsl	r3, r2, r3
 1437              		.loc 1 1312 13
 1438 016a BA69     		ldr	r2, [r7, #24]
 1439 016c 1343     		orrs	r3, r3, r2
 1440 016e BB61     		str	r3, [r7, #24]
1313:Drivers/STM32L4xx_HAL_Driver/Src/stm32l4xx_hal_dac.c ****     /* Write to DAC CCR */
1314:Drivers/STM32L4xx_HAL_Driver/Src/stm32l4xx_hal_dac.c ****     hdac->Instance->CCR = tmpreg1;
 1441              		.loc 1 1314 9
 1442 0170 FB68     		ldr	r3, [r7, #12]
 1443 0172 1B68     		ldr	r3, [r3]
 1444              		.loc 1 1314 25
 1445 0174 BA69     		ldr	r2, [r7, #24]
 1446 0176 9A63     		str	r2, [r3, #56]
 1447              	.L70:
1315:Drivers/STM32L4xx_HAL_Driver/Src/stm32l4xx_hal_dac.c ****   }
1316:Drivers/STM32L4xx_HAL_Driver/Src/stm32l4xx_hal_dac.c ****   /* else factory trimming is used (factory setting are available at reset)*/
1317:Drivers/STM32L4xx_HAL_Driver/Src/stm32l4xx_hal_dac.c ****   /* SW Nothing has nothing to do */
1318:Drivers/STM32L4xx_HAL_Driver/Src/stm32l4xx_hal_dac.c **** 
1319:Drivers/STM32L4xx_HAL_Driver/Src/stm32l4xx_hal_dac.c ****   /* Get the DAC MCR value */
1320:Drivers/STM32L4xx_HAL_Driver/Src/stm32l4xx_hal_dac.c ****   tmpreg1 = hdac->Instance->MCR;
 1448              		.loc 1 1320 17
 1449 0178 FB68     		ldr	r3, [r7, #12]
 1450 017a 1B68     		ldr	r3, [r3]
 1451              		.loc 1 1320 11
 1452 017c DB6B     		ldr	r3, [r3, #60]
 1453 017e BB61     		str	r3, [r7, #24]
1321:Drivers/STM32L4xx_HAL_Driver/Src/stm32l4xx_hal_dac.c ****   /* Clear DAC_MCR_MODEx bits */
1322:Drivers/STM32L4xx_HAL_Driver/Src/stm32l4xx_hal_dac.c ****   tmpreg1 &= ~(((uint32_t)(DAC_MCR_MODE1)) << (Channel & 0x10UL));
 1454              		.loc 1 1322 56
 1455 0180 7B68     		ldr	r3, [r7, #4]
 1456 0182 03F01003 		and	r3, r3, #16
 1457              		.loc 1 1322 44
 1458 0186 0722     		movs	r2, #7
 1459 0188 02FA03F3 		lsl	r3, r2, r3
 1460              		.loc 1 1322 14
 1461 018c DB43     		mvns	r3, r3
 1462              		.loc 1 1322 11
 1463 018e BA69     		ldr	r2, [r7, #24]
 1464 0190 1340     		ands	r3, r3, r2
 1465 0192 BB61     		str	r3, [r7, #24]
1323:Drivers/STM32L4xx_HAL_Driver/Src/stm32l4xx_hal_dac.c ****   /* Configure for the selected DAC channel: mode, buffer output & on chip peripheral connect */
1324:Drivers/STM32L4xx_HAL_Driver/Src/stm32l4xx_hal_dac.c ****   tmpreg2 = (sConfig->DAC_SampleAndHold | sConfig->DAC_OutputBuffer | sConfig->DAC_ConnectOnChipPer
 1466              		.loc 1 1324 21
 1467 0194 BB68     		ldr	r3, [r7, #8]
 1468 0196 1A68     		ldr	r2, [r3]
 1469              		.loc 1 1324 50
ARM GAS  /tmp/cc8wC0d3.s 			page 50


 1470 0198 BB68     		ldr	r3, [r7, #8]
 1471 019a 9B68     		ldr	r3, [r3, #8]
 1472              		.loc 1 1324 41
 1473 019c 1A43     		orrs	r2, r2, r3
 1474              		.loc 1 1324 78
 1475 019e BB68     		ldr	r3, [r7, #8]
 1476 01a0 DB68     		ldr	r3, [r3, #12]
 1477              		.loc 1 1324 11
 1478 01a2 1343     		orrs	r3, r3, r2
 1479 01a4 7B61     		str	r3, [r7, #20]
1325:Drivers/STM32L4xx_HAL_Driver/Src/stm32l4xx_hal_dac.c ****   /* Calculate MCR register value depending on DAC_Channel */
1326:Drivers/STM32L4xx_HAL_Driver/Src/stm32l4xx_hal_dac.c ****   tmpreg1 |= tmpreg2 << (Channel & 0x10UL);
 1480              		.loc 1 1326 34
 1481 01a6 7B68     		ldr	r3, [r7, #4]
 1482 01a8 03F01003 		and	r3, r3, #16
 1483              		.loc 1 1326 22
 1484 01ac 7A69     		ldr	r2, [r7, #20]
 1485 01ae 02FA03F3 		lsl	r3, r2, r3
 1486              		.loc 1 1326 11
 1487 01b2 BA69     		ldr	r2, [r7, #24]
 1488 01b4 1343     		orrs	r3, r3, r2
 1489 01b6 BB61     		str	r3, [r7, #24]
1327:Drivers/STM32L4xx_HAL_Driver/Src/stm32l4xx_hal_dac.c ****   /* Write to DAC MCR */
1328:Drivers/STM32L4xx_HAL_Driver/Src/stm32l4xx_hal_dac.c ****   hdac->Instance->MCR = tmpreg1;
 1490              		.loc 1 1328 7
 1491 01b8 FB68     		ldr	r3, [r7, #12]
 1492 01ba 1B68     		ldr	r3, [r3]
 1493              		.loc 1 1328 23
 1494 01bc BA69     		ldr	r2, [r7, #24]
 1495 01be DA63     		str	r2, [r3, #60]
1329:Drivers/STM32L4xx_HAL_Driver/Src/stm32l4xx_hal_dac.c **** 
1330:Drivers/STM32L4xx_HAL_Driver/Src/stm32l4xx_hal_dac.c ****   /* DAC in normal operating mode hence clear DAC_CR_CENx bit */
1331:Drivers/STM32L4xx_HAL_Driver/Src/stm32l4xx_hal_dac.c ****   CLEAR_BIT(hdac->Instance->CR, DAC_CR_CEN1 << (Channel & 0x10UL));
 1496              		.loc 1 1331 3
 1497 01c0 FB68     		ldr	r3, [r7, #12]
 1498 01c2 1B68     		ldr	r3, [r3]
 1499 01c4 1968     		ldr	r1, [r3]
 1500 01c6 7B68     		ldr	r3, [r7, #4]
 1501 01c8 03F01003 		and	r3, r3, #16
 1502 01cc 4FF48042 		mov	r2, #16384
 1503 01d0 02FA03F3 		lsl	r3, r2, r3
 1504 01d4 DA43     		mvns	r2, r3
 1505 01d6 FB68     		ldr	r3, [r7, #12]
 1506 01d8 1B68     		ldr	r3, [r3]
 1507 01da 0A40     		ands	r2, r2, r1
 1508 01dc 1A60     		str	r2, [r3]
1332:Drivers/STM32L4xx_HAL_Driver/Src/stm32l4xx_hal_dac.c **** 
1333:Drivers/STM32L4xx_HAL_Driver/Src/stm32l4xx_hal_dac.c ****   /* Get the DAC CR value */
1334:Drivers/STM32L4xx_HAL_Driver/Src/stm32l4xx_hal_dac.c ****   tmpreg1 = hdac->Instance->CR;
 1509              		.loc 1 1334 17
 1510 01de FB68     		ldr	r3, [r7, #12]
 1511 01e0 1B68     		ldr	r3, [r3]
 1512              		.loc 1 1334 11
 1513 01e2 1B68     		ldr	r3, [r3]
 1514 01e4 BB61     		str	r3, [r7, #24]
1335:Drivers/STM32L4xx_HAL_Driver/Src/stm32l4xx_hal_dac.c ****   /* Clear TENx, TSELx, WAVEx and MAMPx bits */
1336:Drivers/STM32L4xx_HAL_Driver/Src/stm32l4xx_hal_dac.c ****   tmpreg1 &= ~(((uint32_t)(DAC_CR_MAMP1 | DAC_CR_WAVE1 | DAC_CR_TSEL1 | DAC_CR_TEN1)) << (Channel &
ARM GAS  /tmp/cc8wC0d3.s 			page 51


 1515              		.loc 1 1336 99
 1516 01e6 7B68     		ldr	r3, [r7, #4]
 1517 01e8 03F01003 		and	r3, r3, #16
 1518              		.loc 1 1336 87
 1519 01ec 40F6FC72 		movw	r2, #4092
 1520 01f0 02FA03F3 		lsl	r3, r2, r3
 1521              		.loc 1 1336 14
 1522 01f4 DB43     		mvns	r3, r3
 1523              		.loc 1 1336 11
 1524 01f6 BA69     		ldr	r2, [r7, #24]
 1525 01f8 1340     		ands	r3, r3, r2
 1526 01fa BB61     		str	r3, [r7, #24]
1337:Drivers/STM32L4xx_HAL_Driver/Src/stm32l4xx_hal_dac.c ****   /* Configure for the selected DAC channel: trigger */
1338:Drivers/STM32L4xx_HAL_Driver/Src/stm32l4xx_hal_dac.c ****   /* Set TSELx and TENx bits according to DAC_Trigger value */
1339:Drivers/STM32L4xx_HAL_Driver/Src/stm32l4xx_hal_dac.c ****   tmpreg2 = sConfig->DAC_Trigger;
 1527              		.loc 1 1339 11
 1528 01fc BB68     		ldr	r3, [r7, #8]
 1529 01fe 5B68     		ldr	r3, [r3, #4]
 1530 0200 7B61     		str	r3, [r7, #20]
1340:Drivers/STM32L4xx_HAL_Driver/Src/stm32l4xx_hal_dac.c ****   /* Calculate CR register value depending on DAC_Channel */
1341:Drivers/STM32L4xx_HAL_Driver/Src/stm32l4xx_hal_dac.c ****   tmpreg1 |= tmpreg2 << (Channel & 0x10UL);
 1531              		.loc 1 1341 34
 1532 0202 7B68     		ldr	r3, [r7, #4]
 1533 0204 03F01003 		and	r3, r3, #16
 1534              		.loc 1 1341 22
 1535 0208 7A69     		ldr	r2, [r7, #20]
 1536 020a 02FA03F3 		lsl	r3, r2, r3
 1537              		.loc 1 1341 11
 1538 020e BA69     		ldr	r2, [r7, #24]
 1539 0210 1343     		orrs	r3, r3, r2
 1540 0212 BB61     		str	r3, [r7, #24]
1342:Drivers/STM32L4xx_HAL_Driver/Src/stm32l4xx_hal_dac.c **** #if defined (STM32L4P5xx) || defined (STM32L4Q5xx) || defined (STM32L4R5xx) || defined (STM32L4R7xx
1343:Drivers/STM32L4xx_HAL_Driver/Src/stm32l4xx_hal_dac.c ****   if (DAC_HIGH_FREQUENCY_INTERFACE_MODE_ABOVE_80MHZ == sConfig->DAC_HighFrequency)
1344:Drivers/STM32L4xx_HAL_Driver/Src/stm32l4xx_hal_dac.c ****   {
1345:Drivers/STM32L4xx_HAL_Driver/Src/stm32l4xx_hal_dac.c ****     tmpreg1 |= DAC_CR_HFSEL;
1346:Drivers/STM32L4xx_HAL_Driver/Src/stm32l4xx_hal_dac.c ****   }
1347:Drivers/STM32L4xx_HAL_Driver/Src/stm32l4xx_hal_dac.c ****   else
1348:Drivers/STM32L4xx_HAL_Driver/Src/stm32l4xx_hal_dac.c ****   {
1349:Drivers/STM32L4xx_HAL_Driver/Src/stm32l4xx_hal_dac.c ****     if (DAC_HIGH_FREQUENCY_INTERFACE_MODE_DISABLE == sConfig->DAC_HighFrequency)
1350:Drivers/STM32L4xx_HAL_Driver/Src/stm32l4xx_hal_dac.c ****     {
1351:Drivers/STM32L4xx_HAL_Driver/Src/stm32l4xx_hal_dac.c ****       tmpreg1 &= ~(DAC_CR_HFSEL);
1352:Drivers/STM32L4xx_HAL_Driver/Src/stm32l4xx_hal_dac.c ****     }
1353:Drivers/STM32L4xx_HAL_Driver/Src/stm32l4xx_hal_dac.c ****     else /* Automatic selection */
1354:Drivers/STM32L4xx_HAL_Driver/Src/stm32l4xx_hal_dac.c ****     {
1355:Drivers/STM32L4xx_HAL_Driver/Src/stm32l4xx_hal_dac.c ****       hclkfreq = HAL_RCC_GetHCLKFreq();
1356:Drivers/STM32L4xx_HAL_Driver/Src/stm32l4xx_hal_dac.c ****       if (hclkfreq > HFSEL_ENABLE_THRESHOLD_80MHZ)
1357:Drivers/STM32L4xx_HAL_Driver/Src/stm32l4xx_hal_dac.c ****       {
1358:Drivers/STM32L4xx_HAL_Driver/Src/stm32l4xx_hal_dac.c ****         /* High frequency enable when HCLK frequency higher than 80   */
1359:Drivers/STM32L4xx_HAL_Driver/Src/stm32l4xx_hal_dac.c ****          tmpreg1 |= DAC_CR_HFSEL;
1360:Drivers/STM32L4xx_HAL_Driver/Src/stm32l4xx_hal_dac.c ****       }
1361:Drivers/STM32L4xx_HAL_Driver/Src/stm32l4xx_hal_dac.c ****       else
1362:Drivers/STM32L4xx_HAL_Driver/Src/stm32l4xx_hal_dac.c ****       {
1363:Drivers/STM32L4xx_HAL_Driver/Src/stm32l4xx_hal_dac.c ****         /* High frequency disable when HCLK frequency higher than 80  */
1364:Drivers/STM32L4xx_HAL_Driver/Src/stm32l4xx_hal_dac.c ****         tmpreg1 &= ~(DAC_CR_HFSEL);
1365:Drivers/STM32L4xx_HAL_Driver/Src/stm32l4xx_hal_dac.c ****       }
1366:Drivers/STM32L4xx_HAL_Driver/Src/stm32l4xx_hal_dac.c ****     }
1367:Drivers/STM32L4xx_HAL_Driver/Src/stm32l4xx_hal_dac.c ****   }
ARM GAS  /tmp/cc8wC0d3.s 			page 52


1368:Drivers/STM32L4xx_HAL_Driver/Src/stm32l4xx_hal_dac.c **** 
1369:Drivers/STM32L4xx_HAL_Driver/Src/stm32l4xx_hal_dac.c **** #endif /* STM32L4P5xx STM32L4Q5xx STM32L4R5xx STM32L4R7xx STM32L4R9xx STM32L4S5xx STM32L4S7xx STM32
1370:Drivers/STM32L4xx_HAL_Driver/Src/stm32l4xx_hal_dac.c **** 
1371:Drivers/STM32L4xx_HAL_Driver/Src/stm32l4xx_hal_dac.c ****   /* Write to DAC CR */
1372:Drivers/STM32L4xx_HAL_Driver/Src/stm32l4xx_hal_dac.c ****   hdac->Instance->CR = tmpreg1;
 1541              		.loc 1 1372 7
 1542 0214 FB68     		ldr	r3, [r7, #12]
 1543 0216 1B68     		ldr	r3, [r3]
 1544              		.loc 1 1372 22
 1545 0218 BA69     		ldr	r2, [r7, #24]
 1546 021a 1A60     		str	r2, [r3]
1373:Drivers/STM32L4xx_HAL_Driver/Src/stm32l4xx_hal_dac.c ****   /* Disable wave generation */
1374:Drivers/STM32L4xx_HAL_Driver/Src/stm32l4xx_hal_dac.c ****   hdac->Instance->CR &= ~(DAC_CR_WAVE1 << (Channel & 0x10UL));
 1547              		.loc 1 1374 7
 1548 021c FB68     		ldr	r3, [r7, #12]
 1549 021e 1B68     		ldr	r3, [r3]
 1550              		.loc 1 1374 17
 1551 0220 1968     		ldr	r1, [r3]
 1552              		.loc 1 1374 52
 1553 0222 7B68     		ldr	r3, [r7, #4]
 1554 0224 03F01003 		and	r3, r3, #16
 1555              		.loc 1 1374 40
 1556 0228 C022     		movs	r2, #192
 1557 022a 02FA03F3 		lsl	r3, r2, r3
 1558              		.loc 1 1374 25
 1559 022e DA43     		mvns	r2, r3
 1560              		.loc 1 1374 7
 1561 0230 FB68     		ldr	r3, [r7, #12]
 1562 0232 1B68     		ldr	r3, [r3]
 1563              		.loc 1 1374 22
 1564 0234 0A40     		ands	r2, r2, r1
 1565 0236 1A60     		str	r2, [r3]
1375:Drivers/STM32L4xx_HAL_Driver/Src/stm32l4xx_hal_dac.c **** 
1376:Drivers/STM32L4xx_HAL_Driver/Src/stm32l4xx_hal_dac.c ****   /* Change DAC state */
1377:Drivers/STM32L4xx_HAL_Driver/Src/stm32l4xx_hal_dac.c ****   hdac->State = HAL_DAC_STATE_READY;
 1566              		.loc 1 1377 15
 1567 0238 FB68     		ldr	r3, [r7, #12]
 1568 023a 0122     		movs	r2, #1
 1569 023c 1A71     		strb	r2, [r3, #4]
1378:Drivers/STM32L4xx_HAL_Driver/Src/stm32l4xx_hal_dac.c **** 
1379:Drivers/STM32L4xx_HAL_Driver/Src/stm32l4xx_hal_dac.c ****   /* Process unlocked */
1380:Drivers/STM32L4xx_HAL_Driver/Src/stm32l4xx_hal_dac.c ****   __HAL_UNLOCK(hdac);
 1570              		.loc 1 1380 3
 1571 023e FB68     		ldr	r3, [r7, #12]
 1572 0240 0022     		movs	r2, #0
 1573 0242 5A71     		strb	r2, [r3, #5]
1381:Drivers/STM32L4xx_HAL_Driver/Src/stm32l4xx_hal_dac.c **** 
1382:Drivers/STM32L4xx_HAL_Driver/Src/stm32l4xx_hal_dac.c ****   /* Return function status */
1383:Drivers/STM32L4xx_HAL_Driver/Src/stm32l4xx_hal_dac.c ****   return HAL_OK;
 1574              		.loc 1 1383 10
 1575 0244 0023     		movs	r3, #0
 1576              	.L60:
1384:Drivers/STM32L4xx_HAL_Driver/Src/stm32l4xx_hal_dac.c **** }
 1577              		.loc 1 1384 1
 1578 0246 1846     		mov	r0, r3
 1579 0248 2037     		adds	r7, r7, #32
 1580              		.cfi_def_cfa_offset 8
ARM GAS  /tmp/cc8wC0d3.s 			page 53


 1581 024a BD46     		mov	sp, r7
 1582              		.cfi_def_cfa_register 13
 1583              		@ sp needed
 1584 024c 80BD     		pop	{r7, pc}
 1585              		.cfi_endproc
 1586              	.LFE460:
 1588              		.section	.text.HAL_DAC_GetState,"ax",%progbits
 1589              		.align	1
 1590              		.global	HAL_DAC_GetState
 1591              		.syntax unified
 1592              		.thumb
 1593              		.thumb_func
 1595              	HAL_DAC_GetState:
 1596              	.LFB461:
1385:Drivers/STM32L4xx_HAL_Driver/Src/stm32l4xx_hal_dac.c **** 
1386:Drivers/STM32L4xx_HAL_Driver/Src/stm32l4xx_hal_dac.c **** /**
1387:Drivers/STM32L4xx_HAL_Driver/Src/stm32l4xx_hal_dac.c ****   * @}
1388:Drivers/STM32L4xx_HAL_Driver/Src/stm32l4xx_hal_dac.c ****   */
1389:Drivers/STM32L4xx_HAL_Driver/Src/stm32l4xx_hal_dac.c **** 
1390:Drivers/STM32L4xx_HAL_Driver/Src/stm32l4xx_hal_dac.c **** /** @defgroup DAC_Exported_Functions_Group4 Peripheral State and Errors functions
1391:Drivers/STM32L4xx_HAL_Driver/Src/stm32l4xx_hal_dac.c ****  *  @brief   Peripheral State and Errors functions
1392:Drivers/STM32L4xx_HAL_Driver/Src/stm32l4xx_hal_dac.c ****  *
1393:Drivers/STM32L4xx_HAL_Driver/Src/stm32l4xx_hal_dac.c **** @verbatim
1394:Drivers/STM32L4xx_HAL_Driver/Src/stm32l4xx_hal_dac.c ****   ==============================================================================
1395:Drivers/STM32L4xx_HAL_Driver/Src/stm32l4xx_hal_dac.c ****             ##### Peripheral State and Errors functions #####
1396:Drivers/STM32L4xx_HAL_Driver/Src/stm32l4xx_hal_dac.c ****   ==============================================================================
1397:Drivers/STM32L4xx_HAL_Driver/Src/stm32l4xx_hal_dac.c ****     [..]
1398:Drivers/STM32L4xx_HAL_Driver/Src/stm32l4xx_hal_dac.c ****     This subsection provides functions allowing to
1399:Drivers/STM32L4xx_HAL_Driver/Src/stm32l4xx_hal_dac.c ****       (+) Check the DAC state.
1400:Drivers/STM32L4xx_HAL_Driver/Src/stm32l4xx_hal_dac.c ****       (+) Check the DAC Errors.
1401:Drivers/STM32L4xx_HAL_Driver/Src/stm32l4xx_hal_dac.c **** 
1402:Drivers/STM32L4xx_HAL_Driver/Src/stm32l4xx_hal_dac.c **** @endverbatim
1403:Drivers/STM32L4xx_HAL_Driver/Src/stm32l4xx_hal_dac.c ****   * @{
1404:Drivers/STM32L4xx_HAL_Driver/Src/stm32l4xx_hal_dac.c ****   */
1405:Drivers/STM32L4xx_HAL_Driver/Src/stm32l4xx_hal_dac.c **** 
1406:Drivers/STM32L4xx_HAL_Driver/Src/stm32l4xx_hal_dac.c **** /**
1407:Drivers/STM32L4xx_HAL_Driver/Src/stm32l4xx_hal_dac.c ****   * @brief  return the DAC handle state
1408:Drivers/STM32L4xx_HAL_Driver/Src/stm32l4xx_hal_dac.c ****   * @param  hdac pointer to a DAC_HandleTypeDef structure that contains
1409:Drivers/STM32L4xx_HAL_Driver/Src/stm32l4xx_hal_dac.c ****   *         the configuration information for the specified DAC.
1410:Drivers/STM32L4xx_HAL_Driver/Src/stm32l4xx_hal_dac.c ****   * @retval HAL state
1411:Drivers/STM32L4xx_HAL_Driver/Src/stm32l4xx_hal_dac.c ****   */
1412:Drivers/STM32L4xx_HAL_Driver/Src/stm32l4xx_hal_dac.c **** HAL_DAC_StateTypeDef HAL_DAC_GetState(DAC_HandleTypeDef *hdac)
1413:Drivers/STM32L4xx_HAL_Driver/Src/stm32l4xx_hal_dac.c **** {
 1597              		.loc 1 1413 1
 1598              		.cfi_startproc
 1599              		@ args = 0, pretend = 0, frame = 8
 1600              		@ frame_needed = 1, uses_anonymous_args = 0
 1601              		@ link register save eliminated.
 1602 0000 80B4     		push	{r7}
 1603              		.cfi_def_cfa_offset 4
 1604              		.cfi_offset 7, -4
 1605 0002 83B0     		sub	sp, sp, #12
 1606              		.cfi_def_cfa_offset 16
 1607 0004 00AF     		add	r7, sp, #0
 1608              		.cfi_def_cfa_register 7
 1609 0006 7860     		str	r0, [r7, #4]
1414:Drivers/STM32L4xx_HAL_Driver/Src/stm32l4xx_hal_dac.c ****   /* Return DAC handle state */
ARM GAS  /tmp/cc8wC0d3.s 			page 54


1415:Drivers/STM32L4xx_HAL_Driver/Src/stm32l4xx_hal_dac.c ****   return hdac->State;
 1610              		.loc 1 1415 14
 1611 0008 7B68     		ldr	r3, [r7, #4]
 1612 000a 1B79     		ldrb	r3, [r3, #4]
 1613 000c DBB2     		uxtb	r3, r3
1416:Drivers/STM32L4xx_HAL_Driver/Src/stm32l4xx_hal_dac.c **** }
 1614              		.loc 1 1416 1
 1615 000e 1846     		mov	r0, r3
 1616 0010 0C37     		adds	r7, r7, #12
 1617              		.cfi_def_cfa_offset 4
 1618 0012 BD46     		mov	sp, r7
 1619              		.cfi_def_cfa_register 13
 1620              		@ sp needed
 1621 0014 5DF8047B 		ldr	r7, [sp], #4
 1622              		.cfi_restore 7
 1623              		.cfi_def_cfa_offset 0
 1624 0018 7047     		bx	lr
 1625              		.cfi_endproc
 1626              	.LFE461:
 1628              		.section	.text.HAL_DAC_GetError,"ax",%progbits
 1629              		.align	1
 1630              		.global	HAL_DAC_GetError
 1631              		.syntax unified
 1632              		.thumb
 1633              		.thumb_func
 1635              	HAL_DAC_GetError:
 1636              	.LFB462:
1417:Drivers/STM32L4xx_HAL_Driver/Src/stm32l4xx_hal_dac.c **** 
1418:Drivers/STM32L4xx_HAL_Driver/Src/stm32l4xx_hal_dac.c **** 
1419:Drivers/STM32L4xx_HAL_Driver/Src/stm32l4xx_hal_dac.c **** /**
1420:Drivers/STM32L4xx_HAL_Driver/Src/stm32l4xx_hal_dac.c ****   * @brief  Return the DAC error code
1421:Drivers/STM32L4xx_HAL_Driver/Src/stm32l4xx_hal_dac.c ****   * @param  hdac pointer to a DAC_HandleTypeDef structure that contains
1422:Drivers/STM32L4xx_HAL_Driver/Src/stm32l4xx_hal_dac.c ****   *         the configuration information for the specified DAC.
1423:Drivers/STM32L4xx_HAL_Driver/Src/stm32l4xx_hal_dac.c ****   * @retval DAC Error Code
1424:Drivers/STM32L4xx_HAL_Driver/Src/stm32l4xx_hal_dac.c ****   */
1425:Drivers/STM32L4xx_HAL_Driver/Src/stm32l4xx_hal_dac.c **** uint32_t HAL_DAC_GetError(DAC_HandleTypeDef *hdac)
1426:Drivers/STM32L4xx_HAL_Driver/Src/stm32l4xx_hal_dac.c **** {
 1637              		.loc 1 1426 1
 1638              		.cfi_startproc
 1639              		@ args = 0, pretend = 0, frame = 8
 1640              		@ frame_needed = 1, uses_anonymous_args = 0
 1641              		@ link register save eliminated.
 1642 0000 80B4     		push	{r7}
 1643              		.cfi_def_cfa_offset 4
 1644              		.cfi_offset 7, -4
 1645 0002 83B0     		sub	sp, sp, #12
 1646              		.cfi_def_cfa_offset 16
 1647 0004 00AF     		add	r7, sp, #0
 1648              		.cfi_def_cfa_register 7
 1649 0006 7860     		str	r0, [r7, #4]
1427:Drivers/STM32L4xx_HAL_Driver/Src/stm32l4xx_hal_dac.c ****   return hdac->ErrorCode;
 1650              		.loc 1 1427 14
 1651 0008 7B68     		ldr	r3, [r7, #4]
 1652 000a 1B69     		ldr	r3, [r3, #16]
1428:Drivers/STM32L4xx_HAL_Driver/Src/stm32l4xx_hal_dac.c **** }
 1653              		.loc 1 1428 1
 1654 000c 1846     		mov	r0, r3
ARM GAS  /tmp/cc8wC0d3.s 			page 55


 1655 000e 0C37     		adds	r7, r7, #12
 1656              		.cfi_def_cfa_offset 4
 1657 0010 BD46     		mov	sp, r7
 1658              		.cfi_def_cfa_register 13
 1659              		@ sp needed
 1660 0012 5DF8047B 		ldr	r7, [sp], #4
 1661              		.cfi_restore 7
 1662              		.cfi_def_cfa_offset 0
 1663 0016 7047     		bx	lr
 1664              		.cfi_endproc
 1665              	.LFE462:
 1667              		.section	.text.DAC_DMAConvCpltCh1,"ax",%progbits
 1668              		.align	1
 1669              		.global	DAC_DMAConvCpltCh1
 1670              		.syntax unified
 1671              		.thumb
 1672              		.thumb_func
 1674              	DAC_DMAConvCpltCh1:
 1675              	.LFB463:
1429:Drivers/STM32L4xx_HAL_Driver/Src/stm32l4xx_hal_dac.c **** 
1430:Drivers/STM32L4xx_HAL_Driver/Src/stm32l4xx_hal_dac.c **** /**
1431:Drivers/STM32L4xx_HAL_Driver/Src/stm32l4xx_hal_dac.c ****   * @}
1432:Drivers/STM32L4xx_HAL_Driver/Src/stm32l4xx_hal_dac.c ****   */
1433:Drivers/STM32L4xx_HAL_Driver/Src/stm32l4xx_hal_dac.c **** 
1434:Drivers/STM32L4xx_HAL_Driver/Src/stm32l4xx_hal_dac.c **** /**
1435:Drivers/STM32L4xx_HAL_Driver/Src/stm32l4xx_hal_dac.c ****   * @}
1436:Drivers/STM32L4xx_HAL_Driver/Src/stm32l4xx_hal_dac.c ****   */
1437:Drivers/STM32L4xx_HAL_Driver/Src/stm32l4xx_hal_dac.c **** 
1438:Drivers/STM32L4xx_HAL_Driver/Src/stm32l4xx_hal_dac.c **** /** @addtogroup DAC_Exported_Functions
1439:Drivers/STM32L4xx_HAL_Driver/Src/stm32l4xx_hal_dac.c ****   * @{
1440:Drivers/STM32L4xx_HAL_Driver/Src/stm32l4xx_hal_dac.c ****   */
1441:Drivers/STM32L4xx_HAL_Driver/Src/stm32l4xx_hal_dac.c **** 
1442:Drivers/STM32L4xx_HAL_Driver/Src/stm32l4xx_hal_dac.c **** /** @addtogroup DAC_Exported_Functions_Group1
1443:Drivers/STM32L4xx_HAL_Driver/Src/stm32l4xx_hal_dac.c ****   * @{
1444:Drivers/STM32L4xx_HAL_Driver/Src/stm32l4xx_hal_dac.c ****   */
1445:Drivers/STM32L4xx_HAL_Driver/Src/stm32l4xx_hal_dac.c **** #if (USE_HAL_DAC_REGISTER_CALLBACKS == 1)
1446:Drivers/STM32L4xx_HAL_Driver/Src/stm32l4xx_hal_dac.c **** /**
1447:Drivers/STM32L4xx_HAL_Driver/Src/stm32l4xx_hal_dac.c ****   * @brief  Register a User DAC Callback
1448:Drivers/STM32L4xx_HAL_Driver/Src/stm32l4xx_hal_dac.c ****   *         To be used instead of the weak (overridden) predefined callback
1449:Drivers/STM32L4xx_HAL_Driver/Src/stm32l4xx_hal_dac.c ****   * @param  hdac DAC handle
1450:Drivers/STM32L4xx_HAL_Driver/Src/stm32l4xx_hal_dac.c ****   * @param  CallbackID ID of the callback to be registered
1451:Drivers/STM32L4xx_HAL_Driver/Src/stm32l4xx_hal_dac.c ****   *         This parameter can be one of the following values:
1452:Drivers/STM32L4xx_HAL_Driver/Src/stm32l4xx_hal_dac.c ****   *          @arg @ref HAL_DAC_ERROR_INVALID_CALLBACK   DAC Error Callback ID
1453:Drivers/STM32L4xx_HAL_Driver/Src/stm32l4xx_hal_dac.c ****   *          @arg @ref HAL_DAC_CH1_COMPLETE_CB_ID       DAC CH1 Complete Callback ID
1454:Drivers/STM32L4xx_HAL_Driver/Src/stm32l4xx_hal_dac.c ****   *          @arg @ref HAL_DAC_CH1_HALF_COMPLETE_CB_ID  DAC CH1 Half Complete Callback ID
1455:Drivers/STM32L4xx_HAL_Driver/Src/stm32l4xx_hal_dac.c ****   *          @arg @ref HAL_DAC_CH1_ERROR_ID             DAC CH1 Error Callback ID
1456:Drivers/STM32L4xx_HAL_Driver/Src/stm32l4xx_hal_dac.c ****   *          @arg @ref HAL_DAC_CH1_UNDERRUN_CB_ID       DAC CH1 UnderRun Callback ID
1457:Drivers/STM32L4xx_HAL_Driver/Src/stm32l4xx_hal_dac.c ****   *          @arg @ref HAL_DAC_CH2_COMPLETE_CB_ID       DAC CH2 Complete Callback ID
1458:Drivers/STM32L4xx_HAL_Driver/Src/stm32l4xx_hal_dac.c ****   *          @arg @ref HAL_DAC_CH2_HALF_COMPLETE_CB_ID  DAC CH2 Half Complete Callback ID
1459:Drivers/STM32L4xx_HAL_Driver/Src/stm32l4xx_hal_dac.c ****   *          @arg @ref HAL_DAC_CH2_ERROR_ID             DAC CH2 Error Callback ID
1460:Drivers/STM32L4xx_HAL_Driver/Src/stm32l4xx_hal_dac.c ****   *          @arg @ref HAL_DAC_CH2_UNDERRUN_CB_ID       DAC CH2 UnderRun Callback ID
1461:Drivers/STM32L4xx_HAL_Driver/Src/stm32l4xx_hal_dac.c ****   *          @arg @ref HAL_DAC_MSPINIT_CB_ID            DAC MSP Init Callback ID
1462:Drivers/STM32L4xx_HAL_Driver/Src/stm32l4xx_hal_dac.c ****   *          @arg @ref HAL_DAC_MSPDEINIT_CB_ID          DAC MSP DeInit Callback ID
1463:Drivers/STM32L4xx_HAL_Driver/Src/stm32l4xx_hal_dac.c ****   *
1464:Drivers/STM32L4xx_HAL_Driver/Src/stm32l4xx_hal_dac.c ****   * @param  pCallback pointer to the Callback function
1465:Drivers/STM32L4xx_HAL_Driver/Src/stm32l4xx_hal_dac.c ****   * @retval status
1466:Drivers/STM32L4xx_HAL_Driver/Src/stm32l4xx_hal_dac.c ****   */
ARM GAS  /tmp/cc8wC0d3.s 			page 56


1467:Drivers/STM32L4xx_HAL_Driver/Src/stm32l4xx_hal_dac.c **** HAL_StatusTypeDef HAL_DAC_RegisterCallback(DAC_HandleTypeDef *hdac, HAL_DAC_CallbackIDTypeDef Callb
1468:Drivers/STM32L4xx_HAL_Driver/Src/stm32l4xx_hal_dac.c ****                                            pDAC_CallbackTypeDef pCallback)
1469:Drivers/STM32L4xx_HAL_Driver/Src/stm32l4xx_hal_dac.c **** {
1470:Drivers/STM32L4xx_HAL_Driver/Src/stm32l4xx_hal_dac.c ****   HAL_StatusTypeDef status = HAL_OK;
1471:Drivers/STM32L4xx_HAL_Driver/Src/stm32l4xx_hal_dac.c **** 
1472:Drivers/STM32L4xx_HAL_Driver/Src/stm32l4xx_hal_dac.c ****   if (pCallback == NULL)
1473:Drivers/STM32L4xx_HAL_Driver/Src/stm32l4xx_hal_dac.c ****   {
1474:Drivers/STM32L4xx_HAL_Driver/Src/stm32l4xx_hal_dac.c ****     /* Update the error code */
1475:Drivers/STM32L4xx_HAL_Driver/Src/stm32l4xx_hal_dac.c ****     hdac->ErrorCode |= HAL_DAC_ERROR_INVALID_CALLBACK;
1476:Drivers/STM32L4xx_HAL_Driver/Src/stm32l4xx_hal_dac.c ****     return HAL_ERROR;
1477:Drivers/STM32L4xx_HAL_Driver/Src/stm32l4xx_hal_dac.c ****   }
1478:Drivers/STM32L4xx_HAL_Driver/Src/stm32l4xx_hal_dac.c **** 
1479:Drivers/STM32L4xx_HAL_Driver/Src/stm32l4xx_hal_dac.c ****   /* Process locked */
1480:Drivers/STM32L4xx_HAL_Driver/Src/stm32l4xx_hal_dac.c ****   __HAL_LOCK(hdac);
1481:Drivers/STM32L4xx_HAL_Driver/Src/stm32l4xx_hal_dac.c **** 
1482:Drivers/STM32L4xx_HAL_Driver/Src/stm32l4xx_hal_dac.c ****   if (hdac->State == HAL_DAC_STATE_READY)
1483:Drivers/STM32L4xx_HAL_Driver/Src/stm32l4xx_hal_dac.c ****   {
1484:Drivers/STM32L4xx_HAL_Driver/Src/stm32l4xx_hal_dac.c ****     switch (CallbackID)
1485:Drivers/STM32L4xx_HAL_Driver/Src/stm32l4xx_hal_dac.c ****     {
1486:Drivers/STM32L4xx_HAL_Driver/Src/stm32l4xx_hal_dac.c ****     case HAL_DAC_CH1_COMPLETE_CB_ID :
1487:Drivers/STM32L4xx_HAL_Driver/Src/stm32l4xx_hal_dac.c ****       hdac->ConvCpltCallbackCh1 = pCallback;
1488:Drivers/STM32L4xx_HAL_Driver/Src/stm32l4xx_hal_dac.c ****       break;
1489:Drivers/STM32L4xx_HAL_Driver/Src/stm32l4xx_hal_dac.c ****     case HAL_DAC_CH1_HALF_COMPLETE_CB_ID :
1490:Drivers/STM32L4xx_HAL_Driver/Src/stm32l4xx_hal_dac.c ****       hdac->ConvHalfCpltCallbackCh1 = pCallback;
1491:Drivers/STM32L4xx_HAL_Driver/Src/stm32l4xx_hal_dac.c ****       break;
1492:Drivers/STM32L4xx_HAL_Driver/Src/stm32l4xx_hal_dac.c ****     case HAL_DAC_CH1_ERROR_ID :
1493:Drivers/STM32L4xx_HAL_Driver/Src/stm32l4xx_hal_dac.c ****       hdac->ErrorCallbackCh1 = pCallback;
1494:Drivers/STM32L4xx_HAL_Driver/Src/stm32l4xx_hal_dac.c ****       break;
1495:Drivers/STM32L4xx_HAL_Driver/Src/stm32l4xx_hal_dac.c ****     case HAL_DAC_CH1_UNDERRUN_CB_ID :
1496:Drivers/STM32L4xx_HAL_Driver/Src/stm32l4xx_hal_dac.c ****       hdac->DMAUnderrunCallbackCh1 = pCallback;
1497:Drivers/STM32L4xx_HAL_Driver/Src/stm32l4xx_hal_dac.c ****       break;
1498:Drivers/STM32L4xx_HAL_Driver/Src/stm32l4xx_hal_dac.c ****     case HAL_DAC_CH2_COMPLETE_CB_ID :
1499:Drivers/STM32L4xx_HAL_Driver/Src/stm32l4xx_hal_dac.c ****       hdac->ConvCpltCallbackCh2 = pCallback;
1500:Drivers/STM32L4xx_HAL_Driver/Src/stm32l4xx_hal_dac.c ****       break;
1501:Drivers/STM32L4xx_HAL_Driver/Src/stm32l4xx_hal_dac.c ****     case HAL_DAC_CH2_HALF_COMPLETE_CB_ID :
1502:Drivers/STM32L4xx_HAL_Driver/Src/stm32l4xx_hal_dac.c ****       hdac->ConvHalfCpltCallbackCh2 = pCallback;
1503:Drivers/STM32L4xx_HAL_Driver/Src/stm32l4xx_hal_dac.c ****       break;
1504:Drivers/STM32L4xx_HAL_Driver/Src/stm32l4xx_hal_dac.c ****     case HAL_DAC_CH2_ERROR_ID :
1505:Drivers/STM32L4xx_HAL_Driver/Src/stm32l4xx_hal_dac.c ****       hdac->ErrorCallbackCh2 = pCallback;
1506:Drivers/STM32L4xx_HAL_Driver/Src/stm32l4xx_hal_dac.c ****       break;
1507:Drivers/STM32L4xx_HAL_Driver/Src/stm32l4xx_hal_dac.c ****     case HAL_DAC_CH2_UNDERRUN_CB_ID :
1508:Drivers/STM32L4xx_HAL_Driver/Src/stm32l4xx_hal_dac.c ****       hdac->DMAUnderrunCallbackCh2 = pCallback;
1509:Drivers/STM32L4xx_HAL_Driver/Src/stm32l4xx_hal_dac.c ****       break;
1510:Drivers/STM32L4xx_HAL_Driver/Src/stm32l4xx_hal_dac.c ****     case HAL_DAC_MSPINIT_CB_ID :
1511:Drivers/STM32L4xx_HAL_Driver/Src/stm32l4xx_hal_dac.c ****       hdac->MspInitCallback = pCallback;
1512:Drivers/STM32L4xx_HAL_Driver/Src/stm32l4xx_hal_dac.c ****       break;
1513:Drivers/STM32L4xx_HAL_Driver/Src/stm32l4xx_hal_dac.c ****     case HAL_DAC_MSPDEINIT_CB_ID :
1514:Drivers/STM32L4xx_HAL_Driver/Src/stm32l4xx_hal_dac.c ****       hdac->MspDeInitCallback = pCallback;
1515:Drivers/STM32L4xx_HAL_Driver/Src/stm32l4xx_hal_dac.c ****       break;
1516:Drivers/STM32L4xx_HAL_Driver/Src/stm32l4xx_hal_dac.c ****     default :
1517:Drivers/STM32L4xx_HAL_Driver/Src/stm32l4xx_hal_dac.c ****       /* Update the error code */
1518:Drivers/STM32L4xx_HAL_Driver/Src/stm32l4xx_hal_dac.c ****       hdac->ErrorCode |= HAL_DAC_ERROR_INVALID_CALLBACK;
1519:Drivers/STM32L4xx_HAL_Driver/Src/stm32l4xx_hal_dac.c ****       /* update return status */
1520:Drivers/STM32L4xx_HAL_Driver/Src/stm32l4xx_hal_dac.c ****       status =  HAL_ERROR;
1521:Drivers/STM32L4xx_HAL_Driver/Src/stm32l4xx_hal_dac.c ****       break;
1522:Drivers/STM32L4xx_HAL_Driver/Src/stm32l4xx_hal_dac.c ****     }
1523:Drivers/STM32L4xx_HAL_Driver/Src/stm32l4xx_hal_dac.c ****   }
ARM GAS  /tmp/cc8wC0d3.s 			page 57


1524:Drivers/STM32L4xx_HAL_Driver/Src/stm32l4xx_hal_dac.c ****   else if (hdac->State == HAL_DAC_STATE_RESET)
1525:Drivers/STM32L4xx_HAL_Driver/Src/stm32l4xx_hal_dac.c ****   {
1526:Drivers/STM32L4xx_HAL_Driver/Src/stm32l4xx_hal_dac.c ****     switch (CallbackID)
1527:Drivers/STM32L4xx_HAL_Driver/Src/stm32l4xx_hal_dac.c ****     {
1528:Drivers/STM32L4xx_HAL_Driver/Src/stm32l4xx_hal_dac.c ****     case HAL_DAC_MSPINIT_CB_ID :
1529:Drivers/STM32L4xx_HAL_Driver/Src/stm32l4xx_hal_dac.c ****       hdac->MspInitCallback = pCallback;
1530:Drivers/STM32L4xx_HAL_Driver/Src/stm32l4xx_hal_dac.c ****       break;
1531:Drivers/STM32L4xx_HAL_Driver/Src/stm32l4xx_hal_dac.c ****     case HAL_DAC_MSPDEINIT_CB_ID :
1532:Drivers/STM32L4xx_HAL_Driver/Src/stm32l4xx_hal_dac.c ****       hdac->MspDeInitCallback = pCallback;
1533:Drivers/STM32L4xx_HAL_Driver/Src/stm32l4xx_hal_dac.c ****       break;
1534:Drivers/STM32L4xx_HAL_Driver/Src/stm32l4xx_hal_dac.c ****     default :
1535:Drivers/STM32L4xx_HAL_Driver/Src/stm32l4xx_hal_dac.c ****       /* Update the error code */
1536:Drivers/STM32L4xx_HAL_Driver/Src/stm32l4xx_hal_dac.c ****       hdac->ErrorCode |= HAL_DAC_ERROR_INVALID_CALLBACK;
1537:Drivers/STM32L4xx_HAL_Driver/Src/stm32l4xx_hal_dac.c ****       /* update return status */
1538:Drivers/STM32L4xx_HAL_Driver/Src/stm32l4xx_hal_dac.c ****       status =  HAL_ERROR;
1539:Drivers/STM32L4xx_HAL_Driver/Src/stm32l4xx_hal_dac.c ****       break;
1540:Drivers/STM32L4xx_HAL_Driver/Src/stm32l4xx_hal_dac.c ****     }
1541:Drivers/STM32L4xx_HAL_Driver/Src/stm32l4xx_hal_dac.c ****   }
1542:Drivers/STM32L4xx_HAL_Driver/Src/stm32l4xx_hal_dac.c ****   else
1543:Drivers/STM32L4xx_HAL_Driver/Src/stm32l4xx_hal_dac.c ****   {
1544:Drivers/STM32L4xx_HAL_Driver/Src/stm32l4xx_hal_dac.c ****     /* Update the error code */
1545:Drivers/STM32L4xx_HAL_Driver/Src/stm32l4xx_hal_dac.c ****     hdac->ErrorCode |= HAL_DAC_ERROR_INVALID_CALLBACK;
1546:Drivers/STM32L4xx_HAL_Driver/Src/stm32l4xx_hal_dac.c ****     /* update return status */
1547:Drivers/STM32L4xx_HAL_Driver/Src/stm32l4xx_hal_dac.c ****     status =  HAL_ERROR;
1548:Drivers/STM32L4xx_HAL_Driver/Src/stm32l4xx_hal_dac.c ****   }
1549:Drivers/STM32L4xx_HAL_Driver/Src/stm32l4xx_hal_dac.c **** 
1550:Drivers/STM32L4xx_HAL_Driver/Src/stm32l4xx_hal_dac.c ****   /* Release Lock */
1551:Drivers/STM32L4xx_HAL_Driver/Src/stm32l4xx_hal_dac.c ****   __HAL_UNLOCK(hdac);
1552:Drivers/STM32L4xx_HAL_Driver/Src/stm32l4xx_hal_dac.c ****   return status;
1553:Drivers/STM32L4xx_HAL_Driver/Src/stm32l4xx_hal_dac.c **** }
1554:Drivers/STM32L4xx_HAL_Driver/Src/stm32l4xx_hal_dac.c **** 
1555:Drivers/STM32L4xx_HAL_Driver/Src/stm32l4xx_hal_dac.c **** /**
1556:Drivers/STM32L4xx_HAL_Driver/Src/stm32l4xx_hal_dac.c ****   * @brief  Unregister a User DAC Callback
1557:Drivers/STM32L4xx_HAL_Driver/Src/stm32l4xx_hal_dac.c ****   *         DAC Callback is redirected to the weak (overridden) predefined callback
1558:Drivers/STM32L4xx_HAL_Driver/Src/stm32l4xx_hal_dac.c ****   * @param  hdac DAC handle
1559:Drivers/STM32L4xx_HAL_Driver/Src/stm32l4xx_hal_dac.c ****   * @param  CallbackID ID of the callback to be unregistered
1560:Drivers/STM32L4xx_HAL_Driver/Src/stm32l4xx_hal_dac.c ****   *         This parameter can be one of the following values:
1561:Drivers/STM32L4xx_HAL_Driver/Src/stm32l4xx_hal_dac.c ****   *          @arg @ref HAL_DAC_CH1_COMPLETE_CB_ID          DAC CH1 transfer Complete Callback ID
1562:Drivers/STM32L4xx_HAL_Driver/Src/stm32l4xx_hal_dac.c ****   *          @arg @ref HAL_DAC_CH1_HALF_COMPLETE_CB_ID     DAC CH1 Half Complete Callback ID
1563:Drivers/STM32L4xx_HAL_Driver/Src/stm32l4xx_hal_dac.c ****   *          @arg @ref HAL_DAC_CH1_ERROR_ID                DAC CH1 Error Callback ID
1564:Drivers/STM32L4xx_HAL_Driver/Src/stm32l4xx_hal_dac.c ****   *          @arg @ref HAL_DAC_CH1_UNDERRUN_CB_ID          DAC CH1 UnderRun Callback ID
1565:Drivers/STM32L4xx_HAL_Driver/Src/stm32l4xx_hal_dac.c ****   *          @arg @ref HAL_DAC_CH2_COMPLETE_CB_ID          DAC CH2 Complete Callback ID
1566:Drivers/STM32L4xx_HAL_Driver/Src/stm32l4xx_hal_dac.c ****   *          @arg @ref HAL_DAC_CH2_HALF_COMPLETE_CB_ID     DAC CH2 Half Complete Callback ID
1567:Drivers/STM32L4xx_HAL_Driver/Src/stm32l4xx_hal_dac.c ****   *          @arg @ref HAL_DAC_CH2_ERROR_ID                DAC CH2 Error Callback ID
1568:Drivers/STM32L4xx_HAL_Driver/Src/stm32l4xx_hal_dac.c ****   *          @arg @ref HAL_DAC_CH2_UNDERRUN_CB_ID          DAC CH2 UnderRun Callback ID
1569:Drivers/STM32L4xx_HAL_Driver/Src/stm32l4xx_hal_dac.c ****   *          @arg @ref HAL_DAC_MSPINIT_CB_ID               DAC MSP Init Callback ID
1570:Drivers/STM32L4xx_HAL_Driver/Src/stm32l4xx_hal_dac.c ****   *          @arg @ref HAL_DAC_MSPDEINIT_CB_ID             DAC MSP DeInit Callback ID
1571:Drivers/STM32L4xx_HAL_Driver/Src/stm32l4xx_hal_dac.c ****   *          @arg @ref HAL_DAC_ALL_CB_ID                   DAC All callbacks
1572:Drivers/STM32L4xx_HAL_Driver/Src/stm32l4xx_hal_dac.c ****   * @retval status
1573:Drivers/STM32L4xx_HAL_Driver/Src/stm32l4xx_hal_dac.c ****   */
1574:Drivers/STM32L4xx_HAL_Driver/Src/stm32l4xx_hal_dac.c **** HAL_StatusTypeDef HAL_DAC_UnRegisterCallback(DAC_HandleTypeDef *hdac, HAL_DAC_CallbackIDTypeDef Cal
1575:Drivers/STM32L4xx_HAL_Driver/Src/stm32l4xx_hal_dac.c **** {
1576:Drivers/STM32L4xx_HAL_Driver/Src/stm32l4xx_hal_dac.c ****   HAL_StatusTypeDef status = HAL_OK;
1577:Drivers/STM32L4xx_HAL_Driver/Src/stm32l4xx_hal_dac.c **** 
1578:Drivers/STM32L4xx_HAL_Driver/Src/stm32l4xx_hal_dac.c ****   /* Process locked */
1579:Drivers/STM32L4xx_HAL_Driver/Src/stm32l4xx_hal_dac.c ****   __HAL_LOCK(hdac);
1580:Drivers/STM32L4xx_HAL_Driver/Src/stm32l4xx_hal_dac.c **** 
ARM GAS  /tmp/cc8wC0d3.s 			page 58


1581:Drivers/STM32L4xx_HAL_Driver/Src/stm32l4xx_hal_dac.c ****   if (hdac->State == HAL_DAC_STATE_READY)
1582:Drivers/STM32L4xx_HAL_Driver/Src/stm32l4xx_hal_dac.c ****   {
1583:Drivers/STM32L4xx_HAL_Driver/Src/stm32l4xx_hal_dac.c ****     switch (CallbackID)
1584:Drivers/STM32L4xx_HAL_Driver/Src/stm32l4xx_hal_dac.c ****     {
1585:Drivers/STM32L4xx_HAL_Driver/Src/stm32l4xx_hal_dac.c ****     case HAL_DAC_CH1_COMPLETE_CB_ID :
1586:Drivers/STM32L4xx_HAL_Driver/Src/stm32l4xx_hal_dac.c ****       hdac->ConvCpltCallbackCh1 = HAL_DAC_ConvCpltCallbackCh1;
1587:Drivers/STM32L4xx_HAL_Driver/Src/stm32l4xx_hal_dac.c ****       break;
1588:Drivers/STM32L4xx_HAL_Driver/Src/stm32l4xx_hal_dac.c ****     case HAL_DAC_CH1_HALF_COMPLETE_CB_ID :
1589:Drivers/STM32L4xx_HAL_Driver/Src/stm32l4xx_hal_dac.c ****       hdac->ConvHalfCpltCallbackCh1 = HAL_DAC_ConvHalfCpltCallbackCh1;
1590:Drivers/STM32L4xx_HAL_Driver/Src/stm32l4xx_hal_dac.c ****       break;
1591:Drivers/STM32L4xx_HAL_Driver/Src/stm32l4xx_hal_dac.c ****     case HAL_DAC_CH1_ERROR_ID :
1592:Drivers/STM32L4xx_HAL_Driver/Src/stm32l4xx_hal_dac.c ****       hdac->ErrorCallbackCh1 = HAL_DAC_ErrorCallbackCh1;
1593:Drivers/STM32L4xx_HAL_Driver/Src/stm32l4xx_hal_dac.c ****       break;
1594:Drivers/STM32L4xx_HAL_Driver/Src/stm32l4xx_hal_dac.c ****     case HAL_DAC_CH1_UNDERRUN_CB_ID :
1595:Drivers/STM32L4xx_HAL_Driver/Src/stm32l4xx_hal_dac.c ****       hdac->DMAUnderrunCallbackCh1 = HAL_DAC_DMAUnderrunCallbackCh1;
1596:Drivers/STM32L4xx_HAL_Driver/Src/stm32l4xx_hal_dac.c ****       break;
1597:Drivers/STM32L4xx_HAL_Driver/Src/stm32l4xx_hal_dac.c **** #if defined (STM32L431xx) || defined (STM32L432xx) || defined (STM32L433xx) || defined (STM32L442xx
1598:Drivers/STM32L4xx_HAL_Driver/Src/stm32l4xx_hal_dac.c ****     defined (STM32L471xx) || defined (STM32L475xx) || defined (STM32L476xx) || defined (STM32L485xx
1599:Drivers/STM32L4xx_HAL_Driver/Src/stm32l4xx_hal_dac.c ****     defined (STM32L4P5xx) || defined (STM32L4Q5xx) || \
1600:Drivers/STM32L4xx_HAL_Driver/Src/stm32l4xx_hal_dac.c ****     defined (STM32L4R5xx) || defined (STM32L4R7xx) || defined (STM32L4R9xx) || defined (STM32L4S5xx
1601:Drivers/STM32L4xx_HAL_Driver/Src/stm32l4xx_hal_dac.c ****     case HAL_DAC_CH2_COMPLETE_CB_ID :
1602:Drivers/STM32L4xx_HAL_Driver/Src/stm32l4xx_hal_dac.c ****       hdac->ConvCpltCallbackCh2 = HAL_DACEx_ConvCpltCallbackCh2;
1603:Drivers/STM32L4xx_HAL_Driver/Src/stm32l4xx_hal_dac.c ****       break;
1604:Drivers/STM32L4xx_HAL_Driver/Src/stm32l4xx_hal_dac.c ****     case HAL_DAC_CH2_HALF_COMPLETE_CB_ID :
1605:Drivers/STM32L4xx_HAL_Driver/Src/stm32l4xx_hal_dac.c ****       hdac->ConvHalfCpltCallbackCh2 = HAL_DACEx_ConvHalfCpltCallbackCh2;
1606:Drivers/STM32L4xx_HAL_Driver/Src/stm32l4xx_hal_dac.c ****       break;
1607:Drivers/STM32L4xx_HAL_Driver/Src/stm32l4xx_hal_dac.c ****     case HAL_DAC_CH2_ERROR_ID :
1608:Drivers/STM32L4xx_HAL_Driver/Src/stm32l4xx_hal_dac.c ****       hdac->ErrorCallbackCh2 = HAL_DACEx_ErrorCallbackCh2;
1609:Drivers/STM32L4xx_HAL_Driver/Src/stm32l4xx_hal_dac.c ****       break;
1610:Drivers/STM32L4xx_HAL_Driver/Src/stm32l4xx_hal_dac.c ****     case HAL_DAC_CH2_UNDERRUN_CB_ID :
1611:Drivers/STM32L4xx_HAL_Driver/Src/stm32l4xx_hal_dac.c ****       hdac->DMAUnderrunCallbackCh2 = HAL_DACEx_DMAUnderrunCallbackCh2;
1612:Drivers/STM32L4xx_HAL_Driver/Src/stm32l4xx_hal_dac.c ****       break;
1613:Drivers/STM32L4xx_HAL_Driver/Src/stm32l4xx_hal_dac.c **** #endif  /* STM32L431xx STM32L432xx STM32L433xx STM32L442xx STM32L443xx                         */
1614:Drivers/STM32L4xx_HAL_Driver/Src/stm32l4xx_hal_dac.c ****         /* STM32L471xx STM32L475xx STM32L476xx STM32L485xx STM32L486xx STM32L496xx STM32L4A6xx */
1615:Drivers/STM32L4xx_HAL_Driver/Src/stm32l4xx_hal_dac.c ****         /* STM32L4P5xx STM32L4Q5xx                                                             */
1616:Drivers/STM32L4xx_HAL_Driver/Src/stm32l4xx_hal_dac.c ****         /* STM32L4R5xx STM32L4R7xx STM32L4R9xx STM32L4S5xx STM32L4S7xx STM32L4S9xx             */
1617:Drivers/STM32L4xx_HAL_Driver/Src/stm32l4xx_hal_dac.c ****     case HAL_DAC_MSPINIT_CB_ID :
1618:Drivers/STM32L4xx_HAL_Driver/Src/stm32l4xx_hal_dac.c ****       hdac->MspInitCallback = HAL_DAC_MspInit;
1619:Drivers/STM32L4xx_HAL_Driver/Src/stm32l4xx_hal_dac.c ****       break;
1620:Drivers/STM32L4xx_HAL_Driver/Src/stm32l4xx_hal_dac.c ****     case HAL_DAC_MSPDEINIT_CB_ID :
1621:Drivers/STM32L4xx_HAL_Driver/Src/stm32l4xx_hal_dac.c ****       hdac->MspDeInitCallback = HAL_DAC_MspDeInit;
1622:Drivers/STM32L4xx_HAL_Driver/Src/stm32l4xx_hal_dac.c ****       break;
1623:Drivers/STM32L4xx_HAL_Driver/Src/stm32l4xx_hal_dac.c ****     case HAL_DAC_ALL_CB_ID :
1624:Drivers/STM32L4xx_HAL_Driver/Src/stm32l4xx_hal_dac.c ****       hdac->ConvCpltCallbackCh1 = HAL_DAC_ConvCpltCallbackCh1;
1625:Drivers/STM32L4xx_HAL_Driver/Src/stm32l4xx_hal_dac.c ****       hdac->ConvHalfCpltCallbackCh1 = HAL_DAC_ConvHalfCpltCallbackCh1;
1626:Drivers/STM32L4xx_HAL_Driver/Src/stm32l4xx_hal_dac.c ****       hdac->ErrorCallbackCh1 = HAL_DAC_ErrorCallbackCh1;
1627:Drivers/STM32L4xx_HAL_Driver/Src/stm32l4xx_hal_dac.c ****       hdac->DMAUnderrunCallbackCh1 = HAL_DAC_DMAUnderrunCallbackCh1;
1628:Drivers/STM32L4xx_HAL_Driver/Src/stm32l4xx_hal_dac.c **** #if defined (STM32L431xx) || defined (STM32L432xx) || defined (STM32L433xx) || defined (STM32L442xx
1629:Drivers/STM32L4xx_HAL_Driver/Src/stm32l4xx_hal_dac.c ****     defined (STM32L471xx) || defined (STM32L475xx) || defined (STM32L476xx) || defined (STM32L485xx
1630:Drivers/STM32L4xx_HAL_Driver/Src/stm32l4xx_hal_dac.c ****     defined (STM32L4P5xx) || defined (STM32L4Q5xx) || \
1631:Drivers/STM32L4xx_HAL_Driver/Src/stm32l4xx_hal_dac.c ****     defined (STM32L4R5xx) || defined (STM32L4R7xx) || defined (STM32L4R9xx) || defined (STM32L4S5xx
1632:Drivers/STM32L4xx_HAL_Driver/Src/stm32l4xx_hal_dac.c ****       hdac->ConvCpltCallbackCh2 = HAL_DACEx_ConvCpltCallbackCh2;
1633:Drivers/STM32L4xx_HAL_Driver/Src/stm32l4xx_hal_dac.c ****       hdac->ConvHalfCpltCallbackCh2 = HAL_DACEx_ConvHalfCpltCallbackCh2;
1634:Drivers/STM32L4xx_HAL_Driver/Src/stm32l4xx_hal_dac.c ****       hdac->ErrorCallbackCh2 = HAL_DACEx_ErrorCallbackCh2;
1635:Drivers/STM32L4xx_HAL_Driver/Src/stm32l4xx_hal_dac.c ****       hdac->DMAUnderrunCallbackCh2 = HAL_DACEx_DMAUnderrunCallbackCh2;
1636:Drivers/STM32L4xx_HAL_Driver/Src/stm32l4xx_hal_dac.c **** #endif  /* STM32L431xx STM32L432xx STM32L433xx STM32L442xx STM32L443xx                         */
1637:Drivers/STM32L4xx_HAL_Driver/Src/stm32l4xx_hal_dac.c ****         /* STM32L471xx STM32L475xx STM32L476xx STM32L485xx STM32L486xx STM32L496xx STM32L4A6xx */
ARM GAS  /tmp/cc8wC0d3.s 			page 59


1638:Drivers/STM32L4xx_HAL_Driver/Src/stm32l4xx_hal_dac.c ****         /* STM32L4P5xx STM32L4Q5xx                                                             */
1639:Drivers/STM32L4xx_HAL_Driver/Src/stm32l4xx_hal_dac.c ****         /* STM32L4R5xx STM32L4R7xx STM32L4R9xx STM32L4S5xx STM32L4S7xx STM32L4S9xx             */
1640:Drivers/STM32L4xx_HAL_Driver/Src/stm32l4xx_hal_dac.c ****       hdac->MspInitCallback = HAL_DAC_MspInit;
1641:Drivers/STM32L4xx_HAL_Driver/Src/stm32l4xx_hal_dac.c ****       hdac->MspDeInitCallback = HAL_DAC_MspDeInit;
1642:Drivers/STM32L4xx_HAL_Driver/Src/stm32l4xx_hal_dac.c ****       break;
1643:Drivers/STM32L4xx_HAL_Driver/Src/stm32l4xx_hal_dac.c ****     default :
1644:Drivers/STM32L4xx_HAL_Driver/Src/stm32l4xx_hal_dac.c ****       /* Update the error code */
1645:Drivers/STM32L4xx_HAL_Driver/Src/stm32l4xx_hal_dac.c ****       hdac->ErrorCode |= HAL_DAC_ERROR_INVALID_CALLBACK;
1646:Drivers/STM32L4xx_HAL_Driver/Src/stm32l4xx_hal_dac.c ****       /* update return status */
1647:Drivers/STM32L4xx_HAL_Driver/Src/stm32l4xx_hal_dac.c ****       status =  HAL_ERROR;
1648:Drivers/STM32L4xx_HAL_Driver/Src/stm32l4xx_hal_dac.c ****       break;
1649:Drivers/STM32L4xx_HAL_Driver/Src/stm32l4xx_hal_dac.c ****     }
1650:Drivers/STM32L4xx_HAL_Driver/Src/stm32l4xx_hal_dac.c ****   }
1651:Drivers/STM32L4xx_HAL_Driver/Src/stm32l4xx_hal_dac.c ****   else if (hdac->State == HAL_DAC_STATE_RESET)
1652:Drivers/STM32L4xx_HAL_Driver/Src/stm32l4xx_hal_dac.c ****   {
1653:Drivers/STM32L4xx_HAL_Driver/Src/stm32l4xx_hal_dac.c ****     switch (CallbackID)
1654:Drivers/STM32L4xx_HAL_Driver/Src/stm32l4xx_hal_dac.c ****     {
1655:Drivers/STM32L4xx_HAL_Driver/Src/stm32l4xx_hal_dac.c ****     case HAL_DAC_MSPINIT_CB_ID :
1656:Drivers/STM32L4xx_HAL_Driver/Src/stm32l4xx_hal_dac.c ****       hdac->MspInitCallback = HAL_DAC_MspInit;
1657:Drivers/STM32L4xx_HAL_Driver/Src/stm32l4xx_hal_dac.c ****       break;
1658:Drivers/STM32L4xx_HAL_Driver/Src/stm32l4xx_hal_dac.c ****     case HAL_DAC_MSPDEINIT_CB_ID :
1659:Drivers/STM32L4xx_HAL_Driver/Src/stm32l4xx_hal_dac.c ****       hdac->MspDeInitCallback = HAL_DAC_MspDeInit;
1660:Drivers/STM32L4xx_HAL_Driver/Src/stm32l4xx_hal_dac.c ****       break;
1661:Drivers/STM32L4xx_HAL_Driver/Src/stm32l4xx_hal_dac.c ****     default :
1662:Drivers/STM32L4xx_HAL_Driver/Src/stm32l4xx_hal_dac.c ****       /* Update the error code */
1663:Drivers/STM32L4xx_HAL_Driver/Src/stm32l4xx_hal_dac.c ****       hdac->ErrorCode |= HAL_DAC_ERROR_INVALID_CALLBACK;
1664:Drivers/STM32L4xx_HAL_Driver/Src/stm32l4xx_hal_dac.c ****       /* update return status */
1665:Drivers/STM32L4xx_HAL_Driver/Src/stm32l4xx_hal_dac.c ****       status =  HAL_ERROR;
1666:Drivers/STM32L4xx_HAL_Driver/Src/stm32l4xx_hal_dac.c ****       break;
1667:Drivers/STM32L4xx_HAL_Driver/Src/stm32l4xx_hal_dac.c ****     }
1668:Drivers/STM32L4xx_HAL_Driver/Src/stm32l4xx_hal_dac.c ****   }
1669:Drivers/STM32L4xx_HAL_Driver/Src/stm32l4xx_hal_dac.c ****   else
1670:Drivers/STM32L4xx_HAL_Driver/Src/stm32l4xx_hal_dac.c ****   {
1671:Drivers/STM32L4xx_HAL_Driver/Src/stm32l4xx_hal_dac.c ****     /* Update the error code */
1672:Drivers/STM32L4xx_HAL_Driver/Src/stm32l4xx_hal_dac.c ****     hdac->ErrorCode |= HAL_DAC_ERROR_INVALID_CALLBACK;
1673:Drivers/STM32L4xx_HAL_Driver/Src/stm32l4xx_hal_dac.c ****     /* update return status */
1674:Drivers/STM32L4xx_HAL_Driver/Src/stm32l4xx_hal_dac.c ****     status =  HAL_ERROR;
1675:Drivers/STM32L4xx_HAL_Driver/Src/stm32l4xx_hal_dac.c ****   }
1676:Drivers/STM32L4xx_HAL_Driver/Src/stm32l4xx_hal_dac.c **** 
1677:Drivers/STM32L4xx_HAL_Driver/Src/stm32l4xx_hal_dac.c ****   /* Release Lock */
1678:Drivers/STM32L4xx_HAL_Driver/Src/stm32l4xx_hal_dac.c ****   __HAL_UNLOCK(hdac);
1679:Drivers/STM32L4xx_HAL_Driver/Src/stm32l4xx_hal_dac.c ****   return status;
1680:Drivers/STM32L4xx_HAL_Driver/Src/stm32l4xx_hal_dac.c **** }
1681:Drivers/STM32L4xx_HAL_Driver/Src/stm32l4xx_hal_dac.c **** #endif /* USE_HAL_DAC_REGISTER_CALLBACKS */
1682:Drivers/STM32L4xx_HAL_Driver/Src/stm32l4xx_hal_dac.c **** 
1683:Drivers/STM32L4xx_HAL_Driver/Src/stm32l4xx_hal_dac.c **** /**
1684:Drivers/STM32L4xx_HAL_Driver/Src/stm32l4xx_hal_dac.c ****   * @}
1685:Drivers/STM32L4xx_HAL_Driver/Src/stm32l4xx_hal_dac.c ****   */
1686:Drivers/STM32L4xx_HAL_Driver/Src/stm32l4xx_hal_dac.c **** 
1687:Drivers/STM32L4xx_HAL_Driver/Src/stm32l4xx_hal_dac.c **** /**
1688:Drivers/STM32L4xx_HAL_Driver/Src/stm32l4xx_hal_dac.c ****   * @}
1689:Drivers/STM32L4xx_HAL_Driver/Src/stm32l4xx_hal_dac.c ****   */
1690:Drivers/STM32L4xx_HAL_Driver/Src/stm32l4xx_hal_dac.c **** 
1691:Drivers/STM32L4xx_HAL_Driver/Src/stm32l4xx_hal_dac.c **** /** @addtogroup DAC_Private_Functions
1692:Drivers/STM32L4xx_HAL_Driver/Src/stm32l4xx_hal_dac.c ****   * @{
1693:Drivers/STM32L4xx_HAL_Driver/Src/stm32l4xx_hal_dac.c ****   */
1694:Drivers/STM32L4xx_HAL_Driver/Src/stm32l4xx_hal_dac.c **** 
ARM GAS  /tmp/cc8wC0d3.s 			page 60


1695:Drivers/STM32L4xx_HAL_Driver/Src/stm32l4xx_hal_dac.c **** /**
1696:Drivers/STM32L4xx_HAL_Driver/Src/stm32l4xx_hal_dac.c ****   * @brief  DMA conversion complete callback.
1697:Drivers/STM32L4xx_HAL_Driver/Src/stm32l4xx_hal_dac.c ****   * @param  hdma pointer to a DMA_HandleTypeDef structure that contains
1698:Drivers/STM32L4xx_HAL_Driver/Src/stm32l4xx_hal_dac.c ****   *                the configuration information for the specified DMA module.
1699:Drivers/STM32L4xx_HAL_Driver/Src/stm32l4xx_hal_dac.c ****   * @retval None
1700:Drivers/STM32L4xx_HAL_Driver/Src/stm32l4xx_hal_dac.c ****   */
1701:Drivers/STM32L4xx_HAL_Driver/Src/stm32l4xx_hal_dac.c **** void DAC_DMAConvCpltCh1(DMA_HandleTypeDef *hdma)
1702:Drivers/STM32L4xx_HAL_Driver/Src/stm32l4xx_hal_dac.c **** {
 1676              		.loc 1 1702 1
 1677              		.cfi_startproc
 1678              		@ args = 0, pretend = 0, frame = 16
 1679              		@ frame_needed = 1, uses_anonymous_args = 0
 1680 0000 80B5     		push	{r7, lr}
 1681              		.cfi_def_cfa_offset 8
 1682              		.cfi_offset 7, -8
 1683              		.cfi_offset 14, -4
 1684 0002 84B0     		sub	sp, sp, #16
 1685              		.cfi_def_cfa_offset 24
 1686 0004 00AF     		add	r7, sp, #0
 1687              		.cfi_def_cfa_register 7
 1688 0006 7860     		str	r0, [r7, #4]
1703:Drivers/STM32L4xx_HAL_Driver/Src/stm32l4xx_hal_dac.c ****   DAC_HandleTypeDef *hdac = (DAC_HandleTypeDef *)((DMA_HandleTypeDef *)hdma)->Parent;
 1689              		.loc 1 1703 22
 1690 0008 7B68     		ldr	r3, [r7, #4]
 1691 000a 9B6A     		ldr	r3, [r3, #40]
 1692 000c FB60     		str	r3, [r7, #12]
1704:Drivers/STM32L4xx_HAL_Driver/Src/stm32l4xx_hal_dac.c **** 
1705:Drivers/STM32L4xx_HAL_Driver/Src/stm32l4xx_hal_dac.c **** #if (USE_HAL_DAC_REGISTER_CALLBACKS == 1)
1706:Drivers/STM32L4xx_HAL_Driver/Src/stm32l4xx_hal_dac.c ****   hdac->ConvCpltCallbackCh1(hdac);
1707:Drivers/STM32L4xx_HAL_Driver/Src/stm32l4xx_hal_dac.c **** #else
1708:Drivers/STM32L4xx_HAL_Driver/Src/stm32l4xx_hal_dac.c ****   HAL_DAC_ConvCpltCallbackCh1(hdac);
 1693              		.loc 1 1708 3
 1694 000e F868     		ldr	r0, [r7, #12]
 1695 0010 FFF7FEFF 		bl	HAL_DAC_ConvCpltCallbackCh1
1709:Drivers/STM32L4xx_HAL_Driver/Src/stm32l4xx_hal_dac.c **** #endif /* USE_HAL_DAC_REGISTER_CALLBACKS */
1710:Drivers/STM32L4xx_HAL_Driver/Src/stm32l4xx_hal_dac.c **** 
1711:Drivers/STM32L4xx_HAL_Driver/Src/stm32l4xx_hal_dac.c ****   hdac->State = HAL_DAC_STATE_READY;
 1696              		.loc 1 1711 15
 1697 0014 FB68     		ldr	r3, [r7, #12]
 1698 0016 0122     		movs	r2, #1
 1699 0018 1A71     		strb	r2, [r3, #4]
1712:Drivers/STM32L4xx_HAL_Driver/Src/stm32l4xx_hal_dac.c **** }
 1700              		.loc 1 1712 1
 1701 001a 00BF     		nop
 1702 001c 1037     		adds	r7, r7, #16
 1703              		.cfi_def_cfa_offset 8
 1704 001e BD46     		mov	sp, r7
 1705              		.cfi_def_cfa_register 13
 1706              		@ sp needed
 1707 0020 80BD     		pop	{r7, pc}
 1708              		.cfi_endproc
 1709              	.LFE463:
 1711              		.section	.text.DAC_DMAHalfConvCpltCh1,"ax",%progbits
 1712              		.align	1
 1713              		.global	DAC_DMAHalfConvCpltCh1
 1714              		.syntax unified
 1715              		.thumb
ARM GAS  /tmp/cc8wC0d3.s 			page 61


 1716              		.thumb_func
 1718              	DAC_DMAHalfConvCpltCh1:
 1719              	.LFB464:
1713:Drivers/STM32L4xx_HAL_Driver/Src/stm32l4xx_hal_dac.c **** 
1714:Drivers/STM32L4xx_HAL_Driver/Src/stm32l4xx_hal_dac.c **** /**
1715:Drivers/STM32L4xx_HAL_Driver/Src/stm32l4xx_hal_dac.c ****   * @brief  DMA half transfer complete callback.
1716:Drivers/STM32L4xx_HAL_Driver/Src/stm32l4xx_hal_dac.c ****   * @param  hdma pointer to a DMA_HandleTypeDef structure that contains
1717:Drivers/STM32L4xx_HAL_Driver/Src/stm32l4xx_hal_dac.c ****   *                the configuration information for the specified DMA module.
1718:Drivers/STM32L4xx_HAL_Driver/Src/stm32l4xx_hal_dac.c ****   * @retval None
1719:Drivers/STM32L4xx_HAL_Driver/Src/stm32l4xx_hal_dac.c ****   */
1720:Drivers/STM32L4xx_HAL_Driver/Src/stm32l4xx_hal_dac.c **** void DAC_DMAHalfConvCpltCh1(DMA_HandleTypeDef *hdma)
1721:Drivers/STM32L4xx_HAL_Driver/Src/stm32l4xx_hal_dac.c **** {
 1720              		.loc 1 1721 1
 1721              		.cfi_startproc
 1722              		@ args = 0, pretend = 0, frame = 16
 1723              		@ frame_needed = 1, uses_anonymous_args = 0
 1724 0000 80B5     		push	{r7, lr}
 1725              		.cfi_def_cfa_offset 8
 1726              		.cfi_offset 7, -8
 1727              		.cfi_offset 14, -4
 1728 0002 84B0     		sub	sp, sp, #16
 1729              		.cfi_def_cfa_offset 24
 1730 0004 00AF     		add	r7, sp, #0
 1731              		.cfi_def_cfa_register 7
 1732 0006 7860     		str	r0, [r7, #4]
1722:Drivers/STM32L4xx_HAL_Driver/Src/stm32l4xx_hal_dac.c ****   DAC_HandleTypeDef *hdac = (DAC_HandleTypeDef *)((DMA_HandleTypeDef *)hdma)->Parent;
 1733              		.loc 1 1722 22
 1734 0008 7B68     		ldr	r3, [r7, #4]
 1735 000a 9B6A     		ldr	r3, [r3, #40]
 1736 000c FB60     		str	r3, [r7, #12]
1723:Drivers/STM32L4xx_HAL_Driver/Src/stm32l4xx_hal_dac.c ****   /* Conversion complete callback */
1724:Drivers/STM32L4xx_HAL_Driver/Src/stm32l4xx_hal_dac.c **** #if (USE_HAL_DAC_REGISTER_CALLBACKS == 1)
1725:Drivers/STM32L4xx_HAL_Driver/Src/stm32l4xx_hal_dac.c ****   hdac->ConvHalfCpltCallbackCh1(hdac);
1726:Drivers/STM32L4xx_HAL_Driver/Src/stm32l4xx_hal_dac.c **** #else
1727:Drivers/STM32L4xx_HAL_Driver/Src/stm32l4xx_hal_dac.c ****   HAL_DAC_ConvHalfCpltCallbackCh1(hdac);
 1737              		.loc 1 1727 3
 1738 000e F868     		ldr	r0, [r7, #12]
 1739 0010 FFF7FEFF 		bl	HAL_DAC_ConvHalfCpltCallbackCh1
1728:Drivers/STM32L4xx_HAL_Driver/Src/stm32l4xx_hal_dac.c **** #endif  /* USE_HAL_DAC_REGISTER_CALLBACKS */
1729:Drivers/STM32L4xx_HAL_Driver/Src/stm32l4xx_hal_dac.c **** }
 1740              		.loc 1 1729 1
 1741 0014 00BF     		nop
 1742 0016 1037     		adds	r7, r7, #16
 1743              		.cfi_def_cfa_offset 8
 1744 0018 BD46     		mov	sp, r7
 1745              		.cfi_def_cfa_register 13
 1746              		@ sp needed
 1747 001a 80BD     		pop	{r7, pc}
 1748              		.cfi_endproc
 1749              	.LFE464:
 1751              		.section	.text.DAC_DMAErrorCh1,"ax",%progbits
 1752              		.align	1
 1753              		.global	DAC_DMAErrorCh1
 1754              		.syntax unified
 1755              		.thumb
 1756              		.thumb_func
 1758              	DAC_DMAErrorCh1:
ARM GAS  /tmp/cc8wC0d3.s 			page 62


 1759              	.LFB465:
1730:Drivers/STM32L4xx_HAL_Driver/Src/stm32l4xx_hal_dac.c **** 
1731:Drivers/STM32L4xx_HAL_Driver/Src/stm32l4xx_hal_dac.c **** /**
1732:Drivers/STM32L4xx_HAL_Driver/Src/stm32l4xx_hal_dac.c ****   * @brief  DMA error callback
1733:Drivers/STM32L4xx_HAL_Driver/Src/stm32l4xx_hal_dac.c ****   * @param  hdma pointer to a DMA_HandleTypeDef structure that contains
1734:Drivers/STM32L4xx_HAL_Driver/Src/stm32l4xx_hal_dac.c ****   *                the configuration information for the specified DMA module.
1735:Drivers/STM32L4xx_HAL_Driver/Src/stm32l4xx_hal_dac.c ****   * @retval None
1736:Drivers/STM32L4xx_HAL_Driver/Src/stm32l4xx_hal_dac.c ****   */
1737:Drivers/STM32L4xx_HAL_Driver/Src/stm32l4xx_hal_dac.c **** void DAC_DMAErrorCh1(DMA_HandleTypeDef *hdma)
1738:Drivers/STM32L4xx_HAL_Driver/Src/stm32l4xx_hal_dac.c **** {
 1760              		.loc 1 1738 1
 1761              		.cfi_startproc
 1762              		@ args = 0, pretend = 0, frame = 16
 1763              		@ frame_needed = 1, uses_anonymous_args = 0
 1764 0000 80B5     		push	{r7, lr}
 1765              		.cfi_def_cfa_offset 8
 1766              		.cfi_offset 7, -8
 1767              		.cfi_offset 14, -4
 1768 0002 84B0     		sub	sp, sp, #16
 1769              		.cfi_def_cfa_offset 24
 1770 0004 00AF     		add	r7, sp, #0
 1771              		.cfi_def_cfa_register 7
 1772 0006 7860     		str	r0, [r7, #4]
1739:Drivers/STM32L4xx_HAL_Driver/Src/stm32l4xx_hal_dac.c ****   DAC_HandleTypeDef *hdac = (DAC_HandleTypeDef *)((DMA_HandleTypeDef *)hdma)->Parent;
 1773              		.loc 1 1739 22
 1774 0008 7B68     		ldr	r3, [r7, #4]
 1775 000a 9B6A     		ldr	r3, [r3, #40]
 1776 000c FB60     		str	r3, [r7, #12]
1740:Drivers/STM32L4xx_HAL_Driver/Src/stm32l4xx_hal_dac.c **** 
1741:Drivers/STM32L4xx_HAL_Driver/Src/stm32l4xx_hal_dac.c ****   /* Set DAC error code to DMA error */
1742:Drivers/STM32L4xx_HAL_Driver/Src/stm32l4xx_hal_dac.c ****   hdac->ErrorCode |= HAL_DAC_ERROR_DMA;
 1777              		.loc 1 1742 7
 1778 000e FB68     		ldr	r3, [r7, #12]
 1779 0010 1B69     		ldr	r3, [r3, #16]
 1780              		.loc 1 1742 19
 1781 0012 43F00402 		orr	r2, r3, #4
 1782 0016 FB68     		ldr	r3, [r7, #12]
 1783 0018 1A61     		str	r2, [r3, #16]
1743:Drivers/STM32L4xx_HAL_Driver/Src/stm32l4xx_hal_dac.c **** 
1744:Drivers/STM32L4xx_HAL_Driver/Src/stm32l4xx_hal_dac.c **** #if (USE_HAL_DAC_REGISTER_CALLBACKS == 1)
1745:Drivers/STM32L4xx_HAL_Driver/Src/stm32l4xx_hal_dac.c ****   hdac->ErrorCallbackCh1(hdac);
1746:Drivers/STM32L4xx_HAL_Driver/Src/stm32l4xx_hal_dac.c **** #else
1747:Drivers/STM32L4xx_HAL_Driver/Src/stm32l4xx_hal_dac.c ****   HAL_DAC_ErrorCallbackCh1(hdac);
 1784              		.loc 1 1747 3
 1785 001a F868     		ldr	r0, [r7, #12]
 1786 001c FFF7FEFF 		bl	HAL_DAC_ErrorCallbackCh1
1748:Drivers/STM32L4xx_HAL_Driver/Src/stm32l4xx_hal_dac.c **** #endif /* USE_HAL_DAC_REGISTER_CALLBACKS */
1749:Drivers/STM32L4xx_HAL_Driver/Src/stm32l4xx_hal_dac.c **** 
1750:Drivers/STM32L4xx_HAL_Driver/Src/stm32l4xx_hal_dac.c ****   hdac->State = HAL_DAC_STATE_READY;
 1787              		.loc 1 1750 15
 1788 0020 FB68     		ldr	r3, [r7, #12]
 1789 0022 0122     		movs	r2, #1
 1790 0024 1A71     		strb	r2, [r3, #4]
1751:Drivers/STM32L4xx_HAL_Driver/Src/stm32l4xx_hal_dac.c **** }
 1791              		.loc 1 1751 1
 1792 0026 00BF     		nop
 1793 0028 1037     		adds	r7, r7, #16
ARM GAS  /tmp/cc8wC0d3.s 			page 63


 1794              		.cfi_def_cfa_offset 8
 1795 002a BD46     		mov	sp, r7
 1796              		.cfi_def_cfa_register 13
 1797              		@ sp needed
 1798 002c 80BD     		pop	{r7, pc}
 1799              		.cfi_endproc
 1800              	.LFE465:
 1802              		.text
 1803              	.Letext0:
 1804              		.file 2 "/usr/lib/gcc/arm-none-eabi/13.2.1/include/stdint.h"
 1805              		.file 3 "Drivers/CMSIS/Device/ST/STM32L4xx/Include/stm32l475xx.h"
 1806              		.file 4 "Drivers/STM32L4xx_HAL_Driver/Inc/stm32l4xx_hal_def.h"
 1807              		.file 5 "Drivers/STM32L4xx_HAL_Driver/Inc/stm32l4xx_hal_dma.h"
 1808              		.file 6 "Drivers/STM32L4xx_HAL_Driver/Inc/stm32l4xx_hal_dac.h"
 1809              		.file 7 "Drivers/STM32L4xx_HAL_Driver/Inc/stm32l4xx_hal.h"
 1810              		.file 8 "Drivers/STM32L4xx_HAL_Driver/Inc/stm32l4xx_hal_dac_ex.h"
 1811              		.file 9 "Drivers/STM32L4xx_HAL_Driver/Inc/stm32l4xx_ll_dma.h"
ARM GAS  /tmp/cc8wC0d3.s 			page 64

