ARM GAS  /tmp/cchDTGWe.s 			page 1


   1              		.cpu cortex-m4
   2              		.arch armv7e-m
   3              		.fpu fpv4-sp-d16
   4              		.eabi_attribute 27, 1
   5              		.eabi_attribute 28, 1
   6              		.eabi_attribute 20, 1
   7              		.eabi_attribute 21, 1
   8              		.eabi_attribute 23, 3
   9              		.eabi_attribute 24, 1
  10              		.eabi_attribute 25, 1
  11              		.eabi_attribute 26, 1
  12              		.eabi_attribute 30, 6
  13              		.eabi_attribute 34, 1
  14              		.eabi_attribute 18, 4
  15              		.file	"stm32l4xx_hal_rtc_ex.c"
  16              		.text
  17              	.Ltext0:
  18              		.cfi_sections	.debug_frame
  19              		.file 1 "Drivers/STM32L4xx_HAL_Driver/Src/stm32l4xx_hal_rtc_ex.c"
  20              		.section	.rodata.CHANNEL_OFFSET_TAB,"a"
  21              		.align	2
  24              	CHANNEL_OFFSET_TAB:
  25 0000 081C3044 		.ascii	"\010\0340DXl\200"
  25      586C80
  26              		.section	.text.HAL_RTCEx_SetTimeStamp,"ax",%progbits
  27              		.align	1
  28              		.global	HAL_RTCEx_SetTimeStamp
  29              		.syntax unified
  30              		.thumb
  31              		.thumb_func
  33              	HAL_RTCEx_SetTimeStamp:
  34              	.LFB445:
   1:Drivers/STM32L4xx_HAL_Driver/Src/stm32l4xx_hal_rtc_ex.c **** /**
   2:Drivers/STM32L4xx_HAL_Driver/Src/stm32l4xx_hal_rtc_ex.c ****   ******************************************************************************
   3:Drivers/STM32L4xx_HAL_Driver/Src/stm32l4xx_hal_rtc_ex.c ****   * @file    stm32l4xx_hal_rtc_ex.c
   4:Drivers/STM32L4xx_HAL_Driver/Src/stm32l4xx_hal_rtc_ex.c ****   * @author  MCD Application Team
   5:Drivers/STM32L4xx_HAL_Driver/Src/stm32l4xx_hal_rtc_ex.c ****   * @brief   Extended RTC HAL module driver.
   6:Drivers/STM32L4xx_HAL_Driver/Src/stm32l4xx_hal_rtc_ex.c ****   *          This file provides firmware functions to manage the following
   7:Drivers/STM32L4xx_HAL_Driver/Src/stm32l4xx_hal_rtc_ex.c ****   *          functionalities of the Real Time Clock (RTC) Extended peripheral:
   8:Drivers/STM32L4xx_HAL_Driver/Src/stm32l4xx_hal_rtc_ex.c ****   *           + RTC Time Stamp functions
   9:Drivers/STM32L4xx_HAL_Driver/Src/stm32l4xx_hal_rtc_ex.c ****   *           + RTC Tamper functions
  10:Drivers/STM32L4xx_HAL_Driver/Src/stm32l4xx_hal_rtc_ex.c ****   *           + RTC Wake-up functions
  11:Drivers/STM32L4xx_HAL_Driver/Src/stm32l4xx_hal_rtc_ex.c ****   *           + Extended Control functions
  12:Drivers/STM32L4xx_HAL_Driver/Src/stm32l4xx_hal_rtc_ex.c ****   *           + Extended RTC features functions
  13:Drivers/STM32L4xx_HAL_Driver/Src/stm32l4xx_hal_rtc_ex.c ****   *
  14:Drivers/STM32L4xx_HAL_Driver/Src/stm32l4xx_hal_rtc_ex.c ****   ******************************************************************************
  15:Drivers/STM32L4xx_HAL_Driver/Src/stm32l4xx_hal_rtc_ex.c ****   * @attention
  16:Drivers/STM32L4xx_HAL_Driver/Src/stm32l4xx_hal_rtc_ex.c ****   *
  17:Drivers/STM32L4xx_HAL_Driver/Src/stm32l4xx_hal_rtc_ex.c ****   * Copyright (c) 2017 STMicroelectronics.
  18:Drivers/STM32L4xx_HAL_Driver/Src/stm32l4xx_hal_rtc_ex.c ****   * All rights reserved.
  19:Drivers/STM32L4xx_HAL_Driver/Src/stm32l4xx_hal_rtc_ex.c ****   *
  20:Drivers/STM32L4xx_HAL_Driver/Src/stm32l4xx_hal_rtc_ex.c ****   * This software is licensed under terms that can be found in the LICENSE file
  21:Drivers/STM32L4xx_HAL_Driver/Src/stm32l4xx_hal_rtc_ex.c ****   * in the root directory of this software component.
  22:Drivers/STM32L4xx_HAL_Driver/Src/stm32l4xx_hal_rtc_ex.c ****   * If no LICENSE file comes with this software, it is provided AS-IS.
  23:Drivers/STM32L4xx_HAL_Driver/Src/stm32l4xx_hal_rtc_ex.c ****   *
  24:Drivers/STM32L4xx_HAL_Driver/Src/stm32l4xx_hal_rtc_ex.c ****   ******************************************************************************
  25:Drivers/STM32L4xx_HAL_Driver/Src/stm32l4xx_hal_rtc_ex.c ****   @verbatim
ARM GAS  /tmp/cchDTGWe.s 			page 2


  26:Drivers/STM32L4xx_HAL_Driver/Src/stm32l4xx_hal_rtc_ex.c ****   ==============================================================================
  27:Drivers/STM32L4xx_HAL_Driver/Src/stm32l4xx_hal_rtc_ex.c ****                   ##### How to use this driver #####
  28:Drivers/STM32L4xx_HAL_Driver/Src/stm32l4xx_hal_rtc_ex.c ****   ==============================================================================
  29:Drivers/STM32L4xx_HAL_Driver/Src/stm32l4xx_hal_rtc_ex.c ****   [..]
  30:Drivers/STM32L4xx_HAL_Driver/Src/stm32l4xx_hal_rtc_ex.c ****     (+) Enable the RTC domain access.
  31:Drivers/STM32L4xx_HAL_Driver/Src/stm32l4xx_hal_rtc_ex.c ****     (+) Configure the RTC Prescaler (Asynchronous and Synchronous) and RTC hour
  32:Drivers/STM32L4xx_HAL_Driver/Src/stm32l4xx_hal_rtc_ex.c ****         format using the HAL_RTC_Init() function.
  33:Drivers/STM32L4xx_HAL_Driver/Src/stm32l4xx_hal_rtc_ex.c **** 
  34:Drivers/STM32L4xx_HAL_Driver/Src/stm32l4xx_hal_rtc_ex.c ****   *** RTC Wakeup configuration ***
  35:Drivers/STM32L4xx_HAL_Driver/Src/stm32l4xx_hal_rtc_ex.c ****   ================================
  36:Drivers/STM32L4xx_HAL_Driver/Src/stm32l4xx_hal_rtc_ex.c ****   [..]
  37:Drivers/STM32L4xx_HAL_Driver/Src/stm32l4xx_hal_rtc_ex.c ****     (+) To configure the RTC Wakeup Clock source and Counter use the HAL_RTCEx_SetWakeUpTimer()
  38:Drivers/STM32L4xx_HAL_Driver/Src/stm32l4xx_hal_rtc_ex.c ****         function. You can also configure the RTC Wakeup timer with interrupt mode
  39:Drivers/STM32L4xx_HAL_Driver/Src/stm32l4xx_hal_rtc_ex.c ****         using the HAL_RTCEx_SetWakeUpTimer_IT() function.
  40:Drivers/STM32L4xx_HAL_Driver/Src/stm32l4xx_hal_rtc_ex.c ****     (+) To read the RTC WakeUp Counter register, use the HAL_RTCEx_GetWakeUpTimer()
  41:Drivers/STM32L4xx_HAL_Driver/Src/stm32l4xx_hal_rtc_ex.c ****         function.
  42:Drivers/STM32L4xx_HAL_Driver/Src/stm32l4xx_hal_rtc_ex.c **** 
  43:Drivers/STM32L4xx_HAL_Driver/Src/stm32l4xx_hal_rtc_ex.c ****   *** Outputs configuration ***
  44:Drivers/STM32L4xx_HAL_Driver/Src/stm32l4xx_hal_rtc_ex.c ****   =============================
  45:Drivers/STM32L4xx_HAL_Driver/Src/stm32l4xx_hal_rtc_ex.c ****   [..]  The RTC has 2 different outputs:
  46:Drivers/STM32L4xx_HAL_Driver/Src/stm32l4xx_hal_rtc_ex.c ****     (+) RTC_ALARM: this output is used to manage the RTC Alarm A, Alarm B
  47:Drivers/STM32L4xx_HAL_Driver/Src/stm32l4xx_hal_rtc_ex.c ****         and WaKeUp signals.
  48:Drivers/STM32L4xx_HAL_Driver/Src/stm32l4xx_hal_rtc_ex.c ****         To output the selected RTC signal, use the HAL_RTC_Init() function.
  49:Drivers/STM32L4xx_HAL_Driver/Src/stm32l4xx_hal_rtc_ex.c ****     (+) RTC_CALIB: this output is 512Hz signal or 1Hz.
  50:Drivers/STM32L4xx_HAL_Driver/Src/stm32l4xx_hal_rtc_ex.c ****         To enable the RTC_CALIB, use the HAL_RTCEx_SetCalibrationOutPut() function.
  51:Drivers/STM32L4xx_HAL_Driver/Src/stm32l4xx_hal_rtc_ex.c ****     (+) Two pins can be used as RTC_ALARM or RTC_CALIB (PC13, PB2) managed on
  52:Drivers/STM32L4xx_HAL_Driver/Src/stm32l4xx_hal_rtc_ex.c ****         the RTC_OR register.
  53:Drivers/STM32L4xx_HAL_Driver/Src/stm32l4xx_hal_rtc_ex.c ****     (+) When the RTC_CALIB or RTC_ALARM output is selected, the RTC_OUT pin is
  54:Drivers/STM32L4xx_HAL_Driver/Src/stm32l4xx_hal_rtc_ex.c ****         automatically configured in output alternate function.
  55:Drivers/STM32L4xx_HAL_Driver/Src/stm32l4xx_hal_rtc_ex.c **** 
  56:Drivers/STM32L4xx_HAL_Driver/Src/stm32l4xx_hal_rtc_ex.c ****   *** Smooth digital Calibration configuration ***
  57:Drivers/STM32L4xx_HAL_Driver/Src/stm32l4xx_hal_rtc_ex.c ****   ================================================
  58:Drivers/STM32L4xx_HAL_Driver/Src/stm32l4xx_hal_rtc_ex.c ****   [..]
  59:Drivers/STM32L4xx_HAL_Driver/Src/stm32l4xx_hal_rtc_ex.c ****     (+) Configure the RTC Original Digital Calibration Value and the corresponding
  60:Drivers/STM32L4xx_HAL_Driver/Src/stm32l4xx_hal_rtc_ex.c ****         calibration cycle period (32s,16s and 8s) using the HAL_RTCEx_SetSmoothCalib()
  61:Drivers/STM32L4xx_HAL_Driver/Src/stm32l4xx_hal_rtc_ex.c ****         function.
  62:Drivers/STM32L4xx_HAL_Driver/Src/stm32l4xx_hal_rtc_ex.c **** 
  63:Drivers/STM32L4xx_HAL_Driver/Src/stm32l4xx_hal_rtc_ex.c ****   *** TimeStamp configuration ***
  64:Drivers/STM32L4xx_HAL_Driver/Src/stm32l4xx_hal_rtc_ex.c ****   ===============================
  65:Drivers/STM32L4xx_HAL_Driver/Src/stm32l4xx_hal_rtc_ex.c ****   [..]
  66:Drivers/STM32L4xx_HAL_Driver/Src/stm32l4xx_hal_rtc_ex.c ****     (+) Enable the RTC TimeStamp using the HAL_RTCEx_SetTimeStamp() function.
  67:Drivers/STM32L4xx_HAL_Driver/Src/stm32l4xx_hal_rtc_ex.c ****         You can also configure the RTC TimeStamp with interrupt mode using the
  68:Drivers/STM32L4xx_HAL_Driver/Src/stm32l4xx_hal_rtc_ex.c ****         HAL_RTCEx_SetTimeStamp_IT() function.
  69:Drivers/STM32L4xx_HAL_Driver/Src/stm32l4xx_hal_rtc_ex.c ****     (+) To read the RTC TimeStamp Time and Date register, use the HAL_RTCEx_GetTimeStamp()
  70:Drivers/STM32L4xx_HAL_Driver/Src/stm32l4xx_hal_rtc_ex.c ****         function.
  71:Drivers/STM32L4xx_HAL_Driver/Src/stm32l4xx_hal_rtc_ex.c **** 
  72:Drivers/STM32L4xx_HAL_Driver/Src/stm32l4xx_hal_rtc_ex.c ****   *** Internal TimeStamp configuration ***
  73:Drivers/STM32L4xx_HAL_Driver/Src/stm32l4xx_hal_rtc_ex.c ****   ===============================
  74:Drivers/STM32L4xx_HAL_Driver/Src/stm32l4xx_hal_rtc_ex.c ****   [..]
  75:Drivers/STM32L4xx_HAL_Driver/Src/stm32l4xx_hal_rtc_ex.c ****     (+) Enable the RTC internal TimeStamp using the HAL_RTCEx_SetInternalTimeStamp() function.
  76:Drivers/STM32L4xx_HAL_Driver/Src/stm32l4xx_hal_rtc_ex.c ****         User has to check internal timestamp occurrence using __HAL_RTC_INTERNAL_TIMESTAMP_GET_FLAG
  77:Drivers/STM32L4xx_HAL_Driver/Src/stm32l4xx_hal_rtc_ex.c ****     (+) To read the RTC TimeStamp Time and Date register, use the HAL_RTCEx_GetTimeStamp()
  78:Drivers/STM32L4xx_HAL_Driver/Src/stm32l4xx_hal_rtc_ex.c ****         function.
  79:Drivers/STM32L4xx_HAL_Driver/Src/stm32l4xx_hal_rtc_ex.c **** 
  80:Drivers/STM32L4xx_HAL_Driver/Src/stm32l4xx_hal_rtc_ex.c ****    *** Tamper configuration ***
  81:Drivers/STM32L4xx_HAL_Driver/Src/stm32l4xx_hal_rtc_ex.c ****    ============================
  82:Drivers/STM32L4xx_HAL_Driver/Src/stm32l4xx_hal_rtc_ex.c ****    [..]
ARM GAS  /tmp/cchDTGWe.s 			page 3


  83:Drivers/STM32L4xx_HAL_Driver/Src/stm32l4xx_hal_rtc_ex.c ****      (+) Enable the RTC Tamper and configure the Tamper filter count, trigger Edge
  84:Drivers/STM32L4xx_HAL_Driver/Src/stm32l4xx_hal_rtc_ex.c ****          or Level according to the Tamper filter (if equal to 0 Edge else Level)
  85:Drivers/STM32L4xx_HAL_Driver/Src/stm32l4xx_hal_rtc_ex.c ****          value, sampling frequency, NoErase, MaskFlag,  precharge or discharge and
  86:Drivers/STM32L4xx_HAL_Driver/Src/stm32l4xx_hal_rtc_ex.c ****          Pull-UP using the HAL_RTCEx_SetTamper() function. You can configure RTC Tamper
  87:Drivers/STM32L4xx_HAL_Driver/Src/stm32l4xx_hal_rtc_ex.c ****          with interrupt mode using HAL_RTCEx_SetTamper_IT() function.
  88:Drivers/STM32L4xx_HAL_Driver/Src/stm32l4xx_hal_rtc_ex.c ****      (+) The default configuration of the Tamper erases the backup registers. To avoid
  89:Drivers/STM32L4xx_HAL_Driver/Src/stm32l4xx_hal_rtc_ex.c ****          erase, enable the NoErase field on the RTC_TAMPCR register.
  90:Drivers/STM32L4xx_HAL_Driver/Src/stm32l4xx_hal_rtc_ex.c ****      (+) STM32L412xx and STM32L422xx only : With new RTC tamper configuration, you have to call HAL
  91:Drivers/STM32L4xx_HAL_Driver/Src/stm32l4xx_hal_rtc_ex.c ****          perform TAMP base address offset calculation.
  92:Drivers/STM32L4xx_HAL_Driver/Src/stm32l4xx_hal_rtc_ex.c ****      (+) STM32L412xx and STM32L422xx only : If you don't intend to have tamper using RTC clock, you
  93:Drivers/STM32L4xx_HAL_Driver/Src/stm32l4xx_hal_rtc_ex.c ****          by setting ClockEnable inti field to RTC_CLOCK_DISABLE.
  94:Drivers/STM32L4xx_HAL_Driver/Src/stm32l4xx_hal_rtc_ex.c ****      (+) STM32L412xx and STM32L422xx only : Enable Internal tamper using HAL_RTCEx_SetInternalTampe
  95:Drivers/STM32L4xx_HAL_Driver/Src/stm32l4xx_hal_rtc_ex.c ****          setting Interrupt field.
  96:Drivers/STM32L4xx_HAL_Driver/Src/stm32l4xx_hal_rtc_ex.c **** 
  97:Drivers/STM32L4xx_HAL_Driver/Src/stm32l4xx_hal_rtc_ex.c ****    *** Backup Data Registers configuration ***
  98:Drivers/STM32L4xx_HAL_Driver/Src/stm32l4xx_hal_rtc_ex.c ****    ===========================================
  99:Drivers/STM32L4xx_HAL_Driver/Src/stm32l4xx_hal_rtc_ex.c ****    [..]
 100:Drivers/STM32L4xx_HAL_Driver/Src/stm32l4xx_hal_rtc_ex.c ****      (+) To write to the RTC Backup Data registers, use the HAL_RTCEx_BKUPWrite()
 101:Drivers/STM32L4xx_HAL_Driver/Src/stm32l4xx_hal_rtc_ex.c ****          function.
 102:Drivers/STM32L4xx_HAL_Driver/Src/stm32l4xx_hal_rtc_ex.c ****      (+) To read the RTC Backup Data registers, use the HAL_RTCEx_BKUPRead()
 103:Drivers/STM32L4xx_HAL_Driver/Src/stm32l4xx_hal_rtc_ex.c ****          function.
 104:Drivers/STM32L4xx_HAL_Driver/Src/stm32l4xx_hal_rtc_ex.c ****      (+) STM32L412xx and STM32L422xx only : Before calling these functions you have to call HAL_RTC
 105:Drivers/STM32L4xx_HAL_Driver/Src/stm32l4xx_hal_rtc_ex.c ****          perform TAMP base address offset calculation.
 106:Drivers/STM32L4xx_HAL_Driver/Src/stm32l4xx_hal_rtc_ex.c **** 
 107:Drivers/STM32L4xx_HAL_Driver/Src/stm32l4xx_hal_rtc_ex.c ****   @endverbatim
 108:Drivers/STM32L4xx_HAL_Driver/Src/stm32l4xx_hal_rtc_ex.c ****   ******************************************************************************
 109:Drivers/STM32L4xx_HAL_Driver/Src/stm32l4xx_hal_rtc_ex.c ****   */
 110:Drivers/STM32L4xx_HAL_Driver/Src/stm32l4xx_hal_rtc_ex.c **** 
 111:Drivers/STM32L4xx_HAL_Driver/Src/stm32l4xx_hal_rtc_ex.c **** /* Includes ------------------------------------------------------------------*/
 112:Drivers/STM32L4xx_HAL_Driver/Src/stm32l4xx_hal_rtc_ex.c **** #include "stm32l4xx_hal.h"
 113:Drivers/STM32L4xx_HAL_Driver/Src/stm32l4xx_hal_rtc_ex.c **** 
 114:Drivers/STM32L4xx_HAL_Driver/Src/stm32l4xx_hal_rtc_ex.c **** /** @addtogroup STM32L4xx_HAL_Driver
 115:Drivers/STM32L4xx_HAL_Driver/Src/stm32l4xx_hal_rtc_ex.c ****   * @{
 116:Drivers/STM32L4xx_HAL_Driver/Src/stm32l4xx_hal_rtc_ex.c ****   */
 117:Drivers/STM32L4xx_HAL_Driver/Src/stm32l4xx_hal_rtc_ex.c **** 
 118:Drivers/STM32L4xx_HAL_Driver/Src/stm32l4xx_hal_rtc_ex.c **** /** @addtogroup RTCEx
 119:Drivers/STM32L4xx_HAL_Driver/Src/stm32l4xx_hal_rtc_ex.c ****   * @brief RTC Extended HAL module driver
 120:Drivers/STM32L4xx_HAL_Driver/Src/stm32l4xx_hal_rtc_ex.c ****   * @{
 121:Drivers/STM32L4xx_HAL_Driver/Src/stm32l4xx_hal_rtc_ex.c ****   */
 122:Drivers/STM32L4xx_HAL_Driver/Src/stm32l4xx_hal_rtc_ex.c **** 
 123:Drivers/STM32L4xx_HAL_Driver/Src/stm32l4xx_hal_rtc_ex.c **** #ifdef HAL_RTC_MODULE_ENABLED
 124:Drivers/STM32L4xx_HAL_Driver/Src/stm32l4xx_hal_rtc_ex.c **** 
 125:Drivers/STM32L4xx_HAL_Driver/Src/stm32l4xx_hal_rtc_ex.c **** /* Private typedef -----------------------------------------------------------*/
 126:Drivers/STM32L4xx_HAL_Driver/Src/stm32l4xx_hal_rtc_ex.c **** /* Private define ------------------------------------------------------------*/
 127:Drivers/STM32L4xx_HAL_Driver/Src/stm32l4xx_hal_rtc_ex.c **** /* Private macro -------------------------------------------------------------*/
 128:Drivers/STM32L4xx_HAL_Driver/Src/stm32l4xx_hal_rtc_ex.c **** /* Private variables ---------------------------------------------------------*/
 129:Drivers/STM32L4xx_HAL_Driver/Src/stm32l4xx_hal_rtc_ex.c **** /* Private function prototypes -----------------------------------------------*/
 130:Drivers/STM32L4xx_HAL_Driver/Src/stm32l4xx_hal_rtc_ex.c **** /* Exported functions --------------------------------------------------------*/
 131:Drivers/STM32L4xx_HAL_Driver/Src/stm32l4xx_hal_rtc_ex.c **** 
 132:Drivers/STM32L4xx_HAL_Driver/Src/stm32l4xx_hal_rtc_ex.c **** /** @addtogroup RTCEx_Exported_Functions
 133:Drivers/STM32L4xx_HAL_Driver/Src/stm32l4xx_hal_rtc_ex.c ****   * @{
 134:Drivers/STM32L4xx_HAL_Driver/Src/stm32l4xx_hal_rtc_ex.c ****   */
 135:Drivers/STM32L4xx_HAL_Driver/Src/stm32l4xx_hal_rtc_ex.c **** 
 136:Drivers/STM32L4xx_HAL_Driver/Src/stm32l4xx_hal_rtc_ex.c **** 
 137:Drivers/STM32L4xx_HAL_Driver/Src/stm32l4xx_hal_rtc_ex.c **** /** @addtogroup RTCEx_Exported_Functions_Group1
 138:Drivers/STM32L4xx_HAL_Driver/Src/stm32l4xx_hal_rtc_ex.c ****   * @brief   RTC TimeStamp and Tamper functions
 139:Drivers/STM32L4xx_HAL_Driver/Src/stm32l4xx_hal_rtc_ex.c ****   *
ARM GAS  /tmp/cchDTGWe.s 			page 4


 140:Drivers/STM32L4xx_HAL_Driver/Src/stm32l4xx_hal_rtc_ex.c **** @verbatim
 141:Drivers/STM32L4xx_HAL_Driver/Src/stm32l4xx_hal_rtc_ex.c ****  ===============================================================================
 142:Drivers/STM32L4xx_HAL_Driver/Src/stm32l4xx_hal_rtc_ex.c ****                  ##### RTC TimeStamp and Tamper functions #####
 143:Drivers/STM32L4xx_HAL_Driver/Src/stm32l4xx_hal_rtc_ex.c ****  ===============================================================================
 144:Drivers/STM32L4xx_HAL_Driver/Src/stm32l4xx_hal_rtc_ex.c **** 
 145:Drivers/STM32L4xx_HAL_Driver/Src/stm32l4xx_hal_rtc_ex.c ****  [..] This section provides functions allowing to configure TimeStamp feature
 146:Drivers/STM32L4xx_HAL_Driver/Src/stm32l4xx_hal_rtc_ex.c **** 
 147:Drivers/STM32L4xx_HAL_Driver/Src/stm32l4xx_hal_rtc_ex.c **** @endverbatim
 148:Drivers/STM32L4xx_HAL_Driver/Src/stm32l4xx_hal_rtc_ex.c ****   * @{
 149:Drivers/STM32L4xx_HAL_Driver/Src/stm32l4xx_hal_rtc_ex.c ****   */
 150:Drivers/STM32L4xx_HAL_Driver/Src/stm32l4xx_hal_rtc_ex.c **** 
 151:Drivers/STM32L4xx_HAL_Driver/Src/stm32l4xx_hal_rtc_ex.c **** /**
 152:Drivers/STM32L4xx_HAL_Driver/Src/stm32l4xx_hal_rtc_ex.c ****   * @brief  Set TimeStamp.
 153:Drivers/STM32L4xx_HAL_Driver/Src/stm32l4xx_hal_rtc_ex.c ****   * @note   This API must be called before enabling the TimeStamp feature.
 154:Drivers/STM32L4xx_HAL_Driver/Src/stm32l4xx_hal_rtc_ex.c ****   * @param  hrtc RTC handle
 155:Drivers/STM32L4xx_HAL_Driver/Src/stm32l4xx_hal_rtc_ex.c ****   * @param  TimeStampEdge Specifies the pin edge on which the TimeStamp is
 156:Drivers/STM32L4xx_HAL_Driver/Src/stm32l4xx_hal_rtc_ex.c ****   *         activated.
 157:Drivers/STM32L4xx_HAL_Driver/Src/stm32l4xx_hal_rtc_ex.c ****   *          This parameter can be one of the following values:
 158:Drivers/STM32L4xx_HAL_Driver/Src/stm32l4xx_hal_rtc_ex.c ****   *             @arg RTC_TIMESTAMPEDGE_RISING: the Time stamp event occurs on the
 159:Drivers/STM32L4xx_HAL_Driver/Src/stm32l4xx_hal_rtc_ex.c ****   *                                        rising edge of the related pin.
 160:Drivers/STM32L4xx_HAL_Driver/Src/stm32l4xx_hal_rtc_ex.c ****   *             @arg RTC_TIMESTAMPEDGE_FALLING: the Time stamp event occurs on the
 161:Drivers/STM32L4xx_HAL_Driver/Src/stm32l4xx_hal_rtc_ex.c ****   *                                         falling edge of the related pin.
 162:Drivers/STM32L4xx_HAL_Driver/Src/stm32l4xx_hal_rtc_ex.c ****   * @param  RTC_TimeStampPin specifies the RTC TimeStamp Pin.
 163:Drivers/STM32L4xx_HAL_Driver/Src/stm32l4xx_hal_rtc_ex.c ****   *          This parameter can be one of the following values:
 164:Drivers/STM32L4xx_HAL_Driver/Src/stm32l4xx_hal_rtc_ex.c ****   *             @arg RTC_TIMESTAMPPIN_DEFAULT: PC13 is selected as RTC TimeStamp Pin.
 165:Drivers/STM32L4xx_HAL_Driver/Src/stm32l4xx_hal_rtc_ex.c ****   *               The RTC TimeStamp Pin is per default PC13, but for reasons of
 166:Drivers/STM32L4xx_HAL_Driver/Src/stm32l4xx_hal_rtc_ex.c ****   *               compatibility, this parameter is required.
 167:Drivers/STM32L4xx_HAL_Driver/Src/stm32l4xx_hal_rtc_ex.c ****   * @retval HAL status
 168:Drivers/STM32L4xx_HAL_Driver/Src/stm32l4xx_hal_rtc_ex.c ****   */
 169:Drivers/STM32L4xx_HAL_Driver/Src/stm32l4xx_hal_rtc_ex.c **** HAL_StatusTypeDef HAL_RTCEx_SetTimeStamp(RTC_HandleTypeDef *hrtc, uint32_t TimeStampEdge, uint32_t 
 170:Drivers/STM32L4xx_HAL_Driver/Src/stm32l4xx_hal_rtc_ex.c **** {
  35              		.loc 1 170 1
  36              		.cfi_startproc
  37              		@ args = 0, pretend = 0, frame = 24
  38              		@ frame_needed = 1, uses_anonymous_args = 0
  39              		@ link register save eliminated.
  40 0000 80B4     		push	{r7}
  41              		.cfi_def_cfa_offset 4
  42              		.cfi_offset 7, -4
  43 0002 87B0     		sub	sp, sp, #28
  44              		.cfi_def_cfa_offset 32
  45 0004 00AF     		add	r7, sp, #0
  46              		.cfi_def_cfa_register 7
  47 0006 F860     		str	r0, [r7, #12]
  48 0008 B960     		str	r1, [r7, #8]
  49 000a 7A60     		str	r2, [r7, #4]
 171:Drivers/STM32L4xx_HAL_Driver/Src/stm32l4xx_hal_rtc_ex.c ****   uint32_t tmpreg;
 172:Drivers/STM32L4xx_HAL_Driver/Src/stm32l4xx_hal_rtc_ex.c **** 
 173:Drivers/STM32L4xx_HAL_Driver/Src/stm32l4xx_hal_rtc_ex.c ****   /* Check the parameters */
 174:Drivers/STM32L4xx_HAL_Driver/Src/stm32l4xx_hal_rtc_ex.c ****   assert_param(IS_TIMESTAMP_EDGE(TimeStampEdge));
 175:Drivers/STM32L4xx_HAL_Driver/Src/stm32l4xx_hal_rtc_ex.c ****   assert_param(IS_RTC_TIMESTAMP_PIN(RTC_TimeStampPin));
 176:Drivers/STM32L4xx_HAL_Driver/Src/stm32l4xx_hal_rtc_ex.c **** 
 177:Drivers/STM32L4xx_HAL_Driver/Src/stm32l4xx_hal_rtc_ex.c ****   /* Prevent unused argument(s) compilation warning if no assert_param check */
 178:Drivers/STM32L4xx_HAL_Driver/Src/stm32l4xx_hal_rtc_ex.c ****   UNUSED(RTC_TimeStampPin);
 179:Drivers/STM32L4xx_HAL_Driver/Src/stm32l4xx_hal_rtc_ex.c **** 
 180:Drivers/STM32L4xx_HAL_Driver/Src/stm32l4xx_hal_rtc_ex.c ****   /* Process Locked */
 181:Drivers/STM32L4xx_HAL_Driver/Src/stm32l4xx_hal_rtc_ex.c ****   __HAL_LOCK(hrtc);
ARM GAS  /tmp/cchDTGWe.s 			page 5


  50              		.loc 1 181 3
  51 000c FB68     		ldr	r3, [r7, #12]
  52 000e 93F82030 		ldrb	r3, [r3, #32]	@ zero_extendqisi2
  53 0012 012B     		cmp	r3, #1
  54 0014 01D1     		bne	.L2
  55              		.loc 1 181 3 is_stmt 0 discriminator 1
  56 0016 0223     		movs	r3, #2
  57              		.loc 1 181 3
  58 0018 34E0     		b	.L3
  59              	.L2:
  60              		.loc 1 181 3 discriminator 2
  61 001a FB68     		ldr	r3, [r7, #12]
  62 001c 0122     		movs	r2, #1
  63 001e 83F82020 		strb	r2, [r3, #32]
 182:Drivers/STM32L4xx_HAL_Driver/Src/stm32l4xx_hal_rtc_ex.c **** 
 183:Drivers/STM32L4xx_HAL_Driver/Src/stm32l4xx_hal_rtc_ex.c ****   hrtc->State = HAL_RTC_STATE_BUSY;
  64              		.loc 1 183 15 is_stmt 1
  65 0022 FB68     		ldr	r3, [r7, #12]
  66 0024 0222     		movs	r2, #2
  67 0026 83F82120 		strb	r2, [r3, #33]
 184:Drivers/STM32L4xx_HAL_Driver/Src/stm32l4xx_hal_rtc_ex.c **** 
 185:Drivers/STM32L4xx_HAL_Driver/Src/stm32l4xx_hal_rtc_ex.c ****   /* Get the RTC_CR register and clear the bits to be configured */
 186:Drivers/STM32L4xx_HAL_Driver/Src/stm32l4xx_hal_rtc_ex.c ****   tmpreg = (uint32_t)(hrtc->Instance->CR & (uint32_t)~(RTC_CR_TSEDGE | RTC_CR_TSE));
  68              		.loc 1 186 27
  69 002a FB68     		ldr	r3, [r7, #12]
  70 002c 1B68     		ldr	r3, [r3]
  71              		.loc 1 186 37
  72 002e 9B68     		ldr	r3, [r3, #8]
  73              		.loc 1 186 10
  74 0030 23F40063 		bic	r3, r3, #2048
  75 0034 23F00803 		bic	r3, r3, #8
  76 0038 7B61     		str	r3, [r7, #20]
 187:Drivers/STM32L4xx_HAL_Driver/Src/stm32l4xx_hal_rtc_ex.c **** 
 188:Drivers/STM32L4xx_HAL_Driver/Src/stm32l4xx_hal_rtc_ex.c ****   tmpreg |= TimeStampEdge;
  77              		.loc 1 188 10
  78 003a 7A69     		ldr	r2, [r7, #20]
  79 003c BB68     		ldr	r3, [r7, #8]
  80 003e 1343     		orrs	r3, r3, r2
  81 0040 7B61     		str	r3, [r7, #20]
 189:Drivers/STM32L4xx_HAL_Driver/Src/stm32l4xx_hal_rtc_ex.c **** 
 190:Drivers/STM32L4xx_HAL_Driver/Src/stm32l4xx_hal_rtc_ex.c ****   /* Disable the write protection for RTC registers */
 191:Drivers/STM32L4xx_HAL_Driver/Src/stm32l4xx_hal_rtc_ex.c ****   __HAL_RTC_WRITEPROTECTION_DISABLE(hrtc);
  82              		.loc 1 191 3
  83 0042 FB68     		ldr	r3, [r7, #12]
  84 0044 1B68     		ldr	r3, [r3]
  85 0046 CA22     		movs	r2, #202
  86 0048 5A62     		str	r2, [r3, #36]
  87 004a FB68     		ldr	r3, [r7, #12]
  88 004c 1B68     		ldr	r3, [r3]
  89 004e 5322     		movs	r2, #83
  90 0050 5A62     		str	r2, [r3, #36]
 192:Drivers/STM32L4xx_HAL_Driver/Src/stm32l4xx_hal_rtc_ex.c **** 
 193:Drivers/STM32L4xx_HAL_Driver/Src/stm32l4xx_hal_rtc_ex.c ****   /* Configure the Time Stamp TSEDGE and Enable bits */
 194:Drivers/STM32L4xx_HAL_Driver/Src/stm32l4xx_hal_rtc_ex.c ****   hrtc->Instance->CR = (uint32_t)tmpreg;
  91              		.loc 1 194 7
  92 0052 FB68     		ldr	r3, [r7, #12]
  93 0054 1B68     		ldr	r3, [r3]
ARM GAS  /tmp/cchDTGWe.s 			page 6


  94              		.loc 1 194 22
  95 0056 7A69     		ldr	r2, [r7, #20]
  96 0058 9A60     		str	r2, [r3, #8]
 195:Drivers/STM32L4xx_HAL_Driver/Src/stm32l4xx_hal_rtc_ex.c **** 
 196:Drivers/STM32L4xx_HAL_Driver/Src/stm32l4xx_hal_rtc_ex.c ****   __HAL_RTC_TIMESTAMP_ENABLE(hrtc);
  97              		.loc 1 196 3
  98 005a FB68     		ldr	r3, [r7, #12]
  99 005c 1B68     		ldr	r3, [r3]
 100 005e 9A68     		ldr	r2, [r3, #8]
 101 0060 FB68     		ldr	r3, [r7, #12]
 102 0062 1B68     		ldr	r3, [r3]
 103 0064 42F40062 		orr	r2, r2, #2048
 104 0068 9A60     		str	r2, [r3, #8]
 197:Drivers/STM32L4xx_HAL_Driver/Src/stm32l4xx_hal_rtc_ex.c **** 
 198:Drivers/STM32L4xx_HAL_Driver/Src/stm32l4xx_hal_rtc_ex.c ****   /* Enable the write protection for RTC registers */
 199:Drivers/STM32L4xx_HAL_Driver/Src/stm32l4xx_hal_rtc_ex.c ****   __HAL_RTC_WRITEPROTECTION_ENABLE(hrtc);
 105              		.loc 1 199 3
 106 006a FB68     		ldr	r3, [r7, #12]
 107 006c 1B68     		ldr	r3, [r3]
 108 006e FF22     		movs	r2, #255
 109 0070 5A62     		str	r2, [r3, #36]
 200:Drivers/STM32L4xx_HAL_Driver/Src/stm32l4xx_hal_rtc_ex.c **** 
 201:Drivers/STM32L4xx_HAL_Driver/Src/stm32l4xx_hal_rtc_ex.c ****   /* Change RTC state */
 202:Drivers/STM32L4xx_HAL_Driver/Src/stm32l4xx_hal_rtc_ex.c ****   hrtc->State = HAL_RTC_STATE_READY;
 110              		.loc 1 202 15
 111 0072 FB68     		ldr	r3, [r7, #12]
 112 0074 0122     		movs	r2, #1
 113 0076 83F82120 		strb	r2, [r3, #33]
 203:Drivers/STM32L4xx_HAL_Driver/Src/stm32l4xx_hal_rtc_ex.c **** 
 204:Drivers/STM32L4xx_HAL_Driver/Src/stm32l4xx_hal_rtc_ex.c ****   /* Process Unlocked */
 205:Drivers/STM32L4xx_HAL_Driver/Src/stm32l4xx_hal_rtc_ex.c ****   __HAL_UNLOCK(hrtc);
 114              		.loc 1 205 3
 115 007a FB68     		ldr	r3, [r7, #12]
 116 007c 0022     		movs	r2, #0
 117 007e 83F82020 		strb	r2, [r3, #32]
 206:Drivers/STM32L4xx_HAL_Driver/Src/stm32l4xx_hal_rtc_ex.c **** 
 207:Drivers/STM32L4xx_HAL_Driver/Src/stm32l4xx_hal_rtc_ex.c ****   return HAL_OK;
 118              		.loc 1 207 10
 119 0082 0023     		movs	r3, #0
 120              	.L3:
 208:Drivers/STM32L4xx_HAL_Driver/Src/stm32l4xx_hal_rtc_ex.c **** }
 121              		.loc 1 208 1
 122 0084 1846     		mov	r0, r3
 123 0086 1C37     		adds	r7, r7, #28
 124              		.cfi_def_cfa_offset 4
 125 0088 BD46     		mov	sp, r7
 126              		.cfi_def_cfa_register 13
 127              		@ sp needed
 128 008a 5DF8047B 		ldr	r7, [sp], #4
 129              		.cfi_restore 7
 130              		.cfi_def_cfa_offset 0
 131 008e 7047     		bx	lr
 132              		.cfi_endproc
 133              	.LFE445:
 135              		.section	.text.HAL_RTCEx_SetTimeStamp_IT,"ax",%progbits
 136              		.align	1
 137              		.global	HAL_RTCEx_SetTimeStamp_IT
ARM GAS  /tmp/cchDTGWe.s 			page 7


 138              		.syntax unified
 139              		.thumb
 140              		.thumb_func
 142              	HAL_RTCEx_SetTimeStamp_IT:
 143              	.LFB446:
 209:Drivers/STM32L4xx_HAL_Driver/Src/stm32l4xx_hal_rtc_ex.c **** 
 210:Drivers/STM32L4xx_HAL_Driver/Src/stm32l4xx_hal_rtc_ex.c **** /**
 211:Drivers/STM32L4xx_HAL_Driver/Src/stm32l4xx_hal_rtc_ex.c ****   * @brief  Set TimeStamp with Interrupt.
 212:Drivers/STM32L4xx_HAL_Driver/Src/stm32l4xx_hal_rtc_ex.c ****   * @note   This API must be called before enabling the TimeStamp feature.
 213:Drivers/STM32L4xx_HAL_Driver/Src/stm32l4xx_hal_rtc_ex.c ****   * @param  hrtc RTC handle
 214:Drivers/STM32L4xx_HAL_Driver/Src/stm32l4xx_hal_rtc_ex.c ****   * @param  TimeStampEdge Specifies the pin edge on which the TimeStamp is
 215:Drivers/STM32L4xx_HAL_Driver/Src/stm32l4xx_hal_rtc_ex.c ****   *         activated.
 216:Drivers/STM32L4xx_HAL_Driver/Src/stm32l4xx_hal_rtc_ex.c ****   *          This parameter can be one of the following values:
 217:Drivers/STM32L4xx_HAL_Driver/Src/stm32l4xx_hal_rtc_ex.c ****   *             @arg RTC_TIMESTAMPEDGE_RISING: the Time stamp event occurs on the
 218:Drivers/STM32L4xx_HAL_Driver/Src/stm32l4xx_hal_rtc_ex.c ****   *                                        rising edge of the related pin.
 219:Drivers/STM32L4xx_HAL_Driver/Src/stm32l4xx_hal_rtc_ex.c ****   *             @arg RTC_TIMESTAMPEDGE_FALLING: the Time stamp event occurs on the
 220:Drivers/STM32L4xx_HAL_Driver/Src/stm32l4xx_hal_rtc_ex.c ****   *                                         falling edge of the related pin.
 221:Drivers/STM32L4xx_HAL_Driver/Src/stm32l4xx_hal_rtc_ex.c ****   * @param  RTC_TimeStampPin Specifies the RTC TimeStamp Pin.
 222:Drivers/STM32L4xx_HAL_Driver/Src/stm32l4xx_hal_rtc_ex.c ****   *          This parameter can be one of the following values:
 223:Drivers/STM32L4xx_HAL_Driver/Src/stm32l4xx_hal_rtc_ex.c ****   *             @arg RTC_TIMESTAMPPIN_DEFAULT: PC13 is selected as RTC TimeStamp Pin.
 224:Drivers/STM32L4xx_HAL_Driver/Src/stm32l4xx_hal_rtc_ex.c ****   *               The RTC TimeStamp Pin is per default PC13, but for reasons of
 225:Drivers/STM32L4xx_HAL_Driver/Src/stm32l4xx_hal_rtc_ex.c ****   *               compatibility, this parameter is required.
 226:Drivers/STM32L4xx_HAL_Driver/Src/stm32l4xx_hal_rtc_ex.c ****   * @retval HAL status
 227:Drivers/STM32L4xx_HAL_Driver/Src/stm32l4xx_hal_rtc_ex.c ****   */
 228:Drivers/STM32L4xx_HAL_Driver/Src/stm32l4xx_hal_rtc_ex.c **** HAL_StatusTypeDef HAL_RTCEx_SetTimeStamp_IT(RTC_HandleTypeDef *hrtc, uint32_t TimeStampEdge, uint32
 229:Drivers/STM32L4xx_HAL_Driver/Src/stm32l4xx_hal_rtc_ex.c **** {
 144              		.loc 1 229 1
 145              		.cfi_startproc
 146              		@ args = 0, pretend = 0, frame = 24
 147              		@ frame_needed = 1, uses_anonymous_args = 0
 148              		@ link register save eliminated.
 149 0000 80B4     		push	{r7}
 150              		.cfi_def_cfa_offset 4
 151              		.cfi_offset 7, -4
 152 0002 87B0     		sub	sp, sp, #28
 153              		.cfi_def_cfa_offset 32
 154 0004 00AF     		add	r7, sp, #0
 155              		.cfi_def_cfa_register 7
 156 0006 F860     		str	r0, [r7, #12]
 157 0008 B960     		str	r1, [r7, #8]
 158 000a 7A60     		str	r2, [r7, #4]
 230:Drivers/STM32L4xx_HAL_Driver/Src/stm32l4xx_hal_rtc_ex.c ****   uint32_t tmpreg;
 231:Drivers/STM32L4xx_HAL_Driver/Src/stm32l4xx_hal_rtc_ex.c **** 
 232:Drivers/STM32L4xx_HAL_Driver/Src/stm32l4xx_hal_rtc_ex.c ****   /* Check the parameters */
 233:Drivers/STM32L4xx_HAL_Driver/Src/stm32l4xx_hal_rtc_ex.c ****   assert_param(IS_TIMESTAMP_EDGE(TimeStampEdge));
 234:Drivers/STM32L4xx_HAL_Driver/Src/stm32l4xx_hal_rtc_ex.c ****   assert_param(IS_RTC_TIMESTAMP_PIN(RTC_TimeStampPin));
 235:Drivers/STM32L4xx_HAL_Driver/Src/stm32l4xx_hal_rtc_ex.c **** 
 236:Drivers/STM32L4xx_HAL_Driver/Src/stm32l4xx_hal_rtc_ex.c ****   /* Prevent unused argument(s) compilation warning if no assert_param check */
 237:Drivers/STM32L4xx_HAL_Driver/Src/stm32l4xx_hal_rtc_ex.c ****   UNUSED(RTC_TimeStampPin);
 238:Drivers/STM32L4xx_HAL_Driver/Src/stm32l4xx_hal_rtc_ex.c **** 
 239:Drivers/STM32L4xx_HAL_Driver/Src/stm32l4xx_hal_rtc_ex.c ****   /* Process Locked */
 240:Drivers/STM32L4xx_HAL_Driver/Src/stm32l4xx_hal_rtc_ex.c ****   __HAL_LOCK(hrtc);
 159              		.loc 1 240 3
 160 000c FB68     		ldr	r3, [r7, #12]
 161 000e 93F82030 		ldrb	r3, [r3, #32]	@ zero_extendqisi2
 162 0012 012B     		cmp	r3, #1
 163 0014 01D1     		bne	.L5
ARM GAS  /tmp/cchDTGWe.s 			page 8


 164              		.loc 1 240 3 is_stmt 0 discriminator 1
 165 0016 0223     		movs	r3, #2
 166              		.loc 1 240 3
 167 0018 48E0     		b	.L6
 168              	.L5:
 169              		.loc 1 240 3 discriminator 2
 170 001a FB68     		ldr	r3, [r7, #12]
 171 001c 0122     		movs	r2, #1
 172 001e 83F82020 		strb	r2, [r3, #32]
 241:Drivers/STM32L4xx_HAL_Driver/Src/stm32l4xx_hal_rtc_ex.c **** 
 242:Drivers/STM32L4xx_HAL_Driver/Src/stm32l4xx_hal_rtc_ex.c ****   hrtc->State = HAL_RTC_STATE_BUSY;
 173              		.loc 1 242 15 is_stmt 1
 174 0022 FB68     		ldr	r3, [r7, #12]
 175 0024 0222     		movs	r2, #2
 176 0026 83F82120 		strb	r2, [r3, #33]
 243:Drivers/STM32L4xx_HAL_Driver/Src/stm32l4xx_hal_rtc_ex.c **** 
 244:Drivers/STM32L4xx_HAL_Driver/Src/stm32l4xx_hal_rtc_ex.c ****   /* Get the RTC_CR register and clear the bits to be configured */
 245:Drivers/STM32L4xx_HAL_Driver/Src/stm32l4xx_hal_rtc_ex.c ****   tmpreg = (uint32_t)(hrtc->Instance->CR & (uint32_t)~(RTC_CR_TSEDGE | RTC_CR_TSE));
 177              		.loc 1 245 27
 178 002a FB68     		ldr	r3, [r7, #12]
 179 002c 1B68     		ldr	r3, [r3]
 180              		.loc 1 245 37
 181 002e 9B68     		ldr	r3, [r3, #8]
 182              		.loc 1 245 10
 183 0030 23F40063 		bic	r3, r3, #2048
 184 0034 23F00803 		bic	r3, r3, #8
 185 0038 7B61     		str	r3, [r7, #20]
 246:Drivers/STM32L4xx_HAL_Driver/Src/stm32l4xx_hal_rtc_ex.c **** 
 247:Drivers/STM32L4xx_HAL_Driver/Src/stm32l4xx_hal_rtc_ex.c ****   tmpreg |= TimeStampEdge;
 186              		.loc 1 247 10
 187 003a 7A69     		ldr	r2, [r7, #20]
 188 003c BB68     		ldr	r3, [r7, #8]
 189 003e 1343     		orrs	r3, r3, r2
 190 0040 7B61     		str	r3, [r7, #20]
 248:Drivers/STM32L4xx_HAL_Driver/Src/stm32l4xx_hal_rtc_ex.c **** 
 249:Drivers/STM32L4xx_HAL_Driver/Src/stm32l4xx_hal_rtc_ex.c ****   /* Disable the write protection for RTC registers */
 250:Drivers/STM32L4xx_HAL_Driver/Src/stm32l4xx_hal_rtc_ex.c ****   __HAL_RTC_WRITEPROTECTION_DISABLE(hrtc);
 191              		.loc 1 250 3
 192 0042 FB68     		ldr	r3, [r7, #12]
 193 0044 1B68     		ldr	r3, [r3]
 194 0046 CA22     		movs	r2, #202
 195 0048 5A62     		str	r2, [r3, #36]
 196 004a FB68     		ldr	r3, [r7, #12]
 197 004c 1B68     		ldr	r3, [r3]
 198 004e 5322     		movs	r2, #83
 199 0050 5A62     		str	r2, [r3, #36]
 251:Drivers/STM32L4xx_HAL_Driver/Src/stm32l4xx_hal_rtc_ex.c **** 
 252:Drivers/STM32L4xx_HAL_Driver/Src/stm32l4xx_hal_rtc_ex.c ****   /* Configure the Time Stamp TSEDGE and Enable bits */
 253:Drivers/STM32L4xx_HAL_Driver/Src/stm32l4xx_hal_rtc_ex.c ****   hrtc->Instance->CR = (uint32_t)tmpreg;
 200              		.loc 1 253 7
 201 0052 FB68     		ldr	r3, [r7, #12]
 202 0054 1B68     		ldr	r3, [r3]
 203              		.loc 1 253 22
 204 0056 7A69     		ldr	r2, [r7, #20]
 205 0058 9A60     		str	r2, [r3, #8]
 254:Drivers/STM32L4xx_HAL_Driver/Src/stm32l4xx_hal_rtc_ex.c **** 
 255:Drivers/STM32L4xx_HAL_Driver/Src/stm32l4xx_hal_rtc_ex.c ****   __HAL_RTC_TIMESTAMP_ENABLE(hrtc);
ARM GAS  /tmp/cchDTGWe.s 			page 9


 206              		.loc 1 255 3
 207 005a FB68     		ldr	r3, [r7, #12]
 208 005c 1B68     		ldr	r3, [r3]
 209 005e 9A68     		ldr	r2, [r3, #8]
 210 0060 FB68     		ldr	r3, [r7, #12]
 211 0062 1B68     		ldr	r3, [r3]
 212 0064 42F40062 		orr	r2, r2, #2048
 213 0068 9A60     		str	r2, [r3, #8]
 256:Drivers/STM32L4xx_HAL_Driver/Src/stm32l4xx_hal_rtc_ex.c **** 
 257:Drivers/STM32L4xx_HAL_Driver/Src/stm32l4xx_hal_rtc_ex.c ****   /* Enable IT timestamp */
 258:Drivers/STM32L4xx_HAL_Driver/Src/stm32l4xx_hal_rtc_ex.c ****   __HAL_RTC_TIMESTAMP_ENABLE_IT(hrtc, RTC_IT_TS);
 214              		.loc 1 258 3
 215 006a FB68     		ldr	r3, [r7, #12]
 216 006c 1B68     		ldr	r3, [r3]
 217 006e 9A68     		ldr	r2, [r3, #8]
 218 0070 FB68     		ldr	r3, [r7, #12]
 219 0072 1B68     		ldr	r3, [r3]
 220 0074 42F40042 		orr	r2, r2, #32768
 221 0078 9A60     		str	r2, [r3, #8]
 259:Drivers/STM32L4xx_HAL_Driver/Src/stm32l4xx_hal_rtc_ex.c **** 
 260:Drivers/STM32L4xx_HAL_Driver/Src/stm32l4xx_hal_rtc_ex.c ****   /* RTC timestamp Interrupt Configuration: EXTI configuration */
 261:Drivers/STM32L4xx_HAL_Driver/Src/stm32l4xx_hal_rtc_ex.c ****   __HAL_RTC_TAMPER_TIMESTAMP_EXTI_ENABLE_IT();
 222              		.loc 1 261 3
 223 007a 0F4B     		ldr	r3, .L7
 224 007c 1B68     		ldr	r3, [r3]
 225 007e 0E4A     		ldr	r2, .L7
 226 0080 43F40023 		orr	r3, r3, #524288
 227 0084 1360     		str	r3, [r2]
 262:Drivers/STM32L4xx_HAL_Driver/Src/stm32l4xx_hal_rtc_ex.c ****   __HAL_RTC_TAMPER_TIMESTAMP_EXTI_ENABLE_RISING_EDGE();
 228              		.loc 1 262 3
 229 0086 0C4B     		ldr	r3, .L7
 230 0088 9B68     		ldr	r3, [r3, #8]
 231 008a 0B4A     		ldr	r2, .L7
 232 008c 43F40023 		orr	r3, r3, #524288
 233 0090 9360     		str	r3, [r2, #8]
 263:Drivers/STM32L4xx_HAL_Driver/Src/stm32l4xx_hal_rtc_ex.c **** 
 264:Drivers/STM32L4xx_HAL_Driver/Src/stm32l4xx_hal_rtc_ex.c ****   /* Enable the write protection for RTC registers */
 265:Drivers/STM32L4xx_HAL_Driver/Src/stm32l4xx_hal_rtc_ex.c ****   __HAL_RTC_WRITEPROTECTION_ENABLE(hrtc);
 234              		.loc 1 265 3
 235 0092 FB68     		ldr	r3, [r7, #12]
 236 0094 1B68     		ldr	r3, [r3]
 237 0096 FF22     		movs	r2, #255
 238 0098 5A62     		str	r2, [r3, #36]
 266:Drivers/STM32L4xx_HAL_Driver/Src/stm32l4xx_hal_rtc_ex.c **** 
 267:Drivers/STM32L4xx_HAL_Driver/Src/stm32l4xx_hal_rtc_ex.c ****   hrtc->State = HAL_RTC_STATE_READY;
 239              		.loc 1 267 15
 240 009a FB68     		ldr	r3, [r7, #12]
 241 009c 0122     		movs	r2, #1
 242 009e 83F82120 		strb	r2, [r3, #33]
 268:Drivers/STM32L4xx_HAL_Driver/Src/stm32l4xx_hal_rtc_ex.c **** 
 269:Drivers/STM32L4xx_HAL_Driver/Src/stm32l4xx_hal_rtc_ex.c ****   /* Process Unlocked */
 270:Drivers/STM32L4xx_HAL_Driver/Src/stm32l4xx_hal_rtc_ex.c ****   __HAL_UNLOCK(hrtc);
 243              		.loc 1 270 3
 244 00a2 FB68     		ldr	r3, [r7, #12]
 245 00a4 0022     		movs	r2, #0
 246 00a6 83F82020 		strb	r2, [r3, #32]
 271:Drivers/STM32L4xx_HAL_Driver/Src/stm32l4xx_hal_rtc_ex.c **** 
ARM GAS  /tmp/cchDTGWe.s 			page 10


 272:Drivers/STM32L4xx_HAL_Driver/Src/stm32l4xx_hal_rtc_ex.c ****   return HAL_OK;
 247              		.loc 1 272 10
 248 00aa 0023     		movs	r3, #0
 249              	.L6:
 273:Drivers/STM32L4xx_HAL_Driver/Src/stm32l4xx_hal_rtc_ex.c **** }
 250              		.loc 1 273 1
 251 00ac 1846     		mov	r0, r3
 252 00ae 1C37     		adds	r7, r7, #28
 253              		.cfi_def_cfa_offset 4
 254 00b0 BD46     		mov	sp, r7
 255              		.cfi_def_cfa_register 13
 256              		@ sp needed
 257 00b2 5DF8047B 		ldr	r7, [sp], #4
 258              		.cfi_restore 7
 259              		.cfi_def_cfa_offset 0
 260 00b6 7047     		bx	lr
 261              	.L8:
 262              		.align	2
 263              	.L7:
 264 00b8 00040140 		.word	1073808384
 265              		.cfi_endproc
 266              	.LFE446:
 268              		.section	.text.HAL_RTCEx_DeactivateTimeStamp,"ax",%progbits
 269              		.align	1
 270              		.global	HAL_RTCEx_DeactivateTimeStamp
 271              		.syntax unified
 272              		.thumb
 273              		.thumb_func
 275              	HAL_RTCEx_DeactivateTimeStamp:
 276              	.LFB447:
 274:Drivers/STM32L4xx_HAL_Driver/Src/stm32l4xx_hal_rtc_ex.c **** 
 275:Drivers/STM32L4xx_HAL_Driver/Src/stm32l4xx_hal_rtc_ex.c **** /**
 276:Drivers/STM32L4xx_HAL_Driver/Src/stm32l4xx_hal_rtc_ex.c ****   * @brief  Deactivate TimeStamp.
 277:Drivers/STM32L4xx_HAL_Driver/Src/stm32l4xx_hal_rtc_ex.c ****   * @param  hrtc RTC handle
 278:Drivers/STM32L4xx_HAL_Driver/Src/stm32l4xx_hal_rtc_ex.c ****   * @retval HAL status
 279:Drivers/STM32L4xx_HAL_Driver/Src/stm32l4xx_hal_rtc_ex.c ****   */
 280:Drivers/STM32L4xx_HAL_Driver/Src/stm32l4xx_hal_rtc_ex.c **** HAL_StatusTypeDef HAL_RTCEx_DeactivateTimeStamp(RTC_HandleTypeDef *hrtc)
 281:Drivers/STM32L4xx_HAL_Driver/Src/stm32l4xx_hal_rtc_ex.c **** {
 277              		.loc 1 281 1
 278              		.cfi_startproc
 279              		@ args = 0, pretend = 0, frame = 16
 280              		@ frame_needed = 1, uses_anonymous_args = 0
 281              		@ link register save eliminated.
 282 0000 80B4     		push	{r7}
 283              		.cfi_def_cfa_offset 4
 284              		.cfi_offset 7, -4
 285 0002 85B0     		sub	sp, sp, #20
 286              		.cfi_def_cfa_offset 24
 287 0004 00AF     		add	r7, sp, #0
 288              		.cfi_def_cfa_register 7
 289 0006 7860     		str	r0, [r7, #4]
 282:Drivers/STM32L4xx_HAL_Driver/Src/stm32l4xx_hal_rtc_ex.c ****   uint32_t tmpreg;
 283:Drivers/STM32L4xx_HAL_Driver/Src/stm32l4xx_hal_rtc_ex.c **** 
 284:Drivers/STM32L4xx_HAL_Driver/Src/stm32l4xx_hal_rtc_ex.c ****   /* Process Locked */
 285:Drivers/STM32L4xx_HAL_Driver/Src/stm32l4xx_hal_rtc_ex.c ****   __HAL_LOCK(hrtc);
 290              		.loc 1 285 3
 291 0008 7B68     		ldr	r3, [r7, #4]
ARM GAS  /tmp/cchDTGWe.s 			page 11


 292 000a 93F82030 		ldrb	r3, [r3, #32]	@ zero_extendqisi2
 293 000e 012B     		cmp	r3, #1
 294 0010 01D1     		bne	.L10
 295              		.loc 1 285 3 is_stmt 0 discriminator 1
 296 0012 0223     		movs	r3, #2
 297              		.loc 1 285 3
 298 0014 30E0     		b	.L11
 299              	.L10:
 300              		.loc 1 285 3 discriminator 2
 301 0016 7B68     		ldr	r3, [r7, #4]
 302 0018 0122     		movs	r2, #1
 303 001a 83F82020 		strb	r2, [r3, #32]
 286:Drivers/STM32L4xx_HAL_Driver/Src/stm32l4xx_hal_rtc_ex.c **** 
 287:Drivers/STM32L4xx_HAL_Driver/Src/stm32l4xx_hal_rtc_ex.c ****   hrtc->State = HAL_RTC_STATE_BUSY;
 304              		.loc 1 287 15 is_stmt 1
 305 001e 7B68     		ldr	r3, [r7, #4]
 306 0020 0222     		movs	r2, #2
 307 0022 83F82120 		strb	r2, [r3, #33]
 288:Drivers/STM32L4xx_HAL_Driver/Src/stm32l4xx_hal_rtc_ex.c **** 
 289:Drivers/STM32L4xx_HAL_Driver/Src/stm32l4xx_hal_rtc_ex.c ****   /* Disable the write protection for RTC registers */
 290:Drivers/STM32L4xx_HAL_Driver/Src/stm32l4xx_hal_rtc_ex.c ****   __HAL_RTC_WRITEPROTECTION_DISABLE(hrtc);
 308              		.loc 1 290 3
 309 0026 7B68     		ldr	r3, [r7, #4]
 310 0028 1B68     		ldr	r3, [r3]
 311 002a CA22     		movs	r2, #202
 312 002c 5A62     		str	r2, [r3, #36]
 313 002e 7B68     		ldr	r3, [r7, #4]
 314 0030 1B68     		ldr	r3, [r3]
 315 0032 5322     		movs	r2, #83
 316 0034 5A62     		str	r2, [r3, #36]
 291:Drivers/STM32L4xx_HAL_Driver/Src/stm32l4xx_hal_rtc_ex.c **** 
 292:Drivers/STM32L4xx_HAL_Driver/Src/stm32l4xx_hal_rtc_ex.c ****   /* In case of interrupt mode is used, the interrupt source must disabled */
 293:Drivers/STM32L4xx_HAL_Driver/Src/stm32l4xx_hal_rtc_ex.c ****   __HAL_RTC_TIMESTAMP_DISABLE_IT(hrtc, RTC_IT_TS);
 317              		.loc 1 293 3
 318 0036 7B68     		ldr	r3, [r7, #4]
 319 0038 1B68     		ldr	r3, [r3]
 320 003a 9A68     		ldr	r2, [r3, #8]
 321 003c 7B68     		ldr	r3, [r7, #4]
 322 003e 1B68     		ldr	r3, [r3]
 323 0040 22F40042 		bic	r2, r2, #32768
 324 0044 9A60     		str	r2, [r3, #8]
 294:Drivers/STM32L4xx_HAL_Driver/Src/stm32l4xx_hal_rtc_ex.c **** 
 295:Drivers/STM32L4xx_HAL_Driver/Src/stm32l4xx_hal_rtc_ex.c ****   /* Get the RTC_CR register and clear the bits to be configured */
 296:Drivers/STM32L4xx_HAL_Driver/Src/stm32l4xx_hal_rtc_ex.c ****   tmpreg = (uint32_t)(hrtc->Instance->CR & (uint32_t)~(RTC_CR_TSEDGE | RTC_CR_TSE));
 325              		.loc 1 296 27
 326 0046 7B68     		ldr	r3, [r7, #4]
 327 0048 1B68     		ldr	r3, [r3]
 328              		.loc 1 296 37
 329 004a 9B68     		ldr	r3, [r3, #8]
 330              		.loc 1 296 10
 331 004c 23F40063 		bic	r3, r3, #2048
 332 0050 23F00803 		bic	r3, r3, #8
 333 0054 FB60     		str	r3, [r7, #12]
 297:Drivers/STM32L4xx_HAL_Driver/Src/stm32l4xx_hal_rtc_ex.c **** 
 298:Drivers/STM32L4xx_HAL_Driver/Src/stm32l4xx_hal_rtc_ex.c ****   /* Configure the Time Stamp TSEDGE and Enable bits */
 299:Drivers/STM32L4xx_HAL_Driver/Src/stm32l4xx_hal_rtc_ex.c ****   hrtc->Instance->CR = (uint32_t)tmpreg;
 334              		.loc 1 299 7
ARM GAS  /tmp/cchDTGWe.s 			page 12


 335 0056 7B68     		ldr	r3, [r7, #4]
 336 0058 1B68     		ldr	r3, [r3]
 337              		.loc 1 299 22
 338 005a FA68     		ldr	r2, [r7, #12]
 339 005c 9A60     		str	r2, [r3, #8]
 300:Drivers/STM32L4xx_HAL_Driver/Src/stm32l4xx_hal_rtc_ex.c **** 
 301:Drivers/STM32L4xx_HAL_Driver/Src/stm32l4xx_hal_rtc_ex.c ****   /* Enable the write protection for RTC registers */
 302:Drivers/STM32L4xx_HAL_Driver/Src/stm32l4xx_hal_rtc_ex.c ****   __HAL_RTC_WRITEPROTECTION_ENABLE(hrtc);
 340              		.loc 1 302 3
 341 005e 7B68     		ldr	r3, [r7, #4]
 342 0060 1B68     		ldr	r3, [r3]
 343 0062 FF22     		movs	r2, #255
 344 0064 5A62     		str	r2, [r3, #36]
 303:Drivers/STM32L4xx_HAL_Driver/Src/stm32l4xx_hal_rtc_ex.c **** 
 304:Drivers/STM32L4xx_HAL_Driver/Src/stm32l4xx_hal_rtc_ex.c ****   hrtc->State = HAL_RTC_STATE_READY;
 345              		.loc 1 304 15
 346 0066 7B68     		ldr	r3, [r7, #4]
 347 0068 0122     		movs	r2, #1
 348 006a 83F82120 		strb	r2, [r3, #33]
 305:Drivers/STM32L4xx_HAL_Driver/Src/stm32l4xx_hal_rtc_ex.c **** 
 306:Drivers/STM32L4xx_HAL_Driver/Src/stm32l4xx_hal_rtc_ex.c ****   /* Process Unlocked */
 307:Drivers/STM32L4xx_HAL_Driver/Src/stm32l4xx_hal_rtc_ex.c ****   __HAL_UNLOCK(hrtc);
 349              		.loc 1 307 3
 350 006e 7B68     		ldr	r3, [r7, #4]
 351 0070 0022     		movs	r2, #0
 352 0072 83F82020 		strb	r2, [r3, #32]
 308:Drivers/STM32L4xx_HAL_Driver/Src/stm32l4xx_hal_rtc_ex.c **** 
 309:Drivers/STM32L4xx_HAL_Driver/Src/stm32l4xx_hal_rtc_ex.c ****   return HAL_OK;
 353              		.loc 1 309 10
 354 0076 0023     		movs	r3, #0
 355              	.L11:
 310:Drivers/STM32L4xx_HAL_Driver/Src/stm32l4xx_hal_rtc_ex.c **** }
 356              		.loc 1 310 1
 357 0078 1846     		mov	r0, r3
 358 007a 1437     		adds	r7, r7, #20
 359              		.cfi_def_cfa_offset 4
 360 007c BD46     		mov	sp, r7
 361              		.cfi_def_cfa_register 13
 362              		@ sp needed
 363 007e 5DF8047B 		ldr	r7, [sp], #4
 364              		.cfi_restore 7
 365              		.cfi_def_cfa_offset 0
 366 0082 7047     		bx	lr
 367              		.cfi_endproc
 368              	.LFE447:
 370              		.section	.text.HAL_RTCEx_SetInternalTimeStamp,"ax",%progbits
 371              		.align	1
 372              		.global	HAL_RTCEx_SetInternalTimeStamp
 373              		.syntax unified
 374              		.thumb
 375              		.thumb_func
 377              	HAL_RTCEx_SetInternalTimeStamp:
 378              	.LFB448:
 311:Drivers/STM32L4xx_HAL_Driver/Src/stm32l4xx_hal_rtc_ex.c **** 
 312:Drivers/STM32L4xx_HAL_Driver/Src/stm32l4xx_hal_rtc_ex.c **** /**
 313:Drivers/STM32L4xx_HAL_Driver/Src/stm32l4xx_hal_rtc_ex.c ****   * @brief  Set Internal TimeStamp.
 314:Drivers/STM32L4xx_HAL_Driver/Src/stm32l4xx_hal_rtc_ex.c ****   * @note   This API must be called before enabling the internal TimeStamp feature.
ARM GAS  /tmp/cchDTGWe.s 			page 13


 315:Drivers/STM32L4xx_HAL_Driver/Src/stm32l4xx_hal_rtc_ex.c ****   * @param  hrtc RTC handle
 316:Drivers/STM32L4xx_HAL_Driver/Src/stm32l4xx_hal_rtc_ex.c ****   * @retval HAL status
 317:Drivers/STM32L4xx_HAL_Driver/Src/stm32l4xx_hal_rtc_ex.c ****   */
 318:Drivers/STM32L4xx_HAL_Driver/Src/stm32l4xx_hal_rtc_ex.c **** HAL_StatusTypeDef HAL_RTCEx_SetInternalTimeStamp(RTC_HandleTypeDef *hrtc)
 319:Drivers/STM32L4xx_HAL_Driver/Src/stm32l4xx_hal_rtc_ex.c **** {
 379              		.loc 1 319 1
 380              		.cfi_startproc
 381              		@ args = 0, pretend = 0, frame = 8
 382              		@ frame_needed = 1, uses_anonymous_args = 0
 383              		@ link register save eliminated.
 384 0000 80B4     		push	{r7}
 385              		.cfi_def_cfa_offset 4
 386              		.cfi_offset 7, -4
 387 0002 83B0     		sub	sp, sp, #12
 388              		.cfi_def_cfa_offset 16
 389 0004 00AF     		add	r7, sp, #0
 390              		.cfi_def_cfa_register 7
 391 0006 7860     		str	r0, [r7, #4]
 320:Drivers/STM32L4xx_HAL_Driver/Src/stm32l4xx_hal_rtc_ex.c ****   /* Process Locked */
 321:Drivers/STM32L4xx_HAL_Driver/Src/stm32l4xx_hal_rtc_ex.c ****   __HAL_LOCK(hrtc);
 392              		.loc 1 321 3
 393 0008 7B68     		ldr	r3, [r7, #4]
 394 000a 93F82030 		ldrb	r3, [r3, #32]	@ zero_extendqisi2
 395 000e 012B     		cmp	r3, #1
 396 0010 01D1     		bne	.L13
 397              		.loc 1 321 3 is_stmt 0 discriminator 1
 398 0012 0223     		movs	r3, #2
 399              		.loc 1 321 3
 400 0014 24E0     		b	.L14
 401              	.L13:
 402              		.loc 1 321 3 discriminator 2
 403 0016 7B68     		ldr	r3, [r7, #4]
 404 0018 0122     		movs	r2, #1
 405 001a 83F82020 		strb	r2, [r3, #32]
 322:Drivers/STM32L4xx_HAL_Driver/Src/stm32l4xx_hal_rtc_ex.c **** 
 323:Drivers/STM32L4xx_HAL_Driver/Src/stm32l4xx_hal_rtc_ex.c ****   hrtc->State = HAL_RTC_STATE_BUSY;
 406              		.loc 1 323 15 is_stmt 1
 407 001e 7B68     		ldr	r3, [r7, #4]
 408 0020 0222     		movs	r2, #2
 409 0022 83F82120 		strb	r2, [r3, #33]
 324:Drivers/STM32L4xx_HAL_Driver/Src/stm32l4xx_hal_rtc_ex.c **** 
 325:Drivers/STM32L4xx_HAL_Driver/Src/stm32l4xx_hal_rtc_ex.c ****   /* Disable the write protection for RTC registers */
 326:Drivers/STM32L4xx_HAL_Driver/Src/stm32l4xx_hal_rtc_ex.c ****   __HAL_RTC_WRITEPROTECTION_DISABLE(hrtc);
 410              		.loc 1 326 3
 411 0026 7B68     		ldr	r3, [r7, #4]
 412 0028 1B68     		ldr	r3, [r3]
 413 002a CA22     		movs	r2, #202
 414 002c 5A62     		str	r2, [r3, #36]
 415 002e 7B68     		ldr	r3, [r7, #4]
 416 0030 1B68     		ldr	r3, [r3]
 417 0032 5322     		movs	r2, #83
 418 0034 5A62     		str	r2, [r3, #36]
 327:Drivers/STM32L4xx_HAL_Driver/Src/stm32l4xx_hal_rtc_ex.c **** 
 328:Drivers/STM32L4xx_HAL_Driver/Src/stm32l4xx_hal_rtc_ex.c ****   /* Configure the internal Time Stamp Enable bits */
 329:Drivers/STM32L4xx_HAL_Driver/Src/stm32l4xx_hal_rtc_ex.c ****   __HAL_RTC_INTERNAL_TIMESTAMP_ENABLE(hrtc);
 419              		.loc 1 329 3
 420 0036 7B68     		ldr	r3, [r7, #4]
ARM GAS  /tmp/cchDTGWe.s 			page 14


 421 0038 1B68     		ldr	r3, [r3]
 422 003a 9A68     		ldr	r2, [r3, #8]
 423 003c 7B68     		ldr	r3, [r7, #4]
 424 003e 1B68     		ldr	r3, [r3]
 425 0040 42F08072 		orr	r2, r2, #16777216
 426 0044 9A60     		str	r2, [r3, #8]
 330:Drivers/STM32L4xx_HAL_Driver/Src/stm32l4xx_hal_rtc_ex.c **** 
 331:Drivers/STM32L4xx_HAL_Driver/Src/stm32l4xx_hal_rtc_ex.c ****   /* Enable the write protection for RTC registers */
 332:Drivers/STM32L4xx_HAL_Driver/Src/stm32l4xx_hal_rtc_ex.c ****   __HAL_RTC_WRITEPROTECTION_ENABLE(hrtc);
 427              		.loc 1 332 3
 428 0046 7B68     		ldr	r3, [r7, #4]
 429 0048 1B68     		ldr	r3, [r3]
 430 004a FF22     		movs	r2, #255
 431 004c 5A62     		str	r2, [r3, #36]
 333:Drivers/STM32L4xx_HAL_Driver/Src/stm32l4xx_hal_rtc_ex.c **** 
 334:Drivers/STM32L4xx_HAL_Driver/Src/stm32l4xx_hal_rtc_ex.c ****   /* Change RTC state */
 335:Drivers/STM32L4xx_HAL_Driver/Src/stm32l4xx_hal_rtc_ex.c ****   hrtc->State = HAL_RTC_STATE_READY;
 432              		.loc 1 335 15
 433 004e 7B68     		ldr	r3, [r7, #4]
 434 0050 0122     		movs	r2, #1
 435 0052 83F82120 		strb	r2, [r3, #33]
 336:Drivers/STM32L4xx_HAL_Driver/Src/stm32l4xx_hal_rtc_ex.c **** 
 337:Drivers/STM32L4xx_HAL_Driver/Src/stm32l4xx_hal_rtc_ex.c ****   /* Process Unlocked */
 338:Drivers/STM32L4xx_HAL_Driver/Src/stm32l4xx_hal_rtc_ex.c ****   __HAL_UNLOCK(hrtc);
 436              		.loc 1 338 3
 437 0056 7B68     		ldr	r3, [r7, #4]
 438 0058 0022     		movs	r2, #0
 439 005a 83F82020 		strb	r2, [r3, #32]
 339:Drivers/STM32L4xx_HAL_Driver/Src/stm32l4xx_hal_rtc_ex.c **** 
 340:Drivers/STM32L4xx_HAL_Driver/Src/stm32l4xx_hal_rtc_ex.c ****   return HAL_OK;
 440              		.loc 1 340 10
 441 005e 0023     		movs	r3, #0
 442              	.L14:
 341:Drivers/STM32L4xx_HAL_Driver/Src/stm32l4xx_hal_rtc_ex.c **** }
 443              		.loc 1 341 1
 444 0060 1846     		mov	r0, r3
 445 0062 0C37     		adds	r7, r7, #12
 446              		.cfi_def_cfa_offset 4
 447 0064 BD46     		mov	sp, r7
 448              		.cfi_def_cfa_register 13
 449              		@ sp needed
 450 0066 5DF8047B 		ldr	r7, [sp], #4
 451              		.cfi_restore 7
 452              		.cfi_def_cfa_offset 0
 453 006a 7047     		bx	lr
 454              		.cfi_endproc
 455              	.LFE448:
 457              		.section	.text.HAL_RTCEx_DeactivateInternalTimeStamp,"ax",%progbits
 458              		.align	1
 459              		.global	HAL_RTCEx_DeactivateInternalTimeStamp
 460              		.syntax unified
 461              		.thumb
 462              		.thumb_func
 464              	HAL_RTCEx_DeactivateInternalTimeStamp:
 465              	.LFB449:
 342:Drivers/STM32L4xx_HAL_Driver/Src/stm32l4xx_hal_rtc_ex.c **** 
 343:Drivers/STM32L4xx_HAL_Driver/Src/stm32l4xx_hal_rtc_ex.c **** /**
ARM GAS  /tmp/cchDTGWe.s 			page 15


 344:Drivers/STM32L4xx_HAL_Driver/Src/stm32l4xx_hal_rtc_ex.c ****   * @brief  Deactivate Internal TimeStamp.
 345:Drivers/STM32L4xx_HAL_Driver/Src/stm32l4xx_hal_rtc_ex.c ****   * @param  hrtc RTC handle
 346:Drivers/STM32L4xx_HAL_Driver/Src/stm32l4xx_hal_rtc_ex.c ****   * @retval HAL status
 347:Drivers/STM32L4xx_HAL_Driver/Src/stm32l4xx_hal_rtc_ex.c ****   */
 348:Drivers/STM32L4xx_HAL_Driver/Src/stm32l4xx_hal_rtc_ex.c **** HAL_StatusTypeDef HAL_RTCEx_DeactivateInternalTimeStamp(RTC_HandleTypeDef *hrtc)
 349:Drivers/STM32L4xx_HAL_Driver/Src/stm32l4xx_hal_rtc_ex.c **** {
 466              		.loc 1 349 1
 467              		.cfi_startproc
 468              		@ args = 0, pretend = 0, frame = 8
 469              		@ frame_needed = 1, uses_anonymous_args = 0
 470              		@ link register save eliminated.
 471 0000 80B4     		push	{r7}
 472              		.cfi_def_cfa_offset 4
 473              		.cfi_offset 7, -4
 474 0002 83B0     		sub	sp, sp, #12
 475              		.cfi_def_cfa_offset 16
 476 0004 00AF     		add	r7, sp, #0
 477              		.cfi_def_cfa_register 7
 478 0006 7860     		str	r0, [r7, #4]
 350:Drivers/STM32L4xx_HAL_Driver/Src/stm32l4xx_hal_rtc_ex.c ****   /* Process Locked */
 351:Drivers/STM32L4xx_HAL_Driver/Src/stm32l4xx_hal_rtc_ex.c ****   __HAL_LOCK(hrtc);
 479              		.loc 1 351 3
 480 0008 7B68     		ldr	r3, [r7, #4]
 481 000a 93F82030 		ldrb	r3, [r3, #32]	@ zero_extendqisi2
 482 000e 012B     		cmp	r3, #1
 483 0010 01D1     		bne	.L16
 484              		.loc 1 351 3 is_stmt 0 discriminator 1
 485 0012 0223     		movs	r3, #2
 486              		.loc 1 351 3
 487 0014 24E0     		b	.L17
 488              	.L16:
 489              		.loc 1 351 3 discriminator 2
 490 0016 7B68     		ldr	r3, [r7, #4]
 491 0018 0122     		movs	r2, #1
 492 001a 83F82020 		strb	r2, [r3, #32]
 352:Drivers/STM32L4xx_HAL_Driver/Src/stm32l4xx_hal_rtc_ex.c **** 
 353:Drivers/STM32L4xx_HAL_Driver/Src/stm32l4xx_hal_rtc_ex.c ****   hrtc->State = HAL_RTC_STATE_BUSY;
 493              		.loc 1 353 15 is_stmt 1
 494 001e 7B68     		ldr	r3, [r7, #4]
 495 0020 0222     		movs	r2, #2
 496 0022 83F82120 		strb	r2, [r3, #33]
 354:Drivers/STM32L4xx_HAL_Driver/Src/stm32l4xx_hal_rtc_ex.c **** 
 355:Drivers/STM32L4xx_HAL_Driver/Src/stm32l4xx_hal_rtc_ex.c ****   /* Disable the write protection for RTC registers */
 356:Drivers/STM32L4xx_HAL_Driver/Src/stm32l4xx_hal_rtc_ex.c ****   __HAL_RTC_WRITEPROTECTION_DISABLE(hrtc);
 497              		.loc 1 356 3
 498 0026 7B68     		ldr	r3, [r7, #4]
 499 0028 1B68     		ldr	r3, [r3]
 500 002a CA22     		movs	r2, #202
 501 002c 5A62     		str	r2, [r3, #36]
 502 002e 7B68     		ldr	r3, [r7, #4]
 503 0030 1B68     		ldr	r3, [r3]
 504 0032 5322     		movs	r2, #83
 505 0034 5A62     		str	r2, [r3, #36]
 357:Drivers/STM32L4xx_HAL_Driver/Src/stm32l4xx_hal_rtc_ex.c **** 
 358:Drivers/STM32L4xx_HAL_Driver/Src/stm32l4xx_hal_rtc_ex.c ****   /* Configure the internal Time Stamp Enable bits */
 359:Drivers/STM32L4xx_HAL_Driver/Src/stm32l4xx_hal_rtc_ex.c ****   __HAL_RTC_INTERNAL_TIMESTAMP_DISABLE(hrtc);
 506              		.loc 1 359 3
ARM GAS  /tmp/cchDTGWe.s 			page 16


 507 0036 7B68     		ldr	r3, [r7, #4]
 508 0038 1B68     		ldr	r3, [r3]
 509 003a 9A68     		ldr	r2, [r3, #8]
 510 003c 7B68     		ldr	r3, [r7, #4]
 511 003e 1B68     		ldr	r3, [r3]
 512 0040 22F08072 		bic	r2, r2, #16777216
 513 0044 9A60     		str	r2, [r3, #8]
 360:Drivers/STM32L4xx_HAL_Driver/Src/stm32l4xx_hal_rtc_ex.c **** 
 361:Drivers/STM32L4xx_HAL_Driver/Src/stm32l4xx_hal_rtc_ex.c ****   /* Enable the write protection for RTC registers */
 362:Drivers/STM32L4xx_HAL_Driver/Src/stm32l4xx_hal_rtc_ex.c ****   __HAL_RTC_WRITEPROTECTION_ENABLE(hrtc);
 514              		.loc 1 362 3
 515 0046 7B68     		ldr	r3, [r7, #4]
 516 0048 1B68     		ldr	r3, [r3]
 517 004a FF22     		movs	r2, #255
 518 004c 5A62     		str	r2, [r3, #36]
 363:Drivers/STM32L4xx_HAL_Driver/Src/stm32l4xx_hal_rtc_ex.c **** 
 364:Drivers/STM32L4xx_HAL_Driver/Src/stm32l4xx_hal_rtc_ex.c ****   hrtc->State = HAL_RTC_STATE_READY;
 519              		.loc 1 364 15
 520 004e 7B68     		ldr	r3, [r7, #4]
 521 0050 0122     		movs	r2, #1
 522 0052 83F82120 		strb	r2, [r3, #33]
 365:Drivers/STM32L4xx_HAL_Driver/Src/stm32l4xx_hal_rtc_ex.c **** 
 366:Drivers/STM32L4xx_HAL_Driver/Src/stm32l4xx_hal_rtc_ex.c ****   /* Process Unlocked */
 367:Drivers/STM32L4xx_HAL_Driver/Src/stm32l4xx_hal_rtc_ex.c ****   __HAL_UNLOCK(hrtc);
 523              		.loc 1 367 3
 524 0056 7B68     		ldr	r3, [r7, #4]
 525 0058 0022     		movs	r2, #0
 526 005a 83F82020 		strb	r2, [r3, #32]
 368:Drivers/STM32L4xx_HAL_Driver/Src/stm32l4xx_hal_rtc_ex.c **** 
 369:Drivers/STM32L4xx_HAL_Driver/Src/stm32l4xx_hal_rtc_ex.c ****   return HAL_OK;
 527              		.loc 1 369 10
 528 005e 0023     		movs	r3, #0
 529              	.L17:
 370:Drivers/STM32L4xx_HAL_Driver/Src/stm32l4xx_hal_rtc_ex.c **** }
 530              		.loc 1 370 1
 531 0060 1846     		mov	r0, r3
 532 0062 0C37     		adds	r7, r7, #12
 533              		.cfi_def_cfa_offset 4
 534 0064 BD46     		mov	sp, r7
 535              		.cfi_def_cfa_register 13
 536              		@ sp needed
 537 0066 5DF8047B 		ldr	r7, [sp], #4
 538              		.cfi_restore 7
 539              		.cfi_def_cfa_offset 0
 540 006a 7047     		bx	lr
 541              		.cfi_endproc
 542              	.LFE449:
 544              		.section	.text.HAL_RTCEx_GetTimeStamp,"ax",%progbits
 545              		.align	1
 546              		.global	HAL_RTCEx_GetTimeStamp
 547              		.syntax unified
 548              		.thumb
 549              		.thumb_func
 551              	HAL_RTCEx_GetTimeStamp:
 552              	.LFB450:
 371:Drivers/STM32L4xx_HAL_Driver/Src/stm32l4xx_hal_rtc_ex.c **** 
 372:Drivers/STM32L4xx_HAL_Driver/Src/stm32l4xx_hal_rtc_ex.c **** #if defined (STM32L4P5xx) || defined (STM32L4Q5xx)
ARM GAS  /tmp/cchDTGWe.s 			page 17


 373:Drivers/STM32L4xx_HAL_Driver/Src/stm32l4xx_hal_rtc_ex.c **** /**
 374:Drivers/STM32L4xx_HAL_Driver/Src/stm32l4xx_hal_rtc_ex.c ****   * @brief  Get the RTC TimeStamp value.
 375:Drivers/STM32L4xx_HAL_Driver/Src/stm32l4xx_hal_rtc_ex.c ****   * @param  hrtc RTC handle
 376:Drivers/STM32L4xx_HAL_Driver/Src/stm32l4xx_hal_rtc_ex.c ****   * @param  sTimeStamp Pointer to Time structure
 377:Drivers/STM32L4xx_HAL_Driver/Src/stm32l4xx_hal_rtc_ex.c ****   *          if BinMode = RTC_BINARY_ONLY, sTimeStamp->SubSeconds only is used
 378:Drivers/STM32L4xx_HAL_Driver/Src/stm32l4xx_hal_rtc_ex.c ****   * @param  sTimeStampDate Pointer to Date structure
 379:Drivers/STM32L4xx_HAL_Driver/Src/stm32l4xx_hal_rtc_ex.c ****   *          if BinMode = RTC_BINARY_ONLY, this parameter is not used.
 380:Drivers/STM32L4xx_HAL_Driver/Src/stm32l4xx_hal_rtc_ex.c ****   * @param  Format specifies the format of the entered parameters.
 381:Drivers/STM32L4xx_HAL_Driver/Src/stm32l4xx_hal_rtc_ex.c ****   *          if BinMode = RTC_BINARY_ONLY, this parameter is not used
 382:Drivers/STM32L4xx_HAL_Driver/Src/stm32l4xx_hal_rtc_ex.c ****   *          else this parameter can be one of the following values
 383:Drivers/STM32L4xx_HAL_Driver/Src/stm32l4xx_hal_rtc_ex.c ****   *             @arg RTC_FORMAT_BIN: Binary data format
 384:Drivers/STM32L4xx_HAL_Driver/Src/stm32l4xx_hal_rtc_ex.c ****   *             @arg RTC_FORMAT_BCD: BCD data format
 385:Drivers/STM32L4xx_HAL_Driver/Src/stm32l4xx_hal_rtc_ex.c ****   * @retval HAL status
 386:Drivers/STM32L4xx_HAL_Driver/Src/stm32l4xx_hal_rtc_ex.c ****   */
 387:Drivers/STM32L4xx_HAL_Driver/Src/stm32l4xx_hal_rtc_ex.c **** HAL_StatusTypeDef HAL_RTCEx_GetTimeStamp(RTC_HandleTypeDef *hrtc, RTC_TimeTypeDef *sTimeStamp, RTC_
 388:Drivers/STM32L4xx_HAL_Driver/Src/stm32l4xx_hal_rtc_ex.c **** {
 389:Drivers/STM32L4xx_HAL_Driver/Src/stm32l4xx_hal_rtc_ex.c ****   uint32_t tmptime, tmpdate;
 390:Drivers/STM32L4xx_HAL_Driver/Src/stm32l4xx_hal_rtc_ex.c ****   UNUSED(hrtc);
 391:Drivers/STM32L4xx_HAL_Driver/Src/stm32l4xx_hal_rtc_ex.c **** 
 392:Drivers/STM32L4xx_HAL_Driver/Src/stm32l4xx_hal_rtc_ex.c ****   sTimeStamp->SubSeconds = READ_REG(RTC->TSSSR);
 393:Drivers/STM32L4xx_HAL_Driver/Src/stm32l4xx_hal_rtc_ex.c ****   if (READ_BIT(RTC->ICSR, RTC_ICSR_BIN) != RTC_BINARY_ONLY)
 394:Drivers/STM32L4xx_HAL_Driver/Src/stm32l4xx_hal_rtc_ex.c ****   {
 395:Drivers/STM32L4xx_HAL_Driver/Src/stm32l4xx_hal_rtc_ex.c ****     /* Check the parameters */
 396:Drivers/STM32L4xx_HAL_Driver/Src/stm32l4xx_hal_rtc_ex.c ****     assert_param(IS_RTC_FORMAT(Format));
 397:Drivers/STM32L4xx_HAL_Driver/Src/stm32l4xx_hal_rtc_ex.c **** 
 398:Drivers/STM32L4xx_HAL_Driver/Src/stm32l4xx_hal_rtc_ex.c ****     /* Get the TimeStamp time and date registers values */
 399:Drivers/STM32L4xx_HAL_Driver/Src/stm32l4xx_hal_rtc_ex.c ****     tmptime = READ_BIT(RTC->TSTR, RTC_TR_RESERVED_MASK);
 400:Drivers/STM32L4xx_HAL_Driver/Src/stm32l4xx_hal_rtc_ex.c ****     tmpdate = READ_BIT(RTC->TSDR, RTC_DR_RESERVED_MASK);
 401:Drivers/STM32L4xx_HAL_Driver/Src/stm32l4xx_hal_rtc_ex.c **** 
 402:Drivers/STM32L4xx_HAL_Driver/Src/stm32l4xx_hal_rtc_ex.c ****     /* Fill the Time structure fields with the read parameters */
 403:Drivers/STM32L4xx_HAL_Driver/Src/stm32l4xx_hal_rtc_ex.c ****     sTimeStamp->Hours = (uint8_t)((tmptime & (RTC_TSTR_HT | RTC_TSTR_HU)) >> RTC_TSTR_HU_Pos);
 404:Drivers/STM32L4xx_HAL_Driver/Src/stm32l4xx_hal_rtc_ex.c ****     sTimeStamp->Minutes = (uint8_t)((tmptime & (RTC_TSTR_MNT | RTC_TSTR_MNU)) >> RTC_TSTR_MNU_Pos);
 405:Drivers/STM32L4xx_HAL_Driver/Src/stm32l4xx_hal_rtc_ex.c ****     sTimeStamp->Seconds = (uint8_t)((tmptime & (RTC_TSTR_ST | RTC_TSTR_SU)) >> RTC_TSTR_SU_Pos);
 406:Drivers/STM32L4xx_HAL_Driver/Src/stm32l4xx_hal_rtc_ex.c ****     sTimeStamp->TimeFormat = (uint8_t)((tmptime & (RTC_TSTR_PM)) >> RTC_TSTR_PM_Pos);
 407:Drivers/STM32L4xx_HAL_Driver/Src/stm32l4xx_hal_rtc_ex.c ****     sTimeStamp->SubSeconds = READ_BIT(RTC->TSSSR, RTC_TSSSR_SS);
 408:Drivers/STM32L4xx_HAL_Driver/Src/stm32l4xx_hal_rtc_ex.c **** 
 409:Drivers/STM32L4xx_HAL_Driver/Src/stm32l4xx_hal_rtc_ex.c ****     /* Fill the Date structure fields with the read parameters */
 410:Drivers/STM32L4xx_HAL_Driver/Src/stm32l4xx_hal_rtc_ex.c ****     sTimeStampDate->Year = 0U;
 411:Drivers/STM32L4xx_HAL_Driver/Src/stm32l4xx_hal_rtc_ex.c ****     sTimeStampDate->Month = (uint8_t)((tmpdate & (RTC_TSDR_MT | RTC_TSDR_MU)) >> RTC_TSDR_MU_Pos);
 412:Drivers/STM32L4xx_HAL_Driver/Src/stm32l4xx_hal_rtc_ex.c ****     sTimeStampDate->Date = (uint8_t)(tmpdate & (RTC_TSDR_DT | RTC_TSDR_DU));
 413:Drivers/STM32L4xx_HAL_Driver/Src/stm32l4xx_hal_rtc_ex.c ****     sTimeStampDate->WeekDay = (uint8_t)((tmpdate & (RTC_TSDR_WDU)) >> RTC_TSDR_WDU_Pos);
 414:Drivers/STM32L4xx_HAL_Driver/Src/stm32l4xx_hal_rtc_ex.c **** 
 415:Drivers/STM32L4xx_HAL_Driver/Src/stm32l4xx_hal_rtc_ex.c ****     /* Check the input parameters format */
 416:Drivers/STM32L4xx_HAL_Driver/Src/stm32l4xx_hal_rtc_ex.c ****     if (Format == RTC_FORMAT_BIN)
 417:Drivers/STM32L4xx_HAL_Driver/Src/stm32l4xx_hal_rtc_ex.c ****     {
 418:Drivers/STM32L4xx_HAL_Driver/Src/stm32l4xx_hal_rtc_ex.c ****       /* Convert the TimeStamp structure parameters to Binary format */
 419:Drivers/STM32L4xx_HAL_Driver/Src/stm32l4xx_hal_rtc_ex.c ****       sTimeStamp->Hours = (uint8_t)RTC_Bcd2ToByte(sTimeStamp->Hours);
 420:Drivers/STM32L4xx_HAL_Driver/Src/stm32l4xx_hal_rtc_ex.c ****       sTimeStamp->Minutes = (uint8_t)RTC_Bcd2ToByte(sTimeStamp->Minutes);
 421:Drivers/STM32L4xx_HAL_Driver/Src/stm32l4xx_hal_rtc_ex.c ****       sTimeStamp->Seconds = (uint8_t)RTC_Bcd2ToByte(sTimeStamp->Seconds);
 422:Drivers/STM32L4xx_HAL_Driver/Src/stm32l4xx_hal_rtc_ex.c **** 
 423:Drivers/STM32L4xx_HAL_Driver/Src/stm32l4xx_hal_rtc_ex.c ****       /* Convert the DateTimeStamp structure parameters to Binary format */
 424:Drivers/STM32L4xx_HAL_Driver/Src/stm32l4xx_hal_rtc_ex.c ****       sTimeStampDate->Month = (uint8_t)RTC_Bcd2ToByte(sTimeStampDate->Month);
 425:Drivers/STM32L4xx_HAL_Driver/Src/stm32l4xx_hal_rtc_ex.c ****       sTimeStampDate->Date = (uint8_t)RTC_Bcd2ToByte(sTimeStampDate->Date);
 426:Drivers/STM32L4xx_HAL_Driver/Src/stm32l4xx_hal_rtc_ex.c ****       sTimeStampDate->WeekDay = (uint8_t)RTC_Bcd2ToByte(sTimeStampDate->WeekDay);
 427:Drivers/STM32L4xx_HAL_Driver/Src/stm32l4xx_hal_rtc_ex.c ****     }
 428:Drivers/STM32L4xx_HAL_Driver/Src/stm32l4xx_hal_rtc_ex.c ****   }
 429:Drivers/STM32L4xx_HAL_Driver/Src/stm32l4xx_hal_rtc_ex.c **** 
ARM GAS  /tmp/cchDTGWe.s 			page 18


 430:Drivers/STM32L4xx_HAL_Driver/Src/stm32l4xx_hal_rtc_ex.c ****   /* Clear the TIMESTAMP Flags */
 431:Drivers/STM32L4xx_HAL_Driver/Src/stm32l4xx_hal_rtc_ex.c ****   WRITE_REG(RTC->SCR, (RTC_SCR_CITSF | RTC_SCR_CTSF));
 432:Drivers/STM32L4xx_HAL_Driver/Src/stm32l4xx_hal_rtc_ex.c **** 
 433:Drivers/STM32L4xx_HAL_Driver/Src/stm32l4xx_hal_rtc_ex.c ****   return HAL_OK;
 434:Drivers/STM32L4xx_HAL_Driver/Src/stm32l4xx_hal_rtc_ex.c **** }
 435:Drivers/STM32L4xx_HAL_Driver/Src/stm32l4xx_hal_rtc_ex.c **** #else /* #if defined (STM32L4P5xx) || defined (STM32L4Q5xx) */
 436:Drivers/STM32L4xx_HAL_Driver/Src/stm32l4xx_hal_rtc_ex.c **** 
 437:Drivers/STM32L4xx_HAL_Driver/Src/stm32l4xx_hal_rtc_ex.c **** /**
 438:Drivers/STM32L4xx_HAL_Driver/Src/stm32l4xx_hal_rtc_ex.c ****   * @brief  Get the RTC TimeStamp value.
 439:Drivers/STM32L4xx_HAL_Driver/Src/stm32l4xx_hal_rtc_ex.c ****   * @param  hrtc RTC handle
 440:Drivers/STM32L4xx_HAL_Driver/Src/stm32l4xx_hal_rtc_ex.c ****   * @param  sTimeStamp Pointer to Time structure
 441:Drivers/STM32L4xx_HAL_Driver/Src/stm32l4xx_hal_rtc_ex.c ****   * @param  sTimeStampDate Pointer to Date structure
 442:Drivers/STM32L4xx_HAL_Driver/Src/stm32l4xx_hal_rtc_ex.c ****   * @param  Format specifies the format of the entered parameters.
 443:Drivers/STM32L4xx_HAL_Driver/Src/stm32l4xx_hal_rtc_ex.c ****   *          This parameter can be one of the following values:
 444:Drivers/STM32L4xx_HAL_Driver/Src/stm32l4xx_hal_rtc_ex.c ****   *             @arg RTC_FORMAT_BIN: Binary data format
 445:Drivers/STM32L4xx_HAL_Driver/Src/stm32l4xx_hal_rtc_ex.c ****   *             @arg RTC_FORMAT_BCD: BCD data format
 446:Drivers/STM32L4xx_HAL_Driver/Src/stm32l4xx_hal_rtc_ex.c ****   * @retval HAL status
 447:Drivers/STM32L4xx_HAL_Driver/Src/stm32l4xx_hal_rtc_ex.c ****   */
 448:Drivers/STM32L4xx_HAL_Driver/Src/stm32l4xx_hal_rtc_ex.c **** HAL_StatusTypeDef HAL_RTCEx_GetTimeStamp(RTC_HandleTypeDef *hrtc, RTC_TimeTypeDef *sTimeStamp, RTC_
 449:Drivers/STM32L4xx_HAL_Driver/Src/stm32l4xx_hal_rtc_ex.c **** {
 553              		.loc 1 449 1
 554              		.cfi_startproc
 555              		@ args = 0, pretend = 0, frame = 24
 556              		@ frame_needed = 1, uses_anonymous_args = 0
 557 0000 80B5     		push	{r7, lr}
 558              		.cfi_def_cfa_offset 8
 559              		.cfi_offset 7, -8
 560              		.cfi_offset 14, -4
 561 0002 86B0     		sub	sp, sp, #24
 562              		.cfi_def_cfa_offset 32
 563 0004 00AF     		add	r7, sp, #0
 564              		.cfi_def_cfa_register 7
 565 0006 F860     		str	r0, [r7, #12]
 566 0008 B960     		str	r1, [r7, #8]
 567 000a 7A60     		str	r2, [r7, #4]
 568 000c 3B60     		str	r3, [r7]
 450:Drivers/STM32L4xx_HAL_Driver/Src/stm32l4xx_hal_rtc_ex.c ****   uint32_t tmptime, tmpdate;
 451:Drivers/STM32L4xx_HAL_Driver/Src/stm32l4xx_hal_rtc_ex.c **** 
 452:Drivers/STM32L4xx_HAL_Driver/Src/stm32l4xx_hal_rtc_ex.c ****   /* Check the parameters */
 453:Drivers/STM32L4xx_HAL_Driver/Src/stm32l4xx_hal_rtc_ex.c ****   assert_param(IS_RTC_FORMAT(Format));
 454:Drivers/STM32L4xx_HAL_Driver/Src/stm32l4xx_hal_rtc_ex.c **** 
 455:Drivers/STM32L4xx_HAL_Driver/Src/stm32l4xx_hal_rtc_ex.c ****   /* Get the TimeStamp time and date registers values */
 456:Drivers/STM32L4xx_HAL_Driver/Src/stm32l4xx_hal_rtc_ex.c ****   tmptime = (uint32_t)(hrtc->Instance->TSTR & RTC_TR_RESERVED_MASK);
 569              		.loc 1 456 28
 570 000e FB68     		ldr	r3, [r7, #12]
 571 0010 1B68     		ldr	r3, [r3]
 572              		.loc 1 456 38
 573 0012 1B6B     		ldr	r3, [r3, #48]
 574              		.loc 1 456 11
 575 0014 03F07F33 		and	r3, r3, #2139062143
 576 0018 23F0FE43 		bic	r3, r3, #2130706432
 577 001c 7B61     		str	r3, [r7, #20]
 457:Drivers/STM32L4xx_HAL_Driver/Src/stm32l4xx_hal_rtc_ex.c ****   tmpdate = (uint32_t)(hrtc->Instance->TSDR & RTC_DR_RESERVED_MASK);
 578              		.loc 1 457 28
 579 001e FB68     		ldr	r3, [r7, #12]
 580 0020 1B68     		ldr	r3, [r3]
 581              		.loc 1 457 38
ARM GAS  /tmp/cchDTGWe.s 			page 19


 582 0022 5B6B     		ldr	r3, [r3, #52]
 583              		.loc 1 457 11
 584 0024 23F07F43 		bic	r3, r3, #-16777216
 585 0028 23F0C003 		bic	r3, r3, #192
 586 002c 3B61     		str	r3, [r7, #16]
 458:Drivers/STM32L4xx_HAL_Driver/Src/stm32l4xx_hal_rtc_ex.c **** 
 459:Drivers/STM32L4xx_HAL_Driver/Src/stm32l4xx_hal_rtc_ex.c ****   /* Fill the Time structure fields with the read parameters */
 460:Drivers/STM32L4xx_HAL_Driver/Src/stm32l4xx_hal_rtc_ex.c ****   sTimeStamp->Hours = (uint8_t)((tmptime & (RTC_TSTR_HT | RTC_TSTR_HU)) >> RTC_TSTR_HU_Pos);
 587              		.loc 1 460 73
 588 002e 7B69     		ldr	r3, [r7, #20]
 589 0030 1B0C     		lsrs	r3, r3, #16
 590              		.loc 1 460 23
 591 0032 DBB2     		uxtb	r3, r3
 592 0034 03F03F03 		and	r3, r3, #63
 593 0038 DAB2     		uxtb	r2, r3
 594              		.loc 1 460 21
 595 003a BB68     		ldr	r3, [r7, #8]
 596 003c 1A70     		strb	r2, [r3]
 461:Drivers/STM32L4xx_HAL_Driver/Src/stm32l4xx_hal_rtc_ex.c ****   sTimeStamp->Minutes = (uint8_t)((tmptime & (RTC_TSTR_MNT | RTC_TSTR_MNU)) >> RTC_TSTR_MNU_Pos);
 597              		.loc 1 461 77
 598 003e 7B69     		ldr	r3, [r7, #20]
 599 0040 1B0A     		lsrs	r3, r3, #8
 600              		.loc 1 461 25
 601 0042 DBB2     		uxtb	r3, r3
 602 0044 03F07F03 		and	r3, r3, #127
 603 0048 DAB2     		uxtb	r2, r3
 604              		.loc 1 461 23
 605 004a BB68     		ldr	r3, [r7, #8]
 606 004c 5A70     		strb	r2, [r3, #1]
 462:Drivers/STM32L4xx_HAL_Driver/Src/stm32l4xx_hal_rtc_ex.c ****   sTimeStamp->Seconds = (uint8_t)((tmptime & (RTC_TSTR_ST | RTC_TSTR_SU)) >> RTC_TSTR_SU_Pos);
 607              		.loc 1 462 25
 608 004e 7B69     		ldr	r3, [r7, #20]
 609 0050 DBB2     		uxtb	r3, r3
 610 0052 03F07F03 		and	r3, r3, #127
 611 0056 DAB2     		uxtb	r2, r3
 612              		.loc 1 462 23
 613 0058 BB68     		ldr	r3, [r7, #8]
 614 005a 9A70     		strb	r2, [r3, #2]
 463:Drivers/STM32L4xx_HAL_Driver/Src/stm32l4xx_hal_rtc_ex.c ****   sTimeStamp->TimeFormat = (uint8_t)((tmptime & (RTC_TSTR_PM)) >> RTC_TSTR_PM_Pos);
 615              		.loc 1 463 64
 616 005c 7B69     		ldr	r3, [r7, #20]
 617 005e 9B0D     		lsrs	r3, r3, #22
 618              		.loc 1 463 28
 619 0060 DBB2     		uxtb	r3, r3
 620 0062 03F00103 		and	r3, r3, #1
 621 0066 DAB2     		uxtb	r2, r3
 622              		.loc 1 463 26
 623 0068 BB68     		ldr	r3, [r7, #8]
 624 006a DA70     		strb	r2, [r3, #3]
 464:Drivers/STM32L4xx_HAL_Driver/Src/stm32l4xx_hal_rtc_ex.c ****   sTimeStamp->SubSeconds = (uint32_t) hrtc->Instance->TSSSR;
 625              		.loc 1 464 43
 626 006c FB68     		ldr	r3, [r7, #12]
 627 006e 1B68     		ldr	r3, [r3]
 628              		.loc 1 464 53
 629 0070 9A6B     		ldr	r2, [r3, #56]
 630              		.loc 1 464 26
 631 0072 BB68     		ldr	r3, [r7, #8]
ARM GAS  /tmp/cchDTGWe.s 			page 20


 632 0074 5A60     		str	r2, [r3, #4]
 465:Drivers/STM32L4xx_HAL_Driver/Src/stm32l4xx_hal_rtc_ex.c **** 
 466:Drivers/STM32L4xx_HAL_Driver/Src/stm32l4xx_hal_rtc_ex.c ****   /* Fill the Date structure fields with the read parameters */
 467:Drivers/STM32L4xx_HAL_Driver/Src/stm32l4xx_hal_rtc_ex.c ****   sTimeStampDate->Year = 0U;
 633              		.loc 1 467 24
 634 0076 7B68     		ldr	r3, [r7, #4]
 635 0078 0022     		movs	r2, #0
 636 007a DA70     		strb	r2, [r3, #3]
 468:Drivers/STM32L4xx_HAL_Driver/Src/stm32l4xx_hal_rtc_ex.c ****   sTimeStampDate->Month = (uint8_t)((tmpdate & (RTC_TSDR_MT | RTC_TSDR_MU)) >> RTC_TSDR_MU_Pos);
 637              		.loc 1 468 77
 638 007c 3B69     		ldr	r3, [r7, #16]
 639 007e 1B0A     		lsrs	r3, r3, #8
 640              		.loc 1 468 27
 641 0080 DBB2     		uxtb	r3, r3
 642 0082 03F01F03 		and	r3, r3, #31
 643 0086 DAB2     		uxtb	r2, r3
 644              		.loc 1 468 25
 645 0088 7B68     		ldr	r3, [r7, #4]
 646 008a 5A70     		strb	r2, [r3, #1]
 469:Drivers/STM32L4xx_HAL_Driver/Src/stm32l4xx_hal_rtc_ex.c ****   sTimeStampDate->Date = (uint8_t)((tmpdate & (RTC_TSDR_DT | RTC_TSDR_DU)) >> RTC_TSDR_DU_Pos);
 647              		.loc 1 469 26
 648 008c 3B69     		ldr	r3, [r7, #16]
 649 008e DBB2     		uxtb	r3, r3
 650 0090 03F03F03 		and	r3, r3, #63
 651 0094 DAB2     		uxtb	r2, r3
 652              		.loc 1 469 24
 653 0096 7B68     		ldr	r3, [r7, #4]
 654 0098 9A70     		strb	r2, [r3, #2]
 470:Drivers/STM32L4xx_HAL_Driver/Src/stm32l4xx_hal_rtc_ex.c ****   sTimeStampDate->WeekDay = (uint8_t)((tmpdate & (RTC_TSDR_WDU)) >> RTC_TSDR_WDU_Pos);
 655              		.loc 1 470 66
 656 009a 3B69     		ldr	r3, [r7, #16]
 657 009c 5B0B     		lsrs	r3, r3, #13
 658              		.loc 1 470 29
 659 009e DBB2     		uxtb	r3, r3
 660 00a0 03F00703 		and	r3, r3, #7
 661 00a4 DAB2     		uxtb	r2, r3
 662              		.loc 1 470 27
 663 00a6 7B68     		ldr	r3, [r7, #4]
 664 00a8 1A70     		strb	r2, [r3]
 471:Drivers/STM32L4xx_HAL_Driver/Src/stm32l4xx_hal_rtc_ex.c **** 
 472:Drivers/STM32L4xx_HAL_Driver/Src/stm32l4xx_hal_rtc_ex.c ****   /* Check the input parameters format */
 473:Drivers/STM32L4xx_HAL_Driver/Src/stm32l4xx_hal_rtc_ex.c ****   if (Format == RTC_FORMAT_BIN)
 665              		.loc 1 473 6
 666 00aa 3B68     		ldr	r3, [r7]
 667 00ac 002B     		cmp	r3, #0
 668 00ae 35D1     		bne	.L19
 474:Drivers/STM32L4xx_HAL_Driver/Src/stm32l4xx_hal_rtc_ex.c ****   {
 475:Drivers/STM32L4xx_HAL_Driver/Src/stm32l4xx_hal_rtc_ex.c ****     /* Convert the TimeStamp structure parameters to Binary format */
 476:Drivers/STM32L4xx_HAL_Driver/Src/stm32l4xx_hal_rtc_ex.c ****     sTimeStamp->Hours = (uint8_t)RTC_Bcd2ToByte(sTimeStamp->Hours);
 669              		.loc 1 476 34
 670 00b0 BB68     		ldr	r3, [r7, #8]
 671 00b2 1B78     		ldrb	r3, [r3]	@ zero_extendqisi2
 672 00b4 1846     		mov	r0, r3
 673 00b6 FFF7FEFF 		bl	RTC_Bcd2ToByte
 674 00ba 0346     		mov	r3, r0
 675 00bc 1A46     		mov	r2, r3
 676              		.loc 1 476 23 discriminator 1
ARM GAS  /tmp/cchDTGWe.s 			page 21


 677 00be BB68     		ldr	r3, [r7, #8]
 678 00c0 1A70     		strb	r2, [r3]
 477:Drivers/STM32L4xx_HAL_Driver/Src/stm32l4xx_hal_rtc_ex.c ****     sTimeStamp->Minutes = (uint8_t)RTC_Bcd2ToByte(sTimeStamp->Minutes);
 679              		.loc 1 477 36
 680 00c2 BB68     		ldr	r3, [r7, #8]
 681 00c4 5B78     		ldrb	r3, [r3, #1]	@ zero_extendqisi2
 682 00c6 1846     		mov	r0, r3
 683 00c8 FFF7FEFF 		bl	RTC_Bcd2ToByte
 684 00cc 0346     		mov	r3, r0
 685 00ce 1A46     		mov	r2, r3
 686              		.loc 1 477 25 discriminator 1
 687 00d0 BB68     		ldr	r3, [r7, #8]
 688 00d2 5A70     		strb	r2, [r3, #1]
 478:Drivers/STM32L4xx_HAL_Driver/Src/stm32l4xx_hal_rtc_ex.c ****     sTimeStamp->Seconds = (uint8_t)RTC_Bcd2ToByte(sTimeStamp->Seconds);
 689              		.loc 1 478 36
 690 00d4 BB68     		ldr	r3, [r7, #8]
 691 00d6 9B78     		ldrb	r3, [r3, #2]	@ zero_extendqisi2
 692 00d8 1846     		mov	r0, r3
 693 00da FFF7FEFF 		bl	RTC_Bcd2ToByte
 694 00de 0346     		mov	r3, r0
 695 00e0 1A46     		mov	r2, r3
 696              		.loc 1 478 25 discriminator 1
 697 00e2 BB68     		ldr	r3, [r7, #8]
 698 00e4 9A70     		strb	r2, [r3, #2]
 479:Drivers/STM32L4xx_HAL_Driver/Src/stm32l4xx_hal_rtc_ex.c **** 
 480:Drivers/STM32L4xx_HAL_Driver/Src/stm32l4xx_hal_rtc_ex.c ****     /* Convert the DateTimeStamp structure parameters to Binary format */
 481:Drivers/STM32L4xx_HAL_Driver/Src/stm32l4xx_hal_rtc_ex.c ****     sTimeStampDate->Month = (uint8_t)RTC_Bcd2ToByte(sTimeStampDate->Month);
 699              		.loc 1 481 38
 700 00e6 7B68     		ldr	r3, [r7, #4]
 701 00e8 5B78     		ldrb	r3, [r3, #1]	@ zero_extendqisi2
 702 00ea 1846     		mov	r0, r3
 703 00ec FFF7FEFF 		bl	RTC_Bcd2ToByte
 704 00f0 0346     		mov	r3, r0
 705 00f2 1A46     		mov	r2, r3
 706              		.loc 1 481 27 discriminator 1
 707 00f4 7B68     		ldr	r3, [r7, #4]
 708 00f6 5A70     		strb	r2, [r3, #1]
 482:Drivers/STM32L4xx_HAL_Driver/Src/stm32l4xx_hal_rtc_ex.c ****     sTimeStampDate->Date = (uint8_t)RTC_Bcd2ToByte(sTimeStampDate->Date);
 709              		.loc 1 482 37
 710 00f8 7B68     		ldr	r3, [r7, #4]
 711 00fa 9B78     		ldrb	r3, [r3, #2]	@ zero_extendqisi2
 712 00fc 1846     		mov	r0, r3
 713 00fe FFF7FEFF 		bl	RTC_Bcd2ToByte
 714 0102 0346     		mov	r3, r0
 715 0104 1A46     		mov	r2, r3
 716              		.loc 1 482 26 discriminator 1
 717 0106 7B68     		ldr	r3, [r7, #4]
 718 0108 9A70     		strb	r2, [r3, #2]
 483:Drivers/STM32L4xx_HAL_Driver/Src/stm32l4xx_hal_rtc_ex.c ****     sTimeStampDate->WeekDay = (uint8_t)RTC_Bcd2ToByte(sTimeStampDate->WeekDay);
 719              		.loc 1 483 40
 720 010a 7B68     		ldr	r3, [r7, #4]
 721 010c 1B78     		ldrb	r3, [r3]	@ zero_extendqisi2
 722 010e 1846     		mov	r0, r3
 723 0110 FFF7FEFF 		bl	RTC_Bcd2ToByte
 724 0114 0346     		mov	r3, r0
 725 0116 1A46     		mov	r2, r3
 726              		.loc 1 483 29 discriminator 1
ARM GAS  /tmp/cchDTGWe.s 			page 22


 727 0118 7B68     		ldr	r3, [r7, #4]
 728 011a 1A70     		strb	r2, [r3]
 729              	.L19:
 484:Drivers/STM32L4xx_HAL_Driver/Src/stm32l4xx_hal_rtc_ex.c ****   }
 485:Drivers/STM32L4xx_HAL_Driver/Src/stm32l4xx_hal_rtc_ex.c **** 
 486:Drivers/STM32L4xx_HAL_Driver/Src/stm32l4xx_hal_rtc_ex.c ****   /* Clear the TIMESTAMP Flags */
 487:Drivers/STM32L4xx_HAL_Driver/Src/stm32l4xx_hal_rtc_ex.c ****   __HAL_RTC_INTERNAL_TIMESTAMP_CLEAR_FLAG(hrtc, RTC_FLAG_ITSF);
 730              		.loc 1 487 3
 731 011c FB68     		ldr	r3, [r7, #12]
 732 011e 1B68     		ldr	r3, [r3]
 733 0120 DB68     		ldr	r3, [r3, #12]
 734 0122 D9B2     		uxtb	r1, r3
 735 0124 FB68     		ldr	r3, [r7, #12]
 736 0126 1A68     		ldr	r2, [r3]
 737 0128 084B     		ldr	r3, .L21
 738 012a 0B43     		orrs	r3, r3, r1
 739 012c D360     		str	r3, [r2, #12]
 488:Drivers/STM32L4xx_HAL_Driver/Src/stm32l4xx_hal_rtc_ex.c ****   __HAL_RTC_TIMESTAMP_CLEAR_FLAG(hrtc, RTC_FLAG_TSF);
 740              		.loc 1 488 3
 741 012e FB68     		ldr	r3, [r7, #12]
 742 0130 1B68     		ldr	r3, [r3]
 743 0132 DB68     		ldr	r3, [r3, #12]
 744 0134 DAB2     		uxtb	r2, r3
 745 0136 FB68     		ldr	r3, [r7, #12]
 746 0138 1B68     		ldr	r3, [r3]
 747 013a 62F40862 		orn	r2, r2, #2176
 748 013e DA60     		str	r2, [r3, #12]
 489:Drivers/STM32L4xx_HAL_Driver/Src/stm32l4xx_hal_rtc_ex.c **** 
 490:Drivers/STM32L4xx_HAL_Driver/Src/stm32l4xx_hal_rtc_ex.c ****   return HAL_OK;
 749              		.loc 1 490 10
 750 0140 0023     		movs	r3, #0
 491:Drivers/STM32L4xx_HAL_Driver/Src/stm32l4xx_hal_rtc_ex.c **** }
 751              		.loc 1 491 1
 752 0142 1846     		mov	r0, r3
 753 0144 1837     		adds	r7, r7, #24
 754              		.cfi_def_cfa_offset 8
 755 0146 BD46     		mov	sp, r7
 756              		.cfi_def_cfa_register 13
 757              		@ sp needed
 758 0148 80BD     		pop	{r7, pc}
 759              	.L22:
 760 014a 00BF     		.align	2
 761              	.L21:
 762 014c 7FFFFDFF 		.word	-131201
 763              		.cfi_endproc
 764              	.LFE450:
 766              		.section	.text.HAL_RTCEx_TamperTimeStampIRQHandler,"ax",%progbits
 767              		.align	1
 768              		.global	HAL_RTCEx_TamperTimeStampIRQHandler
 769              		.syntax unified
 770              		.thumb
 771              		.thumb_func
 773              	HAL_RTCEx_TamperTimeStampIRQHandler:
 774              	.LFB451:
 492:Drivers/STM32L4xx_HAL_Driver/Src/stm32l4xx_hal_rtc_ex.c **** #endif /* #if defined (STM32L4P5xx) || defined (STM32L4Q5xx) */
 493:Drivers/STM32L4xx_HAL_Driver/Src/stm32l4xx_hal_rtc_ex.c **** 
 494:Drivers/STM32L4xx_HAL_Driver/Src/stm32l4xx_hal_rtc_ex.c **** /**
ARM GAS  /tmp/cchDTGWe.s 			page 23


 495:Drivers/STM32L4xx_HAL_Driver/Src/stm32l4xx_hal_rtc_ex.c ****   * @brief  Handle TimeStamp interrupt request.
 496:Drivers/STM32L4xx_HAL_Driver/Src/stm32l4xx_hal_rtc_ex.c ****   * @param  hrtc RTC handle
 497:Drivers/STM32L4xx_HAL_Driver/Src/stm32l4xx_hal_rtc_ex.c ****   * @retval None
 498:Drivers/STM32L4xx_HAL_Driver/Src/stm32l4xx_hal_rtc_ex.c ****   */
 499:Drivers/STM32L4xx_HAL_Driver/Src/stm32l4xx_hal_rtc_ex.c **** #if defined(STM32L412xx) || defined(STM32L422xx) || defined (STM32L4P5xx) || defined (STM32L4Q5xx)
 500:Drivers/STM32L4xx_HAL_Driver/Src/stm32l4xx_hal_rtc_ex.c **** 
 501:Drivers/STM32L4xx_HAL_Driver/Src/stm32l4xx_hal_rtc_ex.c **** void HAL_RTCEx_TamperTimeStampIRQHandler(RTC_HandleTypeDef *hrtc)
 502:Drivers/STM32L4xx_HAL_Driver/Src/stm32l4xx_hal_rtc_ex.c **** {
 503:Drivers/STM32L4xx_HAL_Driver/Src/stm32l4xx_hal_rtc_ex.c **** 
 504:Drivers/STM32L4xx_HAL_Driver/Src/stm32l4xx_hal_rtc_ex.c ****   /* Process TAMP instance pointer */
 505:Drivers/STM32L4xx_HAL_Driver/Src/stm32l4xx_hal_rtc_ex.c ****   TAMP_TypeDef *tamp = (TAMP_TypeDef *)((uint32_t)hrtc->Instance + hrtc->TampOffset);
 506:Drivers/STM32L4xx_HAL_Driver/Src/stm32l4xx_hal_rtc_ex.c **** 
 507:Drivers/STM32L4xx_HAL_Driver/Src/stm32l4xx_hal_rtc_ex.c ****   /* Clear the EXTI's Flag for RTC TimeStamp and Tamper */
 508:Drivers/STM32L4xx_HAL_Driver/Src/stm32l4xx_hal_rtc_ex.c ****   __HAL_RTC_TAMPER_TIMESTAMP_EXTI_CLEAR_FLAG();
 509:Drivers/STM32L4xx_HAL_Driver/Src/stm32l4xx_hal_rtc_ex.c **** 
 510:Drivers/STM32L4xx_HAL_Driver/Src/stm32l4xx_hal_rtc_ex.c ****   if ((hrtc->Instance->MISR & RTC_MISR_TSMF) != 0u)
 511:Drivers/STM32L4xx_HAL_Driver/Src/stm32l4xx_hal_rtc_ex.c ****   {
 512:Drivers/STM32L4xx_HAL_Driver/Src/stm32l4xx_hal_rtc_ex.c **** #if (USE_HAL_RTC_REGISTER_CALLBACKS == 1)
 513:Drivers/STM32L4xx_HAL_Driver/Src/stm32l4xx_hal_rtc_ex.c ****     /* Call TimeStampEvent registered Callback */
 514:Drivers/STM32L4xx_HAL_Driver/Src/stm32l4xx_hal_rtc_ex.c ****     hrtc->TimeStampEventCallback(hrtc);
 515:Drivers/STM32L4xx_HAL_Driver/Src/stm32l4xx_hal_rtc_ex.c **** #else
 516:Drivers/STM32L4xx_HAL_Driver/Src/stm32l4xx_hal_rtc_ex.c ****     HAL_RTCEx_TimeStampEventCallback(hrtc);
 517:Drivers/STM32L4xx_HAL_Driver/Src/stm32l4xx_hal_rtc_ex.c **** #endif
 518:Drivers/STM32L4xx_HAL_Driver/Src/stm32l4xx_hal_rtc_ex.c ****     /* Not immediately clear flags because the content of RTC_TSTR and RTC_TSDR arecleared when TSF
 519:Drivers/STM32L4xx_HAL_Driver/Src/stm32l4xx_hal_rtc_ex.c ****     hrtc->Instance->SCR = RTC_SCR_CTSF;
 520:Drivers/STM32L4xx_HAL_Driver/Src/stm32l4xx_hal_rtc_ex.c ****   }
 521:Drivers/STM32L4xx_HAL_Driver/Src/stm32l4xx_hal_rtc_ex.c **** 
 522:Drivers/STM32L4xx_HAL_Driver/Src/stm32l4xx_hal_rtc_ex.c ****   /* Get interrupt status */
 523:Drivers/STM32L4xx_HAL_Driver/Src/stm32l4xx_hal_rtc_ex.c ****   uint32_t tmp = tamp->MISR;
 524:Drivers/STM32L4xx_HAL_Driver/Src/stm32l4xx_hal_rtc_ex.c **** 
 525:Drivers/STM32L4xx_HAL_Driver/Src/stm32l4xx_hal_rtc_ex.c ****   /* Immediately clear flags */
 526:Drivers/STM32L4xx_HAL_Driver/Src/stm32l4xx_hal_rtc_ex.c ****   tamp->SCR = tmp;
 527:Drivers/STM32L4xx_HAL_Driver/Src/stm32l4xx_hal_rtc_ex.c **** 
 528:Drivers/STM32L4xx_HAL_Driver/Src/stm32l4xx_hal_rtc_ex.c **** #if defined(RTC_TAMPER1_SUPPORT)
 529:Drivers/STM32L4xx_HAL_Driver/Src/stm32l4xx_hal_rtc_ex.c ****   /* Check Tamper1 status */
 530:Drivers/STM32L4xx_HAL_Driver/Src/stm32l4xx_hal_rtc_ex.c ****   if ((tmp & RTC_TAMPER_1) == RTC_TAMPER_1)
 531:Drivers/STM32L4xx_HAL_Driver/Src/stm32l4xx_hal_rtc_ex.c ****   {
 532:Drivers/STM32L4xx_HAL_Driver/Src/stm32l4xx_hal_rtc_ex.c **** #if (USE_HAL_RTC_REGISTER_CALLBACKS == 1)
 533:Drivers/STM32L4xx_HAL_Driver/Src/stm32l4xx_hal_rtc_ex.c ****     /* Call Tamper 1 Event registered Callback */
 534:Drivers/STM32L4xx_HAL_Driver/Src/stm32l4xx_hal_rtc_ex.c ****     hrtc->Tamper1EventCallback(hrtc);
 535:Drivers/STM32L4xx_HAL_Driver/Src/stm32l4xx_hal_rtc_ex.c **** #else
 536:Drivers/STM32L4xx_HAL_Driver/Src/stm32l4xx_hal_rtc_ex.c ****     /* Tamper1 callback */
 537:Drivers/STM32L4xx_HAL_Driver/Src/stm32l4xx_hal_rtc_ex.c ****     HAL_RTCEx_Tamper1EventCallback(hrtc);
 538:Drivers/STM32L4xx_HAL_Driver/Src/stm32l4xx_hal_rtc_ex.c **** #endif
 539:Drivers/STM32L4xx_HAL_Driver/Src/stm32l4xx_hal_rtc_ex.c ****   }
 540:Drivers/STM32L4xx_HAL_Driver/Src/stm32l4xx_hal_rtc_ex.c **** #endif /* RTC_TAMPER1_SUPPORT */
 541:Drivers/STM32L4xx_HAL_Driver/Src/stm32l4xx_hal_rtc_ex.c **** 
 542:Drivers/STM32L4xx_HAL_Driver/Src/stm32l4xx_hal_rtc_ex.c ****   /* Check Tamper2 status */
 543:Drivers/STM32L4xx_HAL_Driver/Src/stm32l4xx_hal_rtc_ex.c ****   if ((tmp & RTC_TAMPER_2) == RTC_TAMPER_2)
 544:Drivers/STM32L4xx_HAL_Driver/Src/stm32l4xx_hal_rtc_ex.c ****   {
 545:Drivers/STM32L4xx_HAL_Driver/Src/stm32l4xx_hal_rtc_ex.c **** #if (USE_HAL_RTC_REGISTER_CALLBACKS == 1)
 546:Drivers/STM32L4xx_HAL_Driver/Src/stm32l4xx_hal_rtc_ex.c ****     /* Call Tamper 2 Event registered Callback */
 547:Drivers/STM32L4xx_HAL_Driver/Src/stm32l4xx_hal_rtc_ex.c ****     hrtc->Tamper2EventCallback(hrtc);
 548:Drivers/STM32L4xx_HAL_Driver/Src/stm32l4xx_hal_rtc_ex.c **** #else
 549:Drivers/STM32L4xx_HAL_Driver/Src/stm32l4xx_hal_rtc_ex.c ****     /* Tamper2 callback */
 550:Drivers/STM32L4xx_HAL_Driver/Src/stm32l4xx_hal_rtc_ex.c ****     HAL_RTCEx_Tamper2EventCallback(hrtc);
 551:Drivers/STM32L4xx_HAL_Driver/Src/stm32l4xx_hal_rtc_ex.c **** #endif
ARM GAS  /tmp/cchDTGWe.s 			page 24


 552:Drivers/STM32L4xx_HAL_Driver/Src/stm32l4xx_hal_rtc_ex.c ****   }
 553:Drivers/STM32L4xx_HAL_Driver/Src/stm32l4xx_hal_rtc_ex.c **** 
 554:Drivers/STM32L4xx_HAL_Driver/Src/stm32l4xx_hal_rtc_ex.c **** #if defined(RTC_TAMPER3_SUPPORT)
 555:Drivers/STM32L4xx_HAL_Driver/Src/stm32l4xx_hal_rtc_ex.c ****   /* Check Tamper3 status */
 556:Drivers/STM32L4xx_HAL_Driver/Src/stm32l4xx_hal_rtc_ex.c ****   if ((tmp & RTC_TAMPER_3) == RTC_TAMPER_3)
 557:Drivers/STM32L4xx_HAL_Driver/Src/stm32l4xx_hal_rtc_ex.c ****   {
 558:Drivers/STM32L4xx_HAL_Driver/Src/stm32l4xx_hal_rtc_ex.c **** #if (USE_HAL_RTC_REGISTER_CALLBACKS == 1)
 559:Drivers/STM32L4xx_HAL_Driver/Src/stm32l4xx_hal_rtc_ex.c ****     /* Call Tamper 3 Event registered Callback */
 560:Drivers/STM32L4xx_HAL_Driver/Src/stm32l4xx_hal_rtc_ex.c ****     hrtc->Tamper3EventCallback(hrtc);
 561:Drivers/STM32L4xx_HAL_Driver/Src/stm32l4xx_hal_rtc_ex.c **** #else
 562:Drivers/STM32L4xx_HAL_Driver/Src/stm32l4xx_hal_rtc_ex.c ****     /* Tamper3 callback */
 563:Drivers/STM32L4xx_HAL_Driver/Src/stm32l4xx_hal_rtc_ex.c ****     HAL_RTCEx_Tamper3EventCallback(hrtc);
 564:Drivers/STM32L4xx_HAL_Driver/Src/stm32l4xx_hal_rtc_ex.c **** #endif
 565:Drivers/STM32L4xx_HAL_Driver/Src/stm32l4xx_hal_rtc_ex.c ****   }
 566:Drivers/STM32L4xx_HAL_Driver/Src/stm32l4xx_hal_rtc_ex.c **** 
 567:Drivers/STM32L4xx_HAL_Driver/Src/stm32l4xx_hal_rtc_ex.c **** #endif /* RTC_TAMPER3_SUPPORT */
 568:Drivers/STM32L4xx_HAL_Driver/Src/stm32l4xx_hal_rtc_ex.c **** 
 569:Drivers/STM32L4xx_HAL_Driver/Src/stm32l4xx_hal_rtc_ex.c ****   /* Change RTC state */
 570:Drivers/STM32L4xx_HAL_Driver/Src/stm32l4xx_hal_rtc_ex.c ****   hrtc->State = HAL_RTC_STATE_READY;
 571:Drivers/STM32L4xx_HAL_Driver/Src/stm32l4xx_hal_rtc_ex.c **** }
 572:Drivers/STM32L4xx_HAL_Driver/Src/stm32l4xx_hal_rtc_ex.c **** 
 573:Drivers/STM32L4xx_HAL_Driver/Src/stm32l4xx_hal_rtc_ex.c **** #else /* #if defined(STM32L412xx) || defined(STM32L422xx) || defined (STM32L4P5xx) || defined (STM3
 574:Drivers/STM32L4xx_HAL_Driver/Src/stm32l4xx_hal_rtc_ex.c **** 
 575:Drivers/STM32L4xx_HAL_Driver/Src/stm32l4xx_hal_rtc_ex.c **** void HAL_RTCEx_TamperTimeStampIRQHandler(RTC_HandleTypeDef *hrtc)
 576:Drivers/STM32L4xx_HAL_Driver/Src/stm32l4xx_hal_rtc_ex.c **** {
 775              		.loc 1 576 1
 776              		.cfi_startproc
 777              		@ args = 0, pretend = 0, frame = 8
 778              		@ frame_needed = 1, uses_anonymous_args = 0
 779 0000 80B5     		push	{r7, lr}
 780              		.cfi_def_cfa_offset 8
 781              		.cfi_offset 7, -8
 782              		.cfi_offset 14, -4
 783 0002 82B0     		sub	sp, sp, #8
 784              		.cfi_def_cfa_offset 16
 785 0004 00AF     		add	r7, sp, #0
 786              		.cfi_def_cfa_register 7
 787 0006 7860     		str	r0, [r7, #4]
 577:Drivers/STM32L4xx_HAL_Driver/Src/stm32l4xx_hal_rtc_ex.c ****   /* Clear the EXTI's Flag for RTC TimeStamp and Tamper */
 578:Drivers/STM32L4xx_HAL_Driver/Src/stm32l4xx_hal_rtc_ex.c ****   __HAL_RTC_TAMPER_TIMESTAMP_EXTI_CLEAR_FLAG();
 788              		.loc 1 578 3
 789 0008 394B     		ldr	r3, .L28
 790 000a 4FF40022 		mov	r2, #524288
 791 000e 5A61     		str	r2, [r3, #20]
 579:Drivers/STM32L4xx_HAL_Driver/Src/stm32l4xx_hal_rtc_ex.c **** 
 580:Drivers/STM32L4xx_HAL_Driver/Src/stm32l4xx_hal_rtc_ex.c ****   /* Get the TimeStamp interrupt source enable status and pending flag status */
 581:Drivers/STM32L4xx_HAL_Driver/Src/stm32l4xx_hal_rtc_ex.c ****   if (__HAL_RTC_TIMESTAMP_GET_IT_SOURCE(hrtc, RTC_IT_TS) != 0U)
 792              		.loc 1 581 7
 793 0010 7B68     		ldr	r3, [r7, #4]
 794 0012 1B68     		ldr	r3, [r3]
 795 0014 9B68     		ldr	r3, [r3, #8]
 796 0016 03F40043 		and	r3, r3, #32768
 797              		.loc 1 581 6
 798 001a 002B     		cmp	r3, #0
 799 001c 12D0     		beq	.L24
 582:Drivers/STM32L4xx_HAL_Driver/Src/stm32l4xx_hal_rtc_ex.c ****   {
 583:Drivers/STM32L4xx_HAL_Driver/Src/stm32l4xx_hal_rtc_ex.c ****     if (__HAL_RTC_TIMESTAMP_GET_FLAG(hrtc, RTC_FLAG_TSF) != 0U)
ARM GAS  /tmp/cchDTGWe.s 			page 25


 800              		.loc 1 583 9
 801 001e 7B68     		ldr	r3, [r7, #4]
 802 0020 1B68     		ldr	r3, [r3]
 803 0022 DB68     		ldr	r3, [r3, #12]
 804 0024 03F40063 		and	r3, r3, #2048
 805              		.loc 1 583 8
 806 0028 002B     		cmp	r3, #0
 807 002a 0BD0     		beq	.L24
 584:Drivers/STM32L4xx_HAL_Driver/Src/stm32l4xx_hal_rtc_ex.c ****     {
 585:Drivers/STM32L4xx_HAL_Driver/Src/stm32l4xx_hal_rtc_ex.c ****       /* TIMESTAMP callback */
 586:Drivers/STM32L4xx_HAL_Driver/Src/stm32l4xx_hal_rtc_ex.c **** #if (USE_HAL_RTC_REGISTER_CALLBACKS == 1)
 587:Drivers/STM32L4xx_HAL_Driver/Src/stm32l4xx_hal_rtc_ex.c ****       hrtc->TimeStampEventCallback(hrtc);
 588:Drivers/STM32L4xx_HAL_Driver/Src/stm32l4xx_hal_rtc_ex.c **** #else  /* (USE_HAL_RTC_REGISTER_CALLBACKS == 1) */
 589:Drivers/STM32L4xx_HAL_Driver/Src/stm32l4xx_hal_rtc_ex.c ****       HAL_RTCEx_TimeStampEventCallback(hrtc);
 808              		.loc 1 589 7
 809 002c 7868     		ldr	r0, [r7, #4]
 810 002e FFF7FEFF 		bl	HAL_RTCEx_TimeStampEventCallback
 590:Drivers/STM32L4xx_HAL_Driver/Src/stm32l4xx_hal_rtc_ex.c **** #endif /* (USE_HAL_RTC_REGISTER_CALLBACKS == 1) */
 591:Drivers/STM32L4xx_HAL_Driver/Src/stm32l4xx_hal_rtc_ex.c **** 
 592:Drivers/STM32L4xx_HAL_Driver/Src/stm32l4xx_hal_rtc_ex.c ****       /* Clear the TIMESTAMP interrupt pending bit (this will clear timestamp time and date registe
 593:Drivers/STM32L4xx_HAL_Driver/Src/stm32l4xx_hal_rtc_ex.c ****       __HAL_RTC_TIMESTAMP_CLEAR_FLAG(hrtc, RTC_FLAG_TSF);
 811              		.loc 1 593 7
 812 0032 7B68     		ldr	r3, [r7, #4]
 813 0034 1B68     		ldr	r3, [r3]
 814 0036 DB68     		ldr	r3, [r3, #12]
 815 0038 DAB2     		uxtb	r2, r3
 816 003a 7B68     		ldr	r3, [r7, #4]
 817 003c 1B68     		ldr	r3, [r3]
 818 003e 62F40862 		orn	r2, r2, #2176
 819 0042 DA60     		str	r2, [r3, #12]
 820              	.L24:
 594:Drivers/STM32L4xx_HAL_Driver/Src/stm32l4xx_hal_rtc_ex.c ****     }
 595:Drivers/STM32L4xx_HAL_Driver/Src/stm32l4xx_hal_rtc_ex.c ****   }
 596:Drivers/STM32L4xx_HAL_Driver/Src/stm32l4xx_hal_rtc_ex.c **** 
 597:Drivers/STM32L4xx_HAL_Driver/Src/stm32l4xx_hal_rtc_ex.c **** #if defined(RTC_TAMPER1_SUPPORT)
 598:Drivers/STM32L4xx_HAL_Driver/Src/stm32l4xx_hal_rtc_ex.c ****   /* Get the Tamper1 interrupt source enable status and pending flag status */
 599:Drivers/STM32L4xx_HAL_Driver/Src/stm32l4xx_hal_rtc_ex.c ****   if (__HAL_RTC_TAMPER_GET_IT_SOURCE(hrtc, RTC_IT_TAMP | RTC_IT_TAMP1) != 0U)
 821              		.loc 1 599 7
 822 0044 7B68     		ldr	r3, [r7, #4]
 823 0046 1B68     		ldr	r3, [r3]
 824 0048 1A6C     		ldr	r2, [r3, #64]
 825 004a 2A4B     		ldr	r3, .L28+4
 826 004c 1340     		ands	r3, r3, r2
 827              		.loc 1 599 6
 828 004e 002B     		cmp	r3, #0
 829 0050 12D0     		beq	.L25
 600:Drivers/STM32L4xx_HAL_Driver/Src/stm32l4xx_hal_rtc_ex.c ****   {
 601:Drivers/STM32L4xx_HAL_Driver/Src/stm32l4xx_hal_rtc_ex.c ****     if (__HAL_RTC_TAMPER_GET_FLAG(hrtc, RTC_FLAG_TAMP1F) != 0U)
 830              		.loc 1 601 9
 831 0052 7B68     		ldr	r3, [r7, #4]
 832 0054 1B68     		ldr	r3, [r3]
 833 0056 DB68     		ldr	r3, [r3, #12]
 834 0058 03F40053 		and	r3, r3, #8192
 835              		.loc 1 601 8
 836 005c 002B     		cmp	r3, #0
 837 005e 0BD0     		beq	.L25
 602:Drivers/STM32L4xx_HAL_Driver/Src/stm32l4xx_hal_rtc_ex.c ****     {
ARM GAS  /tmp/cchDTGWe.s 			page 26


 603:Drivers/STM32L4xx_HAL_Driver/Src/stm32l4xx_hal_rtc_ex.c ****       /* Clear the Tamper1 interrupt pending bit */
 604:Drivers/STM32L4xx_HAL_Driver/Src/stm32l4xx_hal_rtc_ex.c ****       __HAL_RTC_TAMPER_CLEAR_FLAG(hrtc, RTC_FLAG_TAMP1F);
 838              		.loc 1 604 7
 839 0060 7B68     		ldr	r3, [r7, #4]
 840 0062 1B68     		ldr	r3, [r3]
 841 0064 DB68     		ldr	r3, [r3, #12]
 842 0066 DAB2     		uxtb	r2, r3
 843 0068 7B68     		ldr	r3, [r7, #4]
 844 006a 1B68     		ldr	r3, [r3]
 845 006c 62F40252 		orn	r2, r2, #8320
 846 0070 DA60     		str	r2, [r3, #12]
 605:Drivers/STM32L4xx_HAL_Driver/Src/stm32l4xx_hal_rtc_ex.c **** 
 606:Drivers/STM32L4xx_HAL_Driver/Src/stm32l4xx_hal_rtc_ex.c ****       /* Tamper1 callback */
 607:Drivers/STM32L4xx_HAL_Driver/Src/stm32l4xx_hal_rtc_ex.c **** #if (USE_HAL_RTC_REGISTER_CALLBACKS == 1)
 608:Drivers/STM32L4xx_HAL_Driver/Src/stm32l4xx_hal_rtc_ex.c ****       hrtc->Tamper1EventCallback(hrtc);
 609:Drivers/STM32L4xx_HAL_Driver/Src/stm32l4xx_hal_rtc_ex.c **** #else  /* (USE_HAL_RTC_REGISTER_CALLBACKS == 1) */
 610:Drivers/STM32L4xx_HAL_Driver/Src/stm32l4xx_hal_rtc_ex.c ****       HAL_RTCEx_Tamper1EventCallback(hrtc);
 847              		.loc 1 610 7
 848 0072 7868     		ldr	r0, [r7, #4]
 849 0074 FFF7FEFF 		bl	HAL_RTCEx_Tamper1EventCallback
 850              	.L25:
 611:Drivers/STM32L4xx_HAL_Driver/Src/stm32l4xx_hal_rtc_ex.c **** #endif /* (USE_HAL_RTC_REGISTER_CALLBACKS == 1) */
 612:Drivers/STM32L4xx_HAL_Driver/Src/stm32l4xx_hal_rtc_ex.c ****     }
 613:Drivers/STM32L4xx_HAL_Driver/Src/stm32l4xx_hal_rtc_ex.c ****   }
 614:Drivers/STM32L4xx_HAL_Driver/Src/stm32l4xx_hal_rtc_ex.c **** #endif /* RTC_TAMPER1_SUPPORT */
 615:Drivers/STM32L4xx_HAL_Driver/Src/stm32l4xx_hal_rtc_ex.c **** 
 616:Drivers/STM32L4xx_HAL_Driver/Src/stm32l4xx_hal_rtc_ex.c ****   /* Get the Tamper2 interrupt source enable status and pending flag status */
 617:Drivers/STM32L4xx_HAL_Driver/Src/stm32l4xx_hal_rtc_ex.c ****   if (__HAL_RTC_TAMPER_GET_IT_SOURCE(hrtc, RTC_IT_TAMP | RTC_IT_TAMP2) != 0U)
 851              		.loc 1 617 7
 852 0078 7B68     		ldr	r3, [r7, #4]
 853 007a 1B68     		ldr	r3, [r3]
 854 007c 1A6C     		ldr	r2, [r3, #64]
 855 007e 1E4B     		ldr	r3, .L28+8
 856 0080 1340     		ands	r3, r3, r2
 857              		.loc 1 617 6
 858 0082 002B     		cmp	r3, #0
 859 0084 12D0     		beq	.L26
 618:Drivers/STM32L4xx_HAL_Driver/Src/stm32l4xx_hal_rtc_ex.c ****   {
 619:Drivers/STM32L4xx_HAL_Driver/Src/stm32l4xx_hal_rtc_ex.c ****     if (__HAL_RTC_TAMPER_GET_FLAG(hrtc, RTC_FLAG_TAMP2F) != 0U)
 860              		.loc 1 619 9
 861 0086 7B68     		ldr	r3, [r7, #4]
 862 0088 1B68     		ldr	r3, [r3]
 863 008a DB68     		ldr	r3, [r3, #12]
 864 008c 03F48043 		and	r3, r3, #16384
 865              		.loc 1 619 8
 866 0090 002B     		cmp	r3, #0
 867 0092 0BD0     		beq	.L26
 620:Drivers/STM32L4xx_HAL_Driver/Src/stm32l4xx_hal_rtc_ex.c ****     {
 621:Drivers/STM32L4xx_HAL_Driver/Src/stm32l4xx_hal_rtc_ex.c ****       /* Clear the Tamper2 interrupt pending bit */
 622:Drivers/STM32L4xx_HAL_Driver/Src/stm32l4xx_hal_rtc_ex.c ****       __HAL_RTC_TAMPER_CLEAR_FLAG(hrtc, RTC_FLAG_TAMP2F);
 868              		.loc 1 622 7
 869 0094 7B68     		ldr	r3, [r7, #4]
 870 0096 1B68     		ldr	r3, [r3]
 871 0098 DB68     		ldr	r3, [r3, #12]
 872 009a DAB2     		uxtb	r2, r3
 873 009c 7B68     		ldr	r3, [r7, #4]
 874 009e 1B68     		ldr	r3, [r3]
ARM GAS  /tmp/cchDTGWe.s 			page 27


 875 00a0 62F48142 		orn	r2, r2, #16512
 876 00a4 DA60     		str	r2, [r3, #12]
 623:Drivers/STM32L4xx_HAL_Driver/Src/stm32l4xx_hal_rtc_ex.c **** 
 624:Drivers/STM32L4xx_HAL_Driver/Src/stm32l4xx_hal_rtc_ex.c ****       /* Tamper2 callback */
 625:Drivers/STM32L4xx_HAL_Driver/Src/stm32l4xx_hal_rtc_ex.c **** #if (USE_HAL_RTC_REGISTER_CALLBACKS == 1)
 626:Drivers/STM32L4xx_HAL_Driver/Src/stm32l4xx_hal_rtc_ex.c ****       hrtc->Tamper2EventCallback(hrtc);
 627:Drivers/STM32L4xx_HAL_Driver/Src/stm32l4xx_hal_rtc_ex.c **** #else  /* (USE_HAL_RTC_REGISTER_CALLBACKS == 1) */
 628:Drivers/STM32L4xx_HAL_Driver/Src/stm32l4xx_hal_rtc_ex.c ****       HAL_RTCEx_Tamper2EventCallback(hrtc);
 877              		.loc 1 628 7
 878 00a6 7868     		ldr	r0, [r7, #4]
 879 00a8 FFF7FEFF 		bl	HAL_RTCEx_Tamper2EventCallback
 880              	.L26:
 629:Drivers/STM32L4xx_HAL_Driver/Src/stm32l4xx_hal_rtc_ex.c **** #endif /* (USE_HAL_RTC_REGISTER_CALLBACKS == 1) */
 630:Drivers/STM32L4xx_HAL_Driver/Src/stm32l4xx_hal_rtc_ex.c ****     }
 631:Drivers/STM32L4xx_HAL_Driver/Src/stm32l4xx_hal_rtc_ex.c ****   }
 632:Drivers/STM32L4xx_HAL_Driver/Src/stm32l4xx_hal_rtc_ex.c **** 
 633:Drivers/STM32L4xx_HAL_Driver/Src/stm32l4xx_hal_rtc_ex.c **** #if defined(RTC_TAMPER3_SUPPORT)
 634:Drivers/STM32L4xx_HAL_Driver/Src/stm32l4xx_hal_rtc_ex.c ****   /* Get the Tamper3 interrupts source enable status */
 635:Drivers/STM32L4xx_HAL_Driver/Src/stm32l4xx_hal_rtc_ex.c ****   if (__HAL_RTC_TAMPER_GET_IT_SOURCE(hrtc, RTC_IT_TAMP | RTC_IT_TAMP3) != 0U)
 881              		.loc 1 635 7
 882 00ac 7B68     		ldr	r3, [r7, #4]
 883 00ae 1B68     		ldr	r3, [r3]
 884 00b0 1A6C     		ldr	r2, [r3, #64]
 885 00b2 124B     		ldr	r3, .L28+12
 886 00b4 1340     		ands	r3, r3, r2
 887              		.loc 1 635 6
 888 00b6 002B     		cmp	r3, #0
 889 00b8 12D0     		beq	.L27
 636:Drivers/STM32L4xx_HAL_Driver/Src/stm32l4xx_hal_rtc_ex.c ****   {
 637:Drivers/STM32L4xx_HAL_Driver/Src/stm32l4xx_hal_rtc_ex.c ****     if (__HAL_RTC_TAMPER_GET_FLAG(hrtc, RTC_FLAG_TAMP3F) != 0U)
 890              		.loc 1 637 9
 891 00ba 7B68     		ldr	r3, [r7, #4]
 892 00bc 1B68     		ldr	r3, [r3]
 893 00be DB68     		ldr	r3, [r3, #12]
 894 00c0 03F40043 		and	r3, r3, #32768
 895              		.loc 1 637 8
 896 00c4 002B     		cmp	r3, #0
 897 00c6 0BD0     		beq	.L27
 638:Drivers/STM32L4xx_HAL_Driver/Src/stm32l4xx_hal_rtc_ex.c ****     {
 639:Drivers/STM32L4xx_HAL_Driver/Src/stm32l4xx_hal_rtc_ex.c ****       /* Clear the Tamper3 interrupt pending bit */
 640:Drivers/STM32L4xx_HAL_Driver/Src/stm32l4xx_hal_rtc_ex.c ****       __HAL_RTC_TAMPER_CLEAR_FLAG(hrtc, RTC_FLAG_TAMP3F);
 898              		.loc 1 640 7
 899 00c8 7B68     		ldr	r3, [r7, #4]
 900 00ca 1B68     		ldr	r3, [r3]
 901 00cc DB68     		ldr	r3, [r3, #12]
 902 00ce D9B2     		uxtb	r1, r3
 903 00d0 7B68     		ldr	r3, [r7, #4]
 904 00d2 1A68     		ldr	r2, [r3]
 905 00d4 0A4B     		ldr	r3, .L28+16
 906 00d6 0B43     		orrs	r3, r3, r1
 907 00d8 D360     		str	r3, [r2, #12]
 641:Drivers/STM32L4xx_HAL_Driver/Src/stm32l4xx_hal_rtc_ex.c **** 
 642:Drivers/STM32L4xx_HAL_Driver/Src/stm32l4xx_hal_rtc_ex.c ****       /* Tamper3 callback */
 643:Drivers/STM32L4xx_HAL_Driver/Src/stm32l4xx_hal_rtc_ex.c **** #if (USE_HAL_RTC_REGISTER_CALLBACKS == 1)
 644:Drivers/STM32L4xx_HAL_Driver/Src/stm32l4xx_hal_rtc_ex.c ****       hrtc->Tamper3EventCallback(hrtc);
 645:Drivers/STM32L4xx_HAL_Driver/Src/stm32l4xx_hal_rtc_ex.c **** #else
 646:Drivers/STM32L4xx_HAL_Driver/Src/stm32l4xx_hal_rtc_ex.c ****       HAL_RTCEx_Tamper3EventCallback(hrtc);
ARM GAS  /tmp/cchDTGWe.s 			page 28


 908              		.loc 1 646 7
 909 00da 7868     		ldr	r0, [r7, #4]
 910 00dc FFF7FEFF 		bl	HAL_RTCEx_Tamper3EventCallback
 911              	.L27:
 647:Drivers/STM32L4xx_HAL_Driver/Src/stm32l4xx_hal_rtc_ex.c **** #endif /* USE_HAL_RTC_REGISTER_CALLBACKS */
 648:Drivers/STM32L4xx_HAL_Driver/Src/stm32l4xx_hal_rtc_ex.c ****     }
 649:Drivers/STM32L4xx_HAL_Driver/Src/stm32l4xx_hal_rtc_ex.c ****   }
 650:Drivers/STM32L4xx_HAL_Driver/Src/stm32l4xx_hal_rtc_ex.c **** #endif /* RTC_TAMPER3_SUPPORT */
 651:Drivers/STM32L4xx_HAL_Driver/Src/stm32l4xx_hal_rtc_ex.c **** 
 652:Drivers/STM32L4xx_HAL_Driver/Src/stm32l4xx_hal_rtc_ex.c ****   /* Change RTC state */
 653:Drivers/STM32L4xx_HAL_Driver/Src/stm32l4xx_hal_rtc_ex.c ****   hrtc->State = HAL_RTC_STATE_READY;
 912              		.loc 1 653 15
 913 00e0 7B68     		ldr	r3, [r7, #4]
 914 00e2 0122     		movs	r2, #1
 915 00e4 83F82120 		strb	r2, [r3, #33]
 654:Drivers/STM32L4xx_HAL_Driver/Src/stm32l4xx_hal_rtc_ex.c **** }
 916              		.loc 1 654 1
 917 00e8 00BF     		nop
 918 00ea 0837     		adds	r7, r7, #8
 919              		.cfi_def_cfa_offset 8
 920 00ec BD46     		mov	sp, r7
 921              		.cfi_def_cfa_register 13
 922              		@ sp needed
 923 00ee 80BD     		pop	{r7, pc}
 924              	.L29:
 925              		.align	2
 926              	.L28:
 927 00f0 00040140 		.word	1073808384
 928 00f4 04000100 		.word	65540
 929 00f8 04000800 		.word	524292
 930 00fc 04004000 		.word	4194308
 931 0100 7F7FFFFF 		.word	-32897
 932              		.cfi_endproc
 933              	.LFE451:
 935              		.section	.text.HAL_RTCEx_TimeStampEventCallback,"ax",%progbits
 936              		.align	1
 937              		.weak	HAL_RTCEx_TimeStampEventCallback
 938              		.syntax unified
 939              		.thumb
 940              		.thumb_func
 942              	HAL_RTCEx_TimeStampEventCallback:
 943              	.LFB452:
 655:Drivers/STM32L4xx_HAL_Driver/Src/stm32l4xx_hal_rtc_ex.c **** #endif /* #if defined(STM32L412xx) || defined(STM32L422xx) || defined (STM32L4P5xx) || defined (STM
 656:Drivers/STM32L4xx_HAL_Driver/Src/stm32l4xx_hal_rtc_ex.c **** 
 657:Drivers/STM32L4xx_HAL_Driver/Src/stm32l4xx_hal_rtc_ex.c **** /**
 658:Drivers/STM32L4xx_HAL_Driver/Src/stm32l4xx_hal_rtc_ex.c ****   * @brief  TimeStamp callback.
 659:Drivers/STM32L4xx_HAL_Driver/Src/stm32l4xx_hal_rtc_ex.c ****   * @param  hrtc RTC handle
 660:Drivers/STM32L4xx_HAL_Driver/Src/stm32l4xx_hal_rtc_ex.c ****   * @retval None
 661:Drivers/STM32L4xx_HAL_Driver/Src/stm32l4xx_hal_rtc_ex.c ****   */
 662:Drivers/STM32L4xx_HAL_Driver/Src/stm32l4xx_hal_rtc_ex.c **** __weak void HAL_RTCEx_TimeStampEventCallback(RTC_HandleTypeDef *hrtc)
 663:Drivers/STM32L4xx_HAL_Driver/Src/stm32l4xx_hal_rtc_ex.c **** {
 944              		.loc 1 663 1
 945              		.cfi_startproc
 946              		@ args = 0, pretend = 0, frame = 8
 947              		@ frame_needed = 1, uses_anonymous_args = 0
 948              		@ link register save eliminated.
 949 0000 80B4     		push	{r7}
ARM GAS  /tmp/cchDTGWe.s 			page 29


 950              		.cfi_def_cfa_offset 4
 951              		.cfi_offset 7, -4
 952 0002 83B0     		sub	sp, sp, #12
 953              		.cfi_def_cfa_offset 16
 954 0004 00AF     		add	r7, sp, #0
 955              		.cfi_def_cfa_register 7
 956 0006 7860     		str	r0, [r7, #4]
 664:Drivers/STM32L4xx_HAL_Driver/Src/stm32l4xx_hal_rtc_ex.c ****   /* Prevent unused argument(s) compilation warning */
 665:Drivers/STM32L4xx_HAL_Driver/Src/stm32l4xx_hal_rtc_ex.c ****   UNUSED(hrtc);
 666:Drivers/STM32L4xx_HAL_Driver/Src/stm32l4xx_hal_rtc_ex.c **** 
 667:Drivers/STM32L4xx_HAL_Driver/Src/stm32l4xx_hal_rtc_ex.c ****   /* NOTE : This function should not be modified, when the callback is needed,
 668:Drivers/STM32L4xx_HAL_Driver/Src/stm32l4xx_hal_rtc_ex.c ****             the HAL_RTCEx_TimeStampEventCallback could be implemented in the user file
 669:Drivers/STM32L4xx_HAL_Driver/Src/stm32l4xx_hal_rtc_ex.c ****    */
 670:Drivers/STM32L4xx_HAL_Driver/Src/stm32l4xx_hal_rtc_ex.c **** }
 957              		.loc 1 670 1
 958 0008 00BF     		nop
 959 000a 0C37     		adds	r7, r7, #12
 960              		.cfi_def_cfa_offset 4
 961 000c BD46     		mov	sp, r7
 962              		.cfi_def_cfa_register 13
 963              		@ sp needed
 964 000e 5DF8047B 		ldr	r7, [sp], #4
 965              		.cfi_restore 7
 966              		.cfi_def_cfa_offset 0
 967 0012 7047     		bx	lr
 968              		.cfi_endproc
 969              	.LFE452:
 971              		.section	.text.HAL_RTCEx_PollForTimeStampEvent,"ax",%progbits
 972              		.align	1
 973              		.global	HAL_RTCEx_PollForTimeStampEvent
 974              		.syntax unified
 975              		.thumb
 976              		.thumb_func
 978              	HAL_RTCEx_PollForTimeStampEvent:
 979              	.LFB453:
 671:Drivers/STM32L4xx_HAL_Driver/Src/stm32l4xx_hal_rtc_ex.c **** 
 672:Drivers/STM32L4xx_HAL_Driver/Src/stm32l4xx_hal_rtc_ex.c **** /**
 673:Drivers/STM32L4xx_HAL_Driver/Src/stm32l4xx_hal_rtc_ex.c ****   * @brief  Handle TimeStamp polling request.
 674:Drivers/STM32L4xx_HAL_Driver/Src/stm32l4xx_hal_rtc_ex.c ****   * @param  hrtc RTC handle
 675:Drivers/STM32L4xx_HAL_Driver/Src/stm32l4xx_hal_rtc_ex.c ****   * @param  Timeout Timeout duration
 676:Drivers/STM32L4xx_HAL_Driver/Src/stm32l4xx_hal_rtc_ex.c ****   * @retval HAL status
 677:Drivers/STM32L4xx_HAL_Driver/Src/stm32l4xx_hal_rtc_ex.c ****   */
 678:Drivers/STM32L4xx_HAL_Driver/Src/stm32l4xx_hal_rtc_ex.c **** HAL_StatusTypeDef HAL_RTCEx_PollForTimeStampEvent(RTC_HandleTypeDef *hrtc, uint32_t Timeout)
 679:Drivers/STM32L4xx_HAL_Driver/Src/stm32l4xx_hal_rtc_ex.c **** {
 980              		.loc 1 679 1
 981              		.cfi_startproc
 982              		@ args = 0, pretend = 0, frame = 16
 983              		@ frame_needed = 1, uses_anonymous_args = 0
 984 0000 80B5     		push	{r7, lr}
 985              		.cfi_def_cfa_offset 8
 986              		.cfi_offset 7, -8
 987              		.cfi_offset 14, -4
 988 0002 84B0     		sub	sp, sp, #16
 989              		.cfi_def_cfa_offset 24
 990 0004 00AF     		add	r7, sp, #0
 991              		.cfi_def_cfa_register 7
 992 0006 7860     		str	r0, [r7, #4]
ARM GAS  /tmp/cchDTGWe.s 			page 30


 993 0008 3960     		str	r1, [r7]
 680:Drivers/STM32L4xx_HAL_Driver/Src/stm32l4xx_hal_rtc_ex.c ****   uint32_t tickstart = HAL_GetTick();
 994              		.loc 1 680 24
 995 000a FFF7FEFF 		bl	HAL_GetTick
 996 000e F860     		str	r0, [r7, #12]
 681:Drivers/STM32L4xx_HAL_Driver/Src/stm32l4xx_hal_rtc_ex.c **** 
 682:Drivers/STM32L4xx_HAL_Driver/Src/stm32l4xx_hal_rtc_ex.c ****   while (__HAL_RTC_TIMESTAMP_GET_FLAG(hrtc, RTC_FLAG_TSF) == 0U)
 997              		.loc 1 682 9
 998 0010 2AE0     		b	.L35
 999              	.L37:
 683:Drivers/STM32L4xx_HAL_Driver/Src/stm32l4xx_hal_rtc_ex.c ****   {
 684:Drivers/STM32L4xx_HAL_Driver/Src/stm32l4xx_hal_rtc_ex.c ****     if (__HAL_RTC_TIMESTAMP_GET_FLAG(hrtc, RTC_FLAG_TSOVF) != 0U)
 1000              		.loc 1 684 9
 1001 0012 7B68     		ldr	r3, [r7, #4]
 1002 0014 1B68     		ldr	r3, [r3]
 1003 0016 DB68     		ldr	r3, [r3, #12]
 1004 0018 03F48053 		and	r3, r3, #4096
 1005              		.loc 1 684 8
 1006 001c 002B     		cmp	r3, #0
 1007 001e 0ED0     		beq	.L33
 685:Drivers/STM32L4xx_HAL_Driver/Src/stm32l4xx_hal_rtc_ex.c ****     {
 686:Drivers/STM32L4xx_HAL_Driver/Src/stm32l4xx_hal_rtc_ex.c ****       /* Clear the TIMESTAMP OverRun Flag */
 687:Drivers/STM32L4xx_HAL_Driver/Src/stm32l4xx_hal_rtc_ex.c ****       __HAL_RTC_TIMESTAMP_CLEAR_FLAG(hrtc, RTC_FLAG_TSOVF);
 1008              		.loc 1 687 7
 1009 0020 7B68     		ldr	r3, [r7, #4]
 1010 0022 1B68     		ldr	r3, [r3]
 1011 0024 DB68     		ldr	r3, [r3, #12]
 1012 0026 DAB2     		uxtb	r2, r3
 1013 0028 7B68     		ldr	r3, [r7, #4]
 1014 002a 1B68     		ldr	r3, [r3]
 1015 002c 62F48452 		orn	r2, r2, #4224
 1016 0030 DA60     		str	r2, [r3, #12]
 688:Drivers/STM32L4xx_HAL_Driver/Src/stm32l4xx_hal_rtc_ex.c **** 
 689:Drivers/STM32L4xx_HAL_Driver/Src/stm32l4xx_hal_rtc_ex.c ****       /* Change TIMESTAMP state */
 690:Drivers/STM32L4xx_HAL_Driver/Src/stm32l4xx_hal_rtc_ex.c ****       hrtc->State = HAL_RTC_STATE_ERROR;
 1017              		.loc 1 690 19
 1018 0032 7B68     		ldr	r3, [r7, #4]
 1019 0034 0422     		movs	r2, #4
 1020 0036 83F82120 		strb	r2, [r3, #33]
 691:Drivers/STM32L4xx_HAL_Driver/Src/stm32l4xx_hal_rtc_ex.c **** 
 692:Drivers/STM32L4xx_HAL_Driver/Src/stm32l4xx_hal_rtc_ex.c ****       return HAL_ERROR;
 1021              		.loc 1 692 14
 1022 003a 0123     		movs	r3, #1
 1023 003c 20E0     		b	.L34
 1024              	.L33:
 693:Drivers/STM32L4xx_HAL_Driver/Src/stm32l4xx_hal_rtc_ex.c ****     }
 694:Drivers/STM32L4xx_HAL_Driver/Src/stm32l4xx_hal_rtc_ex.c **** 
 695:Drivers/STM32L4xx_HAL_Driver/Src/stm32l4xx_hal_rtc_ex.c ****     if (Timeout != HAL_MAX_DELAY)
 1025              		.loc 1 695 8
 1026 003e 3B68     		ldr	r3, [r7]
 1027 0040 B3F1FF3F 		cmp	r3, #-1
 1028 0044 10D0     		beq	.L35
 696:Drivers/STM32L4xx_HAL_Driver/Src/stm32l4xx_hal_rtc_ex.c ****     {
 697:Drivers/STM32L4xx_HAL_Driver/Src/stm32l4xx_hal_rtc_ex.c ****       if (((HAL_GetTick() - tickstart) > Timeout) || (Timeout == 0U))
 1029              		.loc 1 697 13
 1030 0046 FFF7FEFF 		bl	HAL_GetTick
 1031 004a 0246     		mov	r2, r0
ARM GAS  /tmp/cchDTGWe.s 			page 31


 1032              		.loc 1 697 27 discriminator 1
 1033 004c FB68     		ldr	r3, [r7, #12]
 1034 004e D31A     		subs	r3, r2, r3
 1035              		.loc 1 697 10 discriminator 1
 1036 0050 3A68     		ldr	r2, [r7]
 1037 0052 9A42     		cmp	r2, r3
 1038 0054 02D3     		bcc	.L36
 1039              		.loc 1 697 51 discriminator 1
 1040 0056 3B68     		ldr	r3, [r7]
 1041 0058 002B     		cmp	r3, #0
 1042 005a 05D1     		bne	.L35
 1043              	.L36:
 698:Drivers/STM32L4xx_HAL_Driver/Src/stm32l4xx_hal_rtc_ex.c ****       {
 699:Drivers/STM32L4xx_HAL_Driver/Src/stm32l4xx_hal_rtc_ex.c ****         hrtc->State = HAL_RTC_STATE_TIMEOUT;
 1044              		.loc 1 699 21
 1045 005c 7B68     		ldr	r3, [r7, #4]
 1046 005e 0322     		movs	r2, #3
 1047 0060 83F82120 		strb	r2, [r3, #33]
 700:Drivers/STM32L4xx_HAL_Driver/Src/stm32l4xx_hal_rtc_ex.c ****         return HAL_TIMEOUT;
 1048              		.loc 1 700 16
 1049 0064 0323     		movs	r3, #3
 1050 0066 0BE0     		b	.L34
 1051              	.L35:
 682:Drivers/STM32L4xx_HAL_Driver/Src/stm32l4xx_hal_rtc_ex.c ****   {
 1052              		.loc 1 682 10
 1053 0068 7B68     		ldr	r3, [r7, #4]
 1054 006a 1B68     		ldr	r3, [r3]
 1055 006c DB68     		ldr	r3, [r3, #12]
 1056 006e 03F40063 		and	r3, r3, #2048
 682:Drivers/STM32L4xx_HAL_Driver/Src/stm32l4xx_hal_rtc_ex.c ****   {
 1057              		.loc 1 682 59
 1058 0072 002B     		cmp	r3, #0
 1059 0074 CDD0     		beq	.L37
 701:Drivers/STM32L4xx_HAL_Driver/Src/stm32l4xx_hal_rtc_ex.c ****       }
 702:Drivers/STM32L4xx_HAL_Driver/Src/stm32l4xx_hal_rtc_ex.c ****     }
 703:Drivers/STM32L4xx_HAL_Driver/Src/stm32l4xx_hal_rtc_ex.c ****   }
 704:Drivers/STM32L4xx_HAL_Driver/Src/stm32l4xx_hal_rtc_ex.c **** 
 705:Drivers/STM32L4xx_HAL_Driver/Src/stm32l4xx_hal_rtc_ex.c ****   /* Change RTC state */
 706:Drivers/STM32L4xx_HAL_Driver/Src/stm32l4xx_hal_rtc_ex.c ****   hrtc->State = HAL_RTC_STATE_READY;
 1060              		.loc 1 706 15
 1061 0076 7B68     		ldr	r3, [r7, #4]
 1062 0078 0122     		movs	r2, #1
 1063 007a 83F82120 		strb	r2, [r3, #33]
 707:Drivers/STM32L4xx_HAL_Driver/Src/stm32l4xx_hal_rtc_ex.c **** 
 708:Drivers/STM32L4xx_HAL_Driver/Src/stm32l4xx_hal_rtc_ex.c ****   return HAL_OK;
 1064              		.loc 1 708 10
 1065 007e 0023     		movs	r3, #0
 1066              	.L34:
 709:Drivers/STM32L4xx_HAL_Driver/Src/stm32l4xx_hal_rtc_ex.c **** }
 1067              		.loc 1 709 1
 1068 0080 1846     		mov	r0, r3
 1069 0082 1037     		adds	r7, r7, #16
 1070              		.cfi_def_cfa_offset 8
 1071 0084 BD46     		mov	sp, r7
 1072              		.cfi_def_cfa_register 13
 1073              		@ sp needed
 1074 0086 80BD     		pop	{r7, pc}
ARM GAS  /tmp/cchDTGWe.s 			page 32


 1075              		.cfi_endproc
 1076              	.LFE453:
 1078              		.section	.text.HAL_RTCEx_SetWakeUpTimer,"ax",%progbits
 1079              		.align	1
 1080              		.global	HAL_RTCEx_SetWakeUpTimer
 1081              		.syntax unified
 1082              		.thumb
 1083              		.thumb_func
 1085              	HAL_RTCEx_SetWakeUpTimer:
 1086              	.LFB454:
 710:Drivers/STM32L4xx_HAL_Driver/Src/stm32l4xx_hal_rtc_ex.c **** 
 711:Drivers/STM32L4xx_HAL_Driver/Src/stm32l4xx_hal_rtc_ex.c **** /**
 712:Drivers/STM32L4xx_HAL_Driver/Src/stm32l4xx_hal_rtc_ex.c ****   * @}
 713:Drivers/STM32L4xx_HAL_Driver/Src/stm32l4xx_hal_rtc_ex.c ****   */
 714:Drivers/STM32L4xx_HAL_Driver/Src/stm32l4xx_hal_rtc_ex.c **** 
 715:Drivers/STM32L4xx_HAL_Driver/Src/stm32l4xx_hal_rtc_ex.c **** /** @addtogroup RTCEx_Exported_Functions_Group2
 716:Drivers/STM32L4xx_HAL_Driver/Src/stm32l4xx_hal_rtc_ex.c ****   * @brief    RTC Wake-up functions
 717:Drivers/STM32L4xx_HAL_Driver/Src/stm32l4xx_hal_rtc_ex.c ****   *
 718:Drivers/STM32L4xx_HAL_Driver/Src/stm32l4xx_hal_rtc_ex.c **** @verbatim
 719:Drivers/STM32L4xx_HAL_Driver/Src/stm32l4xx_hal_rtc_ex.c ****  ===============================================================================
 720:Drivers/STM32L4xx_HAL_Driver/Src/stm32l4xx_hal_rtc_ex.c ****                         ##### RTC Wake-up functions #####
 721:Drivers/STM32L4xx_HAL_Driver/Src/stm32l4xx_hal_rtc_ex.c ****  ===============================================================================
 722:Drivers/STM32L4xx_HAL_Driver/Src/stm32l4xx_hal_rtc_ex.c **** 
 723:Drivers/STM32L4xx_HAL_Driver/Src/stm32l4xx_hal_rtc_ex.c ****  [..] This section provides functions allowing to configure Wake-up feature
 724:Drivers/STM32L4xx_HAL_Driver/Src/stm32l4xx_hal_rtc_ex.c **** 
 725:Drivers/STM32L4xx_HAL_Driver/Src/stm32l4xx_hal_rtc_ex.c **** @endverbatim
 726:Drivers/STM32L4xx_HAL_Driver/Src/stm32l4xx_hal_rtc_ex.c ****   * @{
 727:Drivers/STM32L4xx_HAL_Driver/Src/stm32l4xx_hal_rtc_ex.c ****   */
 728:Drivers/STM32L4xx_HAL_Driver/Src/stm32l4xx_hal_rtc_ex.c **** 
 729:Drivers/STM32L4xx_HAL_Driver/Src/stm32l4xx_hal_rtc_ex.c **** /**
 730:Drivers/STM32L4xx_HAL_Driver/Src/stm32l4xx_hal_rtc_ex.c ****   * @brief  Set wake up timer.
 731:Drivers/STM32L4xx_HAL_Driver/Src/stm32l4xx_hal_rtc_ex.c ****   * @param  hrtc RTC handle
 732:Drivers/STM32L4xx_HAL_Driver/Src/stm32l4xx_hal_rtc_ex.c ****   * @param  WakeUpCounter Wake up counter
 733:Drivers/STM32L4xx_HAL_Driver/Src/stm32l4xx_hal_rtc_ex.c ****   * @param  WakeUpClock Wake up clock
 734:Drivers/STM32L4xx_HAL_Driver/Src/stm32l4xx_hal_rtc_ex.c ****   * @retval HAL status
 735:Drivers/STM32L4xx_HAL_Driver/Src/stm32l4xx_hal_rtc_ex.c ****   */
 736:Drivers/STM32L4xx_HAL_Driver/Src/stm32l4xx_hal_rtc_ex.c **** HAL_StatusTypeDef HAL_RTCEx_SetWakeUpTimer(RTC_HandleTypeDef *hrtc, uint32_t WakeUpCounter, uint32_
 737:Drivers/STM32L4xx_HAL_Driver/Src/stm32l4xx_hal_rtc_ex.c **** {
 1087              		.loc 1 737 1
 1088              		.cfi_startproc
 1089              		@ args = 0, pretend = 0, frame = 24
 1090              		@ frame_needed = 1, uses_anonymous_args = 0
 1091 0000 80B5     		push	{r7, lr}
 1092              		.cfi_def_cfa_offset 8
 1093              		.cfi_offset 7, -8
 1094              		.cfi_offset 14, -4
 1095 0002 86B0     		sub	sp, sp, #24
 1096              		.cfi_def_cfa_offset 32
 1097 0004 00AF     		add	r7, sp, #0
 1098              		.cfi_def_cfa_register 7
 1099 0006 F860     		str	r0, [r7, #12]
 1100 0008 B960     		str	r1, [r7, #8]
 1101 000a 7A60     		str	r2, [r7, #4]
 738:Drivers/STM32L4xx_HAL_Driver/Src/stm32l4xx_hal_rtc_ex.c ****   uint32_t tickstart;
 739:Drivers/STM32L4xx_HAL_Driver/Src/stm32l4xx_hal_rtc_ex.c **** 
 740:Drivers/STM32L4xx_HAL_Driver/Src/stm32l4xx_hal_rtc_ex.c ****   /* Check the parameters */
 741:Drivers/STM32L4xx_HAL_Driver/Src/stm32l4xx_hal_rtc_ex.c ****   assert_param(IS_RTC_WAKEUP_CLOCK(WakeUpClock));
ARM GAS  /tmp/cchDTGWe.s 			page 33


 742:Drivers/STM32L4xx_HAL_Driver/Src/stm32l4xx_hal_rtc_ex.c ****   assert_param(IS_RTC_WAKEUP_COUNTER(WakeUpCounter));
 743:Drivers/STM32L4xx_HAL_Driver/Src/stm32l4xx_hal_rtc_ex.c **** 
 744:Drivers/STM32L4xx_HAL_Driver/Src/stm32l4xx_hal_rtc_ex.c ****   /* Process Locked */
 745:Drivers/STM32L4xx_HAL_Driver/Src/stm32l4xx_hal_rtc_ex.c ****   __HAL_LOCK(hrtc);
 1102              		.loc 1 745 3
 1103 000c FB68     		ldr	r3, [r7, #12]
 1104 000e 93F82030 		ldrb	r3, [r3, #32]	@ zero_extendqisi2
 1105 0012 012B     		cmp	r3, #1
 1106 0014 01D1     		bne	.L39
 1107              		.loc 1 745 3 is_stmt 0 discriminator 1
 1108 0016 0223     		movs	r3, #2
 1109              		.loc 1 745 3
 1110 0018 62E0     		b	.L40
 1111              	.L39:
 1112              		.loc 1 745 3 discriminator 2
 1113 001a FB68     		ldr	r3, [r7, #12]
 1114 001c 0122     		movs	r2, #1
 1115 001e 83F82020 		strb	r2, [r3, #32]
 746:Drivers/STM32L4xx_HAL_Driver/Src/stm32l4xx_hal_rtc_ex.c **** 
 747:Drivers/STM32L4xx_HAL_Driver/Src/stm32l4xx_hal_rtc_ex.c ****   hrtc->State = HAL_RTC_STATE_BUSY;
 1116              		.loc 1 747 15 is_stmt 1
 1117 0022 FB68     		ldr	r3, [r7, #12]
 1118 0024 0222     		movs	r2, #2
 1119 0026 83F82120 		strb	r2, [r3, #33]
 748:Drivers/STM32L4xx_HAL_Driver/Src/stm32l4xx_hal_rtc_ex.c **** 
 749:Drivers/STM32L4xx_HAL_Driver/Src/stm32l4xx_hal_rtc_ex.c ****   /* Disable the write protection for RTC registers */
 750:Drivers/STM32L4xx_HAL_Driver/Src/stm32l4xx_hal_rtc_ex.c ****   __HAL_RTC_WRITEPROTECTION_DISABLE(hrtc);
 1120              		.loc 1 750 3
 1121 002a FB68     		ldr	r3, [r7, #12]
 1122 002c 1B68     		ldr	r3, [r3]
 1123 002e CA22     		movs	r2, #202
 1124 0030 5A62     		str	r2, [r3, #36]
 1125 0032 FB68     		ldr	r3, [r7, #12]
 1126 0034 1B68     		ldr	r3, [r3]
 1127 0036 5322     		movs	r2, #83
 1128 0038 5A62     		str	r2, [r3, #36]
 751:Drivers/STM32L4xx_HAL_Driver/Src/stm32l4xx_hal_rtc_ex.c **** 
 752:Drivers/STM32L4xx_HAL_Driver/Src/stm32l4xx_hal_rtc_ex.c ****   /* Clear WUTE in RTC_CR to disable the wakeup timer */
 753:Drivers/STM32L4xx_HAL_Driver/Src/stm32l4xx_hal_rtc_ex.c ****   CLEAR_BIT(hrtc->Instance->CR, RTC_CR_WUTE);
 1129              		.loc 1 753 3
 1130 003a FB68     		ldr	r3, [r7, #12]
 1131 003c 1B68     		ldr	r3, [r3]
 1132 003e 9A68     		ldr	r2, [r3, #8]
 1133 0040 FB68     		ldr	r3, [r7, #12]
 1134 0042 1B68     		ldr	r3, [r3]
 1135 0044 22F48062 		bic	r2, r2, #1024
 1136 0048 9A60     		str	r2, [r3, #8]
 754:Drivers/STM32L4xx_HAL_Driver/Src/stm32l4xx_hal_rtc_ex.c **** 
 755:Drivers/STM32L4xx_HAL_Driver/Src/stm32l4xx_hal_rtc_ex.c ****   /* Poll WUTWF until it is set in RTC_ICSR to make sure the access to wakeup autoreload
 756:Drivers/STM32L4xx_HAL_Driver/Src/stm32l4xx_hal_rtc_ex.c ****      counter and to WUCKSEL[2:0] bits is allowed. This step must be skipped in
 757:Drivers/STM32L4xx_HAL_Driver/Src/stm32l4xx_hal_rtc_ex.c ****      calendar initialization mode. */
 758:Drivers/STM32L4xx_HAL_Driver/Src/stm32l4xx_hal_rtc_ex.c **** #if defined(STM32L412xx) || defined(STM32L422xx) || defined (STM32L4P5xx) || defined (STM32L4Q5xx)
 759:Drivers/STM32L4xx_HAL_Driver/Src/stm32l4xx_hal_rtc_ex.c ****   if (READ_BIT(hrtc->Instance->ICSR, RTC_ICSR_INITF) == 0U)
 760:Drivers/STM32L4xx_HAL_Driver/Src/stm32l4xx_hal_rtc_ex.c **** #else
 761:Drivers/STM32L4xx_HAL_Driver/Src/stm32l4xx_hal_rtc_ex.c ****   if (READ_BIT(hrtc->Instance->ISR, RTC_ISR_INITF) == 0U)
 1137              		.loc 1 761 7
 1138 004a FB68     		ldr	r3, [r7, #12]
ARM GAS  /tmp/cchDTGWe.s 			page 34


 1139 004c 1B68     		ldr	r3, [r3]
 1140 004e DB68     		ldr	r3, [r3, #12]
 1141 0050 03F04003 		and	r3, r3, #64
 1142              		.loc 1 761 6
 1143 0054 002B     		cmp	r3, #0
 1144 0056 20D1     		bne	.L41
 762:Drivers/STM32L4xx_HAL_Driver/Src/stm32l4xx_hal_rtc_ex.c **** #endif
 763:Drivers/STM32L4xx_HAL_Driver/Src/stm32l4xx_hal_rtc_ex.c ****   {
 764:Drivers/STM32L4xx_HAL_Driver/Src/stm32l4xx_hal_rtc_ex.c ****     tickstart = HAL_GetTick();
 1145              		.loc 1 764 17
 1146 0058 FFF7FEFF 		bl	HAL_GetTick
 1147 005c 7861     		str	r0, [r7, #20]
 765:Drivers/STM32L4xx_HAL_Driver/Src/stm32l4xx_hal_rtc_ex.c **** #if defined(STM32L412xx) || defined(STM32L422xx) || defined (STM32L4P5xx) || defined (STM32L4Q5xx)
 766:Drivers/STM32L4xx_HAL_Driver/Src/stm32l4xx_hal_rtc_ex.c ****     while (READ_BIT(hrtc->Instance->ICSR, RTC_ICSR_WUTWF) == 0U)
 767:Drivers/STM32L4xx_HAL_Driver/Src/stm32l4xx_hal_rtc_ex.c **** #else
 768:Drivers/STM32L4xx_HAL_Driver/Src/stm32l4xx_hal_rtc_ex.c ****     while (READ_BIT(hrtc->Instance->ISR, RTC_ISR_WUTWF) == 0U)
 1148              		.loc 1 768 11
 1149 005e 15E0     		b	.L42
 1150              	.L43:
 769:Drivers/STM32L4xx_HAL_Driver/Src/stm32l4xx_hal_rtc_ex.c **** #endif
 770:Drivers/STM32L4xx_HAL_Driver/Src/stm32l4xx_hal_rtc_ex.c ****     {
 771:Drivers/STM32L4xx_HAL_Driver/Src/stm32l4xx_hal_rtc_ex.c ****       if ((HAL_GetTick() - tickstart) > RTC_TIMEOUT_VALUE)
 1151              		.loc 1 771 12
 1152 0060 FFF7FEFF 		bl	HAL_GetTick
 1153 0064 0246     		mov	r2, r0
 1154              		.loc 1 771 26 discriminator 1
 1155 0066 7B69     		ldr	r3, [r7, #20]
 1156 0068 D31A     		subs	r3, r2, r3
 1157              		.loc 1 771 10 discriminator 1
 1158 006a B3F57A7F 		cmp	r3, #1000
 1159 006e 0DD9     		bls	.L42
 772:Drivers/STM32L4xx_HAL_Driver/Src/stm32l4xx_hal_rtc_ex.c ****       {
 773:Drivers/STM32L4xx_HAL_Driver/Src/stm32l4xx_hal_rtc_ex.c ****         /* Enable the write protection for RTC registers */
 774:Drivers/STM32L4xx_HAL_Driver/Src/stm32l4xx_hal_rtc_ex.c ****         __HAL_RTC_WRITEPROTECTION_ENABLE(hrtc);
 1160              		.loc 1 774 9
 1161 0070 FB68     		ldr	r3, [r7, #12]
 1162 0072 1B68     		ldr	r3, [r3]
 1163 0074 FF22     		movs	r2, #255
 1164 0076 5A62     		str	r2, [r3, #36]
 775:Drivers/STM32L4xx_HAL_Driver/Src/stm32l4xx_hal_rtc_ex.c **** 
 776:Drivers/STM32L4xx_HAL_Driver/Src/stm32l4xx_hal_rtc_ex.c ****         hrtc->State = HAL_RTC_STATE_TIMEOUT;
 1165              		.loc 1 776 21
 1166 0078 FB68     		ldr	r3, [r7, #12]
 1167 007a 0322     		movs	r2, #3
 1168 007c 83F82120 		strb	r2, [r3, #33]
 777:Drivers/STM32L4xx_HAL_Driver/Src/stm32l4xx_hal_rtc_ex.c **** 
 778:Drivers/STM32L4xx_HAL_Driver/Src/stm32l4xx_hal_rtc_ex.c ****         /* Process Unlocked */
 779:Drivers/STM32L4xx_HAL_Driver/Src/stm32l4xx_hal_rtc_ex.c ****         __HAL_UNLOCK(hrtc);
 1169              		.loc 1 779 9
 1170 0080 FB68     		ldr	r3, [r7, #12]
 1171 0082 0022     		movs	r2, #0
 1172 0084 83F82020 		strb	r2, [r3, #32]
 780:Drivers/STM32L4xx_HAL_Driver/Src/stm32l4xx_hal_rtc_ex.c **** 
 781:Drivers/STM32L4xx_HAL_Driver/Src/stm32l4xx_hal_rtc_ex.c ****         return HAL_TIMEOUT;
 1173              		.loc 1 781 16
 1174 0088 0323     		movs	r3, #3
 1175 008a 29E0     		b	.L40
ARM GAS  /tmp/cchDTGWe.s 			page 35


 1176              	.L42:
 768:Drivers/STM32L4xx_HAL_Driver/Src/stm32l4xx_hal_rtc_ex.c **** #endif
 1177              		.loc 1 768 12
 1178 008c FB68     		ldr	r3, [r7, #12]
 1179 008e 1B68     		ldr	r3, [r3]
 1180 0090 DB68     		ldr	r3, [r3, #12]
 1181 0092 03F00403 		and	r3, r3, #4
 768:Drivers/STM32L4xx_HAL_Driver/Src/stm32l4xx_hal_rtc_ex.c **** #endif
 1182              		.loc 1 768 57
 1183 0096 002B     		cmp	r3, #0
 1184 0098 E2D0     		beq	.L43
 1185              	.L41:
 782:Drivers/STM32L4xx_HAL_Driver/Src/stm32l4xx_hal_rtc_ex.c ****       }
 783:Drivers/STM32L4xx_HAL_Driver/Src/stm32l4xx_hal_rtc_ex.c ****     }
 784:Drivers/STM32L4xx_HAL_Driver/Src/stm32l4xx_hal_rtc_ex.c ****   }
 785:Drivers/STM32L4xx_HAL_Driver/Src/stm32l4xx_hal_rtc_ex.c **** 
 786:Drivers/STM32L4xx_HAL_Driver/Src/stm32l4xx_hal_rtc_ex.c ****   /* Configure the clock source */
 787:Drivers/STM32L4xx_HAL_Driver/Src/stm32l4xx_hal_rtc_ex.c ****   MODIFY_REG(hrtc->Instance->CR, RTC_CR_WUCKSEL, (uint32_t)WakeUpClock);
 1186              		.loc 1 787 3
 1187 009a FB68     		ldr	r3, [r7, #12]
 1188 009c 1B68     		ldr	r3, [r3]
 1189 009e 9B68     		ldr	r3, [r3, #8]
 1190 00a0 23F00701 		bic	r1, r3, #7
 1191 00a4 FB68     		ldr	r3, [r7, #12]
 1192 00a6 1B68     		ldr	r3, [r3]
 1193 00a8 7A68     		ldr	r2, [r7, #4]
 1194 00aa 0A43     		orrs	r2, r2, r1
 1195 00ac 9A60     		str	r2, [r3, #8]
 788:Drivers/STM32L4xx_HAL_Driver/Src/stm32l4xx_hal_rtc_ex.c **** 
 789:Drivers/STM32L4xx_HAL_Driver/Src/stm32l4xx_hal_rtc_ex.c ****   /* Configure the Wakeup Timer counter */
 790:Drivers/STM32L4xx_HAL_Driver/Src/stm32l4xx_hal_rtc_ex.c ****   WRITE_REG(hrtc->Instance->WUTR, (uint32_t)WakeUpCounter);
 1196              		.loc 1 790 3
 1197 00ae FB68     		ldr	r3, [r7, #12]
 1198 00b0 1B68     		ldr	r3, [r3]
 1199 00b2 BA68     		ldr	r2, [r7, #8]
 1200 00b4 5A61     		str	r2, [r3, #20]
 791:Drivers/STM32L4xx_HAL_Driver/Src/stm32l4xx_hal_rtc_ex.c **** 
 792:Drivers/STM32L4xx_HAL_Driver/Src/stm32l4xx_hal_rtc_ex.c ****   /* Enable the Wakeup Timer */
 793:Drivers/STM32L4xx_HAL_Driver/Src/stm32l4xx_hal_rtc_ex.c ****   SET_BIT(hrtc->Instance->CR, RTC_CR_WUTE);
 1201              		.loc 1 793 3
 1202 00b6 FB68     		ldr	r3, [r7, #12]
 1203 00b8 1B68     		ldr	r3, [r3]
 1204 00ba 9A68     		ldr	r2, [r3, #8]
 1205 00bc FB68     		ldr	r3, [r7, #12]
 1206 00be 1B68     		ldr	r3, [r3]
 1207 00c0 42F48062 		orr	r2, r2, #1024
 1208 00c4 9A60     		str	r2, [r3, #8]
 794:Drivers/STM32L4xx_HAL_Driver/Src/stm32l4xx_hal_rtc_ex.c **** 
 795:Drivers/STM32L4xx_HAL_Driver/Src/stm32l4xx_hal_rtc_ex.c ****   /* Enable the write protection for RTC registers */
 796:Drivers/STM32L4xx_HAL_Driver/Src/stm32l4xx_hal_rtc_ex.c ****   __HAL_RTC_WRITEPROTECTION_ENABLE(hrtc);
 1209              		.loc 1 796 3
 1210 00c6 FB68     		ldr	r3, [r7, #12]
 1211 00c8 1B68     		ldr	r3, [r3]
 1212 00ca FF22     		movs	r2, #255
 1213 00cc 5A62     		str	r2, [r3, #36]
 797:Drivers/STM32L4xx_HAL_Driver/Src/stm32l4xx_hal_rtc_ex.c **** 
 798:Drivers/STM32L4xx_HAL_Driver/Src/stm32l4xx_hal_rtc_ex.c ****   hrtc->State = HAL_RTC_STATE_READY;
ARM GAS  /tmp/cchDTGWe.s 			page 36


 1214              		.loc 1 798 15
 1215 00ce FB68     		ldr	r3, [r7, #12]
 1216 00d0 0122     		movs	r2, #1
 1217 00d2 83F82120 		strb	r2, [r3, #33]
 799:Drivers/STM32L4xx_HAL_Driver/Src/stm32l4xx_hal_rtc_ex.c **** 
 800:Drivers/STM32L4xx_HAL_Driver/Src/stm32l4xx_hal_rtc_ex.c ****   /* Process Unlocked */
 801:Drivers/STM32L4xx_HAL_Driver/Src/stm32l4xx_hal_rtc_ex.c ****   __HAL_UNLOCK(hrtc);
 1218              		.loc 1 801 3
 1219 00d6 FB68     		ldr	r3, [r7, #12]
 1220 00d8 0022     		movs	r2, #0
 1221 00da 83F82020 		strb	r2, [r3, #32]
 802:Drivers/STM32L4xx_HAL_Driver/Src/stm32l4xx_hal_rtc_ex.c **** 
 803:Drivers/STM32L4xx_HAL_Driver/Src/stm32l4xx_hal_rtc_ex.c ****   return HAL_OK;
 1222              		.loc 1 803 10
 1223 00de 0023     		movs	r3, #0
 1224              	.L40:
 804:Drivers/STM32L4xx_HAL_Driver/Src/stm32l4xx_hal_rtc_ex.c **** }
 1225              		.loc 1 804 1
 1226 00e0 1846     		mov	r0, r3
 1227 00e2 1837     		adds	r7, r7, #24
 1228              		.cfi_def_cfa_offset 8
 1229 00e4 BD46     		mov	sp, r7
 1230              		.cfi_def_cfa_register 13
 1231              		@ sp needed
 1232 00e6 80BD     		pop	{r7, pc}
 1233              		.cfi_endproc
 1234              	.LFE454:
 1236              		.section	.text.HAL_RTCEx_SetWakeUpTimer_IT,"ax",%progbits
 1237              		.align	1
 1238              		.global	HAL_RTCEx_SetWakeUpTimer_IT
 1239              		.syntax unified
 1240              		.thumb
 1241              		.thumb_func
 1243              	HAL_RTCEx_SetWakeUpTimer_IT:
 1244              	.LFB455:
 805:Drivers/STM32L4xx_HAL_Driver/Src/stm32l4xx_hal_rtc_ex.c **** 
 806:Drivers/STM32L4xx_HAL_Driver/Src/stm32l4xx_hal_rtc_ex.c **** /**
 807:Drivers/STM32L4xx_HAL_Driver/Src/stm32l4xx_hal_rtc_ex.c ****   * @brief  Set wake up timer with interrupt.
 808:Drivers/STM32L4xx_HAL_Driver/Src/stm32l4xx_hal_rtc_ex.c ****   * @param  hrtc RTC handle
 809:Drivers/STM32L4xx_HAL_Driver/Src/stm32l4xx_hal_rtc_ex.c ****   * @param  WakeUpCounter Wake up counter
 810:Drivers/STM32L4xx_HAL_Driver/Src/stm32l4xx_hal_rtc_ex.c ****   * @param  WakeUpClock Wake up clock
 811:Drivers/STM32L4xx_HAL_Driver/Src/stm32l4xx_hal_rtc_ex.c ****   * @param  WakeUpAutoClr Wake up auto clear value (look at WUTOCLR in reference manual)
 812:Drivers/STM32L4xx_HAL_Driver/Src/stm32l4xx_hal_rtc_ex.c ****   *                       - Only available for STM32L412xx and STM32L422xx
 813:Drivers/STM32L4xx_HAL_Driver/Src/stm32l4xx_hal_rtc_ex.c ****   *                       - No effect if WakeUpAutoClr is set to zero
 814:Drivers/STM32L4xx_HAL_Driver/Src/stm32l4xx_hal_rtc_ex.c ****   *                       - This feature is meaningful in case of Low power mode to avoid any RTC s
 815:Drivers/STM32L4xx_HAL_Driver/Src/stm32l4xx_hal_rtc_ex.c ****   *                         That is why when WakeUpAutoClr is set, EXTI is configured as EVENT inst
 816:Drivers/STM32L4xx_HAL_Driver/Src/stm32l4xx_hal_rtc_ex.c ****   * @retval HAL status
 817:Drivers/STM32L4xx_HAL_Driver/Src/stm32l4xx_hal_rtc_ex.c ****   */
 818:Drivers/STM32L4xx_HAL_Driver/Src/stm32l4xx_hal_rtc_ex.c **** #if defined(STM32L412xx) || defined(STM32L422xx) || defined (STM32L4P5xx) || defined (STM32L4Q5xx)
 819:Drivers/STM32L4xx_HAL_Driver/Src/stm32l4xx_hal_rtc_ex.c **** HAL_StatusTypeDef HAL_RTCEx_SetWakeUpTimer_IT(RTC_HandleTypeDef *hrtc, uint32_t WakeUpCounter, uint
 820:Drivers/STM32L4xx_HAL_Driver/Src/stm32l4xx_hal_rtc_ex.c **** #else
 821:Drivers/STM32L4xx_HAL_Driver/Src/stm32l4xx_hal_rtc_ex.c **** HAL_StatusTypeDef HAL_RTCEx_SetWakeUpTimer_IT(RTC_HandleTypeDef *hrtc, uint32_t WakeUpCounter, uint
 822:Drivers/STM32L4xx_HAL_Driver/Src/stm32l4xx_hal_rtc_ex.c **** #endif
 823:Drivers/STM32L4xx_HAL_Driver/Src/stm32l4xx_hal_rtc_ex.c **** {
 1245              		.loc 1 823 1
 1246              		.cfi_startproc
 1247              		@ args = 0, pretend = 0, frame = 24
ARM GAS  /tmp/cchDTGWe.s 			page 37


 1248              		@ frame_needed = 1, uses_anonymous_args = 0
 1249 0000 80B5     		push	{r7, lr}
 1250              		.cfi_def_cfa_offset 8
 1251              		.cfi_offset 7, -8
 1252              		.cfi_offset 14, -4
 1253 0002 86B0     		sub	sp, sp, #24
 1254              		.cfi_def_cfa_offset 32
 1255 0004 00AF     		add	r7, sp, #0
 1256              		.cfi_def_cfa_register 7
 1257 0006 F860     		str	r0, [r7, #12]
 1258 0008 B960     		str	r1, [r7, #8]
 1259 000a 7A60     		str	r2, [r7, #4]
 824:Drivers/STM32L4xx_HAL_Driver/Src/stm32l4xx_hal_rtc_ex.c ****   uint32_t tickstart;
 825:Drivers/STM32L4xx_HAL_Driver/Src/stm32l4xx_hal_rtc_ex.c **** 
 826:Drivers/STM32L4xx_HAL_Driver/Src/stm32l4xx_hal_rtc_ex.c ****   /* Check the parameters */
 827:Drivers/STM32L4xx_HAL_Driver/Src/stm32l4xx_hal_rtc_ex.c ****   assert_param(IS_RTC_WAKEUP_CLOCK(WakeUpClock));
 828:Drivers/STM32L4xx_HAL_Driver/Src/stm32l4xx_hal_rtc_ex.c ****   assert_param(IS_RTC_WAKEUP_COUNTER(WakeUpCounter));
 829:Drivers/STM32L4xx_HAL_Driver/Src/stm32l4xx_hal_rtc_ex.c **** #if defined(STM32L412xx) || defined(STM32L422xx) || defined (STM32L4P5xx) || defined (STM32L4Q5xx)
 830:Drivers/STM32L4xx_HAL_Driver/Src/stm32l4xx_hal_rtc_ex.c ****   /* (0x0000<=WUTOCLR<=WUT) */
 831:Drivers/STM32L4xx_HAL_Driver/Src/stm32l4xx_hal_rtc_ex.c ****   assert_param(WakeUpAutoClr <= WakeUpCounter);
 832:Drivers/STM32L4xx_HAL_Driver/Src/stm32l4xx_hal_rtc_ex.c **** #endif
 833:Drivers/STM32L4xx_HAL_Driver/Src/stm32l4xx_hal_rtc_ex.c **** 
 834:Drivers/STM32L4xx_HAL_Driver/Src/stm32l4xx_hal_rtc_ex.c ****   /* Process Locked */
 835:Drivers/STM32L4xx_HAL_Driver/Src/stm32l4xx_hal_rtc_ex.c ****   __HAL_LOCK(hrtc);
 1260              		.loc 1 835 3
 1261 000c FB68     		ldr	r3, [r7, #12]
 1262 000e 93F82030 		ldrb	r3, [r3, #32]	@ zero_extendqisi2
 1263 0012 012B     		cmp	r3, #1
 1264 0014 01D1     		bne	.L45
 1265              		.loc 1 835 3 is_stmt 0 discriminator 1
 1266 0016 0223     		movs	r3, #2
 1267              		.loc 1 835 3
 1268 0018 7FE0     		b	.L46
 1269              	.L45:
 1270              		.loc 1 835 3 discriminator 2
 1271 001a FB68     		ldr	r3, [r7, #12]
 1272 001c 0122     		movs	r2, #1
 1273 001e 83F82020 		strb	r2, [r3, #32]
 836:Drivers/STM32L4xx_HAL_Driver/Src/stm32l4xx_hal_rtc_ex.c **** 
 837:Drivers/STM32L4xx_HAL_Driver/Src/stm32l4xx_hal_rtc_ex.c ****   hrtc->State = HAL_RTC_STATE_BUSY;
 1274              		.loc 1 837 15 is_stmt 1
 1275 0022 FB68     		ldr	r3, [r7, #12]
 1276 0024 0222     		movs	r2, #2
 1277 0026 83F82120 		strb	r2, [r3, #33]
 838:Drivers/STM32L4xx_HAL_Driver/Src/stm32l4xx_hal_rtc_ex.c **** 
 839:Drivers/STM32L4xx_HAL_Driver/Src/stm32l4xx_hal_rtc_ex.c ****   /* Disable the write protection for RTC registers */
 840:Drivers/STM32L4xx_HAL_Driver/Src/stm32l4xx_hal_rtc_ex.c ****   __HAL_RTC_WRITEPROTECTION_DISABLE(hrtc);
 1278              		.loc 1 840 3
 1279 002a FB68     		ldr	r3, [r7, #12]
 1280 002c 1B68     		ldr	r3, [r3]
 1281 002e CA22     		movs	r2, #202
 1282 0030 5A62     		str	r2, [r3, #36]
 1283 0032 FB68     		ldr	r3, [r7, #12]
 1284 0034 1B68     		ldr	r3, [r3]
 1285 0036 5322     		movs	r2, #83
 1286 0038 5A62     		str	r2, [r3, #36]
 841:Drivers/STM32L4xx_HAL_Driver/Src/stm32l4xx_hal_rtc_ex.c **** 
ARM GAS  /tmp/cchDTGWe.s 			page 38


 842:Drivers/STM32L4xx_HAL_Driver/Src/stm32l4xx_hal_rtc_ex.c ****   /* Clear WUTE in RTC_CR to disable the wakeup timer */
 843:Drivers/STM32L4xx_HAL_Driver/Src/stm32l4xx_hal_rtc_ex.c ****   CLEAR_BIT(hrtc->Instance->CR, RTC_CR_WUTE);
 1287              		.loc 1 843 3
 1288 003a FB68     		ldr	r3, [r7, #12]
 1289 003c 1B68     		ldr	r3, [r3]
 1290 003e 9A68     		ldr	r2, [r3, #8]
 1291 0040 FB68     		ldr	r3, [r7, #12]
 1292 0042 1B68     		ldr	r3, [r3]
 1293 0044 22F48062 		bic	r2, r2, #1024
 1294 0048 9A60     		str	r2, [r3, #8]
 844:Drivers/STM32L4xx_HAL_Driver/Src/stm32l4xx_hal_rtc_ex.c **** 
 845:Drivers/STM32L4xx_HAL_Driver/Src/stm32l4xx_hal_rtc_ex.c ****   /* Clear flag Wake-Up */
 846:Drivers/STM32L4xx_HAL_Driver/Src/stm32l4xx_hal_rtc_ex.c ****   __HAL_RTC_WAKEUPTIMER_CLEAR_FLAG(hrtc, RTC_FLAG_WUTF);
 1295              		.loc 1 846 3
 1296 004a FB68     		ldr	r3, [r7, #12]
 1297 004c 1B68     		ldr	r3, [r3]
 1298 004e DB68     		ldr	r3, [r3, #12]
 1299 0050 DAB2     		uxtb	r2, r3
 1300 0052 FB68     		ldr	r3, [r7, #12]
 1301 0054 1B68     		ldr	r3, [r3]
 1302 0056 62F49062 		orn	r2, r2, #1152
 1303 005a DA60     		str	r2, [r3, #12]
 847:Drivers/STM32L4xx_HAL_Driver/Src/stm32l4xx_hal_rtc_ex.c **** 
 848:Drivers/STM32L4xx_HAL_Driver/Src/stm32l4xx_hal_rtc_ex.c ****   /* Poll WUTWF until it is set in RTC_ICSR to make sure the access to wakeup autoreload
 849:Drivers/STM32L4xx_HAL_Driver/Src/stm32l4xx_hal_rtc_ex.c ****      counter and to WUCKSEL[2:0] bits is allowed. This step must be skipped in
 850:Drivers/STM32L4xx_HAL_Driver/Src/stm32l4xx_hal_rtc_ex.c ****      calendar initialization mode. */
 851:Drivers/STM32L4xx_HAL_Driver/Src/stm32l4xx_hal_rtc_ex.c **** #if defined(STM32L412xx) || defined(STM32L422xx) || defined (STM32L4P5xx) || defined (STM32L4Q5xx)
 852:Drivers/STM32L4xx_HAL_Driver/Src/stm32l4xx_hal_rtc_ex.c ****   if (READ_BIT(hrtc->Instance->ICSR, RTC_ICSR_INITF) == 0U)
 853:Drivers/STM32L4xx_HAL_Driver/Src/stm32l4xx_hal_rtc_ex.c **** #else
 854:Drivers/STM32L4xx_HAL_Driver/Src/stm32l4xx_hal_rtc_ex.c ****   if (READ_BIT(hrtc->Instance->ISR, RTC_ISR_INITF) == 0U)
 1304              		.loc 1 854 7
 1305 005c FB68     		ldr	r3, [r7, #12]
 1306 005e 1B68     		ldr	r3, [r3]
 1307 0060 DB68     		ldr	r3, [r3, #12]
 1308 0062 03F04003 		and	r3, r3, #64
 1309              		.loc 1 854 6
 1310 0066 002B     		cmp	r3, #0
 1311 0068 20D1     		bne	.L47
 855:Drivers/STM32L4xx_HAL_Driver/Src/stm32l4xx_hal_rtc_ex.c **** #endif
 856:Drivers/STM32L4xx_HAL_Driver/Src/stm32l4xx_hal_rtc_ex.c ****   {
 857:Drivers/STM32L4xx_HAL_Driver/Src/stm32l4xx_hal_rtc_ex.c ****     tickstart = HAL_GetTick();
 1312              		.loc 1 857 17
 1313 006a FFF7FEFF 		bl	HAL_GetTick
 1314 006e 7861     		str	r0, [r7, #20]
 858:Drivers/STM32L4xx_HAL_Driver/Src/stm32l4xx_hal_rtc_ex.c **** #if defined(STM32L412xx) || defined(STM32L422xx) || defined (STM32L4P5xx) || defined (STM32L4Q5xx)
 859:Drivers/STM32L4xx_HAL_Driver/Src/stm32l4xx_hal_rtc_ex.c ****     while (READ_BIT(hrtc->Instance->ICSR, RTC_ICSR_WUTWF) == 0U)
 860:Drivers/STM32L4xx_HAL_Driver/Src/stm32l4xx_hal_rtc_ex.c **** #else
 861:Drivers/STM32L4xx_HAL_Driver/Src/stm32l4xx_hal_rtc_ex.c ****     while (READ_BIT(hrtc->Instance->ISR, RTC_ISR_WUTWF) == 0U)
 1315              		.loc 1 861 11
 1316 0070 15E0     		b	.L48
 1317              	.L49:
 862:Drivers/STM32L4xx_HAL_Driver/Src/stm32l4xx_hal_rtc_ex.c **** #endif
 863:Drivers/STM32L4xx_HAL_Driver/Src/stm32l4xx_hal_rtc_ex.c ****     {
 864:Drivers/STM32L4xx_HAL_Driver/Src/stm32l4xx_hal_rtc_ex.c ****       if ((HAL_GetTick() - tickstart) > RTC_TIMEOUT_VALUE)
 1318              		.loc 1 864 12
 1319 0072 FFF7FEFF 		bl	HAL_GetTick
 1320 0076 0246     		mov	r2, r0
ARM GAS  /tmp/cchDTGWe.s 			page 39


 1321              		.loc 1 864 26 discriminator 1
 1322 0078 7B69     		ldr	r3, [r7, #20]
 1323 007a D31A     		subs	r3, r2, r3
 1324              		.loc 1 864 10 discriminator 1
 1325 007c B3F57A7F 		cmp	r3, #1000
 1326 0080 0DD9     		bls	.L48
 865:Drivers/STM32L4xx_HAL_Driver/Src/stm32l4xx_hal_rtc_ex.c ****       {
 866:Drivers/STM32L4xx_HAL_Driver/Src/stm32l4xx_hal_rtc_ex.c ****         /* Enable the write protection for RTC registers */
 867:Drivers/STM32L4xx_HAL_Driver/Src/stm32l4xx_hal_rtc_ex.c ****         __HAL_RTC_WRITEPROTECTION_ENABLE(hrtc);
 1327              		.loc 1 867 9
 1328 0082 FB68     		ldr	r3, [r7, #12]
 1329 0084 1B68     		ldr	r3, [r3]
 1330 0086 FF22     		movs	r2, #255
 1331 0088 5A62     		str	r2, [r3, #36]
 868:Drivers/STM32L4xx_HAL_Driver/Src/stm32l4xx_hal_rtc_ex.c **** 
 869:Drivers/STM32L4xx_HAL_Driver/Src/stm32l4xx_hal_rtc_ex.c ****         hrtc->State = HAL_RTC_STATE_TIMEOUT;
 1332              		.loc 1 869 21
 1333 008a FB68     		ldr	r3, [r7, #12]
 1334 008c 0322     		movs	r2, #3
 1335 008e 83F82120 		strb	r2, [r3, #33]
 870:Drivers/STM32L4xx_HAL_Driver/Src/stm32l4xx_hal_rtc_ex.c **** 
 871:Drivers/STM32L4xx_HAL_Driver/Src/stm32l4xx_hal_rtc_ex.c ****         /* Process Unlocked */
 872:Drivers/STM32L4xx_HAL_Driver/Src/stm32l4xx_hal_rtc_ex.c ****         __HAL_UNLOCK(hrtc);
 1336              		.loc 1 872 9
 1337 0092 FB68     		ldr	r3, [r7, #12]
 1338 0094 0022     		movs	r2, #0
 1339 0096 83F82020 		strb	r2, [r3, #32]
 873:Drivers/STM32L4xx_HAL_Driver/Src/stm32l4xx_hal_rtc_ex.c **** 
 874:Drivers/STM32L4xx_HAL_Driver/Src/stm32l4xx_hal_rtc_ex.c ****         return HAL_TIMEOUT;
 1340              		.loc 1 874 16
 1341 009a 0323     		movs	r3, #3
 1342 009c 3DE0     		b	.L46
 1343              	.L48:
 861:Drivers/STM32L4xx_HAL_Driver/Src/stm32l4xx_hal_rtc_ex.c **** #endif
 1344              		.loc 1 861 12
 1345 009e FB68     		ldr	r3, [r7, #12]
 1346 00a0 1B68     		ldr	r3, [r3]
 1347 00a2 DB68     		ldr	r3, [r3, #12]
 1348 00a4 03F00403 		and	r3, r3, #4
 861:Drivers/STM32L4xx_HAL_Driver/Src/stm32l4xx_hal_rtc_ex.c **** #endif
 1349              		.loc 1 861 57
 1350 00a8 002B     		cmp	r3, #0
 1351 00aa E2D0     		beq	.L49
 1352              	.L47:
 875:Drivers/STM32L4xx_HAL_Driver/Src/stm32l4xx_hal_rtc_ex.c ****       }
 876:Drivers/STM32L4xx_HAL_Driver/Src/stm32l4xx_hal_rtc_ex.c ****     }
 877:Drivers/STM32L4xx_HAL_Driver/Src/stm32l4xx_hal_rtc_ex.c ****   }
 878:Drivers/STM32L4xx_HAL_Driver/Src/stm32l4xx_hal_rtc_ex.c **** 
 879:Drivers/STM32L4xx_HAL_Driver/Src/stm32l4xx_hal_rtc_ex.c **** #if defined(STM32L412xx) || defined(STM32L422xx) || defined (STM32L4P5xx) || defined (STM32L4Q5xx)
 880:Drivers/STM32L4xx_HAL_Driver/Src/stm32l4xx_hal_rtc_ex.c ****   /* Configure the Wakeup Timer counter and auto clear value */
 881:Drivers/STM32L4xx_HAL_Driver/Src/stm32l4xx_hal_rtc_ex.c ****   hrtc->Instance->WUTR = (uint32_t)(WakeUpCounter | (WakeUpAutoClr << RTC_WUTR_WUTOCLR_Pos));
 882:Drivers/STM32L4xx_HAL_Driver/Src/stm32l4xx_hal_rtc_ex.c **** #else
 883:Drivers/STM32L4xx_HAL_Driver/Src/stm32l4xx_hal_rtc_ex.c ****   /* Configure the Wakeup Timer counter */
 884:Drivers/STM32L4xx_HAL_Driver/Src/stm32l4xx_hal_rtc_ex.c ****   hrtc->Instance->WUTR = (uint32_t)WakeUpCounter;
 1353              		.loc 1 884 7
 1354 00ac FB68     		ldr	r3, [r7, #12]
 1355 00ae 1B68     		ldr	r3, [r3]
ARM GAS  /tmp/cchDTGWe.s 			page 40


 1356              		.loc 1 884 24
 1357 00b0 BA68     		ldr	r2, [r7, #8]
 1358 00b2 5A61     		str	r2, [r3, #20]
 885:Drivers/STM32L4xx_HAL_Driver/Src/stm32l4xx_hal_rtc_ex.c **** #endif
 886:Drivers/STM32L4xx_HAL_Driver/Src/stm32l4xx_hal_rtc_ex.c **** 
 887:Drivers/STM32L4xx_HAL_Driver/Src/stm32l4xx_hal_rtc_ex.c ****   /* Configure the clock source */
 888:Drivers/STM32L4xx_HAL_Driver/Src/stm32l4xx_hal_rtc_ex.c ****   MODIFY_REG(hrtc->Instance->CR, RTC_CR_WUCKSEL, (uint32_t)WakeUpClock);
 1359              		.loc 1 888 3
 1360 00b4 FB68     		ldr	r3, [r7, #12]
 1361 00b6 1B68     		ldr	r3, [r3]
 1362 00b8 9B68     		ldr	r3, [r3, #8]
 1363 00ba 23F00701 		bic	r1, r3, #7
 1364 00be FB68     		ldr	r3, [r7, #12]
 1365 00c0 1B68     		ldr	r3, [r3]
 1366 00c2 7A68     		ldr	r2, [r7, #4]
 1367 00c4 0A43     		orrs	r2, r2, r1
 1368 00c6 9A60     		str	r2, [r3, #8]
 889:Drivers/STM32L4xx_HAL_Driver/Src/stm32l4xx_hal_rtc_ex.c **** 
 890:Drivers/STM32L4xx_HAL_Driver/Src/stm32l4xx_hal_rtc_ex.c **** #if defined(STM32L412xx) || defined(STM32L422xx) || defined (STM32L4P5xx) || defined (STM32L4Q5xx)
 891:Drivers/STM32L4xx_HAL_Driver/Src/stm32l4xx_hal_rtc_ex.c ****   /* In case of WUT autoclr, the IRQ handler should not be called */
 892:Drivers/STM32L4xx_HAL_Driver/Src/stm32l4xx_hal_rtc_ex.c ****   if (WakeUpAutoClr != 0u)
 893:Drivers/STM32L4xx_HAL_Driver/Src/stm32l4xx_hal_rtc_ex.c ****   {
 894:Drivers/STM32L4xx_HAL_Driver/Src/stm32l4xx_hal_rtc_ex.c ****     /* RTC WakeUpTimer EXTI Configuration: Event configuration */
 895:Drivers/STM32L4xx_HAL_Driver/Src/stm32l4xx_hal_rtc_ex.c ****     __HAL_RTC_WAKEUPTIMER_EXTI_ENABLE_EVENT();
 896:Drivers/STM32L4xx_HAL_Driver/Src/stm32l4xx_hal_rtc_ex.c ****   }
 897:Drivers/STM32L4xx_HAL_Driver/Src/stm32l4xx_hal_rtc_ex.c ****   else
 898:Drivers/STM32L4xx_HAL_Driver/Src/stm32l4xx_hal_rtc_ex.c ****   {
 899:Drivers/STM32L4xx_HAL_Driver/Src/stm32l4xx_hal_rtc_ex.c ****     /* RTC WakeUpTimer EXTI Configuration: Interrupt configuration */
 900:Drivers/STM32L4xx_HAL_Driver/Src/stm32l4xx_hal_rtc_ex.c ****     __HAL_RTC_WAKEUPTIMER_EXTI_ENABLE_IT();
 901:Drivers/STM32L4xx_HAL_Driver/Src/stm32l4xx_hal_rtc_ex.c ****   }
 902:Drivers/STM32L4xx_HAL_Driver/Src/stm32l4xx_hal_rtc_ex.c **** #else /* defined(STM32L412xx) || defined(STM32L422xx) || defined (STM32L4P5xx) || defined (STM32L4Q
 903:Drivers/STM32L4xx_HAL_Driver/Src/stm32l4xx_hal_rtc_ex.c ****   __HAL_RTC_WAKEUPTIMER_EXTI_ENABLE_IT();
 1369              		.loc 1 903 3
 1370 00c8 164B     		ldr	r3, .L50
 1371 00ca 1B68     		ldr	r3, [r3]
 1372 00cc 154A     		ldr	r2, .L50
 1373 00ce 43F48013 		orr	r3, r3, #1048576
 1374 00d2 1360     		str	r3, [r2]
 904:Drivers/STM32L4xx_HAL_Driver/Src/stm32l4xx_hal_rtc_ex.c **** #endif /* defined(STM32L412xx) || defined(STM32L422xx) || defined (STM32L4P5xx) || defined (STM32L4
 905:Drivers/STM32L4xx_HAL_Driver/Src/stm32l4xx_hal_rtc_ex.c **** 
 906:Drivers/STM32L4xx_HAL_Driver/Src/stm32l4xx_hal_rtc_ex.c ****   __HAL_RTC_WAKEUPTIMER_EXTI_ENABLE_RISING_EDGE();
 1375              		.loc 1 906 3
 1376 00d4 134B     		ldr	r3, .L50
 1377 00d6 9B68     		ldr	r3, [r3, #8]
 1378 00d8 124A     		ldr	r2, .L50
 1379 00da 43F48013 		orr	r3, r3, #1048576
 1380 00de 9360     		str	r3, [r2, #8]
 907:Drivers/STM32L4xx_HAL_Driver/Src/stm32l4xx_hal_rtc_ex.c **** 
 908:Drivers/STM32L4xx_HAL_Driver/Src/stm32l4xx_hal_rtc_ex.c ****   /* Configure the Interrupt in the RTC_CR register */
 909:Drivers/STM32L4xx_HAL_Driver/Src/stm32l4xx_hal_rtc_ex.c ****   __HAL_RTC_WAKEUPTIMER_ENABLE_IT(hrtc, RTC_IT_WUT);
 1381              		.loc 1 909 3
 1382 00e0 FB68     		ldr	r3, [r7, #12]
 1383 00e2 1B68     		ldr	r3, [r3]
 1384 00e4 9A68     		ldr	r2, [r3, #8]
 1385 00e6 FB68     		ldr	r3, [r7, #12]
 1386 00e8 1B68     		ldr	r3, [r3]
 1387 00ea 42F48042 		orr	r2, r2, #16384
ARM GAS  /tmp/cchDTGWe.s 			page 41


 1388 00ee 9A60     		str	r2, [r3, #8]
 910:Drivers/STM32L4xx_HAL_Driver/Src/stm32l4xx_hal_rtc_ex.c **** 
 911:Drivers/STM32L4xx_HAL_Driver/Src/stm32l4xx_hal_rtc_ex.c ****   /* Enable the Wakeup Timer */
 912:Drivers/STM32L4xx_HAL_Driver/Src/stm32l4xx_hal_rtc_ex.c ****   __HAL_RTC_WAKEUPTIMER_ENABLE(hrtc);
 1389              		.loc 1 912 3
 1390 00f0 FB68     		ldr	r3, [r7, #12]
 1391 00f2 1B68     		ldr	r3, [r3]
 1392 00f4 9A68     		ldr	r2, [r3, #8]
 1393 00f6 FB68     		ldr	r3, [r7, #12]
 1394 00f8 1B68     		ldr	r3, [r3]
 1395 00fa 42F48062 		orr	r2, r2, #1024
 1396 00fe 9A60     		str	r2, [r3, #8]
 913:Drivers/STM32L4xx_HAL_Driver/Src/stm32l4xx_hal_rtc_ex.c **** 
 914:Drivers/STM32L4xx_HAL_Driver/Src/stm32l4xx_hal_rtc_ex.c ****   /* Enable the write protection for RTC registers */
 915:Drivers/STM32L4xx_HAL_Driver/Src/stm32l4xx_hal_rtc_ex.c ****   __HAL_RTC_WRITEPROTECTION_ENABLE(hrtc);
 1397              		.loc 1 915 3
 1398 0100 FB68     		ldr	r3, [r7, #12]
 1399 0102 1B68     		ldr	r3, [r3]
 1400 0104 FF22     		movs	r2, #255
 1401 0106 5A62     		str	r2, [r3, #36]
 916:Drivers/STM32L4xx_HAL_Driver/Src/stm32l4xx_hal_rtc_ex.c **** 
 917:Drivers/STM32L4xx_HAL_Driver/Src/stm32l4xx_hal_rtc_ex.c ****   hrtc->State = HAL_RTC_STATE_READY;
 1402              		.loc 1 917 15
 1403 0108 FB68     		ldr	r3, [r7, #12]
 1404 010a 0122     		movs	r2, #1
 1405 010c 83F82120 		strb	r2, [r3, #33]
 918:Drivers/STM32L4xx_HAL_Driver/Src/stm32l4xx_hal_rtc_ex.c **** 
 919:Drivers/STM32L4xx_HAL_Driver/Src/stm32l4xx_hal_rtc_ex.c ****   /* Process Unlocked */
 920:Drivers/STM32L4xx_HAL_Driver/Src/stm32l4xx_hal_rtc_ex.c ****   __HAL_UNLOCK(hrtc);
 1406              		.loc 1 920 3
 1407 0110 FB68     		ldr	r3, [r7, #12]
 1408 0112 0022     		movs	r2, #0
 1409 0114 83F82020 		strb	r2, [r3, #32]
 921:Drivers/STM32L4xx_HAL_Driver/Src/stm32l4xx_hal_rtc_ex.c **** 
 922:Drivers/STM32L4xx_HAL_Driver/Src/stm32l4xx_hal_rtc_ex.c ****   return HAL_OK;
 1410              		.loc 1 922 10
 1411 0118 0023     		movs	r3, #0
 1412              	.L46:
 923:Drivers/STM32L4xx_HAL_Driver/Src/stm32l4xx_hal_rtc_ex.c **** }
 1413              		.loc 1 923 1
 1414 011a 1846     		mov	r0, r3
 1415 011c 1837     		adds	r7, r7, #24
 1416              		.cfi_def_cfa_offset 8
 1417 011e BD46     		mov	sp, r7
 1418              		.cfi_def_cfa_register 13
 1419              		@ sp needed
 1420 0120 80BD     		pop	{r7, pc}
 1421              	.L51:
 1422 0122 00BF     		.align	2
 1423              	.L50:
 1424 0124 00040140 		.word	1073808384
 1425              		.cfi_endproc
 1426              	.LFE455:
 1428              		.section	.text.HAL_RTCEx_DeactivateWakeUpTimer,"ax",%progbits
 1429              		.align	1
 1430              		.global	HAL_RTCEx_DeactivateWakeUpTimer
 1431              		.syntax unified
ARM GAS  /tmp/cchDTGWe.s 			page 42


 1432              		.thumb
 1433              		.thumb_func
 1435              	HAL_RTCEx_DeactivateWakeUpTimer:
 1436              	.LFB456:
 924:Drivers/STM32L4xx_HAL_Driver/Src/stm32l4xx_hal_rtc_ex.c **** 
 925:Drivers/STM32L4xx_HAL_Driver/Src/stm32l4xx_hal_rtc_ex.c **** /**
 926:Drivers/STM32L4xx_HAL_Driver/Src/stm32l4xx_hal_rtc_ex.c ****   * @brief  Deactivate wake up timer counter.
 927:Drivers/STM32L4xx_HAL_Driver/Src/stm32l4xx_hal_rtc_ex.c ****   * @param  hrtc RTC handle
 928:Drivers/STM32L4xx_HAL_Driver/Src/stm32l4xx_hal_rtc_ex.c ****   * @retval HAL status
 929:Drivers/STM32L4xx_HAL_Driver/Src/stm32l4xx_hal_rtc_ex.c ****   */
 930:Drivers/STM32L4xx_HAL_Driver/Src/stm32l4xx_hal_rtc_ex.c **** HAL_StatusTypeDef HAL_RTCEx_DeactivateWakeUpTimer(RTC_HandleTypeDef *hrtc)
 931:Drivers/STM32L4xx_HAL_Driver/Src/stm32l4xx_hal_rtc_ex.c **** {
 1437              		.loc 1 931 1
 1438              		.cfi_startproc
 1439              		@ args = 0, pretend = 0, frame = 16
 1440              		@ frame_needed = 1, uses_anonymous_args = 0
 1441 0000 80B5     		push	{r7, lr}
 1442              		.cfi_def_cfa_offset 8
 1443              		.cfi_offset 7, -8
 1444              		.cfi_offset 14, -4
 1445 0002 84B0     		sub	sp, sp, #16
 1446              		.cfi_def_cfa_offset 24
 1447 0004 00AF     		add	r7, sp, #0
 1448              		.cfi_def_cfa_register 7
 1449 0006 7860     		str	r0, [r7, #4]
 932:Drivers/STM32L4xx_HAL_Driver/Src/stm32l4xx_hal_rtc_ex.c ****   uint32_t tickstart;
 933:Drivers/STM32L4xx_HAL_Driver/Src/stm32l4xx_hal_rtc_ex.c **** 
 934:Drivers/STM32L4xx_HAL_Driver/Src/stm32l4xx_hal_rtc_ex.c ****   /* Process Locked */
 935:Drivers/STM32L4xx_HAL_Driver/Src/stm32l4xx_hal_rtc_ex.c ****   __HAL_LOCK(hrtc);
 1450              		.loc 1 935 3
 1451 0008 7B68     		ldr	r3, [r7, #4]
 1452 000a 93F82030 		ldrb	r3, [r3, #32]	@ zero_extendqisi2
 1453 000e 012B     		cmp	r3, #1
 1454 0010 01D1     		bne	.L53
 1455              		.loc 1 935 3 is_stmt 0 discriminator 1
 1456 0012 0223     		movs	r3, #2
 1457              		.loc 1 935 3
 1458 0014 4DE0     		b	.L54
 1459              	.L53:
 1460              		.loc 1 935 3 discriminator 2
 1461 0016 7B68     		ldr	r3, [r7, #4]
 1462 0018 0122     		movs	r2, #1
 1463 001a 83F82020 		strb	r2, [r3, #32]
 936:Drivers/STM32L4xx_HAL_Driver/Src/stm32l4xx_hal_rtc_ex.c **** 
 937:Drivers/STM32L4xx_HAL_Driver/Src/stm32l4xx_hal_rtc_ex.c ****   hrtc->State = HAL_RTC_STATE_BUSY;
 1464              		.loc 1 937 15 is_stmt 1
 1465 001e 7B68     		ldr	r3, [r7, #4]
 1466 0020 0222     		movs	r2, #2
 1467 0022 83F82120 		strb	r2, [r3, #33]
 938:Drivers/STM32L4xx_HAL_Driver/Src/stm32l4xx_hal_rtc_ex.c **** 
 939:Drivers/STM32L4xx_HAL_Driver/Src/stm32l4xx_hal_rtc_ex.c ****   /* Disable the write protection for RTC registers */
 940:Drivers/STM32L4xx_HAL_Driver/Src/stm32l4xx_hal_rtc_ex.c ****   __HAL_RTC_WRITEPROTECTION_DISABLE(hrtc);
 1468              		.loc 1 940 3
 1469 0026 7B68     		ldr	r3, [r7, #4]
 1470 0028 1B68     		ldr	r3, [r3]
 1471 002a CA22     		movs	r2, #202
 1472 002c 5A62     		str	r2, [r3, #36]
ARM GAS  /tmp/cchDTGWe.s 			page 43


 1473 002e 7B68     		ldr	r3, [r7, #4]
 1474 0030 1B68     		ldr	r3, [r3]
 1475 0032 5322     		movs	r2, #83
 1476 0034 5A62     		str	r2, [r3, #36]
 941:Drivers/STM32L4xx_HAL_Driver/Src/stm32l4xx_hal_rtc_ex.c **** 
 942:Drivers/STM32L4xx_HAL_Driver/Src/stm32l4xx_hal_rtc_ex.c ****   /* Disable the Wakeup Timer */
 943:Drivers/STM32L4xx_HAL_Driver/Src/stm32l4xx_hal_rtc_ex.c ****   __HAL_RTC_WAKEUPTIMER_DISABLE(hrtc);
 1477              		.loc 1 943 3
 1478 0036 7B68     		ldr	r3, [r7, #4]
 1479 0038 1B68     		ldr	r3, [r3]
 1480 003a 9A68     		ldr	r2, [r3, #8]
 1481 003c 7B68     		ldr	r3, [r7, #4]
 1482 003e 1B68     		ldr	r3, [r3]
 1483 0040 22F48062 		bic	r2, r2, #1024
 1484 0044 9A60     		str	r2, [r3, #8]
 944:Drivers/STM32L4xx_HAL_Driver/Src/stm32l4xx_hal_rtc_ex.c **** 
 945:Drivers/STM32L4xx_HAL_Driver/Src/stm32l4xx_hal_rtc_ex.c ****   /* In case of interrupt mode is used, the interrupt source must disabled */
 946:Drivers/STM32L4xx_HAL_Driver/Src/stm32l4xx_hal_rtc_ex.c ****   __HAL_RTC_WAKEUPTIMER_DISABLE_IT(hrtc, RTC_IT_WUT);
 1485              		.loc 1 946 3
 1486 0046 7B68     		ldr	r3, [r7, #4]
 1487 0048 1B68     		ldr	r3, [r3]
 1488 004a 9A68     		ldr	r2, [r3, #8]
 1489 004c 7B68     		ldr	r3, [r7, #4]
 1490 004e 1B68     		ldr	r3, [r3]
 1491 0050 22F48042 		bic	r2, r2, #16384
 1492 0054 9A60     		str	r2, [r3, #8]
 947:Drivers/STM32L4xx_HAL_Driver/Src/stm32l4xx_hal_rtc_ex.c **** 
 948:Drivers/STM32L4xx_HAL_Driver/Src/stm32l4xx_hal_rtc_ex.c ****   tickstart = HAL_GetTick();
 1493              		.loc 1 948 15
 1494 0056 FFF7FEFF 		bl	HAL_GetTick
 1495 005a F860     		str	r0, [r7, #12]
 949:Drivers/STM32L4xx_HAL_Driver/Src/stm32l4xx_hal_rtc_ex.c ****   /* Wait till RTC WUTWF flag is set and if Time out is reached exit */
 950:Drivers/STM32L4xx_HAL_Driver/Src/stm32l4xx_hal_rtc_ex.c ****   while (__HAL_RTC_WAKEUPTIMER_GET_FLAG(hrtc, RTC_FLAG_WUTWF) == 0U)
 1496              		.loc 1 950 9
 1497 005c 15E0     		b	.L55
 1498              	.L56:
 951:Drivers/STM32L4xx_HAL_Driver/Src/stm32l4xx_hal_rtc_ex.c ****   {
 952:Drivers/STM32L4xx_HAL_Driver/Src/stm32l4xx_hal_rtc_ex.c ****     if ((HAL_GetTick() - tickstart) > RTC_TIMEOUT_VALUE)
 1499              		.loc 1 952 10
 1500 005e FFF7FEFF 		bl	HAL_GetTick
 1501 0062 0246     		mov	r2, r0
 1502              		.loc 1 952 24 discriminator 1
 1503 0064 FB68     		ldr	r3, [r7, #12]
 1504 0066 D31A     		subs	r3, r2, r3
 1505              		.loc 1 952 8 discriminator 1
 1506 0068 B3F57A7F 		cmp	r3, #1000
 1507 006c 0DD9     		bls	.L55
 953:Drivers/STM32L4xx_HAL_Driver/Src/stm32l4xx_hal_rtc_ex.c ****     {
 954:Drivers/STM32L4xx_HAL_Driver/Src/stm32l4xx_hal_rtc_ex.c ****       /* Enable the write protection for RTC registers */
 955:Drivers/STM32L4xx_HAL_Driver/Src/stm32l4xx_hal_rtc_ex.c ****       __HAL_RTC_WRITEPROTECTION_ENABLE(hrtc);
 1508              		.loc 1 955 7
 1509 006e 7B68     		ldr	r3, [r7, #4]
 1510 0070 1B68     		ldr	r3, [r3]
 1511 0072 FF22     		movs	r2, #255
 1512 0074 5A62     		str	r2, [r3, #36]
 956:Drivers/STM32L4xx_HAL_Driver/Src/stm32l4xx_hal_rtc_ex.c **** 
 957:Drivers/STM32L4xx_HAL_Driver/Src/stm32l4xx_hal_rtc_ex.c ****       hrtc->State = HAL_RTC_STATE_TIMEOUT;
ARM GAS  /tmp/cchDTGWe.s 			page 44


 1513              		.loc 1 957 19
 1514 0076 7B68     		ldr	r3, [r7, #4]
 1515 0078 0322     		movs	r2, #3
 1516 007a 83F82120 		strb	r2, [r3, #33]
 958:Drivers/STM32L4xx_HAL_Driver/Src/stm32l4xx_hal_rtc_ex.c **** 
 959:Drivers/STM32L4xx_HAL_Driver/Src/stm32l4xx_hal_rtc_ex.c ****       /* Process Unlocked */
 960:Drivers/STM32L4xx_HAL_Driver/Src/stm32l4xx_hal_rtc_ex.c ****       __HAL_UNLOCK(hrtc);
 1517              		.loc 1 960 7
 1518 007e 7B68     		ldr	r3, [r7, #4]
 1519 0080 0022     		movs	r2, #0
 1520 0082 83F82020 		strb	r2, [r3, #32]
 961:Drivers/STM32L4xx_HAL_Driver/Src/stm32l4xx_hal_rtc_ex.c **** 
 962:Drivers/STM32L4xx_HAL_Driver/Src/stm32l4xx_hal_rtc_ex.c ****       return HAL_TIMEOUT;
 1521              		.loc 1 962 14
 1522 0086 0323     		movs	r3, #3
 1523 0088 13E0     		b	.L54
 1524              	.L55:
 950:Drivers/STM32L4xx_HAL_Driver/Src/stm32l4xx_hal_rtc_ex.c ****   {
 1525              		.loc 1 950 10
 1526 008a 7B68     		ldr	r3, [r7, #4]
 1527 008c 1B68     		ldr	r3, [r3]
 1528 008e DB68     		ldr	r3, [r3, #12]
 1529 0090 03F00403 		and	r3, r3, #4
 950:Drivers/STM32L4xx_HAL_Driver/Src/stm32l4xx_hal_rtc_ex.c ****   {
 1530              		.loc 1 950 63
 1531 0094 002B     		cmp	r3, #0
 1532 0096 E2D0     		beq	.L56
 963:Drivers/STM32L4xx_HAL_Driver/Src/stm32l4xx_hal_rtc_ex.c ****     }
 964:Drivers/STM32L4xx_HAL_Driver/Src/stm32l4xx_hal_rtc_ex.c ****   }
 965:Drivers/STM32L4xx_HAL_Driver/Src/stm32l4xx_hal_rtc_ex.c **** 
 966:Drivers/STM32L4xx_HAL_Driver/Src/stm32l4xx_hal_rtc_ex.c ****   /* Enable the write protection for RTC registers */
 967:Drivers/STM32L4xx_HAL_Driver/Src/stm32l4xx_hal_rtc_ex.c ****   __HAL_RTC_WRITEPROTECTION_ENABLE(hrtc);
 1533              		.loc 1 967 3
 1534 0098 7B68     		ldr	r3, [r7, #4]
 1535 009a 1B68     		ldr	r3, [r3]
 1536 009c FF22     		movs	r2, #255
 1537 009e 5A62     		str	r2, [r3, #36]
 968:Drivers/STM32L4xx_HAL_Driver/Src/stm32l4xx_hal_rtc_ex.c **** 
 969:Drivers/STM32L4xx_HAL_Driver/Src/stm32l4xx_hal_rtc_ex.c ****   hrtc->State = HAL_RTC_STATE_READY;
 1538              		.loc 1 969 15
 1539 00a0 7B68     		ldr	r3, [r7, #4]
 1540 00a2 0122     		movs	r2, #1
 1541 00a4 83F82120 		strb	r2, [r3, #33]
 970:Drivers/STM32L4xx_HAL_Driver/Src/stm32l4xx_hal_rtc_ex.c **** 
 971:Drivers/STM32L4xx_HAL_Driver/Src/stm32l4xx_hal_rtc_ex.c ****   /* Process Unlocked */
 972:Drivers/STM32L4xx_HAL_Driver/Src/stm32l4xx_hal_rtc_ex.c ****   __HAL_UNLOCK(hrtc);
 1542              		.loc 1 972 3
 1543 00a8 7B68     		ldr	r3, [r7, #4]
 1544 00aa 0022     		movs	r2, #0
 1545 00ac 83F82020 		strb	r2, [r3, #32]
 973:Drivers/STM32L4xx_HAL_Driver/Src/stm32l4xx_hal_rtc_ex.c **** 
 974:Drivers/STM32L4xx_HAL_Driver/Src/stm32l4xx_hal_rtc_ex.c ****   return HAL_OK;
 1546              		.loc 1 974 10
 1547 00b0 0023     		movs	r3, #0
 1548              	.L54:
 975:Drivers/STM32L4xx_HAL_Driver/Src/stm32l4xx_hal_rtc_ex.c **** }
 1549              		.loc 1 975 1
ARM GAS  /tmp/cchDTGWe.s 			page 45


 1550 00b2 1846     		mov	r0, r3
 1551 00b4 1037     		adds	r7, r7, #16
 1552              		.cfi_def_cfa_offset 8
 1553 00b6 BD46     		mov	sp, r7
 1554              		.cfi_def_cfa_register 13
 1555              		@ sp needed
 1556 00b8 80BD     		pop	{r7, pc}
 1557              		.cfi_endproc
 1558              	.LFE456:
 1560              		.section	.text.HAL_RTCEx_GetWakeUpTimer,"ax",%progbits
 1561              		.align	1
 1562              		.global	HAL_RTCEx_GetWakeUpTimer
 1563              		.syntax unified
 1564              		.thumb
 1565              		.thumb_func
 1567              	HAL_RTCEx_GetWakeUpTimer:
 1568              	.LFB457:
 976:Drivers/STM32L4xx_HAL_Driver/Src/stm32l4xx_hal_rtc_ex.c **** 
 977:Drivers/STM32L4xx_HAL_Driver/Src/stm32l4xx_hal_rtc_ex.c **** /**
 978:Drivers/STM32L4xx_HAL_Driver/Src/stm32l4xx_hal_rtc_ex.c ****   * @brief  Get wake up timer counter.
 979:Drivers/STM32L4xx_HAL_Driver/Src/stm32l4xx_hal_rtc_ex.c ****   * @param  hrtc RTC handle
 980:Drivers/STM32L4xx_HAL_Driver/Src/stm32l4xx_hal_rtc_ex.c ****   * @retval Counter value
 981:Drivers/STM32L4xx_HAL_Driver/Src/stm32l4xx_hal_rtc_ex.c ****   */
 982:Drivers/STM32L4xx_HAL_Driver/Src/stm32l4xx_hal_rtc_ex.c **** uint32_t HAL_RTCEx_GetWakeUpTimer(RTC_HandleTypeDef *hrtc)
 983:Drivers/STM32L4xx_HAL_Driver/Src/stm32l4xx_hal_rtc_ex.c **** {
 1569              		.loc 1 983 1
 1570              		.cfi_startproc
 1571              		@ args = 0, pretend = 0, frame = 8
 1572              		@ frame_needed = 1, uses_anonymous_args = 0
 1573              		@ link register save eliminated.
 1574 0000 80B4     		push	{r7}
 1575              		.cfi_def_cfa_offset 4
 1576              		.cfi_offset 7, -4
 1577 0002 83B0     		sub	sp, sp, #12
 1578              		.cfi_def_cfa_offset 16
 1579 0004 00AF     		add	r7, sp, #0
 1580              		.cfi_def_cfa_register 7
 1581 0006 7860     		str	r0, [r7, #4]
 984:Drivers/STM32L4xx_HAL_Driver/Src/stm32l4xx_hal_rtc_ex.c ****   /* Get the counter value */
 985:Drivers/STM32L4xx_HAL_Driver/Src/stm32l4xx_hal_rtc_ex.c ****   return ((uint32_t)(hrtc->Instance->WUTR & RTC_WUTR_WUT));
 1582              		.loc 1 985 26
 1583 0008 7B68     		ldr	r3, [r7, #4]
 1584 000a 1B68     		ldr	r3, [r3]
 1585              		.loc 1 985 36
 1586 000c 5B69     		ldr	r3, [r3, #20]
 1587              		.loc 1 985 11
 1588 000e 9BB2     		uxth	r3, r3
 986:Drivers/STM32L4xx_HAL_Driver/Src/stm32l4xx_hal_rtc_ex.c **** }
 1589              		.loc 1 986 1
 1590 0010 1846     		mov	r0, r3
 1591 0012 0C37     		adds	r7, r7, #12
 1592              		.cfi_def_cfa_offset 4
 1593 0014 BD46     		mov	sp, r7
 1594              		.cfi_def_cfa_register 13
 1595              		@ sp needed
 1596 0016 5DF8047B 		ldr	r7, [sp], #4
 1597              		.cfi_restore 7
ARM GAS  /tmp/cchDTGWe.s 			page 46


 1598              		.cfi_def_cfa_offset 0
 1599 001a 7047     		bx	lr
 1600              		.cfi_endproc
 1601              	.LFE457:
 1603              		.section	.text.HAL_RTCEx_WakeUpTimerIRQHandler,"ax",%progbits
 1604              		.align	1
 1605              		.global	HAL_RTCEx_WakeUpTimerIRQHandler
 1606              		.syntax unified
 1607              		.thumb
 1608              		.thumb_func
 1610              	HAL_RTCEx_WakeUpTimerIRQHandler:
 1611              	.LFB458:
 987:Drivers/STM32L4xx_HAL_Driver/Src/stm32l4xx_hal_rtc_ex.c **** 
 988:Drivers/STM32L4xx_HAL_Driver/Src/stm32l4xx_hal_rtc_ex.c **** /**
 989:Drivers/STM32L4xx_HAL_Driver/Src/stm32l4xx_hal_rtc_ex.c ****   * @brief  Handle Wake Up Timer interrupt request.
 990:Drivers/STM32L4xx_HAL_Driver/Src/stm32l4xx_hal_rtc_ex.c ****   * @param  hrtc RTC handle
 991:Drivers/STM32L4xx_HAL_Driver/Src/stm32l4xx_hal_rtc_ex.c ****   * @retval None
 992:Drivers/STM32L4xx_HAL_Driver/Src/stm32l4xx_hal_rtc_ex.c ****   */
 993:Drivers/STM32L4xx_HAL_Driver/Src/stm32l4xx_hal_rtc_ex.c **** void HAL_RTCEx_WakeUpTimerIRQHandler(RTC_HandleTypeDef *hrtc)
 994:Drivers/STM32L4xx_HAL_Driver/Src/stm32l4xx_hal_rtc_ex.c **** {
 1612              		.loc 1 994 1
 1613              		.cfi_startproc
 1614              		@ args = 0, pretend = 0, frame = 8
 1615              		@ frame_needed = 1, uses_anonymous_args = 0
 1616 0000 80B5     		push	{r7, lr}
 1617              		.cfi_def_cfa_offset 8
 1618              		.cfi_offset 7, -8
 1619              		.cfi_offset 14, -4
 1620 0002 82B0     		sub	sp, sp, #8
 1621              		.cfi_def_cfa_offset 16
 1622 0004 00AF     		add	r7, sp, #0
 1623              		.cfi_def_cfa_register 7
 1624 0006 7860     		str	r0, [r7, #4]
 995:Drivers/STM32L4xx_HAL_Driver/Src/stm32l4xx_hal_rtc_ex.c ****   /* Clear the EXTI's line Flag for RTC WakeUpTimer */
 996:Drivers/STM32L4xx_HAL_Driver/Src/stm32l4xx_hal_rtc_ex.c ****   __HAL_RTC_WAKEUPTIMER_EXTI_CLEAR_FLAG();
 1625              		.loc 1 996 3
 1626 0008 0F4B     		ldr	r3, .L61
 1627 000a 4FF48012 		mov	r2, #1048576
 1628 000e 5A61     		str	r2, [r3, #20]
 997:Drivers/STM32L4xx_HAL_Driver/Src/stm32l4xx_hal_rtc_ex.c **** 
 998:Drivers/STM32L4xx_HAL_Driver/Src/stm32l4xx_hal_rtc_ex.c **** 
 999:Drivers/STM32L4xx_HAL_Driver/Src/stm32l4xx_hal_rtc_ex.c **** #if defined(STM32L412xx) || defined(STM32L422xx) || defined (STM32L4P5xx) || defined (STM32L4Q5xx)
1000:Drivers/STM32L4xx_HAL_Driver/Src/stm32l4xx_hal_rtc_ex.c ****   if ((hrtc->Instance->MISR & RTC_MISR_WUTMF) != 0u)
1001:Drivers/STM32L4xx_HAL_Driver/Src/stm32l4xx_hal_rtc_ex.c ****   {
1002:Drivers/STM32L4xx_HAL_Driver/Src/stm32l4xx_hal_rtc_ex.c ****     /* Immediately clear flags */
1003:Drivers/STM32L4xx_HAL_Driver/Src/stm32l4xx_hal_rtc_ex.c ****     hrtc->Instance->SCR = RTC_SCR_CWUTF;
1004:Drivers/STM32L4xx_HAL_Driver/Src/stm32l4xx_hal_rtc_ex.c **** #else
1005:Drivers/STM32L4xx_HAL_Driver/Src/stm32l4xx_hal_rtc_ex.c ****   /* Get the pending status of the WAKEUPTIMER Interrupt */
1006:Drivers/STM32L4xx_HAL_Driver/Src/stm32l4xx_hal_rtc_ex.c ****   if (__HAL_RTC_WAKEUPTIMER_GET_FLAG(hrtc, RTC_FLAG_WUTF) != 0U)
 1629              		.loc 1 1006 7
 1630 0010 7B68     		ldr	r3, [r7, #4]
 1631 0012 1B68     		ldr	r3, [r3]
 1632 0014 DB68     		ldr	r3, [r3, #12]
 1633 0016 03F48063 		and	r3, r3, #1024
 1634              		.loc 1 1006 6
 1635 001a 002B     		cmp	r3, #0
 1636 001c 0BD0     		beq	.L60
ARM GAS  /tmp/cchDTGWe.s 			page 47


1007:Drivers/STM32L4xx_HAL_Driver/Src/stm32l4xx_hal_rtc_ex.c ****   {
1008:Drivers/STM32L4xx_HAL_Driver/Src/stm32l4xx_hal_rtc_ex.c ****     /* Clear the WAKEUPTIMER interrupt pending bit */
1009:Drivers/STM32L4xx_HAL_Driver/Src/stm32l4xx_hal_rtc_ex.c ****     __HAL_RTC_WAKEUPTIMER_CLEAR_FLAG(hrtc, RTC_FLAG_WUTF);
 1637              		.loc 1 1009 5
 1638 001e 7B68     		ldr	r3, [r7, #4]
 1639 0020 1B68     		ldr	r3, [r3]
 1640 0022 DB68     		ldr	r3, [r3, #12]
 1641 0024 DAB2     		uxtb	r2, r3
 1642 0026 7B68     		ldr	r3, [r7, #4]
 1643 0028 1B68     		ldr	r3, [r3]
 1644 002a 62F49062 		orn	r2, r2, #1152
 1645 002e DA60     		str	r2, [r3, #12]
1010:Drivers/STM32L4xx_HAL_Driver/Src/stm32l4xx_hal_rtc_ex.c **** #endif
1011:Drivers/STM32L4xx_HAL_Driver/Src/stm32l4xx_hal_rtc_ex.c **** 
1012:Drivers/STM32L4xx_HAL_Driver/Src/stm32l4xx_hal_rtc_ex.c ****     /* WAKEUPTIMER callback */
1013:Drivers/STM32L4xx_HAL_Driver/Src/stm32l4xx_hal_rtc_ex.c **** #if (USE_HAL_RTC_REGISTER_CALLBACKS == 1)
1014:Drivers/STM32L4xx_HAL_Driver/Src/stm32l4xx_hal_rtc_ex.c ****     /* Call WakeUpTimerEvent registered Callback */
1015:Drivers/STM32L4xx_HAL_Driver/Src/stm32l4xx_hal_rtc_ex.c ****     hrtc->WakeUpTimerEventCallback(hrtc);
1016:Drivers/STM32L4xx_HAL_Driver/Src/stm32l4xx_hal_rtc_ex.c **** #else
1017:Drivers/STM32L4xx_HAL_Driver/Src/stm32l4xx_hal_rtc_ex.c ****     HAL_RTCEx_WakeUpTimerEventCallback(hrtc);
 1646              		.loc 1 1017 5
 1647 0030 7868     		ldr	r0, [r7, #4]
 1648 0032 FFF7FEFF 		bl	HAL_RTCEx_WakeUpTimerEventCallback
 1649              	.L60:
1018:Drivers/STM32L4xx_HAL_Driver/Src/stm32l4xx_hal_rtc_ex.c **** #endif /* USE_HAL_RTC_REGISTER_CALLBACKS */
1019:Drivers/STM32L4xx_HAL_Driver/Src/stm32l4xx_hal_rtc_ex.c ****   }
1020:Drivers/STM32L4xx_HAL_Driver/Src/stm32l4xx_hal_rtc_ex.c **** 
1021:Drivers/STM32L4xx_HAL_Driver/Src/stm32l4xx_hal_rtc_ex.c ****   /* Change RTC state */
1022:Drivers/STM32L4xx_HAL_Driver/Src/stm32l4xx_hal_rtc_ex.c ****   hrtc->State = HAL_RTC_STATE_READY;
 1650              		.loc 1 1022 15
 1651 0036 7B68     		ldr	r3, [r7, #4]
 1652 0038 0122     		movs	r2, #1
 1653 003a 83F82120 		strb	r2, [r3, #33]
1023:Drivers/STM32L4xx_HAL_Driver/Src/stm32l4xx_hal_rtc_ex.c **** }
 1654              		.loc 1 1023 1
 1655 003e 00BF     		nop
 1656 0040 0837     		adds	r7, r7, #8
 1657              		.cfi_def_cfa_offset 8
 1658 0042 BD46     		mov	sp, r7
 1659              		.cfi_def_cfa_register 13
 1660              		@ sp needed
 1661 0044 80BD     		pop	{r7, pc}
 1662              	.L62:
 1663 0046 00BF     		.align	2
 1664              	.L61:
 1665 0048 00040140 		.word	1073808384
 1666              		.cfi_endproc
 1667              	.LFE458:
 1669              		.section	.text.HAL_RTCEx_WakeUpTimerEventCallback,"ax",%progbits
 1670              		.align	1
 1671              		.weak	HAL_RTCEx_WakeUpTimerEventCallback
 1672              		.syntax unified
 1673              		.thumb
 1674              		.thumb_func
 1676              	HAL_RTCEx_WakeUpTimerEventCallback:
 1677              	.LFB459:
1024:Drivers/STM32L4xx_HAL_Driver/Src/stm32l4xx_hal_rtc_ex.c **** 
ARM GAS  /tmp/cchDTGWe.s 			page 48


1025:Drivers/STM32L4xx_HAL_Driver/Src/stm32l4xx_hal_rtc_ex.c **** /**
1026:Drivers/STM32L4xx_HAL_Driver/Src/stm32l4xx_hal_rtc_ex.c ****   * @brief  Wake Up Timer callback.
1027:Drivers/STM32L4xx_HAL_Driver/Src/stm32l4xx_hal_rtc_ex.c ****   * @param  hrtc RTC handle
1028:Drivers/STM32L4xx_HAL_Driver/Src/stm32l4xx_hal_rtc_ex.c ****   * @retval None
1029:Drivers/STM32L4xx_HAL_Driver/Src/stm32l4xx_hal_rtc_ex.c ****   */
1030:Drivers/STM32L4xx_HAL_Driver/Src/stm32l4xx_hal_rtc_ex.c **** __weak void HAL_RTCEx_WakeUpTimerEventCallback(RTC_HandleTypeDef *hrtc)
1031:Drivers/STM32L4xx_HAL_Driver/Src/stm32l4xx_hal_rtc_ex.c **** {
 1678              		.loc 1 1031 1
 1679              		.cfi_startproc
 1680              		@ args = 0, pretend = 0, frame = 8
 1681              		@ frame_needed = 1, uses_anonymous_args = 0
 1682              		@ link register save eliminated.
 1683 0000 80B4     		push	{r7}
 1684              		.cfi_def_cfa_offset 4
 1685              		.cfi_offset 7, -4
 1686 0002 83B0     		sub	sp, sp, #12
 1687              		.cfi_def_cfa_offset 16
 1688 0004 00AF     		add	r7, sp, #0
 1689              		.cfi_def_cfa_register 7
 1690 0006 7860     		str	r0, [r7, #4]
1032:Drivers/STM32L4xx_HAL_Driver/Src/stm32l4xx_hal_rtc_ex.c ****   /* Prevent unused argument(s) compilation warning */
1033:Drivers/STM32L4xx_HAL_Driver/Src/stm32l4xx_hal_rtc_ex.c ****   UNUSED(hrtc);
1034:Drivers/STM32L4xx_HAL_Driver/Src/stm32l4xx_hal_rtc_ex.c **** 
1035:Drivers/STM32L4xx_HAL_Driver/Src/stm32l4xx_hal_rtc_ex.c ****   /* NOTE : This function should not be modified, when the callback is needed,
1036:Drivers/STM32L4xx_HAL_Driver/Src/stm32l4xx_hal_rtc_ex.c ****             the HAL_RTCEx_WakeUpTimerEventCallback could be implemented in the user file
1037:Drivers/STM32L4xx_HAL_Driver/Src/stm32l4xx_hal_rtc_ex.c ****    */
1038:Drivers/STM32L4xx_HAL_Driver/Src/stm32l4xx_hal_rtc_ex.c **** }
 1691              		.loc 1 1038 1
 1692 0008 00BF     		nop
 1693 000a 0C37     		adds	r7, r7, #12
 1694              		.cfi_def_cfa_offset 4
 1695 000c BD46     		mov	sp, r7
 1696              		.cfi_def_cfa_register 13
 1697              		@ sp needed
 1698 000e 5DF8047B 		ldr	r7, [sp], #4
 1699              		.cfi_restore 7
 1700              		.cfi_def_cfa_offset 0
 1701 0012 7047     		bx	lr
 1702              		.cfi_endproc
 1703              	.LFE459:
 1705              		.section	.text.HAL_RTCEx_PollForWakeUpTimerEvent,"ax",%progbits
 1706              		.align	1
 1707              		.global	HAL_RTCEx_PollForWakeUpTimerEvent
 1708              		.syntax unified
 1709              		.thumb
 1710              		.thumb_func
 1712              	HAL_RTCEx_PollForWakeUpTimerEvent:
 1713              	.LFB460:
1039:Drivers/STM32L4xx_HAL_Driver/Src/stm32l4xx_hal_rtc_ex.c **** 
1040:Drivers/STM32L4xx_HAL_Driver/Src/stm32l4xx_hal_rtc_ex.c **** 
1041:Drivers/STM32L4xx_HAL_Driver/Src/stm32l4xx_hal_rtc_ex.c **** /**
1042:Drivers/STM32L4xx_HAL_Driver/Src/stm32l4xx_hal_rtc_ex.c ****   * @brief  Handle Wake Up Timer Polling.
1043:Drivers/STM32L4xx_HAL_Driver/Src/stm32l4xx_hal_rtc_ex.c ****   * @param  hrtc RTC handle
1044:Drivers/STM32L4xx_HAL_Driver/Src/stm32l4xx_hal_rtc_ex.c ****   * @param  Timeout Timeout duration
1045:Drivers/STM32L4xx_HAL_Driver/Src/stm32l4xx_hal_rtc_ex.c ****   * @retval HAL status
1046:Drivers/STM32L4xx_HAL_Driver/Src/stm32l4xx_hal_rtc_ex.c ****   */
1047:Drivers/STM32L4xx_HAL_Driver/Src/stm32l4xx_hal_rtc_ex.c **** HAL_StatusTypeDef HAL_RTCEx_PollForWakeUpTimerEvent(RTC_HandleTypeDef *hrtc, uint32_t Timeout)
ARM GAS  /tmp/cchDTGWe.s 			page 49


1048:Drivers/STM32L4xx_HAL_Driver/Src/stm32l4xx_hal_rtc_ex.c **** {
 1714              		.loc 1 1048 1
 1715              		.cfi_startproc
 1716              		@ args = 0, pretend = 0, frame = 16
 1717              		@ frame_needed = 1, uses_anonymous_args = 0
 1718 0000 80B5     		push	{r7, lr}
 1719              		.cfi_def_cfa_offset 8
 1720              		.cfi_offset 7, -8
 1721              		.cfi_offset 14, -4
 1722 0002 84B0     		sub	sp, sp, #16
 1723              		.cfi_def_cfa_offset 24
 1724 0004 00AF     		add	r7, sp, #0
 1725              		.cfi_def_cfa_register 7
 1726 0006 7860     		str	r0, [r7, #4]
 1727 0008 3960     		str	r1, [r7]
1049:Drivers/STM32L4xx_HAL_Driver/Src/stm32l4xx_hal_rtc_ex.c ****   uint32_t tickstart = HAL_GetTick();
 1728              		.loc 1 1049 24
 1729 000a FFF7FEFF 		bl	HAL_GetTick
 1730 000e F860     		str	r0, [r7, #12]
1050:Drivers/STM32L4xx_HAL_Driver/Src/stm32l4xx_hal_rtc_ex.c **** 
1051:Drivers/STM32L4xx_HAL_Driver/Src/stm32l4xx_hal_rtc_ex.c ****   while (__HAL_RTC_WAKEUPTIMER_GET_FLAG(hrtc, RTC_FLAG_WUTF) == 0U)
 1731              		.loc 1 1051 9
 1732 0010 14E0     		b	.L66
 1733              	.L69:
1052:Drivers/STM32L4xx_HAL_Driver/Src/stm32l4xx_hal_rtc_ex.c ****   {
1053:Drivers/STM32L4xx_HAL_Driver/Src/stm32l4xx_hal_rtc_ex.c ****     if (Timeout != HAL_MAX_DELAY)
 1734              		.loc 1 1053 8
 1735 0012 3B68     		ldr	r3, [r7]
 1736 0014 B3F1FF3F 		cmp	r3, #-1
 1737 0018 10D0     		beq	.L66
1054:Drivers/STM32L4xx_HAL_Driver/Src/stm32l4xx_hal_rtc_ex.c ****     {
1055:Drivers/STM32L4xx_HAL_Driver/Src/stm32l4xx_hal_rtc_ex.c ****       if (((HAL_GetTick() - tickstart) > Timeout) || (Timeout == 0U))
 1738              		.loc 1 1055 13
 1739 001a FFF7FEFF 		bl	HAL_GetTick
 1740 001e 0246     		mov	r2, r0
 1741              		.loc 1 1055 27 discriminator 1
 1742 0020 FB68     		ldr	r3, [r7, #12]
 1743 0022 D31A     		subs	r3, r2, r3
 1744              		.loc 1 1055 10 discriminator 1
 1745 0024 3A68     		ldr	r2, [r7]
 1746 0026 9A42     		cmp	r2, r3
 1747 0028 02D3     		bcc	.L67
 1748              		.loc 1 1055 51 discriminator 1
 1749 002a 3B68     		ldr	r3, [r7]
 1750 002c 002B     		cmp	r3, #0
 1751 002e 05D1     		bne	.L66
 1752              	.L67:
1056:Drivers/STM32L4xx_HAL_Driver/Src/stm32l4xx_hal_rtc_ex.c ****       {
1057:Drivers/STM32L4xx_HAL_Driver/Src/stm32l4xx_hal_rtc_ex.c ****         hrtc->State = HAL_RTC_STATE_TIMEOUT;
 1753              		.loc 1 1057 21
 1754 0030 7B68     		ldr	r3, [r7, #4]
 1755 0032 0322     		movs	r2, #3
 1756 0034 83F82120 		strb	r2, [r3, #33]
1058:Drivers/STM32L4xx_HAL_Driver/Src/stm32l4xx_hal_rtc_ex.c ****         return HAL_TIMEOUT;
 1757              		.loc 1 1058 16
 1758 0038 0323     		movs	r3, #3
 1759 003a 14E0     		b	.L68
ARM GAS  /tmp/cchDTGWe.s 			page 50


 1760              	.L66:
1051:Drivers/STM32L4xx_HAL_Driver/Src/stm32l4xx_hal_rtc_ex.c ****   {
 1761              		.loc 1 1051 10
 1762 003c 7B68     		ldr	r3, [r7, #4]
 1763 003e 1B68     		ldr	r3, [r3]
 1764 0040 DB68     		ldr	r3, [r3, #12]
 1765 0042 03F48063 		and	r3, r3, #1024
1051:Drivers/STM32L4xx_HAL_Driver/Src/stm32l4xx_hal_rtc_ex.c ****   {
 1766              		.loc 1 1051 62
 1767 0046 002B     		cmp	r3, #0
 1768 0048 E3D0     		beq	.L69
1059:Drivers/STM32L4xx_HAL_Driver/Src/stm32l4xx_hal_rtc_ex.c ****       }
1060:Drivers/STM32L4xx_HAL_Driver/Src/stm32l4xx_hal_rtc_ex.c ****     }
1061:Drivers/STM32L4xx_HAL_Driver/Src/stm32l4xx_hal_rtc_ex.c ****   }
1062:Drivers/STM32L4xx_HAL_Driver/Src/stm32l4xx_hal_rtc_ex.c **** 
1063:Drivers/STM32L4xx_HAL_Driver/Src/stm32l4xx_hal_rtc_ex.c ****   /* Clear the WAKEUPTIMER Flag */
1064:Drivers/STM32L4xx_HAL_Driver/Src/stm32l4xx_hal_rtc_ex.c ****   __HAL_RTC_WAKEUPTIMER_CLEAR_FLAG(hrtc, RTC_FLAG_WUTF);
 1769              		.loc 1 1064 3
 1770 004a 7B68     		ldr	r3, [r7, #4]
 1771 004c 1B68     		ldr	r3, [r3]
 1772 004e DB68     		ldr	r3, [r3, #12]
 1773 0050 DAB2     		uxtb	r2, r3
 1774 0052 7B68     		ldr	r3, [r7, #4]
 1775 0054 1B68     		ldr	r3, [r3]
 1776 0056 62F49062 		orn	r2, r2, #1152
 1777 005a DA60     		str	r2, [r3, #12]
1065:Drivers/STM32L4xx_HAL_Driver/Src/stm32l4xx_hal_rtc_ex.c **** 
1066:Drivers/STM32L4xx_HAL_Driver/Src/stm32l4xx_hal_rtc_ex.c ****   /* Change RTC state */
1067:Drivers/STM32L4xx_HAL_Driver/Src/stm32l4xx_hal_rtc_ex.c ****   hrtc->State = HAL_RTC_STATE_READY;
 1778              		.loc 1 1067 15
 1779 005c 7B68     		ldr	r3, [r7, #4]
 1780 005e 0122     		movs	r2, #1
 1781 0060 83F82120 		strb	r2, [r3, #33]
1068:Drivers/STM32L4xx_HAL_Driver/Src/stm32l4xx_hal_rtc_ex.c **** 
1069:Drivers/STM32L4xx_HAL_Driver/Src/stm32l4xx_hal_rtc_ex.c ****   return HAL_OK;
 1782              		.loc 1 1069 10
 1783 0064 0023     		movs	r3, #0
 1784              	.L68:
1070:Drivers/STM32L4xx_HAL_Driver/Src/stm32l4xx_hal_rtc_ex.c **** }
 1785              		.loc 1 1070 1
 1786 0066 1846     		mov	r0, r3
 1787 0068 1037     		adds	r7, r7, #16
 1788              		.cfi_def_cfa_offset 8
 1789 006a BD46     		mov	sp, r7
 1790              		.cfi_def_cfa_register 13
 1791              		@ sp needed
 1792 006c 80BD     		pop	{r7, pc}
 1793              		.cfi_endproc
 1794              	.LFE460:
 1796              		.section	.text.HAL_RTCEx_SetSmoothCalib,"ax",%progbits
 1797              		.align	1
 1798              		.global	HAL_RTCEx_SetSmoothCalib
 1799              		.syntax unified
 1800              		.thumb
 1801              		.thumb_func
 1803              	HAL_RTCEx_SetSmoothCalib:
 1804              	.LFB461:
ARM GAS  /tmp/cchDTGWe.s 			page 51


1071:Drivers/STM32L4xx_HAL_Driver/Src/stm32l4xx_hal_rtc_ex.c **** 
1072:Drivers/STM32L4xx_HAL_Driver/Src/stm32l4xx_hal_rtc_ex.c **** /**
1073:Drivers/STM32L4xx_HAL_Driver/Src/stm32l4xx_hal_rtc_ex.c ****   * @}
1074:Drivers/STM32L4xx_HAL_Driver/Src/stm32l4xx_hal_rtc_ex.c ****   */
1075:Drivers/STM32L4xx_HAL_Driver/Src/stm32l4xx_hal_rtc_ex.c **** 
1076:Drivers/STM32L4xx_HAL_Driver/Src/stm32l4xx_hal_rtc_ex.c **** 
1077:Drivers/STM32L4xx_HAL_Driver/Src/stm32l4xx_hal_rtc_ex.c **** /** @addtogroup RTCEx_Exported_Functions_Group3
1078:Drivers/STM32L4xx_HAL_Driver/Src/stm32l4xx_hal_rtc_ex.c ****   * @brief    Extended Peripheral Control functions
1079:Drivers/STM32L4xx_HAL_Driver/Src/stm32l4xx_hal_rtc_ex.c ****   *
1080:Drivers/STM32L4xx_HAL_Driver/Src/stm32l4xx_hal_rtc_ex.c **** @verbatim
1081:Drivers/STM32L4xx_HAL_Driver/Src/stm32l4xx_hal_rtc_ex.c ****  ===============================================================================
1082:Drivers/STM32L4xx_HAL_Driver/Src/stm32l4xx_hal_rtc_ex.c ****               ##### Extended Peripheral Control functions #####
1083:Drivers/STM32L4xx_HAL_Driver/Src/stm32l4xx_hal_rtc_ex.c ****  ===============================================================================
1084:Drivers/STM32L4xx_HAL_Driver/Src/stm32l4xx_hal_rtc_ex.c ****     [..]
1085:Drivers/STM32L4xx_HAL_Driver/Src/stm32l4xx_hal_rtc_ex.c ****     This subsection provides functions allowing to
1086:Drivers/STM32L4xx_HAL_Driver/Src/stm32l4xx_hal_rtc_ex.c ****       (+) Write a data in a specified RTC Backup data register
1087:Drivers/STM32L4xx_HAL_Driver/Src/stm32l4xx_hal_rtc_ex.c ****       (+) Read a data in a specified RTC Backup data register
1088:Drivers/STM32L4xx_HAL_Driver/Src/stm32l4xx_hal_rtc_ex.c ****       (+) Set the Coarse calibration parameters.
1089:Drivers/STM32L4xx_HAL_Driver/Src/stm32l4xx_hal_rtc_ex.c ****       (+) Deactivate the Coarse calibration parameters
1090:Drivers/STM32L4xx_HAL_Driver/Src/stm32l4xx_hal_rtc_ex.c ****       (+) Set the Smooth calibration parameters.
1091:Drivers/STM32L4xx_HAL_Driver/Src/stm32l4xx_hal_rtc_ex.c ****       (+) STM32L412xx and STM32L422xx only : Set Low Power calibration parameter.
1092:Drivers/STM32L4xx_HAL_Driver/Src/stm32l4xx_hal_rtc_ex.c ****       (+) Configure the Synchronization Shift Control Settings.
1093:Drivers/STM32L4xx_HAL_Driver/Src/stm32l4xx_hal_rtc_ex.c ****       (+) Configure the Calibration Pinout (RTC_CALIB) Selection (1Hz or 512Hz).
1094:Drivers/STM32L4xx_HAL_Driver/Src/stm32l4xx_hal_rtc_ex.c ****       (+) Deactivate the Calibration Pinout (RTC_CALIB) Selection (1Hz or 512Hz).
1095:Drivers/STM32L4xx_HAL_Driver/Src/stm32l4xx_hal_rtc_ex.c ****       (+) Enable the RTC reference clock detection.
1096:Drivers/STM32L4xx_HAL_Driver/Src/stm32l4xx_hal_rtc_ex.c ****       (+) Disable the RTC reference clock detection.
1097:Drivers/STM32L4xx_HAL_Driver/Src/stm32l4xx_hal_rtc_ex.c ****       (+) Enable the Bypass Shadow feature.
1098:Drivers/STM32L4xx_HAL_Driver/Src/stm32l4xx_hal_rtc_ex.c ****       (+) Disable the Bypass Shadow feature.
1099:Drivers/STM32L4xx_HAL_Driver/Src/stm32l4xx_hal_rtc_ex.c **** 
1100:Drivers/STM32L4xx_HAL_Driver/Src/stm32l4xx_hal_rtc_ex.c **** @endverbatim
1101:Drivers/STM32L4xx_HAL_Driver/Src/stm32l4xx_hal_rtc_ex.c ****   * @{
1102:Drivers/STM32L4xx_HAL_Driver/Src/stm32l4xx_hal_rtc_ex.c ****   */
1103:Drivers/STM32L4xx_HAL_Driver/Src/stm32l4xx_hal_rtc_ex.c **** 
1104:Drivers/STM32L4xx_HAL_Driver/Src/stm32l4xx_hal_rtc_ex.c **** 
1105:Drivers/STM32L4xx_HAL_Driver/Src/stm32l4xx_hal_rtc_ex.c **** /**
1106:Drivers/STM32L4xx_HAL_Driver/Src/stm32l4xx_hal_rtc_ex.c ****   * @brief  Set the Smooth calibration parameters.
1107:Drivers/STM32L4xx_HAL_Driver/Src/stm32l4xx_hal_rtc_ex.c ****   * @param  hrtc RTC handle
1108:Drivers/STM32L4xx_HAL_Driver/Src/stm32l4xx_hal_rtc_ex.c ****   * @param  SmoothCalibPeriod Select the Smooth Calibration Period.
1109:Drivers/STM32L4xx_HAL_Driver/Src/stm32l4xx_hal_rtc_ex.c ****   *          This parameter can be can be one of the following values :
1110:Drivers/STM32L4xx_HAL_Driver/Src/stm32l4xx_hal_rtc_ex.c ****   *             @arg RTC_SMOOTHCALIB_PERIOD_32SEC: The smooth calibration period is 32s.
1111:Drivers/STM32L4xx_HAL_Driver/Src/stm32l4xx_hal_rtc_ex.c ****   *             @arg RTC_SMOOTHCALIB_PERIOD_16SEC: The smooth calibration period is 16s.
1112:Drivers/STM32L4xx_HAL_Driver/Src/stm32l4xx_hal_rtc_ex.c ****   *             @arg RTC_SMOOTHCALIB_PERIOD_8SEC: The smooth calibration period is 8s.
1113:Drivers/STM32L4xx_HAL_Driver/Src/stm32l4xx_hal_rtc_ex.c ****   * @param  SmoothCalibPlusPulses Select to Set or reset the CALP bit.
1114:Drivers/STM32L4xx_HAL_Driver/Src/stm32l4xx_hal_rtc_ex.c ****   *          This parameter can be one of the following values:
1115:Drivers/STM32L4xx_HAL_Driver/Src/stm32l4xx_hal_rtc_ex.c ****   *             @arg RTC_SMOOTHCALIB_PLUSPULSES_SET: Add one RTCCLK pulse every 2*11 pulses.
1116:Drivers/STM32L4xx_HAL_Driver/Src/stm32l4xx_hal_rtc_ex.c ****   *             @arg RTC_SMOOTHCALIB_PLUSPULSES_RESET: No RTCCLK pulses are added.
1117:Drivers/STM32L4xx_HAL_Driver/Src/stm32l4xx_hal_rtc_ex.c ****   * @param  SmoothCalibMinusPulsesValue Select the value of CALM[8:0] bits.
1118:Drivers/STM32L4xx_HAL_Driver/Src/stm32l4xx_hal_rtc_ex.c ****   *          This parameter can be one any value from 0 to 0x000001FF.
1119:Drivers/STM32L4xx_HAL_Driver/Src/stm32l4xx_hal_rtc_ex.c ****   * @note   To deactivate the smooth calibration, the field SmoothCalibPlusPulses
1120:Drivers/STM32L4xx_HAL_Driver/Src/stm32l4xx_hal_rtc_ex.c ****   *         must be equal to SMOOTHCALIB_PLUSPULSES_RESET and the field
1121:Drivers/STM32L4xx_HAL_Driver/Src/stm32l4xx_hal_rtc_ex.c ****   *         SmoothCalibMinusPulsesValue must be equal to 0.
1122:Drivers/STM32L4xx_HAL_Driver/Src/stm32l4xx_hal_rtc_ex.c ****   * @retval HAL status
1123:Drivers/STM32L4xx_HAL_Driver/Src/stm32l4xx_hal_rtc_ex.c ****   */
1124:Drivers/STM32L4xx_HAL_Driver/Src/stm32l4xx_hal_rtc_ex.c **** HAL_StatusTypeDef HAL_RTCEx_SetSmoothCalib(RTC_HandleTypeDef *hrtc, uint32_t SmoothCalibPeriod, uin
1125:Drivers/STM32L4xx_HAL_Driver/Src/stm32l4xx_hal_rtc_ex.c **** {
 1805              		.loc 1 1125 1
 1806              		.cfi_startproc
ARM GAS  /tmp/cchDTGWe.s 			page 52


 1807              		@ args = 0, pretend = 0, frame = 24
 1808              		@ frame_needed = 1, uses_anonymous_args = 0
 1809 0000 80B5     		push	{r7, lr}
 1810              		.cfi_def_cfa_offset 8
 1811              		.cfi_offset 7, -8
 1812              		.cfi_offset 14, -4
 1813 0002 86B0     		sub	sp, sp, #24
 1814              		.cfi_def_cfa_offset 32
 1815 0004 00AF     		add	r7, sp, #0
 1816              		.cfi_def_cfa_register 7
 1817 0006 F860     		str	r0, [r7, #12]
 1818 0008 B960     		str	r1, [r7, #8]
 1819 000a 7A60     		str	r2, [r7, #4]
 1820 000c 3B60     		str	r3, [r7]
1126:Drivers/STM32L4xx_HAL_Driver/Src/stm32l4xx_hal_rtc_ex.c ****   uint32_t tickstart;
1127:Drivers/STM32L4xx_HAL_Driver/Src/stm32l4xx_hal_rtc_ex.c **** 
1128:Drivers/STM32L4xx_HAL_Driver/Src/stm32l4xx_hal_rtc_ex.c ****   /* Check the parameters */
1129:Drivers/STM32L4xx_HAL_Driver/Src/stm32l4xx_hal_rtc_ex.c ****   assert_param(IS_RTC_SMOOTH_CALIB_PERIOD(SmoothCalibPeriod));
1130:Drivers/STM32L4xx_HAL_Driver/Src/stm32l4xx_hal_rtc_ex.c ****   assert_param(IS_RTC_SMOOTH_CALIB_PLUS(SmoothCalibPlusPulses));
1131:Drivers/STM32L4xx_HAL_Driver/Src/stm32l4xx_hal_rtc_ex.c ****   assert_param(IS_RTC_SMOOTH_CALIB_MINUS(SmoothCalibMinusPulsesValue));
1132:Drivers/STM32L4xx_HAL_Driver/Src/stm32l4xx_hal_rtc_ex.c **** 
1133:Drivers/STM32L4xx_HAL_Driver/Src/stm32l4xx_hal_rtc_ex.c ****   /* Process Locked */
1134:Drivers/STM32L4xx_HAL_Driver/Src/stm32l4xx_hal_rtc_ex.c ****   __HAL_LOCK(hrtc);
 1821              		.loc 1 1134 3
 1822 000e FB68     		ldr	r3, [r7, #12]
 1823 0010 93F82030 		ldrb	r3, [r3, #32]	@ zero_extendqisi2
 1824 0014 012B     		cmp	r3, #1
 1825 0016 01D1     		bne	.L71
 1826              		.loc 1 1134 3 is_stmt 0 discriminator 1
 1827 0018 0223     		movs	r3, #2
 1828              		.loc 1 1134 3
 1829 001a 54E0     		b	.L72
 1830              	.L71:
 1831              		.loc 1 1134 3 discriminator 2
 1832 001c FB68     		ldr	r3, [r7, #12]
 1833 001e 0122     		movs	r2, #1
 1834 0020 83F82020 		strb	r2, [r3, #32]
1135:Drivers/STM32L4xx_HAL_Driver/Src/stm32l4xx_hal_rtc_ex.c **** 
1136:Drivers/STM32L4xx_HAL_Driver/Src/stm32l4xx_hal_rtc_ex.c ****   hrtc->State = HAL_RTC_STATE_BUSY;
 1835              		.loc 1 1136 15 is_stmt 1
 1836 0024 FB68     		ldr	r3, [r7, #12]
 1837 0026 0222     		movs	r2, #2
 1838 0028 83F82120 		strb	r2, [r3, #33]
1137:Drivers/STM32L4xx_HAL_Driver/Src/stm32l4xx_hal_rtc_ex.c **** 
1138:Drivers/STM32L4xx_HAL_Driver/Src/stm32l4xx_hal_rtc_ex.c ****   /* Disable the write protection for RTC registers */
1139:Drivers/STM32L4xx_HAL_Driver/Src/stm32l4xx_hal_rtc_ex.c ****   __HAL_RTC_WRITEPROTECTION_DISABLE(hrtc);
 1839              		.loc 1 1139 3
 1840 002c FB68     		ldr	r3, [r7, #12]
 1841 002e 1B68     		ldr	r3, [r3]
 1842 0030 CA22     		movs	r2, #202
 1843 0032 5A62     		str	r2, [r3, #36]
 1844 0034 FB68     		ldr	r3, [r7, #12]
 1845 0036 1B68     		ldr	r3, [r3]
 1846 0038 5322     		movs	r2, #83
 1847 003a 5A62     		str	r2, [r3, #36]
1140:Drivers/STM32L4xx_HAL_Driver/Src/stm32l4xx_hal_rtc_ex.c **** 
1141:Drivers/STM32L4xx_HAL_Driver/Src/stm32l4xx_hal_rtc_ex.c ****   /* check if a calibration is pending*/
ARM GAS  /tmp/cchDTGWe.s 			page 53


1142:Drivers/STM32L4xx_HAL_Driver/Src/stm32l4xx_hal_rtc_ex.c **** #if defined(STM32L412xx) || defined(STM32L422xx) || defined (STM32L4P5xx) || defined (STM32L4Q5xx)
1143:Drivers/STM32L4xx_HAL_Driver/Src/stm32l4xx_hal_rtc_ex.c ****   if ((hrtc->Instance->ICSR & RTC_ICSR_RECALPF) != 0U)
1144:Drivers/STM32L4xx_HAL_Driver/Src/stm32l4xx_hal_rtc_ex.c **** #else
1145:Drivers/STM32L4xx_HAL_Driver/Src/stm32l4xx_hal_rtc_ex.c ****   if ((hrtc->Instance->ISR & RTC_ISR_RECALPF) != 0U)
 1848              		.loc 1 1145 12
 1849 003c FB68     		ldr	r3, [r7, #12]
 1850 003e 1B68     		ldr	r3, [r3]
 1851              		.loc 1 1145 22
 1852 0040 DB68     		ldr	r3, [r3, #12]
 1853              		.loc 1 1145 28
 1854 0042 03F48033 		and	r3, r3, #65536
 1855              		.loc 1 1145 6
 1856 0046 002B     		cmp	r3, #0
 1857 0048 20D0     		beq	.L73
1146:Drivers/STM32L4xx_HAL_Driver/Src/stm32l4xx_hal_rtc_ex.c **** #endif
1147:Drivers/STM32L4xx_HAL_Driver/Src/stm32l4xx_hal_rtc_ex.c ****   {
1148:Drivers/STM32L4xx_HAL_Driver/Src/stm32l4xx_hal_rtc_ex.c ****     tickstart = HAL_GetTick();
 1858              		.loc 1 1148 17
 1859 004a FFF7FEFF 		bl	HAL_GetTick
 1860 004e 7861     		str	r0, [r7, #20]
1149:Drivers/STM32L4xx_HAL_Driver/Src/stm32l4xx_hal_rtc_ex.c **** 
1150:Drivers/STM32L4xx_HAL_Driver/Src/stm32l4xx_hal_rtc_ex.c ****     /* check if a calibration is pending*/
1151:Drivers/STM32L4xx_HAL_Driver/Src/stm32l4xx_hal_rtc_ex.c **** #if defined(STM32L412xx) || defined(STM32L422xx) || defined (STM32L4P5xx) || defined (STM32L4Q5xx)
1152:Drivers/STM32L4xx_HAL_Driver/Src/stm32l4xx_hal_rtc_ex.c ****     while ((hrtc->Instance->ICSR & RTC_ICSR_RECALPF) != 0U)
1153:Drivers/STM32L4xx_HAL_Driver/Src/stm32l4xx_hal_rtc_ex.c **** #else
1154:Drivers/STM32L4xx_HAL_Driver/Src/stm32l4xx_hal_rtc_ex.c ****     while ((hrtc->Instance->ISR & RTC_ISR_RECALPF) != 0U)
 1861              		.loc 1 1154 11
 1862 0050 15E0     		b	.L74
 1863              	.L75:
1155:Drivers/STM32L4xx_HAL_Driver/Src/stm32l4xx_hal_rtc_ex.c **** #endif
1156:Drivers/STM32L4xx_HAL_Driver/Src/stm32l4xx_hal_rtc_ex.c ****     {
1157:Drivers/STM32L4xx_HAL_Driver/Src/stm32l4xx_hal_rtc_ex.c ****       if ((HAL_GetTick() - tickstart) > RTC_TIMEOUT_VALUE)
 1864              		.loc 1 1157 12
 1865 0052 FFF7FEFF 		bl	HAL_GetTick
 1866 0056 0246     		mov	r2, r0
 1867              		.loc 1 1157 26 discriminator 1
 1868 0058 7B69     		ldr	r3, [r7, #20]
 1869 005a D31A     		subs	r3, r2, r3
 1870              		.loc 1 1157 10 discriminator 1
 1871 005c B3F57A7F 		cmp	r3, #1000
 1872 0060 0DD9     		bls	.L74
1158:Drivers/STM32L4xx_HAL_Driver/Src/stm32l4xx_hal_rtc_ex.c ****       {
1159:Drivers/STM32L4xx_HAL_Driver/Src/stm32l4xx_hal_rtc_ex.c ****         /* Enable the write protection for RTC registers */
1160:Drivers/STM32L4xx_HAL_Driver/Src/stm32l4xx_hal_rtc_ex.c ****         __HAL_RTC_WRITEPROTECTION_ENABLE(hrtc);
 1873              		.loc 1 1160 9
 1874 0062 FB68     		ldr	r3, [r7, #12]
 1875 0064 1B68     		ldr	r3, [r3]
 1876 0066 FF22     		movs	r2, #255
 1877 0068 5A62     		str	r2, [r3, #36]
1161:Drivers/STM32L4xx_HAL_Driver/Src/stm32l4xx_hal_rtc_ex.c **** 
1162:Drivers/STM32L4xx_HAL_Driver/Src/stm32l4xx_hal_rtc_ex.c ****         /* Change RTC state */
1163:Drivers/STM32L4xx_HAL_Driver/Src/stm32l4xx_hal_rtc_ex.c ****         hrtc->State = HAL_RTC_STATE_TIMEOUT;
 1878              		.loc 1 1163 21
 1879 006a FB68     		ldr	r3, [r7, #12]
 1880 006c 0322     		movs	r2, #3
 1881 006e 83F82120 		strb	r2, [r3, #33]
1164:Drivers/STM32L4xx_HAL_Driver/Src/stm32l4xx_hal_rtc_ex.c **** 
ARM GAS  /tmp/cchDTGWe.s 			page 54


1165:Drivers/STM32L4xx_HAL_Driver/Src/stm32l4xx_hal_rtc_ex.c ****         /* Process Unlocked */
1166:Drivers/STM32L4xx_HAL_Driver/Src/stm32l4xx_hal_rtc_ex.c ****         __HAL_UNLOCK(hrtc);
 1882              		.loc 1 1166 9
 1883 0072 FB68     		ldr	r3, [r7, #12]
 1884 0074 0022     		movs	r2, #0
 1885 0076 83F82020 		strb	r2, [r3, #32]
1167:Drivers/STM32L4xx_HAL_Driver/Src/stm32l4xx_hal_rtc_ex.c **** 
1168:Drivers/STM32L4xx_HAL_Driver/Src/stm32l4xx_hal_rtc_ex.c ****         return HAL_TIMEOUT;
 1886              		.loc 1 1168 16
 1887 007a 0323     		movs	r3, #3
 1888 007c 23E0     		b	.L72
 1889              	.L74:
1154:Drivers/STM32L4xx_HAL_Driver/Src/stm32l4xx_hal_rtc_ex.c **** #endif
 1890              		.loc 1 1154 17
 1891 007e FB68     		ldr	r3, [r7, #12]
 1892 0080 1B68     		ldr	r3, [r3]
1154:Drivers/STM32L4xx_HAL_Driver/Src/stm32l4xx_hal_rtc_ex.c **** #endif
 1893              		.loc 1 1154 27
 1894 0082 DB68     		ldr	r3, [r3, #12]
1154:Drivers/STM32L4xx_HAL_Driver/Src/stm32l4xx_hal_rtc_ex.c **** #endif
 1895              		.loc 1 1154 33
 1896 0084 03F48033 		and	r3, r3, #65536
1154:Drivers/STM32L4xx_HAL_Driver/Src/stm32l4xx_hal_rtc_ex.c **** #endif
 1897              		.loc 1 1154 52
 1898 0088 002B     		cmp	r3, #0
 1899 008a E2D1     		bne	.L75
 1900              	.L73:
1169:Drivers/STM32L4xx_HAL_Driver/Src/stm32l4xx_hal_rtc_ex.c ****       }
1170:Drivers/STM32L4xx_HAL_Driver/Src/stm32l4xx_hal_rtc_ex.c ****     }
1171:Drivers/STM32L4xx_HAL_Driver/Src/stm32l4xx_hal_rtc_ex.c ****   }
1172:Drivers/STM32L4xx_HAL_Driver/Src/stm32l4xx_hal_rtc_ex.c **** 
1173:Drivers/STM32L4xx_HAL_Driver/Src/stm32l4xx_hal_rtc_ex.c ****   /* Configure the Smooth calibration settings */
1174:Drivers/STM32L4xx_HAL_Driver/Src/stm32l4xx_hal_rtc_ex.c ****   MODIFY_REG(hrtc->Instance->CALR, (RTC_CALR_CALP | RTC_CALR_CALW8 | RTC_CALR_CALW16 | RTC_CALR_CAL
 1901              		.loc 1 1174 3
 1902 008c FB68     		ldr	r3, [r7, #12]
 1903 008e 1B68     		ldr	r3, [r3]
 1904 0090 DB6B     		ldr	r3, [r3, #60]
 1905 0092 23F46143 		bic	r3, r3, #57600
 1906 0096 23F0FF03 		bic	r3, r3, #255
 1907 009a B968     		ldr	r1, [r7, #8]
 1908 009c 7A68     		ldr	r2, [r7, #4]
 1909 009e 1143     		orrs	r1, r1, r2
 1910 00a0 3A68     		ldr	r2, [r7]
 1911 00a2 1143     		orrs	r1, r1, r2
 1912 00a4 FA68     		ldr	r2, [r7, #12]
 1913 00a6 1268     		ldr	r2, [r2]
 1914 00a8 0B43     		orrs	r3, r3, r1
 1915 00aa D363     		str	r3, [r2, #60]
1175:Drivers/STM32L4xx_HAL_Driver/Src/stm32l4xx_hal_rtc_ex.c **** 
1176:Drivers/STM32L4xx_HAL_Driver/Src/stm32l4xx_hal_rtc_ex.c ****   /* Enable the write protection for RTC registers */
1177:Drivers/STM32L4xx_HAL_Driver/Src/stm32l4xx_hal_rtc_ex.c ****   __HAL_RTC_WRITEPROTECTION_ENABLE(hrtc);
 1916              		.loc 1 1177 3
 1917 00ac FB68     		ldr	r3, [r7, #12]
 1918 00ae 1B68     		ldr	r3, [r3]
 1919 00b0 FF22     		movs	r2, #255
 1920 00b2 5A62     		str	r2, [r3, #36]
1178:Drivers/STM32L4xx_HAL_Driver/Src/stm32l4xx_hal_rtc_ex.c **** 
ARM GAS  /tmp/cchDTGWe.s 			page 55


1179:Drivers/STM32L4xx_HAL_Driver/Src/stm32l4xx_hal_rtc_ex.c ****   /* Change RTC state */
1180:Drivers/STM32L4xx_HAL_Driver/Src/stm32l4xx_hal_rtc_ex.c ****   hrtc->State = HAL_RTC_STATE_READY;
 1921              		.loc 1 1180 15
 1922 00b4 FB68     		ldr	r3, [r7, #12]
 1923 00b6 0122     		movs	r2, #1
 1924 00b8 83F82120 		strb	r2, [r3, #33]
1181:Drivers/STM32L4xx_HAL_Driver/Src/stm32l4xx_hal_rtc_ex.c **** 
1182:Drivers/STM32L4xx_HAL_Driver/Src/stm32l4xx_hal_rtc_ex.c ****   /* Process Unlocked */
1183:Drivers/STM32L4xx_HAL_Driver/Src/stm32l4xx_hal_rtc_ex.c ****   __HAL_UNLOCK(hrtc);
 1925              		.loc 1 1183 3
 1926 00bc FB68     		ldr	r3, [r7, #12]
 1927 00be 0022     		movs	r2, #0
 1928 00c0 83F82020 		strb	r2, [r3, #32]
1184:Drivers/STM32L4xx_HAL_Driver/Src/stm32l4xx_hal_rtc_ex.c **** 
1185:Drivers/STM32L4xx_HAL_Driver/Src/stm32l4xx_hal_rtc_ex.c ****   return HAL_OK;
 1929              		.loc 1 1185 10
 1930 00c4 0023     		movs	r3, #0
 1931              	.L72:
1186:Drivers/STM32L4xx_HAL_Driver/Src/stm32l4xx_hal_rtc_ex.c **** }
 1932              		.loc 1 1186 1
 1933 00c6 1846     		mov	r0, r3
 1934 00c8 1837     		adds	r7, r7, #24
 1935              		.cfi_def_cfa_offset 8
 1936 00ca BD46     		mov	sp, r7
 1937              		.cfi_def_cfa_register 13
 1938              		@ sp needed
 1939 00cc 80BD     		pop	{r7, pc}
 1940              		.cfi_endproc
 1941              	.LFE461:
 1943              		.section	.text.HAL_RTCEx_SetSynchroShift,"ax",%progbits
 1944              		.align	1
 1945              		.global	HAL_RTCEx_SetSynchroShift
 1946              		.syntax unified
 1947              		.thumb
 1948              		.thumb_func
 1950              	HAL_RTCEx_SetSynchroShift:
 1951              	.LFB462:
1187:Drivers/STM32L4xx_HAL_Driver/Src/stm32l4xx_hal_rtc_ex.c **** 
1188:Drivers/STM32L4xx_HAL_Driver/Src/stm32l4xx_hal_rtc_ex.c **** #if defined(STM32L412xx) || defined(STM32L422xx) || defined (STM32L4P5xx) || defined (STM32L4Q5xx)
1189:Drivers/STM32L4xx_HAL_Driver/Src/stm32l4xx_hal_rtc_ex.c **** /**
1190:Drivers/STM32L4xx_HAL_Driver/Src/stm32l4xx_hal_rtc_ex.c ****   * @brief  Select the low power Calibration mode.
1191:Drivers/STM32L4xx_HAL_Driver/Src/stm32l4xx_hal_rtc_ex.c ****   * @param  hrtc RTC handle
1192:Drivers/STM32L4xx_HAL_Driver/Src/stm32l4xx_hal_rtc_ex.c ****   * @param  LowPowerCalib Low power Calibration mode.
1193:Drivers/STM32L4xx_HAL_Driver/Src/stm32l4xx_hal_rtc_ex.c ****   *          This parameter can be can be one of the following values :
1194:Drivers/STM32L4xx_HAL_Driver/Src/stm32l4xx_hal_rtc_ex.c ****   *             @arg RTC_LPCAL_SET: Low power mode.
1195:Drivers/STM32L4xx_HAL_Driver/Src/stm32l4xx_hal_rtc_ex.c ****   *             @arg RTC_LPCAL_RESET: High consumption mode.
1196:Drivers/STM32L4xx_HAL_Driver/Src/stm32l4xx_hal_rtc_ex.c ****   * @retval HAL status
1197:Drivers/STM32L4xx_HAL_Driver/Src/stm32l4xx_hal_rtc_ex.c ****   */
1198:Drivers/STM32L4xx_HAL_Driver/Src/stm32l4xx_hal_rtc_ex.c **** HAL_StatusTypeDef HAL_RTCEx_SetLowPowerCalib(RTC_HandleTypeDef *hrtc, uint32_t LowPowerCalib)
1199:Drivers/STM32L4xx_HAL_Driver/Src/stm32l4xx_hal_rtc_ex.c **** {
1200:Drivers/STM32L4xx_HAL_Driver/Src/stm32l4xx_hal_rtc_ex.c ****   /* Check the parameters */
1201:Drivers/STM32L4xx_HAL_Driver/Src/stm32l4xx_hal_rtc_ex.c ****   assert_param(IS_RTC_LOW_POWER_CALIB(LowPowerCalib));
1202:Drivers/STM32L4xx_HAL_Driver/Src/stm32l4xx_hal_rtc_ex.c **** 
1203:Drivers/STM32L4xx_HAL_Driver/Src/stm32l4xx_hal_rtc_ex.c ****   /* Process Locked */
1204:Drivers/STM32L4xx_HAL_Driver/Src/stm32l4xx_hal_rtc_ex.c ****   __HAL_LOCK(hrtc);
1205:Drivers/STM32L4xx_HAL_Driver/Src/stm32l4xx_hal_rtc_ex.c **** 
1206:Drivers/STM32L4xx_HAL_Driver/Src/stm32l4xx_hal_rtc_ex.c ****   hrtc->State = HAL_RTC_STATE_BUSY;
ARM GAS  /tmp/cchDTGWe.s 			page 56


1207:Drivers/STM32L4xx_HAL_Driver/Src/stm32l4xx_hal_rtc_ex.c **** 
1208:Drivers/STM32L4xx_HAL_Driver/Src/stm32l4xx_hal_rtc_ex.c ****   /* Disable the write protection for RTC registers */
1209:Drivers/STM32L4xx_HAL_Driver/Src/stm32l4xx_hal_rtc_ex.c ****   __HAL_RTC_WRITEPROTECTION_DISABLE(hrtc);
1210:Drivers/STM32L4xx_HAL_Driver/Src/stm32l4xx_hal_rtc_ex.c **** 
1211:Drivers/STM32L4xx_HAL_Driver/Src/stm32l4xx_hal_rtc_ex.c ****   /* Configure the Smooth calibration settings */
1212:Drivers/STM32L4xx_HAL_Driver/Src/stm32l4xx_hal_rtc_ex.c ****   MODIFY_REG(hrtc->Instance->CALR, RTC_CALR_LPCAL, LowPowerCalib);
1213:Drivers/STM32L4xx_HAL_Driver/Src/stm32l4xx_hal_rtc_ex.c **** 
1214:Drivers/STM32L4xx_HAL_Driver/Src/stm32l4xx_hal_rtc_ex.c ****   /* Enable the write protection for RTC registers */
1215:Drivers/STM32L4xx_HAL_Driver/Src/stm32l4xx_hal_rtc_ex.c ****   __HAL_RTC_WRITEPROTECTION_ENABLE(hrtc);
1216:Drivers/STM32L4xx_HAL_Driver/Src/stm32l4xx_hal_rtc_ex.c **** 
1217:Drivers/STM32L4xx_HAL_Driver/Src/stm32l4xx_hal_rtc_ex.c ****   /* Change RTC state */
1218:Drivers/STM32L4xx_HAL_Driver/Src/stm32l4xx_hal_rtc_ex.c ****   hrtc->State = HAL_RTC_STATE_READY;
1219:Drivers/STM32L4xx_HAL_Driver/Src/stm32l4xx_hal_rtc_ex.c **** 
1220:Drivers/STM32L4xx_HAL_Driver/Src/stm32l4xx_hal_rtc_ex.c ****   /* Process Unlocked */
1221:Drivers/STM32L4xx_HAL_Driver/Src/stm32l4xx_hal_rtc_ex.c ****   __HAL_UNLOCK(hrtc);
1222:Drivers/STM32L4xx_HAL_Driver/Src/stm32l4xx_hal_rtc_ex.c **** 
1223:Drivers/STM32L4xx_HAL_Driver/Src/stm32l4xx_hal_rtc_ex.c ****   return HAL_OK;
1224:Drivers/STM32L4xx_HAL_Driver/Src/stm32l4xx_hal_rtc_ex.c **** }
1225:Drivers/STM32L4xx_HAL_Driver/Src/stm32l4xx_hal_rtc_ex.c **** #endif /* #if defined(STM32L412xx) || defined(STM32L422xx) || defined (STM32L4P5xx) || defined (STM
1226:Drivers/STM32L4xx_HAL_Driver/Src/stm32l4xx_hal_rtc_ex.c **** 
1227:Drivers/STM32L4xx_HAL_Driver/Src/stm32l4xx_hal_rtc_ex.c **** /**
1228:Drivers/STM32L4xx_HAL_Driver/Src/stm32l4xx_hal_rtc_ex.c ****   * @brief  Configure the Synchronization Shift Control Settings.
1229:Drivers/STM32L4xx_HAL_Driver/Src/stm32l4xx_hal_rtc_ex.c ****   * @note   When REFCKON is set, firmware must not write to Shift control register.
1230:Drivers/STM32L4xx_HAL_Driver/Src/stm32l4xx_hal_rtc_ex.c ****   * @param  hrtc RTC handle
1231:Drivers/STM32L4xx_HAL_Driver/Src/stm32l4xx_hal_rtc_ex.c ****   * @param  ShiftAdd1S Select to add or not 1 second to the time calendar.
1232:Drivers/STM32L4xx_HAL_Driver/Src/stm32l4xx_hal_rtc_ex.c ****   *          This parameter can be one of the following values:
1233:Drivers/STM32L4xx_HAL_Driver/Src/stm32l4xx_hal_rtc_ex.c ****   *             @arg RTC_SHIFTADD1S_SET: Add one second to the clock calendar.
1234:Drivers/STM32L4xx_HAL_Driver/Src/stm32l4xx_hal_rtc_ex.c ****   *             @arg RTC_SHIFTADD1S_RESET: No effect.
1235:Drivers/STM32L4xx_HAL_Driver/Src/stm32l4xx_hal_rtc_ex.c ****   * @param  ShiftSubFS Select the number of Second Fractions to substitute.
1236:Drivers/STM32L4xx_HAL_Driver/Src/stm32l4xx_hal_rtc_ex.c ****   *          This parameter can be one any value from 0 to 0x7FFF.
1237:Drivers/STM32L4xx_HAL_Driver/Src/stm32l4xx_hal_rtc_ex.c ****   * @retval HAL status
1238:Drivers/STM32L4xx_HAL_Driver/Src/stm32l4xx_hal_rtc_ex.c ****   */
1239:Drivers/STM32L4xx_HAL_Driver/Src/stm32l4xx_hal_rtc_ex.c **** HAL_StatusTypeDef HAL_RTCEx_SetSynchroShift(RTC_HandleTypeDef *hrtc, uint32_t ShiftAdd1S, uint32_t 
1240:Drivers/STM32L4xx_HAL_Driver/Src/stm32l4xx_hal_rtc_ex.c **** {
 1952              		.loc 1 1240 1
 1953              		.cfi_startproc
 1954              		@ args = 0, pretend = 0, frame = 24
 1955              		@ frame_needed = 1, uses_anonymous_args = 0
 1956 0000 80B5     		push	{r7, lr}
 1957              		.cfi_def_cfa_offset 8
 1958              		.cfi_offset 7, -8
 1959              		.cfi_offset 14, -4
 1960 0002 86B0     		sub	sp, sp, #24
 1961              		.cfi_def_cfa_offset 32
 1962 0004 00AF     		add	r7, sp, #0
 1963              		.cfi_def_cfa_register 7
 1964 0006 F860     		str	r0, [r7, #12]
 1965 0008 B960     		str	r1, [r7, #8]
 1966 000a 7A60     		str	r2, [r7, #4]
1241:Drivers/STM32L4xx_HAL_Driver/Src/stm32l4xx_hal_rtc_ex.c ****   uint32_t tickstart;
1242:Drivers/STM32L4xx_HAL_Driver/Src/stm32l4xx_hal_rtc_ex.c **** 
1243:Drivers/STM32L4xx_HAL_Driver/Src/stm32l4xx_hal_rtc_ex.c ****   /* Check the parameters */
1244:Drivers/STM32L4xx_HAL_Driver/Src/stm32l4xx_hal_rtc_ex.c ****   assert_param(IS_RTC_SHIFT_ADD1S(ShiftAdd1S));
1245:Drivers/STM32L4xx_HAL_Driver/Src/stm32l4xx_hal_rtc_ex.c ****   assert_param(IS_RTC_SHIFT_SUBFS(ShiftSubFS));
1246:Drivers/STM32L4xx_HAL_Driver/Src/stm32l4xx_hal_rtc_ex.c **** 
1247:Drivers/STM32L4xx_HAL_Driver/Src/stm32l4xx_hal_rtc_ex.c ****   /* Process Locked */
1248:Drivers/STM32L4xx_HAL_Driver/Src/stm32l4xx_hal_rtc_ex.c ****   __HAL_LOCK(hrtc);
ARM GAS  /tmp/cchDTGWe.s 			page 57


 1967              		.loc 1 1248 3
 1968 000c FB68     		ldr	r3, [r7, #12]
 1969 000e 93F82030 		ldrb	r3, [r3, #32]	@ zero_extendqisi2
 1970 0012 012B     		cmp	r3, #1
 1971 0014 01D1     		bne	.L77
 1972              		.loc 1 1248 3 is_stmt 0 discriminator 1
 1973 0016 0223     		movs	r3, #2
 1974              		.loc 1 1248 3
 1975 0018 73E0     		b	.L78
 1976              	.L77:
 1977              		.loc 1 1248 3 discriminator 2
 1978 001a FB68     		ldr	r3, [r7, #12]
 1979 001c 0122     		movs	r2, #1
 1980 001e 83F82020 		strb	r2, [r3, #32]
1249:Drivers/STM32L4xx_HAL_Driver/Src/stm32l4xx_hal_rtc_ex.c **** 
1250:Drivers/STM32L4xx_HAL_Driver/Src/stm32l4xx_hal_rtc_ex.c ****   hrtc->State = HAL_RTC_STATE_BUSY;
 1981              		.loc 1 1250 15 is_stmt 1
 1982 0022 FB68     		ldr	r3, [r7, #12]
 1983 0024 0222     		movs	r2, #2
 1984 0026 83F82120 		strb	r2, [r3, #33]
1251:Drivers/STM32L4xx_HAL_Driver/Src/stm32l4xx_hal_rtc_ex.c **** 
1252:Drivers/STM32L4xx_HAL_Driver/Src/stm32l4xx_hal_rtc_ex.c ****   /* Disable the write protection for RTC registers */
1253:Drivers/STM32L4xx_HAL_Driver/Src/stm32l4xx_hal_rtc_ex.c ****   __HAL_RTC_WRITEPROTECTION_DISABLE(hrtc);
 1985              		.loc 1 1253 3
 1986 002a FB68     		ldr	r3, [r7, #12]
 1987 002c 1B68     		ldr	r3, [r3]
 1988 002e CA22     		movs	r2, #202
 1989 0030 5A62     		str	r2, [r3, #36]
 1990 0032 FB68     		ldr	r3, [r7, #12]
 1991 0034 1B68     		ldr	r3, [r3]
 1992 0036 5322     		movs	r2, #83
 1993 0038 5A62     		str	r2, [r3, #36]
1254:Drivers/STM32L4xx_HAL_Driver/Src/stm32l4xx_hal_rtc_ex.c **** 
1255:Drivers/STM32L4xx_HAL_Driver/Src/stm32l4xx_hal_rtc_ex.c ****   tickstart = HAL_GetTick();
 1994              		.loc 1 1255 15
 1995 003a FFF7FEFF 		bl	HAL_GetTick
 1996 003e 7861     		str	r0, [r7, #20]
1256:Drivers/STM32L4xx_HAL_Driver/Src/stm32l4xx_hal_rtc_ex.c **** 
1257:Drivers/STM32L4xx_HAL_Driver/Src/stm32l4xx_hal_rtc_ex.c ****   /* Wait until the shift is completed*/
1258:Drivers/STM32L4xx_HAL_Driver/Src/stm32l4xx_hal_rtc_ex.c **** #if defined(STM32L412xx) || defined(STM32L422xx) || defined (STM32L4P5xx) || defined (STM32L4Q5xx)
1259:Drivers/STM32L4xx_HAL_Driver/Src/stm32l4xx_hal_rtc_ex.c ****   while ((hrtc->Instance->ICSR & RTC_ICSR_SHPF) != 0U)
1260:Drivers/STM32L4xx_HAL_Driver/Src/stm32l4xx_hal_rtc_ex.c **** #else
1261:Drivers/STM32L4xx_HAL_Driver/Src/stm32l4xx_hal_rtc_ex.c ****   while ((hrtc->Instance->ISR & RTC_ISR_SHPF) != 0U)
 1997              		.loc 1 1261 9
 1998 0040 15E0     		b	.L79
 1999              	.L80:
1262:Drivers/STM32L4xx_HAL_Driver/Src/stm32l4xx_hal_rtc_ex.c **** #endif
1263:Drivers/STM32L4xx_HAL_Driver/Src/stm32l4xx_hal_rtc_ex.c ****   {
1264:Drivers/STM32L4xx_HAL_Driver/Src/stm32l4xx_hal_rtc_ex.c ****     if ((HAL_GetTick() - tickstart) > RTC_TIMEOUT_VALUE)
 2000              		.loc 1 1264 10
 2001 0042 FFF7FEFF 		bl	HAL_GetTick
 2002 0046 0246     		mov	r2, r0
 2003              		.loc 1 1264 24 discriminator 1
 2004 0048 7B69     		ldr	r3, [r7, #20]
 2005 004a D31A     		subs	r3, r2, r3
 2006              		.loc 1 1264 8 discriminator 1
 2007 004c B3F57A7F 		cmp	r3, #1000
ARM GAS  /tmp/cchDTGWe.s 			page 58


 2008 0050 0DD9     		bls	.L79
1265:Drivers/STM32L4xx_HAL_Driver/Src/stm32l4xx_hal_rtc_ex.c ****     {
1266:Drivers/STM32L4xx_HAL_Driver/Src/stm32l4xx_hal_rtc_ex.c ****       /* Enable the write protection for RTC registers */
1267:Drivers/STM32L4xx_HAL_Driver/Src/stm32l4xx_hal_rtc_ex.c ****       __HAL_RTC_WRITEPROTECTION_ENABLE(hrtc);
 2009              		.loc 1 1267 7
 2010 0052 FB68     		ldr	r3, [r7, #12]
 2011 0054 1B68     		ldr	r3, [r3]
 2012 0056 FF22     		movs	r2, #255
 2013 0058 5A62     		str	r2, [r3, #36]
1268:Drivers/STM32L4xx_HAL_Driver/Src/stm32l4xx_hal_rtc_ex.c **** 
1269:Drivers/STM32L4xx_HAL_Driver/Src/stm32l4xx_hal_rtc_ex.c ****       hrtc->State = HAL_RTC_STATE_TIMEOUT;
 2014              		.loc 1 1269 19
 2015 005a FB68     		ldr	r3, [r7, #12]
 2016 005c 0322     		movs	r2, #3
 2017 005e 83F82120 		strb	r2, [r3, #33]
1270:Drivers/STM32L4xx_HAL_Driver/Src/stm32l4xx_hal_rtc_ex.c **** 
1271:Drivers/STM32L4xx_HAL_Driver/Src/stm32l4xx_hal_rtc_ex.c ****       /* Process Unlocked */
1272:Drivers/STM32L4xx_HAL_Driver/Src/stm32l4xx_hal_rtc_ex.c ****       __HAL_UNLOCK(hrtc);
 2018              		.loc 1 1272 7
 2019 0062 FB68     		ldr	r3, [r7, #12]
 2020 0064 0022     		movs	r2, #0
 2021 0066 83F82020 		strb	r2, [r3, #32]
1273:Drivers/STM32L4xx_HAL_Driver/Src/stm32l4xx_hal_rtc_ex.c **** 
1274:Drivers/STM32L4xx_HAL_Driver/Src/stm32l4xx_hal_rtc_ex.c ****       return HAL_TIMEOUT;
 2022              		.loc 1 1274 14
 2023 006a 0323     		movs	r3, #3
 2024 006c 49E0     		b	.L78
 2025              	.L79:
1261:Drivers/STM32L4xx_HAL_Driver/Src/stm32l4xx_hal_rtc_ex.c **** #endif
 2026              		.loc 1 1261 15
 2027 006e FB68     		ldr	r3, [r7, #12]
 2028 0070 1B68     		ldr	r3, [r3]
1261:Drivers/STM32L4xx_HAL_Driver/Src/stm32l4xx_hal_rtc_ex.c **** #endif
 2029              		.loc 1 1261 25
 2030 0072 DB68     		ldr	r3, [r3, #12]
1261:Drivers/STM32L4xx_HAL_Driver/Src/stm32l4xx_hal_rtc_ex.c **** #endif
 2031              		.loc 1 1261 31
 2032 0074 03F00803 		and	r3, r3, #8
1261:Drivers/STM32L4xx_HAL_Driver/Src/stm32l4xx_hal_rtc_ex.c **** #endif
 2033              		.loc 1 1261 47
 2034 0078 002B     		cmp	r3, #0
 2035 007a E2D1     		bne	.L80
1275:Drivers/STM32L4xx_HAL_Driver/Src/stm32l4xx_hal_rtc_ex.c ****     }
1276:Drivers/STM32L4xx_HAL_Driver/Src/stm32l4xx_hal_rtc_ex.c ****   }
1277:Drivers/STM32L4xx_HAL_Driver/Src/stm32l4xx_hal_rtc_ex.c **** 
1278:Drivers/STM32L4xx_HAL_Driver/Src/stm32l4xx_hal_rtc_ex.c ****   /* Check if the reference clock detection is disabled */
1279:Drivers/STM32L4xx_HAL_Driver/Src/stm32l4xx_hal_rtc_ex.c ****   if ((hrtc->Instance->CR & RTC_CR_REFCKON) == 0U)
 2036              		.loc 1 1279 12
 2037 007c FB68     		ldr	r3, [r7, #12]
 2038 007e 1B68     		ldr	r3, [r3]
 2039              		.loc 1 1279 22
 2040 0080 9B68     		ldr	r3, [r3, #8]
 2041              		.loc 1 1279 27
 2042 0082 03F01003 		and	r3, r3, #16
 2043              		.loc 1 1279 6
 2044 0086 002B     		cmp	r3, #0
 2045 0088 20D1     		bne	.L81
ARM GAS  /tmp/cchDTGWe.s 			page 59


1280:Drivers/STM32L4xx_HAL_Driver/Src/stm32l4xx_hal_rtc_ex.c ****   {
1281:Drivers/STM32L4xx_HAL_Driver/Src/stm32l4xx_hal_rtc_ex.c ****     /* Configure the Shift settings */
1282:Drivers/STM32L4xx_HAL_Driver/Src/stm32l4xx_hal_rtc_ex.c ****     hrtc->Instance->SHIFTR = (uint32_t)(uint32_t)(ShiftSubFS) | (uint32_t)(ShiftAdd1S);
 2046              		.loc 1 1282 9
 2047 008a FB68     		ldr	r3, [r7, #12]
 2048 008c 1B68     		ldr	r3, [r3]
 2049              		.loc 1 1282 63
 2050 008e 7968     		ldr	r1, [r7, #4]
 2051 0090 BA68     		ldr	r2, [r7, #8]
 2052 0092 0A43     		orrs	r2, r2, r1
 2053              		.loc 1 1282 28
 2054 0094 DA62     		str	r2, [r3, #44]
1283:Drivers/STM32L4xx_HAL_Driver/Src/stm32l4xx_hal_rtc_ex.c **** 
1284:Drivers/STM32L4xx_HAL_Driver/Src/stm32l4xx_hal_rtc_ex.c ****     /* If  RTC_CR_BYPSHAD bit = 0, wait for synchro else this check is not needed */
1285:Drivers/STM32L4xx_HAL_Driver/Src/stm32l4xx_hal_rtc_ex.c ****     if ((hrtc->Instance->CR & RTC_CR_BYPSHAD) == 0U)
 2055              		.loc 1 1285 14
 2056 0096 FB68     		ldr	r3, [r7, #12]
 2057 0098 1B68     		ldr	r3, [r3]
 2058              		.loc 1 1285 24
 2059 009a 9B68     		ldr	r3, [r3, #8]
 2060              		.loc 1 1285 29
 2061 009c 03F02003 		and	r3, r3, #32
 2062              		.loc 1 1285 8
 2063 00a0 002B     		cmp	r3, #0
 2064 00a2 21D1     		bne	.L82
1286:Drivers/STM32L4xx_HAL_Driver/Src/stm32l4xx_hal_rtc_ex.c ****     {
1287:Drivers/STM32L4xx_HAL_Driver/Src/stm32l4xx_hal_rtc_ex.c ****       if (HAL_RTC_WaitForSynchro(hrtc) != HAL_OK)
 2065              		.loc 1 1287 11
 2066 00a4 F868     		ldr	r0, [r7, #12]
 2067 00a6 FFF7FEFF 		bl	HAL_RTC_WaitForSynchro
 2068 00aa 0346     		mov	r3, r0
 2069              		.loc 1 1287 10 discriminator 1
 2070 00ac 002B     		cmp	r3, #0
 2071 00ae 1BD0     		beq	.L82
1288:Drivers/STM32L4xx_HAL_Driver/Src/stm32l4xx_hal_rtc_ex.c ****       {
1289:Drivers/STM32L4xx_HAL_Driver/Src/stm32l4xx_hal_rtc_ex.c ****         /* Enable the write protection for RTC registers */
1290:Drivers/STM32L4xx_HAL_Driver/Src/stm32l4xx_hal_rtc_ex.c ****         __HAL_RTC_WRITEPROTECTION_ENABLE(hrtc);
 2072              		.loc 1 1290 9
 2073 00b0 FB68     		ldr	r3, [r7, #12]
 2074 00b2 1B68     		ldr	r3, [r3]
 2075 00b4 FF22     		movs	r2, #255
 2076 00b6 5A62     		str	r2, [r3, #36]
1291:Drivers/STM32L4xx_HAL_Driver/Src/stm32l4xx_hal_rtc_ex.c **** 
1292:Drivers/STM32L4xx_HAL_Driver/Src/stm32l4xx_hal_rtc_ex.c ****         hrtc->State = HAL_RTC_STATE_ERROR;
 2077              		.loc 1 1292 21
 2078 00b8 FB68     		ldr	r3, [r7, #12]
 2079 00ba 0422     		movs	r2, #4
 2080 00bc 83F82120 		strb	r2, [r3, #33]
1293:Drivers/STM32L4xx_HAL_Driver/Src/stm32l4xx_hal_rtc_ex.c **** 
1294:Drivers/STM32L4xx_HAL_Driver/Src/stm32l4xx_hal_rtc_ex.c ****         /* Process Unlocked */
1295:Drivers/STM32L4xx_HAL_Driver/Src/stm32l4xx_hal_rtc_ex.c ****         __HAL_UNLOCK(hrtc);
 2081              		.loc 1 1295 9
 2082 00c0 FB68     		ldr	r3, [r7, #12]
 2083 00c2 0022     		movs	r2, #0
 2084 00c4 83F82020 		strb	r2, [r3, #32]
1296:Drivers/STM32L4xx_HAL_Driver/Src/stm32l4xx_hal_rtc_ex.c **** 
1297:Drivers/STM32L4xx_HAL_Driver/Src/stm32l4xx_hal_rtc_ex.c ****         return HAL_ERROR;
ARM GAS  /tmp/cchDTGWe.s 			page 60


 2085              		.loc 1 1297 16
 2086 00c8 0123     		movs	r3, #1
 2087 00ca 1AE0     		b	.L78
 2088              	.L81:
1298:Drivers/STM32L4xx_HAL_Driver/Src/stm32l4xx_hal_rtc_ex.c ****       }
1299:Drivers/STM32L4xx_HAL_Driver/Src/stm32l4xx_hal_rtc_ex.c ****     }
1300:Drivers/STM32L4xx_HAL_Driver/Src/stm32l4xx_hal_rtc_ex.c ****   }
1301:Drivers/STM32L4xx_HAL_Driver/Src/stm32l4xx_hal_rtc_ex.c ****   else
1302:Drivers/STM32L4xx_HAL_Driver/Src/stm32l4xx_hal_rtc_ex.c ****   {
1303:Drivers/STM32L4xx_HAL_Driver/Src/stm32l4xx_hal_rtc_ex.c ****     /* Enable the write protection for RTC registers */
1304:Drivers/STM32L4xx_HAL_Driver/Src/stm32l4xx_hal_rtc_ex.c ****     __HAL_RTC_WRITEPROTECTION_ENABLE(hrtc);
 2089              		.loc 1 1304 5
 2090 00cc FB68     		ldr	r3, [r7, #12]
 2091 00ce 1B68     		ldr	r3, [r3]
 2092 00d0 FF22     		movs	r2, #255
 2093 00d2 5A62     		str	r2, [r3, #36]
1305:Drivers/STM32L4xx_HAL_Driver/Src/stm32l4xx_hal_rtc_ex.c **** 
1306:Drivers/STM32L4xx_HAL_Driver/Src/stm32l4xx_hal_rtc_ex.c ****     /* Change RTC state */
1307:Drivers/STM32L4xx_HAL_Driver/Src/stm32l4xx_hal_rtc_ex.c ****     hrtc->State = HAL_RTC_STATE_ERROR;
 2094              		.loc 1 1307 17
 2095 00d4 FB68     		ldr	r3, [r7, #12]
 2096 00d6 0422     		movs	r2, #4
 2097 00d8 83F82120 		strb	r2, [r3, #33]
1308:Drivers/STM32L4xx_HAL_Driver/Src/stm32l4xx_hal_rtc_ex.c **** 
1309:Drivers/STM32L4xx_HAL_Driver/Src/stm32l4xx_hal_rtc_ex.c ****     /* Process Unlocked */
1310:Drivers/STM32L4xx_HAL_Driver/Src/stm32l4xx_hal_rtc_ex.c ****     __HAL_UNLOCK(hrtc);
 2098              		.loc 1 1310 5
 2099 00dc FB68     		ldr	r3, [r7, #12]
 2100 00de 0022     		movs	r2, #0
 2101 00e0 83F82020 		strb	r2, [r3, #32]
1311:Drivers/STM32L4xx_HAL_Driver/Src/stm32l4xx_hal_rtc_ex.c **** 
1312:Drivers/STM32L4xx_HAL_Driver/Src/stm32l4xx_hal_rtc_ex.c ****     return HAL_ERROR;
 2102              		.loc 1 1312 12
 2103 00e4 0123     		movs	r3, #1
 2104 00e6 0CE0     		b	.L78
 2105              	.L82:
1313:Drivers/STM32L4xx_HAL_Driver/Src/stm32l4xx_hal_rtc_ex.c ****   }
1314:Drivers/STM32L4xx_HAL_Driver/Src/stm32l4xx_hal_rtc_ex.c **** 
1315:Drivers/STM32L4xx_HAL_Driver/Src/stm32l4xx_hal_rtc_ex.c ****   /* Enable the write protection for RTC registers */
1316:Drivers/STM32L4xx_HAL_Driver/Src/stm32l4xx_hal_rtc_ex.c ****   __HAL_RTC_WRITEPROTECTION_ENABLE(hrtc);
 2106              		.loc 1 1316 3
 2107 00e8 FB68     		ldr	r3, [r7, #12]
 2108 00ea 1B68     		ldr	r3, [r3]
 2109 00ec FF22     		movs	r2, #255
 2110 00ee 5A62     		str	r2, [r3, #36]
1317:Drivers/STM32L4xx_HAL_Driver/Src/stm32l4xx_hal_rtc_ex.c **** 
1318:Drivers/STM32L4xx_HAL_Driver/Src/stm32l4xx_hal_rtc_ex.c ****   /* Change RTC state */
1319:Drivers/STM32L4xx_HAL_Driver/Src/stm32l4xx_hal_rtc_ex.c ****   hrtc->State = HAL_RTC_STATE_READY;
 2111              		.loc 1 1319 15
 2112 00f0 FB68     		ldr	r3, [r7, #12]
 2113 00f2 0122     		movs	r2, #1
 2114 00f4 83F82120 		strb	r2, [r3, #33]
1320:Drivers/STM32L4xx_HAL_Driver/Src/stm32l4xx_hal_rtc_ex.c **** 
1321:Drivers/STM32L4xx_HAL_Driver/Src/stm32l4xx_hal_rtc_ex.c ****   /* Process Unlocked */
1322:Drivers/STM32L4xx_HAL_Driver/Src/stm32l4xx_hal_rtc_ex.c ****   __HAL_UNLOCK(hrtc);
 2115              		.loc 1 1322 3
 2116 00f8 FB68     		ldr	r3, [r7, #12]
ARM GAS  /tmp/cchDTGWe.s 			page 61


 2117 00fa 0022     		movs	r2, #0
 2118 00fc 83F82020 		strb	r2, [r3, #32]
1323:Drivers/STM32L4xx_HAL_Driver/Src/stm32l4xx_hal_rtc_ex.c **** 
1324:Drivers/STM32L4xx_HAL_Driver/Src/stm32l4xx_hal_rtc_ex.c ****   return HAL_OK;
 2119              		.loc 1 1324 10
 2120 0100 0023     		movs	r3, #0
 2121              	.L78:
1325:Drivers/STM32L4xx_HAL_Driver/Src/stm32l4xx_hal_rtc_ex.c **** }
 2122              		.loc 1 1325 1
 2123 0102 1846     		mov	r0, r3
 2124 0104 1837     		adds	r7, r7, #24
 2125              		.cfi_def_cfa_offset 8
 2126 0106 BD46     		mov	sp, r7
 2127              		.cfi_def_cfa_register 13
 2128              		@ sp needed
 2129 0108 80BD     		pop	{r7, pc}
 2130              		.cfi_endproc
 2131              	.LFE462:
 2133              		.section	.text.HAL_RTCEx_SetCalibrationOutPut,"ax",%progbits
 2134              		.align	1
 2135              		.global	HAL_RTCEx_SetCalibrationOutPut
 2136              		.syntax unified
 2137              		.thumb
 2138              		.thumb_func
 2140              	HAL_RTCEx_SetCalibrationOutPut:
 2141              	.LFB463:
1326:Drivers/STM32L4xx_HAL_Driver/Src/stm32l4xx_hal_rtc_ex.c **** 
1327:Drivers/STM32L4xx_HAL_Driver/Src/stm32l4xx_hal_rtc_ex.c **** /**
1328:Drivers/STM32L4xx_HAL_Driver/Src/stm32l4xx_hal_rtc_ex.c ****   * @brief  Configure the Calibration Pinout (RTC_CALIB) Selection (1Hz or 512Hz).
1329:Drivers/STM32L4xx_HAL_Driver/Src/stm32l4xx_hal_rtc_ex.c ****   * @param  hrtc RTC handle
1330:Drivers/STM32L4xx_HAL_Driver/Src/stm32l4xx_hal_rtc_ex.c ****   * @param  CalibOutput Select the Calibration output Selection .
1331:Drivers/STM32L4xx_HAL_Driver/Src/stm32l4xx_hal_rtc_ex.c ****   *          This parameter can be one of the following values:
1332:Drivers/STM32L4xx_HAL_Driver/Src/stm32l4xx_hal_rtc_ex.c ****   *             @arg RTC_CALIBOUTPUT_512HZ: A signal has a regular waveform at 512Hz.
1333:Drivers/STM32L4xx_HAL_Driver/Src/stm32l4xx_hal_rtc_ex.c ****   *             @arg RTC_CALIBOUTPUT_1HZ: A signal has a regular waveform at 1Hz.
1334:Drivers/STM32L4xx_HAL_Driver/Src/stm32l4xx_hal_rtc_ex.c ****   * @retval HAL status
1335:Drivers/STM32L4xx_HAL_Driver/Src/stm32l4xx_hal_rtc_ex.c ****   */
1336:Drivers/STM32L4xx_HAL_Driver/Src/stm32l4xx_hal_rtc_ex.c **** HAL_StatusTypeDef HAL_RTCEx_SetCalibrationOutPut(RTC_HandleTypeDef *hrtc, uint32_t CalibOutput)
1337:Drivers/STM32L4xx_HAL_Driver/Src/stm32l4xx_hal_rtc_ex.c **** {
 2142              		.loc 1 1337 1
 2143              		.cfi_startproc
 2144              		@ args = 0, pretend = 0, frame = 8
 2145              		@ frame_needed = 1, uses_anonymous_args = 0
 2146              		@ link register save eliminated.
 2147 0000 80B4     		push	{r7}
 2148              		.cfi_def_cfa_offset 4
 2149              		.cfi_offset 7, -4
 2150 0002 83B0     		sub	sp, sp, #12
 2151              		.cfi_def_cfa_offset 16
 2152 0004 00AF     		add	r7, sp, #0
 2153              		.cfi_def_cfa_register 7
 2154 0006 7860     		str	r0, [r7, #4]
 2155 0008 3960     		str	r1, [r7]
1338:Drivers/STM32L4xx_HAL_Driver/Src/stm32l4xx_hal_rtc_ex.c ****   /* Check the parameters */
1339:Drivers/STM32L4xx_HAL_Driver/Src/stm32l4xx_hal_rtc_ex.c ****   assert_param(IS_RTC_CALIB_OUTPUT(CalibOutput));
1340:Drivers/STM32L4xx_HAL_Driver/Src/stm32l4xx_hal_rtc_ex.c **** 
1341:Drivers/STM32L4xx_HAL_Driver/Src/stm32l4xx_hal_rtc_ex.c ****   /* Process Locked */
1342:Drivers/STM32L4xx_HAL_Driver/Src/stm32l4xx_hal_rtc_ex.c ****   __HAL_LOCK(hrtc);
ARM GAS  /tmp/cchDTGWe.s 			page 62


 2156              		.loc 1 1342 3
 2157 000a 7B68     		ldr	r3, [r7, #4]
 2158 000c 93F82030 		ldrb	r3, [r3, #32]	@ zero_extendqisi2
 2159 0010 012B     		cmp	r3, #1
 2160 0012 01D1     		bne	.L84
 2161              		.loc 1 1342 3 is_stmt 0 discriminator 1
 2162 0014 0223     		movs	r3, #2
 2163              		.loc 1 1342 3
 2164 0016 34E0     		b	.L85
 2165              	.L84:
 2166              		.loc 1 1342 3 discriminator 2
 2167 0018 7B68     		ldr	r3, [r7, #4]
 2168 001a 0122     		movs	r2, #1
 2169 001c 83F82020 		strb	r2, [r3, #32]
1343:Drivers/STM32L4xx_HAL_Driver/Src/stm32l4xx_hal_rtc_ex.c **** 
1344:Drivers/STM32L4xx_HAL_Driver/Src/stm32l4xx_hal_rtc_ex.c ****   hrtc->State = HAL_RTC_STATE_BUSY;
 2170              		.loc 1 1344 15 is_stmt 1
 2171 0020 7B68     		ldr	r3, [r7, #4]
 2172 0022 0222     		movs	r2, #2
 2173 0024 83F82120 		strb	r2, [r3, #33]
1345:Drivers/STM32L4xx_HAL_Driver/Src/stm32l4xx_hal_rtc_ex.c **** 
1346:Drivers/STM32L4xx_HAL_Driver/Src/stm32l4xx_hal_rtc_ex.c ****   /* Disable the write protection for RTC registers */
1347:Drivers/STM32L4xx_HAL_Driver/Src/stm32l4xx_hal_rtc_ex.c ****   __HAL_RTC_WRITEPROTECTION_DISABLE(hrtc);
 2174              		.loc 1 1347 3
 2175 0028 7B68     		ldr	r3, [r7, #4]
 2176 002a 1B68     		ldr	r3, [r3]
 2177 002c CA22     		movs	r2, #202
 2178 002e 5A62     		str	r2, [r3, #36]
 2179 0030 7B68     		ldr	r3, [r7, #4]
 2180 0032 1B68     		ldr	r3, [r3]
 2181 0034 5322     		movs	r2, #83
 2182 0036 5A62     		str	r2, [r3, #36]
1348:Drivers/STM32L4xx_HAL_Driver/Src/stm32l4xx_hal_rtc_ex.c **** 
1349:Drivers/STM32L4xx_HAL_Driver/Src/stm32l4xx_hal_rtc_ex.c ****   /* Clear flags before config */
1350:Drivers/STM32L4xx_HAL_Driver/Src/stm32l4xx_hal_rtc_ex.c ****   hrtc->Instance->CR &= (uint32_t)~RTC_CR_COSEL;
 2183              		.loc 1 1350 7
 2184 0038 7B68     		ldr	r3, [r7, #4]
 2185 003a 1B68     		ldr	r3, [r3]
 2186              		.loc 1 1350 17
 2187 003c 9A68     		ldr	r2, [r3, #8]
 2188              		.loc 1 1350 7
 2189 003e 7B68     		ldr	r3, [r7, #4]
 2190 0040 1B68     		ldr	r3, [r3]
 2191              		.loc 1 1350 22
 2192 0042 22F40022 		bic	r2, r2, #524288
 2193 0046 9A60     		str	r2, [r3, #8]
1351:Drivers/STM32L4xx_HAL_Driver/Src/stm32l4xx_hal_rtc_ex.c **** 
1352:Drivers/STM32L4xx_HAL_Driver/Src/stm32l4xx_hal_rtc_ex.c ****   /* Configure the RTC_CR register */
1353:Drivers/STM32L4xx_HAL_Driver/Src/stm32l4xx_hal_rtc_ex.c ****   hrtc->Instance->CR |= (uint32_t)CalibOutput;
 2194              		.loc 1 1353 7
 2195 0048 7B68     		ldr	r3, [r7, #4]
 2196 004a 1B68     		ldr	r3, [r3]
 2197              		.loc 1 1353 17
 2198 004c 9968     		ldr	r1, [r3, #8]
 2199              		.loc 1 1353 7
 2200 004e 7B68     		ldr	r3, [r7, #4]
 2201 0050 1B68     		ldr	r3, [r3]
ARM GAS  /tmp/cchDTGWe.s 			page 63


 2202              		.loc 1 1353 22
 2203 0052 3A68     		ldr	r2, [r7]
 2204 0054 0A43     		orrs	r2, r2, r1
 2205 0056 9A60     		str	r2, [r3, #8]
1354:Drivers/STM32L4xx_HAL_Driver/Src/stm32l4xx_hal_rtc_ex.c **** 
1355:Drivers/STM32L4xx_HAL_Driver/Src/stm32l4xx_hal_rtc_ex.c ****   __HAL_RTC_CALIBRATION_OUTPUT_ENABLE(hrtc);
 2206              		.loc 1 1355 3
 2207 0058 7B68     		ldr	r3, [r7, #4]
 2208 005a 1B68     		ldr	r3, [r3]
 2209 005c 9A68     		ldr	r2, [r3, #8]
 2210 005e 7B68     		ldr	r3, [r7, #4]
 2211 0060 1B68     		ldr	r3, [r3]
 2212 0062 42F40002 		orr	r2, r2, #8388608
 2213 0066 9A60     		str	r2, [r3, #8]
1356:Drivers/STM32L4xx_HAL_Driver/Src/stm32l4xx_hal_rtc_ex.c **** 
1357:Drivers/STM32L4xx_HAL_Driver/Src/stm32l4xx_hal_rtc_ex.c ****   /* Enable the write protection for RTC registers */
1358:Drivers/STM32L4xx_HAL_Driver/Src/stm32l4xx_hal_rtc_ex.c ****   __HAL_RTC_WRITEPROTECTION_ENABLE(hrtc);
 2214              		.loc 1 1358 3
 2215 0068 7B68     		ldr	r3, [r7, #4]
 2216 006a 1B68     		ldr	r3, [r3]
 2217 006c FF22     		movs	r2, #255
 2218 006e 5A62     		str	r2, [r3, #36]
1359:Drivers/STM32L4xx_HAL_Driver/Src/stm32l4xx_hal_rtc_ex.c **** 
1360:Drivers/STM32L4xx_HAL_Driver/Src/stm32l4xx_hal_rtc_ex.c ****   /* Change RTC state */
1361:Drivers/STM32L4xx_HAL_Driver/Src/stm32l4xx_hal_rtc_ex.c ****   hrtc->State = HAL_RTC_STATE_READY;
 2219              		.loc 1 1361 15
 2220 0070 7B68     		ldr	r3, [r7, #4]
 2221 0072 0122     		movs	r2, #1
 2222 0074 83F82120 		strb	r2, [r3, #33]
1362:Drivers/STM32L4xx_HAL_Driver/Src/stm32l4xx_hal_rtc_ex.c **** 
1363:Drivers/STM32L4xx_HAL_Driver/Src/stm32l4xx_hal_rtc_ex.c ****   /* Process Unlocked */
1364:Drivers/STM32L4xx_HAL_Driver/Src/stm32l4xx_hal_rtc_ex.c ****   __HAL_UNLOCK(hrtc);
 2223              		.loc 1 1364 3
 2224 0078 7B68     		ldr	r3, [r7, #4]
 2225 007a 0022     		movs	r2, #0
 2226 007c 83F82020 		strb	r2, [r3, #32]
1365:Drivers/STM32L4xx_HAL_Driver/Src/stm32l4xx_hal_rtc_ex.c **** 
1366:Drivers/STM32L4xx_HAL_Driver/Src/stm32l4xx_hal_rtc_ex.c ****   return HAL_OK;
 2227              		.loc 1 1366 10
 2228 0080 0023     		movs	r3, #0
 2229              	.L85:
1367:Drivers/STM32L4xx_HAL_Driver/Src/stm32l4xx_hal_rtc_ex.c **** }
 2230              		.loc 1 1367 1
 2231 0082 1846     		mov	r0, r3
 2232 0084 0C37     		adds	r7, r7, #12
 2233              		.cfi_def_cfa_offset 4
 2234 0086 BD46     		mov	sp, r7
 2235              		.cfi_def_cfa_register 13
 2236              		@ sp needed
 2237 0088 5DF8047B 		ldr	r7, [sp], #4
 2238              		.cfi_restore 7
 2239              		.cfi_def_cfa_offset 0
 2240 008c 7047     		bx	lr
 2241              		.cfi_endproc
 2242              	.LFE463:
 2244              		.section	.text.HAL_RTCEx_DeactivateCalibrationOutPut,"ax",%progbits
 2245              		.align	1
ARM GAS  /tmp/cchDTGWe.s 			page 64


 2246              		.global	HAL_RTCEx_DeactivateCalibrationOutPut
 2247              		.syntax unified
 2248              		.thumb
 2249              		.thumb_func
 2251              	HAL_RTCEx_DeactivateCalibrationOutPut:
 2252              	.LFB464:
1368:Drivers/STM32L4xx_HAL_Driver/Src/stm32l4xx_hal_rtc_ex.c **** 
1369:Drivers/STM32L4xx_HAL_Driver/Src/stm32l4xx_hal_rtc_ex.c **** /**
1370:Drivers/STM32L4xx_HAL_Driver/Src/stm32l4xx_hal_rtc_ex.c ****   * @brief  Deactivate the Calibration Pinout (RTC_CALIB) Selection (1Hz or 512Hz).
1371:Drivers/STM32L4xx_HAL_Driver/Src/stm32l4xx_hal_rtc_ex.c ****   * @param  hrtc RTC handle
1372:Drivers/STM32L4xx_HAL_Driver/Src/stm32l4xx_hal_rtc_ex.c ****   * @retval HAL status
1373:Drivers/STM32L4xx_HAL_Driver/Src/stm32l4xx_hal_rtc_ex.c ****   */
1374:Drivers/STM32L4xx_HAL_Driver/Src/stm32l4xx_hal_rtc_ex.c **** HAL_StatusTypeDef HAL_RTCEx_DeactivateCalibrationOutPut(RTC_HandleTypeDef *hrtc)
1375:Drivers/STM32L4xx_HAL_Driver/Src/stm32l4xx_hal_rtc_ex.c **** {
 2253              		.loc 1 1375 1
 2254              		.cfi_startproc
 2255              		@ args = 0, pretend = 0, frame = 8
 2256              		@ frame_needed = 1, uses_anonymous_args = 0
 2257              		@ link register save eliminated.
 2258 0000 80B4     		push	{r7}
 2259              		.cfi_def_cfa_offset 4
 2260              		.cfi_offset 7, -4
 2261 0002 83B0     		sub	sp, sp, #12
 2262              		.cfi_def_cfa_offset 16
 2263 0004 00AF     		add	r7, sp, #0
 2264              		.cfi_def_cfa_register 7
 2265 0006 7860     		str	r0, [r7, #4]
1376:Drivers/STM32L4xx_HAL_Driver/Src/stm32l4xx_hal_rtc_ex.c ****   /* Process Locked */
1377:Drivers/STM32L4xx_HAL_Driver/Src/stm32l4xx_hal_rtc_ex.c ****   __HAL_LOCK(hrtc);
 2266              		.loc 1 1377 3
 2267 0008 7B68     		ldr	r3, [r7, #4]
 2268 000a 93F82030 		ldrb	r3, [r3, #32]	@ zero_extendqisi2
 2269 000e 012B     		cmp	r3, #1
 2270 0010 01D1     		bne	.L87
 2271              		.loc 1 1377 3 is_stmt 0 discriminator 1
 2272 0012 0223     		movs	r3, #2
 2273              		.loc 1 1377 3
 2274 0014 24E0     		b	.L88
 2275              	.L87:
 2276              		.loc 1 1377 3 discriminator 2
 2277 0016 7B68     		ldr	r3, [r7, #4]
 2278 0018 0122     		movs	r2, #1
 2279 001a 83F82020 		strb	r2, [r3, #32]
1378:Drivers/STM32L4xx_HAL_Driver/Src/stm32l4xx_hal_rtc_ex.c **** 
1379:Drivers/STM32L4xx_HAL_Driver/Src/stm32l4xx_hal_rtc_ex.c ****   hrtc->State = HAL_RTC_STATE_BUSY;
 2280              		.loc 1 1379 15 is_stmt 1
 2281 001e 7B68     		ldr	r3, [r7, #4]
 2282 0020 0222     		movs	r2, #2
 2283 0022 83F82120 		strb	r2, [r3, #33]
1380:Drivers/STM32L4xx_HAL_Driver/Src/stm32l4xx_hal_rtc_ex.c **** 
1381:Drivers/STM32L4xx_HAL_Driver/Src/stm32l4xx_hal_rtc_ex.c ****   /* Disable the write protection for RTC registers */
1382:Drivers/STM32L4xx_HAL_Driver/Src/stm32l4xx_hal_rtc_ex.c ****   __HAL_RTC_WRITEPROTECTION_DISABLE(hrtc);
 2284              		.loc 1 1382 3
 2285 0026 7B68     		ldr	r3, [r7, #4]
 2286 0028 1B68     		ldr	r3, [r3]
 2287 002a CA22     		movs	r2, #202
 2288 002c 5A62     		str	r2, [r3, #36]
ARM GAS  /tmp/cchDTGWe.s 			page 65


 2289 002e 7B68     		ldr	r3, [r7, #4]
 2290 0030 1B68     		ldr	r3, [r3]
 2291 0032 5322     		movs	r2, #83
 2292 0034 5A62     		str	r2, [r3, #36]
1383:Drivers/STM32L4xx_HAL_Driver/Src/stm32l4xx_hal_rtc_ex.c **** 
1384:Drivers/STM32L4xx_HAL_Driver/Src/stm32l4xx_hal_rtc_ex.c ****   __HAL_RTC_CALIBRATION_OUTPUT_DISABLE(hrtc);
 2293              		.loc 1 1384 3
 2294 0036 7B68     		ldr	r3, [r7, #4]
 2295 0038 1B68     		ldr	r3, [r3]
 2296 003a 9A68     		ldr	r2, [r3, #8]
 2297 003c 7B68     		ldr	r3, [r7, #4]
 2298 003e 1B68     		ldr	r3, [r3]
 2299 0040 22F40002 		bic	r2, r2, #8388608
 2300 0044 9A60     		str	r2, [r3, #8]
1385:Drivers/STM32L4xx_HAL_Driver/Src/stm32l4xx_hal_rtc_ex.c **** 
1386:Drivers/STM32L4xx_HAL_Driver/Src/stm32l4xx_hal_rtc_ex.c ****   /* Enable the write protection for RTC registers */
1387:Drivers/STM32L4xx_HAL_Driver/Src/stm32l4xx_hal_rtc_ex.c ****   __HAL_RTC_WRITEPROTECTION_ENABLE(hrtc);
 2301              		.loc 1 1387 3
 2302 0046 7B68     		ldr	r3, [r7, #4]
 2303 0048 1B68     		ldr	r3, [r3]
 2304 004a FF22     		movs	r2, #255
 2305 004c 5A62     		str	r2, [r3, #36]
1388:Drivers/STM32L4xx_HAL_Driver/Src/stm32l4xx_hal_rtc_ex.c **** 
1389:Drivers/STM32L4xx_HAL_Driver/Src/stm32l4xx_hal_rtc_ex.c ****   /* Change RTC state */
1390:Drivers/STM32L4xx_HAL_Driver/Src/stm32l4xx_hal_rtc_ex.c ****   hrtc->State = HAL_RTC_STATE_READY;
 2306              		.loc 1 1390 15
 2307 004e 7B68     		ldr	r3, [r7, #4]
 2308 0050 0122     		movs	r2, #1
 2309 0052 83F82120 		strb	r2, [r3, #33]
1391:Drivers/STM32L4xx_HAL_Driver/Src/stm32l4xx_hal_rtc_ex.c **** 
1392:Drivers/STM32L4xx_HAL_Driver/Src/stm32l4xx_hal_rtc_ex.c ****   /* Process Unlocked */
1393:Drivers/STM32L4xx_HAL_Driver/Src/stm32l4xx_hal_rtc_ex.c ****   __HAL_UNLOCK(hrtc);
 2310              		.loc 1 1393 3
 2311 0056 7B68     		ldr	r3, [r7, #4]
 2312 0058 0022     		movs	r2, #0
 2313 005a 83F82020 		strb	r2, [r3, #32]
1394:Drivers/STM32L4xx_HAL_Driver/Src/stm32l4xx_hal_rtc_ex.c **** 
1395:Drivers/STM32L4xx_HAL_Driver/Src/stm32l4xx_hal_rtc_ex.c ****   return HAL_OK;
 2314              		.loc 1 1395 10
 2315 005e 0023     		movs	r3, #0
 2316              	.L88:
1396:Drivers/STM32L4xx_HAL_Driver/Src/stm32l4xx_hal_rtc_ex.c **** }
 2317              		.loc 1 1396 1
 2318 0060 1846     		mov	r0, r3
 2319 0062 0C37     		adds	r7, r7, #12
 2320              		.cfi_def_cfa_offset 4
 2321 0064 BD46     		mov	sp, r7
 2322              		.cfi_def_cfa_register 13
 2323              		@ sp needed
 2324 0066 5DF8047B 		ldr	r7, [sp], #4
 2325              		.cfi_restore 7
 2326              		.cfi_def_cfa_offset 0
 2327 006a 7047     		bx	lr
 2328              		.cfi_endproc
 2329              	.LFE464:
 2331              		.section	.text.HAL_RTCEx_SetRefClock,"ax",%progbits
 2332              		.align	1
ARM GAS  /tmp/cchDTGWe.s 			page 66


 2333              		.global	HAL_RTCEx_SetRefClock
 2334              		.syntax unified
 2335              		.thumb
 2336              		.thumb_func
 2338              	HAL_RTCEx_SetRefClock:
 2339              	.LFB465:
1397:Drivers/STM32L4xx_HAL_Driver/Src/stm32l4xx_hal_rtc_ex.c **** 
1398:Drivers/STM32L4xx_HAL_Driver/Src/stm32l4xx_hal_rtc_ex.c **** /**
1399:Drivers/STM32L4xx_HAL_Driver/Src/stm32l4xx_hal_rtc_ex.c ****   * @brief  Enable the RTC reference clock detection.
1400:Drivers/STM32L4xx_HAL_Driver/Src/stm32l4xx_hal_rtc_ex.c ****   * @param  hrtc RTC handle
1401:Drivers/STM32L4xx_HAL_Driver/Src/stm32l4xx_hal_rtc_ex.c ****   * @retval HAL status
1402:Drivers/STM32L4xx_HAL_Driver/Src/stm32l4xx_hal_rtc_ex.c ****   */
1403:Drivers/STM32L4xx_HAL_Driver/Src/stm32l4xx_hal_rtc_ex.c **** HAL_StatusTypeDef HAL_RTCEx_SetRefClock(RTC_HandleTypeDef *hrtc)
1404:Drivers/STM32L4xx_HAL_Driver/Src/stm32l4xx_hal_rtc_ex.c **** {
 2340              		.loc 1 1404 1
 2341              		.cfi_startproc
 2342              		@ args = 0, pretend = 0, frame = 16
 2343              		@ frame_needed = 1, uses_anonymous_args = 0
 2344 0000 80B5     		push	{r7, lr}
 2345              		.cfi_def_cfa_offset 8
 2346              		.cfi_offset 7, -8
 2347              		.cfi_offset 14, -4
 2348 0002 84B0     		sub	sp, sp, #16
 2349              		.cfi_def_cfa_offset 24
 2350 0004 00AF     		add	r7, sp, #0
 2351              		.cfi_def_cfa_register 7
 2352 0006 7860     		str	r0, [r7, #4]
1405:Drivers/STM32L4xx_HAL_Driver/Src/stm32l4xx_hal_rtc_ex.c ****   HAL_StatusTypeDef status;
1406:Drivers/STM32L4xx_HAL_Driver/Src/stm32l4xx_hal_rtc_ex.c **** 
1407:Drivers/STM32L4xx_HAL_Driver/Src/stm32l4xx_hal_rtc_ex.c ****   /* Process Locked */
1408:Drivers/STM32L4xx_HAL_Driver/Src/stm32l4xx_hal_rtc_ex.c ****   __HAL_LOCK(hrtc);
 2353              		.loc 1 1408 3
 2354 0008 7B68     		ldr	r3, [r7, #4]
 2355 000a 93F82030 		ldrb	r3, [r3, #32]	@ zero_extendqisi2
 2356 000e 012B     		cmp	r3, #1
 2357 0010 01D1     		bne	.L90
 2358              		.loc 1 1408 3 is_stmt 0 discriminator 1
 2359 0012 0223     		movs	r3, #2
 2360              		.loc 1 1408 3
 2361 0014 34E0     		b	.L91
 2362              	.L90:
 2363              		.loc 1 1408 3 discriminator 2
 2364 0016 7B68     		ldr	r3, [r7, #4]
 2365 0018 0122     		movs	r2, #1
 2366 001a 83F82020 		strb	r2, [r3, #32]
1409:Drivers/STM32L4xx_HAL_Driver/Src/stm32l4xx_hal_rtc_ex.c **** 
1410:Drivers/STM32L4xx_HAL_Driver/Src/stm32l4xx_hal_rtc_ex.c ****   hrtc->State = HAL_RTC_STATE_BUSY;
 2367              		.loc 1 1410 15 is_stmt 1
 2368 001e 7B68     		ldr	r3, [r7, #4]
 2369 0020 0222     		movs	r2, #2
 2370 0022 83F82120 		strb	r2, [r3, #33]
1411:Drivers/STM32L4xx_HAL_Driver/Src/stm32l4xx_hal_rtc_ex.c **** 
1412:Drivers/STM32L4xx_HAL_Driver/Src/stm32l4xx_hal_rtc_ex.c ****   /* Disable the write protection for RTC registers */
1413:Drivers/STM32L4xx_HAL_Driver/Src/stm32l4xx_hal_rtc_ex.c ****   __HAL_RTC_WRITEPROTECTION_DISABLE(hrtc);
 2371              		.loc 1 1413 3
 2372 0026 7B68     		ldr	r3, [r7, #4]
 2373 0028 1B68     		ldr	r3, [r3]
ARM GAS  /tmp/cchDTGWe.s 			page 67


 2374 002a CA22     		movs	r2, #202
 2375 002c 5A62     		str	r2, [r3, #36]
 2376 002e 7B68     		ldr	r3, [r7, #4]
 2377 0030 1B68     		ldr	r3, [r3]
 2378 0032 5322     		movs	r2, #83
 2379 0034 5A62     		str	r2, [r3, #36]
1414:Drivers/STM32L4xx_HAL_Driver/Src/stm32l4xx_hal_rtc_ex.c **** 
1415:Drivers/STM32L4xx_HAL_Driver/Src/stm32l4xx_hal_rtc_ex.c ****   /* Enter Initialization mode */
1416:Drivers/STM32L4xx_HAL_Driver/Src/stm32l4xx_hal_rtc_ex.c ****   status = RTC_EnterInitMode(hrtc);
 2380              		.loc 1 1416 12
 2381 0036 7868     		ldr	r0, [r7, #4]
 2382 0038 FFF7FEFF 		bl	RTC_EnterInitMode
 2383 003c 0346     		mov	r3, r0
 2384 003e FB73     		strb	r3, [r7, #15]
1417:Drivers/STM32L4xx_HAL_Driver/Src/stm32l4xx_hal_rtc_ex.c ****   if (status == HAL_OK)
 2385              		.loc 1 1417 6
 2386 0040 FB7B     		ldrb	r3, [r7, #15]	@ zero_extendqisi2
 2387 0042 002B     		cmp	r3, #0
 2388 0044 0CD1     		bne	.L92
1418:Drivers/STM32L4xx_HAL_Driver/Src/stm32l4xx_hal_rtc_ex.c ****   {
1419:Drivers/STM32L4xx_HAL_Driver/Src/stm32l4xx_hal_rtc_ex.c ****     __HAL_RTC_CLOCKREF_DETECTION_ENABLE(hrtc);
 2389              		.loc 1 1419 5
 2390 0046 7B68     		ldr	r3, [r7, #4]
 2391 0048 1B68     		ldr	r3, [r3]
 2392 004a 9A68     		ldr	r2, [r3, #8]
 2393 004c 7B68     		ldr	r3, [r7, #4]
 2394 004e 1B68     		ldr	r3, [r3]
 2395 0050 42F01002 		orr	r2, r2, #16
 2396 0054 9A60     		str	r2, [r3, #8]
1420:Drivers/STM32L4xx_HAL_Driver/Src/stm32l4xx_hal_rtc_ex.c **** 
1421:Drivers/STM32L4xx_HAL_Driver/Src/stm32l4xx_hal_rtc_ex.c ****     /* Exit Initialization mode */
1422:Drivers/STM32L4xx_HAL_Driver/Src/stm32l4xx_hal_rtc_ex.c ****     status = RTC_ExitInitMode(hrtc);
 2397              		.loc 1 1422 14
 2398 0056 7868     		ldr	r0, [r7, #4]
 2399 0058 FFF7FEFF 		bl	RTC_ExitInitMode
 2400 005c 0346     		mov	r3, r0
 2401 005e FB73     		strb	r3, [r7, #15]
 2402              	.L92:
1423:Drivers/STM32L4xx_HAL_Driver/Src/stm32l4xx_hal_rtc_ex.c ****   }
1424:Drivers/STM32L4xx_HAL_Driver/Src/stm32l4xx_hal_rtc_ex.c **** 
1425:Drivers/STM32L4xx_HAL_Driver/Src/stm32l4xx_hal_rtc_ex.c ****   /* Enable the write protection for RTC registers */
1426:Drivers/STM32L4xx_HAL_Driver/Src/stm32l4xx_hal_rtc_ex.c ****   __HAL_RTC_WRITEPROTECTION_ENABLE(hrtc);
 2403              		.loc 1 1426 3
 2404 0060 7B68     		ldr	r3, [r7, #4]
 2405 0062 1B68     		ldr	r3, [r3]
 2406 0064 FF22     		movs	r2, #255
 2407 0066 5A62     		str	r2, [r3, #36]
1427:Drivers/STM32L4xx_HAL_Driver/Src/stm32l4xx_hal_rtc_ex.c **** 
1428:Drivers/STM32L4xx_HAL_Driver/Src/stm32l4xx_hal_rtc_ex.c ****   if (status == HAL_OK)
 2408              		.loc 1 1428 6
 2409 0068 FB7B     		ldrb	r3, [r7, #15]	@ zero_extendqisi2
 2410 006a 002B     		cmp	r3, #0
 2411 006c 03D1     		bne	.L93
1429:Drivers/STM32L4xx_HAL_Driver/Src/stm32l4xx_hal_rtc_ex.c ****   {
1430:Drivers/STM32L4xx_HAL_Driver/Src/stm32l4xx_hal_rtc_ex.c ****     hrtc->State = HAL_RTC_STATE_READY;
 2412              		.loc 1 1430 17
 2413 006e 7B68     		ldr	r3, [r7, #4]
ARM GAS  /tmp/cchDTGWe.s 			page 68


 2414 0070 0122     		movs	r2, #1
 2415 0072 83F82120 		strb	r2, [r3, #33]
 2416              	.L93:
1431:Drivers/STM32L4xx_HAL_Driver/Src/stm32l4xx_hal_rtc_ex.c ****   }
1432:Drivers/STM32L4xx_HAL_Driver/Src/stm32l4xx_hal_rtc_ex.c **** 
1433:Drivers/STM32L4xx_HAL_Driver/Src/stm32l4xx_hal_rtc_ex.c ****   /* Process Unlocked */
1434:Drivers/STM32L4xx_HAL_Driver/Src/stm32l4xx_hal_rtc_ex.c ****   __HAL_UNLOCK(hrtc);
 2417              		.loc 1 1434 3
 2418 0076 7B68     		ldr	r3, [r7, #4]
 2419 0078 0022     		movs	r2, #0
 2420 007a 83F82020 		strb	r2, [r3, #32]
1435:Drivers/STM32L4xx_HAL_Driver/Src/stm32l4xx_hal_rtc_ex.c **** 
1436:Drivers/STM32L4xx_HAL_Driver/Src/stm32l4xx_hal_rtc_ex.c ****   return status;
 2421              		.loc 1 1436 10
 2422 007e FB7B     		ldrb	r3, [r7, #15]	@ zero_extendqisi2
 2423              	.L91:
1437:Drivers/STM32L4xx_HAL_Driver/Src/stm32l4xx_hal_rtc_ex.c **** }
 2424              		.loc 1 1437 1
 2425 0080 1846     		mov	r0, r3
 2426 0082 1037     		adds	r7, r7, #16
 2427              		.cfi_def_cfa_offset 8
 2428 0084 BD46     		mov	sp, r7
 2429              		.cfi_def_cfa_register 13
 2430              		@ sp needed
 2431 0086 80BD     		pop	{r7, pc}
 2432              		.cfi_endproc
 2433              	.LFE465:
 2435              		.section	.text.HAL_RTCEx_DeactivateRefClock,"ax",%progbits
 2436              		.align	1
 2437              		.global	HAL_RTCEx_DeactivateRefClock
 2438              		.syntax unified
 2439              		.thumb
 2440              		.thumb_func
 2442              	HAL_RTCEx_DeactivateRefClock:
 2443              	.LFB466:
1438:Drivers/STM32L4xx_HAL_Driver/Src/stm32l4xx_hal_rtc_ex.c **** 
1439:Drivers/STM32L4xx_HAL_Driver/Src/stm32l4xx_hal_rtc_ex.c **** /**
1440:Drivers/STM32L4xx_HAL_Driver/Src/stm32l4xx_hal_rtc_ex.c ****   * @brief  Disable the RTC reference clock detection.
1441:Drivers/STM32L4xx_HAL_Driver/Src/stm32l4xx_hal_rtc_ex.c ****   * @param  hrtc RTC handle
1442:Drivers/STM32L4xx_HAL_Driver/Src/stm32l4xx_hal_rtc_ex.c ****   * @retval HAL status
1443:Drivers/STM32L4xx_HAL_Driver/Src/stm32l4xx_hal_rtc_ex.c ****   */
1444:Drivers/STM32L4xx_HAL_Driver/Src/stm32l4xx_hal_rtc_ex.c **** HAL_StatusTypeDef HAL_RTCEx_DeactivateRefClock(RTC_HandleTypeDef *hrtc)
1445:Drivers/STM32L4xx_HAL_Driver/Src/stm32l4xx_hal_rtc_ex.c **** {
 2444              		.loc 1 1445 1
 2445              		.cfi_startproc
 2446              		@ args = 0, pretend = 0, frame = 16
 2447              		@ frame_needed = 1, uses_anonymous_args = 0
 2448 0000 80B5     		push	{r7, lr}
 2449              		.cfi_def_cfa_offset 8
 2450              		.cfi_offset 7, -8
 2451              		.cfi_offset 14, -4
 2452 0002 84B0     		sub	sp, sp, #16
 2453              		.cfi_def_cfa_offset 24
 2454 0004 00AF     		add	r7, sp, #0
 2455              		.cfi_def_cfa_register 7
 2456 0006 7860     		str	r0, [r7, #4]
1446:Drivers/STM32L4xx_HAL_Driver/Src/stm32l4xx_hal_rtc_ex.c ****   HAL_StatusTypeDef status;
ARM GAS  /tmp/cchDTGWe.s 			page 69


1447:Drivers/STM32L4xx_HAL_Driver/Src/stm32l4xx_hal_rtc_ex.c **** 
1448:Drivers/STM32L4xx_HAL_Driver/Src/stm32l4xx_hal_rtc_ex.c ****   /* Process Locked */
1449:Drivers/STM32L4xx_HAL_Driver/Src/stm32l4xx_hal_rtc_ex.c ****   __HAL_LOCK(hrtc);
 2457              		.loc 1 1449 3
 2458 0008 7B68     		ldr	r3, [r7, #4]
 2459 000a 93F82030 		ldrb	r3, [r3, #32]	@ zero_extendqisi2
 2460 000e 012B     		cmp	r3, #1
 2461 0010 01D1     		bne	.L95
 2462              		.loc 1 1449 3 is_stmt 0 discriminator 1
 2463 0012 0223     		movs	r3, #2
 2464              		.loc 1 1449 3
 2465 0014 34E0     		b	.L96
 2466              	.L95:
 2467              		.loc 1 1449 3 discriminator 2
 2468 0016 7B68     		ldr	r3, [r7, #4]
 2469 0018 0122     		movs	r2, #1
 2470 001a 83F82020 		strb	r2, [r3, #32]
1450:Drivers/STM32L4xx_HAL_Driver/Src/stm32l4xx_hal_rtc_ex.c **** 
1451:Drivers/STM32L4xx_HAL_Driver/Src/stm32l4xx_hal_rtc_ex.c ****   hrtc->State = HAL_RTC_STATE_BUSY;
 2471              		.loc 1 1451 15 is_stmt 1
 2472 001e 7B68     		ldr	r3, [r7, #4]
 2473 0020 0222     		movs	r2, #2
 2474 0022 83F82120 		strb	r2, [r3, #33]
1452:Drivers/STM32L4xx_HAL_Driver/Src/stm32l4xx_hal_rtc_ex.c **** 
1453:Drivers/STM32L4xx_HAL_Driver/Src/stm32l4xx_hal_rtc_ex.c ****   /* Disable the write protection for RTC registers */
1454:Drivers/STM32L4xx_HAL_Driver/Src/stm32l4xx_hal_rtc_ex.c ****   __HAL_RTC_WRITEPROTECTION_DISABLE(hrtc);
 2475              		.loc 1 1454 3
 2476 0026 7B68     		ldr	r3, [r7, #4]
 2477 0028 1B68     		ldr	r3, [r3]
 2478 002a CA22     		movs	r2, #202
 2479 002c 5A62     		str	r2, [r3, #36]
 2480 002e 7B68     		ldr	r3, [r7, #4]
 2481 0030 1B68     		ldr	r3, [r3]
 2482 0032 5322     		movs	r2, #83
 2483 0034 5A62     		str	r2, [r3, #36]
1455:Drivers/STM32L4xx_HAL_Driver/Src/stm32l4xx_hal_rtc_ex.c **** 
1456:Drivers/STM32L4xx_HAL_Driver/Src/stm32l4xx_hal_rtc_ex.c ****   /* Enter Initialization mode */
1457:Drivers/STM32L4xx_HAL_Driver/Src/stm32l4xx_hal_rtc_ex.c ****   status = RTC_EnterInitMode(hrtc);
 2484              		.loc 1 1457 12
 2485 0036 7868     		ldr	r0, [r7, #4]
 2486 0038 FFF7FEFF 		bl	RTC_EnterInitMode
 2487 003c 0346     		mov	r3, r0
 2488 003e FB73     		strb	r3, [r7, #15]
1458:Drivers/STM32L4xx_HAL_Driver/Src/stm32l4xx_hal_rtc_ex.c ****   if (status == HAL_OK)
 2489              		.loc 1 1458 6
 2490 0040 FB7B     		ldrb	r3, [r7, #15]	@ zero_extendqisi2
 2491 0042 002B     		cmp	r3, #0
 2492 0044 0CD1     		bne	.L97
1459:Drivers/STM32L4xx_HAL_Driver/Src/stm32l4xx_hal_rtc_ex.c ****   {
1460:Drivers/STM32L4xx_HAL_Driver/Src/stm32l4xx_hal_rtc_ex.c ****     __HAL_RTC_CLOCKREF_DETECTION_DISABLE(hrtc);
 2493              		.loc 1 1460 5
 2494 0046 7B68     		ldr	r3, [r7, #4]
 2495 0048 1B68     		ldr	r3, [r3]
 2496 004a 9A68     		ldr	r2, [r3, #8]
 2497 004c 7B68     		ldr	r3, [r7, #4]
 2498 004e 1B68     		ldr	r3, [r3]
 2499 0050 22F01002 		bic	r2, r2, #16
ARM GAS  /tmp/cchDTGWe.s 			page 70


 2500 0054 9A60     		str	r2, [r3, #8]
1461:Drivers/STM32L4xx_HAL_Driver/Src/stm32l4xx_hal_rtc_ex.c **** 
1462:Drivers/STM32L4xx_HAL_Driver/Src/stm32l4xx_hal_rtc_ex.c ****     /* Exit Initialization mode */
1463:Drivers/STM32L4xx_HAL_Driver/Src/stm32l4xx_hal_rtc_ex.c ****     status = RTC_ExitInitMode(hrtc);
 2501              		.loc 1 1463 14
 2502 0056 7868     		ldr	r0, [r7, #4]
 2503 0058 FFF7FEFF 		bl	RTC_ExitInitMode
 2504 005c 0346     		mov	r3, r0
 2505 005e FB73     		strb	r3, [r7, #15]
 2506              	.L97:
1464:Drivers/STM32L4xx_HAL_Driver/Src/stm32l4xx_hal_rtc_ex.c ****   }
1465:Drivers/STM32L4xx_HAL_Driver/Src/stm32l4xx_hal_rtc_ex.c **** 
1466:Drivers/STM32L4xx_HAL_Driver/Src/stm32l4xx_hal_rtc_ex.c ****   /* Enable the write protection for RTC registers */
1467:Drivers/STM32L4xx_HAL_Driver/Src/stm32l4xx_hal_rtc_ex.c ****   __HAL_RTC_WRITEPROTECTION_ENABLE(hrtc);
 2507              		.loc 1 1467 3
 2508 0060 7B68     		ldr	r3, [r7, #4]
 2509 0062 1B68     		ldr	r3, [r3]
 2510 0064 FF22     		movs	r2, #255
 2511 0066 5A62     		str	r2, [r3, #36]
1468:Drivers/STM32L4xx_HAL_Driver/Src/stm32l4xx_hal_rtc_ex.c **** 
1469:Drivers/STM32L4xx_HAL_Driver/Src/stm32l4xx_hal_rtc_ex.c ****   if (status == HAL_OK)
 2512              		.loc 1 1469 6
 2513 0068 FB7B     		ldrb	r3, [r7, #15]	@ zero_extendqisi2
 2514 006a 002B     		cmp	r3, #0
 2515 006c 03D1     		bne	.L98
1470:Drivers/STM32L4xx_HAL_Driver/Src/stm32l4xx_hal_rtc_ex.c ****   {
1471:Drivers/STM32L4xx_HAL_Driver/Src/stm32l4xx_hal_rtc_ex.c ****     hrtc->State = HAL_RTC_STATE_READY;
 2516              		.loc 1 1471 17
 2517 006e 7B68     		ldr	r3, [r7, #4]
 2518 0070 0122     		movs	r2, #1
 2519 0072 83F82120 		strb	r2, [r3, #33]
 2520              	.L98:
1472:Drivers/STM32L4xx_HAL_Driver/Src/stm32l4xx_hal_rtc_ex.c ****   }
1473:Drivers/STM32L4xx_HAL_Driver/Src/stm32l4xx_hal_rtc_ex.c **** 
1474:Drivers/STM32L4xx_HAL_Driver/Src/stm32l4xx_hal_rtc_ex.c ****   /* Process Unlocked */
1475:Drivers/STM32L4xx_HAL_Driver/Src/stm32l4xx_hal_rtc_ex.c ****   __HAL_UNLOCK(hrtc);
 2521              		.loc 1 1475 3
 2522 0076 7B68     		ldr	r3, [r7, #4]
 2523 0078 0022     		movs	r2, #0
 2524 007a 83F82020 		strb	r2, [r3, #32]
1476:Drivers/STM32L4xx_HAL_Driver/Src/stm32l4xx_hal_rtc_ex.c **** 
1477:Drivers/STM32L4xx_HAL_Driver/Src/stm32l4xx_hal_rtc_ex.c ****   return status;
 2525              		.loc 1 1477 10
 2526 007e FB7B     		ldrb	r3, [r7, #15]	@ zero_extendqisi2
 2527              	.L96:
1478:Drivers/STM32L4xx_HAL_Driver/Src/stm32l4xx_hal_rtc_ex.c **** }
 2528              		.loc 1 1478 1
 2529 0080 1846     		mov	r0, r3
 2530 0082 1037     		adds	r7, r7, #16
 2531              		.cfi_def_cfa_offset 8
 2532 0084 BD46     		mov	sp, r7
 2533              		.cfi_def_cfa_register 13
 2534              		@ sp needed
 2535 0086 80BD     		pop	{r7, pc}
 2536              		.cfi_endproc
 2537              	.LFE466:
 2539              		.section	.text.HAL_RTCEx_EnableBypassShadow,"ax",%progbits
ARM GAS  /tmp/cchDTGWe.s 			page 71


 2540              		.align	1
 2541              		.global	HAL_RTCEx_EnableBypassShadow
 2542              		.syntax unified
 2543              		.thumb
 2544              		.thumb_func
 2546              	HAL_RTCEx_EnableBypassShadow:
 2547              	.LFB467:
1479:Drivers/STM32L4xx_HAL_Driver/Src/stm32l4xx_hal_rtc_ex.c **** 
1480:Drivers/STM32L4xx_HAL_Driver/Src/stm32l4xx_hal_rtc_ex.c **** /**
1481:Drivers/STM32L4xx_HAL_Driver/Src/stm32l4xx_hal_rtc_ex.c ****   * @brief  Enable the Bypass Shadow feature.
1482:Drivers/STM32L4xx_HAL_Driver/Src/stm32l4xx_hal_rtc_ex.c ****   * @note   When the Bypass Shadow is enabled the calendar value are taken
1483:Drivers/STM32L4xx_HAL_Driver/Src/stm32l4xx_hal_rtc_ex.c ****   *         directly from the Calendar counter.
1484:Drivers/STM32L4xx_HAL_Driver/Src/stm32l4xx_hal_rtc_ex.c ****   * @param  hrtc RTC handle
1485:Drivers/STM32L4xx_HAL_Driver/Src/stm32l4xx_hal_rtc_ex.c ****   * @retval HAL status
1486:Drivers/STM32L4xx_HAL_Driver/Src/stm32l4xx_hal_rtc_ex.c ****   */
1487:Drivers/STM32L4xx_HAL_Driver/Src/stm32l4xx_hal_rtc_ex.c **** HAL_StatusTypeDef HAL_RTCEx_EnableBypassShadow(RTC_HandleTypeDef *hrtc)
1488:Drivers/STM32L4xx_HAL_Driver/Src/stm32l4xx_hal_rtc_ex.c **** {
 2548              		.loc 1 1488 1
 2549              		.cfi_startproc
 2550              		@ args = 0, pretend = 0, frame = 8
 2551              		@ frame_needed = 1, uses_anonymous_args = 0
 2552              		@ link register save eliminated.
 2553 0000 80B4     		push	{r7}
 2554              		.cfi_def_cfa_offset 4
 2555              		.cfi_offset 7, -4
 2556 0002 83B0     		sub	sp, sp, #12
 2557              		.cfi_def_cfa_offset 16
 2558 0004 00AF     		add	r7, sp, #0
 2559              		.cfi_def_cfa_register 7
 2560 0006 7860     		str	r0, [r7, #4]
1489:Drivers/STM32L4xx_HAL_Driver/Src/stm32l4xx_hal_rtc_ex.c ****   /* Process Locked */
1490:Drivers/STM32L4xx_HAL_Driver/Src/stm32l4xx_hal_rtc_ex.c ****   __HAL_LOCK(hrtc);
 2561              		.loc 1 1490 3
 2562 0008 7B68     		ldr	r3, [r7, #4]
 2563 000a 93F82030 		ldrb	r3, [r3, #32]	@ zero_extendqisi2
 2564 000e 012B     		cmp	r3, #1
 2565 0010 01D1     		bne	.L100
 2566              		.loc 1 1490 3 is_stmt 0 discriminator 1
 2567 0012 0223     		movs	r3, #2
 2568              		.loc 1 1490 3
 2569 0014 24E0     		b	.L101
 2570              	.L100:
 2571              		.loc 1 1490 3 discriminator 2
 2572 0016 7B68     		ldr	r3, [r7, #4]
 2573 0018 0122     		movs	r2, #1
 2574 001a 83F82020 		strb	r2, [r3, #32]
1491:Drivers/STM32L4xx_HAL_Driver/Src/stm32l4xx_hal_rtc_ex.c **** 
1492:Drivers/STM32L4xx_HAL_Driver/Src/stm32l4xx_hal_rtc_ex.c ****   hrtc->State = HAL_RTC_STATE_BUSY;
 2575              		.loc 1 1492 15 is_stmt 1
 2576 001e 7B68     		ldr	r3, [r7, #4]
 2577 0020 0222     		movs	r2, #2
 2578 0022 83F82120 		strb	r2, [r3, #33]
1493:Drivers/STM32L4xx_HAL_Driver/Src/stm32l4xx_hal_rtc_ex.c **** 
1494:Drivers/STM32L4xx_HAL_Driver/Src/stm32l4xx_hal_rtc_ex.c ****   /* Disable the write protection for RTC registers */
1495:Drivers/STM32L4xx_HAL_Driver/Src/stm32l4xx_hal_rtc_ex.c ****   __HAL_RTC_WRITEPROTECTION_DISABLE(hrtc);
 2579              		.loc 1 1495 3
 2580 0026 7B68     		ldr	r3, [r7, #4]
ARM GAS  /tmp/cchDTGWe.s 			page 72


 2581 0028 1B68     		ldr	r3, [r3]
 2582 002a CA22     		movs	r2, #202
 2583 002c 5A62     		str	r2, [r3, #36]
 2584 002e 7B68     		ldr	r3, [r7, #4]
 2585 0030 1B68     		ldr	r3, [r3]
 2586 0032 5322     		movs	r2, #83
 2587 0034 5A62     		str	r2, [r3, #36]
1496:Drivers/STM32L4xx_HAL_Driver/Src/stm32l4xx_hal_rtc_ex.c **** 
1497:Drivers/STM32L4xx_HAL_Driver/Src/stm32l4xx_hal_rtc_ex.c ****   /* Set the BYPSHAD bit */
1498:Drivers/STM32L4xx_HAL_Driver/Src/stm32l4xx_hal_rtc_ex.c ****   SET_BIT(hrtc->Instance->CR, RTC_CR_BYPSHAD);
 2588              		.loc 1 1498 3
 2589 0036 7B68     		ldr	r3, [r7, #4]
 2590 0038 1B68     		ldr	r3, [r3]
 2591 003a 9A68     		ldr	r2, [r3, #8]
 2592 003c 7B68     		ldr	r3, [r7, #4]
 2593 003e 1B68     		ldr	r3, [r3]
 2594 0040 42F02002 		orr	r2, r2, #32
 2595 0044 9A60     		str	r2, [r3, #8]
1499:Drivers/STM32L4xx_HAL_Driver/Src/stm32l4xx_hal_rtc_ex.c **** 
1500:Drivers/STM32L4xx_HAL_Driver/Src/stm32l4xx_hal_rtc_ex.c ****   /* Enable the write protection for RTC registers */
1501:Drivers/STM32L4xx_HAL_Driver/Src/stm32l4xx_hal_rtc_ex.c ****   __HAL_RTC_WRITEPROTECTION_ENABLE(hrtc);
 2596              		.loc 1 1501 3
 2597 0046 7B68     		ldr	r3, [r7, #4]
 2598 0048 1B68     		ldr	r3, [r3]
 2599 004a FF22     		movs	r2, #255
 2600 004c 5A62     		str	r2, [r3, #36]
1502:Drivers/STM32L4xx_HAL_Driver/Src/stm32l4xx_hal_rtc_ex.c **** 
1503:Drivers/STM32L4xx_HAL_Driver/Src/stm32l4xx_hal_rtc_ex.c ****   /* Change RTC state */
1504:Drivers/STM32L4xx_HAL_Driver/Src/stm32l4xx_hal_rtc_ex.c ****   hrtc->State = HAL_RTC_STATE_READY;
 2601              		.loc 1 1504 15
 2602 004e 7B68     		ldr	r3, [r7, #4]
 2603 0050 0122     		movs	r2, #1
 2604 0052 83F82120 		strb	r2, [r3, #33]
1505:Drivers/STM32L4xx_HAL_Driver/Src/stm32l4xx_hal_rtc_ex.c **** 
1506:Drivers/STM32L4xx_HAL_Driver/Src/stm32l4xx_hal_rtc_ex.c ****   /* Process Unlocked */
1507:Drivers/STM32L4xx_HAL_Driver/Src/stm32l4xx_hal_rtc_ex.c ****   __HAL_UNLOCK(hrtc);
 2605              		.loc 1 1507 3
 2606 0056 7B68     		ldr	r3, [r7, #4]
 2607 0058 0022     		movs	r2, #0
 2608 005a 83F82020 		strb	r2, [r3, #32]
1508:Drivers/STM32L4xx_HAL_Driver/Src/stm32l4xx_hal_rtc_ex.c **** 
1509:Drivers/STM32L4xx_HAL_Driver/Src/stm32l4xx_hal_rtc_ex.c ****   return HAL_OK;
 2609              		.loc 1 1509 10
 2610 005e 0023     		movs	r3, #0
 2611              	.L101:
1510:Drivers/STM32L4xx_HAL_Driver/Src/stm32l4xx_hal_rtc_ex.c **** }
 2612              		.loc 1 1510 1
 2613 0060 1846     		mov	r0, r3
 2614 0062 0C37     		adds	r7, r7, #12
 2615              		.cfi_def_cfa_offset 4
 2616 0064 BD46     		mov	sp, r7
 2617              		.cfi_def_cfa_register 13
 2618              		@ sp needed
 2619 0066 5DF8047B 		ldr	r7, [sp], #4
 2620              		.cfi_restore 7
 2621              		.cfi_def_cfa_offset 0
 2622 006a 7047     		bx	lr
ARM GAS  /tmp/cchDTGWe.s 			page 73


 2623              		.cfi_endproc
 2624              	.LFE467:
 2626              		.section	.text.HAL_RTCEx_DisableBypassShadow,"ax",%progbits
 2627              		.align	1
 2628              		.global	HAL_RTCEx_DisableBypassShadow
 2629              		.syntax unified
 2630              		.thumb
 2631              		.thumb_func
 2633              	HAL_RTCEx_DisableBypassShadow:
 2634              	.LFB468:
1511:Drivers/STM32L4xx_HAL_Driver/Src/stm32l4xx_hal_rtc_ex.c **** 
1512:Drivers/STM32L4xx_HAL_Driver/Src/stm32l4xx_hal_rtc_ex.c **** /**
1513:Drivers/STM32L4xx_HAL_Driver/Src/stm32l4xx_hal_rtc_ex.c ****   * @brief  Disable the Bypass Shadow feature.
1514:Drivers/STM32L4xx_HAL_Driver/Src/stm32l4xx_hal_rtc_ex.c ****   * @note   When the Bypass Shadow is enabled the calendar value are taken
1515:Drivers/STM32L4xx_HAL_Driver/Src/stm32l4xx_hal_rtc_ex.c ****   *         directly from the Calendar counter.
1516:Drivers/STM32L4xx_HAL_Driver/Src/stm32l4xx_hal_rtc_ex.c ****   * @param  hrtc RTC handle
1517:Drivers/STM32L4xx_HAL_Driver/Src/stm32l4xx_hal_rtc_ex.c ****   * @retval HAL status
1518:Drivers/STM32L4xx_HAL_Driver/Src/stm32l4xx_hal_rtc_ex.c ****   */
1519:Drivers/STM32L4xx_HAL_Driver/Src/stm32l4xx_hal_rtc_ex.c **** HAL_StatusTypeDef HAL_RTCEx_DisableBypassShadow(RTC_HandleTypeDef *hrtc)
1520:Drivers/STM32L4xx_HAL_Driver/Src/stm32l4xx_hal_rtc_ex.c **** {
 2635              		.loc 1 1520 1
 2636              		.cfi_startproc
 2637              		@ args = 0, pretend = 0, frame = 8
 2638              		@ frame_needed = 1, uses_anonymous_args = 0
 2639              		@ link register save eliminated.
 2640 0000 80B4     		push	{r7}
 2641              		.cfi_def_cfa_offset 4
 2642              		.cfi_offset 7, -4
 2643 0002 83B0     		sub	sp, sp, #12
 2644              		.cfi_def_cfa_offset 16
 2645 0004 00AF     		add	r7, sp, #0
 2646              		.cfi_def_cfa_register 7
 2647 0006 7860     		str	r0, [r7, #4]
1521:Drivers/STM32L4xx_HAL_Driver/Src/stm32l4xx_hal_rtc_ex.c ****   /* Process Locked */
1522:Drivers/STM32L4xx_HAL_Driver/Src/stm32l4xx_hal_rtc_ex.c ****   __HAL_LOCK(hrtc);
 2648              		.loc 1 1522 3
 2649 0008 7B68     		ldr	r3, [r7, #4]
 2650 000a 93F82030 		ldrb	r3, [r3, #32]	@ zero_extendqisi2
 2651 000e 012B     		cmp	r3, #1
 2652 0010 01D1     		bne	.L103
 2653              		.loc 1 1522 3 is_stmt 0 discriminator 1
 2654 0012 0223     		movs	r3, #2
 2655              		.loc 1 1522 3
 2656 0014 22E0     		b	.L104
 2657              	.L103:
 2658              		.loc 1 1522 3 discriminator 2
 2659 0016 7B68     		ldr	r3, [r7, #4]
 2660 0018 0122     		movs	r2, #1
 2661 001a 83F82020 		strb	r2, [r3, #32]
1523:Drivers/STM32L4xx_HAL_Driver/Src/stm32l4xx_hal_rtc_ex.c **** 
1524:Drivers/STM32L4xx_HAL_Driver/Src/stm32l4xx_hal_rtc_ex.c ****   hrtc->State = HAL_RTC_STATE_BUSY;
 2662              		.loc 1 1524 15 is_stmt 1
 2663 001e 7B68     		ldr	r3, [r7, #4]
 2664 0020 0222     		movs	r2, #2
 2665 0022 83F82120 		strb	r2, [r3, #33]
1525:Drivers/STM32L4xx_HAL_Driver/Src/stm32l4xx_hal_rtc_ex.c **** 
1526:Drivers/STM32L4xx_HAL_Driver/Src/stm32l4xx_hal_rtc_ex.c ****   /* Disable the write protection for RTC registers */
ARM GAS  /tmp/cchDTGWe.s 			page 74


1527:Drivers/STM32L4xx_HAL_Driver/Src/stm32l4xx_hal_rtc_ex.c ****   __HAL_RTC_WRITEPROTECTION_DISABLE(hrtc);
 2666              		.loc 1 1527 3
 2667 0026 7B68     		ldr	r3, [r7, #4]
 2668 0028 1B68     		ldr	r3, [r3]
 2669 002a CA22     		movs	r2, #202
 2670 002c 5A62     		str	r2, [r3, #36]
 2671 002e 7B68     		ldr	r3, [r7, #4]
 2672 0030 1B68     		ldr	r3, [r3]
 2673 0032 5322     		movs	r2, #83
 2674 0034 5A62     		str	r2, [r3, #36]
1528:Drivers/STM32L4xx_HAL_Driver/Src/stm32l4xx_hal_rtc_ex.c **** 
1529:Drivers/STM32L4xx_HAL_Driver/Src/stm32l4xx_hal_rtc_ex.c ****   /* Clear the BYPSHAD bit */
1530:Drivers/STM32L4xx_HAL_Driver/Src/stm32l4xx_hal_rtc_ex.c ****   CLEAR_BIT(RTC->CR, RTC_CR_BYPSHAD);
 2675              		.loc 1 1530 3
 2676 0036 0C4B     		ldr	r3, .L105
 2677 0038 9B68     		ldr	r3, [r3, #8]
 2678 003a 0B4A     		ldr	r2, .L105
 2679 003c 23F02003 		bic	r3, r3, #32
 2680 0040 9360     		str	r3, [r2, #8]
1531:Drivers/STM32L4xx_HAL_Driver/Src/stm32l4xx_hal_rtc_ex.c **** 
1532:Drivers/STM32L4xx_HAL_Driver/Src/stm32l4xx_hal_rtc_ex.c ****   /* Enable the write protection for RTC registers */
1533:Drivers/STM32L4xx_HAL_Driver/Src/stm32l4xx_hal_rtc_ex.c ****   __HAL_RTC_WRITEPROTECTION_ENABLE(hrtc);
 2681              		.loc 1 1533 3
 2682 0042 7B68     		ldr	r3, [r7, #4]
 2683 0044 1B68     		ldr	r3, [r3]
 2684 0046 FF22     		movs	r2, #255
 2685 0048 5A62     		str	r2, [r3, #36]
1534:Drivers/STM32L4xx_HAL_Driver/Src/stm32l4xx_hal_rtc_ex.c **** 
1535:Drivers/STM32L4xx_HAL_Driver/Src/stm32l4xx_hal_rtc_ex.c ****   /* Change RTC state */
1536:Drivers/STM32L4xx_HAL_Driver/Src/stm32l4xx_hal_rtc_ex.c ****   hrtc->State = HAL_RTC_STATE_READY;
 2686              		.loc 1 1536 15
 2687 004a 7B68     		ldr	r3, [r7, #4]
 2688 004c 0122     		movs	r2, #1
 2689 004e 83F82120 		strb	r2, [r3, #33]
1537:Drivers/STM32L4xx_HAL_Driver/Src/stm32l4xx_hal_rtc_ex.c **** 
1538:Drivers/STM32L4xx_HAL_Driver/Src/stm32l4xx_hal_rtc_ex.c ****   /* Process Unlocked */
1539:Drivers/STM32L4xx_HAL_Driver/Src/stm32l4xx_hal_rtc_ex.c ****   __HAL_UNLOCK(hrtc);
 2690              		.loc 1 1539 3
 2691 0052 7B68     		ldr	r3, [r7, #4]
 2692 0054 0022     		movs	r2, #0
 2693 0056 83F82020 		strb	r2, [r3, #32]
1540:Drivers/STM32L4xx_HAL_Driver/Src/stm32l4xx_hal_rtc_ex.c **** 
1541:Drivers/STM32L4xx_HAL_Driver/Src/stm32l4xx_hal_rtc_ex.c ****   return HAL_OK;
 2694              		.loc 1 1541 10
 2695 005a 0023     		movs	r3, #0
 2696              	.L104:
1542:Drivers/STM32L4xx_HAL_Driver/Src/stm32l4xx_hal_rtc_ex.c **** }
 2697              		.loc 1 1542 1
 2698 005c 1846     		mov	r0, r3
 2699 005e 0C37     		adds	r7, r7, #12
 2700              		.cfi_def_cfa_offset 4
 2701 0060 BD46     		mov	sp, r7
 2702              		.cfi_def_cfa_register 13
 2703              		@ sp needed
 2704 0062 5DF8047B 		ldr	r7, [sp], #4
 2705              		.cfi_restore 7
 2706              		.cfi_def_cfa_offset 0
ARM GAS  /tmp/cchDTGWe.s 			page 75


 2707 0066 7047     		bx	lr
 2708              	.L106:
 2709              		.align	2
 2710              	.L105:
 2711 0068 00280040 		.word	1073752064
 2712              		.cfi_endproc
 2713              	.LFE468:
 2715              		.section	.text.HAL_RTCEx_AlarmBEventCallback,"ax",%progbits
 2716              		.align	1
 2717              		.weak	HAL_RTCEx_AlarmBEventCallback
 2718              		.syntax unified
 2719              		.thumb
 2720              		.thumb_func
 2722              	HAL_RTCEx_AlarmBEventCallback:
 2723              	.LFB469:
1543:Drivers/STM32L4xx_HAL_Driver/Src/stm32l4xx_hal_rtc_ex.c **** 
1544:Drivers/STM32L4xx_HAL_Driver/Src/stm32l4xx_hal_rtc_ex.c **** #if defined (STM32L4P5xx) || defined (STM32L4Q5xx)
1545:Drivers/STM32L4xx_HAL_Driver/Src/stm32l4xx_hal_rtc_ex.c **** /**
1546:Drivers/STM32L4xx_HAL_Driver/Src/stm32l4xx_hal_rtc_ex.c ****   * @brief  Set SSR Underflow detection with Interrupt.
1547:Drivers/STM32L4xx_HAL_Driver/Src/stm32l4xx_hal_rtc_ex.c ****   * @param  hrtc RTC handle
1548:Drivers/STM32L4xx_HAL_Driver/Src/stm32l4xx_hal_rtc_ex.c ****   * @retval HAL status
1549:Drivers/STM32L4xx_HAL_Driver/Src/stm32l4xx_hal_rtc_ex.c ****   */
1550:Drivers/STM32L4xx_HAL_Driver/Src/stm32l4xx_hal_rtc_ex.c **** HAL_StatusTypeDef HAL_RTCEx_SetSSRU_IT(RTC_HandleTypeDef *hrtc)
1551:Drivers/STM32L4xx_HAL_Driver/Src/stm32l4xx_hal_rtc_ex.c **** {
1552:Drivers/STM32L4xx_HAL_Driver/Src/stm32l4xx_hal_rtc_ex.c ****   /* Process Locked */
1553:Drivers/STM32L4xx_HAL_Driver/Src/stm32l4xx_hal_rtc_ex.c ****   __HAL_LOCK(hrtc);
1554:Drivers/STM32L4xx_HAL_Driver/Src/stm32l4xx_hal_rtc_ex.c **** 
1555:Drivers/STM32L4xx_HAL_Driver/Src/stm32l4xx_hal_rtc_ex.c ****   hrtc->State = HAL_RTC_STATE_BUSY;
1556:Drivers/STM32L4xx_HAL_Driver/Src/stm32l4xx_hal_rtc_ex.c **** 
1557:Drivers/STM32L4xx_HAL_Driver/Src/stm32l4xx_hal_rtc_ex.c ****   /* Disable the write protection for RTC registers */
1558:Drivers/STM32L4xx_HAL_Driver/Src/stm32l4xx_hal_rtc_ex.c ****   __HAL_RTC_WRITEPROTECTION_DISABLE(hrtc);
1559:Drivers/STM32L4xx_HAL_Driver/Src/stm32l4xx_hal_rtc_ex.c **** 
1560:Drivers/STM32L4xx_HAL_Driver/Src/stm32l4xx_hal_rtc_ex.c ****   /* Enable IT SSRU */
1561:Drivers/STM32L4xx_HAL_Driver/Src/stm32l4xx_hal_rtc_ex.c ****   __HAL_RTC_SSRU_ENABLE_IT(hrtc, RTC_IT_SSRU);
1562:Drivers/STM32L4xx_HAL_Driver/Src/stm32l4xx_hal_rtc_ex.c **** 
1563:Drivers/STM32L4xx_HAL_Driver/Src/stm32l4xx_hal_rtc_ex.c ****   /* RTC SSRU Interrupt Configuration: EXTI configuration */
1564:Drivers/STM32L4xx_HAL_Driver/Src/stm32l4xx_hal_rtc_ex.c ****   __HAL_RTC_SSRU_EXTI_ENABLE_IT();
1565:Drivers/STM32L4xx_HAL_Driver/Src/stm32l4xx_hal_rtc_ex.c ****   __HAL_RTC_ALARM_EXTI_ENABLE_RISING_EDGE();
1566:Drivers/STM32L4xx_HAL_Driver/Src/stm32l4xx_hal_rtc_ex.c **** 
1567:Drivers/STM32L4xx_HAL_Driver/Src/stm32l4xx_hal_rtc_ex.c ****   /* Enable the write protection for RTC registers */
1568:Drivers/STM32L4xx_HAL_Driver/Src/stm32l4xx_hal_rtc_ex.c ****   __HAL_RTC_WRITEPROTECTION_ENABLE(hrtc);
1569:Drivers/STM32L4xx_HAL_Driver/Src/stm32l4xx_hal_rtc_ex.c **** 
1570:Drivers/STM32L4xx_HAL_Driver/Src/stm32l4xx_hal_rtc_ex.c ****   hrtc->State = HAL_RTC_STATE_READY;
1571:Drivers/STM32L4xx_HAL_Driver/Src/stm32l4xx_hal_rtc_ex.c **** 
1572:Drivers/STM32L4xx_HAL_Driver/Src/stm32l4xx_hal_rtc_ex.c ****   /* Process Unlocked */
1573:Drivers/STM32L4xx_HAL_Driver/Src/stm32l4xx_hal_rtc_ex.c ****   __HAL_UNLOCK(hrtc);
1574:Drivers/STM32L4xx_HAL_Driver/Src/stm32l4xx_hal_rtc_ex.c **** 
1575:Drivers/STM32L4xx_HAL_Driver/Src/stm32l4xx_hal_rtc_ex.c ****   return HAL_OK;
1576:Drivers/STM32L4xx_HAL_Driver/Src/stm32l4xx_hal_rtc_ex.c **** }
1577:Drivers/STM32L4xx_HAL_Driver/Src/stm32l4xx_hal_rtc_ex.c **** 
1578:Drivers/STM32L4xx_HAL_Driver/Src/stm32l4xx_hal_rtc_ex.c **** /**
1579:Drivers/STM32L4xx_HAL_Driver/Src/stm32l4xx_hal_rtc_ex.c ****   * @brief  Deactivate SSR Underflow.
1580:Drivers/STM32L4xx_HAL_Driver/Src/stm32l4xx_hal_rtc_ex.c ****   * @param  hrtc RTC handle
1581:Drivers/STM32L4xx_HAL_Driver/Src/stm32l4xx_hal_rtc_ex.c ****   * @retval HAL status
1582:Drivers/STM32L4xx_HAL_Driver/Src/stm32l4xx_hal_rtc_ex.c ****   */
1583:Drivers/STM32L4xx_HAL_Driver/Src/stm32l4xx_hal_rtc_ex.c **** HAL_StatusTypeDef HAL_RTCEx_DeactivateSSRU(RTC_HandleTypeDef *hrtc)
1584:Drivers/STM32L4xx_HAL_Driver/Src/stm32l4xx_hal_rtc_ex.c **** {
ARM GAS  /tmp/cchDTGWe.s 			page 76


1585:Drivers/STM32L4xx_HAL_Driver/Src/stm32l4xx_hal_rtc_ex.c ****   /* Process Locked */
1586:Drivers/STM32L4xx_HAL_Driver/Src/stm32l4xx_hal_rtc_ex.c ****   __HAL_LOCK(hrtc);
1587:Drivers/STM32L4xx_HAL_Driver/Src/stm32l4xx_hal_rtc_ex.c **** 
1588:Drivers/STM32L4xx_HAL_Driver/Src/stm32l4xx_hal_rtc_ex.c ****   hrtc->State = HAL_RTC_STATE_BUSY;
1589:Drivers/STM32L4xx_HAL_Driver/Src/stm32l4xx_hal_rtc_ex.c **** 
1590:Drivers/STM32L4xx_HAL_Driver/Src/stm32l4xx_hal_rtc_ex.c ****   /* Disable the write protection for RTC registers */
1591:Drivers/STM32L4xx_HAL_Driver/Src/stm32l4xx_hal_rtc_ex.c ****   __HAL_RTC_WRITEPROTECTION_DISABLE(hrtc);
1592:Drivers/STM32L4xx_HAL_Driver/Src/stm32l4xx_hal_rtc_ex.c **** 
1593:Drivers/STM32L4xx_HAL_Driver/Src/stm32l4xx_hal_rtc_ex.c ****   /* In case of interrupt mode is used, the interrupt source must disabled */
1594:Drivers/STM32L4xx_HAL_Driver/Src/stm32l4xx_hal_rtc_ex.c ****   __HAL_RTC_SSRU_DISABLE_IT(hrtc, RTC_IT_TS);
1595:Drivers/STM32L4xx_HAL_Driver/Src/stm32l4xx_hal_rtc_ex.c **** 
1596:Drivers/STM32L4xx_HAL_Driver/Src/stm32l4xx_hal_rtc_ex.c ****   /* Enable the write protection for RTC registers */
1597:Drivers/STM32L4xx_HAL_Driver/Src/stm32l4xx_hal_rtc_ex.c ****   __HAL_RTC_WRITEPROTECTION_ENABLE(hrtc);
1598:Drivers/STM32L4xx_HAL_Driver/Src/stm32l4xx_hal_rtc_ex.c **** 
1599:Drivers/STM32L4xx_HAL_Driver/Src/stm32l4xx_hal_rtc_ex.c ****   hrtc->State = HAL_RTC_STATE_READY;
1600:Drivers/STM32L4xx_HAL_Driver/Src/stm32l4xx_hal_rtc_ex.c **** 
1601:Drivers/STM32L4xx_HAL_Driver/Src/stm32l4xx_hal_rtc_ex.c ****   /* Process Unlocked */
1602:Drivers/STM32L4xx_HAL_Driver/Src/stm32l4xx_hal_rtc_ex.c ****   __HAL_UNLOCK(hrtc);
1603:Drivers/STM32L4xx_HAL_Driver/Src/stm32l4xx_hal_rtc_ex.c **** 
1604:Drivers/STM32L4xx_HAL_Driver/Src/stm32l4xx_hal_rtc_ex.c ****   return HAL_OK;
1605:Drivers/STM32L4xx_HAL_Driver/Src/stm32l4xx_hal_rtc_ex.c **** }
1606:Drivers/STM32L4xx_HAL_Driver/Src/stm32l4xx_hal_rtc_ex.c **** 
1607:Drivers/STM32L4xx_HAL_Driver/Src/stm32l4xx_hal_rtc_ex.c **** /**
1608:Drivers/STM32L4xx_HAL_Driver/Src/stm32l4xx_hal_rtc_ex.c ****   * @brief  Handle SSR underflow interrupt request.
1609:Drivers/STM32L4xx_HAL_Driver/Src/stm32l4xx_hal_rtc_ex.c ****   * @param  hrtc RTC handle
1610:Drivers/STM32L4xx_HAL_Driver/Src/stm32l4xx_hal_rtc_ex.c ****   * @retval None
1611:Drivers/STM32L4xx_HAL_Driver/Src/stm32l4xx_hal_rtc_ex.c ****   */
1612:Drivers/STM32L4xx_HAL_Driver/Src/stm32l4xx_hal_rtc_ex.c **** void HAL_RTCEx_SSRUIRQHandler(RTC_HandleTypeDef *hrtc)
1613:Drivers/STM32L4xx_HAL_Driver/Src/stm32l4xx_hal_rtc_ex.c **** {
1614:Drivers/STM32L4xx_HAL_Driver/Src/stm32l4xx_hal_rtc_ex.c ****   if ((RTC->MISR & RTC_MISR_SSRUMF) != 0u)
1615:Drivers/STM32L4xx_HAL_Driver/Src/stm32l4xx_hal_rtc_ex.c ****   {
1616:Drivers/STM32L4xx_HAL_Driver/Src/stm32l4xx_hal_rtc_ex.c ****     /* Immediately clear flags */
1617:Drivers/STM32L4xx_HAL_Driver/Src/stm32l4xx_hal_rtc_ex.c ****     RTC->SCR = RTC_SCR_CSSRUF;
1618:Drivers/STM32L4xx_HAL_Driver/Src/stm32l4xx_hal_rtc_ex.c **** 
1619:Drivers/STM32L4xx_HAL_Driver/Src/stm32l4xx_hal_rtc_ex.c ****     /* SSRU callback */
1620:Drivers/STM32L4xx_HAL_Driver/Src/stm32l4xx_hal_rtc_ex.c **** #if (USE_HAL_RTC_REGISTER_CALLBACKS == 1)
1621:Drivers/STM32L4xx_HAL_Driver/Src/stm32l4xx_hal_rtc_ex.c ****     /* Call SSRUEvent registered Callback */
1622:Drivers/STM32L4xx_HAL_Driver/Src/stm32l4xx_hal_rtc_ex.c ****     hrtc->SSRUEventCallback(hrtc);
1623:Drivers/STM32L4xx_HAL_Driver/Src/stm32l4xx_hal_rtc_ex.c **** #else
1624:Drivers/STM32L4xx_HAL_Driver/Src/stm32l4xx_hal_rtc_ex.c ****     HAL_RTCEx_SSRUEventCallback(hrtc);
1625:Drivers/STM32L4xx_HAL_Driver/Src/stm32l4xx_hal_rtc_ex.c **** #endif /* USE_HAL_RTC_REGISTER_CALLBACKS */
1626:Drivers/STM32L4xx_HAL_Driver/Src/stm32l4xx_hal_rtc_ex.c ****   }
1627:Drivers/STM32L4xx_HAL_Driver/Src/stm32l4xx_hal_rtc_ex.c **** 
1628:Drivers/STM32L4xx_HAL_Driver/Src/stm32l4xx_hal_rtc_ex.c ****   /* Change RTC state */
1629:Drivers/STM32L4xx_HAL_Driver/Src/stm32l4xx_hal_rtc_ex.c ****   hrtc->State = HAL_RTC_STATE_READY;
1630:Drivers/STM32L4xx_HAL_Driver/Src/stm32l4xx_hal_rtc_ex.c **** }
1631:Drivers/STM32L4xx_HAL_Driver/Src/stm32l4xx_hal_rtc_ex.c **** 
1632:Drivers/STM32L4xx_HAL_Driver/Src/stm32l4xx_hal_rtc_ex.c **** /**
1633:Drivers/STM32L4xx_HAL_Driver/Src/stm32l4xx_hal_rtc_ex.c ****   * @brief  SSR underflow callback.
1634:Drivers/STM32L4xx_HAL_Driver/Src/stm32l4xx_hal_rtc_ex.c ****   * @param  hrtc RTC handle
1635:Drivers/STM32L4xx_HAL_Driver/Src/stm32l4xx_hal_rtc_ex.c ****   * @retval None
1636:Drivers/STM32L4xx_HAL_Driver/Src/stm32l4xx_hal_rtc_ex.c ****   */
1637:Drivers/STM32L4xx_HAL_Driver/Src/stm32l4xx_hal_rtc_ex.c **** __weak void HAL_RTCEx_SSRUEventCallback(RTC_HandleTypeDef *hrtc)
1638:Drivers/STM32L4xx_HAL_Driver/Src/stm32l4xx_hal_rtc_ex.c **** {
1639:Drivers/STM32L4xx_HAL_Driver/Src/stm32l4xx_hal_rtc_ex.c ****   /* Prevent unused argument(s) compilation warning */
1640:Drivers/STM32L4xx_HAL_Driver/Src/stm32l4xx_hal_rtc_ex.c ****   UNUSED(hrtc);
1641:Drivers/STM32L4xx_HAL_Driver/Src/stm32l4xx_hal_rtc_ex.c **** 
ARM GAS  /tmp/cchDTGWe.s 			page 77


1642:Drivers/STM32L4xx_HAL_Driver/Src/stm32l4xx_hal_rtc_ex.c ****   /* NOTE : This function should not be modified, when the callback is needed,
1643:Drivers/STM32L4xx_HAL_Driver/Src/stm32l4xx_hal_rtc_ex.c ****             the HAL_RTCEx_SSRUEventCallback could be implemented in the user file
1644:Drivers/STM32L4xx_HAL_Driver/Src/stm32l4xx_hal_rtc_ex.c ****    */
1645:Drivers/STM32L4xx_HAL_Driver/Src/stm32l4xx_hal_rtc_ex.c **** }
1646:Drivers/STM32L4xx_HAL_Driver/Src/stm32l4xx_hal_rtc_ex.c **** #endif /* #if defined (STM32L4P5xx) || defined (STM32L4Q5xx) */
1647:Drivers/STM32L4xx_HAL_Driver/Src/stm32l4xx_hal_rtc_ex.c **** 
1648:Drivers/STM32L4xx_HAL_Driver/Src/stm32l4xx_hal_rtc_ex.c **** /**
1649:Drivers/STM32L4xx_HAL_Driver/Src/stm32l4xx_hal_rtc_ex.c ****   * @}
1650:Drivers/STM32L4xx_HAL_Driver/Src/stm32l4xx_hal_rtc_ex.c ****   */
1651:Drivers/STM32L4xx_HAL_Driver/Src/stm32l4xx_hal_rtc_ex.c **** 
1652:Drivers/STM32L4xx_HAL_Driver/Src/stm32l4xx_hal_rtc_ex.c **** /** @addtogroup RTCEx_Exported_Functions_Group4
1653:Drivers/STM32L4xx_HAL_Driver/Src/stm32l4xx_hal_rtc_ex.c ****   * @brief    Extended features functions
1654:Drivers/STM32L4xx_HAL_Driver/Src/stm32l4xx_hal_rtc_ex.c ****   *
1655:Drivers/STM32L4xx_HAL_Driver/Src/stm32l4xx_hal_rtc_ex.c **** @verbatim
1656:Drivers/STM32L4xx_HAL_Driver/Src/stm32l4xx_hal_rtc_ex.c ****  ===============================================================================
1657:Drivers/STM32L4xx_HAL_Driver/Src/stm32l4xx_hal_rtc_ex.c ****                  ##### Extended features functions #####
1658:Drivers/STM32L4xx_HAL_Driver/Src/stm32l4xx_hal_rtc_ex.c ****  ===============================================================================
1659:Drivers/STM32L4xx_HAL_Driver/Src/stm32l4xx_hal_rtc_ex.c ****     [..]  This section provides functions allowing to:
1660:Drivers/STM32L4xx_HAL_Driver/Src/stm32l4xx_hal_rtc_ex.c ****       (+) RTC Alarm B callback
1661:Drivers/STM32L4xx_HAL_Driver/Src/stm32l4xx_hal_rtc_ex.c ****       (+) RTC Poll for Alarm B request
1662:Drivers/STM32L4xx_HAL_Driver/Src/stm32l4xx_hal_rtc_ex.c **** 
1663:Drivers/STM32L4xx_HAL_Driver/Src/stm32l4xx_hal_rtc_ex.c **** @endverbatim
1664:Drivers/STM32L4xx_HAL_Driver/Src/stm32l4xx_hal_rtc_ex.c ****   * @{
1665:Drivers/STM32L4xx_HAL_Driver/Src/stm32l4xx_hal_rtc_ex.c ****   */
1666:Drivers/STM32L4xx_HAL_Driver/Src/stm32l4xx_hal_rtc_ex.c **** 
1667:Drivers/STM32L4xx_HAL_Driver/Src/stm32l4xx_hal_rtc_ex.c **** /**
1668:Drivers/STM32L4xx_HAL_Driver/Src/stm32l4xx_hal_rtc_ex.c ****   * @brief  Alarm B callback.
1669:Drivers/STM32L4xx_HAL_Driver/Src/stm32l4xx_hal_rtc_ex.c ****   * @param  hrtc RTC handle
1670:Drivers/STM32L4xx_HAL_Driver/Src/stm32l4xx_hal_rtc_ex.c ****   * @retval None
1671:Drivers/STM32L4xx_HAL_Driver/Src/stm32l4xx_hal_rtc_ex.c ****   */
1672:Drivers/STM32L4xx_HAL_Driver/Src/stm32l4xx_hal_rtc_ex.c **** __weak void HAL_RTCEx_AlarmBEventCallback(RTC_HandleTypeDef *hrtc)
1673:Drivers/STM32L4xx_HAL_Driver/Src/stm32l4xx_hal_rtc_ex.c **** {
 2724              		.loc 1 1673 1
 2725              		.cfi_startproc
 2726              		@ args = 0, pretend = 0, frame = 8
 2727              		@ frame_needed = 1, uses_anonymous_args = 0
 2728              		@ link register save eliminated.
 2729 0000 80B4     		push	{r7}
 2730              		.cfi_def_cfa_offset 4
 2731              		.cfi_offset 7, -4
 2732 0002 83B0     		sub	sp, sp, #12
 2733              		.cfi_def_cfa_offset 16
 2734 0004 00AF     		add	r7, sp, #0
 2735              		.cfi_def_cfa_register 7
 2736 0006 7860     		str	r0, [r7, #4]
1674:Drivers/STM32L4xx_HAL_Driver/Src/stm32l4xx_hal_rtc_ex.c ****   /* Prevent unused argument(s) compilation warning */
1675:Drivers/STM32L4xx_HAL_Driver/Src/stm32l4xx_hal_rtc_ex.c ****   UNUSED(hrtc);
1676:Drivers/STM32L4xx_HAL_Driver/Src/stm32l4xx_hal_rtc_ex.c **** 
1677:Drivers/STM32L4xx_HAL_Driver/Src/stm32l4xx_hal_rtc_ex.c ****   /* NOTE : This function should not be modified, when the callback is needed,
1678:Drivers/STM32L4xx_HAL_Driver/Src/stm32l4xx_hal_rtc_ex.c ****             the HAL_RTCEx_AlarmBEventCallback could be implemented in the user file
1679:Drivers/STM32L4xx_HAL_Driver/Src/stm32l4xx_hal_rtc_ex.c ****    */
1680:Drivers/STM32L4xx_HAL_Driver/Src/stm32l4xx_hal_rtc_ex.c **** }
 2737              		.loc 1 1680 1
 2738 0008 00BF     		nop
 2739 000a 0C37     		adds	r7, r7, #12
 2740              		.cfi_def_cfa_offset 4
 2741 000c BD46     		mov	sp, r7
ARM GAS  /tmp/cchDTGWe.s 			page 78


 2742              		.cfi_def_cfa_register 13
 2743              		@ sp needed
 2744 000e 5DF8047B 		ldr	r7, [sp], #4
 2745              		.cfi_restore 7
 2746              		.cfi_def_cfa_offset 0
 2747 0012 7047     		bx	lr
 2748              		.cfi_endproc
 2749              	.LFE469:
 2751              		.section	.text.HAL_RTCEx_PollForAlarmBEvent,"ax",%progbits
 2752              		.align	1
 2753              		.global	HAL_RTCEx_PollForAlarmBEvent
 2754              		.syntax unified
 2755              		.thumb
 2756              		.thumb_func
 2758              	HAL_RTCEx_PollForAlarmBEvent:
 2759              	.LFB470:
1681:Drivers/STM32L4xx_HAL_Driver/Src/stm32l4xx_hal_rtc_ex.c **** 
1682:Drivers/STM32L4xx_HAL_Driver/Src/stm32l4xx_hal_rtc_ex.c **** /**
1683:Drivers/STM32L4xx_HAL_Driver/Src/stm32l4xx_hal_rtc_ex.c ****   * @brief  Handle Alarm B Polling request.
1684:Drivers/STM32L4xx_HAL_Driver/Src/stm32l4xx_hal_rtc_ex.c ****   * @param  hrtc RTC handle
1685:Drivers/STM32L4xx_HAL_Driver/Src/stm32l4xx_hal_rtc_ex.c ****   * @param  Timeout Timeout duration
1686:Drivers/STM32L4xx_HAL_Driver/Src/stm32l4xx_hal_rtc_ex.c ****   * @retval HAL status
1687:Drivers/STM32L4xx_HAL_Driver/Src/stm32l4xx_hal_rtc_ex.c ****   */
1688:Drivers/STM32L4xx_HAL_Driver/Src/stm32l4xx_hal_rtc_ex.c **** HAL_StatusTypeDef HAL_RTCEx_PollForAlarmBEvent(RTC_HandleTypeDef *hrtc, uint32_t Timeout)
1689:Drivers/STM32L4xx_HAL_Driver/Src/stm32l4xx_hal_rtc_ex.c **** {
 2760              		.loc 1 1689 1
 2761              		.cfi_startproc
 2762              		@ args = 0, pretend = 0, frame = 16
 2763              		@ frame_needed = 1, uses_anonymous_args = 0
 2764 0000 80B5     		push	{r7, lr}
 2765              		.cfi_def_cfa_offset 8
 2766              		.cfi_offset 7, -8
 2767              		.cfi_offset 14, -4
 2768 0002 84B0     		sub	sp, sp, #16
 2769              		.cfi_def_cfa_offset 24
 2770 0004 00AF     		add	r7, sp, #0
 2771              		.cfi_def_cfa_register 7
 2772 0006 7860     		str	r0, [r7, #4]
 2773 0008 3960     		str	r1, [r7]
1690:Drivers/STM32L4xx_HAL_Driver/Src/stm32l4xx_hal_rtc_ex.c ****   uint32_t tickstart = HAL_GetTick();
 2774              		.loc 1 1690 24
 2775 000a FFF7FEFF 		bl	HAL_GetTick
 2776 000e F860     		str	r0, [r7, #12]
1691:Drivers/STM32L4xx_HAL_Driver/Src/stm32l4xx_hal_rtc_ex.c **** 
1692:Drivers/STM32L4xx_HAL_Driver/Src/stm32l4xx_hal_rtc_ex.c ****   while (__HAL_RTC_ALARM_GET_FLAG(hrtc, RTC_FLAG_ALRBF) == 0U)
 2777              		.loc 1 1692 9
 2778 0010 14E0     		b	.L110
 2779              	.L113:
1693:Drivers/STM32L4xx_HAL_Driver/Src/stm32l4xx_hal_rtc_ex.c ****   {
1694:Drivers/STM32L4xx_HAL_Driver/Src/stm32l4xx_hal_rtc_ex.c ****     if (Timeout != HAL_MAX_DELAY)
 2780              		.loc 1 1694 8
 2781 0012 3B68     		ldr	r3, [r7]
 2782 0014 B3F1FF3F 		cmp	r3, #-1
 2783 0018 10D0     		beq	.L110
1695:Drivers/STM32L4xx_HAL_Driver/Src/stm32l4xx_hal_rtc_ex.c ****     {
1696:Drivers/STM32L4xx_HAL_Driver/Src/stm32l4xx_hal_rtc_ex.c ****       if (((HAL_GetTick() - tickstart) > Timeout) || (Timeout == 0U))
 2784              		.loc 1 1696 13
ARM GAS  /tmp/cchDTGWe.s 			page 79


 2785 001a FFF7FEFF 		bl	HAL_GetTick
 2786 001e 0246     		mov	r2, r0
 2787              		.loc 1 1696 27 discriminator 1
 2788 0020 FB68     		ldr	r3, [r7, #12]
 2789 0022 D31A     		subs	r3, r2, r3
 2790              		.loc 1 1696 10 discriminator 1
 2791 0024 3A68     		ldr	r2, [r7]
 2792 0026 9A42     		cmp	r2, r3
 2793 0028 02D3     		bcc	.L111
 2794              		.loc 1 1696 51 discriminator 1
 2795 002a 3B68     		ldr	r3, [r7]
 2796 002c 002B     		cmp	r3, #0
 2797 002e 05D1     		bne	.L110
 2798              	.L111:
1697:Drivers/STM32L4xx_HAL_Driver/Src/stm32l4xx_hal_rtc_ex.c ****       {
1698:Drivers/STM32L4xx_HAL_Driver/Src/stm32l4xx_hal_rtc_ex.c ****         hrtc->State = HAL_RTC_STATE_TIMEOUT;
 2799              		.loc 1 1698 21
 2800 0030 7B68     		ldr	r3, [r7, #4]
 2801 0032 0322     		movs	r2, #3
 2802 0034 83F82120 		strb	r2, [r3, #33]
1699:Drivers/STM32L4xx_HAL_Driver/Src/stm32l4xx_hal_rtc_ex.c ****         return HAL_TIMEOUT;
 2803              		.loc 1 1699 16
 2804 0038 0323     		movs	r3, #3
 2805 003a 14E0     		b	.L112
 2806              	.L110:
1692:Drivers/STM32L4xx_HAL_Driver/Src/stm32l4xx_hal_rtc_ex.c ****   {
 2807              		.loc 1 1692 10
 2808 003c 7B68     		ldr	r3, [r7, #4]
 2809 003e 1B68     		ldr	r3, [r3]
 2810 0040 DB68     		ldr	r3, [r3, #12]
 2811 0042 03F40073 		and	r3, r3, #512
1692:Drivers/STM32L4xx_HAL_Driver/Src/stm32l4xx_hal_rtc_ex.c ****   {
 2812              		.loc 1 1692 57
 2813 0046 002B     		cmp	r3, #0
 2814 0048 E3D0     		beq	.L113
1700:Drivers/STM32L4xx_HAL_Driver/Src/stm32l4xx_hal_rtc_ex.c ****       }
1701:Drivers/STM32L4xx_HAL_Driver/Src/stm32l4xx_hal_rtc_ex.c ****     }
1702:Drivers/STM32L4xx_HAL_Driver/Src/stm32l4xx_hal_rtc_ex.c ****   }
1703:Drivers/STM32L4xx_HAL_Driver/Src/stm32l4xx_hal_rtc_ex.c **** 
1704:Drivers/STM32L4xx_HAL_Driver/Src/stm32l4xx_hal_rtc_ex.c ****   /* Clear the Alarm Flag */
1705:Drivers/STM32L4xx_HAL_Driver/Src/stm32l4xx_hal_rtc_ex.c ****   __HAL_RTC_ALARM_CLEAR_FLAG(hrtc, RTC_FLAG_ALRBF);
 2815              		.loc 1 1705 3
 2816 004a 7B68     		ldr	r3, [r7, #4]
 2817 004c 1B68     		ldr	r3, [r3]
 2818 004e DB68     		ldr	r3, [r3, #12]
 2819 0050 DAB2     		uxtb	r2, r3
 2820 0052 7B68     		ldr	r3, [r7, #4]
 2821 0054 1B68     		ldr	r3, [r3]
 2822 0056 62F42072 		orn	r2, r2, #640
 2823 005a DA60     		str	r2, [r3, #12]
1706:Drivers/STM32L4xx_HAL_Driver/Src/stm32l4xx_hal_rtc_ex.c **** 
1707:Drivers/STM32L4xx_HAL_Driver/Src/stm32l4xx_hal_rtc_ex.c ****   /* Change RTC state */
1708:Drivers/STM32L4xx_HAL_Driver/Src/stm32l4xx_hal_rtc_ex.c ****   hrtc->State = HAL_RTC_STATE_READY;
 2824              		.loc 1 1708 15
 2825 005c 7B68     		ldr	r3, [r7, #4]
 2826 005e 0122     		movs	r2, #1
 2827 0060 83F82120 		strb	r2, [r3, #33]
ARM GAS  /tmp/cchDTGWe.s 			page 80


1709:Drivers/STM32L4xx_HAL_Driver/Src/stm32l4xx_hal_rtc_ex.c **** 
1710:Drivers/STM32L4xx_HAL_Driver/Src/stm32l4xx_hal_rtc_ex.c ****   return HAL_OK;
 2828              		.loc 1 1710 10
 2829 0064 0023     		movs	r3, #0
 2830              	.L112:
1711:Drivers/STM32L4xx_HAL_Driver/Src/stm32l4xx_hal_rtc_ex.c **** }
 2831              		.loc 1 1711 1
 2832 0066 1846     		mov	r0, r3
 2833 0068 1037     		adds	r7, r7, #16
 2834              		.cfi_def_cfa_offset 8
 2835 006a BD46     		mov	sp, r7
 2836              		.cfi_def_cfa_register 13
 2837              		@ sp needed
 2838 006c 80BD     		pop	{r7, pc}
 2839              		.cfi_endproc
 2840              	.LFE470:
 2842              		.section	.text.HAL_RTCEx_SetTamper,"ax",%progbits
 2843              		.align	1
 2844              		.global	HAL_RTCEx_SetTamper
 2845              		.syntax unified
 2846              		.thumb
 2847              		.thumb_func
 2849              	HAL_RTCEx_SetTamper:
 2850              	.LFB471:
1712:Drivers/STM32L4xx_HAL_Driver/Src/stm32l4xx_hal_rtc_ex.c **** 
1713:Drivers/STM32L4xx_HAL_Driver/Src/stm32l4xx_hal_rtc_ex.c **** /**
1714:Drivers/STM32L4xx_HAL_Driver/Src/stm32l4xx_hal_rtc_ex.c ****   * @}
1715:Drivers/STM32L4xx_HAL_Driver/Src/stm32l4xx_hal_rtc_ex.c ****   */
1716:Drivers/STM32L4xx_HAL_Driver/Src/stm32l4xx_hal_rtc_ex.c **** 
1717:Drivers/STM32L4xx_HAL_Driver/Src/stm32l4xx_hal_rtc_ex.c **** /** @addtogroup RTCEx_Exported_Functions_Group5
1718:Drivers/STM32L4xx_HAL_Driver/Src/stm32l4xx_hal_rtc_ex.c ****   * @brief      Extended RTC Tamper functions
1719:Drivers/STM32L4xx_HAL_Driver/Src/stm32l4xx_hal_rtc_ex.c ****   *
1720:Drivers/STM32L4xx_HAL_Driver/Src/stm32l4xx_hal_rtc_ex.c **** @verbatim
1721:Drivers/STM32L4xx_HAL_Driver/Src/stm32l4xx_hal_rtc_ex.c ****   ==============================================================================
1722:Drivers/STM32L4xx_HAL_Driver/Src/stm32l4xx_hal_rtc_ex.c ****                          ##### Tamper functions #####
1723:Drivers/STM32L4xx_HAL_Driver/Src/stm32l4xx_hal_rtc_ex.c ****   ==============================================================================
1724:Drivers/STM32L4xx_HAL_Driver/Src/stm32l4xx_hal_rtc_ex.c ****   [..]
1725:Drivers/STM32L4xx_HAL_Driver/Src/stm32l4xx_hal_rtc_ex.c ****    (+) Before calling any tamper or internal tamper function, you have to call first
1726:Drivers/STM32L4xx_HAL_Driver/Src/stm32l4xx_hal_rtc_ex.c ****        HAL_RTC_Init() function.
1727:Drivers/STM32L4xx_HAL_Driver/Src/stm32l4xx_hal_rtc_ex.c ****    (+) In that ine you can select to output tamper event on RTC pin.
1728:Drivers/STM32L4xx_HAL_Driver/Src/stm32l4xx_hal_rtc_ex.c ****   [..]
1729:Drivers/STM32L4xx_HAL_Driver/Src/stm32l4xx_hal_rtc_ex.c ****    (+) Enable the Tamper and configure the Tamper filter count, trigger Edge
1730:Drivers/STM32L4xx_HAL_Driver/Src/stm32l4xx_hal_rtc_ex.c ****        or Level according to the Tamper filter (if equal to 0 Edge else Level)
1731:Drivers/STM32L4xx_HAL_Driver/Src/stm32l4xx_hal_rtc_ex.c ****        value, sampling frequency, NoErase, MaskFlag, precharge or discharge and
1732:Drivers/STM32L4xx_HAL_Driver/Src/stm32l4xx_hal_rtc_ex.c ****        Pull-UP, timestamp using the HAL_RTCEx_SetTamper() function.
1733:Drivers/STM32L4xx_HAL_Driver/Src/stm32l4xx_hal_rtc_ex.c ****        You can configure Tamper with interrupt mode using HAL_RTCEx_SetTamper_IT() function.
1734:Drivers/STM32L4xx_HAL_Driver/Src/stm32l4xx_hal_rtc_ex.c ****    (+) The default configuration of the Tamper erases the backup registers. To avoid
1735:Drivers/STM32L4xx_HAL_Driver/Src/stm32l4xx_hal_rtc_ex.c ****        erase, enable the NoErase field on the TAMP_TAMPCR register.
1736:Drivers/STM32L4xx_HAL_Driver/Src/stm32l4xx_hal_rtc_ex.c ****   [..]
1737:Drivers/STM32L4xx_HAL_Driver/Src/stm32l4xx_hal_rtc_ex.c ****    (+) Enable Internal Tamper and configure it with interrupt, timestamp using
1738:Drivers/STM32L4xx_HAL_Driver/Src/stm32l4xx_hal_rtc_ex.c ****        the HAL_RTCEx_SetInternalTamper() function.
1739:Drivers/STM32L4xx_HAL_Driver/Src/stm32l4xx_hal_rtc_ex.c **** 
1740:Drivers/STM32L4xx_HAL_Driver/Src/stm32l4xx_hal_rtc_ex.c **** @endverbatim
1741:Drivers/STM32L4xx_HAL_Driver/Src/stm32l4xx_hal_rtc_ex.c ****   * @{
1742:Drivers/STM32L4xx_HAL_Driver/Src/stm32l4xx_hal_rtc_ex.c ****   */
1743:Drivers/STM32L4xx_HAL_Driver/Src/stm32l4xx_hal_rtc_ex.c **** 
1744:Drivers/STM32L4xx_HAL_Driver/Src/stm32l4xx_hal_rtc_ex.c **** #if defined(STM32L412xx) || defined(STM32L422xx) || defined (STM32L4P5xx) || defined (STM32L4Q5xx)
ARM GAS  /tmp/cchDTGWe.s 			page 81


1745:Drivers/STM32L4xx_HAL_Driver/Src/stm32l4xx_hal_rtc_ex.c **** /**
1746:Drivers/STM32L4xx_HAL_Driver/Src/stm32l4xx_hal_rtc_ex.c ****   * @brief  Set Tamper
1747:Drivers/STM32L4xx_HAL_Driver/Src/stm32l4xx_hal_rtc_ex.c ****   * @param  hrtc RTC handle
1748:Drivers/STM32L4xx_HAL_Driver/Src/stm32l4xx_hal_rtc_ex.c ****   * @param  sTamper Pointer to Tamper Structure.
1749:Drivers/STM32L4xx_HAL_Driver/Src/stm32l4xx_hal_rtc_ex.c ****   * @retval HAL status
1750:Drivers/STM32L4xx_HAL_Driver/Src/stm32l4xx_hal_rtc_ex.c ****   */
1751:Drivers/STM32L4xx_HAL_Driver/Src/stm32l4xx_hal_rtc_ex.c **** HAL_StatusTypeDef HAL_RTCEx_SetTamper(RTC_HandleTypeDef *hrtc, RTC_TamperTypeDef *sTamper)
1752:Drivers/STM32L4xx_HAL_Driver/Src/stm32l4xx_hal_rtc_ex.c **** {
1753:Drivers/STM32L4xx_HAL_Driver/Src/stm32l4xx_hal_rtc_ex.c ****   uint32_t tmpreg;
1754:Drivers/STM32L4xx_HAL_Driver/Src/stm32l4xx_hal_rtc_ex.c ****   /* Process TAMP instance pointer */
1755:Drivers/STM32L4xx_HAL_Driver/Src/stm32l4xx_hal_rtc_ex.c ****   TAMP_TypeDef *tamp = (TAMP_TypeDef *)((uint32_t)hrtc->Instance + hrtc->TampOffset);
1756:Drivers/STM32L4xx_HAL_Driver/Src/stm32l4xx_hal_rtc_ex.c **** 
1757:Drivers/STM32L4xx_HAL_Driver/Src/stm32l4xx_hal_rtc_ex.c ****   /* Check the parameters */
1758:Drivers/STM32L4xx_HAL_Driver/Src/stm32l4xx_hal_rtc_ex.c ****   assert_param(IS_RTC_TAMPER(sTamper->Tamper));
1759:Drivers/STM32L4xx_HAL_Driver/Src/stm32l4xx_hal_rtc_ex.c ****   assert_param(IS_RTC_TAMPER_TRIGGER(sTamper->Trigger));
1760:Drivers/STM32L4xx_HAL_Driver/Src/stm32l4xx_hal_rtc_ex.c ****   assert_param(IS_RTC_TAMPER_ERASE_MODE(sTamper->NoErase));
1761:Drivers/STM32L4xx_HAL_Driver/Src/stm32l4xx_hal_rtc_ex.c ****   assert_param(IS_RTC_TAMPER_MASKFLAG_STATE(sTamper->MaskFlag));
1762:Drivers/STM32L4xx_HAL_Driver/Src/stm32l4xx_hal_rtc_ex.c ****   assert_param(IS_RTC_TAMPER_TIMESTAMPONTAMPER_DETECTION(sTamper->TimeStampOnTamperDetection));
1763:Drivers/STM32L4xx_HAL_Driver/Src/stm32l4xx_hal_rtc_ex.c ****   assert_param(IS_RTC_TAMPER_FILTER(sTamper->Filter));
1764:Drivers/STM32L4xx_HAL_Driver/Src/stm32l4xx_hal_rtc_ex.c ****   assert_param(IS_RTC_TAMPER_SAMPLING_FREQ(sTamper->SamplingFrequency));
1765:Drivers/STM32L4xx_HAL_Driver/Src/stm32l4xx_hal_rtc_ex.c ****   assert_param(IS_RTC_TAMPER_PRECHARGE_DURATION(sTamper->PrechargeDuration));
1766:Drivers/STM32L4xx_HAL_Driver/Src/stm32l4xx_hal_rtc_ex.c ****   assert_param(IS_RTC_TAMPER_PULLUP_STATE(sTamper->TamperPullUp));
1767:Drivers/STM32L4xx_HAL_Driver/Src/stm32l4xx_hal_rtc_ex.c ****   /* Trigger and Filter have exclusive configurations */
1768:Drivers/STM32L4xx_HAL_Driver/Src/stm32l4xx_hal_rtc_ex.c ****   assert_param(((sTamper->Filter != RTC_TAMPERFILTER_DISABLE) && ((sTamper->Trigger == RTC_TAMPERTR
1769:Drivers/STM32L4xx_HAL_Driver/Src/stm32l4xx_hal_rtc_ex.c ****                || ((sTamper->Filter == RTC_TAMPERFILTER_DISABLE) && ((sTamper->Trigger == RTC_TAMPE
1770:Drivers/STM32L4xx_HAL_Driver/Src/stm32l4xx_hal_rtc_ex.c **** 
1771:Drivers/STM32L4xx_HAL_Driver/Src/stm32l4xx_hal_rtc_ex.c ****   /* Configuration register 2 */
1772:Drivers/STM32L4xx_HAL_Driver/Src/stm32l4xx_hal_rtc_ex.c ****   tmpreg = tamp->CR2;
1773:Drivers/STM32L4xx_HAL_Driver/Src/stm32l4xx_hal_rtc_ex.c ****   tmpreg &= ~((sTamper->Tamper << TAMP_CR2_TAMP1TRG_Pos) | (sTamper->Tamper << TAMP_CR2_TAMP1MSK_Po
1774:Drivers/STM32L4xx_HAL_Driver/Src/stm32l4xx_hal_rtc_ex.c **** 
1775:Drivers/STM32L4xx_HAL_Driver/Src/stm32l4xx_hal_rtc_ex.c ****   /* Configure the tamper trigger bit */
1776:Drivers/STM32L4xx_HAL_Driver/Src/stm32l4xx_hal_rtc_ex.c ****   if ((sTamper->Trigger == RTC_TAMPERTRIGGER_HIGHLEVEL) || (sTamper->Trigger == RTC_TAMPERTRIGGER_F
1777:Drivers/STM32L4xx_HAL_Driver/Src/stm32l4xx_hal_rtc_ex.c ****   {
1778:Drivers/STM32L4xx_HAL_Driver/Src/stm32l4xx_hal_rtc_ex.c ****     tmpreg |= (sTamper->Tamper << TAMP_CR2_TAMP1TRG_Pos);
1779:Drivers/STM32L4xx_HAL_Driver/Src/stm32l4xx_hal_rtc_ex.c ****   }
1780:Drivers/STM32L4xx_HAL_Driver/Src/stm32l4xx_hal_rtc_ex.c **** 
1781:Drivers/STM32L4xx_HAL_Driver/Src/stm32l4xx_hal_rtc_ex.c ****   /* Configure the tamper flags masking bit */
1782:Drivers/STM32L4xx_HAL_Driver/Src/stm32l4xx_hal_rtc_ex.c ****   if (sTamper->MaskFlag != RTC_TAMPERMASK_FLAG_DISABLE)
1783:Drivers/STM32L4xx_HAL_Driver/Src/stm32l4xx_hal_rtc_ex.c ****   {
1784:Drivers/STM32L4xx_HAL_Driver/Src/stm32l4xx_hal_rtc_ex.c ****     tmpreg |= (sTamper->Tamper << TAMP_CR2_TAMP1MSK_Pos);
1785:Drivers/STM32L4xx_HAL_Driver/Src/stm32l4xx_hal_rtc_ex.c ****   }
1786:Drivers/STM32L4xx_HAL_Driver/Src/stm32l4xx_hal_rtc_ex.c **** 
1787:Drivers/STM32L4xx_HAL_Driver/Src/stm32l4xx_hal_rtc_ex.c ****   /* Configure the tamper backup registers erasure bit */
1788:Drivers/STM32L4xx_HAL_Driver/Src/stm32l4xx_hal_rtc_ex.c ****   if (sTamper->NoErase != RTC_TAMPER_ERASE_BACKUP_ENABLE)
1789:Drivers/STM32L4xx_HAL_Driver/Src/stm32l4xx_hal_rtc_ex.c ****   {
1790:Drivers/STM32L4xx_HAL_Driver/Src/stm32l4xx_hal_rtc_ex.c ****     tmpreg |= (sTamper->Tamper << TAMP_CR2_TAMP1NOERASE_Pos);
1791:Drivers/STM32L4xx_HAL_Driver/Src/stm32l4xx_hal_rtc_ex.c ****   }
1792:Drivers/STM32L4xx_HAL_Driver/Src/stm32l4xx_hal_rtc_ex.c ****   tamp->CR2 = tmpreg;
1793:Drivers/STM32L4xx_HAL_Driver/Src/stm32l4xx_hal_rtc_ex.c **** 
1794:Drivers/STM32L4xx_HAL_Driver/Src/stm32l4xx_hal_rtc_ex.c ****   /* Configure filtering parameters */
1795:Drivers/STM32L4xx_HAL_Driver/Src/stm32l4xx_hal_rtc_ex.c ****   tamp->FLTCR = (sTamper->Filter) | (sTamper->SamplingFrequency) | \
1796:Drivers/STM32L4xx_HAL_Driver/Src/stm32l4xx_hal_rtc_ex.c ****                 (sTamper->PrechargeDuration) | (sTamper->TamperPullUp);
1797:Drivers/STM32L4xx_HAL_Driver/Src/stm32l4xx_hal_rtc_ex.c **** 
1798:Drivers/STM32L4xx_HAL_Driver/Src/stm32l4xx_hal_rtc_ex.c ****   /* Configure Timestamp saving on tamper detection */
1799:Drivers/STM32L4xx_HAL_Driver/Src/stm32l4xx_hal_rtc_ex.c ****   if ((hrtc->Instance->CR & RTC_CR_TAMPTS) != (sTamper->TimeStampOnTamperDetection))
1800:Drivers/STM32L4xx_HAL_Driver/Src/stm32l4xx_hal_rtc_ex.c ****   {
1801:Drivers/STM32L4xx_HAL_Driver/Src/stm32l4xx_hal_rtc_ex.c ****     __HAL_RTC_WRITEPROTECTION_DISABLE(hrtc);
ARM GAS  /tmp/cchDTGWe.s 			page 82


1802:Drivers/STM32L4xx_HAL_Driver/Src/stm32l4xx_hal_rtc_ex.c ****     tmpreg = (hrtc->Instance->CR & ~RTC_CR_TAMPTS);
1803:Drivers/STM32L4xx_HAL_Driver/Src/stm32l4xx_hal_rtc_ex.c ****     hrtc->Instance->CR = (tmpreg | (sTamper->TimeStampOnTamperDetection));
1804:Drivers/STM32L4xx_HAL_Driver/Src/stm32l4xx_hal_rtc_ex.c ****     __HAL_RTC_WRITEPROTECTION_ENABLE(hrtc);
1805:Drivers/STM32L4xx_HAL_Driver/Src/stm32l4xx_hal_rtc_ex.c ****   }
1806:Drivers/STM32L4xx_HAL_Driver/Src/stm32l4xx_hal_rtc_ex.c **** 
1807:Drivers/STM32L4xx_HAL_Driver/Src/stm32l4xx_hal_rtc_ex.c ****   /* Enable selected tamper */
1808:Drivers/STM32L4xx_HAL_Driver/Src/stm32l4xx_hal_rtc_ex.c ****   tamp->CR1 |= (sTamper->Tamper);
1809:Drivers/STM32L4xx_HAL_Driver/Src/stm32l4xx_hal_rtc_ex.c **** 
1810:Drivers/STM32L4xx_HAL_Driver/Src/stm32l4xx_hal_rtc_ex.c ****   return HAL_OK;
1811:Drivers/STM32L4xx_HAL_Driver/Src/stm32l4xx_hal_rtc_ex.c **** }
1812:Drivers/STM32L4xx_HAL_Driver/Src/stm32l4xx_hal_rtc_ex.c **** #else /* #if defined(STM32L412xx) || defined(STM32L422xx) || defined (STM32L4P5xx) || defined (STM3
1813:Drivers/STM32L4xx_HAL_Driver/Src/stm32l4xx_hal_rtc_ex.c **** /**
1814:Drivers/STM32L4xx_HAL_Driver/Src/stm32l4xx_hal_rtc_ex.c ****   * @brief  Set Tamper.
1815:Drivers/STM32L4xx_HAL_Driver/Src/stm32l4xx_hal_rtc_ex.c ****   * @note   By calling this API we disable the tamper interrupt for all tampers.
1816:Drivers/STM32L4xx_HAL_Driver/Src/stm32l4xx_hal_rtc_ex.c ****   * @param  hrtc RTC handle
1817:Drivers/STM32L4xx_HAL_Driver/Src/stm32l4xx_hal_rtc_ex.c ****   * @param  sTamper Pointer to Tamper Structure.
1818:Drivers/STM32L4xx_HAL_Driver/Src/stm32l4xx_hal_rtc_ex.c ****   * @retval HAL status
1819:Drivers/STM32L4xx_HAL_Driver/Src/stm32l4xx_hal_rtc_ex.c ****   */
1820:Drivers/STM32L4xx_HAL_Driver/Src/stm32l4xx_hal_rtc_ex.c **** HAL_StatusTypeDef HAL_RTCEx_SetTamper(RTC_HandleTypeDef *hrtc, RTC_TamperTypeDef *sTamper)
1821:Drivers/STM32L4xx_HAL_Driver/Src/stm32l4xx_hal_rtc_ex.c **** {
 2851              		.loc 1 1821 1
 2852              		.cfi_startproc
 2853              		@ args = 0, pretend = 0, frame = 16
 2854              		@ frame_needed = 1, uses_anonymous_args = 0
 2855              		@ link register save eliminated.
 2856 0000 80B4     		push	{r7}
 2857              		.cfi_def_cfa_offset 4
 2858              		.cfi_offset 7, -4
 2859 0002 85B0     		sub	sp, sp, #20
 2860              		.cfi_def_cfa_offset 24
 2861 0004 00AF     		add	r7, sp, #0
 2862              		.cfi_def_cfa_register 7
 2863 0006 7860     		str	r0, [r7, #4]
 2864 0008 3960     		str	r1, [r7]
1822:Drivers/STM32L4xx_HAL_Driver/Src/stm32l4xx_hal_rtc_ex.c ****   uint32_t tmpreg;
1823:Drivers/STM32L4xx_HAL_Driver/Src/stm32l4xx_hal_rtc_ex.c **** 
1824:Drivers/STM32L4xx_HAL_Driver/Src/stm32l4xx_hal_rtc_ex.c ****   /* Check the parameters */
1825:Drivers/STM32L4xx_HAL_Driver/Src/stm32l4xx_hal_rtc_ex.c ****   assert_param(IS_RTC_TAMPER(sTamper->Tamper));
1826:Drivers/STM32L4xx_HAL_Driver/Src/stm32l4xx_hal_rtc_ex.c ****   assert_param(IS_RTC_TAMPER_TRIGGER(sTamper->Trigger));
1827:Drivers/STM32L4xx_HAL_Driver/Src/stm32l4xx_hal_rtc_ex.c ****   assert_param(IS_RTC_TAMPER_ERASE_MODE(sTamper->NoErase));
1828:Drivers/STM32L4xx_HAL_Driver/Src/stm32l4xx_hal_rtc_ex.c ****   assert_param(IS_RTC_TAMPER_MASKFLAG_STATE(sTamper->MaskFlag));
1829:Drivers/STM32L4xx_HAL_Driver/Src/stm32l4xx_hal_rtc_ex.c ****   assert_param(IS_RTC_TAMPER_FILTER(sTamper->Filter));
1830:Drivers/STM32L4xx_HAL_Driver/Src/stm32l4xx_hal_rtc_ex.c ****   assert_param(IS_RTC_TAMPER_SAMPLING_FREQ(sTamper->SamplingFrequency));
1831:Drivers/STM32L4xx_HAL_Driver/Src/stm32l4xx_hal_rtc_ex.c ****   assert_param(IS_RTC_TAMPER_PRECHARGE_DURATION(sTamper->PrechargeDuration));
1832:Drivers/STM32L4xx_HAL_Driver/Src/stm32l4xx_hal_rtc_ex.c ****   assert_param(IS_RTC_TAMPER_PULLUP_STATE(sTamper->TamperPullUp));
1833:Drivers/STM32L4xx_HAL_Driver/Src/stm32l4xx_hal_rtc_ex.c ****   assert_param(IS_RTC_TAMPER_TIMESTAMPONTAMPER_DETECTION(sTamper->TimeStampOnTamperDetection));
1834:Drivers/STM32L4xx_HAL_Driver/Src/stm32l4xx_hal_rtc_ex.c **** 
1835:Drivers/STM32L4xx_HAL_Driver/Src/stm32l4xx_hal_rtc_ex.c ****   /* Process Locked */
1836:Drivers/STM32L4xx_HAL_Driver/Src/stm32l4xx_hal_rtc_ex.c ****   __HAL_LOCK(hrtc);
 2865              		.loc 1 1836 3
 2866 000a 7B68     		ldr	r3, [r7, #4]
 2867 000c 93F82030 		ldrb	r3, [r3, #32]	@ zero_extendqisi2
 2868 0010 012B     		cmp	r3, #1
 2869 0012 01D1     		bne	.L115
 2870              		.loc 1 1836 3 is_stmt 0 discriminator 1
 2871 0014 0223     		movs	r3, #2
 2872              		.loc 1 1836 3
ARM GAS  /tmp/cchDTGWe.s 			page 83


 2873 0016 A9E0     		b	.L116
 2874              	.L115:
 2875              		.loc 1 1836 3 discriminator 2
 2876 0018 7B68     		ldr	r3, [r7, #4]
 2877 001a 0122     		movs	r2, #1
 2878 001c 83F82020 		strb	r2, [r3, #32]
1837:Drivers/STM32L4xx_HAL_Driver/Src/stm32l4xx_hal_rtc_ex.c **** 
1838:Drivers/STM32L4xx_HAL_Driver/Src/stm32l4xx_hal_rtc_ex.c ****   hrtc->State = HAL_RTC_STATE_BUSY;
 2879              		.loc 1 1838 15 is_stmt 1
 2880 0020 7B68     		ldr	r3, [r7, #4]
 2881 0022 0222     		movs	r2, #2
 2882 0024 83F82120 		strb	r2, [r3, #33]
1839:Drivers/STM32L4xx_HAL_Driver/Src/stm32l4xx_hal_rtc_ex.c **** 
1840:Drivers/STM32L4xx_HAL_Driver/Src/stm32l4xx_hal_rtc_ex.c ****   /* Read register */
1841:Drivers/STM32L4xx_HAL_Driver/Src/stm32l4xx_hal_rtc_ex.c ****   tmpreg = hrtc->Instance->TAMPCR;
 2883              		.loc 1 1841 16
 2884 0028 7B68     		ldr	r3, [r7, #4]
 2885 002a 1B68     		ldr	r3, [r3]
 2886              		.loc 1 1841 10
 2887 002c 1B6C     		ldr	r3, [r3, #64]
 2888 002e FB60     		str	r3, [r7, #12]
1842:Drivers/STM32L4xx_HAL_Driver/Src/stm32l4xx_hal_rtc_ex.c **** 
1843:Drivers/STM32L4xx_HAL_Driver/Src/stm32l4xx_hal_rtc_ex.c **** #if defined(RTC_TAMPER1_SUPPORT)
1844:Drivers/STM32L4xx_HAL_Driver/Src/stm32l4xx_hal_rtc_ex.c ****   if ((sTamper->Tamper & RTC_TAMPER_1) != 0)
 2889              		.loc 1 1844 15
 2890 0030 3B68     		ldr	r3, [r7]
 2891 0032 1B68     		ldr	r3, [r3]
 2892              		.loc 1 1844 24
 2893 0034 03F00103 		and	r3, r3, #1
 2894              		.loc 1 1844 6
 2895 0038 002B     		cmp	r3, #0
 2896 003a 21D0     		beq	.L117
1845:Drivers/STM32L4xx_HAL_Driver/Src/stm32l4xx_hal_rtc_ex.c ****   {
1846:Drivers/STM32L4xx_HAL_Driver/Src/stm32l4xx_hal_rtc_ex.c ****     MODIFY_REG(tmpreg,
 2897              		.loc 1 1846 5
 2898 003c FB68     		ldr	r3, [r7, #12]
 2899 003e 23F00712 		bic	r2, r3, #458759
 2900 0042 3B68     		ldr	r3, [r7]
 2901 0044 1B68     		ldr	r3, [r3]
 2902 0046 3968     		ldr	r1, [r7]
 2903 0048 8968     		ldr	r1, [r1, #8]
 2904 004a 0029     		cmp	r1, #0
 2905 004c 01D1     		bne	.L118
 2906              		.loc 1 1846 5 is_stmt 0 discriminator 1
 2907 004e 0021     		movs	r1, #0
 2908 0050 00E0     		b	.L119
 2909              	.L118:
 2910              		.loc 1 1846 5 discriminator 2
 2911 0052 0221     		movs	r1, #2
 2912              	.L119:
 2913              		.loc 1 1846 5 discriminator 4
 2914 0054 0B43     		orrs	r3, r3, r1
 2915 0056 3968     		ldr	r1, [r7]
 2916 0058 C968     		ldr	r1, [r1, #12]
 2917 005a 0029     		cmp	r1, #0
 2918 005c 01D1     		bne	.L120
 2919              		.loc 1 1846 5 discriminator 5
ARM GAS  /tmp/cchDTGWe.s 			page 84


 2920 005e 0021     		movs	r1, #0
 2921 0060 01E0     		b	.L121
 2922              	.L120:
 2923              		.loc 1 1846 5 discriminator 6
 2924 0062 4FF40031 		mov	r1, #131072
 2925              	.L121:
 2926              		.loc 1 1846 5 discriminator 8
 2927 0066 0B43     		orrs	r3, r3, r1
 2928 0068 3968     		ldr	r1, [r7]
 2929 006a 0969     		ldr	r1, [r1, #16]
 2930 006c B1F5802F 		cmp	r1, #262144
 2931 0070 02D1     		bne	.L122
 2932              		.loc 1 1846 5 discriminator 9
 2933 0072 4FF48021 		mov	r1, #262144
 2934 0076 00E0     		b	.L123
 2935              	.L122:
 2936              		.loc 1 1846 5 discriminator 10
 2937 0078 0021     		movs	r1, #0
 2938              	.L123:
 2939              		.loc 1 1846 5 discriminator 12
 2940 007a 0B43     		orrs	r3, r3, r1
 2941 007c 1343     		orrs	r3, r3, r2
 2942 007e FB60     		str	r3, [r7, #12]
 2943              	.L117:
1847:Drivers/STM32L4xx_HAL_Driver/Src/stm32l4xx_hal_rtc_ex.c ****                (RTC_TAMPCR_TAMP1E | RTC_TAMPCR_TAMP1TRG | RTC_TAMPCR_TAMPIE | RTC_TAMPCR_TAMP1IE | 
1848:Drivers/STM32L4xx_HAL_Driver/Src/stm32l4xx_hal_rtc_ex.c ****                sTamper->Tamper | \
1849:Drivers/STM32L4xx_HAL_Driver/Src/stm32l4xx_hal_rtc_ex.c ****                (sTamper->Trigger == RTC_TAMPERTRIGGER_RISINGEDGE ?  0U : RTC_TAMPCR_TAMP1TRG) | \
1850:Drivers/STM32L4xx_HAL_Driver/Src/stm32l4xx_hal_rtc_ex.c ****                (sTamper->NoErase == RTC_TAMPER_ERASE_BACKUP_ENABLE ? 0U : RTC_TAMPCR_TAMP1NOERASE) 
1851:Drivers/STM32L4xx_HAL_Driver/Src/stm32l4xx_hal_rtc_ex.c ****                (sTamper->MaskFlag == RTC_TAMPERMASK_FLAG_ENABLE ? RTC_TAMPCR_TAMP1MF : 0U) \
1852:Drivers/STM32L4xx_HAL_Driver/Src/stm32l4xx_hal_rtc_ex.c ****               );
1853:Drivers/STM32L4xx_HAL_Driver/Src/stm32l4xx_hal_rtc_ex.c ****   }
1854:Drivers/STM32L4xx_HAL_Driver/Src/stm32l4xx_hal_rtc_ex.c **** #endif /* RTC_TAMPER1_SUPPORT */
1855:Drivers/STM32L4xx_HAL_Driver/Src/stm32l4xx_hal_rtc_ex.c **** 
1856:Drivers/STM32L4xx_HAL_Driver/Src/stm32l4xx_hal_rtc_ex.c **** #if defined(RTC_TAMPER2_SUPPORT)
1857:Drivers/STM32L4xx_HAL_Driver/Src/stm32l4xx_hal_rtc_ex.c ****   if ((sTamper->Tamper & RTC_TAMPER_2) != 0)
 2944              		.loc 1 1857 15 is_stmt 1
 2945 0080 3B68     		ldr	r3, [r7]
 2946 0082 1B68     		ldr	r3, [r3]
 2947              		.loc 1 1857 24
 2948 0084 03F00803 		and	r3, r3, #8
 2949              		.loc 1 1857 6
 2950 0088 002B     		cmp	r3, #0
 2951 008a 23D0     		beq	.L124
1858:Drivers/STM32L4xx_HAL_Driver/Src/stm32l4xx_hal_rtc_ex.c ****   {
1859:Drivers/STM32L4xx_HAL_Driver/Src/stm32l4xx_hal_rtc_ex.c ****     MODIFY_REG(tmpreg,
 2952              		.loc 1 1859 5
 2953 008c FB68     		ldr	r3, [r7, #12]
 2954 008e 23F46013 		bic	r3, r3, #3670016
 2955 0092 23F01C03 		bic	r3, r3, #28
 2956 0096 3A68     		ldr	r2, [r7]
 2957 0098 1268     		ldr	r2, [r2]
 2958 009a 3968     		ldr	r1, [r7]
 2959 009c 8968     		ldr	r1, [r1, #8]
 2960 009e 0029     		cmp	r1, #0
 2961 00a0 01D1     		bne	.L125
 2962              		.loc 1 1859 5 is_stmt 0 discriminator 1
 2963 00a2 0021     		movs	r1, #0
ARM GAS  /tmp/cchDTGWe.s 			page 85


 2964 00a4 00E0     		b	.L126
 2965              	.L125:
 2966              		.loc 1 1859 5 discriminator 2
 2967 00a6 1021     		movs	r1, #16
 2968              	.L126:
 2969              		.loc 1 1859 5 discriminator 4
 2970 00a8 0A43     		orrs	r2, r2, r1
 2971 00aa 3968     		ldr	r1, [r7]
 2972 00ac C968     		ldr	r1, [r1, #12]
 2973 00ae 0029     		cmp	r1, #0
 2974 00b0 01D1     		bne	.L127
 2975              		.loc 1 1859 5 discriminator 5
 2976 00b2 0021     		movs	r1, #0
 2977 00b4 01E0     		b	.L128
 2978              	.L127:
 2979              		.loc 1 1859 5 discriminator 6
 2980 00b6 4FF48011 		mov	r1, #1048576
 2981              	.L128:
 2982              		.loc 1 1859 5 discriminator 8
 2983 00ba 0A43     		orrs	r2, r2, r1
 2984 00bc 3968     		ldr	r1, [r7]
 2985 00be 0969     		ldr	r1, [r1, #16]
 2986 00c0 B1F5802F 		cmp	r1, #262144
 2987 00c4 02D1     		bne	.L129
 2988              		.loc 1 1859 5 discriminator 9
 2989 00c6 4FF40011 		mov	r1, #2097152
 2990 00ca 00E0     		b	.L130
 2991              	.L129:
 2992              		.loc 1 1859 5 discriminator 10
 2993 00cc 0021     		movs	r1, #0
 2994              	.L130:
 2995              		.loc 1 1859 5 discriminator 12
 2996 00ce 0A43     		orrs	r2, r2, r1
 2997 00d0 1343     		orrs	r3, r3, r2
 2998 00d2 FB60     		str	r3, [r7, #12]
 2999              	.L124:
1860:Drivers/STM32L4xx_HAL_Driver/Src/stm32l4xx_hal_rtc_ex.c ****                (RTC_TAMPCR_TAMP2E | RTC_TAMPCR_TAMP2TRG | RTC_TAMPCR_TAMPIE | RTC_TAMPCR_TAMP2IE | 
1861:Drivers/STM32L4xx_HAL_Driver/Src/stm32l4xx_hal_rtc_ex.c ****                sTamper->Tamper | \
1862:Drivers/STM32L4xx_HAL_Driver/Src/stm32l4xx_hal_rtc_ex.c ****                (sTamper->Trigger == RTC_TAMPERTRIGGER_RISINGEDGE ?  0U : RTC_TAMPCR_TAMP2TRG) | \
1863:Drivers/STM32L4xx_HAL_Driver/Src/stm32l4xx_hal_rtc_ex.c ****                (sTamper->NoErase == RTC_TAMPER_ERASE_BACKUP_ENABLE ? 0U : RTC_TAMPCR_TAMP2NOERASE) 
1864:Drivers/STM32L4xx_HAL_Driver/Src/stm32l4xx_hal_rtc_ex.c ****                (sTamper->MaskFlag == RTC_TAMPERMASK_FLAG_ENABLE ? RTC_TAMPCR_TAMP2MF : 0U) \
1865:Drivers/STM32L4xx_HAL_Driver/Src/stm32l4xx_hal_rtc_ex.c ****               );
1866:Drivers/STM32L4xx_HAL_Driver/Src/stm32l4xx_hal_rtc_ex.c ****   }
1867:Drivers/STM32L4xx_HAL_Driver/Src/stm32l4xx_hal_rtc_ex.c **** #endif /* RTC_TAMPER2_SUPPORT */
1868:Drivers/STM32L4xx_HAL_Driver/Src/stm32l4xx_hal_rtc_ex.c **** 
1869:Drivers/STM32L4xx_HAL_Driver/Src/stm32l4xx_hal_rtc_ex.c **** #if defined(RTC_TAMPER3_SUPPORT)
1870:Drivers/STM32L4xx_HAL_Driver/Src/stm32l4xx_hal_rtc_ex.c ****   if ((sTamper->Tamper & RTC_TAMPER_3) != 0)
 3000              		.loc 1 1870 15 is_stmt 1
 3001 00d4 3B68     		ldr	r3, [r7]
 3002 00d6 1B68     		ldr	r3, [r3]
 3003              		.loc 1 1870 24
 3004 00d8 03F02003 		and	r3, r3, #32
 3005              		.loc 1 1870 6
 3006 00dc 002B     		cmp	r3, #0
 3007 00de 23D0     		beq	.L131
1871:Drivers/STM32L4xx_HAL_Driver/Src/stm32l4xx_hal_rtc_ex.c ****   {
1872:Drivers/STM32L4xx_HAL_Driver/Src/stm32l4xx_hal_rtc_ex.c ****     MODIFY_REG(tmpreg,
ARM GAS  /tmp/cchDTGWe.s 			page 86


 3008              		.loc 1 1872 5
 3009 00e0 FB68     		ldr	r3, [r7, #12]
 3010 00e2 23F0E073 		bic	r3, r3, #29360128
 3011 00e6 23F06403 		bic	r3, r3, #100
 3012 00ea 3A68     		ldr	r2, [r7]
 3013 00ec 1268     		ldr	r2, [r2]
 3014 00ee 3968     		ldr	r1, [r7]
 3015 00f0 8968     		ldr	r1, [r1, #8]
 3016 00f2 0029     		cmp	r1, #0
 3017 00f4 01D1     		bne	.L132
 3018              		.loc 1 1872 5 is_stmt 0 discriminator 1
 3019 00f6 0021     		movs	r1, #0
 3020 00f8 00E0     		b	.L133
 3021              	.L132:
 3022              		.loc 1 1872 5 discriminator 2
 3023 00fa 4021     		movs	r1, #64
 3024              	.L133:
 3025              		.loc 1 1872 5 discriminator 4
 3026 00fc 0A43     		orrs	r2, r2, r1
 3027 00fe 3968     		ldr	r1, [r7]
 3028 0100 C968     		ldr	r1, [r1, #12]
 3029 0102 0029     		cmp	r1, #0
 3030 0104 01D1     		bne	.L134
 3031              		.loc 1 1872 5 discriminator 5
 3032 0106 0021     		movs	r1, #0
 3033 0108 01E0     		b	.L135
 3034              	.L134:
 3035              		.loc 1 1872 5 discriminator 6
 3036 010a 4FF40001 		mov	r1, #8388608
 3037              	.L135:
 3038              		.loc 1 1872 5 discriminator 8
 3039 010e 0A43     		orrs	r2, r2, r1
 3040 0110 3968     		ldr	r1, [r7]
 3041 0112 0969     		ldr	r1, [r1, #16]
 3042 0114 B1F5802F 		cmp	r1, #262144
 3043 0118 02D1     		bne	.L136
 3044              		.loc 1 1872 5 discriminator 9
 3045 011a 4FF08071 		mov	r1, #16777216
 3046 011e 00E0     		b	.L137
 3047              	.L136:
 3048              		.loc 1 1872 5 discriminator 10
 3049 0120 0021     		movs	r1, #0
 3050              	.L137:
 3051              		.loc 1 1872 5 discriminator 12
 3052 0122 0A43     		orrs	r2, r2, r1
 3053 0124 1343     		orrs	r3, r3, r2
 3054 0126 FB60     		str	r3, [r7, #12]
 3055              	.L131:
1873:Drivers/STM32L4xx_HAL_Driver/Src/stm32l4xx_hal_rtc_ex.c ****                (RTC_TAMPCR_TAMP3E | RTC_TAMPCR_TAMP3TRG | RTC_TAMPCR_TAMPIE | RTC_TAMPCR_TAMP3IE | 
1874:Drivers/STM32L4xx_HAL_Driver/Src/stm32l4xx_hal_rtc_ex.c ****                sTamper->Tamper | \
1875:Drivers/STM32L4xx_HAL_Driver/Src/stm32l4xx_hal_rtc_ex.c ****                (sTamper->Trigger == RTC_TAMPERTRIGGER_RISINGEDGE ?  0U : RTC_TAMPCR_TAMP3TRG) | \
1876:Drivers/STM32L4xx_HAL_Driver/Src/stm32l4xx_hal_rtc_ex.c ****                (sTamper->NoErase == RTC_TAMPER_ERASE_BACKUP_ENABLE ? 0U : RTC_TAMPCR_TAMP3NOERASE) 
1877:Drivers/STM32L4xx_HAL_Driver/Src/stm32l4xx_hal_rtc_ex.c ****                (sTamper->MaskFlag == RTC_TAMPERMASK_FLAG_ENABLE ? RTC_TAMPCR_TAMP3MF : 0U) \
1878:Drivers/STM32L4xx_HAL_Driver/Src/stm32l4xx_hal_rtc_ex.c ****               );
1879:Drivers/STM32L4xx_HAL_Driver/Src/stm32l4xx_hal_rtc_ex.c ****   }
1880:Drivers/STM32L4xx_HAL_Driver/Src/stm32l4xx_hal_rtc_ex.c **** #endif /* RTC_TAMPER3_SUPPORT */
1881:Drivers/STM32L4xx_HAL_Driver/Src/stm32l4xx_hal_rtc_ex.c **** 
ARM GAS  /tmp/cchDTGWe.s 			page 87


1882:Drivers/STM32L4xx_HAL_Driver/Src/stm32l4xx_hal_rtc_ex.c ****   /* Update common parameters */
1883:Drivers/STM32L4xx_HAL_Driver/Src/stm32l4xx_hal_rtc_ex.c ****   MODIFY_REG(tmpreg,
 3056              		.loc 1 1883 3 is_stmt 1
 3057 0128 FB68     		ldr	r3, [r7, #12]
 3058 012a 23F47F43 		bic	r3, r3, #65280
 3059 012e 23F08003 		bic	r3, r3, #128
 3060 0132 3A68     		ldr	r2, [r7]
 3061 0134 5169     		ldr	r1, [r2, #20]
 3062 0136 3A68     		ldr	r2, [r7]
 3063 0138 9269     		ldr	r2, [r2, #24]
 3064 013a 1143     		orrs	r1, r1, r2
 3065 013c 3A68     		ldr	r2, [r7]
 3066 013e D269     		ldr	r2, [r2, #28]
 3067 0140 1143     		orrs	r1, r1, r2
 3068 0142 3A68     		ldr	r2, [r7]
 3069 0144 126A     		ldr	r2, [r2, #32]
 3070 0146 1143     		orrs	r1, r1, r2
 3071 0148 3A68     		ldr	r2, [r7]
 3072 014a 526A     		ldr	r2, [r2, #36]
 3073 014c 0A43     		orrs	r2, r2, r1
 3074 014e 1343     		orrs	r3, r3, r2
 3075 0150 FB60     		str	r3, [r7, #12]
1884:Drivers/STM32L4xx_HAL_Driver/Src/stm32l4xx_hal_rtc_ex.c ****              (RTC_TAMPCR_TAMPTS | RTC_TAMPCR_TAMPFREQ | RTC_TAMPCR_TAMPFLT | RTC_TAMPCR_TAMPPRCH | 
1885:Drivers/STM32L4xx_HAL_Driver/Src/stm32l4xx_hal_rtc_ex.c ****              sTamper->Filter | sTamper->SamplingFrequency | sTamper->PrechargeDuration | sTamper->T
1886:Drivers/STM32L4xx_HAL_Driver/Src/stm32l4xx_hal_rtc_ex.c ****              sTamper->TimeStampOnTamperDetection \
1887:Drivers/STM32L4xx_HAL_Driver/Src/stm32l4xx_hal_rtc_ex.c ****             );
1888:Drivers/STM32L4xx_HAL_Driver/Src/stm32l4xx_hal_rtc_ex.c **** 
1889:Drivers/STM32L4xx_HAL_Driver/Src/stm32l4xx_hal_rtc_ex.c ****   /* Set register */
1890:Drivers/STM32L4xx_HAL_Driver/Src/stm32l4xx_hal_rtc_ex.c ****   WRITE_REG(hrtc->Instance->TAMPCR, tmpreg);
 3076              		.loc 1 1890 3
 3077 0152 7B68     		ldr	r3, [r7, #4]
 3078 0154 1B68     		ldr	r3, [r3]
 3079 0156 FA68     		ldr	r2, [r7, #12]
 3080 0158 1A64     		str	r2, [r3, #64]
1891:Drivers/STM32L4xx_HAL_Driver/Src/stm32l4xx_hal_rtc_ex.c **** 
1892:Drivers/STM32L4xx_HAL_Driver/Src/stm32l4xx_hal_rtc_ex.c ****   hrtc->State = HAL_RTC_STATE_READY;
 3081              		.loc 1 1892 15
 3082 015a 7B68     		ldr	r3, [r7, #4]
 3083 015c 0122     		movs	r2, #1
 3084 015e 83F82120 		strb	r2, [r3, #33]
1893:Drivers/STM32L4xx_HAL_Driver/Src/stm32l4xx_hal_rtc_ex.c **** 
1894:Drivers/STM32L4xx_HAL_Driver/Src/stm32l4xx_hal_rtc_ex.c ****   /* Process Unlocked */
1895:Drivers/STM32L4xx_HAL_Driver/Src/stm32l4xx_hal_rtc_ex.c ****   __HAL_UNLOCK(hrtc);
 3085              		.loc 1 1895 3
 3086 0162 7B68     		ldr	r3, [r7, #4]
 3087 0164 0022     		movs	r2, #0
 3088 0166 83F82020 		strb	r2, [r3, #32]
1896:Drivers/STM32L4xx_HAL_Driver/Src/stm32l4xx_hal_rtc_ex.c **** 
1897:Drivers/STM32L4xx_HAL_Driver/Src/stm32l4xx_hal_rtc_ex.c ****   return HAL_OK;
 3089              		.loc 1 1897 10
 3090 016a 0023     		movs	r3, #0
 3091              	.L116:
1898:Drivers/STM32L4xx_HAL_Driver/Src/stm32l4xx_hal_rtc_ex.c **** }
 3092              		.loc 1 1898 1
 3093 016c 1846     		mov	r0, r3
 3094 016e 1437     		adds	r7, r7, #20
 3095              		.cfi_def_cfa_offset 4
ARM GAS  /tmp/cchDTGWe.s 			page 88


 3096 0170 BD46     		mov	sp, r7
 3097              		.cfi_def_cfa_register 13
 3098              		@ sp needed
 3099 0172 5DF8047B 		ldr	r7, [sp], #4
 3100              		.cfi_restore 7
 3101              		.cfi_def_cfa_offset 0
 3102 0176 7047     		bx	lr
 3103              		.cfi_endproc
 3104              	.LFE471:
 3106              		.section	.text.HAL_RTCEx_SetTamper_IT,"ax",%progbits
 3107              		.align	1
 3108              		.global	HAL_RTCEx_SetTamper_IT
 3109              		.syntax unified
 3110              		.thumb
 3111              		.thumb_func
 3113              	HAL_RTCEx_SetTamper_IT:
 3114              	.LFB472:
1899:Drivers/STM32L4xx_HAL_Driver/Src/stm32l4xx_hal_rtc_ex.c **** #endif /* #if defined(STM32L412xx) || defined(STM32L422xx) || defined (STM32L4P5xx) || defined (STM
1900:Drivers/STM32L4xx_HAL_Driver/Src/stm32l4xx_hal_rtc_ex.c **** 
1901:Drivers/STM32L4xx_HAL_Driver/Src/stm32l4xx_hal_rtc_ex.c **** 
1902:Drivers/STM32L4xx_HAL_Driver/Src/stm32l4xx_hal_rtc_ex.c **** 
1903:Drivers/STM32L4xx_HAL_Driver/Src/stm32l4xx_hal_rtc_ex.c **** #if defined(STM32L412xx) || defined(STM32L422xx) || defined (STM32L4P5xx) || defined (STM32L4Q5xx)
1904:Drivers/STM32L4xx_HAL_Driver/Src/stm32l4xx_hal_rtc_ex.c **** /**
1905:Drivers/STM32L4xx_HAL_Driver/Src/stm32l4xx_hal_rtc_ex.c ****   * @brief  Set Tamper with interrupt.
1906:Drivers/STM32L4xx_HAL_Driver/Src/stm32l4xx_hal_rtc_ex.c ****   * @param  hrtc RTC handle
1907:Drivers/STM32L4xx_HAL_Driver/Src/stm32l4xx_hal_rtc_ex.c ****   * @param  sTamper Pointer to Tamper Structure.
1908:Drivers/STM32L4xx_HAL_Driver/Src/stm32l4xx_hal_rtc_ex.c ****   * @retval HAL status
1909:Drivers/STM32L4xx_HAL_Driver/Src/stm32l4xx_hal_rtc_ex.c ****   */
1910:Drivers/STM32L4xx_HAL_Driver/Src/stm32l4xx_hal_rtc_ex.c **** HAL_StatusTypeDef HAL_RTCEx_SetTamper_IT(RTC_HandleTypeDef *hrtc, RTC_TamperTypeDef *sTamper)
1911:Drivers/STM32L4xx_HAL_Driver/Src/stm32l4xx_hal_rtc_ex.c **** {
1912:Drivers/STM32L4xx_HAL_Driver/Src/stm32l4xx_hal_rtc_ex.c ****   uint32_t tmpreg;
1913:Drivers/STM32L4xx_HAL_Driver/Src/stm32l4xx_hal_rtc_ex.c ****   /* Process TAMP instance pointer */
1914:Drivers/STM32L4xx_HAL_Driver/Src/stm32l4xx_hal_rtc_ex.c ****   TAMP_TypeDef *tamp = (TAMP_TypeDef *)((uint32_t)hrtc->Instance + hrtc->TampOffset);
1915:Drivers/STM32L4xx_HAL_Driver/Src/stm32l4xx_hal_rtc_ex.c **** 
1916:Drivers/STM32L4xx_HAL_Driver/Src/stm32l4xx_hal_rtc_ex.c ****   /* Check the parameters */
1917:Drivers/STM32L4xx_HAL_Driver/Src/stm32l4xx_hal_rtc_ex.c ****   assert_param(IS_RTC_TAMPER(sTamper->Tamper));
1918:Drivers/STM32L4xx_HAL_Driver/Src/stm32l4xx_hal_rtc_ex.c ****   assert_param(IS_RTC_TAMPER_TRIGGER(sTamper->Trigger));
1919:Drivers/STM32L4xx_HAL_Driver/Src/stm32l4xx_hal_rtc_ex.c ****   assert_param(IS_RTC_TAMPER_ERASE_MODE(sTamper->NoErase));
1920:Drivers/STM32L4xx_HAL_Driver/Src/stm32l4xx_hal_rtc_ex.c ****   assert_param(IS_RTC_TAMPER_MASKFLAG_STATE(sTamper->MaskFlag));
1921:Drivers/STM32L4xx_HAL_Driver/Src/stm32l4xx_hal_rtc_ex.c ****   assert_param(IS_RTC_TAMPER_FILTER(sTamper->Filter));
1922:Drivers/STM32L4xx_HAL_Driver/Src/stm32l4xx_hal_rtc_ex.c ****   assert_param(IS_RTC_TAMPER_SAMPLING_FREQ(sTamper->SamplingFrequency));
1923:Drivers/STM32L4xx_HAL_Driver/Src/stm32l4xx_hal_rtc_ex.c ****   assert_param(IS_RTC_TAMPER_PRECHARGE_DURATION(sTamper->PrechargeDuration));
1924:Drivers/STM32L4xx_HAL_Driver/Src/stm32l4xx_hal_rtc_ex.c ****   assert_param(IS_RTC_TAMPER_PULLUP_STATE(sTamper->TamperPullUp));
1925:Drivers/STM32L4xx_HAL_Driver/Src/stm32l4xx_hal_rtc_ex.c ****   assert_param(IS_RTC_TAMPER_TIMESTAMPONTAMPER_DETECTION(sTamper->TimeStampOnTamperDetection));
1926:Drivers/STM32L4xx_HAL_Driver/Src/stm32l4xx_hal_rtc_ex.c **** 
1927:Drivers/STM32L4xx_HAL_Driver/Src/stm32l4xx_hal_rtc_ex.c ****   /* Copy configuration register into temporary variable */
1928:Drivers/STM32L4xx_HAL_Driver/Src/stm32l4xx_hal_rtc_ex.c ****   tmpreg = tamp->CR2;
1929:Drivers/STM32L4xx_HAL_Driver/Src/stm32l4xx_hal_rtc_ex.c **** 
1930:Drivers/STM32L4xx_HAL_Driver/Src/stm32l4xx_hal_rtc_ex.c ****   /* Clear the bits that are going to be configured and leave the others unchanged */
1931:Drivers/STM32L4xx_HAL_Driver/Src/stm32l4xx_hal_rtc_ex.c ****   tmpreg &= ~((sTamper->Tamper << TAMP_CR2_TAMP1TRG_Pos) | (sTamper->Tamper << TAMP_CR2_TAMP1MSK_Po
1932:Drivers/STM32L4xx_HAL_Driver/Src/stm32l4xx_hal_rtc_ex.c **** 
1933:Drivers/STM32L4xx_HAL_Driver/Src/stm32l4xx_hal_rtc_ex.c ****   if ((sTamper->Trigger == RTC_TAMPERTRIGGER_HIGHLEVEL) || (sTamper->Trigger == RTC_TAMPERTRIGGER_F
1934:Drivers/STM32L4xx_HAL_Driver/Src/stm32l4xx_hal_rtc_ex.c ****   {
1935:Drivers/STM32L4xx_HAL_Driver/Src/stm32l4xx_hal_rtc_ex.c ****     tmpreg |= (sTamper->Tamper << TAMP_CR2_TAMP1TRG_Pos);
1936:Drivers/STM32L4xx_HAL_Driver/Src/stm32l4xx_hal_rtc_ex.c ****   }
1937:Drivers/STM32L4xx_HAL_Driver/Src/stm32l4xx_hal_rtc_ex.c **** 
1938:Drivers/STM32L4xx_HAL_Driver/Src/stm32l4xx_hal_rtc_ex.c ****   /* Configure the tamper flags masking bit */
ARM GAS  /tmp/cchDTGWe.s 			page 89


1939:Drivers/STM32L4xx_HAL_Driver/Src/stm32l4xx_hal_rtc_ex.c ****   if (sTamper->MaskFlag != RTC_TAMPERMASK_FLAG_DISABLE)
1940:Drivers/STM32L4xx_HAL_Driver/Src/stm32l4xx_hal_rtc_ex.c ****   {
1941:Drivers/STM32L4xx_HAL_Driver/Src/stm32l4xx_hal_rtc_ex.c ****     tmpreg |= (sTamper->Tamper << TAMP_CR2_TAMP1MSK_Pos);
1942:Drivers/STM32L4xx_HAL_Driver/Src/stm32l4xx_hal_rtc_ex.c ****   }
1943:Drivers/STM32L4xx_HAL_Driver/Src/stm32l4xx_hal_rtc_ex.c **** 
1944:Drivers/STM32L4xx_HAL_Driver/Src/stm32l4xx_hal_rtc_ex.c ****   /* Configure the tamper backup registers erasure bit */
1945:Drivers/STM32L4xx_HAL_Driver/Src/stm32l4xx_hal_rtc_ex.c ****   if (sTamper->NoErase != RTC_TAMPER_ERASE_BACKUP_ENABLE)
1946:Drivers/STM32L4xx_HAL_Driver/Src/stm32l4xx_hal_rtc_ex.c ****   {
1947:Drivers/STM32L4xx_HAL_Driver/Src/stm32l4xx_hal_rtc_ex.c ****     tmpreg |= (sTamper->Tamper << TAMP_CR2_TAMP1NOERASE_Pos);
1948:Drivers/STM32L4xx_HAL_Driver/Src/stm32l4xx_hal_rtc_ex.c ****   }
1949:Drivers/STM32L4xx_HAL_Driver/Src/stm32l4xx_hal_rtc_ex.c ****   tamp->CR2 = tmpreg;
1950:Drivers/STM32L4xx_HAL_Driver/Src/stm32l4xx_hal_rtc_ex.c **** 
1951:Drivers/STM32L4xx_HAL_Driver/Src/stm32l4xx_hal_rtc_ex.c ****   /* Configure filtering parameters */
1952:Drivers/STM32L4xx_HAL_Driver/Src/stm32l4xx_hal_rtc_ex.c ****   tamp->FLTCR = (sTamper->Filter) | (sTamper->SamplingFrequency) | \
1953:Drivers/STM32L4xx_HAL_Driver/Src/stm32l4xx_hal_rtc_ex.c ****                 (sTamper->PrechargeDuration) | (sTamper->TamperPullUp);
1954:Drivers/STM32L4xx_HAL_Driver/Src/stm32l4xx_hal_rtc_ex.c **** 
1955:Drivers/STM32L4xx_HAL_Driver/Src/stm32l4xx_hal_rtc_ex.c ****   /* Configure Timestamp saving on tamper detection */
1956:Drivers/STM32L4xx_HAL_Driver/Src/stm32l4xx_hal_rtc_ex.c ****   if ((hrtc->Instance->CR & RTC_CR_TAMPTS) != (sTamper->TimeStampOnTamperDetection))
1957:Drivers/STM32L4xx_HAL_Driver/Src/stm32l4xx_hal_rtc_ex.c ****   {
1958:Drivers/STM32L4xx_HAL_Driver/Src/stm32l4xx_hal_rtc_ex.c ****     __HAL_RTC_WRITEPROTECTION_DISABLE(hrtc);
1959:Drivers/STM32L4xx_HAL_Driver/Src/stm32l4xx_hal_rtc_ex.c ****     tmpreg = (hrtc->Instance->CR & ~RTC_CR_TAMPTS);
1960:Drivers/STM32L4xx_HAL_Driver/Src/stm32l4xx_hal_rtc_ex.c ****     hrtc->Instance->CR = (tmpreg | (sTamper->TimeStampOnTamperDetection));
1961:Drivers/STM32L4xx_HAL_Driver/Src/stm32l4xx_hal_rtc_ex.c ****     __HAL_RTC_WRITEPROTECTION_ENABLE(hrtc);
1962:Drivers/STM32L4xx_HAL_Driver/Src/stm32l4xx_hal_rtc_ex.c ****   }
1963:Drivers/STM32L4xx_HAL_Driver/Src/stm32l4xx_hal_rtc_ex.c **** 
1964:Drivers/STM32L4xx_HAL_Driver/Src/stm32l4xx_hal_rtc_ex.c ****   /* Configure RTC Tamper Interrupt: EXTI configuration */
1965:Drivers/STM32L4xx_HAL_Driver/Src/stm32l4xx_hal_rtc_ex.c ****   __HAL_RTC_TAMPER_TIMESTAMP_EXTI_ENABLE_IT();
1966:Drivers/STM32L4xx_HAL_Driver/Src/stm32l4xx_hal_rtc_ex.c ****   __HAL_RTC_TAMPER_TIMESTAMP_EXTI_ENABLE_RISING_FALLING_EDGE();
1967:Drivers/STM32L4xx_HAL_Driver/Src/stm32l4xx_hal_rtc_ex.c **** 
1968:Drivers/STM32L4xx_HAL_Driver/Src/stm32l4xx_hal_rtc_ex.c ****   /* Enable interrupt on selected tamper */
1969:Drivers/STM32L4xx_HAL_Driver/Src/stm32l4xx_hal_rtc_ex.c ****   tamp->IER |= sTamper->Tamper;
1970:Drivers/STM32L4xx_HAL_Driver/Src/stm32l4xx_hal_rtc_ex.c **** 
1971:Drivers/STM32L4xx_HAL_Driver/Src/stm32l4xx_hal_rtc_ex.c ****   /* Enable selected tamper */
1972:Drivers/STM32L4xx_HAL_Driver/Src/stm32l4xx_hal_rtc_ex.c ****   tamp->CR1 |= sTamper->Tamper;
1973:Drivers/STM32L4xx_HAL_Driver/Src/stm32l4xx_hal_rtc_ex.c **** 
1974:Drivers/STM32L4xx_HAL_Driver/Src/stm32l4xx_hal_rtc_ex.c ****   return HAL_OK;
1975:Drivers/STM32L4xx_HAL_Driver/Src/stm32l4xx_hal_rtc_ex.c **** }
1976:Drivers/STM32L4xx_HAL_Driver/Src/stm32l4xx_hal_rtc_ex.c **** #else /* #if defined(STM32L412xx) || defined(STM32L422xx) || defined (STM32L4P5xx) || defined (STM3
1977:Drivers/STM32L4xx_HAL_Driver/Src/stm32l4xx_hal_rtc_ex.c **** 
1978:Drivers/STM32L4xx_HAL_Driver/Src/stm32l4xx_hal_rtc_ex.c **** /**
1979:Drivers/STM32L4xx_HAL_Driver/Src/stm32l4xx_hal_rtc_ex.c ****   * @brief  Set Tamper with interrupt.
1980:Drivers/STM32L4xx_HAL_Driver/Src/stm32l4xx_hal_rtc_ex.c ****    * @param  hrtc RTC handle
1981:Drivers/STM32L4xx_HAL_Driver/Src/stm32l4xx_hal_rtc_ex.c ****   * @param  sTamper Pointer to Tamper Structure.
1982:Drivers/STM32L4xx_HAL_Driver/Src/stm32l4xx_hal_rtc_ex.c ****   * @retval HAL status
1983:Drivers/STM32L4xx_HAL_Driver/Src/stm32l4xx_hal_rtc_ex.c ****   */
1984:Drivers/STM32L4xx_HAL_Driver/Src/stm32l4xx_hal_rtc_ex.c **** HAL_StatusTypeDef HAL_RTCEx_SetTamper_IT(RTC_HandleTypeDef *hrtc, RTC_TamperTypeDef *sTamper)
1985:Drivers/STM32L4xx_HAL_Driver/Src/stm32l4xx_hal_rtc_ex.c **** {
 3115              		.loc 1 1985 1
 3116              		.cfi_startproc
 3117              		@ args = 0, pretend = 0, frame = 16
 3118              		@ frame_needed = 1, uses_anonymous_args = 0
 3119              		@ link register save eliminated.
 3120 0000 80B4     		push	{r7}
 3121              		.cfi_def_cfa_offset 4
 3122              		.cfi_offset 7, -4
 3123 0002 85B0     		sub	sp, sp, #20
 3124              		.cfi_def_cfa_offset 24
ARM GAS  /tmp/cchDTGWe.s 			page 90


 3125 0004 00AF     		add	r7, sp, #0
 3126              		.cfi_def_cfa_register 7
 3127 0006 7860     		str	r0, [r7, #4]
 3128 0008 3960     		str	r1, [r7]
1986:Drivers/STM32L4xx_HAL_Driver/Src/stm32l4xx_hal_rtc_ex.c ****   uint32_t tmpreg;
1987:Drivers/STM32L4xx_HAL_Driver/Src/stm32l4xx_hal_rtc_ex.c **** 
1988:Drivers/STM32L4xx_HAL_Driver/Src/stm32l4xx_hal_rtc_ex.c ****   /* Check the parameters */
1989:Drivers/STM32L4xx_HAL_Driver/Src/stm32l4xx_hal_rtc_ex.c ****   assert_param(IS_RTC_TAMPER(sTamper->Tamper));
1990:Drivers/STM32L4xx_HAL_Driver/Src/stm32l4xx_hal_rtc_ex.c ****   assert_param(IS_RTC_TAMPER_INTERRUPT(sTamper->Interrupt));
1991:Drivers/STM32L4xx_HAL_Driver/Src/stm32l4xx_hal_rtc_ex.c ****   assert_param(IS_RTC_TAMPER_TRIGGER(sTamper->Trigger));
1992:Drivers/STM32L4xx_HAL_Driver/Src/stm32l4xx_hal_rtc_ex.c ****   assert_param(IS_RTC_TAMPER_ERASE_MODE(sTamper->NoErase));
1993:Drivers/STM32L4xx_HAL_Driver/Src/stm32l4xx_hal_rtc_ex.c ****   assert_param(IS_RTC_TAMPER_MASKFLAG_STATE(sTamper->MaskFlag));
1994:Drivers/STM32L4xx_HAL_Driver/Src/stm32l4xx_hal_rtc_ex.c ****   assert_param(IS_RTC_TAMPER_FILTER(sTamper->Filter));
1995:Drivers/STM32L4xx_HAL_Driver/Src/stm32l4xx_hal_rtc_ex.c ****   assert_param(IS_RTC_TAMPER_SAMPLING_FREQ(sTamper->SamplingFrequency));
1996:Drivers/STM32L4xx_HAL_Driver/Src/stm32l4xx_hal_rtc_ex.c ****   assert_param(IS_RTC_TAMPER_PRECHARGE_DURATION(sTamper->PrechargeDuration));
1997:Drivers/STM32L4xx_HAL_Driver/Src/stm32l4xx_hal_rtc_ex.c ****   assert_param(IS_RTC_TAMPER_PULLUP_STATE(sTamper->TamperPullUp));
1998:Drivers/STM32L4xx_HAL_Driver/Src/stm32l4xx_hal_rtc_ex.c ****   assert_param(IS_RTC_TAMPER_TIMESTAMPONTAMPER_DETECTION(sTamper->TimeStampOnTamperDetection));
1999:Drivers/STM32L4xx_HAL_Driver/Src/stm32l4xx_hal_rtc_ex.c **** 
2000:Drivers/STM32L4xx_HAL_Driver/Src/stm32l4xx_hal_rtc_ex.c ****   /* Process Locked */
2001:Drivers/STM32L4xx_HAL_Driver/Src/stm32l4xx_hal_rtc_ex.c ****   __HAL_LOCK(hrtc);
 3129              		.loc 1 2001 3
 3130 000a 7B68     		ldr	r3, [r7, #4]
 3131 000c 93F82030 		ldrb	r3, [r3, #32]	@ zero_extendqisi2
 3132 0010 012B     		cmp	r3, #1
 3133 0012 01D1     		bne	.L139
 3134              		.loc 1 2001 3 is_stmt 0 discriminator 1
 3135 0014 0223     		movs	r3, #2
 3136              		.loc 1 2001 3
 3137 0016 BEE0     		b	.L140
 3138              	.L139:
 3139              		.loc 1 2001 3 discriminator 2
 3140 0018 7B68     		ldr	r3, [r7, #4]
 3141 001a 0122     		movs	r2, #1
 3142 001c 83F82020 		strb	r2, [r3, #32]
2002:Drivers/STM32L4xx_HAL_Driver/Src/stm32l4xx_hal_rtc_ex.c **** 
2003:Drivers/STM32L4xx_HAL_Driver/Src/stm32l4xx_hal_rtc_ex.c ****   hrtc->State = HAL_RTC_STATE_BUSY;
 3143              		.loc 1 2003 15 is_stmt 1
 3144 0020 7B68     		ldr	r3, [r7, #4]
 3145 0022 0222     		movs	r2, #2
 3146 0024 83F82120 		strb	r2, [r3, #33]
2004:Drivers/STM32L4xx_HAL_Driver/Src/stm32l4xx_hal_rtc_ex.c **** 
2005:Drivers/STM32L4xx_HAL_Driver/Src/stm32l4xx_hal_rtc_ex.c ****   /* Read register */
2006:Drivers/STM32L4xx_HAL_Driver/Src/stm32l4xx_hal_rtc_ex.c ****   tmpreg = hrtc->Instance->TAMPCR;
 3147              		.loc 1 2006 16
 3148 0028 7B68     		ldr	r3, [r7, #4]
 3149 002a 1B68     		ldr	r3, [r3]
 3150              		.loc 1 2006 10
 3151 002c 1B6C     		ldr	r3, [r3, #64]
 3152 002e FB60     		str	r3, [r7, #12]
2007:Drivers/STM32L4xx_HAL_Driver/Src/stm32l4xx_hal_rtc_ex.c **** 
2008:Drivers/STM32L4xx_HAL_Driver/Src/stm32l4xx_hal_rtc_ex.c **** #if defined(RTC_TAMPER1_SUPPORT)
2009:Drivers/STM32L4xx_HAL_Driver/Src/stm32l4xx_hal_rtc_ex.c ****   if ((sTamper->Tamper & RTC_TAMPER_1) != 0)
 3153              		.loc 1 2009 15
 3154 0030 3B68     		ldr	r3, [r7]
 3155 0032 1B68     		ldr	r3, [r3]
 3156              		.loc 1 2009 24
 3157 0034 03F00103 		and	r3, r3, #1
ARM GAS  /tmp/cchDTGWe.s 			page 91


 3158              		.loc 1 2009 6
 3159 0038 002B     		cmp	r3, #0
 3160 003a 24D0     		beq	.L141
2010:Drivers/STM32L4xx_HAL_Driver/Src/stm32l4xx_hal_rtc_ex.c ****   {
2011:Drivers/STM32L4xx_HAL_Driver/Src/stm32l4xx_hal_rtc_ex.c ****     MODIFY_REG(tmpreg,
 3161              		.loc 1 2011 5
 3162 003c FB68     		ldr	r3, [r7, #12]
 3163 003e 23F00712 		bic	r2, r3, #458759
 3164 0042 3B68     		ldr	r3, [r7]
 3165 0044 1968     		ldr	r1, [r3]
 3166 0046 3B68     		ldr	r3, [r7]
 3167 0048 5B68     		ldr	r3, [r3, #4]
 3168 004a 0B43     		orrs	r3, r3, r1
 3169 004c 3968     		ldr	r1, [r7]
 3170 004e 8968     		ldr	r1, [r1, #8]
 3171 0050 0029     		cmp	r1, #0
 3172 0052 01D1     		bne	.L142
 3173              		.loc 1 2011 5 is_stmt 0 discriminator 1
 3174 0054 0021     		movs	r1, #0
 3175 0056 00E0     		b	.L143
 3176              	.L142:
 3177              		.loc 1 2011 5 discriminator 2
 3178 0058 0221     		movs	r1, #2
 3179              	.L143:
 3180              		.loc 1 2011 5 discriminator 4
 3181 005a 0B43     		orrs	r3, r3, r1
 3182 005c 3968     		ldr	r1, [r7]
 3183 005e C968     		ldr	r1, [r1, #12]
 3184 0060 0029     		cmp	r1, #0
 3185 0062 01D1     		bne	.L144
 3186              		.loc 1 2011 5 discriminator 5
 3187 0064 0021     		movs	r1, #0
 3188 0066 01E0     		b	.L145
 3189              	.L144:
 3190              		.loc 1 2011 5 discriminator 6
 3191 0068 4FF40031 		mov	r1, #131072
 3192              	.L145:
 3193              		.loc 1 2011 5 discriminator 8
 3194 006c 0B43     		orrs	r3, r3, r1
 3195 006e 3968     		ldr	r1, [r7]
 3196 0070 0969     		ldr	r1, [r1, #16]
 3197 0072 B1F5802F 		cmp	r1, #262144
 3198 0076 02D1     		bne	.L146
 3199              		.loc 1 2011 5 discriminator 9
 3200 0078 4FF48021 		mov	r1, #262144
 3201 007c 00E0     		b	.L147
 3202              	.L146:
 3203              		.loc 1 2011 5 discriminator 10
 3204 007e 0021     		movs	r1, #0
 3205              	.L147:
 3206              		.loc 1 2011 5 discriminator 12
 3207 0080 0B43     		orrs	r3, r3, r1
 3208 0082 1343     		orrs	r3, r3, r2
 3209 0084 FB60     		str	r3, [r7, #12]
 3210              	.L141:
2012:Drivers/STM32L4xx_HAL_Driver/Src/stm32l4xx_hal_rtc_ex.c ****                (RTC_TAMPCR_TAMP1E | RTC_TAMPCR_TAMP1TRG | RTC_TAMPCR_TAMPIE | RTC_TAMPCR_TAMP1IE | 
2013:Drivers/STM32L4xx_HAL_Driver/Src/stm32l4xx_hal_rtc_ex.c ****                sTamper->Tamper | sTamper->Interrupt | \
ARM GAS  /tmp/cchDTGWe.s 			page 92


2014:Drivers/STM32L4xx_HAL_Driver/Src/stm32l4xx_hal_rtc_ex.c ****                (sTamper->Trigger == RTC_TAMPERTRIGGER_RISINGEDGE ?  0U : RTC_TAMPCR_TAMP1TRG) | \
2015:Drivers/STM32L4xx_HAL_Driver/Src/stm32l4xx_hal_rtc_ex.c ****                (sTamper->NoErase == RTC_TAMPER_ERASE_BACKUP_ENABLE ? 0U : RTC_TAMPCR_TAMP1NOERASE) 
2016:Drivers/STM32L4xx_HAL_Driver/Src/stm32l4xx_hal_rtc_ex.c ****                (sTamper->MaskFlag == RTC_TAMPERMASK_FLAG_ENABLE ? RTC_TAMPCR_TAMP1MF : 0U) \
2017:Drivers/STM32L4xx_HAL_Driver/Src/stm32l4xx_hal_rtc_ex.c ****               );
2018:Drivers/STM32L4xx_HAL_Driver/Src/stm32l4xx_hal_rtc_ex.c ****   }
2019:Drivers/STM32L4xx_HAL_Driver/Src/stm32l4xx_hal_rtc_ex.c **** #endif /* RTC_TAMPER1_SUPPORT */
2020:Drivers/STM32L4xx_HAL_Driver/Src/stm32l4xx_hal_rtc_ex.c **** 
2021:Drivers/STM32L4xx_HAL_Driver/Src/stm32l4xx_hal_rtc_ex.c **** #if defined(RTC_TAMPER2_SUPPORT)
2022:Drivers/STM32L4xx_HAL_Driver/Src/stm32l4xx_hal_rtc_ex.c ****   if ((sTamper->Tamper & RTC_TAMPER_2) != 0)
 3211              		.loc 1 2022 15 is_stmt 1
 3212 0086 3B68     		ldr	r3, [r7]
 3213 0088 1B68     		ldr	r3, [r3]
 3214              		.loc 1 2022 24
 3215 008a 03F00803 		and	r3, r3, #8
 3216              		.loc 1 2022 6
 3217 008e 002B     		cmp	r3, #0
 3218 0090 26D0     		beq	.L148
2023:Drivers/STM32L4xx_HAL_Driver/Src/stm32l4xx_hal_rtc_ex.c ****   {
2024:Drivers/STM32L4xx_HAL_Driver/Src/stm32l4xx_hal_rtc_ex.c ****     MODIFY_REG(tmpreg,
 3219              		.loc 1 2024 5
 3220 0092 FB68     		ldr	r3, [r7, #12]
 3221 0094 23F46013 		bic	r3, r3, #3670016
 3222 0098 23F01C03 		bic	r3, r3, #28
 3223 009c 3A68     		ldr	r2, [r7]
 3224 009e 1168     		ldr	r1, [r2]
 3225 00a0 3A68     		ldr	r2, [r7]
 3226 00a2 5268     		ldr	r2, [r2, #4]
 3227 00a4 0A43     		orrs	r2, r2, r1
 3228 00a6 3968     		ldr	r1, [r7]
 3229 00a8 8968     		ldr	r1, [r1, #8]
 3230 00aa 0029     		cmp	r1, #0
 3231 00ac 01D1     		bne	.L149
 3232              		.loc 1 2024 5 is_stmt 0 discriminator 1
 3233 00ae 0021     		movs	r1, #0
 3234 00b0 00E0     		b	.L150
 3235              	.L149:
 3236              		.loc 1 2024 5 discriminator 2
 3237 00b2 1021     		movs	r1, #16
 3238              	.L150:
 3239              		.loc 1 2024 5 discriminator 4
 3240 00b4 0A43     		orrs	r2, r2, r1
 3241 00b6 3968     		ldr	r1, [r7]
 3242 00b8 C968     		ldr	r1, [r1, #12]
 3243 00ba 0029     		cmp	r1, #0
 3244 00bc 01D1     		bne	.L151
 3245              		.loc 1 2024 5 discriminator 5
 3246 00be 0021     		movs	r1, #0
 3247 00c0 01E0     		b	.L152
 3248              	.L151:
 3249              		.loc 1 2024 5 discriminator 6
 3250 00c2 4FF48011 		mov	r1, #1048576
 3251              	.L152:
 3252              		.loc 1 2024 5 discriminator 8
 3253 00c6 0A43     		orrs	r2, r2, r1
 3254 00c8 3968     		ldr	r1, [r7]
 3255 00ca 0969     		ldr	r1, [r1, #16]
 3256 00cc B1F5802F 		cmp	r1, #262144
ARM GAS  /tmp/cchDTGWe.s 			page 93


 3257 00d0 02D1     		bne	.L153
 3258              		.loc 1 2024 5 discriminator 9
 3259 00d2 4FF40011 		mov	r1, #2097152
 3260 00d6 00E0     		b	.L154
 3261              	.L153:
 3262              		.loc 1 2024 5 discriminator 10
 3263 00d8 0021     		movs	r1, #0
 3264              	.L154:
 3265              		.loc 1 2024 5 discriminator 12
 3266 00da 0A43     		orrs	r2, r2, r1
 3267 00dc 1343     		orrs	r3, r3, r2
 3268 00de FB60     		str	r3, [r7, #12]
 3269              	.L148:
2025:Drivers/STM32L4xx_HAL_Driver/Src/stm32l4xx_hal_rtc_ex.c ****                (RTC_TAMPCR_TAMP2E | RTC_TAMPCR_TAMP2TRG | RTC_TAMPCR_TAMPIE | RTC_TAMPCR_TAMP2IE | 
2026:Drivers/STM32L4xx_HAL_Driver/Src/stm32l4xx_hal_rtc_ex.c ****                sTamper->Tamper | sTamper->Interrupt | \
2027:Drivers/STM32L4xx_HAL_Driver/Src/stm32l4xx_hal_rtc_ex.c ****                (sTamper->Trigger == RTC_TAMPERTRIGGER_RISINGEDGE ?  0U : RTC_TAMPCR_TAMP2TRG) | \
2028:Drivers/STM32L4xx_HAL_Driver/Src/stm32l4xx_hal_rtc_ex.c ****                (sTamper->NoErase == RTC_TAMPER_ERASE_BACKUP_ENABLE ? 0U : RTC_TAMPCR_TAMP2NOERASE) 
2029:Drivers/STM32L4xx_HAL_Driver/Src/stm32l4xx_hal_rtc_ex.c ****                (sTamper->MaskFlag == RTC_TAMPERMASK_FLAG_ENABLE ? RTC_TAMPCR_TAMP2MF : 0U) \
2030:Drivers/STM32L4xx_HAL_Driver/Src/stm32l4xx_hal_rtc_ex.c ****               );
2031:Drivers/STM32L4xx_HAL_Driver/Src/stm32l4xx_hal_rtc_ex.c ****   }
2032:Drivers/STM32L4xx_HAL_Driver/Src/stm32l4xx_hal_rtc_ex.c **** #endif /* RTC_TAMPER2_SUPPORT */
2033:Drivers/STM32L4xx_HAL_Driver/Src/stm32l4xx_hal_rtc_ex.c **** 
2034:Drivers/STM32L4xx_HAL_Driver/Src/stm32l4xx_hal_rtc_ex.c **** #if defined(RTC_TAMPER3_SUPPORT)
2035:Drivers/STM32L4xx_HAL_Driver/Src/stm32l4xx_hal_rtc_ex.c ****   if ((sTamper->Tamper & RTC_TAMPER_3) != 0)
 3270              		.loc 1 2035 15 is_stmt 1
 3271 00e0 3B68     		ldr	r3, [r7]
 3272 00e2 1B68     		ldr	r3, [r3]
 3273              		.loc 1 2035 24
 3274 00e4 03F02003 		and	r3, r3, #32
 3275              		.loc 1 2035 6
 3276 00e8 002B     		cmp	r3, #0
 3277 00ea 26D0     		beq	.L155
2036:Drivers/STM32L4xx_HAL_Driver/Src/stm32l4xx_hal_rtc_ex.c ****   {
2037:Drivers/STM32L4xx_HAL_Driver/Src/stm32l4xx_hal_rtc_ex.c ****     MODIFY_REG(tmpreg,
 3278              		.loc 1 2037 5
 3279 00ec FB68     		ldr	r3, [r7, #12]
 3280 00ee 23F0E073 		bic	r3, r3, #29360128
 3281 00f2 23F06403 		bic	r3, r3, #100
 3282 00f6 3A68     		ldr	r2, [r7]
 3283 00f8 1168     		ldr	r1, [r2]
 3284 00fa 3A68     		ldr	r2, [r7]
 3285 00fc 5268     		ldr	r2, [r2, #4]
 3286 00fe 0A43     		orrs	r2, r2, r1
 3287 0100 3968     		ldr	r1, [r7]
 3288 0102 8968     		ldr	r1, [r1, #8]
 3289 0104 0029     		cmp	r1, #0
 3290 0106 01D1     		bne	.L156
 3291              		.loc 1 2037 5 is_stmt 0 discriminator 1
 3292 0108 0021     		movs	r1, #0
 3293 010a 00E0     		b	.L157
 3294              	.L156:
 3295              		.loc 1 2037 5 discriminator 2
 3296 010c 4021     		movs	r1, #64
 3297              	.L157:
 3298              		.loc 1 2037 5 discriminator 4
 3299 010e 0A43     		orrs	r2, r2, r1
 3300 0110 3968     		ldr	r1, [r7]
ARM GAS  /tmp/cchDTGWe.s 			page 94


 3301 0112 C968     		ldr	r1, [r1, #12]
 3302 0114 0029     		cmp	r1, #0
 3303 0116 01D1     		bne	.L158
 3304              		.loc 1 2037 5 discriminator 5
 3305 0118 0021     		movs	r1, #0
 3306 011a 01E0     		b	.L159
 3307              	.L158:
 3308              		.loc 1 2037 5 discriminator 6
 3309 011c 4FF40001 		mov	r1, #8388608
 3310              	.L159:
 3311              		.loc 1 2037 5 discriminator 8
 3312 0120 0A43     		orrs	r2, r2, r1
 3313 0122 3968     		ldr	r1, [r7]
 3314 0124 0969     		ldr	r1, [r1, #16]
 3315 0126 B1F5802F 		cmp	r1, #262144
 3316 012a 02D1     		bne	.L160
 3317              		.loc 1 2037 5 discriminator 9
 3318 012c 4FF08071 		mov	r1, #16777216
 3319 0130 00E0     		b	.L161
 3320              	.L160:
 3321              		.loc 1 2037 5 discriminator 10
 3322 0132 0021     		movs	r1, #0
 3323              	.L161:
 3324              		.loc 1 2037 5 discriminator 12
 3325 0134 0A43     		orrs	r2, r2, r1
 3326 0136 1343     		orrs	r3, r3, r2
 3327 0138 FB60     		str	r3, [r7, #12]
 3328              	.L155:
2038:Drivers/STM32L4xx_HAL_Driver/Src/stm32l4xx_hal_rtc_ex.c ****                (RTC_TAMPCR_TAMP3E | RTC_TAMPCR_TAMP3TRG | RTC_TAMPCR_TAMPIE | RTC_TAMPCR_TAMP3IE | 
2039:Drivers/STM32L4xx_HAL_Driver/Src/stm32l4xx_hal_rtc_ex.c ****                sTamper->Tamper | sTamper->Interrupt | \
2040:Drivers/STM32L4xx_HAL_Driver/Src/stm32l4xx_hal_rtc_ex.c ****                (sTamper->Trigger == RTC_TAMPERTRIGGER_RISINGEDGE ?  0U : RTC_TAMPCR_TAMP3TRG) | \
2041:Drivers/STM32L4xx_HAL_Driver/Src/stm32l4xx_hal_rtc_ex.c ****                (sTamper->NoErase == RTC_TAMPER_ERASE_BACKUP_ENABLE ? 0U : RTC_TAMPCR_TAMP3NOERASE) 
2042:Drivers/STM32L4xx_HAL_Driver/Src/stm32l4xx_hal_rtc_ex.c ****                (sTamper->MaskFlag == RTC_TAMPERMASK_FLAG_ENABLE ? RTC_TAMPCR_TAMP3MF : 0U) \
2043:Drivers/STM32L4xx_HAL_Driver/Src/stm32l4xx_hal_rtc_ex.c ****               );
2044:Drivers/STM32L4xx_HAL_Driver/Src/stm32l4xx_hal_rtc_ex.c ****   }
2045:Drivers/STM32L4xx_HAL_Driver/Src/stm32l4xx_hal_rtc_ex.c **** #endif /* RTC_TAMPER3_SUPPORT */
2046:Drivers/STM32L4xx_HAL_Driver/Src/stm32l4xx_hal_rtc_ex.c **** 
2047:Drivers/STM32L4xx_HAL_Driver/Src/stm32l4xx_hal_rtc_ex.c ****   /* Update common parameters */
2048:Drivers/STM32L4xx_HAL_Driver/Src/stm32l4xx_hal_rtc_ex.c ****   MODIFY_REG(tmpreg,
 3329              		.loc 1 2048 3 is_stmt 1
 3330 013a FB68     		ldr	r3, [r7, #12]
 3331 013c 23F47F43 		bic	r3, r3, #65280
 3332 0140 23F08003 		bic	r3, r3, #128
 3333 0144 3A68     		ldr	r2, [r7]
 3334 0146 5169     		ldr	r1, [r2, #20]
 3335 0148 3A68     		ldr	r2, [r7]
 3336 014a 9269     		ldr	r2, [r2, #24]
 3337 014c 1143     		orrs	r1, r1, r2
 3338 014e 3A68     		ldr	r2, [r7]
 3339 0150 D269     		ldr	r2, [r2, #28]
 3340 0152 1143     		orrs	r1, r1, r2
 3341 0154 3A68     		ldr	r2, [r7]
 3342 0156 126A     		ldr	r2, [r2, #32]
 3343 0158 1143     		orrs	r1, r1, r2
 3344 015a 3A68     		ldr	r2, [r7]
 3345 015c 526A     		ldr	r2, [r2, #36]
 3346 015e 0A43     		orrs	r2, r2, r1
ARM GAS  /tmp/cchDTGWe.s 			page 95


 3347 0160 1343     		orrs	r3, r3, r2
 3348 0162 FB60     		str	r3, [r7, #12]
2049:Drivers/STM32L4xx_HAL_Driver/Src/stm32l4xx_hal_rtc_ex.c ****              (RTC_TAMPCR_TAMPTS | RTC_TAMPCR_TAMPFREQ | RTC_TAMPCR_TAMPFLT | RTC_TAMPCR_TAMPPRCH | 
2050:Drivers/STM32L4xx_HAL_Driver/Src/stm32l4xx_hal_rtc_ex.c ****              sTamper->Filter | sTamper->SamplingFrequency | sTamper->PrechargeDuration | sTamper->T
2051:Drivers/STM32L4xx_HAL_Driver/Src/stm32l4xx_hal_rtc_ex.c ****              sTamper->TimeStampOnTamperDetection \
2052:Drivers/STM32L4xx_HAL_Driver/Src/stm32l4xx_hal_rtc_ex.c ****             );
2053:Drivers/STM32L4xx_HAL_Driver/Src/stm32l4xx_hal_rtc_ex.c **** 
2054:Drivers/STM32L4xx_HAL_Driver/Src/stm32l4xx_hal_rtc_ex.c ****   /* Set register */
2055:Drivers/STM32L4xx_HAL_Driver/Src/stm32l4xx_hal_rtc_ex.c ****   WRITE_REG(hrtc->Instance->TAMPCR, tmpreg);
 3349              		.loc 1 2055 3
 3350 0164 7B68     		ldr	r3, [r7, #4]
 3351 0166 1B68     		ldr	r3, [r3]
 3352 0168 FA68     		ldr	r2, [r7, #12]
 3353 016a 1A64     		str	r2, [r3, #64]
2056:Drivers/STM32L4xx_HAL_Driver/Src/stm32l4xx_hal_rtc_ex.c **** 
2057:Drivers/STM32L4xx_HAL_Driver/Src/stm32l4xx_hal_rtc_ex.c ****   /* RTC Tamper Interrupt Configuration: EXTI configuration */
2058:Drivers/STM32L4xx_HAL_Driver/Src/stm32l4xx_hal_rtc_ex.c ****   __HAL_RTC_TAMPER_TIMESTAMP_EXTI_ENABLE_IT();
 3354              		.loc 1 2058 3
 3355 016c 0D4B     		ldr	r3, .L162
 3356 016e 1B68     		ldr	r3, [r3]
 3357 0170 0C4A     		ldr	r2, .L162
 3358 0172 43F40023 		orr	r3, r3, #524288
 3359 0176 1360     		str	r3, [r2]
2059:Drivers/STM32L4xx_HAL_Driver/Src/stm32l4xx_hal_rtc_ex.c ****   __HAL_RTC_TAMPER_TIMESTAMP_EXTI_ENABLE_RISING_EDGE();
 3360              		.loc 1 2059 3
 3361 0178 0A4B     		ldr	r3, .L162
 3362 017a 9B68     		ldr	r3, [r3, #8]
 3363 017c 094A     		ldr	r2, .L162
 3364 017e 43F40023 		orr	r3, r3, #524288
 3365 0182 9360     		str	r3, [r2, #8]
2060:Drivers/STM32L4xx_HAL_Driver/Src/stm32l4xx_hal_rtc_ex.c **** 
2061:Drivers/STM32L4xx_HAL_Driver/Src/stm32l4xx_hal_rtc_ex.c ****   hrtc->State = HAL_RTC_STATE_READY;
 3366              		.loc 1 2061 15
 3367 0184 7B68     		ldr	r3, [r7, #4]
 3368 0186 0122     		movs	r2, #1
 3369 0188 83F82120 		strb	r2, [r3, #33]
2062:Drivers/STM32L4xx_HAL_Driver/Src/stm32l4xx_hal_rtc_ex.c **** 
2063:Drivers/STM32L4xx_HAL_Driver/Src/stm32l4xx_hal_rtc_ex.c ****   /* Process Unlocked */
2064:Drivers/STM32L4xx_HAL_Driver/Src/stm32l4xx_hal_rtc_ex.c ****   __HAL_UNLOCK(hrtc);
 3370              		.loc 1 2064 3
 3371 018c 7B68     		ldr	r3, [r7, #4]
 3372 018e 0022     		movs	r2, #0
 3373 0190 83F82020 		strb	r2, [r3, #32]
2065:Drivers/STM32L4xx_HAL_Driver/Src/stm32l4xx_hal_rtc_ex.c **** 
2066:Drivers/STM32L4xx_HAL_Driver/Src/stm32l4xx_hal_rtc_ex.c ****   return HAL_OK;
 3374              		.loc 1 2066 10
 3375 0194 0023     		movs	r3, #0
 3376              	.L140:
2067:Drivers/STM32L4xx_HAL_Driver/Src/stm32l4xx_hal_rtc_ex.c **** }
 3377              		.loc 1 2067 1
 3378 0196 1846     		mov	r0, r3
 3379 0198 1437     		adds	r7, r7, #20
 3380              		.cfi_def_cfa_offset 4
 3381 019a BD46     		mov	sp, r7
 3382              		.cfi_def_cfa_register 13
 3383              		@ sp needed
 3384 019c 5DF8047B 		ldr	r7, [sp], #4
ARM GAS  /tmp/cchDTGWe.s 			page 96


 3385              		.cfi_restore 7
 3386              		.cfi_def_cfa_offset 0
 3387 01a0 7047     		bx	lr
 3388              	.L163:
 3389 01a2 00BF     		.align	2
 3390              	.L162:
 3391 01a4 00040140 		.word	1073808384
 3392              		.cfi_endproc
 3393              	.LFE472:
 3395              		.section	.text.HAL_RTCEx_DeactivateTamper,"ax",%progbits
 3396              		.align	1
 3397              		.global	HAL_RTCEx_DeactivateTamper
 3398              		.syntax unified
 3399              		.thumb
 3400              		.thumb_func
 3402              	HAL_RTCEx_DeactivateTamper:
 3403              	.LFB473:
2068:Drivers/STM32L4xx_HAL_Driver/Src/stm32l4xx_hal_rtc_ex.c **** #endif /* #if defined(STM32L412xx) || defined(STM32L422xx) || defined (STM32L4P5xx) || defined (STM
2069:Drivers/STM32L4xx_HAL_Driver/Src/stm32l4xx_hal_rtc_ex.c **** 
2070:Drivers/STM32L4xx_HAL_Driver/Src/stm32l4xx_hal_rtc_ex.c **** 
2071:Drivers/STM32L4xx_HAL_Driver/Src/stm32l4xx_hal_rtc_ex.c **** #if defined(STM32L412xx) || defined(STM32L422xx) || defined (STM32L4P5xx) || defined (STM32L4Q5xx)
2072:Drivers/STM32L4xx_HAL_Driver/Src/stm32l4xx_hal_rtc_ex.c **** /**
2073:Drivers/STM32L4xx_HAL_Driver/Src/stm32l4xx_hal_rtc_ex.c ****   * @brief  Deactivate Tamper.
2074:Drivers/STM32L4xx_HAL_Driver/Src/stm32l4xx_hal_rtc_ex.c ****   * @param  hrtc RTC handle
2075:Drivers/STM32L4xx_HAL_Driver/Src/stm32l4xx_hal_rtc_ex.c ****   * @param  Tamper Selected tamper pin.
2076:Drivers/STM32L4xx_HAL_Driver/Src/stm32l4xx_hal_rtc_ex.c ****   *         This parameter can be a combination of the following values:
2077:Drivers/STM32L4xx_HAL_Driver/Src/stm32l4xx_hal_rtc_ex.c ****   *         @arg RTC_TAMPER_1
2078:Drivers/STM32L4xx_HAL_Driver/Src/stm32l4xx_hal_rtc_ex.c ****   *         @arg RTC_TAMPER_2
2079:Drivers/STM32L4xx_HAL_Driver/Src/stm32l4xx_hal_rtc_ex.c ****   * @retval HAL status
2080:Drivers/STM32L4xx_HAL_Driver/Src/stm32l4xx_hal_rtc_ex.c ****   */
2081:Drivers/STM32L4xx_HAL_Driver/Src/stm32l4xx_hal_rtc_ex.c **** HAL_StatusTypeDef HAL_RTCEx_DeactivateTamper(RTC_HandleTypeDef *hrtc, uint32_t Tamper)
2082:Drivers/STM32L4xx_HAL_Driver/Src/stm32l4xx_hal_rtc_ex.c **** {
2083:Drivers/STM32L4xx_HAL_Driver/Src/stm32l4xx_hal_rtc_ex.c ****   /* Process TAMP instance pointer */
2084:Drivers/STM32L4xx_HAL_Driver/Src/stm32l4xx_hal_rtc_ex.c ****   TAMP_TypeDef *tamp = (TAMP_TypeDef *)((uint32_t)hrtc->Instance + hrtc->TampOffset);
2085:Drivers/STM32L4xx_HAL_Driver/Src/stm32l4xx_hal_rtc_ex.c **** 
2086:Drivers/STM32L4xx_HAL_Driver/Src/stm32l4xx_hal_rtc_ex.c ****   assert_param(IS_RTC_TAMPER(Tamper));
2087:Drivers/STM32L4xx_HAL_Driver/Src/stm32l4xx_hal_rtc_ex.c **** 
2088:Drivers/STM32L4xx_HAL_Driver/Src/stm32l4xx_hal_rtc_ex.c ****   /* Disable the selected Tamper pin */
2089:Drivers/STM32L4xx_HAL_Driver/Src/stm32l4xx_hal_rtc_ex.c ****   tamp->CR1 &= ~Tamper;
2090:Drivers/STM32L4xx_HAL_Driver/Src/stm32l4xx_hal_rtc_ex.c **** 
2091:Drivers/STM32L4xx_HAL_Driver/Src/stm32l4xx_hal_rtc_ex.c ****   /* Clear tamper mask/noerase/trigger configuration */
2092:Drivers/STM32L4xx_HAL_Driver/Src/stm32l4xx_hal_rtc_ex.c ****   tamp->CR2 &= ~((Tamper << 24) | (Tamper << 16) | Tamper);
2093:Drivers/STM32L4xx_HAL_Driver/Src/stm32l4xx_hal_rtc_ex.c **** 
2094:Drivers/STM32L4xx_HAL_Driver/Src/stm32l4xx_hal_rtc_ex.c ****   /* Clear tamper interrupt mode configuration */
2095:Drivers/STM32L4xx_HAL_Driver/Src/stm32l4xx_hal_rtc_ex.c ****   tamp->IER &= ~Tamper;
2096:Drivers/STM32L4xx_HAL_Driver/Src/stm32l4xx_hal_rtc_ex.c **** 
2097:Drivers/STM32L4xx_HAL_Driver/Src/stm32l4xx_hal_rtc_ex.c ****   /* Clear tamper interrupt and event flags (WO register) */
2098:Drivers/STM32L4xx_HAL_Driver/Src/stm32l4xx_hal_rtc_ex.c ****   tamp->SCR = Tamper;
2099:Drivers/STM32L4xx_HAL_Driver/Src/stm32l4xx_hal_rtc_ex.c **** 
2100:Drivers/STM32L4xx_HAL_Driver/Src/stm32l4xx_hal_rtc_ex.c ****   return HAL_OK;
2101:Drivers/STM32L4xx_HAL_Driver/Src/stm32l4xx_hal_rtc_ex.c **** }
2102:Drivers/STM32L4xx_HAL_Driver/Src/stm32l4xx_hal_rtc_ex.c **** #else /* #if defined(STM32L412xx) || defined(STM32L422xx) || defined (STM32L4P5xx) || defined (STM3
2103:Drivers/STM32L4xx_HAL_Driver/Src/stm32l4xx_hal_rtc_ex.c **** /**
2104:Drivers/STM32L4xx_HAL_Driver/Src/stm32l4xx_hal_rtc_ex.c ****   * @brief  Deactivate Tamper.
2105:Drivers/STM32L4xx_HAL_Driver/Src/stm32l4xx_hal_rtc_ex.c ****   * @param  hrtc RTC handle
2106:Drivers/STM32L4xx_HAL_Driver/Src/stm32l4xx_hal_rtc_ex.c ****   * @param  Tamper Selected tamper pin.
2107:Drivers/STM32L4xx_HAL_Driver/Src/stm32l4xx_hal_rtc_ex.c ****   *         This parameter can be any combination of the following values:
ARM GAS  /tmp/cchDTGWe.s 			page 97


2108:Drivers/STM32L4xx_HAL_Driver/Src/stm32l4xx_hal_rtc_ex.c ****   *         @arg RTC_TAMPER_1
2109:Drivers/STM32L4xx_HAL_Driver/Src/stm32l4xx_hal_rtc_ex.c ****   *         @arg RTC_TAMPER_2
2110:Drivers/STM32L4xx_HAL_Driver/Src/stm32l4xx_hal_rtc_ex.c ****   *         @arg RTC_TAMPER_3
2111:Drivers/STM32L4xx_HAL_Driver/Src/stm32l4xx_hal_rtc_ex.c ****   * @retval HAL status
2112:Drivers/STM32L4xx_HAL_Driver/Src/stm32l4xx_hal_rtc_ex.c ****   */
2113:Drivers/STM32L4xx_HAL_Driver/Src/stm32l4xx_hal_rtc_ex.c **** HAL_StatusTypeDef HAL_RTCEx_DeactivateTamper(RTC_HandleTypeDef *hrtc, uint32_t Tamper)
2114:Drivers/STM32L4xx_HAL_Driver/Src/stm32l4xx_hal_rtc_ex.c **** {
 3404              		.loc 1 2114 1
 3405              		.cfi_startproc
 3406              		@ args = 0, pretend = 0, frame = 8
 3407              		@ frame_needed = 1, uses_anonymous_args = 0
 3408              		@ link register save eliminated.
 3409 0000 80B4     		push	{r7}
 3410              		.cfi_def_cfa_offset 4
 3411              		.cfi_offset 7, -4
 3412 0002 83B0     		sub	sp, sp, #12
 3413              		.cfi_def_cfa_offset 16
 3414 0004 00AF     		add	r7, sp, #0
 3415              		.cfi_def_cfa_register 7
 3416 0006 7860     		str	r0, [r7, #4]
 3417 0008 3960     		str	r1, [r7]
2115:Drivers/STM32L4xx_HAL_Driver/Src/stm32l4xx_hal_rtc_ex.c ****   assert_param(IS_RTC_TAMPER(Tamper));
2116:Drivers/STM32L4xx_HAL_Driver/Src/stm32l4xx_hal_rtc_ex.c **** 
2117:Drivers/STM32L4xx_HAL_Driver/Src/stm32l4xx_hal_rtc_ex.c ****   /* Process Locked */
2118:Drivers/STM32L4xx_HAL_Driver/Src/stm32l4xx_hal_rtc_ex.c ****   __HAL_LOCK(hrtc);
 3418              		.loc 1 2118 3
 3419 000a 7B68     		ldr	r3, [r7, #4]
 3420 000c 93F82030 		ldrb	r3, [r3, #32]	@ zero_extendqisi2
 3421 0010 012B     		cmp	r3, #1
 3422 0012 01D1     		bne	.L165
 3423              		.loc 1 2118 3 is_stmt 0 discriminator 1
 3424 0014 0223     		movs	r3, #2
 3425              		.loc 1 2118 3
 3426 0016 46E0     		b	.L166
 3427              	.L165:
 3428              		.loc 1 2118 3 discriminator 2
 3429 0018 7B68     		ldr	r3, [r7, #4]
 3430 001a 0122     		movs	r2, #1
 3431 001c 83F82020 		strb	r2, [r3, #32]
2119:Drivers/STM32L4xx_HAL_Driver/Src/stm32l4xx_hal_rtc_ex.c **** 
2120:Drivers/STM32L4xx_HAL_Driver/Src/stm32l4xx_hal_rtc_ex.c ****   hrtc->State = HAL_RTC_STATE_BUSY;
 3432              		.loc 1 2120 15 is_stmt 1
 3433 0020 7B68     		ldr	r3, [r7, #4]
 3434 0022 0222     		movs	r2, #2
 3435 0024 83F82120 		strb	r2, [r3, #33]
2121:Drivers/STM32L4xx_HAL_Driver/Src/stm32l4xx_hal_rtc_ex.c **** 
2122:Drivers/STM32L4xx_HAL_Driver/Src/stm32l4xx_hal_rtc_ex.c ****   /* Disable the selected Tamper pin */
2123:Drivers/STM32L4xx_HAL_Driver/Src/stm32l4xx_hal_rtc_ex.c ****   hrtc->Instance->TAMPCR &= ~Tamper;
 3436              		.loc 1 2123 7
 3437 0028 7B68     		ldr	r3, [r7, #4]
 3438 002a 1B68     		ldr	r3, [r3]
 3439              		.loc 1 2123 17
 3440 002c 196C     		ldr	r1, [r3, #64]
 3441              		.loc 1 2123 29
 3442 002e 3B68     		ldr	r3, [r7]
 3443 0030 DA43     		mvns	r2, r3
 3444              		.loc 1 2123 7
ARM GAS  /tmp/cchDTGWe.s 			page 98


 3445 0032 7B68     		ldr	r3, [r7, #4]
 3446 0034 1B68     		ldr	r3, [r3]
 3447              		.loc 1 2123 26
 3448 0036 0A40     		ands	r2, r2, r1
 3449 0038 1A64     		str	r2, [r3, #64]
2124:Drivers/STM32L4xx_HAL_Driver/Src/stm32l4xx_hal_rtc_ex.c **** 
2125:Drivers/STM32L4xx_HAL_Driver/Src/stm32l4xx_hal_rtc_ex.c **** #if defined(RTC_TAMPER1_SUPPORT)
2126:Drivers/STM32L4xx_HAL_Driver/Src/stm32l4xx_hal_rtc_ex.c ****   if ((Tamper & RTC_TAMPER_1) != 0U)
 3450              		.loc 1 2126 15
 3451 003a 3B68     		ldr	r3, [r7]
 3452 003c 03F00103 		and	r3, r3, #1
 3453              		.loc 1 2126 6
 3454 0040 002B     		cmp	r3, #0
 3455 0042 09D0     		beq	.L167
2127:Drivers/STM32L4xx_HAL_Driver/Src/stm32l4xx_hal_rtc_ex.c ****   {
2128:Drivers/STM32L4xx_HAL_Driver/Src/stm32l4xx_hal_rtc_ex.c ****     /* Disable the Tamper1 interrupt */
2129:Drivers/STM32L4xx_HAL_Driver/Src/stm32l4xx_hal_rtc_ex.c ****     hrtc->Instance->TAMPCR &= ((uint32_t)~(RTC_IT_TAMP | RTC_IT_TAMP1));
 3456              		.loc 1 2129 9
 3457 0044 7B68     		ldr	r3, [r7, #4]
 3458 0046 1B68     		ldr	r3, [r3]
 3459              		.loc 1 2129 19
 3460 0048 1B6C     		ldr	r3, [r3, #64]
 3461              		.loc 1 2129 9
 3462 004a 7A68     		ldr	r2, [r7, #4]
 3463 004c 1268     		ldr	r2, [r2]
 3464              		.loc 1 2129 28
 3465 004e 23F48033 		bic	r3, r3, #65536
 3466 0052 23F00403 		bic	r3, r3, #4
 3467 0056 1364     		str	r3, [r2, #64]
 3468              	.L167:
2130:Drivers/STM32L4xx_HAL_Driver/Src/stm32l4xx_hal_rtc_ex.c ****   }
2131:Drivers/STM32L4xx_HAL_Driver/Src/stm32l4xx_hal_rtc_ex.c **** #endif /* RTC_TAMPER1_SUPPORT */
2132:Drivers/STM32L4xx_HAL_Driver/Src/stm32l4xx_hal_rtc_ex.c ****   if ((Tamper & RTC_TAMPER_2) != 0U)
 3469              		.loc 1 2132 15
 3470 0058 3B68     		ldr	r3, [r7]
 3471 005a 03F00803 		and	r3, r3, #8
 3472              		.loc 1 2132 6
 3473 005e 002B     		cmp	r3, #0
 3474 0060 09D0     		beq	.L168
2133:Drivers/STM32L4xx_HAL_Driver/Src/stm32l4xx_hal_rtc_ex.c ****   {
2134:Drivers/STM32L4xx_HAL_Driver/Src/stm32l4xx_hal_rtc_ex.c ****     /* Disable the Tamper2 interrupt */
2135:Drivers/STM32L4xx_HAL_Driver/Src/stm32l4xx_hal_rtc_ex.c ****     hrtc->Instance->TAMPCR &= ((uint32_t)~(RTC_IT_TAMP | RTC_IT_TAMP2));
 3475              		.loc 1 2135 9
 3476 0062 7B68     		ldr	r3, [r7, #4]
 3477 0064 1B68     		ldr	r3, [r3]
 3478              		.loc 1 2135 19
 3479 0066 1B6C     		ldr	r3, [r3, #64]
 3480              		.loc 1 2135 9
 3481 0068 7A68     		ldr	r2, [r7, #4]
 3482 006a 1268     		ldr	r2, [r2]
 3483              		.loc 1 2135 28
 3484 006c 23F40023 		bic	r3, r3, #524288
 3485 0070 23F00403 		bic	r3, r3, #4
 3486 0074 1364     		str	r3, [r2, #64]
 3487              	.L168:
2136:Drivers/STM32L4xx_HAL_Driver/Src/stm32l4xx_hal_rtc_ex.c ****   }
2137:Drivers/STM32L4xx_HAL_Driver/Src/stm32l4xx_hal_rtc_ex.c **** #if defined(RTC_TAMPER3_SUPPORT)
ARM GAS  /tmp/cchDTGWe.s 			page 99


2138:Drivers/STM32L4xx_HAL_Driver/Src/stm32l4xx_hal_rtc_ex.c ****   if ((Tamper & RTC_TAMPER_3) != 0U)
 3488              		.loc 1 2138 15
 3489 0076 3B68     		ldr	r3, [r7]
 3490 0078 03F02003 		and	r3, r3, #32
 3491              		.loc 1 2138 6
 3492 007c 002B     		cmp	r3, #0
 3493 007e 09D0     		beq	.L169
2139:Drivers/STM32L4xx_HAL_Driver/Src/stm32l4xx_hal_rtc_ex.c ****   {
2140:Drivers/STM32L4xx_HAL_Driver/Src/stm32l4xx_hal_rtc_ex.c ****     /* Disable the Tamper3 interrupt */
2141:Drivers/STM32L4xx_HAL_Driver/Src/stm32l4xx_hal_rtc_ex.c ****     hrtc->Instance->TAMPCR &= ((uint32_t)~(RTC_IT_TAMP | RTC_IT_TAMP3));
 3494              		.loc 1 2141 9
 3495 0080 7B68     		ldr	r3, [r7, #4]
 3496 0082 1B68     		ldr	r3, [r3]
 3497              		.loc 1 2141 19
 3498 0084 1B6C     		ldr	r3, [r3, #64]
 3499              		.loc 1 2141 9
 3500 0086 7A68     		ldr	r2, [r7, #4]
 3501 0088 1268     		ldr	r2, [r2]
 3502              		.loc 1 2141 28
 3503 008a 23F48003 		bic	r3, r3, #4194304
 3504 008e 23F00403 		bic	r3, r3, #4
 3505 0092 1364     		str	r3, [r2, #64]
 3506              	.L169:
2142:Drivers/STM32L4xx_HAL_Driver/Src/stm32l4xx_hal_rtc_ex.c ****   }
2143:Drivers/STM32L4xx_HAL_Driver/Src/stm32l4xx_hal_rtc_ex.c **** #endif /* RTC_TAMPER3_SUPPORT */
2144:Drivers/STM32L4xx_HAL_Driver/Src/stm32l4xx_hal_rtc_ex.c **** 
2145:Drivers/STM32L4xx_HAL_Driver/Src/stm32l4xx_hal_rtc_ex.c ****   hrtc->State = HAL_RTC_STATE_READY;
 3507              		.loc 1 2145 15
 3508 0094 7B68     		ldr	r3, [r7, #4]
 3509 0096 0122     		movs	r2, #1
 3510 0098 83F82120 		strb	r2, [r3, #33]
2146:Drivers/STM32L4xx_HAL_Driver/Src/stm32l4xx_hal_rtc_ex.c **** 
2147:Drivers/STM32L4xx_HAL_Driver/Src/stm32l4xx_hal_rtc_ex.c ****   /* Process Unlocked */
2148:Drivers/STM32L4xx_HAL_Driver/Src/stm32l4xx_hal_rtc_ex.c ****   __HAL_UNLOCK(hrtc);
 3511              		.loc 1 2148 3
 3512 009c 7B68     		ldr	r3, [r7, #4]
 3513 009e 0022     		movs	r2, #0
 3514 00a0 83F82020 		strb	r2, [r3, #32]
2149:Drivers/STM32L4xx_HAL_Driver/Src/stm32l4xx_hal_rtc_ex.c **** 
2150:Drivers/STM32L4xx_HAL_Driver/Src/stm32l4xx_hal_rtc_ex.c ****   return HAL_OK;
 3515              		.loc 1 2150 10
 3516 00a4 0023     		movs	r3, #0
 3517              	.L166:
2151:Drivers/STM32L4xx_HAL_Driver/Src/stm32l4xx_hal_rtc_ex.c **** }
 3518              		.loc 1 2151 1
 3519 00a6 1846     		mov	r0, r3
 3520 00a8 0C37     		adds	r7, r7, #12
 3521              		.cfi_def_cfa_offset 4
 3522 00aa BD46     		mov	sp, r7
 3523              		.cfi_def_cfa_register 13
 3524              		@ sp needed
 3525 00ac 5DF8047B 		ldr	r7, [sp], #4
 3526              		.cfi_restore 7
 3527              		.cfi_def_cfa_offset 0
 3528 00b0 7047     		bx	lr
 3529              		.cfi_endproc
 3530              	.LFE473:
ARM GAS  /tmp/cchDTGWe.s 			page 100


 3532              		.section	.text.HAL_RTCEx_PollForTamper1Event,"ax",%progbits
 3533              		.align	1
 3534              		.global	HAL_RTCEx_PollForTamper1Event
 3535              		.syntax unified
 3536              		.thumb
 3537              		.thumb_func
 3539              	HAL_RTCEx_PollForTamper1Event:
 3540              	.LFB474:
2152:Drivers/STM32L4xx_HAL_Driver/Src/stm32l4xx_hal_rtc_ex.c **** #endif /* #if defined(STM32L412xx) || defined(STM32L422xx) || defined (STM32L4P5xx) || defined (STM
2153:Drivers/STM32L4xx_HAL_Driver/Src/stm32l4xx_hal_rtc_ex.c **** 
2154:Drivers/STM32L4xx_HAL_Driver/Src/stm32l4xx_hal_rtc_ex.c **** 
2155:Drivers/STM32L4xx_HAL_Driver/Src/stm32l4xx_hal_rtc_ex.c **** #if defined(RTC_TAMPER1_SUPPORT)
2156:Drivers/STM32L4xx_HAL_Driver/Src/stm32l4xx_hal_rtc_ex.c **** /**
2157:Drivers/STM32L4xx_HAL_Driver/Src/stm32l4xx_hal_rtc_ex.c ****   * @brief  Handle Tamper 1 Polling.
2158:Drivers/STM32L4xx_HAL_Driver/Src/stm32l4xx_hal_rtc_ex.c ****   * @param  hrtc RTC handle
2159:Drivers/STM32L4xx_HAL_Driver/Src/stm32l4xx_hal_rtc_ex.c ****   * @param  Timeout Timeout duration
2160:Drivers/STM32L4xx_HAL_Driver/Src/stm32l4xx_hal_rtc_ex.c ****   * @retval HAL status
2161:Drivers/STM32L4xx_HAL_Driver/Src/stm32l4xx_hal_rtc_ex.c ****   */
2162:Drivers/STM32L4xx_HAL_Driver/Src/stm32l4xx_hal_rtc_ex.c **** HAL_StatusTypeDef HAL_RTCEx_PollForTamper1Event(RTC_HandleTypeDef *hrtc, uint32_t Timeout)
2163:Drivers/STM32L4xx_HAL_Driver/Src/stm32l4xx_hal_rtc_ex.c **** {
 3541              		.loc 1 2163 1
 3542              		.cfi_startproc
 3543              		@ args = 0, pretend = 0, frame = 16
 3544              		@ frame_needed = 1, uses_anonymous_args = 0
 3545 0000 80B5     		push	{r7, lr}
 3546              		.cfi_def_cfa_offset 8
 3547              		.cfi_offset 7, -8
 3548              		.cfi_offset 14, -4
 3549 0002 84B0     		sub	sp, sp, #16
 3550              		.cfi_def_cfa_offset 24
 3551 0004 00AF     		add	r7, sp, #0
 3552              		.cfi_def_cfa_register 7
 3553 0006 7860     		str	r0, [r7, #4]
 3554 0008 3960     		str	r1, [r7]
2164:Drivers/STM32L4xx_HAL_Driver/Src/stm32l4xx_hal_rtc_ex.c ****   uint32_t tickstart = HAL_GetTick();
 3555              		.loc 1 2164 24
 3556 000a FFF7FEFF 		bl	HAL_GetTick
 3557 000e F860     		str	r0, [r7, #12]
2165:Drivers/STM32L4xx_HAL_Driver/Src/stm32l4xx_hal_rtc_ex.c **** 
2166:Drivers/STM32L4xx_HAL_Driver/Src/stm32l4xx_hal_rtc_ex.c ****   /* Get the status of the Interrupt */
2167:Drivers/STM32L4xx_HAL_Driver/Src/stm32l4xx_hal_rtc_ex.c ****   while (__HAL_RTC_TAMPER_GET_FLAG(hrtc, RTC_FLAG_TAMP1F) == 0U)
 3558              		.loc 1 2167 9
 3559 0010 14E0     		b	.L172
 3560              	.L175:
2168:Drivers/STM32L4xx_HAL_Driver/Src/stm32l4xx_hal_rtc_ex.c ****   {
2169:Drivers/STM32L4xx_HAL_Driver/Src/stm32l4xx_hal_rtc_ex.c ****     if (Timeout != HAL_MAX_DELAY)
 3561              		.loc 1 2169 8
 3562 0012 3B68     		ldr	r3, [r7]
 3563 0014 B3F1FF3F 		cmp	r3, #-1
 3564 0018 10D0     		beq	.L172
2170:Drivers/STM32L4xx_HAL_Driver/Src/stm32l4xx_hal_rtc_ex.c ****     {
2171:Drivers/STM32L4xx_HAL_Driver/Src/stm32l4xx_hal_rtc_ex.c ****       if (((HAL_GetTick() - tickstart) > Timeout) || (Timeout == 0U))
 3565              		.loc 1 2171 13
 3566 001a FFF7FEFF 		bl	HAL_GetTick
 3567 001e 0246     		mov	r2, r0
 3568              		.loc 1 2171 27 discriminator 1
 3569 0020 FB68     		ldr	r3, [r7, #12]
ARM GAS  /tmp/cchDTGWe.s 			page 101


 3570 0022 D31A     		subs	r3, r2, r3
 3571              		.loc 1 2171 10 discriminator 1
 3572 0024 3A68     		ldr	r2, [r7]
 3573 0026 9A42     		cmp	r2, r3
 3574 0028 02D3     		bcc	.L173
 3575              		.loc 1 2171 51 discriminator 1
 3576 002a 3B68     		ldr	r3, [r7]
 3577 002c 002B     		cmp	r3, #0
 3578 002e 05D1     		bne	.L172
 3579              	.L173:
2172:Drivers/STM32L4xx_HAL_Driver/Src/stm32l4xx_hal_rtc_ex.c ****       {
2173:Drivers/STM32L4xx_HAL_Driver/Src/stm32l4xx_hal_rtc_ex.c ****         hrtc->State = HAL_RTC_STATE_TIMEOUT;
 3580              		.loc 1 2173 21
 3581 0030 7B68     		ldr	r3, [r7, #4]
 3582 0032 0322     		movs	r2, #3
 3583 0034 83F82120 		strb	r2, [r3, #33]
2174:Drivers/STM32L4xx_HAL_Driver/Src/stm32l4xx_hal_rtc_ex.c ****         return HAL_TIMEOUT;
 3584              		.loc 1 2174 16
 3585 0038 0323     		movs	r3, #3
 3586 003a 14E0     		b	.L174
 3587              	.L172:
2167:Drivers/STM32L4xx_HAL_Driver/Src/stm32l4xx_hal_rtc_ex.c ****   {
 3588              		.loc 1 2167 10
 3589 003c 7B68     		ldr	r3, [r7, #4]
 3590 003e 1B68     		ldr	r3, [r3]
 3591 0040 DB68     		ldr	r3, [r3, #12]
 3592 0042 03F40053 		and	r3, r3, #8192
2167:Drivers/STM32L4xx_HAL_Driver/Src/stm32l4xx_hal_rtc_ex.c ****   {
 3593              		.loc 1 2167 59
 3594 0046 002B     		cmp	r3, #0
 3595 0048 E3D0     		beq	.L175
2175:Drivers/STM32L4xx_HAL_Driver/Src/stm32l4xx_hal_rtc_ex.c ****       }
2176:Drivers/STM32L4xx_HAL_Driver/Src/stm32l4xx_hal_rtc_ex.c ****     }
2177:Drivers/STM32L4xx_HAL_Driver/Src/stm32l4xx_hal_rtc_ex.c ****   }
2178:Drivers/STM32L4xx_HAL_Driver/Src/stm32l4xx_hal_rtc_ex.c **** 
2179:Drivers/STM32L4xx_HAL_Driver/Src/stm32l4xx_hal_rtc_ex.c ****   /* Clear the Tamper Flag */
2180:Drivers/STM32L4xx_HAL_Driver/Src/stm32l4xx_hal_rtc_ex.c ****   __HAL_RTC_TAMPER_CLEAR_FLAG(hrtc, RTC_FLAG_TAMP1F);
 3596              		.loc 1 2180 3
 3597 004a 7B68     		ldr	r3, [r7, #4]
 3598 004c 1B68     		ldr	r3, [r3]
 3599 004e DB68     		ldr	r3, [r3, #12]
 3600 0050 DAB2     		uxtb	r2, r3
 3601 0052 7B68     		ldr	r3, [r7, #4]
 3602 0054 1B68     		ldr	r3, [r3]
 3603 0056 62F40252 		orn	r2, r2, #8320
 3604 005a DA60     		str	r2, [r3, #12]
2181:Drivers/STM32L4xx_HAL_Driver/Src/stm32l4xx_hal_rtc_ex.c **** 
2182:Drivers/STM32L4xx_HAL_Driver/Src/stm32l4xx_hal_rtc_ex.c ****   /* Change RTC state */
2183:Drivers/STM32L4xx_HAL_Driver/Src/stm32l4xx_hal_rtc_ex.c ****   hrtc->State = HAL_RTC_STATE_READY;
 3605              		.loc 1 2183 15
 3606 005c 7B68     		ldr	r3, [r7, #4]
 3607 005e 0122     		movs	r2, #1
 3608 0060 83F82120 		strb	r2, [r3, #33]
2184:Drivers/STM32L4xx_HAL_Driver/Src/stm32l4xx_hal_rtc_ex.c **** 
2185:Drivers/STM32L4xx_HAL_Driver/Src/stm32l4xx_hal_rtc_ex.c ****   return HAL_OK;
 3609              		.loc 1 2185 10
 3610 0064 0023     		movs	r3, #0
ARM GAS  /tmp/cchDTGWe.s 			page 102


 3611              	.L174:
2186:Drivers/STM32L4xx_HAL_Driver/Src/stm32l4xx_hal_rtc_ex.c **** }
 3612              		.loc 1 2186 1
 3613 0066 1846     		mov	r0, r3
 3614 0068 1037     		adds	r7, r7, #16
 3615              		.cfi_def_cfa_offset 8
 3616 006a BD46     		mov	sp, r7
 3617              		.cfi_def_cfa_register 13
 3618              		@ sp needed
 3619 006c 80BD     		pop	{r7, pc}
 3620              		.cfi_endproc
 3621              	.LFE474:
 3623              		.section	.text.HAL_RTCEx_PollForTamper2Event,"ax",%progbits
 3624              		.align	1
 3625              		.global	HAL_RTCEx_PollForTamper2Event
 3626              		.syntax unified
 3627              		.thumb
 3628              		.thumb_func
 3630              	HAL_RTCEx_PollForTamper2Event:
 3631              	.LFB475:
2187:Drivers/STM32L4xx_HAL_Driver/Src/stm32l4xx_hal_rtc_ex.c **** #endif /* RTC_TAMPER1_SUPPORT */
2188:Drivers/STM32L4xx_HAL_Driver/Src/stm32l4xx_hal_rtc_ex.c **** 
2189:Drivers/STM32L4xx_HAL_Driver/Src/stm32l4xx_hal_rtc_ex.c **** /**
2190:Drivers/STM32L4xx_HAL_Driver/Src/stm32l4xx_hal_rtc_ex.c ****   * @brief  Handle Tamper 2 Polling.
2191:Drivers/STM32L4xx_HAL_Driver/Src/stm32l4xx_hal_rtc_ex.c ****   * @param  hrtc RTC handle
2192:Drivers/STM32L4xx_HAL_Driver/Src/stm32l4xx_hal_rtc_ex.c ****   * @param  Timeout Timeout duration
2193:Drivers/STM32L4xx_HAL_Driver/Src/stm32l4xx_hal_rtc_ex.c ****   * @retval HAL status
2194:Drivers/STM32L4xx_HAL_Driver/Src/stm32l4xx_hal_rtc_ex.c ****   */
2195:Drivers/STM32L4xx_HAL_Driver/Src/stm32l4xx_hal_rtc_ex.c **** HAL_StatusTypeDef HAL_RTCEx_PollForTamper2Event(RTC_HandleTypeDef *hrtc, uint32_t Timeout)
2196:Drivers/STM32L4xx_HAL_Driver/Src/stm32l4xx_hal_rtc_ex.c **** {
 3632              		.loc 1 2196 1
 3633              		.cfi_startproc
 3634              		@ args = 0, pretend = 0, frame = 16
 3635              		@ frame_needed = 1, uses_anonymous_args = 0
 3636 0000 80B5     		push	{r7, lr}
 3637              		.cfi_def_cfa_offset 8
 3638              		.cfi_offset 7, -8
 3639              		.cfi_offset 14, -4
 3640 0002 84B0     		sub	sp, sp, #16
 3641              		.cfi_def_cfa_offset 24
 3642 0004 00AF     		add	r7, sp, #0
 3643              		.cfi_def_cfa_register 7
 3644 0006 7860     		str	r0, [r7, #4]
 3645 0008 3960     		str	r1, [r7]
2197:Drivers/STM32L4xx_HAL_Driver/Src/stm32l4xx_hal_rtc_ex.c ****   uint32_t tickstart = HAL_GetTick();
 3646              		.loc 1 2197 24
 3647 000a FFF7FEFF 		bl	HAL_GetTick
 3648 000e F860     		str	r0, [r7, #12]
2198:Drivers/STM32L4xx_HAL_Driver/Src/stm32l4xx_hal_rtc_ex.c **** 
2199:Drivers/STM32L4xx_HAL_Driver/Src/stm32l4xx_hal_rtc_ex.c ****   /* Get the status of the Interrupt */
2200:Drivers/STM32L4xx_HAL_Driver/Src/stm32l4xx_hal_rtc_ex.c ****   while (__HAL_RTC_TAMPER_GET_FLAG(hrtc, RTC_FLAG_TAMP2F) == 0U)
 3649              		.loc 1 2200 9
 3650 0010 14E0     		b	.L178
 3651              	.L181:
2201:Drivers/STM32L4xx_HAL_Driver/Src/stm32l4xx_hal_rtc_ex.c ****   {
2202:Drivers/STM32L4xx_HAL_Driver/Src/stm32l4xx_hal_rtc_ex.c ****     if (Timeout != HAL_MAX_DELAY)
 3652              		.loc 1 2202 8
ARM GAS  /tmp/cchDTGWe.s 			page 103


 3653 0012 3B68     		ldr	r3, [r7]
 3654 0014 B3F1FF3F 		cmp	r3, #-1
 3655 0018 10D0     		beq	.L178
2203:Drivers/STM32L4xx_HAL_Driver/Src/stm32l4xx_hal_rtc_ex.c ****     {
2204:Drivers/STM32L4xx_HAL_Driver/Src/stm32l4xx_hal_rtc_ex.c ****       if (((HAL_GetTick() - tickstart) > Timeout) || (Timeout == 0U))
 3656              		.loc 1 2204 13
 3657 001a FFF7FEFF 		bl	HAL_GetTick
 3658 001e 0246     		mov	r2, r0
 3659              		.loc 1 2204 27 discriminator 1
 3660 0020 FB68     		ldr	r3, [r7, #12]
 3661 0022 D31A     		subs	r3, r2, r3
 3662              		.loc 1 2204 10 discriminator 1
 3663 0024 3A68     		ldr	r2, [r7]
 3664 0026 9A42     		cmp	r2, r3
 3665 0028 02D3     		bcc	.L179
 3666              		.loc 1 2204 51 discriminator 1
 3667 002a 3B68     		ldr	r3, [r7]
 3668 002c 002B     		cmp	r3, #0
 3669 002e 05D1     		bne	.L178
 3670              	.L179:
2205:Drivers/STM32L4xx_HAL_Driver/Src/stm32l4xx_hal_rtc_ex.c ****       {
2206:Drivers/STM32L4xx_HAL_Driver/Src/stm32l4xx_hal_rtc_ex.c ****         hrtc->State = HAL_RTC_STATE_TIMEOUT;
 3671              		.loc 1 2206 21
 3672 0030 7B68     		ldr	r3, [r7, #4]
 3673 0032 0322     		movs	r2, #3
 3674 0034 83F82120 		strb	r2, [r3, #33]
2207:Drivers/STM32L4xx_HAL_Driver/Src/stm32l4xx_hal_rtc_ex.c ****         return HAL_TIMEOUT;
 3675              		.loc 1 2207 16
 3676 0038 0323     		movs	r3, #3
 3677 003a 14E0     		b	.L180
 3678              	.L178:
2200:Drivers/STM32L4xx_HAL_Driver/Src/stm32l4xx_hal_rtc_ex.c ****   {
 3679              		.loc 1 2200 10
 3680 003c 7B68     		ldr	r3, [r7, #4]
 3681 003e 1B68     		ldr	r3, [r3]
 3682 0040 DB68     		ldr	r3, [r3, #12]
 3683 0042 03F48043 		and	r3, r3, #16384
2200:Drivers/STM32L4xx_HAL_Driver/Src/stm32l4xx_hal_rtc_ex.c ****   {
 3684              		.loc 1 2200 59
 3685 0046 002B     		cmp	r3, #0
 3686 0048 E3D0     		beq	.L181
2208:Drivers/STM32L4xx_HAL_Driver/Src/stm32l4xx_hal_rtc_ex.c ****       }
2209:Drivers/STM32L4xx_HAL_Driver/Src/stm32l4xx_hal_rtc_ex.c ****     }
2210:Drivers/STM32L4xx_HAL_Driver/Src/stm32l4xx_hal_rtc_ex.c ****   }
2211:Drivers/STM32L4xx_HAL_Driver/Src/stm32l4xx_hal_rtc_ex.c **** 
2212:Drivers/STM32L4xx_HAL_Driver/Src/stm32l4xx_hal_rtc_ex.c ****   /* Clear the Tamper Flag */
2213:Drivers/STM32L4xx_HAL_Driver/Src/stm32l4xx_hal_rtc_ex.c ****   __HAL_RTC_TAMPER_CLEAR_FLAG(hrtc, RTC_FLAG_TAMP2F);
 3687              		.loc 1 2213 3
 3688 004a 7B68     		ldr	r3, [r7, #4]
 3689 004c 1B68     		ldr	r3, [r3]
 3690 004e DB68     		ldr	r3, [r3, #12]
 3691 0050 DAB2     		uxtb	r2, r3
 3692 0052 7B68     		ldr	r3, [r7, #4]
 3693 0054 1B68     		ldr	r3, [r3]
 3694 0056 62F48142 		orn	r2, r2, #16512
 3695 005a DA60     		str	r2, [r3, #12]
2214:Drivers/STM32L4xx_HAL_Driver/Src/stm32l4xx_hal_rtc_ex.c **** 
ARM GAS  /tmp/cchDTGWe.s 			page 104


2215:Drivers/STM32L4xx_HAL_Driver/Src/stm32l4xx_hal_rtc_ex.c ****   /* Change RTC state */
2216:Drivers/STM32L4xx_HAL_Driver/Src/stm32l4xx_hal_rtc_ex.c ****   hrtc->State = HAL_RTC_STATE_READY;
 3696              		.loc 1 2216 15
 3697 005c 7B68     		ldr	r3, [r7, #4]
 3698 005e 0122     		movs	r2, #1
 3699 0060 83F82120 		strb	r2, [r3, #33]
2217:Drivers/STM32L4xx_HAL_Driver/Src/stm32l4xx_hal_rtc_ex.c **** 
2218:Drivers/STM32L4xx_HAL_Driver/Src/stm32l4xx_hal_rtc_ex.c ****   return HAL_OK;
 3700              		.loc 1 2218 10
 3701 0064 0023     		movs	r3, #0
 3702              	.L180:
2219:Drivers/STM32L4xx_HAL_Driver/Src/stm32l4xx_hal_rtc_ex.c **** }
 3703              		.loc 1 2219 1
 3704 0066 1846     		mov	r0, r3
 3705 0068 1037     		adds	r7, r7, #16
 3706              		.cfi_def_cfa_offset 8
 3707 006a BD46     		mov	sp, r7
 3708              		.cfi_def_cfa_register 13
 3709              		@ sp needed
 3710 006c 80BD     		pop	{r7, pc}
 3711              		.cfi_endproc
 3712              	.LFE475:
 3714              		.section	.text.HAL_RTCEx_PollForTamper3Event,"ax",%progbits
 3715              		.align	1
 3716              		.global	HAL_RTCEx_PollForTamper3Event
 3717              		.syntax unified
 3718              		.thumb
 3719              		.thumb_func
 3721              	HAL_RTCEx_PollForTamper3Event:
 3722              	.LFB476:
2220:Drivers/STM32L4xx_HAL_Driver/Src/stm32l4xx_hal_rtc_ex.c **** 
2221:Drivers/STM32L4xx_HAL_Driver/Src/stm32l4xx_hal_rtc_ex.c **** #if defined(RTC_TAMPER3_SUPPORT)
2222:Drivers/STM32L4xx_HAL_Driver/Src/stm32l4xx_hal_rtc_ex.c **** /**
2223:Drivers/STM32L4xx_HAL_Driver/Src/stm32l4xx_hal_rtc_ex.c ****   * @brief  Handle Tamper 3 Polling.
2224:Drivers/STM32L4xx_HAL_Driver/Src/stm32l4xx_hal_rtc_ex.c ****   * @param  hrtc  RTC handle
2225:Drivers/STM32L4xx_HAL_Driver/Src/stm32l4xx_hal_rtc_ex.c ****   * @param  Timeout  Timeout duration
2226:Drivers/STM32L4xx_HAL_Driver/Src/stm32l4xx_hal_rtc_ex.c ****   * @retval HAL status
2227:Drivers/STM32L4xx_HAL_Driver/Src/stm32l4xx_hal_rtc_ex.c ****   */
2228:Drivers/STM32L4xx_HAL_Driver/Src/stm32l4xx_hal_rtc_ex.c **** HAL_StatusTypeDef HAL_RTCEx_PollForTamper3Event(RTC_HandleTypeDef *hrtc, uint32_t Timeout)
2229:Drivers/STM32L4xx_HAL_Driver/Src/stm32l4xx_hal_rtc_ex.c **** {
 3723              		.loc 1 2229 1
 3724              		.cfi_startproc
 3725              		@ args = 0, pretend = 0, frame = 16
 3726              		@ frame_needed = 1, uses_anonymous_args = 0
 3727 0000 80B5     		push	{r7, lr}
 3728              		.cfi_def_cfa_offset 8
 3729              		.cfi_offset 7, -8
 3730              		.cfi_offset 14, -4
 3731 0002 84B0     		sub	sp, sp, #16
 3732              		.cfi_def_cfa_offset 24
 3733 0004 00AF     		add	r7, sp, #0
 3734              		.cfi_def_cfa_register 7
 3735 0006 7860     		str	r0, [r7, #4]
 3736 0008 3960     		str	r1, [r7]
2230:Drivers/STM32L4xx_HAL_Driver/Src/stm32l4xx_hal_rtc_ex.c ****   uint32_t tickstart = HAL_GetTick();
 3737              		.loc 1 2230 24
 3738 000a FFF7FEFF 		bl	HAL_GetTick
ARM GAS  /tmp/cchDTGWe.s 			page 105


 3739 000e F860     		str	r0, [r7, #12]
2231:Drivers/STM32L4xx_HAL_Driver/Src/stm32l4xx_hal_rtc_ex.c **** 
2232:Drivers/STM32L4xx_HAL_Driver/Src/stm32l4xx_hal_rtc_ex.c ****   /* Get the status of the Interrupt */
2233:Drivers/STM32L4xx_HAL_Driver/Src/stm32l4xx_hal_rtc_ex.c ****   while (__HAL_RTC_TAMPER_GET_FLAG(hrtc, RTC_FLAG_TAMP3F) == 0U)
 3740              		.loc 1 2233 9
 3741 0010 14E0     		b	.L184
 3742              	.L187:
2234:Drivers/STM32L4xx_HAL_Driver/Src/stm32l4xx_hal_rtc_ex.c ****   {
2235:Drivers/STM32L4xx_HAL_Driver/Src/stm32l4xx_hal_rtc_ex.c ****     if (Timeout != HAL_MAX_DELAY)
 3743              		.loc 1 2235 8
 3744 0012 3B68     		ldr	r3, [r7]
 3745 0014 B3F1FF3F 		cmp	r3, #-1
 3746 0018 10D0     		beq	.L184
2236:Drivers/STM32L4xx_HAL_Driver/Src/stm32l4xx_hal_rtc_ex.c ****     {
2237:Drivers/STM32L4xx_HAL_Driver/Src/stm32l4xx_hal_rtc_ex.c ****       if ((Timeout == 0) || ((HAL_GetTick() - tickstart) > Timeout))
 3747              		.loc 1 2237 10
 3748 001a 3B68     		ldr	r3, [r7]
 3749 001c 002B     		cmp	r3, #0
 3750 001e 07D0     		beq	.L185
 3751              		.loc 1 2237 31 discriminator 1
 3752 0020 FFF7FEFF 		bl	HAL_GetTick
 3753 0024 0246     		mov	r2, r0
 3754              		.loc 1 2237 45 discriminator 1
 3755 0026 FB68     		ldr	r3, [r7, #12]
 3756 0028 D31A     		subs	r3, r2, r3
 3757              		.loc 1 2237 26 discriminator 1
 3758 002a 3A68     		ldr	r2, [r7]
 3759 002c 9A42     		cmp	r2, r3
 3760 002e 05D2     		bcs	.L184
 3761              	.L185:
2238:Drivers/STM32L4xx_HAL_Driver/Src/stm32l4xx_hal_rtc_ex.c ****       {
2239:Drivers/STM32L4xx_HAL_Driver/Src/stm32l4xx_hal_rtc_ex.c ****         hrtc->State = HAL_RTC_STATE_TIMEOUT;
 3762              		.loc 1 2239 21
 3763 0030 7B68     		ldr	r3, [r7, #4]
 3764 0032 0322     		movs	r2, #3
 3765 0034 83F82120 		strb	r2, [r3, #33]
2240:Drivers/STM32L4xx_HAL_Driver/Src/stm32l4xx_hal_rtc_ex.c ****         return HAL_TIMEOUT;
 3766              		.loc 1 2240 16
 3767 0038 0323     		movs	r3, #3
 3768 003a 14E0     		b	.L186
 3769              	.L184:
2233:Drivers/STM32L4xx_HAL_Driver/Src/stm32l4xx_hal_rtc_ex.c ****   {
 3770              		.loc 1 2233 10
 3771 003c 7B68     		ldr	r3, [r7, #4]
 3772 003e 1B68     		ldr	r3, [r3]
 3773 0040 DB68     		ldr	r3, [r3, #12]
 3774 0042 03F40043 		and	r3, r3, #32768
2233:Drivers/STM32L4xx_HAL_Driver/Src/stm32l4xx_hal_rtc_ex.c ****   {
 3775              		.loc 1 2233 59
 3776 0046 002B     		cmp	r3, #0
 3777 0048 E3D0     		beq	.L187
2241:Drivers/STM32L4xx_HAL_Driver/Src/stm32l4xx_hal_rtc_ex.c ****       }
2242:Drivers/STM32L4xx_HAL_Driver/Src/stm32l4xx_hal_rtc_ex.c ****     }
2243:Drivers/STM32L4xx_HAL_Driver/Src/stm32l4xx_hal_rtc_ex.c ****   }
2244:Drivers/STM32L4xx_HAL_Driver/Src/stm32l4xx_hal_rtc_ex.c **** 
2245:Drivers/STM32L4xx_HAL_Driver/Src/stm32l4xx_hal_rtc_ex.c ****   /* Clear the Tamper Flag */
2246:Drivers/STM32L4xx_HAL_Driver/Src/stm32l4xx_hal_rtc_ex.c ****   __HAL_RTC_TAMPER_CLEAR_FLAG(hrtc, RTC_FLAG_TAMP3F);
ARM GAS  /tmp/cchDTGWe.s 			page 106


 3778              		.loc 1 2246 3
 3779 004a 7B68     		ldr	r3, [r7, #4]
 3780 004c 1B68     		ldr	r3, [r3]
 3781 004e DB68     		ldr	r3, [r3, #12]
 3782 0050 D9B2     		uxtb	r1, r3
 3783 0052 7B68     		ldr	r3, [r7, #4]
 3784 0054 1A68     		ldr	r2, [r3]
 3785 0056 064B     		ldr	r3, .L188
 3786 0058 0B43     		orrs	r3, r3, r1
 3787 005a D360     		str	r3, [r2, #12]
2247:Drivers/STM32L4xx_HAL_Driver/Src/stm32l4xx_hal_rtc_ex.c **** 
2248:Drivers/STM32L4xx_HAL_Driver/Src/stm32l4xx_hal_rtc_ex.c ****   /* Change RTC state */
2249:Drivers/STM32L4xx_HAL_Driver/Src/stm32l4xx_hal_rtc_ex.c ****   hrtc->State = HAL_RTC_STATE_READY;
 3788              		.loc 1 2249 15
 3789 005c 7B68     		ldr	r3, [r7, #4]
 3790 005e 0122     		movs	r2, #1
 3791 0060 83F82120 		strb	r2, [r3, #33]
2250:Drivers/STM32L4xx_HAL_Driver/Src/stm32l4xx_hal_rtc_ex.c **** 
2251:Drivers/STM32L4xx_HAL_Driver/Src/stm32l4xx_hal_rtc_ex.c ****   return HAL_OK;
 3792              		.loc 1 2251 10
 3793 0064 0023     		movs	r3, #0
 3794              	.L186:
2252:Drivers/STM32L4xx_HAL_Driver/Src/stm32l4xx_hal_rtc_ex.c **** }
 3795              		.loc 1 2252 1
 3796 0066 1846     		mov	r0, r3
 3797 0068 1037     		adds	r7, r7, #16
 3798              		.cfi_def_cfa_offset 8
 3799 006a BD46     		mov	sp, r7
 3800              		.cfi_def_cfa_register 13
 3801              		@ sp needed
 3802 006c 80BD     		pop	{r7, pc}
 3803              	.L189:
 3804 006e 00BF     		.align	2
 3805              	.L188:
 3806 0070 7F7FFFFF 		.word	-32897
 3807              		.cfi_endproc
 3808              	.LFE476:
 3810              		.section	.text.HAL_RTCEx_Tamper1EventCallback,"ax",%progbits
 3811              		.align	1
 3812              		.weak	HAL_RTCEx_Tamper1EventCallback
 3813              		.syntax unified
 3814              		.thumb
 3815              		.thumb_func
 3817              	HAL_RTCEx_Tamper1EventCallback:
 3818              	.LFB477:
2253:Drivers/STM32L4xx_HAL_Driver/Src/stm32l4xx_hal_rtc_ex.c **** #endif /* RTC_TAMPER3_SUPPORT */
2254:Drivers/STM32L4xx_HAL_Driver/Src/stm32l4xx_hal_rtc_ex.c **** 
2255:Drivers/STM32L4xx_HAL_Driver/Src/stm32l4xx_hal_rtc_ex.c **** 
2256:Drivers/STM32L4xx_HAL_Driver/Src/stm32l4xx_hal_rtc_ex.c **** 
2257:Drivers/STM32L4xx_HAL_Driver/Src/stm32l4xx_hal_rtc_ex.c **** #if defined(RTC_TAMPER1_SUPPORT)
2258:Drivers/STM32L4xx_HAL_Driver/Src/stm32l4xx_hal_rtc_ex.c **** /**
2259:Drivers/STM32L4xx_HAL_Driver/Src/stm32l4xx_hal_rtc_ex.c ****   * @brief  Tamper 1 callback.
2260:Drivers/STM32L4xx_HAL_Driver/Src/stm32l4xx_hal_rtc_ex.c ****   * @param  hrtc RTC handle
2261:Drivers/STM32L4xx_HAL_Driver/Src/stm32l4xx_hal_rtc_ex.c ****   * @retval None
2262:Drivers/STM32L4xx_HAL_Driver/Src/stm32l4xx_hal_rtc_ex.c ****   */
2263:Drivers/STM32L4xx_HAL_Driver/Src/stm32l4xx_hal_rtc_ex.c **** __weak void HAL_RTCEx_Tamper1EventCallback(RTC_HandleTypeDef *hrtc)
2264:Drivers/STM32L4xx_HAL_Driver/Src/stm32l4xx_hal_rtc_ex.c **** {
ARM GAS  /tmp/cchDTGWe.s 			page 107


 3819              		.loc 1 2264 1
 3820              		.cfi_startproc
 3821              		@ args = 0, pretend = 0, frame = 8
 3822              		@ frame_needed = 1, uses_anonymous_args = 0
 3823              		@ link register save eliminated.
 3824 0000 80B4     		push	{r7}
 3825              		.cfi_def_cfa_offset 4
 3826              		.cfi_offset 7, -4
 3827 0002 83B0     		sub	sp, sp, #12
 3828              		.cfi_def_cfa_offset 16
 3829 0004 00AF     		add	r7, sp, #0
 3830              		.cfi_def_cfa_register 7
 3831 0006 7860     		str	r0, [r7, #4]
2265:Drivers/STM32L4xx_HAL_Driver/Src/stm32l4xx_hal_rtc_ex.c ****   /* Prevent unused argument(s) compilation warning */
2266:Drivers/STM32L4xx_HAL_Driver/Src/stm32l4xx_hal_rtc_ex.c ****   UNUSED(hrtc);
2267:Drivers/STM32L4xx_HAL_Driver/Src/stm32l4xx_hal_rtc_ex.c **** 
2268:Drivers/STM32L4xx_HAL_Driver/Src/stm32l4xx_hal_rtc_ex.c ****   /* NOTE : This function should not be modified, when the callback is needed,
2269:Drivers/STM32L4xx_HAL_Driver/Src/stm32l4xx_hal_rtc_ex.c ****             the HAL_RTCEx_Tamper1EventCallback could be implemented in the user file
2270:Drivers/STM32L4xx_HAL_Driver/Src/stm32l4xx_hal_rtc_ex.c ****    */
2271:Drivers/STM32L4xx_HAL_Driver/Src/stm32l4xx_hal_rtc_ex.c **** }
 3832              		.loc 1 2271 1
 3833 0008 00BF     		nop
 3834 000a 0C37     		adds	r7, r7, #12
 3835              		.cfi_def_cfa_offset 4
 3836 000c BD46     		mov	sp, r7
 3837              		.cfi_def_cfa_register 13
 3838              		@ sp needed
 3839 000e 5DF8047B 		ldr	r7, [sp], #4
 3840              		.cfi_restore 7
 3841              		.cfi_def_cfa_offset 0
 3842 0012 7047     		bx	lr
 3843              		.cfi_endproc
 3844              	.LFE477:
 3846              		.section	.text.HAL_RTCEx_Tamper2EventCallback,"ax",%progbits
 3847              		.align	1
 3848              		.weak	HAL_RTCEx_Tamper2EventCallback
 3849              		.syntax unified
 3850              		.thumb
 3851              		.thumb_func
 3853              	HAL_RTCEx_Tamper2EventCallback:
 3854              	.LFB478:
2272:Drivers/STM32L4xx_HAL_Driver/Src/stm32l4xx_hal_rtc_ex.c **** #endif /* RTC_TAMPER1_SUPPORT */
2273:Drivers/STM32L4xx_HAL_Driver/Src/stm32l4xx_hal_rtc_ex.c **** 
2274:Drivers/STM32L4xx_HAL_Driver/Src/stm32l4xx_hal_rtc_ex.c **** /**
2275:Drivers/STM32L4xx_HAL_Driver/Src/stm32l4xx_hal_rtc_ex.c ****   * @brief  Tamper 2 callback.
2276:Drivers/STM32L4xx_HAL_Driver/Src/stm32l4xx_hal_rtc_ex.c ****   * @param  hrtc RTC handle
2277:Drivers/STM32L4xx_HAL_Driver/Src/stm32l4xx_hal_rtc_ex.c ****   * @retval None
2278:Drivers/STM32L4xx_HAL_Driver/Src/stm32l4xx_hal_rtc_ex.c ****   */
2279:Drivers/STM32L4xx_HAL_Driver/Src/stm32l4xx_hal_rtc_ex.c **** __weak void HAL_RTCEx_Tamper2EventCallback(RTC_HandleTypeDef *hrtc)
2280:Drivers/STM32L4xx_HAL_Driver/Src/stm32l4xx_hal_rtc_ex.c **** {
 3855              		.loc 1 2280 1
 3856              		.cfi_startproc
 3857              		@ args = 0, pretend = 0, frame = 8
 3858              		@ frame_needed = 1, uses_anonymous_args = 0
 3859              		@ link register save eliminated.
 3860 0000 80B4     		push	{r7}
 3861              		.cfi_def_cfa_offset 4
ARM GAS  /tmp/cchDTGWe.s 			page 108


 3862              		.cfi_offset 7, -4
 3863 0002 83B0     		sub	sp, sp, #12
 3864              		.cfi_def_cfa_offset 16
 3865 0004 00AF     		add	r7, sp, #0
 3866              		.cfi_def_cfa_register 7
 3867 0006 7860     		str	r0, [r7, #4]
2281:Drivers/STM32L4xx_HAL_Driver/Src/stm32l4xx_hal_rtc_ex.c ****   /* Prevent unused argument(s) compilation warning */
2282:Drivers/STM32L4xx_HAL_Driver/Src/stm32l4xx_hal_rtc_ex.c ****   UNUSED(hrtc);
2283:Drivers/STM32L4xx_HAL_Driver/Src/stm32l4xx_hal_rtc_ex.c **** 
2284:Drivers/STM32L4xx_HAL_Driver/Src/stm32l4xx_hal_rtc_ex.c ****   /* NOTE : This function should not be modified, when the callback is needed,
2285:Drivers/STM32L4xx_HAL_Driver/Src/stm32l4xx_hal_rtc_ex.c ****             the HAL_RTCEx_Tamper2EventCallback could be implemented in the user file
2286:Drivers/STM32L4xx_HAL_Driver/Src/stm32l4xx_hal_rtc_ex.c ****    */
2287:Drivers/STM32L4xx_HAL_Driver/Src/stm32l4xx_hal_rtc_ex.c **** }
 3868              		.loc 1 2287 1
 3869 0008 00BF     		nop
 3870 000a 0C37     		adds	r7, r7, #12
 3871              		.cfi_def_cfa_offset 4
 3872 000c BD46     		mov	sp, r7
 3873              		.cfi_def_cfa_register 13
 3874              		@ sp needed
 3875 000e 5DF8047B 		ldr	r7, [sp], #4
 3876              		.cfi_restore 7
 3877              		.cfi_def_cfa_offset 0
 3878 0012 7047     		bx	lr
 3879              		.cfi_endproc
 3880              	.LFE478:
 3882              		.section	.text.HAL_RTCEx_Tamper3EventCallback,"ax",%progbits
 3883              		.align	1
 3884              		.weak	HAL_RTCEx_Tamper3EventCallback
 3885              		.syntax unified
 3886              		.thumb
 3887              		.thumb_func
 3889              	HAL_RTCEx_Tamper3EventCallback:
 3890              	.LFB479:
2288:Drivers/STM32L4xx_HAL_Driver/Src/stm32l4xx_hal_rtc_ex.c **** 
2289:Drivers/STM32L4xx_HAL_Driver/Src/stm32l4xx_hal_rtc_ex.c **** #if defined(RTC_TAMPER3_SUPPORT)
2290:Drivers/STM32L4xx_HAL_Driver/Src/stm32l4xx_hal_rtc_ex.c **** /**
2291:Drivers/STM32L4xx_HAL_Driver/Src/stm32l4xx_hal_rtc_ex.c ****   * @brief  Tamper 3 callback.
2292:Drivers/STM32L4xx_HAL_Driver/Src/stm32l4xx_hal_rtc_ex.c ****   * @param  hrtc RTC handle
2293:Drivers/STM32L4xx_HAL_Driver/Src/stm32l4xx_hal_rtc_ex.c ****   * @retval None
2294:Drivers/STM32L4xx_HAL_Driver/Src/stm32l4xx_hal_rtc_ex.c ****   */
2295:Drivers/STM32L4xx_HAL_Driver/Src/stm32l4xx_hal_rtc_ex.c **** __weak void HAL_RTCEx_Tamper3EventCallback(RTC_HandleTypeDef *hrtc)
2296:Drivers/STM32L4xx_HAL_Driver/Src/stm32l4xx_hal_rtc_ex.c **** {
 3891              		.loc 1 2296 1
 3892              		.cfi_startproc
 3893              		@ args = 0, pretend = 0, frame = 8
 3894              		@ frame_needed = 1, uses_anonymous_args = 0
 3895              		@ link register save eliminated.
 3896 0000 80B4     		push	{r7}
 3897              		.cfi_def_cfa_offset 4
 3898              		.cfi_offset 7, -4
 3899 0002 83B0     		sub	sp, sp, #12
 3900              		.cfi_def_cfa_offset 16
 3901 0004 00AF     		add	r7, sp, #0
 3902              		.cfi_def_cfa_register 7
 3903 0006 7860     		str	r0, [r7, #4]
2297:Drivers/STM32L4xx_HAL_Driver/Src/stm32l4xx_hal_rtc_ex.c ****   /* Prevent unused argument(s) compilation warning */
ARM GAS  /tmp/cchDTGWe.s 			page 109


2298:Drivers/STM32L4xx_HAL_Driver/Src/stm32l4xx_hal_rtc_ex.c ****   UNUSED(hrtc);
2299:Drivers/STM32L4xx_HAL_Driver/Src/stm32l4xx_hal_rtc_ex.c **** 
2300:Drivers/STM32L4xx_HAL_Driver/Src/stm32l4xx_hal_rtc_ex.c ****   /* NOTE : This function should not be modified, when the callback is needed,
2301:Drivers/STM32L4xx_HAL_Driver/Src/stm32l4xx_hal_rtc_ex.c ****             the HAL_RTCEx_Tamper3EventCallback could be implemented in the user file
2302:Drivers/STM32L4xx_HAL_Driver/Src/stm32l4xx_hal_rtc_ex.c ****    */
2303:Drivers/STM32L4xx_HAL_Driver/Src/stm32l4xx_hal_rtc_ex.c **** }
 3904              		.loc 1 2303 1
 3905 0008 00BF     		nop
 3906 000a 0C37     		adds	r7, r7, #12
 3907              		.cfi_def_cfa_offset 4
 3908 000c BD46     		mov	sp, r7
 3909              		.cfi_def_cfa_register 13
 3910              		@ sp needed
 3911 000e 5DF8047B 		ldr	r7, [sp], #4
 3912              		.cfi_restore 7
 3913              		.cfi_def_cfa_offset 0
 3914 0012 7047     		bx	lr
 3915              		.cfi_endproc
 3916              	.LFE479:
 3918              		.section	.text.HAL_RTCEx_BKUPWrite,"ax",%progbits
 3919              		.align	1
 3920              		.global	HAL_RTCEx_BKUPWrite
 3921              		.syntax unified
 3922              		.thumb
 3923              		.thumb_func
 3925              	HAL_RTCEx_BKUPWrite:
 3926              	.LFB480:
2304:Drivers/STM32L4xx_HAL_Driver/Src/stm32l4xx_hal_rtc_ex.c **** #endif /* RTC_TAMPER3_SUPPORT */
2305:Drivers/STM32L4xx_HAL_Driver/Src/stm32l4xx_hal_rtc_ex.c **** 
2306:Drivers/STM32L4xx_HAL_Driver/Src/stm32l4xx_hal_rtc_ex.c **** /**
2307:Drivers/STM32L4xx_HAL_Driver/Src/stm32l4xx_hal_rtc_ex.c ****   * @}
2308:Drivers/STM32L4xx_HAL_Driver/Src/stm32l4xx_hal_rtc_ex.c ****   */
2309:Drivers/STM32L4xx_HAL_Driver/Src/stm32l4xx_hal_rtc_ex.c **** 
2310:Drivers/STM32L4xx_HAL_Driver/Src/stm32l4xx_hal_rtc_ex.c **** 
2311:Drivers/STM32L4xx_HAL_Driver/Src/stm32l4xx_hal_rtc_ex.c **** /** @addtogroup RTCEx_Exported_Functions_Group6
2312:Drivers/STM32L4xx_HAL_Driver/Src/stm32l4xx_hal_rtc_ex.c ****   * @brief      Extended RTC Backup register functions
2313:Drivers/STM32L4xx_HAL_Driver/Src/stm32l4xx_hal_rtc_ex.c ****   *
2314:Drivers/STM32L4xx_HAL_Driver/Src/stm32l4xx_hal_rtc_ex.c **** @verbatim
2315:Drivers/STM32L4xx_HAL_Driver/Src/stm32l4xx_hal_rtc_ex.c ****   ===============================================================================
2316:Drivers/STM32L4xx_HAL_Driver/Src/stm32l4xx_hal_rtc_ex.c ****              ##### Extended RTC Backup register functions #####
2317:Drivers/STM32L4xx_HAL_Driver/Src/stm32l4xx_hal_rtc_ex.c ****   ===============================================================================
2318:Drivers/STM32L4xx_HAL_Driver/Src/stm32l4xx_hal_rtc_ex.c ****   [..]
2319:Drivers/STM32L4xx_HAL_Driver/Src/stm32l4xx_hal_rtc_ex.c ****    (+) Before calling any tamper or internal tamper function, you have to call first
2320:Drivers/STM32L4xx_HAL_Driver/Src/stm32l4xx_hal_rtc_ex.c ****        HAL_RTC_Init() function.
2321:Drivers/STM32L4xx_HAL_Driver/Src/stm32l4xx_hal_rtc_ex.c ****    (+) In that ine you can select to output tamper event on RTC pin.
2322:Drivers/STM32L4xx_HAL_Driver/Src/stm32l4xx_hal_rtc_ex.c ****   [..]
2323:Drivers/STM32L4xx_HAL_Driver/Src/stm32l4xx_hal_rtc_ex.c ****    This subsection provides functions allowing to
2324:Drivers/STM32L4xx_HAL_Driver/Src/stm32l4xx_hal_rtc_ex.c ****    (+) Write a data in a specified RTC Backup data register
2325:Drivers/STM32L4xx_HAL_Driver/Src/stm32l4xx_hal_rtc_ex.c ****    (+) Read a data in a specified RTC Backup data register
2326:Drivers/STM32L4xx_HAL_Driver/Src/stm32l4xx_hal_rtc_ex.c **** @endverbatim
2327:Drivers/STM32L4xx_HAL_Driver/Src/stm32l4xx_hal_rtc_ex.c ****   * @{
2328:Drivers/STM32L4xx_HAL_Driver/Src/stm32l4xx_hal_rtc_ex.c ****   */
2329:Drivers/STM32L4xx_HAL_Driver/Src/stm32l4xx_hal_rtc_ex.c **** 
2330:Drivers/STM32L4xx_HAL_Driver/Src/stm32l4xx_hal_rtc_ex.c **** 
2331:Drivers/STM32L4xx_HAL_Driver/Src/stm32l4xx_hal_rtc_ex.c **** /**
2332:Drivers/STM32L4xx_HAL_Driver/Src/stm32l4xx_hal_rtc_ex.c ****   * @brief  Write a data in a specified RTC Backup data register.
2333:Drivers/STM32L4xx_HAL_Driver/Src/stm32l4xx_hal_rtc_ex.c ****   * @param  hrtc RTC handle
ARM GAS  /tmp/cchDTGWe.s 			page 110


2334:Drivers/STM32L4xx_HAL_Driver/Src/stm32l4xx_hal_rtc_ex.c ****   * @param  BackupRegister RTC Backup data Register number.
2335:Drivers/STM32L4xx_HAL_Driver/Src/stm32l4xx_hal_rtc_ex.c ****   *          This parameter can be: RTC_BKP_DRx where x can be from 0 to 31 to
2336:Drivers/STM32L4xx_HAL_Driver/Src/stm32l4xx_hal_rtc_ex.c ****   *          specify the register.
2337:Drivers/STM32L4xx_HAL_Driver/Src/stm32l4xx_hal_rtc_ex.c ****   * @param  Data Data to be written in the specified Backup data register.
2338:Drivers/STM32L4xx_HAL_Driver/Src/stm32l4xx_hal_rtc_ex.c ****   * @retval None
2339:Drivers/STM32L4xx_HAL_Driver/Src/stm32l4xx_hal_rtc_ex.c ****   */
2340:Drivers/STM32L4xx_HAL_Driver/Src/stm32l4xx_hal_rtc_ex.c **** void HAL_RTCEx_BKUPWrite(RTC_HandleTypeDef *hrtc, uint32_t BackupRegister, uint32_t Data)
2341:Drivers/STM32L4xx_HAL_Driver/Src/stm32l4xx_hal_rtc_ex.c **** {
 3927              		.loc 1 2341 1
 3928              		.cfi_startproc
 3929              		@ args = 0, pretend = 0, frame = 24
 3930              		@ frame_needed = 1, uses_anonymous_args = 0
 3931              		@ link register save eliminated.
 3932 0000 80B4     		push	{r7}
 3933              		.cfi_def_cfa_offset 4
 3934              		.cfi_offset 7, -4
 3935 0002 87B0     		sub	sp, sp, #28
 3936              		.cfi_def_cfa_offset 32
 3937 0004 00AF     		add	r7, sp, #0
 3938              		.cfi_def_cfa_register 7
 3939 0006 F860     		str	r0, [r7, #12]
 3940 0008 B960     		str	r1, [r7, #8]
 3941 000a 7A60     		str	r2, [r7, #4]
2342:Drivers/STM32L4xx_HAL_Driver/Src/stm32l4xx_hal_rtc_ex.c ****   uint32_t __IO tmp;
2343:Drivers/STM32L4xx_HAL_Driver/Src/stm32l4xx_hal_rtc_ex.c **** #if defined(STM32L412xx) || defined(STM32L422xx) || defined (STM32L4P5xx) || defined (STM32L4Q5xx)
2344:Drivers/STM32L4xx_HAL_Driver/Src/stm32l4xx_hal_rtc_ex.c ****   /* Process TAMP instance pointer */
2345:Drivers/STM32L4xx_HAL_Driver/Src/stm32l4xx_hal_rtc_ex.c ****   TAMP_TypeDef *tamp = (TAMP_TypeDef *)((uint32_t)hrtc->Instance + hrtc->TampOffset);
2346:Drivers/STM32L4xx_HAL_Driver/Src/stm32l4xx_hal_rtc_ex.c **** 
2347:Drivers/STM32L4xx_HAL_Driver/Src/stm32l4xx_hal_rtc_ex.c ****   /* Check the parameters */
2348:Drivers/STM32L4xx_HAL_Driver/Src/stm32l4xx_hal_rtc_ex.c ****   assert_param(IS_RTC_BKP(BackupRegister));
2349:Drivers/STM32L4xx_HAL_Driver/Src/stm32l4xx_hal_rtc_ex.c **** 
2350:Drivers/STM32L4xx_HAL_Driver/Src/stm32l4xx_hal_rtc_ex.c ****   tmp = (uint32_t) & (tamp->BKP0R);
2351:Drivers/STM32L4xx_HAL_Driver/Src/stm32l4xx_hal_rtc_ex.c **** #else /* #if defined(STM32L412xx) || defined(STM32L422xx) || defined (STM32L4P5xx) || defined (STM3
2352:Drivers/STM32L4xx_HAL_Driver/Src/stm32l4xx_hal_rtc_ex.c ****   /* Check the parameters */
2353:Drivers/STM32L4xx_HAL_Driver/Src/stm32l4xx_hal_rtc_ex.c ****   assert_param(IS_RTC_BKP(BackupRegister));
2354:Drivers/STM32L4xx_HAL_Driver/Src/stm32l4xx_hal_rtc_ex.c **** 
2355:Drivers/STM32L4xx_HAL_Driver/Src/stm32l4xx_hal_rtc_ex.c ****   tmp = (uint32_t) & (hrtc->Instance->BKP0R);
 3942              		.loc 1 2355 27
 3943 000c FB68     		ldr	r3, [r7, #12]
 3944 000e 1B68     		ldr	r3, [r3]
 3945              		.loc 1 2355 20
 3946 0010 5033     		adds	r3, r3, #80
 3947              		.loc 1 2355 7
 3948 0012 7B61     		str	r3, [r7, #20]
2356:Drivers/STM32L4xx_HAL_Driver/Src/stm32l4xx_hal_rtc_ex.c **** #endif /* #if defined(STM32L412xx) || defined(STM32L422xx) || defined (STM32L4P5xx) || defined (STM
2357:Drivers/STM32L4xx_HAL_Driver/Src/stm32l4xx_hal_rtc_ex.c **** 
2358:Drivers/STM32L4xx_HAL_Driver/Src/stm32l4xx_hal_rtc_ex.c ****   tmp += (BackupRegister * 4U);
 3949              		.loc 1 2358 26
 3950 0014 BB68     		ldr	r3, [r7, #8]
 3951 0016 9A00     		lsls	r2, r3, #2
 3952              		.loc 1 2358 7
 3953 0018 7B69     		ldr	r3, [r7, #20]
 3954 001a 1344     		add	r3, r3, r2
 3955 001c 7B61     		str	r3, [r7, #20]
2359:Drivers/STM32L4xx_HAL_Driver/Src/stm32l4xx_hal_rtc_ex.c **** 
2360:Drivers/STM32L4xx_HAL_Driver/Src/stm32l4xx_hal_rtc_ex.c ****   /* Write the specified register */
2361:Drivers/STM32L4xx_HAL_Driver/Src/stm32l4xx_hal_rtc_ex.c ****   *(__IO uint32_t *)tmp = (uint32_t)Data;
ARM GAS  /tmp/cchDTGWe.s 			page 111


 3956              		.loc 1 2361 4
 3957 001e 7B69     		ldr	r3, [r7, #20]
 3958 0020 1A46     		mov	r2, r3
 3959              		.loc 1 2361 25
 3960 0022 7B68     		ldr	r3, [r7, #4]
 3961 0024 1360     		str	r3, [r2]
2362:Drivers/STM32L4xx_HAL_Driver/Src/stm32l4xx_hal_rtc_ex.c **** }
 3962              		.loc 1 2362 1
 3963 0026 00BF     		nop
 3964 0028 1C37     		adds	r7, r7, #28
 3965              		.cfi_def_cfa_offset 4
 3966 002a BD46     		mov	sp, r7
 3967              		.cfi_def_cfa_register 13
 3968              		@ sp needed
 3969 002c 5DF8047B 		ldr	r7, [sp], #4
 3970              		.cfi_restore 7
 3971              		.cfi_def_cfa_offset 0
 3972 0030 7047     		bx	lr
 3973              		.cfi_endproc
 3974              	.LFE480:
 3976              		.section	.text.HAL_RTCEx_BKUPRead,"ax",%progbits
 3977              		.align	1
 3978              		.global	HAL_RTCEx_BKUPRead
 3979              		.syntax unified
 3980              		.thumb
 3981              		.thumb_func
 3983              	HAL_RTCEx_BKUPRead:
 3984              	.LFB481:
2363:Drivers/STM32L4xx_HAL_Driver/Src/stm32l4xx_hal_rtc_ex.c **** 
2364:Drivers/STM32L4xx_HAL_Driver/Src/stm32l4xx_hal_rtc_ex.c **** 
2365:Drivers/STM32L4xx_HAL_Driver/Src/stm32l4xx_hal_rtc_ex.c **** /**
2366:Drivers/STM32L4xx_HAL_Driver/Src/stm32l4xx_hal_rtc_ex.c ****   * @brief  Read data from the specified RTC Backup data Register.
2367:Drivers/STM32L4xx_HAL_Driver/Src/stm32l4xx_hal_rtc_ex.c ****   * @param  hrtc RTC handle
2368:Drivers/STM32L4xx_HAL_Driver/Src/stm32l4xx_hal_rtc_ex.c ****   * @param  BackupRegister  RTC Backup data Register number.
2369:Drivers/STM32L4xx_HAL_Driver/Src/stm32l4xx_hal_rtc_ex.c ****   *         This parameter can be: RTC_BKP_DRx where x can be from 0 to 31 to
2370:Drivers/STM32L4xx_HAL_Driver/Src/stm32l4xx_hal_rtc_ex.c ****   *         specify the register.
2371:Drivers/STM32L4xx_HAL_Driver/Src/stm32l4xx_hal_rtc_ex.c ****   * @retval Read value
2372:Drivers/STM32L4xx_HAL_Driver/Src/stm32l4xx_hal_rtc_ex.c ****   */
2373:Drivers/STM32L4xx_HAL_Driver/Src/stm32l4xx_hal_rtc_ex.c **** uint32_t HAL_RTCEx_BKUPRead(RTC_HandleTypeDef *hrtc, uint32_t BackupRegister)
2374:Drivers/STM32L4xx_HAL_Driver/Src/stm32l4xx_hal_rtc_ex.c **** {
 3985              		.loc 1 2374 1
 3986              		.cfi_startproc
 3987              		@ args = 0, pretend = 0, frame = 16
 3988              		@ frame_needed = 1, uses_anonymous_args = 0
 3989              		@ link register save eliminated.
 3990 0000 80B4     		push	{r7}
 3991              		.cfi_def_cfa_offset 4
 3992              		.cfi_offset 7, -4
 3993 0002 85B0     		sub	sp, sp, #20
 3994              		.cfi_def_cfa_offset 24
 3995 0004 00AF     		add	r7, sp, #0
 3996              		.cfi_def_cfa_register 7
 3997 0006 7860     		str	r0, [r7, #4]
 3998 0008 3960     		str	r1, [r7]
2375:Drivers/STM32L4xx_HAL_Driver/Src/stm32l4xx_hal_rtc_ex.c ****   uint32_t tmp;
2376:Drivers/STM32L4xx_HAL_Driver/Src/stm32l4xx_hal_rtc_ex.c **** #if defined(STM32L412xx) || defined(STM32L422xx) || defined (STM32L4P5xx) || defined (STM32L4Q5xx)
2377:Drivers/STM32L4xx_HAL_Driver/Src/stm32l4xx_hal_rtc_ex.c ****   /* Process TAMP instance pointer */
ARM GAS  /tmp/cchDTGWe.s 			page 112


2378:Drivers/STM32L4xx_HAL_Driver/Src/stm32l4xx_hal_rtc_ex.c ****   TAMP_TypeDef *tamp = (TAMP_TypeDef *)((uint32_t)hrtc->Instance + hrtc->TampOffset);
2379:Drivers/STM32L4xx_HAL_Driver/Src/stm32l4xx_hal_rtc_ex.c **** 
2380:Drivers/STM32L4xx_HAL_Driver/Src/stm32l4xx_hal_rtc_ex.c ****   /* Check the parameters */
2381:Drivers/STM32L4xx_HAL_Driver/Src/stm32l4xx_hal_rtc_ex.c ****   assert_param(IS_RTC_BKP(BackupRegister));
2382:Drivers/STM32L4xx_HAL_Driver/Src/stm32l4xx_hal_rtc_ex.c **** 
2383:Drivers/STM32L4xx_HAL_Driver/Src/stm32l4xx_hal_rtc_ex.c ****   tmp = (uint32_t) & (tamp->BKP0R);
2384:Drivers/STM32L4xx_HAL_Driver/Src/stm32l4xx_hal_rtc_ex.c **** #else /* #if defined(STM32L412xx) || defined(STM32L422xx) || defined (STM32L4P5xx) || defined (STM3
2385:Drivers/STM32L4xx_HAL_Driver/Src/stm32l4xx_hal_rtc_ex.c ****   /* Check the parameters */
2386:Drivers/STM32L4xx_HAL_Driver/Src/stm32l4xx_hal_rtc_ex.c ****   assert_param(IS_RTC_BKP(BackupRegister));
2387:Drivers/STM32L4xx_HAL_Driver/Src/stm32l4xx_hal_rtc_ex.c **** 
2388:Drivers/STM32L4xx_HAL_Driver/Src/stm32l4xx_hal_rtc_ex.c ****   tmp = (uint32_t) & (hrtc->Instance->BKP0R);
 3999              		.loc 1 2388 27
 4000 000a 7B68     		ldr	r3, [r7, #4]
 4001 000c 1B68     		ldr	r3, [r3]
 4002              		.loc 1 2388 20
 4003 000e 5033     		adds	r3, r3, #80
 4004              		.loc 1 2388 7
 4005 0010 FB60     		str	r3, [r7, #12]
2389:Drivers/STM32L4xx_HAL_Driver/Src/stm32l4xx_hal_rtc_ex.c **** #endif /* #if defined(STM32L412xx) || defined(STM32L422xx) || defined (STM32L4P5xx) || defined (STM
2390:Drivers/STM32L4xx_HAL_Driver/Src/stm32l4xx_hal_rtc_ex.c **** 
2391:Drivers/STM32L4xx_HAL_Driver/Src/stm32l4xx_hal_rtc_ex.c ****   tmp += (BackupRegister * 4U);
 4006              		.loc 1 2391 26
 4007 0012 3B68     		ldr	r3, [r7]
 4008 0014 9B00     		lsls	r3, r3, #2
 4009              		.loc 1 2391 7
 4010 0016 FA68     		ldr	r2, [r7, #12]
 4011 0018 1344     		add	r3, r3, r2
 4012 001a FB60     		str	r3, [r7, #12]
2392:Drivers/STM32L4xx_HAL_Driver/Src/stm32l4xx_hal_rtc_ex.c **** 
2393:Drivers/STM32L4xx_HAL_Driver/Src/stm32l4xx_hal_rtc_ex.c ****   /* Read the specified register */
2394:Drivers/STM32L4xx_HAL_Driver/Src/stm32l4xx_hal_rtc_ex.c ****   return (*(__IO uint32_t *)tmp);
 4013              		.loc 1 2394 12
 4014 001c FB68     		ldr	r3, [r7, #12]
 4015              		.loc 1 2394 11
 4016 001e 1B68     		ldr	r3, [r3]
2395:Drivers/STM32L4xx_HAL_Driver/Src/stm32l4xx_hal_rtc_ex.c **** }
 4017              		.loc 1 2395 1
 4018 0020 1846     		mov	r0, r3
 4019 0022 1437     		adds	r7, r7, #20
 4020              		.cfi_def_cfa_offset 4
 4021 0024 BD46     		mov	sp, r7
 4022              		.cfi_def_cfa_register 13
 4023              		@ sp needed
 4024 0026 5DF8047B 		ldr	r7, [sp], #4
 4025              		.cfi_restore 7
 4026              		.cfi_def_cfa_offset 0
 4027 002a 7047     		bx	lr
 4028              		.cfi_endproc
 4029              	.LFE481:
 4031              		.text
 4032              	.Letext0:
 4033              		.file 2 "/usr/lib/gcc/arm-none-eabi/13.2.1/include/stdint.h"
 4034              		.file 3 "Drivers/CMSIS/Device/ST/STM32L4xx/Include/stm32l475xx.h"
 4035              		.file 4 "Drivers/STM32L4xx_HAL_Driver/Inc/stm32l4xx_hal_def.h"
 4036              		.file 5 "Drivers/STM32L4xx_HAL_Driver/Inc/stm32l4xx_hal_rtc.h"
 4037              		.file 6 "Drivers/STM32L4xx_HAL_Driver/Inc/stm32l4xx_hal_rtc_ex.h"
 4038              		.file 7 "Drivers/STM32L4xx_HAL_Driver/Inc/stm32l4xx_ll_dma.h"
ARM GAS  /tmp/cchDTGWe.s 			page 113


 4039              		.file 8 "Drivers/STM32L4xx_HAL_Driver/Inc/stm32l4xx_hal.h"
ARM GAS  /tmp/cchDTGWe.s 			page 114


DEFINED SYMBOLS
                            *ABS*:00000000 stm32l4xx_hal_rtc_ex.c
     /tmp/cchDTGWe.s:21     .rodata.CHANNEL_OFFSET_TAB:00000000 $d
     /tmp/cchDTGWe.s:24     .rodata.CHANNEL_OFFSET_TAB:00000000 CHANNEL_OFFSET_TAB
     /tmp/cchDTGWe.s:27     .text.HAL_RTCEx_SetTimeStamp:00000000 $t
     /tmp/cchDTGWe.s:33     .text.HAL_RTCEx_SetTimeStamp:00000000 HAL_RTCEx_SetTimeStamp
     /tmp/cchDTGWe.s:136    .text.HAL_RTCEx_SetTimeStamp_IT:00000000 $t
     /tmp/cchDTGWe.s:142    .text.HAL_RTCEx_SetTimeStamp_IT:00000000 HAL_RTCEx_SetTimeStamp_IT
     /tmp/cchDTGWe.s:264    .text.HAL_RTCEx_SetTimeStamp_IT:000000b8 $d
     /tmp/cchDTGWe.s:269    .text.HAL_RTCEx_DeactivateTimeStamp:00000000 $t
     /tmp/cchDTGWe.s:275    .text.HAL_RTCEx_DeactivateTimeStamp:00000000 HAL_RTCEx_DeactivateTimeStamp
     /tmp/cchDTGWe.s:371    .text.HAL_RTCEx_SetInternalTimeStamp:00000000 $t
     /tmp/cchDTGWe.s:377    .text.HAL_RTCEx_SetInternalTimeStamp:00000000 HAL_RTCEx_SetInternalTimeStamp
     /tmp/cchDTGWe.s:458    .text.HAL_RTCEx_DeactivateInternalTimeStamp:00000000 $t
     /tmp/cchDTGWe.s:464    .text.HAL_RTCEx_DeactivateInternalTimeStamp:00000000 HAL_RTCEx_DeactivateInternalTimeStamp
     /tmp/cchDTGWe.s:545    .text.HAL_RTCEx_GetTimeStamp:00000000 $t
     /tmp/cchDTGWe.s:551    .text.HAL_RTCEx_GetTimeStamp:00000000 HAL_RTCEx_GetTimeStamp
     /tmp/cchDTGWe.s:762    .text.HAL_RTCEx_GetTimeStamp:0000014c $d
     /tmp/cchDTGWe.s:767    .text.HAL_RTCEx_TamperTimeStampIRQHandler:00000000 $t
     /tmp/cchDTGWe.s:773    .text.HAL_RTCEx_TamperTimeStampIRQHandler:00000000 HAL_RTCEx_TamperTimeStampIRQHandler
     /tmp/cchDTGWe.s:942    .text.HAL_RTCEx_TimeStampEventCallback:00000000 HAL_RTCEx_TimeStampEventCallback
     /tmp/cchDTGWe.s:3817   .text.HAL_RTCEx_Tamper1EventCallback:00000000 HAL_RTCEx_Tamper1EventCallback
     /tmp/cchDTGWe.s:3853   .text.HAL_RTCEx_Tamper2EventCallback:00000000 HAL_RTCEx_Tamper2EventCallback
     /tmp/cchDTGWe.s:3889   .text.HAL_RTCEx_Tamper3EventCallback:00000000 HAL_RTCEx_Tamper3EventCallback
     /tmp/cchDTGWe.s:927    .text.HAL_RTCEx_TamperTimeStampIRQHandler:000000f0 $d
     /tmp/cchDTGWe.s:936    .text.HAL_RTCEx_TimeStampEventCallback:00000000 $t
     /tmp/cchDTGWe.s:972    .text.HAL_RTCEx_PollForTimeStampEvent:00000000 $t
     /tmp/cchDTGWe.s:978    .text.HAL_RTCEx_PollForTimeStampEvent:00000000 HAL_RTCEx_PollForTimeStampEvent
     /tmp/cchDTGWe.s:1079   .text.HAL_RTCEx_SetWakeUpTimer:00000000 $t
     /tmp/cchDTGWe.s:1085   .text.HAL_RTCEx_SetWakeUpTimer:00000000 HAL_RTCEx_SetWakeUpTimer
     /tmp/cchDTGWe.s:1237   .text.HAL_RTCEx_SetWakeUpTimer_IT:00000000 $t
     /tmp/cchDTGWe.s:1243   .text.HAL_RTCEx_SetWakeUpTimer_IT:00000000 HAL_RTCEx_SetWakeUpTimer_IT
     /tmp/cchDTGWe.s:1424   .text.HAL_RTCEx_SetWakeUpTimer_IT:00000124 $d
     /tmp/cchDTGWe.s:1429   .text.HAL_RTCEx_DeactivateWakeUpTimer:00000000 $t
     /tmp/cchDTGWe.s:1435   .text.HAL_RTCEx_DeactivateWakeUpTimer:00000000 HAL_RTCEx_DeactivateWakeUpTimer
     /tmp/cchDTGWe.s:1561   .text.HAL_RTCEx_GetWakeUpTimer:00000000 $t
     /tmp/cchDTGWe.s:1567   .text.HAL_RTCEx_GetWakeUpTimer:00000000 HAL_RTCEx_GetWakeUpTimer
     /tmp/cchDTGWe.s:1604   .text.HAL_RTCEx_WakeUpTimerIRQHandler:00000000 $t
     /tmp/cchDTGWe.s:1610   .text.HAL_RTCEx_WakeUpTimerIRQHandler:00000000 HAL_RTCEx_WakeUpTimerIRQHandler
     /tmp/cchDTGWe.s:1676   .text.HAL_RTCEx_WakeUpTimerEventCallback:00000000 HAL_RTCEx_WakeUpTimerEventCallback
     /tmp/cchDTGWe.s:1665   .text.HAL_RTCEx_WakeUpTimerIRQHandler:00000048 $d
     /tmp/cchDTGWe.s:1670   .text.HAL_RTCEx_WakeUpTimerEventCallback:00000000 $t
     /tmp/cchDTGWe.s:1706   .text.HAL_RTCEx_PollForWakeUpTimerEvent:00000000 $t
     /tmp/cchDTGWe.s:1712   .text.HAL_RTCEx_PollForWakeUpTimerEvent:00000000 HAL_RTCEx_PollForWakeUpTimerEvent
     /tmp/cchDTGWe.s:1797   .text.HAL_RTCEx_SetSmoothCalib:00000000 $t
     /tmp/cchDTGWe.s:1803   .text.HAL_RTCEx_SetSmoothCalib:00000000 HAL_RTCEx_SetSmoothCalib
     /tmp/cchDTGWe.s:1944   .text.HAL_RTCEx_SetSynchroShift:00000000 $t
     /tmp/cchDTGWe.s:1950   .text.HAL_RTCEx_SetSynchroShift:00000000 HAL_RTCEx_SetSynchroShift
     /tmp/cchDTGWe.s:2134   .text.HAL_RTCEx_SetCalibrationOutPut:00000000 $t
     /tmp/cchDTGWe.s:2140   .text.HAL_RTCEx_SetCalibrationOutPut:00000000 HAL_RTCEx_SetCalibrationOutPut
     /tmp/cchDTGWe.s:2245   .text.HAL_RTCEx_DeactivateCalibrationOutPut:00000000 $t
     /tmp/cchDTGWe.s:2251   .text.HAL_RTCEx_DeactivateCalibrationOutPut:00000000 HAL_RTCEx_DeactivateCalibrationOutPut
     /tmp/cchDTGWe.s:2332   .text.HAL_RTCEx_SetRefClock:00000000 $t
     /tmp/cchDTGWe.s:2338   .text.HAL_RTCEx_SetRefClock:00000000 HAL_RTCEx_SetRefClock
     /tmp/cchDTGWe.s:2436   .text.HAL_RTCEx_DeactivateRefClock:00000000 $t
     /tmp/cchDTGWe.s:2442   .text.HAL_RTCEx_DeactivateRefClock:00000000 HAL_RTCEx_DeactivateRefClock
     /tmp/cchDTGWe.s:2540   .text.HAL_RTCEx_EnableBypassShadow:00000000 $t
ARM GAS  /tmp/cchDTGWe.s 			page 115


     /tmp/cchDTGWe.s:2546   .text.HAL_RTCEx_EnableBypassShadow:00000000 HAL_RTCEx_EnableBypassShadow
     /tmp/cchDTGWe.s:2627   .text.HAL_RTCEx_DisableBypassShadow:00000000 $t
     /tmp/cchDTGWe.s:2633   .text.HAL_RTCEx_DisableBypassShadow:00000000 HAL_RTCEx_DisableBypassShadow
     /tmp/cchDTGWe.s:2711   .text.HAL_RTCEx_DisableBypassShadow:00000068 $d
     /tmp/cchDTGWe.s:2716   .text.HAL_RTCEx_AlarmBEventCallback:00000000 $t
     /tmp/cchDTGWe.s:2722   .text.HAL_RTCEx_AlarmBEventCallback:00000000 HAL_RTCEx_AlarmBEventCallback
     /tmp/cchDTGWe.s:2752   .text.HAL_RTCEx_PollForAlarmBEvent:00000000 $t
     /tmp/cchDTGWe.s:2758   .text.HAL_RTCEx_PollForAlarmBEvent:00000000 HAL_RTCEx_PollForAlarmBEvent
     /tmp/cchDTGWe.s:2843   .text.HAL_RTCEx_SetTamper:00000000 $t
     /tmp/cchDTGWe.s:2849   .text.HAL_RTCEx_SetTamper:00000000 HAL_RTCEx_SetTamper
     /tmp/cchDTGWe.s:3107   .text.HAL_RTCEx_SetTamper_IT:00000000 $t
     /tmp/cchDTGWe.s:3113   .text.HAL_RTCEx_SetTamper_IT:00000000 HAL_RTCEx_SetTamper_IT
     /tmp/cchDTGWe.s:3391   .text.HAL_RTCEx_SetTamper_IT:000001a4 $d
     /tmp/cchDTGWe.s:3396   .text.HAL_RTCEx_DeactivateTamper:00000000 $t
     /tmp/cchDTGWe.s:3402   .text.HAL_RTCEx_DeactivateTamper:00000000 HAL_RTCEx_DeactivateTamper
     /tmp/cchDTGWe.s:3533   .text.HAL_RTCEx_PollForTamper1Event:00000000 $t
     /tmp/cchDTGWe.s:3539   .text.HAL_RTCEx_PollForTamper1Event:00000000 HAL_RTCEx_PollForTamper1Event
     /tmp/cchDTGWe.s:3624   .text.HAL_RTCEx_PollForTamper2Event:00000000 $t
     /tmp/cchDTGWe.s:3630   .text.HAL_RTCEx_PollForTamper2Event:00000000 HAL_RTCEx_PollForTamper2Event
     /tmp/cchDTGWe.s:3715   .text.HAL_RTCEx_PollForTamper3Event:00000000 $t
     /tmp/cchDTGWe.s:3721   .text.HAL_RTCEx_PollForTamper3Event:00000000 HAL_RTCEx_PollForTamper3Event
     /tmp/cchDTGWe.s:3806   .text.HAL_RTCEx_PollForTamper3Event:00000070 $d
     /tmp/cchDTGWe.s:3811   .text.HAL_RTCEx_Tamper1EventCallback:00000000 $t
     /tmp/cchDTGWe.s:3847   .text.HAL_RTCEx_Tamper2EventCallback:00000000 $t
     /tmp/cchDTGWe.s:3883   .text.HAL_RTCEx_Tamper3EventCallback:00000000 $t
     /tmp/cchDTGWe.s:3919   .text.HAL_RTCEx_BKUPWrite:00000000 $t
     /tmp/cchDTGWe.s:3925   .text.HAL_RTCEx_BKUPWrite:00000000 HAL_RTCEx_BKUPWrite
     /tmp/cchDTGWe.s:3977   .text.HAL_RTCEx_BKUPRead:00000000 $t
     /tmp/cchDTGWe.s:3983   .text.HAL_RTCEx_BKUPRead:00000000 HAL_RTCEx_BKUPRead
                           .group:00000000 wm4.0.e7b64c2c371cf922f2c8028878d5c18e
                           .group:00000000 wm4.stm32l4xx_hal_conf.h.23.286c2f63aaa73ed97ffb4d26f7caa6e9
                           .group:00000000 wm4.stm32l4xx.h.38.9f5830373ca31b8a3cd182fdc6c7b69a
                           .group:00000000 wm4.stm32l475xx.h.34.2f1a75aed66751e299f09004aef64973
                           .group:00000000 wm4.stdint.h.29.6d480f4ba0f60596e88234283d42444f
                           .group:00000000 wm4.cmsis_version.h.32.46e8eccfa2cfeaae11d008bb2823a3ed
                           .group:00000000 wm4.core_cm4.h.66.e4ff136c4a17abc46741866f64f8e729
                           .group:00000000 wm4.cmsis_gcc.h.26.78077cef1206e937f7b56043ffca496a
                           .group:00000000 wm4.core_cm4.h.174.fcddd62df80231752fa39eb9b61dadfe
                           .group:00000000 wm4.mpu_armv7.h.32.4049752bb5792d4e15357775e9506cfc
                           .group:00000000 wm4.stm32l475xx.h.423.4d783859c9ac66890c9807dd7bd3a4db
                           .group:00000000 wm4.stm32l4xx.h.196.f5ae8047c57b6175c94f246ef967a286
                           .group:00000000 wm4.stm32_hal_legacy.h.22.08b8350ccf512ba8d98002fb33e7cbe5
                           .group:00000000 wm4.stddef.h.39.0dc9006b34572d4d9cae4c8b422c4971
                           .group:00000000 wm4.stm32l4xx_hal_def.h.58.1058a33f7217e935f2a6b51956d66a69
                           .group:00000000 wm4.stm32l4xx_hal_rcc.h.156.ab8eecc4e10f4827a2aa75d3549a356d
                           .group:00000000 wm4.stm32l4xx_hal_rcc_ex.h.20.4a82a27d561b6d42fa16a54f82e29067
                           .group:00000000 wm4.stm32l4xx_hal_gpio.h.21.2d2b1fd6aa6afa7b6dcc89cf752a9a25
                           .group:00000000 wm4.stm32l4xx_hal_gpio_ex.h.21.7ea705f5185dd3c6b8ea336f2858cd46
                           .group:00000000 wm4.stm32l4xx_ll_dma.h.21.b30e7f48d60d1fc53041ec1e3fd6e54a
                           .group:00000000 wm4.stm32l4xx_hal_dma.h.166.54a7f8d65cee6f051d541dc010387b5a
                           .group:00000000 wm4.stm32l4xx_hal_dfsdm.h.21.6785e38d00075079c7f2e5657def82ae
                           .group:00000000 wm4.stm32l4xx_hal_cortex.h.21.cb491126bd2d6f44e90b66f27acb8434
                           .group:00000000 wm4.stm32l4xx_ll_adc.h.21.0c578f71501c74365c67044efed214d6
                           .group:00000000 wm4.stm32l4xx_hal_adc.h.411.68f60682cdb20556089756a482f23764
                           .group:00000000 wm4.stm32l4xx_hal_adc_ex.h.21.7b82cb80166a21dfa8cb3e2fa8f8e654
                           .group:00000000 wm4.stm32l4xx_hal_can.h.21.5019586d8e7137c0cec16eb1f9d6677b
                           .group:00000000 wm4.stm32l4xx_ll_exti.h.21.d866eff070d6f999af2ce4ea60aa40ac
ARM GAS  /tmp/cchDTGWe.s 			page 116


                           .group:00000000 wm4.stm32l4xx_hal_comp.h.87.7f14cb673a463359c83faa552328844d
                           .group:00000000 wm4.stm32l4xx_hal_crc.h.21.4c36a140cca35e6a8e478e76c6ad98e3
                           .group:00000000 wm4.stm32l4xx_hal_crc_ex.h.21.9cc3dead436542d416ee5572c231a242
                           .group:00000000 wm4.stm32l4xx_hal_dac.h.21.69feba704135531cf3d9b92de27b71d5
                           .group:00000000 wm4.stm32l4xx_hal_dac_ex.h.21.c86699169bead5415cc3e94027b67df4
                           .group:00000000 wm4.stm32l4xx_hal_exti.h.21.242e0410874d91d6d7523948fff74125
                           .group:00000000 wm4.stm32l4xx_hal_firewall.h.21.7ed44f4228fcc2ef96d2177dd8632645
                           .group:00000000 wm4.stm32l4xx_hal_flash.h.20.5e337018ccfa211b4afe888a79aae9f5
                           .group:00000000 wm4.stm32l4xx_hal_flash.h.846.0445f6ea07a3f9aac82891c8687d96fb
                           .group:00000000 wm4.stm32l4xx_ll_usb.h.21.5b5e42fb72a33dd326d7b20064953946
                           .group:00000000 wm4.stm32l4xx_hal_hcd.h.107.73f2fd24f57e8822da5cc86bd5ad3dfd
                           .group:00000000 wm4.stm32l4xx_hal_i2c.h.21.e7fc2065051c77019a818818e4a637d8
                           .group:00000000 wm4.stm32l4xx_hal_i2c_ex.h.21.ad4ad4e558d4fec06df87d163a6927d7
                           .group:00000000 wm4.stm32l4xx_hal_i2c.h.737.fa3908c81294cf0f9894ae336466002c
                           .group:00000000 wm4.stm32l4xx_hal_irda.h.21.136c042f9eef333167a549cc099df0c9
                           .group:00000000 wm4.stm32l4xx_hal_irda_ex.h.21.e0ada4e6d2b2cadfb512dd3c8ac0a637
                           .group:00000000 wm4.stm32l4xx_hal_iwdg.h.21.f94ca75f2fe1ebc7a2a8d0f5b58d8430
                           .group:00000000 wm4.stm32l4xx_hal_lptim.h.21.78222ea6639fc8c02789d293a048991e
                           .group:00000000 wm4.stm32l4xx_ll_sdmmc.h.21.65a5a8696b6ca7b87cc93d218084d702
                           .group:00000000 wm4.stm32l4xx_hal_mmc.h.69.8f4159f0a88ef1ebc33c58a8f10362b9
                           .group:00000000 wm4.stm32l4xx_ll_fmc.h.21.156a244c55010643ee92c6119049cb68
                           .group:00000000 wm4.stm32l4xx_hal_nand.h.176.9bfeac6e4e757991088bbd0df44e2be9
                           .group:00000000 wm4.stm32l4xx_hal_nor.h.21.d47e91e825f466bbac02fac0a7845a7a
                           .group:00000000 wm4.stm32l4xx_hal_opamp.h.21.9d841e1eaccee939f247b3f973f8af5f
                           .group:00000000 wm4.stm32l4xx_hal_pcd.h.169.addb1fac652268a18a0707cfcb5e2e47
                           .group:00000000 wm4.stm32l4xx_hal_pwr.h.21.7ddab2caa97243c36e496eca17b27618
                           .group:00000000 wm4.stm32l4xx_hal_pwr_ex.h.21.65ad8bbdbcb1950d945c0de10f22dc80
                           .group:00000000 wm4.stm32l4xx_hal_qspi.h.21.0291dad4eaa82101f2f77d76315c9b12
                           .group:00000000 wm4.stm32l4xx_hal_rng.h.21.96593715bdeab0c74ac9dfc538fb2feb
                           .group:00000000 wm4.stm32l4xx_hal_rtc.h.21.9da6b1aeebde99930891f803cb7f9678
                           .group:00000000 wm4.stm32l4xx_hal_rtc_ex.h.21.c692539378320719c7f2a2da1ca64502
                           .group:00000000 wm4.stm32l4xx_hal_rtc.h.999.c8bd9450c783628bd606ecb31bea5cc9
                           .group:00000000 wm4.stm32l4xx_hal_sai.h.21.c1165aaf2bbde65fae28ed4817be5cc5
                           .group:00000000 wm4.stm32l4xx_hal_sd.h.21.b395c90a87e82f7e8d77d4a518036063
                           .group:00000000 wm4.stm32l4xx_hal_smartcard.h.21.423c3ad63e0df35b864303e89e6d253c
                           .group:00000000 wm4.stm32l4xx_hal_smartcard_ex.h.21.801a2ce9252a785aec000b3fc7667a74
                           .group:00000000 wm4.stm32l4xx_hal_smbus.h.21.7480adb16468bfdce819ee591f21299e
                           .group:00000000 wm4.stm32l4xx_hal_smbus_ex.h.21.bdc715f5f6fb6612a871d3c03c3b871f
                           .group:00000000 wm4.stm32l4xx_hal_spi.h.21.3b51f9f7b241962f6b3483c47a43334f
                           .group:00000000 wm4.stm32l4xx_hal_sram.h.21.285210181e158bddc1cdde63dde572fd
                           .group:00000000 wm4.stm32l4xx_hal_swpmi.h.21.787f994f40b117a62aad9a6dd408b8fc
                           .group:00000000 wm4.stm32l4xx_hal_tim.h.21.d190832030e7505384ad081daa7ba8d6
                           .group:00000000 wm4.stm32l4xx_hal_tim_ex.h.21.1d0860218366ee9f64a97fd8af0ddee1
                           .group:00000000 wm4.stm32l4xx_hal_tsc.h.21.e9010049847ea38297d4b95a5ede0d8c
                           .group:00000000 wm4.stm32l4xx_hal_uart.h.21.480c0a64ca01596a921cda9dceb01df4
                           .group:00000000 wm4.stm32l4xx_hal_uart_ex.h.21.d793e64693c93af07c90464aef42bd83
                           .group:00000000 wm4.stm32l4xx_hal_usart.h.21.561c0058e33cb8df6671dcd29d5d25f9
                           .group:00000000 wm4.stm32l4xx_hal_usart_ex.h.21.111da650523691ebc80d64103d7b26e5
                           .group:00000000 wm4.stm32l4xx_hal_wwdg.h.21.073aa79d58120ae4fb8590c46b210051
                           .group:00000000 wm4.stm32l4xx_hal.h.75.d364b3778b3801d2f66bb409c48d396d

UNDEFINED SYMBOLS
RTC_Bcd2ToByte
HAL_GetTick
HAL_RTC_WaitForSynchro
RTC_EnterInitMode
RTC_ExitInitMode
ARM GAS  /tmp/cchDTGWe.s 			page 117


