ARM GAS  /tmp/ccUr9KqT.s 			page 1


   1              		.cpu cortex-m4
   2              		.arch armv7e-m
   3              		.fpu fpv4-sp-d16
   4              		.eabi_attribute 27, 1
   5              		.eabi_attribute 28, 1
   6              		.eabi_attribute 20, 1
   7              		.eabi_attribute 21, 1
   8              		.eabi_attribute 23, 3
   9              		.eabi_attribute 24, 1
  10              		.eabi_attribute 25, 1
  11              		.eabi_attribute 26, 1
  12              		.eabi_attribute 30, 6
  13              		.eabi_attribute 34, 1
  14              		.eabi_attribute 18, 4
  15              		.file	"stm32l4xx_hal_nand.c"
  16              		.text
  17              	.Ltext0:
  18              		.cfi_sections	.debug_frame
  19              		.file 1 "Drivers/STM32L4xx_HAL_Driver/Src/stm32l4xx_hal_nand.c"
  20              		.section	.rodata.CHANNEL_OFFSET_TAB,"a"
  21              		.align	2
  24              	CHANNEL_OFFSET_TAB:
  25 0000 081C3044 		.ascii	"\010\0340DXl\200"
  25      586C80
  26              		.section	.text.HAL_NAND_Init,"ax",%progbits
  27              		.align	1
  28              		.global	HAL_NAND_Init
  29              		.syntax unified
  30              		.thumb
  31              		.thumb_func
  33              	HAL_NAND_Init:
  34              	.LFB445:
   1:Drivers/STM32L4xx_HAL_Driver/Src/stm32l4xx_hal_nand.c **** /**
   2:Drivers/STM32L4xx_HAL_Driver/Src/stm32l4xx_hal_nand.c ****   ******************************************************************************
   3:Drivers/STM32L4xx_HAL_Driver/Src/stm32l4xx_hal_nand.c ****   * @file    stm32l4xx_hal_nand.c
   4:Drivers/STM32L4xx_HAL_Driver/Src/stm32l4xx_hal_nand.c ****   * @author  MCD Application Team
   5:Drivers/STM32L4xx_HAL_Driver/Src/stm32l4xx_hal_nand.c ****   * @brief   NAND HAL module driver.
   6:Drivers/STM32L4xx_HAL_Driver/Src/stm32l4xx_hal_nand.c ****   *          This file provides a generic firmware to drive NAND memories mounted
   7:Drivers/STM32L4xx_HAL_Driver/Src/stm32l4xx_hal_nand.c ****   *          as external device.
   8:Drivers/STM32L4xx_HAL_Driver/Src/stm32l4xx_hal_nand.c ****   *
   9:Drivers/STM32L4xx_HAL_Driver/Src/stm32l4xx_hal_nand.c ****   ******************************************************************************
  10:Drivers/STM32L4xx_HAL_Driver/Src/stm32l4xx_hal_nand.c ****   * @attention
  11:Drivers/STM32L4xx_HAL_Driver/Src/stm32l4xx_hal_nand.c ****   *
  12:Drivers/STM32L4xx_HAL_Driver/Src/stm32l4xx_hal_nand.c ****   * Copyright (c) 2017 STMicroelectronics.
  13:Drivers/STM32L4xx_HAL_Driver/Src/stm32l4xx_hal_nand.c ****   * All rights reserved.
  14:Drivers/STM32L4xx_HAL_Driver/Src/stm32l4xx_hal_nand.c ****   *
  15:Drivers/STM32L4xx_HAL_Driver/Src/stm32l4xx_hal_nand.c ****   * This software is licensed under terms that can be found in the LICENSE file
  16:Drivers/STM32L4xx_HAL_Driver/Src/stm32l4xx_hal_nand.c ****   * in the root directory of this software component.
  17:Drivers/STM32L4xx_HAL_Driver/Src/stm32l4xx_hal_nand.c ****   * If no LICENSE file comes with this software, it is provided AS-IS.
  18:Drivers/STM32L4xx_HAL_Driver/Src/stm32l4xx_hal_nand.c ****   *
  19:Drivers/STM32L4xx_HAL_Driver/Src/stm32l4xx_hal_nand.c ****   ******************************************************************************
  20:Drivers/STM32L4xx_HAL_Driver/Src/stm32l4xx_hal_nand.c ****   @verbatim
  21:Drivers/STM32L4xx_HAL_Driver/Src/stm32l4xx_hal_nand.c ****   ==============================================================================
  22:Drivers/STM32L4xx_HAL_Driver/Src/stm32l4xx_hal_nand.c ****                          ##### How to use this driver #####
  23:Drivers/STM32L4xx_HAL_Driver/Src/stm32l4xx_hal_nand.c ****   ==============================================================================
  24:Drivers/STM32L4xx_HAL_Driver/Src/stm32l4xx_hal_nand.c ****     [..]
  25:Drivers/STM32L4xx_HAL_Driver/Src/stm32l4xx_hal_nand.c ****       This driver is a generic layered driver which contains a set of APIs used to
ARM GAS  /tmp/ccUr9KqT.s 			page 2


  26:Drivers/STM32L4xx_HAL_Driver/Src/stm32l4xx_hal_nand.c ****       control NAND flash memories. It uses the FMC layer functions to interface
  27:Drivers/STM32L4xx_HAL_Driver/Src/stm32l4xx_hal_nand.c ****       with NAND devices. This driver is used as follows:
  28:Drivers/STM32L4xx_HAL_Driver/Src/stm32l4xx_hal_nand.c **** 
  29:Drivers/STM32L4xx_HAL_Driver/Src/stm32l4xx_hal_nand.c ****       (+) NAND flash memory configuration sequence using the function HAL_NAND_Init()
  30:Drivers/STM32L4xx_HAL_Driver/Src/stm32l4xx_hal_nand.c ****           with control and timing parameters for both common and attribute spaces.
  31:Drivers/STM32L4xx_HAL_Driver/Src/stm32l4xx_hal_nand.c **** 
  32:Drivers/STM32L4xx_HAL_Driver/Src/stm32l4xx_hal_nand.c ****       (+) Read NAND flash memory maker and device IDs using the function
  33:Drivers/STM32L4xx_HAL_Driver/Src/stm32l4xx_hal_nand.c ****           HAL_NAND_Read_ID(). The read information is stored in the NAND_ID_TypeDef
  34:Drivers/STM32L4xx_HAL_Driver/Src/stm32l4xx_hal_nand.c ****           structure declared by the function caller.
  35:Drivers/STM32L4xx_HAL_Driver/Src/stm32l4xx_hal_nand.c **** 
  36:Drivers/STM32L4xx_HAL_Driver/Src/stm32l4xx_hal_nand.c ****       (+) Access NAND flash memory by read/write operations using the functions
  37:Drivers/STM32L4xx_HAL_Driver/Src/stm32l4xx_hal_nand.c ****           HAL_NAND_Read_Page_8b()/HAL_NAND_Read_SpareArea_8b(),
  38:Drivers/STM32L4xx_HAL_Driver/Src/stm32l4xx_hal_nand.c ****           HAL_NAND_Write_Page_8b()/HAL_NAND_Write_SpareArea_8b(),
  39:Drivers/STM32L4xx_HAL_Driver/Src/stm32l4xx_hal_nand.c ****           HAL_NAND_Read_Page_16b()/HAL_NAND_Read_SpareArea_16b(),
  40:Drivers/STM32L4xx_HAL_Driver/Src/stm32l4xx_hal_nand.c ****           HAL_NAND_Write_Page_16b()/HAL_NAND_Write_SpareArea_16b()
  41:Drivers/STM32L4xx_HAL_Driver/Src/stm32l4xx_hal_nand.c ****           to read/write page(s)/spare area(s). These functions use specific device
  42:Drivers/STM32L4xx_HAL_Driver/Src/stm32l4xx_hal_nand.c ****           information (Block, page size..) predefined by the user in the NAND_DeviceConfigTypeDef
  43:Drivers/STM32L4xx_HAL_Driver/Src/stm32l4xx_hal_nand.c ****           structure. The read/write address information is contained by the Nand_Address_Typedef
  44:Drivers/STM32L4xx_HAL_Driver/Src/stm32l4xx_hal_nand.c ****           structure passed as parameter.
  45:Drivers/STM32L4xx_HAL_Driver/Src/stm32l4xx_hal_nand.c **** 
  46:Drivers/STM32L4xx_HAL_Driver/Src/stm32l4xx_hal_nand.c ****       (+) Perform NAND flash Reset chip operation using the function HAL_NAND_Reset().
  47:Drivers/STM32L4xx_HAL_Driver/Src/stm32l4xx_hal_nand.c **** 
  48:Drivers/STM32L4xx_HAL_Driver/Src/stm32l4xx_hal_nand.c ****       (+) Perform NAND flash erase block operation using the function HAL_NAND_Erase_Block().
  49:Drivers/STM32L4xx_HAL_Driver/Src/stm32l4xx_hal_nand.c ****           The erase block address information is contained in the Nand_Address_Typedef
  50:Drivers/STM32L4xx_HAL_Driver/Src/stm32l4xx_hal_nand.c ****           structure passed as parameter.
  51:Drivers/STM32L4xx_HAL_Driver/Src/stm32l4xx_hal_nand.c **** 
  52:Drivers/STM32L4xx_HAL_Driver/Src/stm32l4xx_hal_nand.c ****       (+) Read the NAND flash status operation using the function HAL_NAND_Read_Status().
  53:Drivers/STM32L4xx_HAL_Driver/Src/stm32l4xx_hal_nand.c **** 
  54:Drivers/STM32L4xx_HAL_Driver/Src/stm32l4xx_hal_nand.c ****       (+) You can also control the NAND device by calling the control APIs HAL_NAND_ECC_Enable()/
  55:Drivers/STM32L4xx_HAL_Driver/Src/stm32l4xx_hal_nand.c ****           HAL_NAND_ECC_Disable() to respectively enable/disable the ECC code correction
  56:Drivers/STM32L4xx_HAL_Driver/Src/stm32l4xx_hal_nand.c ****           feature or the function HAL_NAND_GetECC() to get the ECC correction code.
  57:Drivers/STM32L4xx_HAL_Driver/Src/stm32l4xx_hal_nand.c **** 
  58:Drivers/STM32L4xx_HAL_Driver/Src/stm32l4xx_hal_nand.c ****       (+) You can monitor the NAND device HAL state by calling the function
  59:Drivers/STM32L4xx_HAL_Driver/Src/stm32l4xx_hal_nand.c ****           HAL_NAND_GetState()
  60:Drivers/STM32L4xx_HAL_Driver/Src/stm32l4xx_hal_nand.c **** 
  61:Drivers/STM32L4xx_HAL_Driver/Src/stm32l4xx_hal_nand.c ****     [..]
  62:Drivers/STM32L4xx_HAL_Driver/Src/stm32l4xx_hal_nand.c ****       (@) This driver is a set of generic APIs which handle standard NAND flash operations.
  63:Drivers/STM32L4xx_HAL_Driver/Src/stm32l4xx_hal_nand.c ****           If a NAND flash device contains different operations and/or implementations,
  64:Drivers/STM32L4xx_HAL_Driver/Src/stm32l4xx_hal_nand.c ****           it should be implemented separately.
  65:Drivers/STM32L4xx_HAL_Driver/Src/stm32l4xx_hal_nand.c **** 
  66:Drivers/STM32L4xx_HAL_Driver/Src/stm32l4xx_hal_nand.c ****     *** Callback registration ***
  67:Drivers/STM32L4xx_HAL_Driver/Src/stm32l4xx_hal_nand.c ****     =============================================
  68:Drivers/STM32L4xx_HAL_Driver/Src/stm32l4xx_hal_nand.c ****     [..]
  69:Drivers/STM32L4xx_HAL_Driver/Src/stm32l4xx_hal_nand.c ****       The compilation define  USE_HAL_NAND_REGISTER_CALLBACKS when set to 1
  70:Drivers/STM32L4xx_HAL_Driver/Src/stm32l4xx_hal_nand.c ****       allows the user to configure dynamically the driver callbacks.
  71:Drivers/STM32L4xx_HAL_Driver/Src/stm32l4xx_hal_nand.c **** 
  72:Drivers/STM32L4xx_HAL_Driver/Src/stm32l4xx_hal_nand.c ****       Use Functions HAL_NAND_RegisterCallback() to register a user callback,
  73:Drivers/STM32L4xx_HAL_Driver/Src/stm32l4xx_hal_nand.c ****       it allows to register following callbacks:
  74:Drivers/STM32L4xx_HAL_Driver/Src/stm32l4xx_hal_nand.c ****         (+) MspInitCallback    : NAND MspInit.
  75:Drivers/STM32L4xx_HAL_Driver/Src/stm32l4xx_hal_nand.c ****         (+) MspDeInitCallback  : NAND MspDeInit.
  76:Drivers/STM32L4xx_HAL_Driver/Src/stm32l4xx_hal_nand.c ****       This function takes as parameters the HAL peripheral handle, the Callback ID
  77:Drivers/STM32L4xx_HAL_Driver/Src/stm32l4xx_hal_nand.c ****       and a pointer to the user callback function.
  78:Drivers/STM32L4xx_HAL_Driver/Src/stm32l4xx_hal_nand.c **** 
  79:Drivers/STM32L4xx_HAL_Driver/Src/stm32l4xx_hal_nand.c ****       Use function HAL_NAND_UnRegisterCallback() to reset a callback to the default
  80:Drivers/STM32L4xx_HAL_Driver/Src/stm32l4xx_hal_nand.c ****       weak (overridden) function. It allows to reset following callbacks:
  81:Drivers/STM32L4xx_HAL_Driver/Src/stm32l4xx_hal_nand.c ****         (+) MspInitCallback    : NAND MspInit.
  82:Drivers/STM32L4xx_HAL_Driver/Src/stm32l4xx_hal_nand.c ****         (+) MspDeInitCallback  : NAND MspDeInit.
ARM GAS  /tmp/ccUr9KqT.s 			page 3


  83:Drivers/STM32L4xx_HAL_Driver/Src/stm32l4xx_hal_nand.c ****       This function) takes as parameters the HAL peripheral handle and the Callback ID.
  84:Drivers/STM32L4xx_HAL_Driver/Src/stm32l4xx_hal_nand.c **** 
  85:Drivers/STM32L4xx_HAL_Driver/Src/stm32l4xx_hal_nand.c ****       By default, after the HAL_NAND_Init and if the state is HAL_NAND_STATE_RESET
  86:Drivers/STM32L4xx_HAL_Driver/Src/stm32l4xx_hal_nand.c ****       all callbacks are reset to the corresponding legacy weak (overridden) functions.
  87:Drivers/STM32L4xx_HAL_Driver/Src/stm32l4xx_hal_nand.c ****       Exception done for MspInit and MspDeInit callbacks that are respectively
  88:Drivers/STM32L4xx_HAL_Driver/Src/stm32l4xx_hal_nand.c ****       reset to the legacy weak (overridden) functions in the HAL_NAND_Init
  89:Drivers/STM32L4xx_HAL_Driver/Src/stm32l4xx_hal_nand.c ****       and  HAL_NAND_DeInit only when these callbacks are null (not registered beforehand).
  90:Drivers/STM32L4xx_HAL_Driver/Src/stm32l4xx_hal_nand.c ****       If not, MspInit or MspDeInit are not null, the HAL_NAND_Init and HAL_NAND_DeInit
  91:Drivers/STM32L4xx_HAL_Driver/Src/stm32l4xx_hal_nand.c ****       keep and use the user MspInit/MspDeInit callbacks (registered beforehand)
  92:Drivers/STM32L4xx_HAL_Driver/Src/stm32l4xx_hal_nand.c **** 
  93:Drivers/STM32L4xx_HAL_Driver/Src/stm32l4xx_hal_nand.c ****       Callbacks can be registered/unregistered in READY state only.
  94:Drivers/STM32L4xx_HAL_Driver/Src/stm32l4xx_hal_nand.c ****       Exception done for MspInit/MspDeInit callbacks that can be registered/unregistered
  95:Drivers/STM32L4xx_HAL_Driver/Src/stm32l4xx_hal_nand.c ****       in READY or RESET state, thus registered (user) MspInit/DeInit callbacks can be used
  96:Drivers/STM32L4xx_HAL_Driver/Src/stm32l4xx_hal_nand.c ****       during the Init/DeInit.
  97:Drivers/STM32L4xx_HAL_Driver/Src/stm32l4xx_hal_nand.c ****       In that case first register the MspInit/MspDeInit user callbacks
  98:Drivers/STM32L4xx_HAL_Driver/Src/stm32l4xx_hal_nand.c ****       using HAL_NAND_RegisterCallback before calling HAL_NAND_DeInit
  99:Drivers/STM32L4xx_HAL_Driver/Src/stm32l4xx_hal_nand.c ****       or HAL_NAND_Init function.
 100:Drivers/STM32L4xx_HAL_Driver/Src/stm32l4xx_hal_nand.c **** 
 101:Drivers/STM32L4xx_HAL_Driver/Src/stm32l4xx_hal_nand.c ****       When The compilation define USE_HAL_NAND_REGISTER_CALLBACKS is set to 0 or
 102:Drivers/STM32L4xx_HAL_Driver/Src/stm32l4xx_hal_nand.c ****       not defined, the callback registering feature is not available
 103:Drivers/STM32L4xx_HAL_Driver/Src/stm32l4xx_hal_nand.c ****       and weak (overridden) callbacks are used.
 104:Drivers/STM32L4xx_HAL_Driver/Src/stm32l4xx_hal_nand.c **** 
 105:Drivers/STM32L4xx_HAL_Driver/Src/stm32l4xx_hal_nand.c ****   @endverbatim
 106:Drivers/STM32L4xx_HAL_Driver/Src/stm32l4xx_hal_nand.c ****   ******************************************************************************
 107:Drivers/STM32L4xx_HAL_Driver/Src/stm32l4xx_hal_nand.c ****   */
 108:Drivers/STM32L4xx_HAL_Driver/Src/stm32l4xx_hal_nand.c **** 
 109:Drivers/STM32L4xx_HAL_Driver/Src/stm32l4xx_hal_nand.c **** /* Includes ------------------------------------------------------------------*/
 110:Drivers/STM32L4xx_HAL_Driver/Src/stm32l4xx_hal_nand.c **** #include "stm32l4xx_hal.h"
 111:Drivers/STM32L4xx_HAL_Driver/Src/stm32l4xx_hal_nand.c **** 
 112:Drivers/STM32L4xx_HAL_Driver/Src/stm32l4xx_hal_nand.c **** #if defined(FMC_BANK3)
 113:Drivers/STM32L4xx_HAL_Driver/Src/stm32l4xx_hal_nand.c **** 
 114:Drivers/STM32L4xx_HAL_Driver/Src/stm32l4xx_hal_nand.c **** /** @addtogroup STM32L4xx_HAL_Driver
 115:Drivers/STM32L4xx_HAL_Driver/Src/stm32l4xx_hal_nand.c ****   * @{
 116:Drivers/STM32L4xx_HAL_Driver/Src/stm32l4xx_hal_nand.c ****   */
 117:Drivers/STM32L4xx_HAL_Driver/Src/stm32l4xx_hal_nand.c **** 
 118:Drivers/STM32L4xx_HAL_Driver/Src/stm32l4xx_hal_nand.c **** #ifdef HAL_NAND_MODULE_ENABLED
 119:Drivers/STM32L4xx_HAL_Driver/Src/stm32l4xx_hal_nand.c **** 
 120:Drivers/STM32L4xx_HAL_Driver/Src/stm32l4xx_hal_nand.c **** /** @defgroup NAND NAND
 121:Drivers/STM32L4xx_HAL_Driver/Src/stm32l4xx_hal_nand.c ****   * @brief NAND HAL module driver
 122:Drivers/STM32L4xx_HAL_Driver/Src/stm32l4xx_hal_nand.c ****   * @{
 123:Drivers/STM32L4xx_HAL_Driver/Src/stm32l4xx_hal_nand.c ****   */
 124:Drivers/STM32L4xx_HAL_Driver/Src/stm32l4xx_hal_nand.c **** 
 125:Drivers/STM32L4xx_HAL_Driver/Src/stm32l4xx_hal_nand.c **** /* Private typedef -----------------------------------------------------------*/
 126:Drivers/STM32L4xx_HAL_Driver/Src/stm32l4xx_hal_nand.c **** /* Private Constants ------------------------------------------------------------*/
 127:Drivers/STM32L4xx_HAL_Driver/Src/stm32l4xx_hal_nand.c **** /* Private macro -------------------------------------------------------------*/
 128:Drivers/STM32L4xx_HAL_Driver/Src/stm32l4xx_hal_nand.c **** /* Private variables ---------------------------------------------------------*/
 129:Drivers/STM32L4xx_HAL_Driver/Src/stm32l4xx_hal_nand.c **** /* Private function prototypes -----------------------------------------------*/
 130:Drivers/STM32L4xx_HAL_Driver/Src/stm32l4xx_hal_nand.c **** /* Exported functions ---------------------------------------------------------*/
 131:Drivers/STM32L4xx_HAL_Driver/Src/stm32l4xx_hal_nand.c **** 
 132:Drivers/STM32L4xx_HAL_Driver/Src/stm32l4xx_hal_nand.c **** /** @defgroup NAND_Exported_Functions NAND Exported Functions
 133:Drivers/STM32L4xx_HAL_Driver/Src/stm32l4xx_hal_nand.c ****   * @{
 134:Drivers/STM32L4xx_HAL_Driver/Src/stm32l4xx_hal_nand.c ****   */
 135:Drivers/STM32L4xx_HAL_Driver/Src/stm32l4xx_hal_nand.c **** 
 136:Drivers/STM32L4xx_HAL_Driver/Src/stm32l4xx_hal_nand.c **** /** @defgroup NAND_Exported_Functions_Group1 Initialization and de-initialization functions
 137:Drivers/STM32L4xx_HAL_Driver/Src/stm32l4xx_hal_nand.c ****   * @brief    Initialization and Configuration functions
 138:Drivers/STM32L4xx_HAL_Driver/Src/stm32l4xx_hal_nand.c ****   *
 139:Drivers/STM32L4xx_HAL_Driver/Src/stm32l4xx_hal_nand.c ****   @verbatim
ARM GAS  /tmp/ccUr9KqT.s 			page 4


 140:Drivers/STM32L4xx_HAL_Driver/Src/stm32l4xx_hal_nand.c ****   ==============================================================================
 141:Drivers/STM32L4xx_HAL_Driver/Src/stm32l4xx_hal_nand.c ****             ##### NAND Initialization and de-initialization functions #####
 142:Drivers/STM32L4xx_HAL_Driver/Src/stm32l4xx_hal_nand.c ****   ==============================================================================
 143:Drivers/STM32L4xx_HAL_Driver/Src/stm32l4xx_hal_nand.c ****   [..]
 144:Drivers/STM32L4xx_HAL_Driver/Src/stm32l4xx_hal_nand.c ****     This section provides functions allowing to initialize/de-initialize
 145:Drivers/STM32L4xx_HAL_Driver/Src/stm32l4xx_hal_nand.c ****     the NAND memory
 146:Drivers/STM32L4xx_HAL_Driver/Src/stm32l4xx_hal_nand.c **** 
 147:Drivers/STM32L4xx_HAL_Driver/Src/stm32l4xx_hal_nand.c **** @endverbatim
 148:Drivers/STM32L4xx_HAL_Driver/Src/stm32l4xx_hal_nand.c ****   * @{
 149:Drivers/STM32L4xx_HAL_Driver/Src/stm32l4xx_hal_nand.c ****   */
 150:Drivers/STM32L4xx_HAL_Driver/Src/stm32l4xx_hal_nand.c **** 
 151:Drivers/STM32L4xx_HAL_Driver/Src/stm32l4xx_hal_nand.c **** /**
 152:Drivers/STM32L4xx_HAL_Driver/Src/stm32l4xx_hal_nand.c ****   * @brief  Perform NAND memory Initialization sequence
 153:Drivers/STM32L4xx_HAL_Driver/Src/stm32l4xx_hal_nand.c ****   * @param  hnand pointer to a NAND_HandleTypeDef structure that contains
 154:Drivers/STM32L4xx_HAL_Driver/Src/stm32l4xx_hal_nand.c ****   *                the configuration information for NAND module.
 155:Drivers/STM32L4xx_HAL_Driver/Src/stm32l4xx_hal_nand.c ****   * @param  ComSpace_Timing pointer to Common space timing structure
 156:Drivers/STM32L4xx_HAL_Driver/Src/stm32l4xx_hal_nand.c ****   * @param  AttSpace_Timing pointer to Attribute space timing structure
 157:Drivers/STM32L4xx_HAL_Driver/Src/stm32l4xx_hal_nand.c ****   * @retval HAL status
 158:Drivers/STM32L4xx_HAL_Driver/Src/stm32l4xx_hal_nand.c ****   */
 159:Drivers/STM32L4xx_HAL_Driver/Src/stm32l4xx_hal_nand.c **** HAL_StatusTypeDef  HAL_NAND_Init(NAND_HandleTypeDef *hnand, FMC_NAND_PCC_TimingTypeDef *ComSpace_Ti
 160:Drivers/STM32L4xx_HAL_Driver/Src/stm32l4xx_hal_nand.c ****                                  FMC_NAND_PCC_TimingTypeDef *AttSpace_Timing)
 161:Drivers/STM32L4xx_HAL_Driver/Src/stm32l4xx_hal_nand.c **** {
  35              		.loc 1 161 1
  36              		.cfi_startproc
  37              		@ args = 0, pretend = 0, frame = 16
  38              		@ frame_needed = 1, uses_anonymous_args = 0
  39 0000 80B5     		push	{r7, lr}
  40              		.cfi_def_cfa_offset 8
  41              		.cfi_offset 7, -8
  42              		.cfi_offset 14, -4
  43 0002 84B0     		sub	sp, sp, #16
  44              		.cfi_def_cfa_offset 24
  45 0004 00AF     		add	r7, sp, #0
  46              		.cfi_def_cfa_register 7
  47 0006 F860     		str	r0, [r7, #12]
  48 0008 B960     		str	r1, [r7, #8]
  49 000a 7A60     		str	r2, [r7, #4]
 162:Drivers/STM32L4xx_HAL_Driver/Src/stm32l4xx_hal_nand.c ****   /* Check the NAND handle state */
 163:Drivers/STM32L4xx_HAL_Driver/Src/stm32l4xx_hal_nand.c ****   if (hnand == NULL)
  50              		.loc 1 163 6
  51 000c FB68     		ldr	r3, [r7, #12]
  52 000e 002B     		cmp	r3, #0
  53 0010 01D1     		bne	.L2
 164:Drivers/STM32L4xx_HAL_Driver/Src/stm32l4xx_hal_nand.c ****   {
 165:Drivers/STM32L4xx_HAL_Driver/Src/stm32l4xx_hal_nand.c ****     return HAL_ERROR;
  54              		.loc 1 165 12
  55 0012 0123     		movs	r3, #1
  56 0014 31E0     		b	.L3
  57              	.L2:
 166:Drivers/STM32L4xx_HAL_Driver/Src/stm32l4xx_hal_nand.c ****   }
 167:Drivers/STM32L4xx_HAL_Driver/Src/stm32l4xx_hal_nand.c **** 
 168:Drivers/STM32L4xx_HAL_Driver/Src/stm32l4xx_hal_nand.c ****   if (hnand->State == HAL_NAND_STATE_RESET)
  58              		.loc 1 168 12
  59 0016 FB68     		ldr	r3, [r7, #12]
  60 0018 93F82130 		ldrb	r3, [r3, #33]
  61 001c DBB2     		uxtb	r3, r3
  62              		.loc 1 168 6
ARM GAS  /tmp/ccUr9KqT.s 			page 5


  63 001e 002B     		cmp	r3, #0
  64 0020 06D1     		bne	.L4
 169:Drivers/STM32L4xx_HAL_Driver/Src/stm32l4xx_hal_nand.c ****   {
 170:Drivers/STM32L4xx_HAL_Driver/Src/stm32l4xx_hal_nand.c ****     /* Allocate lock resource and initialize it */
 171:Drivers/STM32L4xx_HAL_Driver/Src/stm32l4xx_hal_nand.c ****     hnand->Lock = HAL_UNLOCKED;
  65              		.loc 1 171 17
  66 0022 FB68     		ldr	r3, [r7, #12]
  67 0024 0022     		movs	r2, #0
  68 0026 83F82020 		strb	r2, [r3, #32]
 172:Drivers/STM32L4xx_HAL_Driver/Src/stm32l4xx_hal_nand.c **** 
 173:Drivers/STM32L4xx_HAL_Driver/Src/stm32l4xx_hal_nand.c **** #if (USE_HAL_NAND_REGISTER_CALLBACKS == 1)
 174:Drivers/STM32L4xx_HAL_Driver/Src/stm32l4xx_hal_nand.c ****     if (hnand->MspInitCallback == NULL)
 175:Drivers/STM32L4xx_HAL_Driver/Src/stm32l4xx_hal_nand.c ****     {
 176:Drivers/STM32L4xx_HAL_Driver/Src/stm32l4xx_hal_nand.c ****       hnand->MspInitCallback = HAL_NAND_MspInit;
 177:Drivers/STM32L4xx_HAL_Driver/Src/stm32l4xx_hal_nand.c ****     }
 178:Drivers/STM32L4xx_HAL_Driver/Src/stm32l4xx_hal_nand.c ****     hnand->ItCallback = HAL_NAND_ITCallback;
 179:Drivers/STM32L4xx_HAL_Driver/Src/stm32l4xx_hal_nand.c **** 
 180:Drivers/STM32L4xx_HAL_Driver/Src/stm32l4xx_hal_nand.c ****     /* Init the low level hardware */
 181:Drivers/STM32L4xx_HAL_Driver/Src/stm32l4xx_hal_nand.c ****     hnand->MspInitCallback(hnand);
 182:Drivers/STM32L4xx_HAL_Driver/Src/stm32l4xx_hal_nand.c **** #else
 183:Drivers/STM32L4xx_HAL_Driver/Src/stm32l4xx_hal_nand.c ****     /* Initialize the low level hardware (MSP) */
 184:Drivers/STM32L4xx_HAL_Driver/Src/stm32l4xx_hal_nand.c ****     HAL_NAND_MspInit(hnand);
  69              		.loc 1 184 5
  70 002a F868     		ldr	r0, [r7, #12]
  71 002c FFF7FEFF 		bl	HAL_NAND_MspInit
  72              	.L4:
 185:Drivers/STM32L4xx_HAL_Driver/Src/stm32l4xx_hal_nand.c **** #endif /* (USE_HAL_NAND_REGISTER_CALLBACKS) */
 186:Drivers/STM32L4xx_HAL_Driver/Src/stm32l4xx_hal_nand.c ****   }
 187:Drivers/STM32L4xx_HAL_Driver/Src/stm32l4xx_hal_nand.c **** 
 188:Drivers/STM32L4xx_HAL_Driver/Src/stm32l4xx_hal_nand.c ****   /* Initialize NAND control Interface */
 189:Drivers/STM32L4xx_HAL_Driver/Src/stm32l4xx_hal_nand.c ****   (void)FMC_NAND_Init(hnand->Instance, &(hnand->Init));
  73              		.loc 1 189 9
  74 0030 FB68     		ldr	r3, [r7, #12]
  75 0032 1A68     		ldr	r2, [r3]
  76              		.loc 1 189 40
  77 0034 FB68     		ldr	r3, [r7, #12]
  78 0036 0433     		adds	r3, r3, #4
  79              		.loc 1 189 9
  80 0038 1946     		mov	r1, r3
  81 003a 1046     		mov	r0, r2
  82 003c FFF7FEFF 		bl	FMC_NAND_Init
 190:Drivers/STM32L4xx_HAL_Driver/Src/stm32l4xx_hal_nand.c **** 
 191:Drivers/STM32L4xx_HAL_Driver/Src/stm32l4xx_hal_nand.c ****   /* Initialize NAND common space timing Interface */
 192:Drivers/STM32L4xx_HAL_Driver/Src/stm32l4xx_hal_nand.c ****   (void)FMC_NAND_CommonSpace_Timing_Init(hnand->Instance, ComSpace_Timing, hnand->Init.NandBank);
  83              		.loc 1 192 9
  84 0040 FB68     		ldr	r3, [r7, #12]
  85 0042 1868     		ldr	r0, [r3]
  86 0044 FB68     		ldr	r3, [r7, #12]
  87 0046 5B68     		ldr	r3, [r3, #4]
  88 0048 1A46     		mov	r2, r3
  89 004a B968     		ldr	r1, [r7, #8]
  90 004c FFF7FEFF 		bl	FMC_NAND_CommonSpace_Timing_Init
 193:Drivers/STM32L4xx_HAL_Driver/Src/stm32l4xx_hal_nand.c **** 
 194:Drivers/STM32L4xx_HAL_Driver/Src/stm32l4xx_hal_nand.c ****   /* Initialize NAND attribute space timing Interface */
 195:Drivers/STM32L4xx_HAL_Driver/Src/stm32l4xx_hal_nand.c ****   (void)FMC_NAND_AttributeSpace_Timing_Init(hnand->Instance, AttSpace_Timing, hnand->Init.NandBank)
  91              		.loc 1 195 9
  92 0050 FB68     		ldr	r3, [r7, #12]
ARM GAS  /tmp/ccUr9KqT.s 			page 6


  93 0052 1868     		ldr	r0, [r3]
  94 0054 FB68     		ldr	r3, [r7, #12]
  95 0056 5B68     		ldr	r3, [r3, #4]
  96 0058 1A46     		mov	r2, r3
  97 005a 7968     		ldr	r1, [r7, #4]
  98 005c FFF7FEFF 		bl	FMC_NAND_AttributeSpace_Timing_Init
 196:Drivers/STM32L4xx_HAL_Driver/Src/stm32l4xx_hal_nand.c **** 
 197:Drivers/STM32L4xx_HAL_Driver/Src/stm32l4xx_hal_nand.c ****   /* Enable the NAND device */
 198:Drivers/STM32L4xx_HAL_Driver/Src/stm32l4xx_hal_nand.c ****   __FMC_NAND_ENABLE(hnand->Instance);
  99              		.loc 1 198 3
 100 0060 FB68     		ldr	r3, [r7, #12]
 101 0062 1B68     		ldr	r3, [r3]
 102 0064 1A68     		ldr	r2, [r3]
 103 0066 FB68     		ldr	r3, [r7, #12]
 104 0068 1B68     		ldr	r3, [r3]
 105 006a 42F00402 		orr	r2, r2, #4
 106 006e 1A60     		str	r2, [r3]
 199:Drivers/STM32L4xx_HAL_Driver/Src/stm32l4xx_hal_nand.c **** 
 200:Drivers/STM32L4xx_HAL_Driver/Src/stm32l4xx_hal_nand.c ****   /* Update the NAND controller state */
 201:Drivers/STM32L4xx_HAL_Driver/Src/stm32l4xx_hal_nand.c ****   hnand->State = HAL_NAND_STATE_READY;
 107              		.loc 1 201 16
 108 0070 FB68     		ldr	r3, [r7, #12]
 109 0072 0122     		movs	r2, #1
 110 0074 83F82120 		strb	r2, [r3, #33]
 202:Drivers/STM32L4xx_HAL_Driver/Src/stm32l4xx_hal_nand.c **** 
 203:Drivers/STM32L4xx_HAL_Driver/Src/stm32l4xx_hal_nand.c ****   return HAL_OK;
 111              		.loc 1 203 10
 112 0078 0023     		movs	r3, #0
 113              	.L3:
 204:Drivers/STM32L4xx_HAL_Driver/Src/stm32l4xx_hal_nand.c **** }
 114              		.loc 1 204 1
 115 007a 1846     		mov	r0, r3
 116 007c 1037     		adds	r7, r7, #16
 117              		.cfi_def_cfa_offset 8
 118 007e BD46     		mov	sp, r7
 119              		.cfi_def_cfa_register 13
 120              		@ sp needed
 121 0080 80BD     		pop	{r7, pc}
 122              		.cfi_endproc
 123              	.LFE445:
 125              		.section	.text.HAL_NAND_DeInit,"ax",%progbits
 126              		.align	1
 127              		.global	HAL_NAND_DeInit
 128              		.syntax unified
 129              		.thumb
 130              		.thumb_func
 132              	HAL_NAND_DeInit:
 133              	.LFB446:
 205:Drivers/STM32L4xx_HAL_Driver/Src/stm32l4xx_hal_nand.c **** 
 206:Drivers/STM32L4xx_HAL_Driver/Src/stm32l4xx_hal_nand.c **** /**
 207:Drivers/STM32L4xx_HAL_Driver/Src/stm32l4xx_hal_nand.c ****   * @brief  Perform NAND memory De-Initialization sequence
 208:Drivers/STM32L4xx_HAL_Driver/Src/stm32l4xx_hal_nand.c ****   * @param  hnand pointer to a NAND_HandleTypeDef structure that contains
 209:Drivers/STM32L4xx_HAL_Driver/Src/stm32l4xx_hal_nand.c ****   *                the configuration information for NAND module.
 210:Drivers/STM32L4xx_HAL_Driver/Src/stm32l4xx_hal_nand.c ****   * @retval HAL status
 211:Drivers/STM32L4xx_HAL_Driver/Src/stm32l4xx_hal_nand.c ****   */
 212:Drivers/STM32L4xx_HAL_Driver/Src/stm32l4xx_hal_nand.c **** HAL_StatusTypeDef HAL_NAND_DeInit(NAND_HandleTypeDef *hnand)
 213:Drivers/STM32L4xx_HAL_Driver/Src/stm32l4xx_hal_nand.c **** {
ARM GAS  /tmp/ccUr9KqT.s 			page 7


 134              		.loc 1 213 1
 135              		.cfi_startproc
 136              		@ args = 0, pretend = 0, frame = 8
 137              		@ frame_needed = 1, uses_anonymous_args = 0
 138 0000 80B5     		push	{r7, lr}
 139              		.cfi_def_cfa_offset 8
 140              		.cfi_offset 7, -8
 141              		.cfi_offset 14, -4
 142 0002 82B0     		sub	sp, sp, #8
 143              		.cfi_def_cfa_offset 16
 144 0004 00AF     		add	r7, sp, #0
 145              		.cfi_def_cfa_register 7
 146 0006 7860     		str	r0, [r7, #4]
 214:Drivers/STM32L4xx_HAL_Driver/Src/stm32l4xx_hal_nand.c **** #if (USE_HAL_NAND_REGISTER_CALLBACKS == 1)
 215:Drivers/STM32L4xx_HAL_Driver/Src/stm32l4xx_hal_nand.c ****   if (hnand->MspDeInitCallback == NULL)
 216:Drivers/STM32L4xx_HAL_Driver/Src/stm32l4xx_hal_nand.c ****   {
 217:Drivers/STM32L4xx_HAL_Driver/Src/stm32l4xx_hal_nand.c ****     hnand->MspDeInitCallback = HAL_NAND_MspDeInit;
 218:Drivers/STM32L4xx_HAL_Driver/Src/stm32l4xx_hal_nand.c ****   }
 219:Drivers/STM32L4xx_HAL_Driver/Src/stm32l4xx_hal_nand.c **** 
 220:Drivers/STM32L4xx_HAL_Driver/Src/stm32l4xx_hal_nand.c ****   /* DeInit the low level hardware */
 221:Drivers/STM32L4xx_HAL_Driver/Src/stm32l4xx_hal_nand.c ****   hnand->MspDeInitCallback(hnand);
 222:Drivers/STM32L4xx_HAL_Driver/Src/stm32l4xx_hal_nand.c **** #else
 223:Drivers/STM32L4xx_HAL_Driver/Src/stm32l4xx_hal_nand.c ****   /* Initialize the low level hardware (MSP) */
 224:Drivers/STM32L4xx_HAL_Driver/Src/stm32l4xx_hal_nand.c ****   HAL_NAND_MspDeInit(hnand);
 147              		.loc 1 224 3
 148 0008 7868     		ldr	r0, [r7, #4]
 149 000a FFF7FEFF 		bl	HAL_NAND_MspDeInit
 225:Drivers/STM32L4xx_HAL_Driver/Src/stm32l4xx_hal_nand.c **** #endif /* (USE_HAL_NAND_REGISTER_CALLBACKS) */
 226:Drivers/STM32L4xx_HAL_Driver/Src/stm32l4xx_hal_nand.c **** 
 227:Drivers/STM32L4xx_HAL_Driver/Src/stm32l4xx_hal_nand.c ****   /* Configure the NAND registers with their reset values */
 228:Drivers/STM32L4xx_HAL_Driver/Src/stm32l4xx_hal_nand.c ****   (void)FMC_NAND_DeInit(hnand->Instance, hnand->Init.NandBank);
 150              		.loc 1 228 9
 151 000e 7B68     		ldr	r3, [r7, #4]
 152 0010 1A68     		ldr	r2, [r3]
 153 0012 7B68     		ldr	r3, [r7, #4]
 154 0014 5B68     		ldr	r3, [r3, #4]
 155 0016 1946     		mov	r1, r3
 156 0018 1046     		mov	r0, r2
 157 001a FFF7FEFF 		bl	FMC_NAND_DeInit
 229:Drivers/STM32L4xx_HAL_Driver/Src/stm32l4xx_hal_nand.c **** 
 230:Drivers/STM32L4xx_HAL_Driver/Src/stm32l4xx_hal_nand.c ****   /* Reset the NAND controller state */
 231:Drivers/STM32L4xx_HAL_Driver/Src/stm32l4xx_hal_nand.c ****   hnand->State = HAL_NAND_STATE_RESET;
 158              		.loc 1 231 16
 159 001e 7B68     		ldr	r3, [r7, #4]
 160 0020 0022     		movs	r2, #0
 161 0022 83F82120 		strb	r2, [r3, #33]
 232:Drivers/STM32L4xx_HAL_Driver/Src/stm32l4xx_hal_nand.c **** 
 233:Drivers/STM32L4xx_HAL_Driver/Src/stm32l4xx_hal_nand.c ****   /* Release Lock */
 234:Drivers/STM32L4xx_HAL_Driver/Src/stm32l4xx_hal_nand.c ****   __HAL_UNLOCK(hnand);
 162              		.loc 1 234 3
 163 0026 7B68     		ldr	r3, [r7, #4]
 164 0028 0022     		movs	r2, #0
 165 002a 83F82020 		strb	r2, [r3, #32]
 235:Drivers/STM32L4xx_HAL_Driver/Src/stm32l4xx_hal_nand.c **** 
 236:Drivers/STM32L4xx_HAL_Driver/Src/stm32l4xx_hal_nand.c ****   return HAL_OK;
 166              		.loc 1 236 10
 167 002e 0023     		movs	r3, #0
ARM GAS  /tmp/ccUr9KqT.s 			page 8


 237:Drivers/STM32L4xx_HAL_Driver/Src/stm32l4xx_hal_nand.c **** }
 168              		.loc 1 237 1
 169 0030 1846     		mov	r0, r3
 170 0032 0837     		adds	r7, r7, #8
 171              		.cfi_def_cfa_offset 8
 172 0034 BD46     		mov	sp, r7
 173              		.cfi_def_cfa_register 13
 174              		@ sp needed
 175 0036 80BD     		pop	{r7, pc}
 176              		.cfi_endproc
 177              	.LFE446:
 179              		.section	.text.HAL_NAND_MspInit,"ax",%progbits
 180              		.align	1
 181              		.weak	HAL_NAND_MspInit
 182              		.syntax unified
 183              		.thumb
 184              		.thumb_func
 186              	HAL_NAND_MspInit:
 187              	.LFB447:
 238:Drivers/STM32L4xx_HAL_Driver/Src/stm32l4xx_hal_nand.c **** 
 239:Drivers/STM32L4xx_HAL_Driver/Src/stm32l4xx_hal_nand.c **** /**
 240:Drivers/STM32L4xx_HAL_Driver/Src/stm32l4xx_hal_nand.c ****   * @brief  NAND MSP Init
 241:Drivers/STM32L4xx_HAL_Driver/Src/stm32l4xx_hal_nand.c ****   * @param  hnand pointer to a NAND_HandleTypeDef structure that contains
 242:Drivers/STM32L4xx_HAL_Driver/Src/stm32l4xx_hal_nand.c ****   *                the configuration information for NAND module.
 243:Drivers/STM32L4xx_HAL_Driver/Src/stm32l4xx_hal_nand.c ****   * @retval None
 244:Drivers/STM32L4xx_HAL_Driver/Src/stm32l4xx_hal_nand.c ****   */
 245:Drivers/STM32L4xx_HAL_Driver/Src/stm32l4xx_hal_nand.c **** __weak void HAL_NAND_MspInit(NAND_HandleTypeDef *hnand)
 246:Drivers/STM32L4xx_HAL_Driver/Src/stm32l4xx_hal_nand.c **** {
 188              		.loc 1 246 1
 189              		.cfi_startproc
 190              		@ args = 0, pretend = 0, frame = 8
 191              		@ frame_needed = 1, uses_anonymous_args = 0
 192              		@ link register save eliminated.
 193 0000 80B4     		push	{r7}
 194              		.cfi_def_cfa_offset 4
 195              		.cfi_offset 7, -4
 196 0002 83B0     		sub	sp, sp, #12
 197              		.cfi_def_cfa_offset 16
 198 0004 00AF     		add	r7, sp, #0
 199              		.cfi_def_cfa_register 7
 200 0006 7860     		str	r0, [r7, #4]
 247:Drivers/STM32L4xx_HAL_Driver/Src/stm32l4xx_hal_nand.c ****   /* Prevent unused argument(s) compilation warning */
 248:Drivers/STM32L4xx_HAL_Driver/Src/stm32l4xx_hal_nand.c ****   UNUSED(hnand);
 249:Drivers/STM32L4xx_HAL_Driver/Src/stm32l4xx_hal_nand.c **** 
 250:Drivers/STM32L4xx_HAL_Driver/Src/stm32l4xx_hal_nand.c ****   /* NOTE : This function Should not be modified, when the callback is needed,
 251:Drivers/STM32L4xx_HAL_Driver/Src/stm32l4xx_hal_nand.c ****             the HAL_NAND_MspInit could be implemented in the user file
 252:Drivers/STM32L4xx_HAL_Driver/Src/stm32l4xx_hal_nand.c ****    */
 253:Drivers/STM32L4xx_HAL_Driver/Src/stm32l4xx_hal_nand.c **** }
 201              		.loc 1 253 1
 202 0008 00BF     		nop
 203 000a 0C37     		adds	r7, r7, #12
 204              		.cfi_def_cfa_offset 4
 205 000c BD46     		mov	sp, r7
 206              		.cfi_def_cfa_register 13
 207              		@ sp needed
 208 000e 5DF8047B 		ldr	r7, [sp], #4
 209              		.cfi_restore 7
ARM GAS  /tmp/ccUr9KqT.s 			page 9


 210              		.cfi_def_cfa_offset 0
 211 0012 7047     		bx	lr
 212              		.cfi_endproc
 213              	.LFE447:
 215              		.section	.text.HAL_NAND_MspDeInit,"ax",%progbits
 216              		.align	1
 217              		.weak	HAL_NAND_MspDeInit
 218              		.syntax unified
 219              		.thumb
 220              		.thumb_func
 222              	HAL_NAND_MspDeInit:
 223              	.LFB448:
 254:Drivers/STM32L4xx_HAL_Driver/Src/stm32l4xx_hal_nand.c **** 
 255:Drivers/STM32L4xx_HAL_Driver/Src/stm32l4xx_hal_nand.c **** /**
 256:Drivers/STM32L4xx_HAL_Driver/Src/stm32l4xx_hal_nand.c ****   * @brief  NAND MSP DeInit
 257:Drivers/STM32L4xx_HAL_Driver/Src/stm32l4xx_hal_nand.c ****   * @param  hnand pointer to a NAND_HandleTypeDef structure that contains
 258:Drivers/STM32L4xx_HAL_Driver/Src/stm32l4xx_hal_nand.c ****   *                the configuration information for NAND module.
 259:Drivers/STM32L4xx_HAL_Driver/Src/stm32l4xx_hal_nand.c ****   * @retval None
 260:Drivers/STM32L4xx_HAL_Driver/Src/stm32l4xx_hal_nand.c ****   */
 261:Drivers/STM32L4xx_HAL_Driver/Src/stm32l4xx_hal_nand.c **** __weak void HAL_NAND_MspDeInit(NAND_HandleTypeDef *hnand)
 262:Drivers/STM32L4xx_HAL_Driver/Src/stm32l4xx_hal_nand.c **** {
 224              		.loc 1 262 1
 225              		.cfi_startproc
 226              		@ args = 0, pretend = 0, frame = 8
 227              		@ frame_needed = 1, uses_anonymous_args = 0
 228              		@ link register save eliminated.
 229 0000 80B4     		push	{r7}
 230              		.cfi_def_cfa_offset 4
 231              		.cfi_offset 7, -4
 232 0002 83B0     		sub	sp, sp, #12
 233              		.cfi_def_cfa_offset 16
 234 0004 00AF     		add	r7, sp, #0
 235              		.cfi_def_cfa_register 7
 236 0006 7860     		str	r0, [r7, #4]
 263:Drivers/STM32L4xx_HAL_Driver/Src/stm32l4xx_hal_nand.c ****   /* Prevent unused argument(s) compilation warning */
 264:Drivers/STM32L4xx_HAL_Driver/Src/stm32l4xx_hal_nand.c ****   UNUSED(hnand);
 265:Drivers/STM32L4xx_HAL_Driver/Src/stm32l4xx_hal_nand.c **** 
 266:Drivers/STM32L4xx_HAL_Driver/Src/stm32l4xx_hal_nand.c ****   /* NOTE : This function Should not be modified, when the callback is needed,
 267:Drivers/STM32L4xx_HAL_Driver/Src/stm32l4xx_hal_nand.c ****             the HAL_NAND_MspDeInit could be implemented in the user file
 268:Drivers/STM32L4xx_HAL_Driver/Src/stm32l4xx_hal_nand.c ****    */
 269:Drivers/STM32L4xx_HAL_Driver/Src/stm32l4xx_hal_nand.c **** }
 237              		.loc 1 269 1
 238 0008 00BF     		nop
 239 000a 0C37     		adds	r7, r7, #12
 240              		.cfi_def_cfa_offset 4
 241 000c BD46     		mov	sp, r7
 242              		.cfi_def_cfa_register 13
 243              		@ sp needed
 244 000e 5DF8047B 		ldr	r7, [sp], #4
 245              		.cfi_restore 7
 246              		.cfi_def_cfa_offset 0
 247 0012 7047     		bx	lr
 248              		.cfi_endproc
 249              	.LFE448:
 251              		.section	.text.HAL_NAND_IRQHandler,"ax",%progbits
 252              		.align	1
 253              		.global	HAL_NAND_IRQHandler
ARM GAS  /tmp/ccUr9KqT.s 			page 10


 254              		.syntax unified
 255              		.thumb
 256              		.thumb_func
 258              	HAL_NAND_IRQHandler:
 259              	.LFB449:
 270:Drivers/STM32L4xx_HAL_Driver/Src/stm32l4xx_hal_nand.c **** 
 271:Drivers/STM32L4xx_HAL_Driver/Src/stm32l4xx_hal_nand.c **** 
 272:Drivers/STM32L4xx_HAL_Driver/Src/stm32l4xx_hal_nand.c **** /**
 273:Drivers/STM32L4xx_HAL_Driver/Src/stm32l4xx_hal_nand.c ****   * @brief  This function handles NAND device interrupt request.
 274:Drivers/STM32L4xx_HAL_Driver/Src/stm32l4xx_hal_nand.c ****   * @param  hnand pointer to a NAND_HandleTypeDef structure that contains
 275:Drivers/STM32L4xx_HAL_Driver/Src/stm32l4xx_hal_nand.c ****   *                the configuration information for NAND module.
 276:Drivers/STM32L4xx_HAL_Driver/Src/stm32l4xx_hal_nand.c ****   * @retval HAL status
 277:Drivers/STM32L4xx_HAL_Driver/Src/stm32l4xx_hal_nand.c ****   */
 278:Drivers/STM32L4xx_HAL_Driver/Src/stm32l4xx_hal_nand.c **** void HAL_NAND_IRQHandler(NAND_HandleTypeDef *hnand)
 279:Drivers/STM32L4xx_HAL_Driver/Src/stm32l4xx_hal_nand.c **** {
 260              		.loc 1 279 1
 261              		.cfi_startproc
 262              		@ args = 0, pretend = 0, frame = 8
 263              		@ frame_needed = 1, uses_anonymous_args = 0
 264 0000 80B5     		push	{r7, lr}
 265              		.cfi_def_cfa_offset 8
 266              		.cfi_offset 7, -8
 267              		.cfi_offset 14, -4
 268 0002 82B0     		sub	sp, sp, #8
 269              		.cfi_def_cfa_offset 16
 270 0004 00AF     		add	r7, sp, #0
 271              		.cfi_def_cfa_register 7
 272 0006 7860     		str	r0, [r7, #4]
 280:Drivers/STM32L4xx_HAL_Driver/Src/stm32l4xx_hal_nand.c ****   /* Check NAND interrupt Rising edge flag */
 281:Drivers/STM32L4xx_HAL_Driver/Src/stm32l4xx_hal_nand.c ****   if (__FMC_NAND_GET_FLAG(hnand->Instance, hnand->Init.NandBank, FMC_FLAG_RISING_EDGE))
 273              		.loc 1 281 7
 274 0008 7B68     		ldr	r3, [r7, #4]
 275 000a 1B68     		ldr	r3, [r3]
 276 000c 5B68     		ldr	r3, [r3, #4]
 277 000e 03F00103 		and	r3, r3, #1
 278              		.loc 1 281 6
 279 0012 012B     		cmp	r3, #1
 280 0014 0AD1     		bne	.L10
 282:Drivers/STM32L4xx_HAL_Driver/Src/stm32l4xx_hal_nand.c ****   {
 283:Drivers/STM32L4xx_HAL_Driver/Src/stm32l4xx_hal_nand.c ****     /* NAND interrupt callback*/
 284:Drivers/STM32L4xx_HAL_Driver/Src/stm32l4xx_hal_nand.c **** #if (USE_HAL_NAND_REGISTER_CALLBACKS == 1)
 285:Drivers/STM32L4xx_HAL_Driver/Src/stm32l4xx_hal_nand.c ****     hnand->ItCallback(hnand);
 286:Drivers/STM32L4xx_HAL_Driver/Src/stm32l4xx_hal_nand.c **** #else
 287:Drivers/STM32L4xx_HAL_Driver/Src/stm32l4xx_hal_nand.c ****     HAL_NAND_ITCallback(hnand);
 281              		.loc 1 287 5
 282 0016 7868     		ldr	r0, [r7, #4]
 283 0018 FFF7FEFF 		bl	HAL_NAND_ITCallback
 288:Drivers/STM32L4xx_HAL_Driver/Src/stm32l4xx_hal_nand.c **** #endif /* (USE_HAL_NAND_REGISTER_CALLBACKS) */
 289:Drivers/STM32L4xx_HAL_Driver/Src/stm32l4xx_hal_nand.c **** 
 290:Drivers/STM32L4xx_HAL_Driver/Src/stm32l4xx_hal_nand.c ****     /* Clear NAND interrupt Rising edge pending bit */
 291:Drivers/STM32L4xx_HAL_Driver/Src/stm32l4xx_hal_nand.c ****     __FMC_NAND_CLEAR_FLAG(hnand->Instance, FMC_FLAG_RISING_EDGE);
 284              		.loc 1 291 5
 285 001c 7B68     		ldr	r3, [r7, #4]
 286 001e 1B68     		ldr	r3, [r3]
 287 0020 5A68     		ldr	r2, [r3, #4]
 288 0022 7B68     		ldr	r3, [r7, #4]
 289 0024 1B68     		ldr	r3, [r3]
ARM GAS  /tmp/ccUr9KqT.s 			page 11


 290 0026 22F00102 		bic	r2, r2, #1
 291 002a 5A60     		str	r2, [r3, #4]
 292              	.L10:
 292:Drivers/STM32L4xx_HAL_Driver/Src/stm32l4xx_hal_nand.c ****   }
 293:Drivers/STM32L4xx_HAL_Driver/Src/stm32l4xx_hal_nand.c **** 
 294:Drivers/STM32L4xx_HAL_Driver/Src/stm32l4xx_hal_nand.c ****   /* Check NAND interrupt Level flag */
 295:Drivers/STM32L4xx_HAL_Driver/Src/stm32l4xx_hal_nand.c ****   if (__FMC_NAND_GET_FLAG(hnand->Instance, hnand->Init.NandBank, FMC_FLAG_LEVEL))
 293              		.loc 1 295 7
 294 002c 7B68     		ldr	r3, [r7, #4]
 295 002e 1B68     		ldr	r3, [r3]
 296 0030 5B68     		ldr	r3, [r3, #4]
 297 0032 03F00203 		and	r3, r3, #2
 298              		.loc 1 295 6
 299 0036 022B     		cmp	r3, #2
 300 0038 0AD1     		bne	.L11
 296:Drivers/STM32L4xx_HAL_Driver/Src/stm32l4xx_hal_nand.c ****   {
 297:Drivers/STM32L4xx_HAL_Driver/Src/stm32l4xx_hal_nand.c ****     /* NAND interrupt callback*/
 298:Drivers/STM32L4xx_HAL_Driver/Src/stm32l4xx_hal_nand.c **** #if (USE_HAL_NAND_REGISTER_CALLBACKS == 1)
 299:Drivers/STM32L4xx_HAL_Driver/Src/stm32l4xx_hal_nand.c ****     hnand->ItCallback(hnand);
 300:Drivers/STM32L4xx_HAL_Driver/Src/stm32l4xx_hal_nand.c **** #else
 301:Drivers/STM32L4xx_HAL_Driver/Src/stm32l4xx_hal_nand.c ****     HAL_NAND_ITCallback(hnand);
 301              		.loc 1 301 5
 302 003a 7868     		ldr	r0, [r7, #4]
 303 003c FFF7FEFF 		bl	HAL_NAND_ITCallback
 302:Drivers/STM32L4xx_HAL_Driver/Src/stm32l4xx_hal_nand.c **** #endif /* (USE_HAL_NAND_REGISTER_CALLBACKS) */
 303:Drivers/STM32L4xx_HAL_Driver/Src/stm32l4xx_hal_nand.c **** 
 304:Drivers/STM32L4xx_HAL_Driver/Src/stm32l4xx_hal_nand.c ****     /* Clear NAND interrupt Level pending bit */
 305:Drivers/STM32L4xx_HAL_Driver/Src/stm32l4xx_hal_nand.c ****     __FMC_NAND_CLEAR_FLAG(hnand->Instance, FMC_FLAG_LEVEL);
 304              		.loc 1 305 5
 305 0040 7B68     		ldr	r3, [r7, #4]
 306 0042 1B68     		ldr	r3, [r3]
 307 0044 5A68     		ldr	r2, [r3, #4]
 308 0046 7B68     		ldr	r3, [r7, #4]
 309 0048 1B68     		ldr	r3, [r3]
 310 004a 22F00202 		bic	r2, r2, #2
 311 004e 5A60     		str	r2, [r3, #4]
 312              	.L11:
 306:Drivers/STM32L4xx_HAL_Driver/Src/stm32l4xx_hal_nand.c ****   }
 307:Drivers/STM32L4xx_HAL_Driver/Src/stm32l4xx_hal_nand.c **** 
 308:Drivers/STM32L4xx_HAL_Driver/Src/stm32l4xx_hal_nand.c ****   /* Check NAND interrupt Falling edge flag */
 309:Drivers/STM32L4xx_HAL_Driver/Src/stm32l4xx_hal_nand.c ****   if (__FMC_NAND_GET_FLAG(hnand->Instance, hnand->Init.NandBank, FMC_FLAG_FALLING_EDGE))
 313              		.loc 1 309 7
 314 0050 7B68     		ldr	r3, [r7, #4]
 315 0052 1B68     		ldr	r3, [r3]
 316 0054 5B68     		ldr	r3, [r3, #4]
 317 0056 03F00403 		and	r3, r3, #4
 318              		.loc 1 309 6
 319 005a 042B     		cmp	r3, #4
 320 005c 0AD1     		bne	.L12
 310:Drivers/STM32L4xx_HAL_Driver/Src/stm32l4xx_hal_nand.c ****   {
 311:Drivers/STM32L4xx_HAL_Driver/Src/stm32l4xx_hal_nand.c ****     /* NAND interrupt callback*/
 312:Drivers/STM32L4xx_HAL_Driver/Src/stm32l4xx_hal_nand.c **** #if (USE_HAL_NAND_REGISTER_CALLBACKS == 1)
 313:Drivers/STM32L4xx_HAL_Driver/Src/stm32l4xx_hal_nand.c ****     hnand->ItCallback(hnand);
 314:Drivers/STM32L4xx_HAL_Driver/Src/stm32l4xx_hal_nand.c **** #else
 315:Drivers/STM32L4xx_HAL_Driver/Src/stm32l4xx_hal_nand.c ****     HAL_NAND_ITCallback(hnand);
 321              		.loc 1 315 5
 322 005e 7868     		ldr	r0, [r7, #4]
ARM GAS  /tmp/ccUr9KqT.s 			page 12


 323 0060 FFF7FEFF 		bl	HAL_NAND_ITCallback
 316:Drivers/STM32L4xx_HAL_Driver/Src/stm32l4xx_hal_nand.c **** #endif /* (USE_HAL_NAND_REGISTER_CALLBACKS) */
 317:Drivers/STM32L4xx_HAL_Driver/Src/stm32l4xx_hal_nand.c **** 
 318:Drivers/STM32L4xx_HAL_Driver/Src/stm32l4xx_hal_nand.c ****     /* Clear NAND interrupt Falling edge pending bit */
 319:Drivers/STM32L4xx_HAL_Driver/Src/stm32l4xx_hal_nand.c ****     __FMC_NAND_CLEAR_FLAG(hnand->Instance, FMC_FLAG_FALLING_EDGE);
 324              		.loc 1 319 5
 325 0064 7B68     		ldr	r3, [r7, #4]
 326 0066 1B68     		ldr	r3, [r3]
 327 0068 5A68     		ldr	r2, [r3, #4]
 328 006a 7B68     		ldr	r3, [r7, #4]
 329 006c 1B68     		ldr	r3, [r3]
 330 006e 22F00402 		bic	r2, r2, #4
 331 0072 5A60     		str	r2, [r3, #4]
 332              	.L12:
 320:Drivers/STM32L4xx_HAL_Driver/Src/stm32l4xx_hal_nand.c ****   }
 321:Drivers/STM32L4xx_HAL_Driver/Src/stm32l4xx_hal_nand.c **** 
 322:Drivers/STM32L4xx_HAL_Driver/Src/stm32l4xx_hal_nand.c ****   /* Check NAND interrupt FIFO empty flag */
 323:Drivers/STM32L4xx_HAL_Driver/Src/stm32l4xx_hal_nand.c ****   if (__FMC_NAND_GET_FLAG(hnand->Instance, hnand->Init.NandBank, FMC_FLAG_FEMPT))
 333              		.loc 1 323 7
 334 0074 7B68     		ldr	r3, [r7, #4]
 335 0076 1B68     		ldr	r3, [r3]
 336 0078 5B68     		ldr	r3, [r3, #4]
 337 007a 03F04003 		and	r3, r3, #64
 338              		.loc 1 323 6
 339 007e 402B     		cmp	r3, #64
 340 0080 0AD1     		bne	.L14
 324:Drivers/STM32L4xx_HAL_Driver/Src/stm32l4xx_hal_nand.c ****   {
 325:Drivers/STM32L4xx_HAL_Driver/Src/stm32l4xx_hal_nand.c ****     /* NAND interrupt callback*/
 326:Drivers/STM32L4xx_HAL_Driver/Src/stm32l4xx_hal_nand.c **** #if (USE_HAL_NAND_REGISTER_CALLBACKS == 1)
 327:Drivers/STM32L4xx_HAL_Driver/Src/stm32l4xx_hal_nand.c ****     hnand->ItCallback(hnand);
 328:Drivers/STM32L4xx_HAL_Driver/Src/stm32l4xx_hal_nand.c **** #else
 329:Drivers/STM32L4xx_HAL_Driver/Src/stm32l4xx_hal_nand.c ****     HAL_NAND_ITCallback(hnand);
 341              		.loc 1 329 5
 342 0082 7868     		ldr	r0, [r7, #4]
 343 0084 FFF7FEFF 		bl	HAL_NAND_ITCallback
 330:Drivers/STM32L4xx_HAL_Driver/Src/stm32l4xx_hal_nand.c **** #endif /* (USE_HAL_NAND_REGISTER_CALLBACKS) */
 331:Drivers/STM32L4xx_HAL_Driver/Src/stm32l4xx_hal_nand.c **** 
 332:Drivers/STM32L4xx_HAL_Driver/Src/stm32l4xx_hal_nand.c ****     /* Clear NAND interrupt FIFO empty pending bit */
 333:Drivers/STM32L4xx_HAL_Driver/Src/stm32l4xx_hal_nand.c ****     __FMC_NAND_CLEAR_FLAG(hnand->Instance, FMC_FLAG_FEMPT);
 344              		.loc 1 333 5
 345 0088 7B68     		ldr	r3, [r7, #4]
 346 008a 1B68     		ldr	r3, [r3]
 347 008c 5A68     		ldr	r2, [r3, #4]
 348 008e 7B68     		ldr	r3, [r7, #4]
 349 0090 1B68     		ldr	r3, [r3]
 350 0092 22F04002 		bic	r2, r2, #64
 351 0096 5A60     		str	r2, [r3, #4]
 352              	.L14:
 334:Drivers/STM32L4xx_HAL_Driver/Src/stm32l4xx_hal_nand.c ****   }
 335:Drivers/STM32L4xx_HAL_Driver/Src/stm32l4xx_hal_nand.c **** 
 336:Drivers/STM32L4xx_HAL_Driver/Src/stm32l4xx_hal_nand.c **** }
 353              		.loc 1 336 1
 354 0098 00BF     		nop
 355 009a 0837     		adds	r7, r7, #8
 356              		.cfi_def_cfa_offset 8
 357 009c BD46     		mov	sp, r7
 358              		.cfi_def_cfa_register 13
ARM GAS  /tmp/ccUr9KqT.s 			page 13


 359              		@ sp needed
 360 009e 80BD     		pop	{r7, pc}
 361              		.cfi_endproc
 362              	.LFE449:
 364              		.section	.text.HAL_NAND_ITCallback,"ax",%progbits
 365              		.align	1
 366              		.weak	HAL_NAND_ITCallback
 367              		.syntax unified
 368              		.thumb
 369              		.thumb_func
 371              	HAL_NAND_ITCallback:
 372              	.LFB450:
 337:Drivers/STM32L4xx_HAL_Driver/Src/stm32l4xx_hal_nand.c **** 
 338:Drivers/STM32L4xx_HAL_Driver/Src/stm32l4xx_hal_nand.c **** /**
 339:Drivers/STM32L4xx_HAL_Driver/Src/stm32l4xx_hal_nand.c ****   * @brief  NAND interrupt feature callback
 340:Drivers/STM32L4xx_HAL_Driver/Src/stm32l4xx_hal_nand.c ****   * @param  hnand pointer to a NAND_HandleTypeDef structure that contains
 341:Drivers/STM32L4xx_HAL_Driver/Src/stm32l4xx_hal_nand.c ****   *                the configuration information for NAND module.
 342:Drivers/STM32L4xx_HAL_Driver/Src/stm32l4xx_hal_nand.c ****   * @retval None
 343:Drivers/STM32L4xx_HAL_Driver/Src/stm32l4xx_hal_nand.c ****   */
 344:Drivers/STM32L4xx_HAL_Driver/Src/stm32l4xx_hal_nand.c **** __weak void HAL_NAND_ITCallback(NAND_HandleTypeDef *hnand)
 345:Drivers/STM32L4xx_HAL_Driver/Src/stm32l4xx_hal_nand.c **** {
 373              		.loc 1 345 1
 374              		.cfi_startproc
 375              		@ args = 0, pretend = 0, frame = 8
 376              		@ frame_needed = 1, uses_anonymous_args = 0
 377              		@ link register save eliminated.
 378 0000 80B4     		push	{r7}
 379              		.cfi_def_cfa_offset 4
 380              		.cfi_offset 7, -4
 381 0002 83B0     		sub	sp, sp, #12
 382              		.cfi_def_cfa_offset 16
 383 0004 00AF     		add	r7, sp, #0
 384              		.cfi_def_cfa_register 7
 385 0006 7860     		str	r0, [r7, #4]
 346:Drivers/STM32L4xx_HAL_Driver/Src/stm32l4xx_hal_nand.c ****   /* Prevent unused argument(s) compilation warning */
 347:Drivers/STM32L4xx_HAL_Driver/Src/stm32l4xx_hal_nand.c ****   UNUSED(hnand);
 348:Drivers/STM32L4xx_HAL_Driver/Src/stm32l4xx_hal_nand.c **** 
 349:Drivers/STM32L4xx_HAL_Driver/Src/stm32l4xx_hal_nand.c ****   /* NOTE : This function Should not be modified, when the callback is needed,
 350:Drivers/STM32L4xx_HAL_Driver/Src/stm32l4xx_hal_nand.c ****             the HAL_NAND_ITCallback could be implemented in the user file
 351:Drivers/STM32L4xx_HAL_Driver/Src/stm32l4xx_hal_nand.c ****    */
 352:Drivers/STM32L4xx_HAL_Driver/Src/stm32l4xx_hal_nand.c **** }
 386              		.loc 1 352 1
 387 0008 00BF     		nop
 388 000a 0C37     		adds	r7, r7, #12
 389              		.cfi_def_cfa_offset 4
 390 000c BD46     		mov	sp, r7
 391              		.cfi_def_cfa_register 13
 392              		@ sp needed
 393 000e 5DF8047B 		ldr	r7, [sp], #4
 394              		.cfi_restore 7
 395              		.cfi_def_cfa_offset 0
 396 0012 7047     		bx	lr
 397              		.cfi_endproc
 398              	.LFE450:
 400              		.section	.text.HAL_NAND_Read_ID,"ax",%progbits
 401              		.align	1
 402              		.global	HAL_NAND_Read_ID
ARM GAS  /tmp/ccUr9KqT.s 			page 14


 403              		.syntax unified
 404              		.thumb
 405              		.thumb_func
 407              	HAL_NAND_Read_ID:
 408              	.LFB451:
 353:Drivers/STM32L4xx_HAL_Driver/Src/stm32l4xx_hal_nand.c **** 
 354:Drivers/STM32L4xx_HAL_Driver/Src/stm32l4xx_hal_nand.c **** /**
 355:Drivers/STM32L4xx_HAL_Driver/Src/stm32l4xx_hal_nand.c ****   * @}
 356:Drivers/STM32L4xx_HAL_Driver/Src/stm32l4xx_hal_nand.c ****   */
 357:Drivers/STM32L4xx_HAL_Driver/Src/stm32l4xx_hal_nand.c **** 
 358:Drivers/STM32L4xx_HAL_Driver/Src/stm32l4xx_hal_nand.c **** /** @defgroup NAND_Exported_Functions_Group2 Input and Output functions
 359:Drivers/STM32L4xx_HAL_Driver/Src/stm32l4xx_hal_nand.c ****   * @brief    Input Output and memory control functions
 360:Drivers/STM32L4xx_HAL_Driver/Src/stm32l4xx_hal_nand.c ****   *
 361:Drivers/STM32L4xx_HAL_Driver/Src/stm32l4xx_hal_nand.c ****   @verbatim
 362:Drivers/STM32L4xx_HAL_Driver/Src/stm32l4xx_hal_nand.c ****   ==============================================================================
 363:Drivers/STM32L4xx_HAL_Driver/Src/stm32l4xx_hal_nand.c ****                     ##### NAND Input and Output functions #####
 364:Drivers/STM32L4xx_HAL_Driver/Src/stm32l4xx_hal_nand.c ****   ==============================================================================
 365:Drivers/STM32L4xx_HAL_Driver/Src/stm32l4xx_hal_nand.c ****   [..]
 366:Drivers/STM32L4xx_HAL_Driver/Src/stm32l4xx_hal_nand.c ****     This section provides functions allowing to use and control the NAND
 367:Drivers/STM32L4xx_HAL_Driver/Src/stm32l4xx_hal_nand.c ****     memory
 368:Drivers/STM32L4xx_HAL_Driver/Src/stm32l4xx_hal_nand.c **** 
 369:Drivers/STM32L4xx_HAL_Driver/Src/stm32l4xx_hal_nand.c **** @endverbatim
 370:Drivers/STM32L4xx_HAL_Driver/Src/stm32l4xx_hal_nand.c ****   * @{
 371:Drivers/STM32L4xx_HAL_Driver/Src/stm32l4xx_hal_nand.c ****   */
 372:Drivers/STM32L4xx_HAL_Driver/Src/stm32l4xx_hal_nand.c **** 
 373:Drivers/STM32L4xx_HAL_Driver/Src/stm32l4xx_hal_nand.c **** /**
 374:Drivers/STM32L4xx_HAL_Driver/Src/stm32l4xx_hal_nand.c ****   * @brief  Read the NAND memory electronic signature
 375:Drivers/STM32L4xx_HAL_Driver/Src/stm32l4xx_hal_nand.c ****   * @param  hnand pointer to a NAND_HandleTypeDef structure that contains
 376:Drivers/STM32L4xx_HAL_Driver/Src/stm32l4xx_hal_nand.c ****   *                the configuration information for NAND module.
 377:Drivers/STM32L4xx_HAL_Driver/Src/stm32l4xx_hal_nand.c ****   * @param  pNAND_ID NAND ID structure
 378:Drivers/STM32L4xx_HAL_Driver/Src/stm32l4xx_hal_nand.c ****   * @retval HAL status
 379:Drivers/STM32L4xx_HAL_Driver/Src/stm32l4xx_hal_nand.c ****   */
 380:Drivers/STM32L4xx_HAL_Driver/Src/stm32l4xx_hal_nand.c **** HAL_StatusTypeDef HAL_NAND_Read_ID(NAND_HandleTypeDef *hnand, NAND_IDTypeDef *pNAND_ID)
 381:Drivers/STM32L4xx_HAL_Driver/Src/stm32l4xx_hal_nand.c **** {
 409              		.loc 1 381 1
 410              		.cfi_startproc
 411              		@ args = 0, pretend = 0, frame = 24
 412              		@ frame_needed = 1, uses_anonymous_args = 0
 413              		@ link register save eliminated.
 414 0000 80B4     		push	{r7}
 415              		.cfi_def_cfa_offset 4
 416              		.cfi_offset 7, -4
 417 0002 87B0     		sub	sp, sp, #28
 418              		.cfi_def_cfa_offset 32
 419 0004 00AF     		add	r7, sp, #0
 420              		.cfi_def_cfa_register 7
 421 0006 7860     		str	r0, [r7, #4]
 422 0008 3960     		str	r1, [r7]
 382:Drivers/STM32L4xx_HAL_Driver/Src/stm32l4xx_hal_nand.c ****   __IO uint32_t data = 0;
 423              		.loc 1 382 17
 424 000a 0023     		movs	r3, #0
 425 000c 3B61     		str	r3, [r7, #16]
 383:Drivers/STM32L4xx_HAL_Driver/Src/stm32l4xx_hal_nand.c ****   __IO uint32_t data1 = 0;
 426              		.loc 1 383 17
 427 000e 0023     		movs	r3, #0
 428 0010 FB60     		str	r3, [r7, #12]
 384:Drivers/STM32L4xx_HAL_Driver/Src/stm32l4xx_hal_nand.c ****   uint32_t deviceaddress;
ARM GAS  /tmp/ccUr9KqT.s 			page 15


 385:Drivers/STM32L4xx_HAL_Driver/Src/stm32l4xx_hal_nand.c **** 
 386:Drivers/STM32L4xx_HAL_Driver/Src/stm32l4xx_hal_nand.c ****   /* Check the NAND controller state */
 387:Drivers/STM32L4xx_HAL_Driver/Src/stm32l4xx_hal_nand.c ****   if (hnand->State == HAL_NAND_STATE_BUSY)
 429              		.loc 1 387 12
 430 0012 7B68     		ldr	r3, [r7, #4]
 431 0014 93F82130 		ldrb	r3, [r3, #33]
 432 0018 DBB2     		uxtb	r3, r3
 433              		.loc 1 387 6
 434 001a 022B     		cmp	r3, #2
 435 001c 01D1     		bne	.L17
 388:Drivers/STM32L4xx_HAL_Driver/Src/stm32l4xx_hal_nand.c ****   {
 389:Drivers/STM32L4xx_HAL_Driver/Src/stm32l4xx_hal_nand.c ****     return HAL_BUSY;
 436              		.loc 1 389 12
 437 001e 0223     		movs	r3, #2
 438 0020 66E0     		b	.L18
 439              	.L17:
 390:Drivers/STM32L4xx_HAL_Driver/Src/stm32l4xx_hal_nand.c ****   }
 391:Drivers/STM32L4xx_HAL_Driver/Src/stm32l4xx_hal_nand.c ****   else if (hnand->State == HAL_NAND_STATE_READY)
 440              		.loc 1 391 17
 441 0022 7B68     		ldr	r3, [r7, #4]
 442 0024 93F82130 		ldrb	r3, [r3, #33]
 443 0028 DBB2     		uxtb	r3, r3
 444              		.loc 1 391 11
 445 002a 012B     		cmp	r3, #1
 446 002c 5FD1     		bne	.L19
 392:Drivers/STM32L4xx_HAL_Driver/Src/stm32l4xx_hal_nand.c ****   {
 393:Drivers/STM32L4xx_HAL_Driver/Src/stm32l4xx_hal_nand.c ****     /* Process Locked */
 394:Drivers/STM32L4xx_HAL_Driver/Src/stm32l4xx_hal_nand.c ****     __HAL_LOCK(hnand);
 447              		.loc 1 394 5
 448 002e 7B68     		ldr	r3, [r7, #4]
 449 0030 93F82030 		ldrb	r3, [r3, #32]	@ zero_extendqisi2
 450 0034 012B     		cmp	r3, #1
 451 0036 01D1     		bne	.L20
 452              		.loc 1 394 5 is_stmt 0 discriminator 1
 453 0038 0223     		movs	r3, #2
 454              		.loc 1 394 5
 455 003a 59E0     		b	.L18
 456              	.L20:
 457              		.loc 1 394 5 discriminator 2
 458 003c 7B68     		ldr	r3, [r7, #4]
 459 003e 0122     		movs	r2, #1
 460 0040 83F82020 		strb	r2, [r3, #32]
 395:Drivers/STM32L4xx_HAL_Driver/Src/stm32l4xx_hal_nand.c **** 
 396:Drivers/STM32L4xx_HAL_Driver/Src/stm32l4xx_hal_nand.c ****     /* Update the NAND controller state */
 397:Drivers/STM32L4xx_HAL_Driver/Src/stm32l4xx_hal_nand.c ****     hnand->State = HAL_NAND_STATE_BUSY;
 461              		.loc 1 397 18 is_stmt 1
 462 0044 7B68     		ldr	r3, [r7, #4]
 463 0046 0222     		movs	r2, #2
 464 0048 83F82120 		strb	r2, [r3, #33]
 398:Drivers/STM32L4xx_HAL_Driver/Src/stm32l4xx_hal_nand.c **** 
 399:Drivers/STM32L4xx_HAL_Driver/Src/stm32l4xx_hal_nand.c ****     /* Identify the device address */
 400:Drivers/STM32L4xx_HAL_Driver/Src/stm32l4xx_hal_nand.c ****     deviceaddress = NAND_DEVICE;
 465              		.loc 1 400 19
 466 004c 4FF00043 		mov	r3, #-2147483648
 467 0050 7B61     		str	r3, [r7, #20]
 401:Drivers/STM32L4xx_HAL_Driver/Src/stm32l4xx_hal_nand.c **** 
 402:Drivers/STM32L4xx_HAL_Driver/Src/stm32l4xx_hal_nand.c ****     /* Send Read ID command sequence */
ARM GAS  /tmp/ccUr9KqT.s 			page 16


 403:Drivers/STM32L4xx_HAL_Driver/Src/stm32l4xx_hal_nand.c ****     *(__IO uint8_t *)((uint32_t)(deviceaddress | CMD_AREA))  = NAND_CMD_READID;
 468              		.loc 1 403 23
 469 0052 7B69     		ldr	r3, [r7, #20]
 470 0054 43F48033 		orr	r3, r3, #65536
 471              		.loc 1 403 62
 472 0058 9022     		movs	r2, #144
 473 005a 1A70     		strb	r2, [r3]
 474              	.LBB340:
 475              	.LBB341:
 476              		.file 2 "Drivers/CMSIS/Core/Include/cmsis_gcc.h"
   1:Drivers/CMSIS/Core/Include/cmsis_gcc.h **** /**************************************************************************//**
   2:Drivers/CMSIS/Core/Include/cmsis_gcc.h ****  * @file     cmsis_gcc.h
   3:Drivers/CMSIS/Core/Include/cmsis_gcc.h ****  * @brief    CMSIS compiler GCC header file
   4:Drivers/CMSIS/Core/Include/cmsis_gcc.h ****  * @version  V5.2.0
   5:Drivers/CMSIS/Core/Include/cmsis_gcc.h ****  * @date     08. May 2019
   6:Drivers/CMSIS/Core/Include/cmsis_gcc.h ****  ******************************************************************************/
   7:Drivers/CMSIS/Core/Include/cmsis_gcc.h **** /*
   8:Drivers/CMSIS/Core/Include/cmsis_gcc.h ****  * Copyright (c) 2009-2019 Arm Limited. All rights reserved.
   9:Drivers/CMSIS/Core/Include/cmsis_gcc.h ****  *
  10:Drivers/CMSIS/Core/Include/cmsis_gcc.h ****  * SPDX-License-Identifier: Apache-2.0
  11:Drivers/CMSIS/Core/Include/cmsis_gcc.h ****  *
  12:Drivers/CMSIS/Core/Include/cmsis_gcc.h ****  * Licensed under the Apache License, Version 2.0 (the License); you may
  13:Drivers/CMSIS/Core/Include/cmsis_gcc.h ****  * not use this file except in compliance with the License.
  14:Drivers/CMSIS/Core/Include/cmsis_gcc.h ****  * You may obtain a copy of the License at
  15:Drivers/CMSIS/Core/Include/cmsis_gcc.h ****  *
  16:Drivers/CMSIS/Core/Include/cmsis_gcc.h ****  * www.apache.org/licenses/LICENSE-2.0
  17:Drivers/CMSIS/Core/Include/cmsis_gcc.h ****  *
  18:Drivers/CMSIS/Core/Include/cmsis_gcc.h ****  * Unless required by applicable law or agreed to in writing, software
  19:Drivers/CMSIS/Core/Include/cmsis_gcc.h ****  * distributed under the License is distributed on an AS IS BASIS, WITHOUT
  20:Drivers/CMSIS/Core/Include/cmsis_gcc.h ****  * WARRANTIES OR CONDITIONS OF ANY KIND, either express or implied.
  21:Drivers/CMSIS/Core/Include/cmsis_gcc.h ****  * See the License for the specific language governing permissions and
  22:Drivers/CMSIS/Core/Include/cmsis_gcc.h ****  * limitations under the License.
  23:Drivers/CMSIS/Core/Include/cmsis_gcc.h ****  */
  24:Drivers/CMSIS/Core/Include/cmsis_gcc.h **** 
  25:Drivers/CMSIS/Core/Include/cmsis_gcc.h **** #ifndef __CMSIS_GCC_H
  26:Drivers/CMSIS/Core/Include/cmsis_gcc.h **** #define __CMSIS_GCC_H
  27:Drivers/CMSIS/Core/Include/cmsis_gcc.h **** 
  28:Drivers/CMSIS/Core/Include/cmsis_gcc.h **** /* ignore some GCC warnings */
  29:Drivers/CMSIS/Core/Include/cmsis_gcc.h **** #pragma GCC diagnostic push
  30:Drivers/CMSIS/Core/Include/cmsis_gcc.h **** #pragma GCC diagnostic ignored "-Wsign-conversion"
  31:Drivers/CMSIS/Core/Include/cmsis_gcc.h **** #pragma GCC diagnostic ignored "-Wconversion"
  32:Drivers/CMSIS/Core/Include/cmsis_gcc.h **** #pragma GCC diagnostic ignored "-Wunused-parameter"
  33:Drivers/CMSIS/Core/Include/cmsis_gcc.h **** 
  34:Drivers/CMSIS/Core/Include/cmsis_gcc.h **** /* Fallback for __has_builtin */
  35:Drivers/CMSIS/Core/Include/cmsis_gcc.h **** #ifndef __has_builtin
  36:Drivers/CMSIS/Core/Include/cmsis_gcc.h ****   #define __has_builtin(x) (0)
  37:Drivers/CMSIS/Core/Include/cmsis_gcc.h **** #endif
  38:Drivers/CMSIS/Core/Include/cmsis_gcc.h **** 
  39:Drivers/CMSIS/Core/Include/cmsis_gcc.h **** /* CMSIS compiler specific defines */
  40:Drivers/CMSIS/Core/Include/cmsis_gcc.h **** #ifndef   __ASM
  41:Drivers/CMSIS/Core/Include/cmsis_gcc.h ****   #define __ASM                                  __asm
  42:Drivers/CMSIS/Core/Include/cmsis_gcc.h **** #endif
  43:Drivers/CMSIS/Core/Include/cmsis_gcc.h **** #ifndef   __INLINE
  44:Drivers/CMSIS/Core/Include/cmsis_gcc.h ****   #define __INLINE                               inline
  45:Drivers/CMSIS/Core/Include/cmsis_gcc.h **** #endif
  46:Drivers/CMSIS/Core/Include/cmsis_gcc.h **** #ifndef   __STATIC_INLINE
  47:Drivers/CMSIS/Core/Include/cmsis_gcc.h ****   #define __STATIC_INLINE                        static inline
ARM GAS  /tmp/ccUr9KqT.s 			page 17


  48:Drivers/CMSIS/Core/Include/cmsis_gcc.h **** #endif
  49:Drivers/CMSIS/Core/Include/cmsis_gcc.h **** #ifndef   __STATIC_FORCEINLINE                 
  50:Drivers/CMSIS/Core/Include/cmsis_gcc.h ****   #define __STATIC_FORCEINLINE                   __attribute__((always_inline)) static inline
  51:Drivers/CMSIS/Core/Include/cmsis_gcc.h **** #endif                                           
  52:Drivers/CMSIS/Core/Include/cmsis_gcc.h **** #ifndef   __NO_RETURN
  53:Drivers/CMSIS/Core/Include/cmsis_gcc.h ****   #define __NO_RETURN                            __attribute__((__noreturn__))
  54:Drivers/CMSIS/Core/Include/cmsis_gcc.h **** #endif
  55:Drivers/CMSIS/Core/Include/cmsis_gcc.h **** #ifndef   __USED
  56:Drivers/CMSIS/Core/Include/cmsis_gcc.h ****   #define __USED                                 __attribute__((used))
  57:Drivers/CMSIS/Core/Include/cmsis_gcc.h **** #endif
  58:Drivers/CMSIS/Core/Include/cmsis_gcc.h **** #ifndef   __WEAK
  59:Drivers/CMSIS/Core/Include/cmsis_gcc.h ****   #define __WEAK                                 __attribute__((weak))
  60:Drivers/CMSIS/Core/Include/cmsis_gcc.h **** #endif
  61:Drivers/CMSIS/Core/Include/cmsis_gcc.h **** #ifndef   __PACKED
  62:Drivers/CMSIS/Core/Include/cmsis_gcc.h ****   #define __PACKED                               __attribute__((packed, aligned(1)))
  63:Drivers/CMSIS/Core/Include/cmsis_gcc.h **** #endif
  64:Drivers/CMSIS/Core/Include/cmsis_gcc.h **** #ifndef   __PACKED_STRUCT
  65:Drivers/CMSIS/Core/Include/cmsis_gcc.h ****   #define __PACKED_STRUCT                        struct __attribute__((packed, aligned(1)))
  66:Drivers/CMSIS/Core/Include/cmsis_gcc.h **** #endif
  67:Drivers/CMSIS/Core/Include/cmsis_gcc.h **** #ifndef   __PACKED_UNION
  68:Drivers/CMSIS/Core/Include/cmsis_gcc.h ****   #define __PACKED_UNION                         union __attribute__((packed, aligned(1)))
  69:Drivers/CMSIS/Core/Include/cmsis_gcc.h **** #endif
  70:Drivers/CMSIS/Core/Include/cmsis_gcc.h **** #ifndef   __UNALIGNED_UINT32        /* deprecated */
  71:Drivers/CMSIS/Core/Include/cmsis_gcc.h ****   #pragma GCC diagnostic push
  72:Drivers/CMSIS/Core/Include/cmsis_gcc.h ****   #pragma GCC diagnostic ignored "-Wpacked"
  73:Drivers/CMSIS/Core/Include/cmsis_gcc.h ****   #pragma GCC diagnostic ignored "-Wattributes"
  74:Drivers/CMSIS/Core/Include/cmsis_gcc.h ****   struct __attribute__((packed)) T_UINT32 { uint32_t v; };
  75:Drivers/CMSIS/Core/Include/cmsis_gcc.h ****   #pragma GCC diagnostic pop
  76:Drivers/CMSIS/Core/Include/cmsis_gcc.h ****   #define __UNALIGNED_UINT32(x)                  (((struct T_UINT32 *)(x))->v)
  77:Drivers/CMSIS/Core/Include/cmsis_gcc.h **** #endif
  78:Drivers/CMSIS/Core/Include/cmsis_gcc.h **** #ifndef   __UNALIGNED_UINT16_WRITE
  79:Drivers/CMSIS/Core/Include/cmsis_gcc.h ****   #pragma GCC diagnostic push
  80:Drivers/CMSIS/Core/Include/cmsis_gcc.h ****   #pragma GCC diagnostic ignored "-Wpacked"
  81:Drivers/CMSIS/Core/Include/cmsis_gcc.h ****   #pragma GCC diagnostic ignored "-Wattributes"
  82:Drivers/CMSIS/Core/Include/cmsis_gcc.h ****   __PACKED_STRUCT T_UINT16_WRITE { uint16_t v; };
  83:Drivers/CMSIS/Core/Include/cmsis_gcc.h ****   #pragma GCC diagnostic pop
  84:Drivers/CMSIS/Core/Include/cmsis_gcc.h ****   #define __UNALIGNED_UINT16_WRITE(addr, val)    (void)((((struct T_UINT16_WRITE *)(void *)(addr))-
  85:Drivers/CMSIS/Core/Include/cmsis_gcc.h **** #endif
  86:Drivers/CMSIS/Core/Include/cmsis_gcc.h **** #ifndef   __UNALIGNED_UINT16_READ
  87:Drivers/CMSIS/Core/Include/cmsis_gcc.h ****   #pragma GCC diagnostic push
  88:Drivers/CMSIS/Core/Include/cmsis_gcc.h ****   #pragma GCC diagnostic ignored "-Wpacked"
  89:Drivers/CMSIS/Core/Include/cmsis_gcc.h ****   #pragma GCC diagnostic ignored "-Wattributes"
  90:Drivers/CMSIS/Core/Include/cmsis_gcc.h ****   __PACKED_STRUCT T_UINT16_READ { uint16_t v; };
  91:Drivers/CMSIS/Core/Include/cmsis_gcc.h ****   #pragma GCC diagnostic pop
  92:Drivers/CMSIS/Core/Include/cmsis_gcc.h ****   #define __UNALIGNED_UINT16_READ(addr)          (((const struct T_UINT16_READ *)(const void *)(add
  93:Drivers/CMSIS/Core/Include/cmsis_gcc.h **** #endif
  94:Drivers/CMSIS/Core/Include/cmsis_gcc.h **** #ifndef   __UNALIGNED_UINT32_WRITE
  95:Drivers/CMSIS/Core/Include/cmsis_gcc.h ****   #pragma GCC diagnostic push
  96:Drivers/CMSIS/Core/Include/cmsis_gcc.h ****   #pragma GCC diagnostic ignored "-Wpacked"
  97:Drivers/CMSIS/Core/Include/cmsis_gcc.h ****   #pragma GCC diagnostic ignored "-Wattributes"
  98:Drivers/CMSIS/Core/Include/cmsis_gcc.h ****   __PACKED_STRUCT T_UINT32_WRITE { uint32_t v; };
  99:Drivers/CMSIS/Core/Include/cmsis_gcc.h ****   #pragma GCC diagnostic pop
 100:Drivers/CMSIS/Core/Include/cmsis_gcc.h ****   #define __UNALIGNED_UINT32_WRITE(addr, val)    (void)((((struct T_UINT32_WRITE *)(void *)(addr))-
 101:Drivers/CMSIS/Core/Include/cmsis_gcc.h **** #endif
 102:Drivers/CMSIS/Core/Include/cmsis_gcc.h **** #ifndef   __UNALIGNED_UINT32_READ
 103:Drivers/CMSIS/Core/Include/cmsis_gcc.h ****   #pragma GCC diagnostic push
 104:Drivers/CMSIS/Core/Include/cmsis_gcc.h ****   #pragma GCC diagnostic ignored "-Wpacked"
ARM GAS  /tmp/ccUr9KqT.s 			page 18


 105:Drivers/CMSIS/Core/Include/cmsis_gcc.h ****   #pragma GCC diagnostic ignored "-Wattributes"
 106:Drivers/CMSIS/Core/Include/cmsis_gcc.h ****   __PACKED_STRUCT T_UINT32_READ { uint32_t v; };
 107:Drivers/CMSIS/Core/Include/cmsis_gcc.h ****   #pragma GCC diagnostic pop
 108:Drivers/CMSIS/Core/Include/cmsis_gcc.h ****   #define __UNALIGNED_UINT32_READ(addr)          (((const struct T_UINT32_READ *)(const void *)(add
 109:Drivers/CMSIS/Core/Include/cmsis_gcc.h **** #endif
 110:Drivers/CMSIS/Core/Include/cmsis_gcc.h **** #ifndef   __ALIGNED
 111:Drivers/CMSIS/Core/Include/cmsis_gcc.h ****   #define __ALIGNED(x)                           __attribute__((aligned(x)))
 112:Drivers/CMSIS/Core/Include/cmsis_gcc.h **** #endif
 113:Drivers/CMSIS/Core/Include/cmsis_gcc.h **** #ifndef   __RESTRICT
 114:Drivers/CMSIS/Core/Include/cmsis_gcc.h ****   #define __RESTRICT                             __restrict
 115:Drivers/CMSIS/Core/Include/cmsis_gcc.h **** #endif
 116:Drivers/CMSIS/Core/Include/cmsis_gcc.h **** #ifndef   __COMPILER_BARRIER
 117:Drivers/CMSIS/Core/Include/cmsis_gcc.h ****   #define __COMPILER_BARRIER()                   __ASM volatile("":::"memory")
 118:Drivers/CMSIS/Core/Include/cmsis_gcc.h **** #endif
 119:Drivers/CMSIS/Core/Include/cmsis_gcc.h **** 
 120:Drivers/CMSIS/Core/Include/cmsis_gcc.h **** /* #########################  Startup and Lowlevel Init  ######################## */
 121:Drivers/CMSIS/Core/Include/cmsis_gcc.h **** 
 122:Drivers/CMSIS/Core/Include/cmsis_gcc.h **** #ifndef __PROGRAM_START
 123:Drivers/CMSIS/Core/Include/cmsis_gcc.h **** 
 124:Drivers/CMSIS/Core/Include/cmsis_gcc.h **** /**
 125:Drivers/CMSIS/Core/Include/cmsis_gcc.h ****   \brief   Initializes data and bss sections
 126:Drivers/CMSIS/Core/Include/cmsis_gcc.h ****   \details This default implementations initialized all data and additional bss
 127:Drivers/CMSIS/Core/Include/cmsis_gcc.h ****            sections relying on .copy.table and .zero.table specified properly
 128:Drivers/CMSIS/Core/Include/cmsis_gcc.h ****            in the used linker script.
 129:Drivers/CMSIS/Core/Include/cmsis_gcc.h ****   
 130:Drivers/CMSIS/Core/Include/cmsis_gcc.h ****  */
 131:Drivers/CMSIS/Core/Include/cmsis_gcc.h **** __STATIC_FORCEINLINE __NO_RETURN void __cmsis_start(void)
 132:Drivers/CMSIS/Core/Include/cmsis_gcc.h **** {
 133:Drivers/CMSIS/Core/Include/cmsis_gcc.h ****   extern void _start(void) __NO_RETURN;
 134:Drivers/CMSIS/Core/Include/cmsis_gcc.h ****   
 135:Drivers/CMSIS/Core/Include/cmsis_gcc.h ****   typedef struct {
 136:Drivers/CMSIS/Core/Include/cmsis_gcc.h ****     uint32_t const* src;
 137:Drivers/CMSIS/Core/Include/cmsis_gcc.h ****     uint32_t* dest;
 138:Drivers/CMSIS/Core/Include/cmsis_gcc.h ****     uint32_t  wlen;
 139:Drivers/CMSIS/Core/Include/cmsis_gcc.h ****   } __copy_table_t;
 140:Drivers/CMSIS/Core/Include/cmsis_gcc.h ****   
 141:Drivers/CMSIS/Core/Include/cmsis_gcc.h ****   typedef struct {
 142:Drivers/CMSIS/Core/Include/cmsis_gcc.h ****     uint32_t* dest;
 143:Drivers/CMSIS/Core/Include/cmsis_gcc.h ****     uint32_t  wlen;
 144:Drivers/CMSIS/Core/Include/cmsis_gcc.h ****   } __zero_table_t;
 145:Drivers/CMSIS/Core/Include/cmsis_gcc.h ****   
 146:Drivers/CMSIS/Core/Include/cmsis_gcc.h ****   extern const __copy_table_t __copy_table_start__;
 147:Drivers/CMSIS/Core/Include/cmsis_gcc.h ****   extern const __copy_table_t __copy_table_end__;
 148:Drivers/CMSIS/Core/Include/cmsis_gcc.h ****   extern const __zero_table_t __zero_table_start__;
 149:Drivers/CMSIS/Core/Include/cmsis_gcc.h ****   extern const __zero_table_t __zero_table_end__;
 150:Drivers/CMSIS/Core/Include/cmsis_gcc.h **** 
 151:Drivers/CMSIS/Core/Include/cmsis_gcc.h ****   for (__copy_table_t const* pTable = &__copy_table_start__; pTable < &__copy_table_end__; ++pTable
 152:Drivers/CMSIS/Core/Include/cmsis_gcc.h ****     for(uint32_t i=0u; i<pTable->wlen; ++i) {
 153:Drivers/CMSIS/Core/Include/cmsis_gcc.h ****       pTable->dest[i] = pTable->src[i];
 154:Drivers/CMSIS/Core/Include/cmsis_gcc.h ****     }
 155:Drivers/CMSIS/Core/Include/cmsis_gcc.h ****   }
 156:Drivers/CMSIS/Core/Include/cmsis_gcc.h ****  
 157:Drivers/CMSIS/Core/Include/cmsis_gcc.h ****   for (__zero_table_t const* pTable = &__zero_table_start__; pTable < &__zero_table_end__; ++pTable
 158:Drivers/CMSIS/Core/Include/cmsis_gcc.h ****     for(uint32_t i=0u; i<pTable->wlen; ++i) {
 159:Drivers/CMSIS/Core/Include/cmsis_gcc.h ****       pTable->dest[i] = 0u;
 160:Drivers/CMSIS/Core/Include/cmsis_gcc.h ****     }
 161:Drivers/CMSIS/Core/Include/cmsis_gcc.h ****   }
ARM GAS  /tmp/ccUr9KqT.s 			page 19


 162:Drivers/CMSIS/Core/Include/cmsis_gcc.h ****  
 163:Drivers/CMSIS/Core/Include/cmsis_gcc.h ****   _start();
 164:Drivers/CMSIS/Core/Include/cmsis_gcc.h **** }
 165:Drivers/CMSIS/Core/Include/cmsis_gcc.h ****   
 166:Drivers/CMSIS/Core/Include/cmsis_gcc.h **** #define __PROGRAM_START           __cmsis_start
 167:Drivers/CMSIS/Core/Include/cmsis_gcc.h **** #endif
 168:Drivers/CMSIS/Core/Include/cmsis_gcc.h **** 
 169:Drivers/CMSIS/Core/Include/cmsis_gcc.h **** #ifndef __INITIAL_SP
 170:Drivers/CMSIS/Core/Include/cmsis_gcc.h **** #define __INITIAL_SP              __StackTop
 171:Drivers/CMSIS/Core/Include/cmsis_gcc.h **** #endif
 172:Drivers/CMSIS/Core/Include/cmsis_gcc.h **** 
 173:Drivers/CMSIS/Core/Include/cmsis_gcc.h **** #ifndef __STACK_LIMIT
 174:Drivers/CMSIS/Core/Include/cmsis_gcc.h **** #define __STACK_LIMIT             __StackLimit
 175:Drivers/CMSIS/Core/Include/cmsis_gcc.h **** #endif
 176:Drivers/CMSIS/Core/Include/cmsis_gcc.h **** 
 177:Drivers/CMSIS/Core/Include/cmsis_gcc.h **** #ifndef __VECTOR_TABLE
 178:Drivers/CMSIS/Core/Include/cmsis_gcc.h **** #define __VECTOR_TABLE            __Vectors
 179:Drivers/CMSIS/Core/Include/cmsis_gcc.h **** #endif
 180:Drivers/CMSIS/Core/Include/cmsis_gcc.h **** 
 181:Drivers/CMSIS/Core/Include/cmsis_gcc.h **** #ifndef __VECTOR_TABLE_ATTRIBUTE
 182:Drivers/CMSIS/Core/Include/cmsis_gcc.h **** #define __VECTOR_TABLE_ATTRIBUTE  __attribute((used, section(".vectors")))
 183:Drivers/CMSIS/Core/Include/cmsis_gcc.h **** #endif
 184:Drivers/CMSIS/Core/Include/cmsis_gcc.h **** 
 185:Drivers/CMSIS/Core/Include/cmsis_gcc.h **** /* ###########################  Core Function Access  ########################### */
 186:Drivers/CMSIS/Core/Include/cmsis_gcc.h **** /** \ingroup  CMSIS_Core_FunctionInterface
 187:Drivers/CMSIS/Core/Include/cmsis_gcc.h ****     \defgroup CMSIS_Core_RegAccFunctions CMSIS Core Register Access Functions
 188:Drivers/CMSIS/Core/Include/cmsis_gcc.h ****   @{
 189:Drivers/CMSIS/Core/Include/cmsis_gcc.h ****  */
 190:Drivers/CMSIS/Core/Include/cmsis_gcc.h **** 
 191:Drivers/CMSIS/Core/Include/cmsis_gcc.h **** /**
 192:Drivers/CMSIS/Core/Include/cmsis_gcc.h ****   \brief   Enable IRQ Interrupts
 193:Drivers/CMSIS/Core/Include/cmsis_gcc.h ****   \details Enables IRQ interrupts by clearing the I-bit in the CPSR.
 194:Drivers/CMSIS/Core/Include/cmsis_gcc.h ****            Can only be executed in Privileged modes.
 195:Drivers/CMSIS/Core/Include/cmsis_gcc.h ****  */
 196:Drivers/CMSIS/Core/Include/cmsis_gcc.h **** __STATIC_FORCEINLINE void __enable_irq(void)
 197:Drivers/CMSIS/Core/Include/cmsis_gcc.h **** {
 198:Drivers/CMSIS/Core/Include/cmsis_gcc.h ****   __ASM volatile ("cpsie i" : : : "memory");
 199:Drivers/CMSIS/Core/Include/cmsis_gcc.h **** }
 200:Drivers/CMSIS/Core/Include/cmsis_gcc.h **** 
 201:Drivers/CMSIS/Core/Include/cmsis_gcc.h **** 
 202:Drivers/CMSIS/Core/Include/cmsis_gcc.h **** /**
 203:Drivers/CMSIS/Core/Include/cmsis_gcc.h ****   \brief   Disable IRQ Interrupts
 204:Drivers/CMSIS/Core/Include/cmsis_gcc.h ****   \details Disables IRQ interrupts by setting the I-bit in the CPSR.
 205:Drivers/CMSIS/Core/Include/cmsis_gcc.h ****            Can only be executed in Privileged modes.
 206:Drivers/CMSIS/Core/Include/cmsis_gcc.h ****  */
 207:Drivers/CMSIS/Core/Include/cmsis_gcc.h **** __STATIC_FORCEINLINE void __disable_irq(void)
 208:Drivers/CMSIS/Core/Include/cmsis_gcc.h **** {
 209:Drivers/CMSIS/Core/Include/cmsis_gcc.h ****   __ASM volatile ("cpsid i" : : : "memory");
 210:Drivers/CMSIS/Core/Include/cmsis_gcc.h **** }
 211:Drivers/CMSIS/Core/Include/cmsis_gcc.h **** 
 212:Drivers/CMSIS/Core/Include/cmsis_gcc.h **** 
 213:Drivers/CMSIS/Core/Include/cmsis_gcc.h **** /**
 214:Drivers/CMSIS/Core/Include/cmsis_gcc.h ****   \brief   Get Control Register
 215:Drivers/CMSIS/Core/Include/cmsis_gcc.h ****   \details Returns the content of the Control Register.
 216:Drivers/CMSIS/Core/Include/cmsis_gcc.h ****   \return               Control Register value
 217:Drivers/CMSIS/Core/Include/cmsis_gcc.h ****  */
 218:Drivers/CMSIS/Core/Include/cmsis_gcc.h **** __STATIC_FORCEINLINE uint32_t __get_CONTROL(void)
ARM GAS  /tmp/ccUr9KqT.s 			page 20


 219:Drivers/CMSIS/Core/Include/cmsis_gcc.h **** {
 220:Drivers/CMSIS/Core/Include/cmsis_gcc.h ****   uint32_t result;
 221:Drivers/CMSIS/Core/Include/cmsis_gcc.h **** 
 222:Drivers/CMSIS/Core/Include/cmsis_gcc.h ****   __ASM volatile ("MRS %0, control" : "=r" (result) );
 223:Drivers/CMSIS/Core/Include/cmsis_gcc.h ****   return(result);
 224:Drivers/CMSIS/Core/Include/cmsis_gcc.h **** }
 225:Drivers/CMSIS/Core/Include/cmsis_gcc.h **** 
 226:Drivers/CMSIS/Core/Include/cmsis_gcc.h **** 
 227:Drivers/CMSIS/Core/Include/cmsis_gcc.h **** #if (defined (__ARM_FEATURE_CMSE ) && (__ARM_FEATURE_CMSE == 3))
 228:Drivers/CMSIS/Core/Include/cmsis_gcc.h **** /**
 229:Drivers/CMSIS/Core/Include/cmsis_gcc.h ****   \brief   Get Control Register (non-secure)
 230:Drivers/CMSIS/Core/Include/cmsis_gcc.h ****   \details Returns the content of the non-secure Control Register when in secure mode.
 231:Drivers/CMSIS/Core/Include/cmsis_gcc.h ****   \return               non-secure Control Register value
 232:Drivers/CMSIS/Core/Include/cmsis_gcc.h ****  */
 233:Drivers/CMSIS/Core/Include/cmsis_gcc.h **** __STATIC_FORCEINLINE uint32_t __TZ_get_CONTROL_NS(void)
 234:Drivers/CMSIS/Core/Include/cmsis_gcc.h **** {
 235:Drivers/CMSIS/Core/Include/cmsis_gcc.h ****   uint32_t result;
 236:Drivers/CMSIS/Core/Include/cmsis_gcc.h **** 
 237:Drivers/CMSIS/Core/Include/cmsis_gcc.h ****   __ASM volatile ("MRS %0, control_ns" : "=r" (result) );
 238:Drivers/CMSIS/Core/Include/cmsis_gcc.h ****   return(result);
 239:Drivers/CMSIS/Core/Include/cmsis_gcc.h **** }
 240:Drivers/CMSIS/Core/Include/cmsis_gcc.h **** #endif
 241:Drivers/CMSIS/Core/Include/cmsis_gcc.h **** 
 242:Drivers/CMSIS/Core/Include/cmsis_gcc.h **** 
 243:Drivers/CMSIS/Core/Include/cmsis_gcc.h **** /**
 244:Drivers/CMSIS/Core/Include/cmsis_gcc.h ****   \brief   Set Control Register
 245:Drivers/CMSIS/Core/Include/cmsis_gcc.h ****   \details Writes the given value to the Control Register.
 246:Drivers/CMSIS/Core/Include/cmsis_gcc.h ****   \param [in]    control  Control Register value to set
 247:Drivers/CMSIS/Core/Include/cmsis_gcc.h ****  */
 248:Drivers/CMSIS/Core/Include/cmsis_gcc.h **** __STATIC_FORCEINLINE void __set_CONTROL(uint32_t control)
 249:Drivers/CMSIS/Core/Include/cmsis_gcc.h **** {
 250:Drivers/CMSIS/Core/Include/cmsis_gcc.h ****   __ASM volatile ("MSR control, %0" : : "r" (control) : "memory");
 251:Drivers/CMSIS/Core/Include/cmsis_gcc.h **** }
 252:Drivers/CMSIS/Core/Include/cmsis_gcc.h **** 
 253:Drivers/CMSIS/Core/Include/cmsis_gcc.h **** 
 254:Drivers/CMSIS/Core/Include/cmsis_gcc.h **** #if (defined (__ARM_FEATURE_CMSE ) && (__ARM_FEATURE_CMSE == 3))
 255:Drivers/CMSIS/Core/Include/cmsis_gcc.h **** /**
 256:Drivers/CMSIS/Core/Include/cmsis_gcc.h ****   \brief   Set Control Register (non-secure)
 257:Drivers/CMSIS/Core/Include/cmsis_gcc.h ****   \details Writes the given value to the non-secure Control Register when in secure state.
 258:Drivers/CMSIS/Core/Include/cmsis_gcc.h ****   \param [in]    control  Control Register value to set
 259:Drivers/CMSIS/Core/Include/cmsis_gcc.h ****  */
 260:Drivers/CMSIS/Core/Include/cmsis_gcc.h **** __STATIC_FORCEINLINE void __TZ_set_CONTROL_NS(uint32_t control)
 261:Drivers/CMSIS/Core/Include/cmsis_gcc.h **** {
 262:Drivers/CMSIS/Core/Include/cmsis_gcc.h ****   __ASM volatile ("MSR control_ns, %0" : : "r" (control) : "memory");
 263:Drivers/CMSIS/Core/Include/cmsis_gcc.h **** }
 264:Drivers/CMSIS/Core/Include/cmsis_gcc.h **** #endif
 265:Drivers/CMSIS/Core/Include/cmsis_gcc.h **** 
 266:Drivers/CMSIS/Core/Include/cmsis_gcc.h **** 
 267:Drivers/CMSIS/Core/Include/cmsis_gcc.h **** /**
 268:Drivers/CMSIS/Core/Include/cmsis_gcc.h ****   \brief   Get IPSR Register
 269:Drivers/CMSIS/Core/Include/cmsis_gcc.h ****   \details Returns the content of the IPSR Register.
 270:Drivers/CMSIS/Core/Include/cmsis_gcc.h ****   \return               IPSR Register value
 271:Drivers/CMSIS/Core/Include/cmsis_gcc.h ****  */
 272:Drivers/CMSIS/Core/Include/cmsis_gcc.h **** __STATIC_FORCEINLINE uint32_t __get_IPSR(void)
 273:Drivers/CMSIS/Core/Include/cmsis_gcc.h **** {
 274:Drivers/CMSIS/Core/Include/cmsis_gcc.h ****   uint32_t result;
 275:Drivers/CMSIS/Core/Include/cmsis_gcc.h **** 
ARM GAS  /tmp/ccUr9KqT.s 			page 21


 276:Drivers/CMSIS/Core/Include/cmsis_gcc.h ****   __ASM volatile ("MRS %0, ipsr" : "=r" (result) );
 277:Drivers/CMSIS/Core/Include/cmsis_gcc.h ****   return(result);
 278:Drivers/CMSIS/Core/Include/cmsis_gcc.h **** }
 279:Drivers/CMSIS/Core/Include/cmsis_gcc.h **** 
 280:Drivers/CMSIS/Core/Include/cmsis_gcc.h **** 
 281:Drivers/CMSIS/Core/Include/cmsis_gcc.h **** /**
 282:Drivers/CMSIS/Core/Include/cmsis_gcc.h ****   \brief   Get APSR Register
 283:Drivers/CMSIS/Core/Include/cmsis_gcc.h ****   \details Returns the content of the APSR Register.
 284:Drivers/CMSIS/Core/Include/cmsis_gcc.h ****   \return               APSR Register value
 285:Drivers/CMSIS/Core/Include/cmsis_gcc.h ****  */
 286:Drivers/CMSIS/Core/Include/cmsis_gcc.h **** __STATIC_FORCEINLINE uint32_t __get_APSR(void)
 287:Drivers/CMSIS/Core/Include/cmsis_gcc.h **** {
 288:Drivers/CMSIS/Core/Include/cmsis_gcc.h ****   uint32_t result;
 289:Drivers/CMSIS/Core/Include/cmsis_gcc.h **** 
 290:Drivers/CMSIS/Core/Include/cmsis_gcc.h ****   __ASM volatile ("MRS %0, apsr" : "=r" (result) );
 291:Drivers/CMSIS/Core/Include/cmsis_gcc.h ****   return(result);
 292:Drivers/CMSIS/Core/Include/cmsis_gcc.h **** }
 293:Drivers/CMSIS/Core/Include/cmsis_gcc.h **** 
 294:Drivers/CMSIS/Core/Include/cmsis_gcc.h **** 
 295:Drivers/CMSIS/Core/Include/cmsis_gcc.h **** /**
 296:Drivers/CMSIS/Core/Include/cmsis_gcc.h ****   \brief   Get xPSR Register
 297:Drivers/CMSIS/Core/Include/cmsis_gcc.h ****   \details Returns the content of the xPSR Register.
 298:Drivers/CMSIS/Core/Include/cmsis_gcc.h ****   \return               xPSR Register value
 299:Drivers/CMSIS/Core/Include/cmsis_gcc.h ****  */
 300:Drivers/CMSIS/Core/Include/cmsis_gcc.h **** __STATIC_FORCEINLINE uint32_t __get_xPSR(void)
 301:Drivers/CMSIS/Core/Include/cmsis_gcc.h **** {
 302:Drivers/CMSIS/Core/Include/cmsis_gcc.h ****   uint32_t result;
 303:Drivers/CMSIS/Core/Include/cmsis_gcc.h **** 
 304:Drivers/CMSIS/Core/Include/cmsis_gcc.h ****   __ASM volatile ("MRS %0, xpsr" : "=r" (result) );
 305:Drivers/CMSIS/Core/Include/cmsis_gcc.h ****   return(result);
 306:Drivers/CMSIS/Core/Include/cmsis_gcc.h **** }
 307:Drivers/CMSIS/Core/Include/cmsis_gcc.h **** 
 308:Drivers/CMSIS/Core/Include/cmsis_gcc.h **** 
 309:Drivers/CMSIS/Core/Include/cmsis_gcc.h **** /**
 310:Drivers/CMSIS/Core/Include/cmsis_gcc.h ****   \brief   Get Process Stack Pointer
 311:Drivers/CMSIS/Core/Include/cmsis_gcc.h ****   \details Returns the current value of the Process Stack Pointer (PSP).
 312:Drivers/CMSIS/Core/Include/cmsis_gcc.h ****   \return               PSP Register value
 313:Drivers/CMSIS/Core/Include/cmsis_gcc.h ****  */
 314:Drivers/CMSIS/Core/Include/cmsis_gcc.h **** __STATIC_FORCEINLINE uint32_t __get_PSP(void)
 315:Drivers/CMSIS/Core/Include/cmsis_gcc.h **** {
 316:Drivers/CMSIS/Core/Include/cmsis_gcc.h ****   uint32_t result;
 317:Drivers/CMSIS/Core/Include/cmsis_gcc.h **** 
 318:Drivers/CMSIS/Core/Include/cmsis_gcc.h ****   __ASM volatile ("MRS %0, psp"  : "=r" (result) );
 319:Drivers/CMSIS/Core/Include/cmsis_gcc.h ****   return(result);
 320:Drivers/CMSIS/Core/Include/cmsis_gcc.h **** }
 321:Drivers/CMSIS/Core/Include/cmsis_gcc.h **** 
 322:Drivers/CMSIS/Core/Include/cmsis_gcc.h **** 
 323:Drivers/CMSIS/Core/Include/cmsis_gcc.h **** #if (defined (__ARM_FEATURE_CMSE ) && (__ARM_FEATURE_CMSE == 3))
 324:Drivers/CMSIS/Core/Include/cmsis_gcc.h **** /**
 325:Drivers/CMSIS/Core/Include/cmsis_gcc.h ****   \brief   Get Process Stack Pointer (non-secure)
 326:Drivers/CMSIS/Core/Include/cmsis_gcc.h ****   \details Returns the current value of the non-secure Process Stack Pointer (PSP) when in secure s
 327:Drivers/CMSIS/Core/Include/cmsis_gcc.h ****   \return               PSP Register value
 328:Drivers/CMSIS/Core/Include/cmsis_gcc.h ****  */
 329:Drivers/CMSIS/Core/Include/cmsis_gcc.h **** __STATIC_FORCEINLINE uint32_t __TZ_get_PSP_NS(void)
 330:Drivers/CMSIS/Core/Include/cmsis_gcc.h **** {
 331:Drivers/CMSIS/Core/Include/cmsis_gcc.h ****   uint32_t result;
 332:Drivers/CMSIS/Core/Include/cmsis_gcc.h **** 
ARM GAS  /tmp/ccUr9KqT.s 			page 22


 333:Drivers/CMSIS/Core/Include/cmsis_gcc.h ****   __ASM volatile ("MRS %0, psp_ns"  : "=r" (result) );
 334:Drivers/CMSIS/Core/Include/cmsis_gcc.h ****   return(result);
 335:Drivers/CMSIS/Core/Include/cmsis_gcc.h **** }
 336:Drivers/CMSIS/Core/Include/cmsis_gcc.h **** #endif
 337:Drivers/CMSIS/Core/Include/cmsis_gcc.h **** 
 338:Drivers/CMSIS/Core/Include/cmsis_gcc.h **** 
 339:Drivers/CMSIS/Core/Include/cmsis_gcc.h **** /**
 340:Drivers/CMSIS/Core/Include/cmsis_gcc.h ****   \brief   Set Process Stack Pointer
 341:Drivers/CMSIS/Core/Include/cmsis_gcc.h ****   \details Assigns the given value to the Process Stack Pointer (PSP).
 342:Drivers/CMSIS/Core/Include/cmsis_gcc.h ****   \param [in]    topOfProcStack  Process Stack Pointer value to set
 343:Drivers/CMSIS/Core/Include/cmsis_gcc.h ****  */
 344:Drivers/CMSIS/Core/Include/cmsis_gcc.h **** __STATIC_FORCEINLINE void __set_PSP(uint32_t topOfProcStack)
 345:Drivers/CMSIS/Core/Include/cmsis_gcc.h **** {
 346:Drivers/CMSIS/Core/Include/cmsis_gcc.h ****   __ASM volatile ("MSR psp, %0" : : "r" (topOfProcStack) : );
 347:Drivers/CMSIS/Core/Include/cmsis_gcc.h **** }
 348:Drivers/CMSIS/Core/Include/cmsis_gcc.h **** 
 349:Drivers/CMSIS/Core/Include/cmsis_gcc.h **** 
 350:Drivers/CMSIS/Core/Include/cmsis_gcc.h **** #if (defined (__ARM_FEATURE_CMSE ) && (__ARM_FEATURE_CMSE == 3))
 351:Drivers/CMSIS/Core/Include/cmsis_gcc.h **** /**
 352:Drivers/CMSIS/Core/Include/cmsis_gcc.h ****   \brief   Set Process Stack Pointer (non-secure)
 353:Drivers/CMSIS/Core/Include/cmsis_gcc.h ****   \details Assigns the given value to the non-secure Process Stack Pointer (PSP) when in secure sta
 354:Drivers/CMSIS/Core/Include/cmsis_gcc.h ****   \param [in]    topOfProcStack  Process Stack Pointer value to set
 355:Drivers/CMSIS/Core/Include/cmsis_gcc.h ****  */
 356:Drivers/CMSIS/Core/Include/cmsis_gcc.h **** __STATIC_FORCEINLINE void __TZ_set_PSP_NS(uint32_t topOfProcStack)
 357:Drivers/CMSIS/Core/Include/cmsis_gcc.h **** {
 358:Drivers/CMSIS/Core/Include/cmsis_gcc.h ****   __ASM volatile ("MSR psp_ns, %0" : : "r" (topOfProcStack) : );
 359:Drivers/CMSIS/Core/Include/cmsis_gcc.h **** }
 360:Drivers/CMSIS/Core/Include/cmsis_gcc.h **** #endif
 361:Drivers/CMSIS/Core/Include/cmsis_gcc.h **** 
 362:Drivers/CMSIS/Core/Include/cmsis_gcc.h **** 
 363:Drivers/CMSIS/Core/Include/cmsis_gcc.h **** /**
 364:Drivers/CMSIS/Core/Include/cmsis_gcc.h ****   \brief   Get Main Stack Pointer
 365:Drivers/CMSIS/Core/Include/cmsis_gcc.h ****   \details Returns the current value of the Main Stack Pointer (MSP).
 366:Drivers/CMSIS/Core/Include/cmsis_gcc.h ****   \return               MSP Register value
 367:Drivers/CMSIS/Core/Include/cmsis_gcc.h ****  */
 368:Drivers/CMSIS/Core/Include/cmsis_gcc.h **** __STATIC_FORCEINLINE uint32_t __get_MSP(void)
 369:Drivers/CMSIS/Core/Include/cmsis_gcc.h **** {
 370:Drivers/CMSIS/Core/Include/cmsis_gcc.h ****   uint32_t result;
 371:Drivers/CMSIS/Core/Include/cmsis_gcc.h **** 
 372:Drivers/CMSIS/Core/Include/cmsis_gcc.h ****   __ASM volatile ("MRS %0, msp" : "=r" (result) );
 373:Drivers/CMSIS/Core/Include/cmsis_gcc.h ****   return(result);
 374:Drivers/CMSIS/Core/Include/cmsis_gcc.h **** }
 375:Drivers/CMSIS/Core/Include/cmsis_gcc.h **** 
 376:Drivers/CMSIS/Core/Include/cmsis_gcc.h **** 
 377:Drivers/CMSIS/Core/Include/cmsis_gcc.h **** #if (defined (__ARM_FEATURE_CMSE ) && (__ARM_FEATURE_CMSE == 3))
 378:Drivers/CMSIS/Core/Include/cmsis_gcc.h **** /**
 379:Drivers/CMSIS/Core/Include/cmsis_gcc.h ****   \brief   Get Main Stack Pointer (non-secure)
 380:Drivers/CMSIS/Core/Include/cmsis_gcc.h ****   \details Returns the current value of the non-secure Main Stack Pointer (MSP) when in secure stat
 381:Drivers/CMSIS/Core/Include/cmsis_gcc.h ****   \return               MSP Register value
 382:Drivers/CMSIS/Core/Include/cmsis_gcc.h ****  */
 383:Drivers/CMSIS/Core/Include/cmsis_gcc.h **** __STATIC_FORCEINLINE uint32_t __TZ_get_MSP_NS(void)
 384:Drivers/CMSIS/Core/Include/cmsis_gcc.h **** {
 385:Drivers/CMSIS/Core/Include/cmsis_gcc.h ****   uint32_t result;
 386:Drivers/CMSIS/Core/Include/cmsis_gcc.h **** 
 387:Drivers/CMSIS/Core/Include/cmsis_gcc.h ****   __ASM volatile ("MRS %0, msp_ns" : "=r" (result) );
 388:Drivers/CMSIS/Core/Include/cmsis_gcc.h ****   return(result);
 389:Drivers/CMSIS/Core/Include/cmsis_gcc.h **** }
ARM GAS  /tmp/ccUr9KqT.s 			page 23


 390:Drivers/CMSIS/Core/Include/cmsis_gcc.h **** #endif
 391:Drivers/CMSIS/Core/Include/cmsis_gcc.h **** 
 392:Drivers/CMSIS/Core/Include/cmsis_gcc.h **** 
 393:Drivers/CMSIS/Core/Include/cmsis_gcc.h **** /**
 394:Drivers/CMSIS/Core/Include/cmsis_gcc.h ****   \brief   Set Main Stack Pointer
 395:Drivers/CMSIS/Core/Include/cmsis_gcc.h ****   \details Assigns the given value to the Main Stack Pointer (MSP).
 396:Drivers/CMSIS/Core/Include/cmsis_gcc.h ****   \param [in]    topOfMainStack  Main Stack Pointer value to set
 397:Drivers/CMSIS/Core/Include/cmsis_gcc.h ****  */
 398:Drivers/CMSIS/Core/Include/cmsis_gcc.h **** __STATIC_FORCEINLINE void __set_MSP(uint32_t topOfMainStack)
 399:Drivers/CMSIS/Core/Include/cmsis_gcc.h **** {
 400:Drivers/CMSIS/Core/Include/cmsis_gcc.h ****   __ASM volatile ("MSR msp, %0" : : "r" (topOfMainStack) : );
 401:Drivers/CMSIS/Core/Include/cmsis_gcc.h **** }
 402:Drivers/CMSIS/Core/Include/cmsis_gcc.h **** 
 403:Drivers/CMSIS/Core/Include/cmsis_gcc.h **** 
 404:Drivers/CMSIS/Core/Include/cmsis_gcc.h **** #if (defined (__ARM_FEATURE_CMSE ) && (__ARM_FEATURE_CMSE == 3))
 405:Drivers/CMSIS/Core/Include/cmsis_gcc.h **** /**
 406:Drivers/CMSIS/Core/Include/cmsis_gcc.h ****   \brief   Set Main Stack Pointer (non-secure)
 407:Drivers/CMSIS/Core/Include/cmsis_gcc.h ****   \details Assigns the given value to the non-secure Main Stack Pointer (MSP) when in secure state.
 408:Drivers/CMSIS/Core/Include/cmsis_gcc.h ****   \param [in]    topOfMainStack  Main Stack Pointer value to set
 409:Drivers/CMSIS/Core/Include/cmsis_gcc.h ****  */
 410:Drivers/CMSIS/Core/Include/cmsis_gcc.h **** __STATIC_FORCEINLINE void __TZ_set_MSP_NS(uint32_t topOfMainStack)
 411:Drivers/CMSIS/Core/Include/cmsis_gcc.h **** {
 412:Drivers/CMSIS/Core/Include/cmsis_gcc.h ****   __ASM volatile ("MSR msp_ns, %0" : : "r" (topOfMainStack) : );
 413:Drivers/CMSIS/Core/Include/cmsis_gcc.h **** }
 414:Drivers/CMSIS/Core/Include/cmsis_gcc.h **** #endif
 415:Drivers/CMSIS/Core/Include/cmsis_gcc.h **** 
 416:Drivers/CMSIS/Core/Include/cmsis_gcc.h **** 
 417:Drivers/CMSIS/Core/Include/cmsis_gcc.h **** #if (defined (__ARM_FEATURE_CMSE ) && (__ARM_FEATURE_CMSE == 3))
 418:Drivers/CMSIS/Core/Include/cmsis_gcc.h **** /**
 419:Drivers/CMSIS/Core/Include/cmsis_gcc.h ****   \brief   Get Stack Pointer (non-secure)
 420:Drivers/CMSIS/Core/Include/cmsis_gcc.h ****   \details Returns the current value of the non-secure Stack Pointer (SP) when in secure state.
 421:Drivers/CMSIS/Core/Include/cmsis_gcc.h ****   \return               SP Register value
 422:Drivers/CMSIS/Core/Include/cmsis_gcc.h ****  */
 423:Drivers/CMSIS/Core/Include/cmsis_gcc.h **** __STATIC_FORCEINLINE uint32_t __TZ_get_SP_NS(void)
 424:Drivers/CMSIS/Core/Include/cmsis_gcc.h **** {
 425:Drivers/CMSIS/Core/Include/cmsis_gcc.h ****   uint32_t result;
 426:Drivers/CMSIS/Core/Include/cmsis_gcc.h **** 
 427:Drivers/CMSIS/Core/Include/cmsis_gcc.h ****   __ASM volatile ("MRS %0, sp_ns" : "=r" (result) );
 428:Drivers/CMSIS/Core/Include/cmsis_gcc.h ****   return(result);
 429:Drivers/CMSIS/Core/Include/cmsis_gcc.h **** }
 430:Drivers/CMSIS/Core/Include/cmsis_gcc.h **** 
 431:Drivers/CMSIS/Core/Include/cmsis_gcc.h **** 
 432:Drivers/CMSIS/Core/Include/cmsis_gcc.h **** /**
 433:Drivers/CMSIS/Core/Include/cmsis_gcc.h ****   \brief   Set Stack Pointer (non-secure)
 434:Drivers/CMSIS/Core/Include/cmsis_gcc.h ****   \details Assigns the given value to the non-secure Stack Pointer (SP) when in secure state.
 435:Drivers/CMSIS/Core/Include/cmsis_gcc.h ****   \param [in]    topOfStack  Stack Pointer value to set
 436:Drivers/CMSIS/Core/Include/cmsis_gcc.h ****  */
 437:Drivers/CMSIS/Core/Include/cmsis_gcc.h **** __STATIC_FORCEINLINE void __TZ_set_SP_NS(uint32_t topOfStack)
 438:Drivers/CMSIS/Core/Include/cmsis_gcc.h **** {
 439:Drivers/CMSIS/Core/Include/cmsis_gcc.h ****   __ASM volatile ("MSR sp_ns, %0" : : "r" (topOfStack) : );
 440:Drivers/CMSIS/Core/Include/cmsis_gcc.h **** }
 441:Drivers/CMSIS/Core/Include/cmsis_gcc.h **** #endif
 442:Drivers/CMSIS/Core/Include/cmsis_gcc.h **** 
 443:Drivers/CMSIS/Core/Include/cmsis_gcc.h **** 
 444:Drivers/CMSIS/Core/Include/cmsis_gcc.h **** /**
 445:Drivers/CMSIS/Core/Include/cmsis_gcc.h ****   \brief   Get Priority Mask
 446:Drivers/CMSIS/Core/Include/cmsis_gcc.h ****   \details Returns the current state of the priority mask bit from the Priority Mask Register.
ARM GAS  /tmp/ccUr9KqT.s 			page 24


 447:Drivers/CMSIS/Core/Include/cmsis_gcc.h ****   \return               Priority Mask value
 448:Drivers/CMSIS/Core/Include/cmsis_gcc.h ****  */
 449:Drivers/CMSIS/Core/Include/cmsis_gcc.h **** __STATIC_FORCEINLINE uint32_t __get_PRIMASK(void)
 450:Drivers/CMSIS/Core/Include/cmsis_gcc.h **** {
 451:Drivers/CMSIS/Core/Include/cmsis_gcc.h ****   uint32_t result;
 452:Drivers/CMSIS/Core/Include/cmsis_gcc.h **** 
 453:Drivers/CMSIS/Core/Include/cmsis_gcc.h ****   __ASM volatile ("MRS %0, primask" : "=r" (result) :: "memory");
 454:Drivers/CMSIS/Core/Include/cmsis_gcc.h ****   return(result);
 455:Drivers/CMSIS/Core/Include/cmsis_gcc.h **** }
 456:Drivers/CMSIS/Core/Include/cmsis_gcc.h **** 
 457:Drivers/CMSIS/Core/Include/cmsis_gcc.h **** 
 458:Drivers/CMSIS/Core/Include/cmsis_gcc.h **** #if (defined (__ARM_FEATURE_CMSE ) && (__ARM_FEATURE_CMSE == 3))
 459:Drivers/CMSIS/Core/Include/cmsis_gcc.h **** /**
 460:Drivers/CMSIS/Core/Include/cmsis_gcc.h ****   \brief   Get Priority Mask (non-secure)
 461:Drivers/CMSIS/Core/Include/cmsis_gcc.h ****   \details Returns the current state of the non-secure priority mask bit from the Priority Mask Reg
 462:Drivers/CMSIS/Core/Include/cmsis_gcc.h ****   \return               Priority Mask value
 463:Drivers/CMSIS/Core/Include/cmsis_gcc.h ****  */
 464:Drivers/CMSIS/Core/Include/cmsis_gcc.h **** __STATIC_FORCEINLINE uint32_t __TZ_get_PRIMASK_NS(void)
 465:Drivers/CMSIS/Core/Include/cmsis_gcc.h **** {
 466:Drivers/CMSIS/Core/Include/cmsis_gcc.h ****   uint32_t result;
 467:Drivers/CMSIS/Core/Include/cmsis_gcc.h **** 
 468:Drivers/CMSIS/Core/Include/cmsis_gcc.h ****   __ASM volatile ("MRS %0, primask_ns" : "=r" (result) :: "memory");
 469:Drivers/CMSIS/Core/Include/cmsis_gcc.h ****   return(result);
 470:Drivers/CMSIS/Core/Include/cmsis_gcc.h **** }
 471:Drivers/CMSIS/Core/Include/cmsis_gcc.h **** #endif
 472:Drivers/CMSIS/Core/Include/cmsis_gcc.h **** 
 473:Drivers/CMSIS/Core/Include/cmsis_gcc.h **** 
 474:Drivers/CMSIS/Core/Include/cmsis_gcc.h **** /**
 475:Drivers/CMSIS/Core/Include/cmsis_gcc.h ****   \brief   Set Priority Mask
 476:Drivers/CMSIS/Core/Include/cmsis_gcc.h ****   \details Assigns the given value to the Priority Mask Register.
 477:Drivers/CMSIS/Core/Include/cmsis_gcc.h ****   \param [in]    priMask  Priority Mask
 478:Drivers/CMSIS/Core/Include/cmsis_gcc.h ****  */
 479:Drivers/CMSIS/Core/Include/cmsis_gcc.h **** __STATIC_FORCEINLINE void __set_PRIMASK(uint32_t priMask)
 480:Drivers/CMSIS/Core/Include/cmsis_gcc.h **** {
 481:Drivers/CMSIS/Core/Include/cmsis_gcc.h ****   __ASM volatile ("MSR primask, %0" : : "r" (priMask) : "memory");
 482:Drivers/CMSIS/Core/Include/cmsis_gcc.h **** }
 483:Drivers/CMSIS/Core/Include/cmsis_gcc.h **** 
 484:Drivers/CMSIS/Core/Include/cmsis_gcc.h **** 
 485:Drivers/CMSIS/Core/Include/cmsis_gcc.h **** #if (defined (__ARM_FEATURE_CMSE ) && (__ARM_FEATURE_CMSE == 3))
 486:Drivers/CMSIS/Core/Include/cmsis_gcc.h **** /**
 487:Drivers/CMSIS/Core/Include/cmsis_gcc.h ****   \brief   Set Priority Mask (non-secure)
 488:Drivers/CMSIS/Core/Include/cmsis_gcc.h ****   \details Assigns the given value to the non-secure Priority Mask Register when in secure state.
 489:Drivers/CMSIS/Core/Include/cmsis_gcc.h ****   \param [in]    priMask  Priority Mask
 490:Drivers/CMSIS/Core/Include/cmsis_gcc.h ****  */
 491:Drivers/CMSIS/Core/Include/cmsis_gcc.h **** __STATIC_FORCEINLINE void __TZ_set_PRIMASK_NS(uint32_t priMask)
 492:Drivers/CMSIS/Core/Include/cmsis_gcc.h **** {
 493:Drivers/CMSIS/Core/Include/cmsis_gcc.h ****   __ASM volatile ("MSR primask_ns, %0" : : "r" (priMask) : "memory");
 494:Drivers/CMSIS/Core/Include/cmsis_gcc.h **** }
 495:Drivers/CMSIS/Core/Include/cmsis_gcc.h **** #endif
 496:Drivers/CMSIS/Core/Include/cmsis_gcc.h **** 
 497:Drivers/CMSIS/Core/Include/cmsis_gcc.h **** 
 498:Drivers/CMSIS/Core/Include/cmsis_gcc.h **** #if ((defined (__ARM_ARCH_7M__      ) && (__ARM_ARCH_7M__      == 1)) || \
 499:Drivers/CMSIS/Core/Include/cmsis_gcc.h ****      (defined (__ARM_ARCH_7EM__     ) && (__ARM_ARCH_7EM__     == 1)) || \
 500:Drivers/CMSIS/Core/Include/cmsis_gcc.h ****      (defined (__ARM_ARCH_8M_MAIN__ ) && (__ARM_ARCH_8M_MAIN__ == 1))    )
 501:Drivers/CMSIS/Core/Include/cmsis_gcc.h **** /**
 502:Drivers/CMSIS/Core/Include/cmsis_gcc.h ****   \brief   Enable FIQ
 503:Drivers/CMSIS/Core/Include/cmsis_gcc.h ****   \details Enables FIQ interrupts by clearing the F-bit in the CPSR.
ARM GAS  /tmp/ccUr9KqT.s 			page 25


 504:Drivers/CMSIS/Core/Include/cmsis_gcc.h ****            Can only be executed in Privileged modes.
 505:Drivers/CMSIS/Core/Include/cmsis_gcc.h ****  */
 506:Drivers/CMSIS/Core/Include/cmsis_gcc.h **** __STATIC_FORCEINLINE void __enable_fault_irq(void)
 507:Drivers/CMSIS/Core/Include/cmsis_gcc.h **** {
 508:Drivers/CMSIS/Core/Include/cmsis_gcc.h ****   __ASM volatile ("cpsie f" : : : "memory");
 509:Drivers/CMSIS/Core/Include/cmsis_gcc.h **** }
 510:Drivers/CMSIS/Core/Include/cmsis_gcc.h **** 
 511:Drivers/CMSIS/Core/Include/cmsis_gcc.h **** 
 512:Drivers/CMSIS/Core/Include/cmsis_gcc.h **** /**
 513:Drivers/CMSIS/Core/Include/cmsis_gcc.h ****   \brief   Disable FIQ
 514:Drivers/CMSIS/Core/Include/cmsis_gcc.h ****   \details Disables FIQ interrupts by setting the F-bit in the CPSR.
 515:Drivers/CMSIS/Core/Include/cmsis_gcc.h ****            Can only be executed in Privileged modes.
 516:Drivers/CMSIS/Core/Include/cmsis_gcc.h ****  */
 517:Drivers/CMSIS/Core/Include/cmsis_gcc.h **** __STATIC_FORCEINLINE void __disable_fault_irq(void)
 518:Drivers/CMSIS/Core/Include/cmsis_gcc.h **** {
 519:Drivers/CMSIS/Core/Include/cmsis_gcc.h ****   __ASM volatile ("cpsid f" : : : "memory");
 520:Drivers/CMSIS/Core/Include/cmsis_gcc.h **** }
 521:Drivers/CMSIS/Core/Include/cmsis_gcc.h **** 
 522:Drivers/CMSIS/Core/Include/cmsis_gcc.h **** 
 523:Drivers/CMSIS/Core/Include/cmsis_gcc.h **** /**
 524:Drivers/CMSIS/Core/Include/cmsis_gcc.h ****   \brief   Get Base Priority
 525:Drivers/CMSIS/Core/Include/cmsis_gcc.h ****   \details Returns the current value of the Base Priority register.
 526:Drivers/CMSIS/Core/Include/cmsis_gcc.h ****   \return               Base Priority register value
 527:Drivers/CMSIS/Core/Include/cmsis_gcc.h ****  */
 528:Drivers/CMSIS/Core/Include/cmsis_gcc.h **** __STATIC_FORCEINLINE uint32_t __get_BASEPRI(void)
 529:Drivers/CMSIS/Core/Include/cmsis_gcc.h **** {
 530:Drivers/CMSIS/Core/Include/cmsis_gcc.h ****   uint32_t result;
 531:Drivers/CMSIS/Core/Include/cmsis_gcc.h **** 
 532:Drivers/CMSIS/Core/Include/cmsis_gcc.h ****   __ASM volatile ("MRS %0, basepri" : "=r" (result) );
 533:Drivers/CMSIS/Core/Include/cmsis_gcc.h ****   return(result);
 534:Drivers/CMSIS/Core/Include/cmsis_gcc.h **** }
 535:Drivers/CMSIS/Core/Include/cmsis_gcc.h **** 
 536:Drivers/CMSIS/Core/Include/cmsis_gcc.h **** 
 537:Drivers/CMSIS/Core/Include/cmsis_gcc.h **** #if (defined (__ARM_FEATURE_CMSE ) && (__ARM_FEATURE_CMSE == 3))
 538:Drivers/CMSIS/Core/Include/cmsis_gcc.h **** /**
 539:Drivers/CMSIS/Core/Include/cmsis_gcc.h ****   \brief   Get Base Priority (non-secure)
 540:Drivers/CMSIS/Core/Include/cmsis_gcc.h ****   \details Returns the current value of the non-secure Base Priority register when in secure state.
 541:Drivers/CMSIS/Core/Include/cmsis_gcc.h ****   \return               Base Priority register value
 542:Drivers/CMSIS/Core/Include/cmsis_gcc.h ****  */
 543:Drivers/CMSIS/Core/Include/cmsis_gcc.h **** __STATIC_FORCEINLINE uint32_t __TZ_get_BASEPRI_NS(void)
 544:Drivers/CMSIS/Core/Include/cmsis_gcc.h **** {
 545:Drivers/CMSIS/Core/Include/cmsis_gcc.h ****   uint32_t result;
 546:Drivers/CMSIS/Core/Include/cmsis_gcc.h **** 
 547:Drivers/CMSIS/Core/Include/cmsis_gcc.h ****   __ASM volatile ("MRS %0, basepri_ns" : "=r" (result) );
 548:Drivers/CMSIS/Core/Include/cmsis_gcc.h ****   return(result);
 549:Drivers/CMSIS/Core/Include/cmsis_gcc.h **** }
 550:Drivers/CMSIS/Core/Include/cmsis_gcc.h **** #endif
 551:Drivers/CMSIS/Core/Include/cmsis_gcc.h **** 
 552:Drivers/CMSIS/Core/Include/cmsis_gcc.h **** 
 553:Drivers/CMSIS/Core/Include/cmsis_gcc.h **** /**
 554:Drivers/CMSIS/Core/Include/cmsis_gcc.h ****   \brief   Set Base Priority
 555:Drivers/CMSIS/Core/Include/cmsis_gcc.h ****   \details Assigns the given value to the Base Priority register.
 556:Drivers/CMSIS/Core/Include/cmsis_gcc.h ****   \param [in]    basePri  Base Priority value to set
 557:Drivers/CMSIS/Core/Include/cmsis_gcc.h ****  */
 558:Drivers/CMSIS/Core/Include/cmsis_gcc.h **** __STATIC_FORCEINLINE void __set_BASEPRI(uint32_t basePri)
 559:Drivers/CMSIS/Core/Include/cmsis_gcc.h **** {
 560:Drivers/CMSIS/Core/Include/cmsis_gcc.h ****   __ASM volatile ("MSR basepri, %0" : : "r" (basePri) : "memory");
ARM GAS  /tmp/ccUr9KqT.s 			page 26


 561:Drivers/CMSIS/Core/Include/cmsis_gcc.h **** }
 562:Drivers/CMSIS/Core/Include/cmsis_gcc.h **** 
 563:Drivers/CMSIS/Core/Include/cmsis_gcc.h **** 
 564:Drivers/CMSIS/Core/Include/cmsis_gcc.h **** #if (defined (__ARM_FEATURE_CMSE ) && (__ARM_FEATURE_CMSE == 3))
 565:Drivers/CMSIS/Core/Include/cmsis_gcc.h **** /**
 566:Drivers/CMSIS/Core/Include/cmsis_gcc.h ****   \brief   Set Base Priority (non-secure)
 567:Drivers/CMSIS/Core/Include/cmsis_gcc.h ****   \details Assigns the given value to the non-secure Base Priority register when in secure state.
 568:Drivers/CMSIS/Core/Include/cmsis_gcc.h ****   \param [in]    basePri  Base Priority value to set
 569:Drivers/CMSIS/Core/Include/cmsis_gcc.h ****  */
 570:Drivers/CMSIS/Core/Include/cmsis_gcc.h **** __STATIC_FORCEINLINE void __TZ_set_BASEPRI_NS(uint32_t basePri)
 571:Drivers/CMSIS/Core/Include/cmsis_gcc.h **** {
 572:Drivers/CMSIS/Core/Include/cmsis_gcc.h ****   __ASM volatile ("MSR basepri_ns, %0" : : "r" (basePri) : "memory");
 573:Drivers/CMSIS/Core/Include/cmsis_gcc.h **** }
 574:Drivers/CMSIS/Core/Include/cmsis_gcc.h **** #endif
 575:Drivers/CMSIS/Core/Include/cmsis_gcc.h **** 
 576:Drivers/CMSIS/Core/Include/cmsis_gcc.h **** 
 577:Drivers/CMSIS/Core/Include/cmsis_gcc.h **** /**
 578:Drivers/CMSIS/Core/Include/cmsis_gcc.h ****   \brief   Set Base Priority with condition
 579:Drivers/CMSIS/Core/Include/cmsis_gcc.h ****   \details Assigns the given value to the Base Priority register only if BASEPRI masking is disable
 580:Drivers/CMSIS/Core/Include/cmsis_gcc.h ****            or the new value increases the BASEPRI priority level.
 581:Drivers/CMSIS/Core/Include/cmsis_gcc.h ****   \param [in]    basePri  Base Priority value to set
 582:Drivers/CMSIS/Core/Include/cmsis_gcc.h ****  */
 583:Drivers/CMSIS/Core/Include/cmsis_gcc.h **** __STATIC_FORCEINLINE void __set_BASEPRI_MAX(uint32_t basePri)
 584:Drivers/CMSIS/Core/Include/cmsis_gcc.h **** {
 585:Drivers/CMSIS/Core/Include/cmsis_gcc.h ****   __ASM volatile ("MSR basepri_max, %0" : : "r" (basePri) : "memory");
 586:Drivers/CMSIS/Core/Include/cmsis_gcc.h **** }
 587:Drivers/CMSIS/Core/Include/cmsis_gcc.h **** 
 588:Drivers/CMSIS/Core/Include/cmsis_gcc.h **** 
 589:Drivers/CMSIS/Core/Include/cmsis_gcc.h **** /**
 590:Drivers/CMSIS/Core/Include/cmsis_gcc.h ****   \brief   Get Fault Mask
 591:Drivers/CMSIS/Core/Include/cmsis_gcc.h ****   \details Returns the current value of the Fault Mask register.
 592:Drivers/CMSIS/Core/Include/cmsis_gcc.h ****   \return               Fault Mask register value
 593:Drivers/CMSIS/Core/Include/cmsis_gcc.h ****  */
 594:Drivers/CMSIS/Core/Include/cmsis_gcc.h **** __STATIC_FORCEINLINE uint32_t __get_FAULTMASK(void)
 595:Drivers/CMSIS/Core/Include/cmsis_gcc.h **** {
 596:Drivers/CMSIS/Core/Include/cmsis_gcc.h ****   uint32_t result;
 597:Drivers/CMSIS/Core/Include/cmsis_gcc.h **** 
 598:Drivers/CMSIS/Core/Include/cmsis_gcc.h ****   __ASM volatile ("MRS %0, faultmask" : "=r" (result) );
 599:Drivers/CMSIS/Core/Include/cmsis_gcc.h ****   return(result);
 600:Drivers/CMSIS/Core/Include/cmsis_gcc.h **** }
 601:Drivers/CMSIS/Core/Include/cmsis_gcc.h **** 
 602:Drivers/CMSIS/Core/Include/cmsis_gcc.h **** 
 603:Drivers/CMSIS/Core/Include/cmsis_gcc.h **** #if (defined (__ARM_FEATURE_CMSE ) && (__ARM_FEATURE_CMSE == 3))
 604:Drivers/CMSIS/Core/Include/cmsis_gcc.h **** /**
 605:Drivers/CMSIS/Core/Include/cmsis_gcc.h ****   \brief   Get Fault Mask (non-secure)
 606:Drivers/CMSIS/Core/Include/cmsis_gcc.h ****   \details Returns the current value of the non-secure Fault Mask register when in secure state.
 607:Drivers/CMSIS/Core/Include/cmsis_gcc.h ****   \return               Fault Mask register value
 608:Drivers/CMSIS/Core/Include/cmsis_gcc.h ****  */
 609:Drivers/CMSIS/Core/Include/cmsis_gcc.h **** __STATIC_FORCEINLINE uint32_t __TZ_get_FAULTMASK_NS(void)
 610:Drivers/CMSIS/Core/Include/cmsis_gcc.h **** {
 611:Drivers/CMSIS/Core/Include/cmsis_gcc.h ****   uint32_t result;
 612:Drivers/CMSIS/Core/Include/cmsis_gcc.h **** 
 613:Drivers/CMSIS/Core/Include/cmsis_gcc.h ****   __ASM volatile ("MRS %0, faultmask_ns" : "=r" (result) );
 614:Drivers/CMSIS/Core/Include/cmsis_gcc.h ****   return(result);
 615:Drivers/CMSIS/Core/Include/cmsis_gcc.h **** }
 616:Drivers/CMSIS/Core/Include/cmsis_gcc.h **** #endif
 617:Drivers/CMSIS/Core/Include/cmsis_gcc.h **** 
ARM GAS  /tmp/ccUr9KqT.s 			page 27


 618:Drivers/CMSIS/Core/Include/cmsis_gcc.h **** 
 619:Drivers/CMSIS/Core/Include/cmsis_gcc.h **** /**
 620:Drivers/CMSIS/Core/Include/cmsis_gcc.h ****   \brief   Set Fault Mask
 621:Drivers/CMSIS/Core/Include/cmsis_gcc.h ****   \details Assigns the given value to the Fault Mask register.
 622:Drivers/CMSIS/Core/Include/cmsis_gcc.h ****   \param [in]    faultMask  Fault Mask value to set
 623:Drivers/CMSIS/Core/Include/cmsis_gcc.h ****  */
 624:Drivers/CMSIS/Core/Include/cmsis_gcc.h **** __STATIC_FORCEINLINE void __set_FAULTMASK(uint32_t faultMask)
 625:Drivers/CMSIS/Core/Include/cmsis_gcc.h **** {
 626:Drivers/CMSIS/Core/Include/cmsis_gcc.h ****   __ASM volatile ("MSR faultmask, %0" : : "r" (faultMask) : "memory");
 627:Drivers/CMSIS/Core/Include/cmsis_gcc.h **** }
 628:Drivers/CMSIS/Core/Include/cmsis_gcc.h **** 
 629:Drivers/CMSIS/Core/Include/cmsis_gcc.h **** 
 630:Drivers/CMSIS/Core/Include/cmsis_gcc.h **** #if (defined (__ARM_FEATURE_CMSE ) && (__ARM_FEATURE_CMSE == 3))
 631:Drivers/CMSIS/Core/Include/cmsis_gcc.h **** /**
 632:Drivers/CMSIS/Core/Include/cmsis_gcc.h ****   \brief   Set Fault Mask (non-secure)
 633:Drivers/CMSIS/Core/Include/cmsis_gcc.h ****   \details Assigns the given value to the non-secure Fault Mask register when in secure state.
 634:Drivers/CMSIS/Core/Include/cmsis_gcc.h ****   \param [in]    faultMask  Fault Mask value to set
 635:Drivers/CMSIS/Core/Include/cmsis_gcc.h ****  */
 636:Drivers/CMSIS/Core/Include/cmsis_gcc.h **** __STATIC_FORCEINLINE void __TZ_set_FAULTMASK_NS(uint32_t faultMask)
 637:Drivers/CMSIS/Core/Include/cmsis_gcc.h **** {
 638:Drivers/CMSIS/Core/Include/cmsis_gcc.h ****   __ASM volatile ("MSR faultmask_ns, %0" : : "r" (faultMask) : "memory");
 639:Drivers/CMSIS/Core/Include/cmsis_gcc.h **** }
 640:Drivers/CMSIS/Core/Include/cmsis_gcc.h **** #endif
 641:Drivers/CMSIS/Core/Include/cmsis_gcc.h **** 
 642:Drivers/CMSIS/Core/Include/cmsis_gcc.h **** #endif /* ((defined (__ARM_ARCH_7M__      ) && (__ARM_ARCH_7M__      == 1)) || \
 643:Drivers/CMSIS/Core/Include/cmsis_gcc.h ****            (defined (__ARM_ARCH_7EM__     ) && (__ARM_ARCH_7EM__     == 1)) || \
 644:Drivers/CMSIS/Core/Include/cmsis_gcc.h ****            (defined (__ARM_ARCH_8M_MAIN__ ) && (__ARM_ARCH_8M_MAIN__ == 1))    ) */
 645:Drivers/CMSIS/Core/Include/cmsis_gcc.h **** 
 646:Drivers/CMSIS/Core/Include/cmsis_gcc.h **** 
 647:Drivers/CMSIS/Core/Include/cmsis_gcc.h **** #if ((defined (__ARM_ARCH_8M_MAIN__ ) && (__ARM_ARCH_8M_MAIN__ == 1)) || \
 648:Drivers/CMSIS/Core/Include/cmsis_gcc.h ****      (defined (__ARM_ARCH_8M_BASE__ ) && (__ARM_ARCH_8M_BASE__ == 1))    )
 649:Drivers/CMSIS/Core/Include/cmsis_gcc.h **** 
 650:Drivers/CMSIS/Core/Include/cmsis_gcc.h **** /**
 651:Drivers/CMSIS/Core/Include/cmsis_gcc.h ****   \brief   Get Process Stack Pointer Limit
 652:Drivers/CMSIS/Core/Include/cmsis_gcc.h ****   Devices without ARMv8-M Main Extensions (i.e. Cortex-M23) lack the non-secure
 653:Drivers/CMSIS/Core/Include/cmsis_gcc.h ****   Stack Pointer Limit register hence zero is returned always in non-secure
 654:Drivers/CMSIS/Core/Include/cmsis_gcc.h ****   mode.
 655:Drivers/CMSIS/Core/Include/cmsis_gcc.h ****   
 656:Drivers/CMSIS/Core/Include/cmsis_gcc.h ****   \details Returns the current value of the Process Stack Pointer Limit (PSPLIM).
 657:Drivers/CMSIS/Core/Include/cmsis_gcc.h ****   \return               PSPLIM Register value
 658:Drivers/CMSIS/Core/Include/cmsis_gcc.h ****  */
 659:Drivers/CMSIS/Core/Include/cmsis_gcc.h **** __STATIC_FORCEINLINE uint32_t __get_PSPLIM(void)
 660:Drivers/CMSIS/Core/Include/cmsis_gcc.h **** {
 661:Drivers/CMSIS/Core/Include/cmsis_gcc.h **** #if (!(defined (__ARM_ARCH_8M_MAIN__ ) && (__ARM_ARCH_8M_MAIN__ == 1)) && \
 662:Drivers/CMSIS/Core/Include/cmsis_gcc.h ****     (!defined (__ARM_FEATURE_CMSE) || (__ARM_FEATURE_CMSE < 3)))
 663:Drivers/CMSIS/Core/Include/cmsis_gcc.h ****     // without main extensions, the non-secure PSPLIM is RAZ/WI
 664:Drivers/CMSIS/Core/Include/cmsis_gcc.h ****   return 0U;
 665:Drivers/CMSIS/Core/Include/cmsis_gcc.h **** #else
 666:Drivers/CMSIS/Core/Include/cmsis_gcc.h ****   uint32_t result;
 667:Drivers/CMSIS/Core/Include/cmsis_gcc.h ****   __ASM volatile ("MRS %0, psplim"  : "=r" (result) );
 668:Drivers/CMSIS/Core/Include/cmsis_gcc.h ****   return result;
 669:Drivers/CMSIS/Core/Include/cmsis_gcc.h **** #endif
 670:Drivers/CMSIS/Core/Include/cmsis_gcc.h **** }
 671:Drivers/CMSIS/Core/Include/cmsis_gcc.h **** 
 672:Drivers/CMSIS/Core/Include/cmsis_gcc.h **** #if (defined (__ARM_FEATURE_CMSE) && (__ARM_FEATURE_CMSE == 3))
 673:Drivers/CMSIS/Core/Include/cmsis_gcc.h **** /**
 674:Drivers/CMSIS/Core/Include/cmsis_gcc.h ****   \brief   Get Process Stack Pointer Limit (non-secure)
ARM GAS  /tmp/ccUr9KqT.s 			page 28


 675:Drivers/CMSIS/Core/Include/cmsis_gcc.h ****   Devices without ARMv8-M Main Extensions (i.e. Cortex-M23) lack the non-secure
 676:Drivers/CMSIS/Core/Include/cmsis_gcc.h ****   Stack Pointer Limit register hence zero is returned always.
 677:Drivers/CMSIS/Core/Include/cmsis_gcc.h **** 
 678:Drivers/CMSIS/Core/Include/cmsis_gcc.h ****   \details Returns the current value of the non-secure Process Stack Pointer Limit (PSPLIM) when in
 679:Drivers/CMSIS/Core/Include/cmsis_gcc.h ****   \return               PSPLIM Register value
 680:Drivers/CMSIS/Core/Include/cmsis_gcc.h ****  */
 681:Drivers/CMSIS/Core/Include/cmsis_gcc.h **** __STATIC_FORCEINLINE uint32_t __TZ_get_PSPLIM_NS(void)
 682:Drivers/CMSIS/Core/Include/cmsis_gcc.h **** {
 683:Drivers/CMSIS/Core/Include/cmsis_gcc.h **** #if (!(defined (__ARM_ARCH_8M_MAIN__ ) && (__ARM_ARCH_8M_MAIN__ == 1)))
 684:Drivers/CMSIS/Core/Include/cmsis_gcc.h ****   // without main extensions, the non-secure PSPLIM is RAZ/WI
 685:Drivers/CMSIS/Core/Include/cmsis_gcc.h ****   return 0U;
 686:Drivers/CMSIS/Core/Include/cmsis_gcc.h **** #else
 687:Drivers/CMSIS/Core/Include/cmsis_gcc.h ****   uint32_t result;
 688:Drivers/CMSIS/Core/Include/cmsis_gcc.h ****   __ASM volatile ("MRS %0, psplim_ns"  : "=r" (result) );
 689:Drivers/CMSIS/Core/Include/cmsis_gcc.h ****   return result;
 690:Drivers/CMSIS/Core/Include/cmsis_gcc.h **** #endif
 691:Drivers/CMSIS/Core/Include/cmsis_gcc.h **** }
 692:Drivers/CMSIS/Core/Include/cmsis_gcc.h **** #endif
 693:Drivers/CMSIS/Core/Include/cmsis_gcc.h **** 
 694:Drivers/CMSIS/Core/Include/cmsis_gcc.h **** 
 695:Drivers/CMSIS/Core/Include/cmsis_gcc.h **** /**
 696:Drivers/CMSIS/Core/Include/cmsis_gcc.h ****   \brief   Set Process Stack Pointer Limit
 697:Drivers/CMSIS/Core/Include/cmsis_gcc.h ****   Devices without ARMv8-M Main Extensions (i.e. Cortex-M23) lack the non-secure
 698:Drivers/CMSIS/Core/Include/cmsis_gcc.h ****   Stack Pointer Limit register hence the write is silently ignored in non-secure
 699:Drivers/CMSIS/Core/Include/cmsis_gcc.h ****   mode.
 700:Drivers/CMSIS/Core/Include/cmsis_gcc.h ****   
 701:Drivers/CMSIS/Core/Include/cmsis_gcc.h ****   \details Assigns the given value to the Process Stack Pointer Limit (PSPLIM).
 702:Drivers/CMSIS/Core/Include/cmsis_gcc.h ****   \param [in]    ProcStackPtrLimit  Process Stack Pointer Limit value to set
 703:Drivers/CMSIS/Core/Include/cmsis_gcc.h ****  */
 704:Drivers/CMSIS/Core/Include/cmsis_gcc.h **** __STATIC_FORCEINLINE void __set_PSPLIM(uint32_t ProcStackPtrLimit)
 705:Drivers/CMSIS/Core/Include/cmsis_gcc.h **** {
 706:Drivers/CMSIS/Core/Include/cmsis_gcc.h **** #if (!(defined (__ARM_ARCH_8M_MAIN__ ) && (__ARM_ARCH_8M_MAIN__ == 1)) && \
 707:Drivers/CMSIS/Core/Include/cmsis_gcc.h ****     (!defined (__ARM_FEATURE_CMSE) || (__ARM_FEATURE_CMSE < 3)))
 708:Drivers/CMSIS/Core/Include/cmsis_gcc.h ****   // without main extensions, the non-secure PSPLIM is RAZ/WI
 709:Drivers/CMSIS/Core/Include/cmsis_gcc.h ****   (void)ProcStackPtrLimit;
 710:Drivers/CMSIS/Core/Include/cmsis_gcc.h **** #else
 711:Drivers/CMSIS/Core/Include/cmsis_gcc.h ****   __ASM volatile ("MSR psplim, %0" : : "r" (ProcStackPtrLimit));
 712:Drivers/CMSIS/Core/Include/cmsis_gcc.h **** #endif
 713:Drivers/CMSIS/Core/Include/cmsis_gcc.h **** }
 714:Drivers/CMSIS/Core/Include/cmsis_gcc.h **** 
 715:Drivers/CMSIS/Core/Include/cmsis_gcc.h **** 
 716:Drivers/CMSIS/Core/Include/cmsis_gcc.h **** #if (defined (__ARM_FEATURE_CMSE  ) && (__ARM_FEATURE_CMSE   == 3))
 717:Drivers/CMSIS/Core/Include/cmsis_gcc.h **** /**
 718:Drivers/CMSIS/Core/Include/cmsis_gcc.h ****   \brief   Set Process Stack Pointer (non-secure)
 719:Drivers/CMSIS/Core/Include/cmsis_gcc.h ****   Devices without ARMv8-M Main Extensions (i.e. Cortex-M23) lack the non-secure
 720:Drivers/CMSIS/Core/Include/cmsis_gcc.h ****   Stack Pointer Limit register hence the write is silently ignored.
 721:Drivers/CMSIS/Core/Include/cmsis_gcc.h **** 
 722:Drivers/CMSIS/Core/Include/cmsis_gcc.h ****   \details Assigns the given value to the non-secure Process Stack Pointer Limit (PSPLIM) when in s
 723:Drivers/CMSIS/Core/Include/cmsis_gcc.h ****   \param [in]    ProcStackPtrLimit  Process Stack Pointer Limit value to set
 724:Drivers/CMSIS/Core/Include/cmsis_gcc.h ****  */
 725:Drivers/CMSIS/Core/Include/cmsis_gcc.h **** __STATIC_FORCEINLINE void __TZ_set_PSPLIM_NS(uint32_t ProcStackPtrLimit)
 726:Drivers/CMSIS/Core/Include/cmsis_gcc.h **** {
 727:Drivers/CMSIS/Core/Include/cmsis_gcc.h **** #if (!(defined (__ARM_ARCH_8M_MAIN__ ) && (__ARM_ARCH_8M_MAIN__ == 1)))
 728:Drivers/CMSIS/Core/Include/cmsis_gcc.h ****   // without main extensions, the non-secure PSPLIM is RAZ/WI
 729:Drivers/CMSIS/Core/Include/cmsis_gcc.h ****   (void)ProcStackPtrLimit;
 730:Drivers/CMSIS/Core/Include/cmsis_gcc.h **** #else
 731:Drivers/CMSIS/Core/Include/cmsis_gcc.h ****   __ASM volatile ("MSR psplim_ns, %0\n" : : "r" (ProcStackPtrLimit));
ARM GAS  /tmp/ccUr9KqT.s 			page 29


 732:Drivers/CMSIS/Core/Include/cmsis_gcc.h **** #endif
 733:Drivers/CMSIS/Core/Include/cmsis_gcc.h **** }
 734:Drivers/CMSIS/Core/Include/cmsis_gcc.h **** #endif
 735:Drivers/CMSIS/Core/Include/cmsis_gcc.h **** 
 736:Drivers/CMSIS/Core/Include/cmsis_gcc.h **** 
 737:Drivers/CMSIS/Core/Include/cmsis_gcc.h **** /**
 738:Drivers/CMSIS/Core/Include/cmsis_gcc.h ****   \brief   Get Main Stack Pointer Limit
 739:Drivers/CMSIS/Core/Include/cmsis_gcc.h ****   Devices without ARMv8-M Main Extensions (i.e. Cortex-M23) lack the non-secure
 740:Drivers/CMSIS/Core/Include/cmsis_gcc.h ****   Stack Pointer Limit register hence zero is returned always in non-secure
 741:Drivers/CMSIS/Core/Include/cmsis_gcc.h ****   mode.
 742:Drivers/CMSIS/Core/Include/cmsis_gcc.h **** 
 743:Drivers/CMSIS/Core/Include/cmsis_gcc.h ****   \details Returns the current value of the Main Stack Pointer Limit (MSPLIM).
 744:Drivers/CMSIS/Core/Include/cmsis_gcc.h ****   \return               MSPLIM Register value
 745:Drivers/CMSIS/Core/Include/cmsis_gcc.h ****  */
 746:Drivers/CMSIS/Core/Include/cmsis_gcc.h **** __STATIC_FORCEINLINE uint32_t __get_MSPLIM(void)
 747:Drivers/CMSIS/Core/Include/cmsis_gcc.h **** {
 748:Drivers/CMSIS/Core/Include/cmsis_gcc.h **** #if (!(defined (__ARM_ARCH_8M_MAIN__ ) && (__ARM_ARCH_8M_MAIN__ == 1)) && \
 749:Drivers/CMSIS/Core/Include/cmsis_gcc.h ****     (!defined (__ARM_FEATURE_CMSE) || (__ARM_FEATURE_CMSE < 3)))
 750:Drivers/CMSIS/Core/Include/cmsis_gcc.h ****   // without main extensions, the non-secure MSPLIM is RAZ/WI
 751:Drivers/CMSIS/Core/Include/cmsis_gcc.h ****   return 0U;
 752:Drivers/CMSIS/Core/Include/cmsis_gcc.h **** #else
 753:Drivers/CMSIS/Core/Include/cmsis_gcc.h ****   uint32_t result;
 754:Drivers/CMSIS/Core/Include/cmsis_gcc.h ****   __ASM volatile ("MRS %0, msplim" : "=r" (result) );
 755:Drivers/CMSIS/Core/Include/cmsis_gcc.h ****   return result;
 756:Drivers/CMSIS/Core/Include/cmsis_gcc.h **** #endif
 757:Drivers/CMSIS/Core/Include/cmsis_gcc.h **** }
 758:Drivers/CMSIS/Core/Include/cmsis_gcc.h **** 
 759:Drivers/CMSIS/Core/Include/cmsis_gcc.h **** 
 760:Drivers/CMSIS/Core/Include/cmsis_gcc.h **** #if (defined (__ARM_FEATURE_CMSE  ) && (__ARM_FEATURE_CMSE   == 3))
 761:Drivers/CMSIS/Core/Include/cmsis_gcc.h **** /**
 762:Drivers/CMSIS/Core/Include/cmsis_gcc.h ****   \brief   Get Main Stack Pointer Limit (non-secure)
 763:Drivers/CMSIS/Core/Include/cmsis_gcc.h ****   Devices without ARMv8-M Main Extensions (i.e. Cortex-M23) lack the non-secure
 764:Drivers/CMSIS/Core/Include/cmsis_gcc.h ****   Stack Pointer Limit register hence zero is returned always.
 765:Drivers/CMSIS/Core/Include/cmsis_gcc.h **** 
 766:Drivers/CMSIS/Core/Include/cmsis_gcc.h ****   \details Returns the current value of the non-secure Main Stack Pointer Limit(MSPLIM) when in sec
 767:Drivers/CMSIS/Core/Include/cmsis_gcc.h ****   \return               MSPLIM Register value
 768:Drivers/CMSIS/Core/Include/cmsis_gcc.h ****  */
 769:Drivers/CMSIS/Core/Include/cmsis_gcc.h **** __STATIC_FORCEINLINE uint32_t __TZ_get_MSPLIM_NS(void)
 770:Drivers/CMSIS/Core/Include/cmsis_gcc.h **** {
 771:Drivers/CMSIS/Core/Include/cmsis_gcc.h **** #if (!(defined (__ARM_ARCH_8M_MAIN__ ) && (__ARM_ARCH_8M_MAIN__ == 1)))
 772:Drivers/CMSIS/Core/Include/cmsis_gcc.h ****   // without main extensions, the non-secure MSPLIM is RAZ/WI
 773:Drivers/CMSIS/Core/Include/cmsis_gcc.h ****   return 0U;
 774:Drivers/CMSIS/Core/Include/cmsis_gcc.h **** #else
 775:Drivers/CMSIS/Core/Include/cmsis_gcc.h ****   uint32_t result;
 776:Drivers/CMSIS/Core/Include/cmsis_gcc.h ****   __ASM volatile ("MRS %0, msplim_ns" : "=r" (result) );
 777:Drivers/CMSIS/Core/Include/cmsis_gcc.h ****   return result;
 778:Drivers/CMSIS/Core/Include/cmsis_gcc.h **** #endif
 779:Drivers/CMSIS/Core/Include/cmsis_gcc.h **** }
 780:Drivers/CMSIS/Core/Include/cmsis_gcc.h **** #endif
 781:Drivers/CMSIS/Core/Include/cmsis_gcc.h **** 
 782:Drivers/CMSIS/Core/Include/cmsis_gcc.h **** 
 783:Drivers/CMSIS/Core/Include/cmsis_gcc.h **** /**
 784:Drivers/CMSIS/Core/Include/cmsis_gcc.h ****   \brief   Set Main Stack Pointer Limit
 785:Drivers/CMSIS/Core/Include/cmsis_gcc.h ****   Devices without ARMv8-M Main Extensions (i.e. Cortex-M23) lack the non-secure
 786:Drivers/CMSIS/Core/Include/cmsis_gcc.h ****   Stack Pointer Limit register hence the write is silently ignored in non-secure
 787:Drivers/CMSIS/Core/Include/cmsis_gcc.h ****   mode.
 788:Drivers/CMSIS/Core/Include/cmsis_gcc.h **** 
ARM GAS  /tmp/ccUr9KqT.s 			page 30


 789:Drivers/CMSIS/Core/Include/cmsis_gcc.h ****   \details Assigns the given value to the Main Stack Pointer Limit (MSPLIM).
 790:Drivers/CMSIS/Core/Include/cmsis_gcc.h ****   \param [in]    MainStackPtrLimit  Main Stack Pointer Limit value to set
 791:Drivers/CMSIS/Core/Include/cmsis_gcc.h ****  */
 792:Drivers/CMSIS/Core/Include/cmsis_gcc.h **** __STATIC_FORCEINLINE void __set_MSPLIM(uint32_t MainStackPtrLimit)
 793:Drivers/CMSIS/Core/Include/cmsis_gcc.h **** {
 794:Drivers/CMSIS/Core/Include/cmsis_gcc.h **** #if (!(defined (__ARM_ARCH_8M_MAIN__ ) && (__ARM_ARCH_8M_MAIN__ == 1)) && \
 795:Drivers/CMSIS/Core/Include/cmsis_gcc.h ****     (!defined (__ARM_FEATURE_CMSE) || (__ARM_FEATURE_CMSE < 3)))
 796:Drivers/CMSIS/Core/Include/cmsis_gcc.h ****   // without main extensions, the non-secure MSPLIM is RAZ/WI
 797:Drivers/CMSIS/Core/Include/cmsis_gcc.h ****   (void)MainStackPtrLimit;
 798:Drivers/CMSIS/Core/Include/cmsis_gcc.h **** #else
 799:Drivers/CMSIS/Core/Include/cmsis_gcc.h ****   __ASM volatile ("MSR msplim, %0" : : "r" (MainStackPtrLimit));
 800:Drivers/CMSIS/Core/Include/cmsis_gcc.h **** #endif
 801:Drivers/CMSIS/Core/Include/cmsis_gcc.h **** }
 802:Drivers/CMSIS/Core/Include/cmsis_gcc.h **** 
 803:Drivers/CMSIS/Core/Include/cmsis_gcc.h **** 
 804:Drivers/CMSIS/Core/Include/cmsis_gcc.h **** #if (defined (__ARM_FEATURE_CMSE  ) && (__ARM_FEATURE_CMSE   == 3))
 805:Drivers/CMSIS/Core/Include/cmsis_gcc.h **** /**
 806:Drivers/CMSIS/Core/Include/cmsis_gcc.h ****   \brief   Set Main Stack Pointer Limit (non-secure)
 807:Drivers/CMSIS/Core/Include/cmsis_gcc.h ****   Devices without ARMv8-M Main Extensions (i.e. Cortex-M23) lack the non-secure
 808:Drivers/CMSIS/Core/Include/cmsis_gcc.h ****   Stack Pointer Limit register hence the write is silently ignored.
 809:Drivers/CMSIS/Core/Include/cmsis_gcc.h **** 
 810:Drivers/CMSIS/Core/Include/cmsis_gcc.h ****   \details Assigns the given value to the non-secure Main Stack Pointer Limit (MSPLIM) when in secu
 811:Drivers/CMSIS/Core/Include/cmsis_gcc.h ****   \param [in]    MainStackPtrLimit  Main Stack Pointer value to set
 812:Drivers/CMSIS/Core/Include/cmsis_gcc.h ****  */
 813:Drivers/CMSIS/Core/Include/cmsis_gcc.h **** __STATIC_FORCEINLINE void __TZ_set_MSPLIM_NS(uint32_t MainStackPtrLimit)
 814:Drivers/CMSIS/Core/Include/cmsis_gcc.h **** {
 815:Drivers/CMSIS/Core/Include/cmsis_gcc.h **** #if (!(defined (__ARM_ARCH_8M_MAIN__ ) && (__ARM_ARCH_8M_MAIN__ == 1)))
 816:Drivers/CMSIS/Core/Include/cmsis_gcc.h ****   // without main extensions, the non-secure MSPLIM is RAZ/WI
 817:Drivers/CMSIS/Core/Include/cmsis_gcc.h ****   (void)MainStackPtrLimit;
 818:Drivers/CMSIS/Core/Include/cmsis_gcc.h **** #else
 819:Drivers/CMSIS/Core/Include/cmsis_gcc.h ****   __ASM volatile ("MSR msplim_ns, %0" : : "r" (MainStackPtrLimit));
 820:Drivers/CMSIS/Core/Include/cmsis_gcc.h **** #endif
 821:Drivers/CMSIS/Core/Include/cmsis_gcc.h **** }
 822:Drivers/CMSIS/Core/Include/cmsis_gcc.h **** #endif
 823:Drivers/CMSIS/Core/Include/cmsis_gcc.h **** 
 824:Drivers/CMSIS/Core/Include/cmsis_gcc.h **** #endif /* ((defined (__ARM_ARCH_8M_MAIN__ ) && (__ARM_ARCH_8M_MAIN__ == 1)) || \
 825:Drivers/CMSIS/Core/Include/cmsis_gcc.h ****            (defined (__ARM_ARCH_8M_BASE__ ) && (__ARM_ARCH_8M_BASE__ == 1))    ) */
 826:Drivers/CMSIS/Core/Include/cmsis_gcc.h **** 
 827:Drivers/CMSIS/Core/Include/cmsis_gcc.h **** 
 828:Drivers/CMSIS/Core/Include/cmsis_gcc.h **** /**
 829:Drivers/CMSIS/Core/Include/cmsis_gcc.h ****   \brief   Get FPSCR
 830:Drivers/CMSIS/Core/Include/cmsis_gcc.h ****   \details Returns the current value of the Floating Point Status/Control register.
 831:Drivers/CMSIS/Core/Include/cmsis_gcc.h ****   \return               Floating Point Status/Control register value
 832:Drivers/CMSIS/Core/Include/cmsis_gcc.h ****  */
 833:Drivers/CMSIS/Core/Include/cmsis_gcc.h **** __STATIC_FORCEINLINE uint32_t __get_FPSCR(void)
 834:Drivers/CMSIS/Core/Include/cmsis_gcc.h **** {
 835:Drivers/CMSIS/Core/Include/cmsis_gcc.h **** #if ((defined (__FPU_PRESENT) && (__FPU_PRESENT == 1U)) && \
 836:Drivers/CMSIS/Core/Include/cmsis_gcc.h ****      (defined (__FPU_USED   ) && (__FPU_USED    == 1U))     )
 837:Drivers/CMSIS/Core/Include/cmsis_gcc.h **** #if __has_builtin(__builtin_arm_get_fpscr) 
 838:Drivers/CMSIS/Core/Include/cmsis_gcc.h **** // Re-enable using built-in when GCC has been fixed
 839:Drivers/CMSIS/Core/Include/cmsis_gcc.h **** // || (__GNUC__ > 7) || (__GNUC__ == 7 && __GNUC_MINOR__ >= 2)
 840:Drivers/CMSIS/Core/Include/cmsis_gcc.h ****   /* see https://gcc.gnu.org/ml/gcc-patches/2017-04/msg00443.html */
 841:Drivers/CMSIS/Core/Include/cmsis_gcc.h ****   return __builtin_arm_get_fpscr();
 842:Drivers/CMSIS/Core/Include/cmsis_gcc.h **** #else
 843:Drivers/CMSIS/Core/Include/cmsis_gcc.h ****   uint32_t result;
 844:Drivers/CMSIS/Core/Include/cmsis_gcc.h **** 
 845:Drivers/CMSIS/Core/Include/cmsis_gcc.h ****   __ASM volatile ("VMRS %0, fpscr" : "=r" (result) );
ARM GAS  /tmp/ccUr9KqT.s 			page 31


 846:Drivers/CMSIS/Core/Include/cmsis_gcc.h ****   return(result);
 847:Drivers/CMSIS/Core/Include/cmsis_gcc.h **** #endif
 848:Drivers/CMSIS/Core/Include/cmsis_gcc.h **** #else
 849:Drivers/CMSIS/Core/Include/cmsis_gcc.h ****   return(0U);
 850:Drivers/CMSIS/Core/Include/cmsis_gcc.h **** #endif
 851:Drivers/CMSIS/Core/Include/cmsis_gcc.h **** }
 852:Drivers/CMSIS/Core/Include/cmsis_gcc.h **** 
 853:Drivers/CMSIS/Core/Include/cmsis_gcc.h **** 
 854:Drivers/CMSIS/Core/Include/cmsis_gcc.h **** /**
 855:Drivers/CMSIS/Core/Include/cmsis_gcc.h ****   \brief   Set FPSCR
 856:Drivers/CMSIS/Core/Include/cmsis_gcc.h ****   \details Assigns the given value to the Floating Point Status/Control register.
 857:Drivers/CMSIS/Core/Include/cmsis_gcc.h ****   \param [in]    fpscr  Floating Point Status/Control value to set
 858:Drivers/CMSIS/Core/Include/cmsis_gcc.h ****  */
 859:Drivers/CMSIS/Core/Include/cmsis_gcc.h **** __STATIC_FORCEINLINE void __set_FPSCR(uint32_t fpscr)
 860:Drivers/CMSIS/Core/Include/cmsis_gcc.h **** {
 861:Drivers/CMSIS/Core/Include/cmsis_gcc.h **** #if ((defined (__FPU_PRESENT) && (__FPU_PRESENT == 1U)) && \
 862:Drivers/CMSIS/Core/Include/cmsis_gcc.h ****      (defined (__FPU_USED   ) && (__FPU_USED    == 1U))     )
 863:Drivers/CMSIS/Core/Include/cmsis_gcc.h **** #if __has_builtin(__builtin_arm_set_fpscr)
 864:Drivers/CMSIS/Core/Include/cmsis_gcc.h **** // Re-enable using built-in when GCC has been fixed
 865:Drivers/CMSIS/Core/Include/cmsis_gcc.h **** // || (__GNUC__ > 7) || (__GNUC__ == 7 && __GNUC_MINOR__ >= 2)
 866:Drivers/CMSIS/Core/Include/cmsis_gcc.h ****   /* see https://gcc.gnu.org/ml/gcc-patches/2017-04/msg00443.html */
 867:Drivers/CMSIS/Core/Include/cmsis_gcc.h ****   __builtin_arm_set_fpscr(fpscr);
 868:Drivers/CMSIS/Core/Include/cmsis_gcc.h **** #else
 869:Drivers/CMSIS/Core/Include/cmsis_gcc.h ****   __ASM volatile ("VMSR fpscr, %0" : : "r" (fpscr) : "vfpcc", "memory");
 870:Drivers/CMSIS/Core/Include/cmsis_gcc.h **** #endif
 871:Drivers/CMSIS/Core/Include/cmsis_gcc.h **** #else
 872:Drivers/CMSIS/Core/Include/cmsis_gcc.h ****   (void)fpscr;
 873:Drivers/CMSIS/Core/Include/cmsis_gcc.h **** #endif
 874:Drivers/CMSIS/Core/Include/cmsis_gcc.h **** }
 875:Drivers/CMSIS/Core/Include/cmsis_gcc.h **** 
 876:Drivers/CMSIS/Core/Include/cmsis_gcc.h **** 
 877:Drivers/CMSIS/Core/Include/cmsis_gcc.h **** /*@} end of CMSIS_Core_RegAccFunctions */
 878:Drivers/CMSIS/Core/Include/cmsis_gcc.h **** 
 879:Drivers/CMSIS/Core/Include/cmsis_gcc.h **** 
 880:Drivers/CMSIS/Core/Include/cmsis_gcc.h **** /* ##########################  Core Instruction Access  ######################### */
 881:Drivers/CMSIS/Core/Include/cmsis_gcc.h **** /** \defgroup CMSIS_Core_InstructionInterface CMSIS Core Instruction Interface
 882:Drivers/CMSIS/Core/Include/cmsis_gcc.h ****   Access to dedicated instructions
 883:Drivers/CMSIS/Core/Include/cmsis_gcc.h ****   @{
 884:Drivers/CMSIS/Core/Include/cmsis_gcc.h **** */
 885:Drivers/CMSIS/Core/Include/cmsis_gcc.h **** 
 886:Drivers/CMSIS/Core/Include/cmsis_gcc.h **** /* Define macros for porting to both thumb1 and thumb2.
 887:Drivers/CMSIS/Core/Include/cmsis_gcc.h ****  * For thumb1, use low register (r0-r7), specified by constraint "l"
 888:Drivers/CMSIS/Core/Include/cmsis_gcc.h ****  * Otherwise, use general registers, specified by constraint "r" */
 889:Drivers/CMSIS/Core/Include/cmsis_gcc.h **** #if defined (__thumb__) && !defined (__thumb2__)
 890:Drivers/CMSIS/Core/Include/cmsis_gcc.h **** #define __CMSIS_GCC_OUT_REG(r) "=l" (r)
 891:Drivers/CMSIS/Core/Include/cmsis_gcc.h **** #define __CMSIS_GCC_RW_REG(r) "+l" (r)
 892:Drivers/CMSIS/Core/Include/cmsis_gcc.h **** #define __CMSIS_GCC_USE_REG(r) "l" (r)
 893:Drivers/CMSIS/Core/Include/cmsis_gcc.h **** #else
 894:Drivers/CMSIS/Core/Include/cmsis_gcc.h **** #define __CMSIS_GCC_OUT_REG(r) "=r" (r)
 895:Drivers/CMSIS/Core/Include/cmsis_gcc.h **** #define __CMSIS_GCC_RW_REG(r) "+r" (r)
 896:Drivers/CMSIS/Core/Include/cmsis_gcc.h **** #define __CMSIS_GCC_USE_REG(r) "r" (r)
 897:Drivers/CMSIS/Core/Include/cmsis_gcc.h **** #endif
 898:Drivers/CMSIS/Core/Include/cmsis_gcc.h **** 
 899:Drivers/CMSIS/Core/Include/cmsis_gcc.h **** /**
 900:Drivers/CMSIS/Core/Include/cmsis_gcc.h ****   \brief   No Operation
 901:Drivers/CMSIS/Core/Include/cmsis_gcc.h ****   \details No Operation does nothing. This instruction can be used for code alignment purposes.
 902:Drivers/CMSIS/Core/Include/cmsis_gcc.h ****  */
ARM GAS  /tmp/ccUr9KqT.s 			page 32


 903:Drivers/CMSIS/Core/Include/cmsis_gcc.h **** #define __NOP()                             __ASM volatile ("nop")
 904:Drivers/CMSIS/Core/Include/cmsis_gcc.h **** 
 905:Drivers/CMSIS/Core/Include/cmsis_gcc.h **** /**
 906:Drivers/CMSIS/Core/Include/cmsis_gcc.h ****   \brief   Wait For Interrupt
 907:Drivers/CMSIS/Core/Include/cmsis_gcc.h ****   \details Wait For Interrupt is a hint instruction that suspends execution until one of a number o
 908:Drivers/CMSIS/Core/Include/cmsis_gcc.h ****  */
 909:Drivers/CMSIS/Core/Include/cmsis_gcc.h **** #define __WFI()                             __ASM volatile ("wfi")
 910:Drivers/CMSIS/Core/Include/cmsis_gcc.h **** 
 911:Drivers/CMSIS/Core/Include/cmsis_gcc.h **** 
 912:Drivers/CMSIS/Core/Include/cmsis_gcc.h **** /**
 913:Drivers/CMSIS/Core/Include/cmsis_gcc.h ****   \brief   Wait For Event
 914:Drivers/CMSIS/Core/Include/cmsis_gcc.h ****   \details Wait For Event is a hint instruction that permits the processor to enter
 915:Drivers/CMSIS/Core/Include/cmsis_gcc.h ****            a low-power state until one of a number of events occurs.
 916:Drivers/CMSIS/Core/Include/cmsis_gcc.h ****  */
 917:Drivers/CMSIS/Core/Include/cmsis_gcc.h **** #define __WFE()                             __ASM volatile ("wfe")
 918:Drivers/CMSIS/Core/Include/cmsis_gcc.h **** 
 919:Drivers/CMSIS/Core/Include/cmsis_gcc.h **** 
 920:Drivers/CMSIS/Core/Include/cmsis_gcc.h **** /**
 921:Drivers/CMSIS/Core/Include/cmsis_gcc.h ****   \brief   Send Event
 922:Drivers/CMSIS/Core/Include/cmsis_gcc.h ****   \details Send Event is a hint instruction. It causes an event to be signaled to the CPU.
 923:Drivers/CMSIS/Core/Include/cmsis_gcc.h ****  */
 924:Drivers/CMSIS/Core/Include/cmsis_gcc.h **** #define __SEV()                             __ASM volatile ("sev")
 925:Drivers/CMSIS/Core/Include/cmsis_gcc.h **** 
 926:Drivers/CMSIS/Core/Include/cmsis_gcc.h **** 
 927:Drivers/CMSIS/Core/Include/cmsis_gcc.h **** /**
 928:Drivers/CMSIS/Core/Include/cmsis_gcc.h ****   \brief   Instruction Synchronization Barrier
 929:Drivers/CMSIS/Core/Include/cmsis_gcc.h ****   \details Instruction Synchronization Barrier flushes the pipeline in the processor,
 930:Drivers/CMSIS/Core/Include/cmsis_gcc.h ****            so that all instructions following the ISB are fetched from cache or memory,
 931:Drivers/CMSIS/Core/Include/cmsis_gcc.h ****            after the instruction has been completed.
 932:Drivers/CMSIS/Core/Include/cmsis_gcc.h ****  */
 933:Drivers/CMSIS/Core/Include/cmsis_gcc.h **** __STATIC_FORCEINLINE void __ISB(void)
 934:Drivers/CMSIS/Core/Include/cmsis_gcc.h **** {
 935:Drivers/CMSIS/Core/Include/cmsis_gcc.h ****   __ASM volatile ("isb 0xF":::"memory");
 936:Drivers/CMSIS/Core/Include/cmsis_gcc.h **** }
 937:Drivers/CMSIS/Core/Include/cmsis_gcc.h **** 
 938:Drivers/CMSIS/Core/Include/cmsis_gcc.h **** 
 939:Drivers/CMSIS/Core/Include/cmsis_gcc.h **** /**
 940:Drivers/CMSIS/Core/Include/cmsis_gcc.h ****   \brief   Data Synchronization Barrier
 941:Drivers/CMSIS/Core/Include/cmsis_gcc.h ****   \details Acts as a special kind of Data Memory Barrier.
 942:Drivers/CMSIS/Core/Include/cmsis_gcc.h ****            It completes when all explicit memory accesses before this instruction complete.
 943:Drivers/CMSIS/Core/Include/cmsis_gcc.h ****  */
 944:Drivers/CMSIS/Core/Include/cmsis_gcc.h **** __STATIC_FORCEINLINE void __DSB(void)
 945:Drivers/CMSIS/Core/Include/cmsis_gcc.h **** {
 946:Drivers/CMSIS/Core/Include/cmsis_gcc.h ****   __ASM volatile ("dsb 0xF":::"memory");
 477              		.loc 2 946 3
 478              		.syntax unified
 479              	@ 946 "Drivers/CMSIS/Core/Include/cmsis_gcc.h" 1
 480 005c BFF34F8F 		dsb 0xF
 481              	@ 0 "" 2
 947:Drivers/CMSIS/Core/Include/cmsis_gcc.h **** }
 482              		.loc 2 947 1
 483              		.thumb
 484              		.syntax unified
 485 0060 00BF     		nop
 486              	.LBE341:
 487              	.LBE340:
 404:Drivers/STM32L4xx_HAL_Driver/Src/stm32l4xx_hal_nand.c ****     __DSB();
ARM GAS  /tmp/ccUr9KqT.s 			page 33


 405:Drivers/STM32L4xx_HAL_Driver/Src/stm32l4xx_hal_nand.c ****     *(__IO uint8_t *)((uint32_t)(deviceaddress | ADDR_AREA)) = 0x00;
 488              		.loc 1 405 23
 489 0062 7B69     		ldr	r3, [r7, #20]
 490 0064 43F40033 		orr	r3, r3, #131072
 491              		.loc 1 405 62
 492 0068 0022     		movs	r2, #0
 493 006a 1A70     		strb	r2, [r3]
 494              	.LBB342:
 495              	.LBB343:
 946:Drivers/CMSIS/Core/Include/cmsis_gcc.h **** }
 496              		.loc 2 946 3
 497              		.syntax unified
 498              	@ 946 "Drivers/CMSIS/Core/Include/cmsis_gcc.h" 1
 499 006c BFF34F8F 		dsb 0xF
 500              	@ 0 "" 2
 501              		.loc 2 947 1
 502              		.thumb
 503              		.syntax unified
 504 0070 00BF     		nop
 505              	.LBE343:
 506              	.LBE342:
 406:Drivers/STM32L4xx_HAL_Driver/Src/stm32l4xx_hal_nand.c ****     __DSB();
 407:Drivers/STM32L4xx_HAL_Driver/Src/stm32l4xx_hal_nand.c **** 
 408:Drivers/STM32L4xx_HAL_Driver/Src/stm32l4xx_hal_nand.c ****     /* Read the electronic signature from NAND flash */
 409:Drivers/STM32L4xx_HAL_Driver/Src/stm32l4xx_hal_nand.c ****     if (hnand->Init.MemoryDataWidth == FMC_NAND_MEM_BUS_WIDTH_8)
 507              		.loc 1 409 20
 508 0072 7B68     		ldr	r3, [r7, #4]
 509 0074 DB68     		ldr	r3, [r3, #12]
 510              		.loc 1 409 8
 511 0076 002B     		cmp	r3, #0
 512 0078 16D1     		bne	.L21
 410:Drivers/STM32L4xx_HAL_Driver/Src/stm32l4xx_hal_nand.c ****     {
 411:Drivers/STM32L4xx_HAL_Driver/Src/stm32l4xx_hal_nand.c ****       data = *(__IO uint32_t *)deviceaddress;
 513              		.loc 1 411 15
 514 007a 7B69     		ldr	r3, [r7, #20]
 515              		.loc 1 411 14
 516 007c 1B68     		ldr	r3, [r3]
 517              		.loc 1 411 12
 518 007e 3B61     		str	r3, [r7, #16]
 412:Drivers/STM32L4xx_HAL_Driver/Src/stm32l4xx_hal_nand.c **** 
 413:Drivers/STM32L4xx_HAL_Driver/Src/stm32l4xx_hal_nand.c ****       /* Return the data read */
 414:Drivers/STM32L4xx_HAL_Driver/Src/stm32l4xx_hal_nand.c ****       pNAND_ID->Maker_Id   = ADDR_1ST_CYCLE(data);
 519              		.loc 1 414 30
 520 0080 3B69     		ldr	r3, [r7, #16]
 521 0082 DAB2     		uxtb	r2, r3
 522              		.loc 1 414 28
 523 0084 3B68     		ldr	r3, [r7]
 524 0086 1A70     		strb	r2, [r3]
 415:Drivers/STM32L4xx_HAL_Driver/Src/stm32l4xx_hal_nand.c ****       pNAND_ID->Device_Id  = ADDR_2ND_CYCLE(data);
 525              		.loc 1 415 30
 526 0088 3B69     		ldr	r3, [r7, #16]
 527 008a 1B0A     		lsrs	r3, r3, #8
 528 008c DAB2     		uxtb	r2, r3
 529              		.loc 1 415 28
 530 008e 3B68     		ldr	r3, [r7]
 531 0090 5A70     		strb	r2, [r3, #1]
 416:Drivers/STM32L4xx_HAL_Driver/Src/stm32l4xx_hal_nand.c ****       pNAND_ID->Third_Id   = ADDR_3RD_CYCLE(data);
ARM GAS  /tmp/ccUr9KqT.s 			page 34


 532              		.loc 1 416 30
 533 0092 3B69     		ldr	r3, [r7, #16]
 534 0094 1B0C     		lsrs	r3, r3, #16
 535 0096 DAB2     		uxtb	r2, r3
 536              		.loc 1 416 28
 537 0098 3B68     		ldr	r3, [r7]
 538 009a 9A70     		strb	r2, [r3, #2]
 417:Drivers/STM32L4xx_HAL_Driver/Src/stm32l4xx_hal_nand.c ****       pNAND_ID->Fourth_Id  = ADDR_4TH_CYCLE(data);
 539              		.loc 1 417 30
 540 009c 3B69     		ldr	r3, [r7, #16]
 541 009e 1B0E     		lsrs	r3, r3, #24
 542 00a0 DAB2     		uxtb	r2, r3
 543              		.loc 1 417 28
 544 00a2 3B68     		ldr	r3, [r7]
 545 00a4 DA70     		strb	r2, [r3, #3]
 546 00a6 18E0     		b	.L22
 547              	.L21:
 418:Drivers/STM32L4xx_HAL_Driver/Src/stm32l4xx_hal_nand.c ****     }
 419:Drivers/STM32L4xx_HAL_Driver/Src/stm32l4xx_hal_nand.c ****     else
 420:Drivers/STM32L4xx_HAL_Driver/Src/stm32l4xx_hal_nand.c ****     {
 421:Drivers/STM32L4xx_HAL_Driver/Src/stm32l4xx_hal_nand.c ****       data = *(__IO uint32_t *)deviceaddress;
 548              		.loc 1 421 15
 549 00a8 7B69     		ldr	r3, [r7, #20]
 550              		.loc 1 421 14
 551 00aa 1B68     		ldr	r3, [r3]
 552              		.loc 1 421 12
 553 00ac 3B61     		str	r3, [r7, #16]
 422:Drivers/STM32L4xx_HAL_Driver/Src/stm32l4xx_hal_nand.c ****       data1 = *((__IO uint32_t *)deviceaddress + 4);
 554              		.loc 1 422 48
 555 00ae 7B69     		ldr	r3, [r7, #20]
 556 00b0 1033     		adds	r3, r3, #16
 557              		.loc 1 422 15
 558 00b2 1B68     		ldr	r3, [r3]
 559              		.loc 1 422 13
 560 00b4 FB60     		str	r3, [r7, #12]
 423:Drivers/STM32L4xx_HAL_Driver/Src/stm32l4xx_hal_nand.c **** 
 424:Drivers/STM32L4xx_HAL_Driver/Src/stm32l4xx_hal_nand.c ****       /* Return the data read */
 425:Drivers/STM32L4xx_HAL_Driver/Src/stm32l4xx_hal_nand.c ****       pNAND_ID->Maker_Id   = ADDR_1ST_CYCLE(data);
 561              		.loc 1 425 30
 562 00b6 3B69     		ldr	r3, [r7, #16]
 563 00b8 DAB2     		uxtb	r2, r3
 564              		.loc 1 425 28
 565 00ba 3B68     		ldr	r3, [r7]
 566 00bc 1A70     		strb	r2, [r3]
 426:Drivers/STM32L4xx_HAL_Driver/Src/stm32l4xx_hal_nand.c ****       pNAND_ID->Device_Id  = ADDR_3RD_CYCLE(data);
 567              		.loc 1 426 30
 568 00be 3B69     		ldr	r3, [r7, #16]
 569 00c0 1B0C     		lsrs	r3, r3, #16
 570 00c2 DAB2     		uxtb	r2, r3
 571              		.loc 1 426 28
 572 00c4 3B68     		ldr	r3, [r7]
 573 00c6 5A70     		strb	r2, [r3, #1]
 427:Drivers/STM32L4xx_HAL_Driver/Src/stm32l4xx_hal_nand.c ****       pNAND_ID->Third_Id   = ADDR_1ST_CYCLE(data1);
 574              		.loc 1 427 30
 575 00c8 FB68     		ldr	r3, [r7, #12]
 576 00ca DAB2     		uxtb	r2, r3
 577              		.loc 1 427 28
ARM GAS  /tmp/ccUr9KqT.s 			page 35


 578 00cc 3B68     		ldr	r3, [r7]
 579 00ce 9A70     		strb	r2, [r3, #2]
 428:Drivers/STM32L4xx_HAL_Driver/Src/stm32l4xx_hal_nand.c ****       pNAND_ID->Fourth_Id  = ADDR_3RD_CYCLE(data1);
 580              		.loc 1 428 30
 581 00d0 FB68     		ldr	r3, [r7, #12]
 582 00d2 1B0C     		lsrs	r3, r3, #16
 583 00d4 DAB2     		uxtb	r2, r3
 584              		.loc 1 428 28
 585 00d6 3B68     		ldr	r3, [r7]
 586 00d8 DA70     		strb	r2, [r3, #3]
 587              	.L22:
 429:Drivers/STM32L4xx_HAL_Driver/Src/stm32l4xx_hal_nand.c ****     }
 430:Drivers/STM32L4xx_HAL_Driver/Src/stm32l4xx_hal_nand.c **** 
 431:Drivers/STM32L4xx_HAL_Driver/Src/stm32l4xx_hal_nand.c ****     /* Update the NAND controller state */
 432:Drivers/STM32L4xx_HAL_Driver/Src/stm32l4xx_hal_nand.c ****     hnand->State = HAL_NAND_STATE_READY;
 588              		.loc 1 432 18
 589 00da 7B68     		ldr	r3, [r7, #4]
 590 00dc 0122     		movs	r2, #1
 591 00de 83F82120 		strb	r2, [r3, #33]
 433:Drivers/STM32L4xx_HAL_Driver/Src/stm32l4xx_hal_nand.c **** 
 434:Drivers/STM32L4xx_HAL_Driver/Src/stm32l4xx_hal_nand.c ****     /* Process unlocked */
 435:Drivers/STM32L4xx_HAL_Driver/Src/stm32l4xx_hal_nand.c ****     __HAL_UNLOCK(hnand);
 592              		.loc 1 435 5
 593 00e2 7B68     		ldr	r3, [r7, #4]
 594 00e4 0022     		movs	r2, #0
 595 00e6 83F82020 		strb	r2, [r3, #32]
 436:Drivers/STM32L4xx_HAL_Driver/Src/stm32l4xx_hal_nand.c ****   }
 437:Drivers/STM32L4xx_HAL_Driver/Src/stm32l4xx_hal_nand.c ****   else
 438:Drivers/STM32L4xx_HAL_Driver/Src/stm32l4xx_hal_nand.c ****   {
 439:Drivers/STM32L4xx_HAL_Driver/Src/stm32l4xx_hal_nand.c ****     return HAL_ERROR;
 440:Drivers/STM32L4xx_HAL_Driver/Src/stm32l4xx_hal_nand.c ****   }
 441:Drivers/STM32L4xx_HAL_Driver/Src/stm32l4xx_hal_nand.c **** 
 442:Drivers/STM32L4xx_HAL_Driver/Src/stm32l4xx_hal_nand.c ****   return HAL_OK;
 596              		.loc 1 442 10
 597 00ea 0023     		movs	r3, #0
 598 00ec 00E0     		b	.L18
 599              	.L19:
 439:Drivers/STM32L4xx_HAL_Driver/Src/stm32l4xx_hal_nand.c ****   }
 600              		.loc 1 439 12
 601 00ee 0123     		movs	r3, #1
 602              	.L18:
 443:Drivers/STM32L4xx_HAL_Driver/Src/stm32l4xx_hal_nand.c **** }
 603              		.loc 1 443 1
 604 00f0 1846     		mov	r0, r3
 605 00f2 1C37     		adds	r7, r7, #28
 606              		.cfi_def_cfa_offset 4
 607 00f4 BD46     		mov	sp, r7
 608              		.cfi_def_cfa_register 13
 609              		@ sp needed
 610 00f6 5DF8047B 		ldr	r7, [sp], #4
 611              		.cfi_restore 7
 612              		.cfi_def_cfa_offset 0
 613 00fa 7047     		bx	lr
 614              		.cfi_endproc
 615              	.LFE451:
 617              		.section	.text.HAL_NAND_Reset,"ax",%progbits
 618              		.align	1
ARM GAS  /tmp/ccUr9KqT.s 			page 36


 619              		.global	HAL_NAND_Reset
 620              		.syntax unified
 621              		.thumb
 622              		.thumb_func
 624              	HAL_NAND_Reset:
 625              	.LFB452:
 444:Drivers/STM32L4xx_HAL_Driver/Src/stm32l4xx_hal_nand.c **** 
 445:Drivers/STM32L4xx_HAL_Driver/Src/stm32l4xx_hal_nand.c **** /**
 446:Drivers/STM32L4xx_HAL_Driver/Src/stm32l4xx_hal_nand.c ****   * @brief  NAND memory reset
 447:Drivers/STM32L4xx_HAL_Driver/Src/stm32l4xx_hal_nand.c ****   * @param  hnand pointer to a NAND_HandleTypeDef structure that contains
 448:Drivers/STM32L4xx_HAL_Driver/Src/stm32l4xx_hal_nand.c ****   *                the configuration information for NAND module.
 449:Drivers/STM32L4xx_HAL_Driver/Src/stm32l4xx_hal_nand.c ****   * @retval HAL status
 450:Drivers/STM32L4xx_HAL_Driver/Src/stm32l4xx_hal_nand.c ****   */
 451:Drivers/STM32L4xx_HAL_Driver/Src/stm32l4xx_hal_nand.c **** HAL_StatusTypeDef HAL_NAND_Reset(NAND_HandleTypeDef *hnand)
 452:Drivers/STM32L4xx_HAL_Driver/Src/stm32l4xx_hal_nand.c **** {
 626              		.loc 1 452 1
 627              		.cfi_startproc
 628              		@ args = 0, pretend = 0, frame = 16
 629              		@ frame_needed = 1, uses_anonymous_args = 0
 630              		@ link register save eliminated.
 631 0000 80B4     		push	{r7}
 632              		.cfi_def_cfa_offset 4
 633              		.cfi_offset 7, -4
 634 0002 85B0     		sub	sp, sp, #20
 635              		.cfi_def_cfa_offset 24
 636 0004 00AF     		add	r7, sp, #0
 637              		.cfi_def_cfa_register 7
 638 0006 7860     		str	r0, [r7, #4]
 453:Drivers/STM32L4xx_HAL_Driver/Src/stm32l4xx_hal_nand.c ****   uint32_t deviceaddress;
 454:Drivers/STM32L4xx_HAL_Driver/Src/stm32l4xx_hal_nand.c **** 
 455:Drivers/STM32L4xx_HAL_Driver/Src/stm32l4xx_hal_nand.c ****   /* Check the NAND controller state */
 456:Drivers/STM32L4xx_HAL_Driver/Src/stm32l4xx_hal_nand.c ****   if (hnand->State == HAL_NAND_STATE_BUSY)
 639              		.loc 1 456 12
 640 0008 7B68     		ldr	r3, [r7, #4]
 641 000a 93F82130 		ldrb	r3, [r3, #33]
 642 000e DBB2     		uxtb	r3, r3
 643              		.loc 1 456 6
 644 0010 022B     		cmp	r3, #2
 645 0012 01D1     		bne	.L25
 457:Drivers/STM32L4xx_HAL_Driver/Src/stm32l4xx_hal_nand.c ****   {
 458:Drivers/STM32L4xx_HAL_Driver/Src/stm32l4xx_hal_nand.c ****     return HAL_BUSY;
 646              		.loc 1 458 12
 647 0014 0223     		movs	r3, #2
 648 0016 27E0     		b	.L26
 649              	.L25:
 459:Drivers/STM32L4xx_HAL_Driver/Src/stm32l4xx_hal_nand.c ****   }
 460:Drivers/STM32L4xx_HAL_Driver/Src/stm32l4xx_hal_nand.c ****   else if (hnand->State == HAL_NAND_STATE_READY)
 650              		.loc 1 460 17
 651 0018 7B68     		ldr	r3, [r7, #4]
 652 001a 93F82130 		ldrb	r3, [r3, #33]
 653 001e DBB2     		uxtb	r3, r3
 654              		.loc 1 460 11
 655 0020 012B     		cmp	r3, #1
 656 0022 20D1     		bne	.L27
 461:Drivers/STM32L4xx_HAL_Driver/Src/stm32l4xx_hal_nand.c ****   {
 462:Drivers/STM32L4xx_HAL_Driver/Src/stm32l4xx_hal_nand.c ****     /* Process Locked */
 463:Drivers/STM32L4xx_HAL_Driver/Src/stm32l4xx_hal_nand.c ****     __HAL_LOCK(hnand);
ARM GAS  /tmp/ccUr9KqT.s 			page 37


 657              		.loc 1 463 5
 658 0024 7B68     		ldr	r3, [r7, #4]
 659 0026 93F82030 		ldrb	r3, [r3, #32]	@ zero_extendqisi2
 660 002a 012B     		cmp	r3, #1
 661 002c 01D1     		bne	.L28
 662              		.loc 1 463 5 is_stmt 0 discriminator 1
 663 002e 0223     		movs	r3, #2
 664              		.loc 1 463 5
 665 0030 1AE0     		b	.L26
 666              	.L28:
 667              		.loc 1 463 5 discriminator 2
 668 0032 7B68     		ldr	r3, [r7, #4]
 669 0034 0122     		movs	r2, #1
 670 0036 83F82020 		strb	r2, [r3, #32]
 464:Drivers/STM32L4xx_HAL_Driver/Src/stm32l4xx_hal_nand.c **** 
 465:Drivers/STM32L4xx_HAL_Driver/Src/stm32l4xx_hal_nand.c ****     /* Update the NAND controller state */
 466:Drivers/STM32L4xx_HAL_Driver/Src/stm32l4xx_hal_nand.c ****     hnand->State = HAL_NAND_STATE_BUSY;
 671              		.loc 1 466 18 is_stmt 1
 672 003a 7B68     		ldr	r3, [r7, #4]
 673 003c 0222     		movs	r2, #2
 674 003e 83F82120 		strb	r2, [r3, #33]
 467:Drivers/STM32L4xx_HAL_Driver/Src/stm32l4xx_hal_nand.c **** 
 468:Drivers/STM32L4xx_HAL_Driver/Src/stm32l4xx_hal_nand.c ****     /* Identify the device address */
 469:Drivers/STM32L4xx_HAL_Driver/Src/stm32l4xx_hal_nand.c ****     deviceaddress = NAND_DEVICE;
 675              		.loc 1 469 19
 676 0042 4FF00043 		mov	r3, #-2147483648
 677 0046 FB60     		str	r3, [r7, #12]
 470:Drivers/STM32L4xx_HAL_Driver/Src/stm32l4xx_hal_nand.c **** 
 471:Drivers/STM32L4xx_HAL_Driver/Src/stm32l4xx_hal_nand.c ****     /* Send NAND reset command */
 472:Drivers/STM32L4xx_HAL_Driver/Src/stm32l4xx_hal_nand.c ****     *(__IO uint8_t *)((uint32_t)(deviceaddress | CMD_AREA)) = 0xFF;
 678              		.loc 1 472 23
 679 0048 FB68     		ldr	r3, [r7, #12]
 680 004a 43F48033 		orr	r3, r3, #65536
 681              		.loc 1 472 61
 682 004e FF22     		movs	r2, #255
 683 0050 1A70     		strb	r2, [r3]
 473:Drivers/STM32L4xx_HAL_Driver/Src/stm32l4xx_hal_nand.c **** 
 474:Drivers/STM32L4xx_HAL_Driver/Src/stm32l4xx_hal_nand.c ****     /* Update the NAND controller state */
 475:Drivers/STM32L4xx_HAL_Driver/Src/stm32l4xx_hal_nand.c ****     hnand->State = HAL_NAND_STATE_READY;
 684              		.loc 1 475 18
 685 0052 7B68     		ldr	r3, [r7, #4]
 686 0054 0122     		movs	r2, #1
 687 0056 83F82120 		strb	r2, [r3, #33]
 476:Drivers/STM32L4xx_HAL_Driver/Src/stm32l4xx_hal_nand.c **** 
 477:Drivers/STM32L4xx_HAL_Driver/Src/stm32l4xx_hal_nand.c ****     /* Process unlocked */
 478:Drivers/STM32L4xx_HAL_Driver/Src/stm32l4xx_hal_nand.c ****     __HAL_UNLOCK(hnand);
 688              		.loc 1 478 5
 689 005a 7B68     		ldr	r3, [r7, #4]
 690 005c 0022     		movs	r2, #0
 691 005e 83F82020 		strb	r2, [r3, #32]
 479:Drivers/STM32L4xx_HAL_Driver/Src/stm32l4xx_hal_nand.c ****   }
 480:Drivers/STM32L4xx_HAL_Driver/Src/stm32l4xx_hal_nand.c ****   else
 481:Drivers/STM32L4xx_HAL_Driver/Src/stm32l4xx_hal_nand.c ****   {
 482:Drivers/STM32L4xx_HAL_Driver/Src/stm32l4xx_hal_nand.c ****     return HAL_ERROR;
 483:Drivers/STM32L4xx_HAL_Driver/Src/stm32l4xx_hal_nand.c ****   }
 484:Drivers/STM32L4xx_HAL_Driver/Src/stm32l4xx_hal_nand.c **** 
 485:Drivers/STM32L4xx_HAL_Driver/Src/stm32l4xx_hal_nand.c ****   return HAL_OK;
ARM GAS  /tmp/ccUr9KqT.s 			page 38


 692              		.loc 1 485 10
 693 0062 0023     		movs	r3, #0
 694 0064 00E0     		b	.L26
 695              	.L27:
 482:Drivers/STM32L4xx_HAL_Driver/Src/stm32l4xx_hal_nand.c ****   }
 696              		.loc 1 482 12
 697 0066 0123     		movs	r3, #1
 698              	.L26:
 486:Drivers/STM32L4xx_HAL_Driver/Src/stm32l4xx_hal_nand.c **** 
 487:Drivers/STM32L4xx_HAL_Driver/Src/stm32l4xx_hal_nand.c **** }
 699              		.loc 1 487 1
 700 0068 1846     		mov	r0, r3
 701 006a 1437     		adds	r7, r7, #20
 702              		.cfi_def_cfa_offset 4
 703 006c BD46     		mov	sp, r7
 704              		.cfi_def_cfa_register 13
 705              		@ sp needed
 706 006e 5DF8047B 		ldr	r7, [sp], #4
 707              		.cfi_restore 7
 708              		.cfi_def_cfa_offset 0
 709 0072 7047     		bx	lr
 710              		.cfi_endproc
 711              	.LFE452:
 713              		.section	.text.HAL_NAND_ConfigDevice,"ax",%progbits
 714              		.align	1
 715              		.global	HAL_NAND_ConfigDevice
 716              		.syntax unified
 717              		.thumb
 718              		.thumb_func
 720              	HAL_NAND_ConfigDevice:
 721              	.LFB453:
 488:Drivers/STM32L4xx_HAL_Driver/Src/stm32l4xx_hal_nand.c **** 
 489:Drivers/STM32L4xx_HAL_Driver/Src/stm32l4xx_hal_nand.c **** /**
 490:Drivers/STM32L4xx_HAL_Driver/Src/stm32l4xx_hal_nand.c ****   * @brief  Configure the device: Enter the physical parameters of the device
 491:Drivers/STM32L4xx_HAL_Driver/Src/stm32l4xx_hal_nand.c ****   * @param  hnand pointer to a NAND_HandleTypeDef structure that contains
 492:Drivers/STM32L4xx_HAL_Driver/Src/stm32l4xx_hal_nand.c ****   *                the configuration information for NAND module.
 493:Drivers/STM32L4xx_HAL_Driver/Src/stm32l4xx_hal_nand.c ****   * @param  pDeviceConfig  pointer to NAND_DeviceConfigTypeDef structure
 494:Drivers/STM32L4xx_HAL_Driver/Src/stm32l4xx_hal_nand.c ****   * @retval HAL status
 495:Drivers/STM32L4xx_HAL_Driver/Src/stm32l4xx_hal_nand.c ****   */
 496:Drivers/STM32L4xx_HAL_Driver/Src/stm32l4xx_hal_nand.c **** HAL_StatusTypeDef  HAL_NAND_ConfigDevice(NAND_HandleTypeDef *hnand, const NAND_DeviceConfigTypeDef 
 497:Drivers/STM32L4xx_HAL_Driver/Src/stm32l4xx_hal_nand.c **** {
 722              		.loc 1 497 1
 723              		.cfi_startproc
 724              		@ args = 0, pretend = 0, frame = 8
 725              		@ frame_needed = 1, uses_anonymous_args = 0
 726              		@ link register save eliminated.
 727 0000 80B4     		push	{r7}
 728              		.cfi_def_cfa_offset 4
 729              		.cfi_offset 7, -4
 730 0002 83B0     		sub	sp, sp, #12
 731              		.cfi_def_cfa_offset 16
 732 0004 00AF     		add	r7, sp, #0
 733              		.cfi_def_cfa_register 7
 734 0006 7860     		str	r0, [r7, #4]
 735 0008 3960     		str	r1, [r7]
 498:Drivers/STM32L4xx_HAL_Driver/Src/stm32l4xx_hal_nand.c ****   hnand->Config.PageSize           = pDeviceConfig->PageSize;
 736              		.loc 1 498 51
ARM GAS  /tmp/ccUr9KqT.s 			page 39


 737 000a 3B68     		ldr	r3, [r7]
 738 000c 1A68     		ldr	r2, [r3]
 739              		.loc 1 498 36
 740 000e 7B68     		ldr	r3, [r7, #4]
 741 0010 5A62     		str	r2, [r3, #36]
 499:Drivers/STM32L4xx_HAL_Driver/Src/stm32l4xx_hal_nand.c ****   hnand->Config.SpareAreaSize      = pDeviceConfig->SpareAreaSize;
 742              		.loc 1 499 51
 743 0012 3B68     		ldr	r3, [r7]
 744 0014 5A68     		ldr	r2, [r3, #4]
 745              		.loc 1 499 36
 746 0016 7B68     		ldr	r3, [r7, #4]
 747 0018 9A62     		str	r2, [r3, #40]
 500:Drivers/STM32L4xx_HAL_Driver/Src/stm32l4xx_hal_nand.c ****   hnand->Config.BlockSize          = pDeviceConfig->BlockSize;
 748              		.loc 1 500 51
 749 001a 3B68     		ldr	r3, [r7]
 750 001c 9A68     		ldr	r2, [r3, #8]
 751              		.loc 1 500 36
 752 001e 7B68     		ldr	r3, [r7, #4]
 753 0020 DA62     		str	r2, [r3, #44]
 501:Drivers/STM32L4xx_HAL_Driver/Src/stm32l4xx_hal_nand.c ****   hnand->Config.BlockNbr           = pDeviceConfig->BlockNbr;
 754              		.loc 1 501 51
 755 0022 3B68     		ldr	r3, [r7]
 756 0024 DA68     		ldr	r2, [r3, #12]
 757              		.loc 1 501 36
 758 0026 7B68     		ldr	r3, [r7, #4]
 759 0028 1A63     		str	r2, [r3, #48]
 502:Drivers/STM32L4xx_HAL_Driver/Src/stm32l4xx_hal_nand.c ****   hnand->Config.PlaneSize          = pDeviceConfig->PlaneSize;
 760              		.loc 1 502 51
 761 002a 3B68     		ldr	r3, [r7]
 762 002c 5A69     		ldr	r2, [r3, #20]
 763              		.loc 1 502 36
 764 002e 7B68     		ldr	r3, [r7, #4]
 765 0030 9A63     		str	r2, [r3, #56]
 503:Drivers/STM32L4xx_HAL_Driver/Src/stm32l4xx_hal_nand.c ****   hnand->Config.PlaneNbr           = pDeviceConfig->PlaneNbr;
 766              		.loc 1 503 51
 767 0032 3B68     		ldr	r3, [r7]
 768 0034 1A69     		ldr	r2, [r3, #16]
 769              		.loc 1 503 36
 770 0036 7B68     		ldr	r3, [r7, #4]
 771 0038 5A63     		str	r2, [r3, #52]
 504:Drivers/STM32L4xx_HAL_Driver/Src/stm32l4xx_hal_nand.c ****   hnand->Config.ExtraCommandEnable = pDeviceConfig->ExtraCommandEnable;
 772              		.loc 1 504 51
 773 003a 3B68     		ldr	r3, [r7]
 774 003c 1A7E     		ldrb	r2, [r3, #24]	@ zero_extendqisi2
 775              		.loc 1 504 36
 776 003e 7B68     		ldr	r3, [r7, #4]
 777 0040 83F83C20 		strb	r2, [r3, #60]
 505:Drivers/STM32L4xx_HAL_Driver/Src/stm32l4xx_hal_nand.c **** 
 506:Drivers/STM32L4xx_HAL_Driver/Src/stm32l4xx_hal_nand.c ****   return HAL_OK;
 778              		.loc 1 506 10
 779 0044 0023     		movs	r3, #0
 507:Drivers/STM32L4xx_HAL_Driver/Src/stm32l4xx_hal_nand.c **** }
 780              		.loc 1 507 1
 781 0046 1846     		mov	r0, r3
 782 0048 0C37     		adds	r7, r7, #12
 783              		.cfi_def_cfa_offset 4
 784 004a BD46     		mov	sp, r7
ARM GAS  /tmp/ccUr9KqT.s 			page 40


 785              		.cfi_def_cfa_register 13
 786              		@ sp needed
 787 004c 5DF8047B 		ldr	r7, [sp], #4
 788              		.cfi_restore 7
 789              		.cfi_def_cfa_offset 0
 790 0050 7047     		bx	lr
 791              		.cfi_endproc
 792              	.LFE453:
 794              		.section	.text.HAL_NAND_Read_Page_8b,"ax",%progbits
 795              		.align	1
 796              		.global	HAL_NAND_Read_Page_8b
 797              		.syntax unified
 798              		.thumb
 799              		.thumb_func
 801              	HAL_NAND_Read_Page_8b:
 802              	.LFB454:
 508:Drivers/STM32L4xx_HAL_Driver/Src/stm32l4xx_hal_nand.c **** 
 509:Drivers/STM32L4xx_HAL_Driver/Src/stm32l4xx_hal_nand.c **** /**
 510:Drivers/STM32L4xx_HAL_Driver/Src/stm32l4xx_hal_nand.c ****   * @brief  Read Page(s) from NAND memory block (8-bits addressing)
 511:Drivers/STM32L4xx_HAL_Driver/Src/stm32l4xx_hal_nand.c ****   * @param  hnand pointer to a NAND_HandleTypeDef structure that contains
 512:Drivers/STM32L4xx_HAL_Driver/Src/stm32l4xx_hal_nand.c ****   *                the configuration information for NAND module.
 513:Drivers/STM32L4xx_HAL_Driver/Src/stm32l4xx_hal_nand.c ****   * @param  pAddress  pointer to NAND address structure
 514:Drivers/STM32L4xx_HAL_Driver/Src/stm32l4xx_hal_nand.c ****   * @param  pBuffer  pointer to destination read buffer
 515:Drivers/STM32L4xx_HAL_Driver/Src/stm32l4xx_hal_nand.c ****   * @param  NumPageToRead  number of pages to read from block
 516:Drivers/STM32L4xx_HAL_Driver/Src/stm32l4xx_hal_nand.c ****   * @retval HAL status
 517:Drivers/STM32L4xx_HAL_Driver/Src/stm32l4xx_hal_nand.c ****   */
 518:Drivers/STM32L4xx_HAL_Driver/Src/stm32l4xx_hal_nand.c **** HAL_StatusTypeDef HAL_NAND_Read_Page_8b(NAND_HandleTypeDef *hnand, const NAND_AddressTypeDef *pAddr
 519:Drivers/STM32L4xx_HAL_Driver/Src/stm32l4xx_hal_nand.c ****                                         uint8_t *pBuffer, uint32_t NumPageToRead)
 520:Drivers/STM32L4xx_HAL_Driver/Src/stm32l4xx_hal_nand.c **** {
 803              		.loc 1 520 1
 804              		.cfi_startproc
 805              		@ args = 0, pretend = 0, frame = 40
 806              		@ frame_needed = 1, uses_anonymous_args = 0
 807 0000 80B5     		push	{r7, lr}
 808              		.cfi_def_cfa_offset 8
 809              		.cfi_offset 7, -8
 810              		.cfi_offset 14, -4
 811 0002 8AB0     		sub	sp, sp, #40
 812              		.cfi_def_cfa_offset 48
 813 0004 00AF     		add	r7, sp, #0
 814              		.cfi_def_cfa_register 7
 815 0006 F860     		str	r0, [r7, #12]
 816 0008 B960     		str	r1, [r7, #8]
 817 000a 7A60     		str	r2, [r7, #4]
 818 000c 3B60     		str	r3, [r7]
 521:Drivers/STM32L4xx_HAL_Driver/Src/stm32l4xx_hal_nand.c ****   uint32_t index;
 522:Drivers/STM32L4xx_HAL_Driver/Src/stm32l4xx_hal_nand.c ****   uint32_t tickstart;
 523:Drivers/STM32L4xx_HAL_Driver/Src/stm32l4xx_hal_nand.c ****   uint32_t deviceaddress;
 524:Drivers/STM32L4xx_HAL_Driver/Src/stm32l4xx_hal_nand.c ****   uint32_t nandaddress;
 525:Drivers/STM32L4xx_HAL_Driver/Src/stm32l4xx_hal_nand.c ****   uint32_t nbpages = NumPageToRead;
 819              		.loc 1 525 12
 820 000e 3B68     		ldr	r3, [r7]
 821 0010 FB61     		str	r3, [r7, #28]
 526:Drivers/STM32L4xx_HAL_Driver/Src/stm32l4xx_hal_nand.c ****   uint8_t *buff = pBuffer;
 822              		.loc 1 526 12
 823 0012 7B68     		ldr	r3, [r7, #4]
 824 0014 BB61     		str	r3, [r7, #24]
ARM GAS  /tmp/ccUr9KqT.s 			page 41


 527:Drivers/STM32L4xx_HAL_Driver/Src/stm32l4xx_hal_nand.c **** 
 528:Drivers/STM32L4xx_HAL_Driver/Src/stm32l4xx_hal_nand.c ****   /* Check the NAND controller state */
 529:Drivers/STM32L4xx_HAL_Driver/Src/stm32l4xx_hal_nand.c ****   if (hnand->State == HAL_NAND_STATE_BUSY)
 825              		.loc 1 529 12
 826 0016 FB68     		ldr	r3, [r7, #12]
 827 0018 93F82130 		ldrb	r3, [r3, #33]
 828 001c DBB2     		uxtb	r3, r3
 829              		.loc 1 529 6
 830 001e 022B     		cmp	r3, #2
 831 0020 01D1     		bne	.L33
 530:Drivers/STM32L4xx_HAL_Driver/Src/stm32l4xx_hal_nand.c ****   {
 531:Drivers/STM32L4xx_HAL_Driver/Src/stm32l4xx_hal_nand.c ****     return HAL_BUSY;
 832              		.loc 1 531 12
 833 0022 0223     		movs	r3, #2
 834 0024 3EE1     		b	.L34
 835              	.L33:
 532:Drivers/STM32L4xx_HAL_Driver/Src/stm32l4xx_hal_nand.c ****   }
 533:Drivers/STM32L4xx_HAL_Driver/Src/stm32l4xx_hal_nand.c ****   else if (hnand->State == HAL_NAND_STATE_READY)
 836              		.loc 1 533 17
 837 0026 FB68     		ldr	r3, [r7, #12]
 838 0028 93F82130 		ldrb	r3, [r3, #33]
 839 002c DBB2     		uxtb	r3, r3
 840              		.loc 1 533 11
 841 002e 012B     		cmp	r3, #1
 842 0030 40F03781 		bne	.L35
 534:Drivers/STM32L4xx_HAL_Driver/Src/stm32l4xx_hal_nand.c ****   {
 535:Drivers/STM32L4xx_HAL_Driver/Src/stm32l4xx_hal_nand.c ****     /* Process Locked */
 536:Drivers/STM32L4xx_HAL_Driver/Src/stm32l4xx_hal_nand.c ****     __HAL_LOCK(hnand);
 843              		.loc 1 536 5
 844 0034 FB68     		ldr	r3, [r7, #12]
 845 0036 93F82030 		ldrb	r3, [r3, #32]	@ zero_extendqisi2
 846 003a 012B     		cmp	r3, #1
 847 003c 01D1     		bne	.L36
 848              		.loc 1 536 5 is_stmt 0 discriminator 1
 849 003e 0223     		movs	r3, #2
 850              		.loc 1 536 5
 851 0040 30E1     		b	.L34
 852              	.L36:
 853              		.loc 1 536 5 discriminator 2
 854 0042 FB68     		ldr	r3, [r7, #12]
 855 0044 0122     		movs	r2, #1
 856 0046 83F82020 		strb	r2, [r3, #32]
 537:Drivers/STM32L4xx_HAL_Driver/Src/stm32l4xx_hal_nand.c **** 
 538:Drivers/STM32L4xx_HAL_Driver/Src/stm32l4xx_hal_nand.c ****     /* Update the NAND controller state */
 539:Drivers/STM32L4xx_HAL_Driver/Src/stm32l4xx_hal_nand.c ****     hnand->State = HAL_NAND_STATE_BUSY;
 857              		.loc 1 539 18 is_stmt 1
 858 004a FB68     		ldr	r3, [r7, #12]
 859 004c 0222     		movs	r2, #2
 860 004e 83F82120 		strb	r2, [r3, #33]
 540:Drivers/STM32L4xx_HAL_Driver/Src/stm32l4xx_hal_nand.c **** 
 541:Drivers/STM32L4xx_HAL_Driver/Src/stm32l4xx_hal_nand.c ****     /* Identify the device address */
 542:Drivers/STM32L4xx_HAL_Driver/Src/stm32l4xx_hal_nand.c ****     deviceaddress = NAND_DEVICE;
 861              		.loc 1 542 19
 862 0052 4FF00043 		mov	r3, #-2147483648
 863 0056 7B61     		str	r3, [r7, #20]
 543:Drivers/STM32L4xx_HAL_Driver/Src/stm32l4xx_hal_nand.c **** 
 544:Drivers/STM32L4xx_HAL_Driver/Src/stm32l4xx_hal_nand.c ****     /* NAND raw address calculation */
ARM GAS  /tmp/ccUr9KqT.s 			page 42


 545:Drivers/STM32L4xx_HAL_Driver/Src/stm32l4xx_hal_nand.c ****     nandaddress = ARRAY_ADDRESS(pAddress, hnand);
 864              		.loc 1 545 19
 865 0058 BB68     		ldr	r3, [r7, #8]
 866 005a 1B88     		ldrh	r3, [r3]
 867 005c 1946     		mov	r1, r3
 868 005e BB68     		ldr	r3, [r7, #8]
 869 0060 9B88     		ldrh	r3, [r3, #4]
 870 0062 1A46     		mov	r2, r3
 871 0064 BB68     		ldr	r3, [r7, #8]
 872 0066 5B88     		ldrh	r3, [r3, #2]
 873 0068 1846     		mov	r0, r3
 874 006a FB68     		ldr	r3, [r7, #12]
 875 006c 9B6B     		ldr	r3, [r3, #56]
 876 006e 00FB03F3 		mul	r3, r0, r3
 877 0072 1344     		add	r3, r3, r2
 878 0074 FA68     		ldr	r2, [r7, #12]
 879 0076 D26A     		ldr	r2, [r2, #44]
 880 0078 02FB03F3 		mul	r3, r2, r3
 881              		.loc 1 545 17
 882 007c 0B44     		add	r3, r3, r1
 883 007e 3B62     		str	r3, [r7, #32]
 546:Drivers/STM32L4xx_HAL_Driver/Src/stm32l4xx_hal_nand.c **** 
 547:Drivers/STM32L4xx_HAL_Driver/Src/stm32l4xx_hal_nand.c ****     /* Page(s) read loop */
 548:Drivers/STM32L4xx_HAL_Driver/Src/stm32l4xx_hal_nand.c ****     while ((nbpages != 0U) && (nandaddress < ((hnand->Config.BlockSize) * (hnand->Config.BlockNbr))
 884              		.loc 1 548 11
 885 0080 F8E0     		b	.L37
 886              	.L48:
 549:Drivers/STM32L4xx_HAL_Driver/Src/stm32l4xx_hal_nand.c ****     {
 550:Drivers/STM32L4xx_HAL_Driver/Src/stm32l4xx_hal_nand.c ****       /* Send read page command sequence */
 551:Drivers/STM32L4xx_HAL_Driver/Src/stm32l4xx_hal_nand.c ****       *(__IO uint8_t *)((uint32_t)(deviceaddress | CMD_AREA)) = NAND_CMD_AREA_A;
 887              		.loc 1 551 25
 888 0082 7B69     		ldr	r3, [r7, #20]
 889 0084 43F48033 		orr	r3, r3, #65536
 890              		.loc 1 551 63
 891 0088 0022     		movs	r2, #0
 892 008a 1A70     		strb	r2, [r3]
 893              	.LBB344:
 894              	.LBB345:
 946:Drivers/CMSIS/Core/Include/cmsis_gcc.h **** }
 895              		.loc 2 946 3
 896              		.syntax unified
 897              	@ 946 "Drivers/CMSIS/Core/Include/cmsis_gcc.h" 1
 898 008c BFF34F8F 		dsb 0xF
 899              	@ 0 "" 2
 900              		.loc 2 947 1
 901              		.thumb
 902              		.syntax unified
 903 0090 00BF     		nop
 904              	.LBE345:
 905              	.LBE344:
 552:Drivers/STM32L4xx_HAL_Driver/Src/stm32l4xx_hal_nand.c ****       __DSB();
 553:Drivers/STM32L4xx_HAL_Driver/Src/stm32l4xx_hal_nand.c **** 
 554:Drivers/STM32L4xx_HAL_Driver/Src/stm32l4xx_hal_nand.c ****       /* Cards with page size <= 512 bytes */
 555:Drivers/STM32L4xx_HAL_Driver/Src/stm32l4xx_hal_nand.c ****       if ((hnand->Config.PageSize) <= 512U)
 906              		.loc 1 555 25
 907 0092 FB68     		ldr	r3, [r7, #12]
 908 0094 5B6A     		ldr	r3, [r3, #36]
ARM GAS  /tmp/ccUr9KqT.s 			page 43


 909              		.loc 1 555 10
 910 0096 B3F5007F 		cmp	r3, #512
 911 009a 48D8     		bhi	.L38
 556:Drivers/STM32L4xx_HAL_Driver/Src/stm32l4xx_hal_nand.c ****       {
 557:Drivers/STM32L4xx_HAL_Driver/Src/stm32l4xx_hal_nand.c ****         if (((hnand->Config.BlockSize) * (hnand->Config.BlockNbr)) <= 65535U)
 912              		.loc 1 557 28
 913 009c FB68     		ldr	r3, [r7, #12]
 914 009e DB6A     		ldr	r3, [r3, #44]
 915              		.loc 1 557 56
 916 00a0 FA68     		ldr	r2, [r7, #12]
 917 00a2 126B     		ldr	r2, [r2, #48]
 918              		.loc 1 557 40
 919 00a4 02FB03F3 		mul	r3, r2, r3
 920              		.loc 1 557 12
 921 00a8 B3F5803F 		cmp	r3, #65536
 922 00ac 1AD2     		bcs	.L39
 558:Drivers/STM32L4xx_HAL_Driver/Src/stm32l4xx_hal_nand.c ****         {
 559:Drivers/STM32L4xx_HAL_Driver/Src/stm32l4xx_hal_nand.c ****           *(__IO uint8_t *)((uint32_t)(deviceaddress | ADDR_AREA)) = 0x00U;
 923              		.loc 1 559 29
 924 00ae 7B69     		ldr	r3, [r7, #20]
 925 00b0 43F40033 		orr	r3, r3, #131072
 926              		.loc 1 559 68
 927 00b4 0022     		movs	r2, #0
 928 00b6 1A70     		strb	r2, [r3]
 929              	.LBB346:
 930              	.LBB347:
 946:Drivers/CMSIS/Core/Include/cmsis_gcc.h **** }
 931              		.loc 2 946 3
 932              		.syntax unified
 933              	@ 946 "Drivers/CMSIS/Core/Include/cmsis_gcc.h" 1
 934 00b8 BFF34F8F 		dsb 0xF
 935              	@ 0 "" 2
 936              		.loc 2 947 1
 937              		.thumb
 938              		.syntax unified
 939 00bc 00BF     		nop
 940              	.LBE347:
 941              	.LBE346:
 560:Drivers/STM32L4xx_HAL_Driver/Src/stm32l4xx_hal_nand.c ****           __DSB();
 561:Drivers/STM32L4xx_HAL_Driver/Src/stm32l4xx_hal_nand.c ****           *(__IO uint8_t *)((uint32_t)(deviceaddress | ADDR_AREA)) = ADDR_1ST_CYCLE(nandaddress);
 942              		.loc 1 561 29
 943 00be 7B69     		ldr	r3, [r7, #20]
 944 00c0 43F40033 		orr	r3, r3, #131072
 945              		.loc 1 561 70
 946 00c4 3A6A     		ldr	r2, [r7, #32]
 947 00c6 D2B2     		uxtb	r2, r2
 948              		.loc 1 561 68
 949 00c8 1A70     		strb	r2, [r3]
 950              	.LBB348:
 951              	.LBB349:
 946:Drivers/CMSIS/Core/Include/cmsis_gcc.h **** }
 952              		.loc 2 946 3
 953              		.syntax unified
 954              	@ 946 "Drivers/CMSIS/Core/Include/cmsis_gcc.h" 1
 955 00ca BFF34F8F 		dsb 0xF
 956              	@ 0 "" 2
 957              		.loc 2 947 1
ARM GAS  /tmp/ccUr9KqT.s 			page 44


 958              		.thumb
 959              		.syntax unified
 960 00ce 00BF     		nop
 961              	.LBE349:
 962              	.LBE348:
 562:Drivers/STM32L4xx_HAL_Driver/Src/stm32l4xx_hal_nand.c ****           __DSB();
 563:Drivers/STM32L4xx_HAL_Driver/Src/stm32l4xx_hal_nand.c ****           *(__IO uint8_t *)((uint32_t)(deviceaddress | ADDR_AREA)) = ADDR_2ND_CYCLE(nandaddress);
 963              		.loc 1 563 70
 964 00d0 3B6A     		ldr	r3, [r7, #32]
 965 00d2 1A0A     		lsrs	r2, r3, #8
 966              		.loc 1 563 29
 967 00d4 7B69     		ldr	r3, [r7, #20]
 968 00d6 43F40033 		orr	r3, r3, #131072
 969              		.loc 1 563 70
 970 00da D2B2     		uxtb	r2, r2
 971              		.loc 1 563 68
 972 00dc 1A70     		strb	r2, [r3]
 973              	.LBB350:
 974              	.LBB351:
 946:Drivers/CMSIS/Core/Include/cmsis_gcc.h **** }
 975              		.loc 2 946 3
 976              		.syntax unified
 977              	@ 946 "Drivers/CMSIS/Core/Include/cmsis_gcc.h" 1
 978 00de BFF34F8F 		dsb 0xF
 979              	@ 0 "" 2
 980              		.loc 2 947 1
 981              		.thumb
 982              		.syntax unified
 983 00e2 7DE0     		b	.L40
 984              	.L39:
 985              	.LBE351:
 986              	.LBE350:
 564:Drivers/STM32L4xx_HAL_Driver/Src/stm32l4xx_hal_nand.c ****           __DSB();
 565:Drivers/STM32L4xx_HAL_Driver/Src/stm32l4xx_hal_nand.c ****         }
 566:Drivers/STM32L4xx_HAL_Driver/Src/stm32l4xx_hal_nand.c ****         else /* ((hnand->Config.BlockSize)*(hnand->Config.BlockNbr)) > 65535 */
 567:Drivers/STM32L4xx_HAL_Driver/Src/stm32l4xx_hal_nand.c ****         {
 568:Drivers/STM32L4xx_HAL_Driver/Src/stm32l4xx_hal_nand.c ****           *(__IO uint8_t *)((uint32_t)(deviceaddress | ADDR_AREA)) = 0x00U;
 987              		.loc 1 568 29
 988 00e4 7B69     		ldr	r3, [r7, #20]
 989 00e6 43F40033 		orr	r3, r3, #131072
 990              		.loc 1 568 68
 991 00ea 0022     		movs	r2, #0
 992 00ec 1A70     		strb	r2, [r3]
 993              	.LBB352:
 994              	.LBB353:
 946:Drivers/CMSIS/Core/Include/cmsis_gcc.h **** }
 995              		.loc 2 946 3
 996              		.syntax unified
 997              	@ 946 "Drivers/CMSIS/Core/Include/cmsis_gcc.h" 1
 998 00ee BFF34F8F 		dsb 0xF
 999              	@ 0 "" 2
 1000              		.loc 2 947 1
 1001              		.thumb
 1002              		.syntax unified
 1003 00f2 00BF     		nop
 1004              	.LBE353:
 1005              	.LBE352:
ARM GAS  /tmp/ccUr9KqT.s 			page 45


 569:Drivers/STM32L4xx_HAL_Driver/Src/stm32l4xx_hal_nand.c ****           __DSB();
 570:Drivers/STM32L4xx_HAL_Driver/Src/stm32l4xx_hal_nand.c ****           *(__IO uint8_t *)((uint32_t)(deviceaddress | ADDR_AREA)) = ADDR_1ST_CYCLE(nandaddress);
 1006              		.loc 1 570 29
 1007 00f4 7B69     		ldr	r3, [r7, #20]
 1008 00f6 43F40033 		orr	r3, r3, #131072
 1009              		.loc 1 570 70
 1010 00fa 3A6A     		ldr	r2, [r7, #32]
 1011 00fc D2B2     		uxtb	r2, r2
 1012              		.loc 1 570 68
 1013 00fe 1A70     		strb	r2, [r3]
 1014              	.LBB354:
 1015              	.LBB355:
 946:Drivers/CMSIS/Core/Include/cmsis_gcc.h **** }
 1016              		.loc 2 946 3
 1017              		.syntax unified
 1018              	@ 946 "Drivers/CMSIS/Core/Include/cmsis_gcc.h" 1
 1019 0100 BFF34F8F 		dsb 0xF
 1020              	@ 0 "" 2
 1021              		.loc 2 947 1
 1022              		.thumb
 1023              		.syntax unified
 1024 0104 00BF     		nop
 1025              	.LBE355:
 1026              	.LBE354:
 571:Drivers/STM32L4xx_HAL_Driver/Src/stm32l4xx_hal_nand.c ****           __DSB();
 572:Drivers/STM32L4xx_HAL_Driver/Src/stm32l4xx_hal_nand.c ****           *(__IO uint8_t *)((uint32_t)(deviceaddress | ADDR_AREA)) = ADDR_2ND_CYCLE(nandaddress);
 1027              		.loc 1 572 70
 1028 0106 3B6A     		ldr	r3, [r7, #32]
 1029 0108 1A0A     		lsrs	r2, r3, #8
 1030              		.loc 1 572 29
 1031 010a 7B69     		ldr	r3, [r7, #20]
 1032 010c 43F40033 		orr	r3, r3, #131072
 1033              		.loc 1 572 70
 1034 0110 D2B2     		uxtb	r2, r2
 1035              		.loc 1 572 68
 1036 0112 1A70     		strb	r2, [r3]
 1037              	.LBB356:
 1038              	.LBB357:
 946:Drivers/CMSIS/Core/Include/cmsis_gcc.h **** }
 1039              		.loc 2 946 3
 1040              		.syntax unified
 1041              	@ 946 "Drivers/CMSIS/Core/Include/cmsis_gcc.h" 1
 1042 0114 BFF34F8F 		dsb 0xF
 1043              	@ 0 "" 2
 1044              		.loc 2 947 1
 1045              		.thumb
 1046              		.syntax unified
 1047 0118 00BF     		nop
 1048              	.LBE357:
 1049              	.LBE356:
 573:Drivers/STM32L4xx_HAL_Driver/Src/stm32l4xx_hal_nand.c ****           __DSB();
 574:Drivers/STM32L4xx_HAL_Driver/Src/stm32l4xx_hal_nand.c ****           *(__IO uint8_t *)((uint32_t)(deviceaddress | ADDR_AREA)) = ADDR_3RD_CYCLE(nandaddress);
 1050              		.loc 1 574 70
 1051 011a 3B6A     		ldr	r3, [r7, #32]
 1052 011c 1A0C     		lsrs	r2, r3, #16
 1053              		.loc 1 574 29
 1054 011e 7B69     		ldr	r3, [r7, #20]
ARM GAS  /tmp/ccUr9KqT.s 			page 46


 1055 0120 43F40033 		orr	r3, r3, #131072
 1056              		.loc 1 574 70
 1057 0124 D2B2     		uxtb	r2, r2
 1058              		.loc 1 574 68
 1059 0126 1A70     		strb	r2, [r3]
 1060              	.LBB358:
 1061              	.LBB359:
 946:Drivers/CMSIS/Core/Include/cmsis_gcc.h **** }
 1062              		.loc 2 946 3
 1063              		.syntax unified
 1064              	@ 946 "Drivers/CMSIS/Core/Include/cmsis_gcc.h" 1
 1065 0128 BFF34F8F 		dsb 0xF
 1066              	@ 0 "" 2
 1067              		.loc 2 947 1
 1068              		.thumb
 1069              		.syntax unified
 1070 012c 58E0     		b	.L40
 1071              	.L38:
 1072              	.LBE359:
 1073              	.LBE358:
 575:Drivers/STM32L4xx_HAL_Driver/Src/stm32l4xx_hal_nand.c ****           __DSB();
 576:Drivers/STM32L4xx_HAL_Driver/Src/stm32l4xx_hal_nand.c ****         }
 577:Drivers/STM32L4xx_HAL_Driver/Src/stm32l4xx_hal_nand.c ****       }
 578:Drivers/STM32L4xx_HAL_Driver/Src/stm32l4xx_hal_nand.c ****       else /* (hnand->Config.PageSize) > 512 */
 579:Drivers/STM32L4xx_HAL_Driver/Src/stm32l4xx_hal_nand.c ****       {
 580:Drivers/STM32L4xx_HAL_Driver/Src/stm32l4xx_hal_nand.c ****         if (((hnand->Config.BlockSize) * (hnand->Config.BlockNbr)) <= 65535U)
 1074              		.loc 1 580 28
 1075 012e FB68     		ldr	r3, [r7, #12]
 1076 0130 DB6A     		ldr	r3, [r3, #44]
 1077              		.loc 1 580 56
 1078 0132 FA68     		ldr	r2, [r7, #12]
 1079 0134 126B     		ldr	r2, [r2, #48]
 1080              		.loc 1 580 40
 1081 0136 02FB03F3 		mul	r3, r2, r3
 1082              		.loc 1 580 12
 1083 013a B3F5803F 		cmp	r3, #65536
 1084 013e 22D2     		bcs	.L41
 581:Drivers/STM32L4xx_HAL_Driver/Src/stm32l4xx_hal_nand.c ****         {
 582:Drivers/STM32L4xx_HAL_Driver/Src/stm32l4xx_hal_nand.c ****           *(__IO uint8_t *)((uint32_t)(deviceaddress | ADDR_AREA)) = 0x00U;
 1085              		.loc 1 582 29
 1086 0140 7B69     		ldr	r3, [r7, #20]
 1087 0142 43F40033 		orr	r3, r3, #131072
 1088              		.loc 1 582 68
 1089 0146 0022     		movs	r2, #0
 1090 0148 1A70     		strb	r2, [r3]
 1091              	.LBB360:
 1092              	.LBB361:
 946:Drivers/CMSIS/Core/Include/cmsis_gcc.h **** }
 1093              		.loc 2 946 3
 1094              		.syntax unified
 1095              	@ 946 "Drivers/CMSIS/Core/Include/cmsis_gcc.h" 1
 1096 014a BFF34F8F 		dsb 0xF
 1097              	@ 0 "" 2
 1098              		.loc 2 947 1
 1099              		.thumb
 1100              		.syntax unified
 1101 014e 00BF     		nop
ARM GAS  /tmp/ccUr9KqT.s 			page 47


 1102              	.LBE361:
 1103              	.LBE360:
 583:Drivers/STM32L4xx_HAL_Driver/Src/stm32l4xx_hal_nand.c ****           __DSB();
 584:Drivers/STM32L4xx_HAL_Driver/Src/stm32l4xx_hal_nand.c ****           *(__IO uint8_t *)((uint32_t)(deviceaddress | ADDR_AREA)) = 0x00U;
 1104              		.loc 1 584 29
 1105 0150 7B69     		ldr	r3, [r7, #20]
 1106 0152 43F40033 		orr	r3, r3, #131072
 1107              		.loc 1 584 68
 1108 0156 0022     		movs	r2, #0
 1109 0158 1A70     		strb	r2, [r3]
 1110              	.LBB362:
 1111              	.LBB363:
 946:Drivers/CMSIS/Core/Include/cmsis_gcc.h **** }
 1112              		.loc 2 946 3
 1113              		.syntax unified
 1114              	@ 946 "Drivers/CMSIS/Core/Include/cmsis_gcc.h" 1
 1115 015a BFF34F8F 		dsb 0xF
 1116              	@ 0 "" 2
 1117              		.loc 2 947 1
 1118              		.thumb
 1119              		.syntax unified
 1120 015e 00BF     		nop
 1121              	.LBE363:
 1122              	.LBE362:
 585:Drivers/STM32L4xx_HAL_Driver/Src/stm32l4xx_hal_nand.c ****           __DSB();
 586:Drivers/STM32L4xx_HAL_Driver/Src/stm32l4xx_hal_nand.c ****           *(__IO uint8_t *)((uint32_t)(deviceaddress | ADDR_AREA)) = ADDR_1ST_CYCLE(nandaddress);
 1123              		.loc 1 586 29
 1124 0160 7B69     		ldr	r3, [r7, #20]
 1125 0162 43F40033 		orr	r3, r3, #131072
 1126              		.loc 1 586 70
 1127 0166 3A6A     		ldr	r2, [r7, #32]
 1128 0168 D2B2     		uxtb	r2, r2
 1129              		.loc 1 586 68
 1130 016a 1A70     		strb	r2, [r3]
 1131              	.LBB364:
 1132              	.LBB365:
 946:Drivers/CMSIS/Core/Include/cmsis_gcc.h **** }
 1133              		.loc 2 946 3
 1134              		.syntax unified
 1135              	@ 946 "Drivers/CMSIS/Core/Include/cmsis_gcc.h" 1
 1136 016c BFF34F8F 		dsb 0xF
 1137              	@ 0 "" 2
 1138              		.loc 2 947 1
 1139              		.thumb
 1140              		.syntax unified
 1141 0170 00BF     		nop
 1142              	.LBE365:
 1143              	.LBE364:
 587:Drivers/STM32L4xx_HAL_Driver/Src/stm32l4xx_hal_nand.c ****           __DSB();
 588:Drivers/STM32L4xx_HAL_Driver/Src/stm32l4xx_hal_nand.c ****           *(__IO uint8_t *)((uint32_t)(deviceaddress | ADDR_AREA)) = ADDR_2ND_CYCLE(nandaddress);
 1144              		.loc 1 588 70
 1145 0172 3B6A     		ldr	r3, [r7, #32]
 1146 0174 1A0A     		lsrs	r2, r3, #8
 1147              		.loc 1 588 29
 1148 0176 7B69     		ldr	r3, [r7, #20]
 1149 0178 43F40033 		orr	r3, r3, #131072
 1150              		.loc 1 588 70
ARM GAS  /tmp/ccUr9KqT.s 			page 48


 1151 017c D2B2     		uxtb	r2, r2
 1152              		.loc 1 588 68
 1153 017e 1A70     		strb	r2, [r3]
 1154              	.LBB366:
 1155              	.LBB367:
 946:Drivers/CMSIS/Core/Include/cmsis_gcc.h **** }
 1156              		.loc 2 946 3
 1157              		.syntax unified
 1158              	@ 946 "Drivers/CMSIS/Core/Include/cmsis_gcc.h" 1
 1159 0180 BFF34F8F 		dsb 0xF
 1160              	@ 0 "" 2
 1161              		.loc 2 947 1
 1162              		.thumb
 1163              		.syntax unified
 1164 0184 2CE0     		b	.L40
 1165              	.L41:
 1166              	.LBE367:
 1167              	.LBE366:
 589:Drivers/STM32L4xx_HAL_Driver/Src/stm32l4xx_hal_nand.c ****           __DSB();
 590:Drivers/STM32L4xx_HAL_Driver/Src/stm32l4xx_hal_nand.c ****         }
 591:Drivers/STM32L4xx_HAL_Driver/Src/stm32l4xx_hal_nand.c ****         else /* ((hnand->Config.BlockSize)*(hnand->Config.BlockNbr)) > 65535 */
 592:Drivers/STM32L4xx_HAL_Driver/Src/stm32l4xx_hal_nand.c ****         {
 593:Drivers/STM32L4xx_HAL_Driver/Src/stm32l4xx_hal_nand.c ****           *(__IO uint8_t *)((uint32_t)(deviceaddress | ADDR_AREA)) = 0x00U;
 1168              		.loc 1 593 29
 1169 0186 7B69     		ldr	r3, [r7, #20]
 1170 0188 43F40033 		orr	r3, r3, #131072
 1171              		.loc 1 593 68
 1172 018c 0022     		movs	r2, #0
 1173 018e 1A70     		strb	r2, [r3]
 1174              	.LBB368:
 1175              	.LBB369:
 946:Drivers/CMSIS/Core/Include/cmsis_gcc.h **** }
 1176              		.loc 2 946 3
 1177              		.syntax unified
 1178              	@ 946 "Drivers/CMSIS/Core/Include/cmsis_gcc.h" 1
 1179 0190 BFF34F8F 		dsb 0xF
 1180              	@ 0 "" 2
 1181              		.loc 2 947 1
 1182              		.thumb
 1183              		.syntax unified
 1184 0194 00BF     		nop
 1185              	.LBE369:
 1186              	.LBE368:
 594:Drivers/STM32L4xx_HAL_Driver/Src/stm32l4xx_hal_nand.c ****           __DSB();
 595:Drivers/STM32L4xx_HAL_Driver/Src/stm32l4xx_hal_nand.c ****           *(__IO uint8_t *)((uint32_t)(deviceaddress | ADDR_AREA)) = 0x00U;
 1187              		.loc 1 595 29
 1188 0196 7B69     		ldr	r3, [r7, #20]
 1189 0198 43F40033 		orr	r3, r3, #131072
 1190              		.loc 1 595 68
 1191 019c 0022     		movs	r2, #0
 1192 019e 1A70     		strb	r2, [r3]
 1193              	.LBB370:
 1194              	.LBB371:
 946:Drivers/CMSIS/Core/Include/cmsis_gcc.h **** }
 1195              		.loc 2 946 3
 1196              		.syntax unified
 1197              	@ 946 "Drivers/CMSIS/Core/Include/cmsis_gcc.h" 1
ARM GAS  /tmp/ccUr9KqT.s 			page 49


 1198 01a0 BFF34F8F 		dsb 0xF
 1199              	@ 0 "" 2
 1200              		.loc 2 947 1
 1201              		.thumb
 1202              		.syntax unified
 1203 01a4 00BF     		nop
 1204              	.LBE371:
 1205              	.LBE370:
 596:Drivers/STM32L4xx_HAL_Driver/Src/stm32l4xx_hal_nand.c ****           __DSB();
 597:Drivers/STM32L4xx_HAL_Driver/Src/stm32l4xx_hal_nand.c ****           *(__IO uint8_t *)((uint32_t)(deviceaddress | ADDR_AREA)) = ADDR_1ST_CYCLE(nandaddress);
 1206              		.loc 1 597 29
 1207 01a6 7B69     		ldr	r3, [r7, #20]
 1208 01a8 43F40033 		orr	r3, r3, #131072
 1209              		.loc 1 597 70
 1210 01ac 3A6A     		ldr	r2, [r7, #32]
 1211 01ae D2B2     		uxtb	r2, r2
 1212              		.loc 1 597 68
 1213 01b0 1A70     		strb	r2, [r3]
 1214              	.LBB372:
 1215              	.LBB373:
 946:Drivers/CMSIS/Core/Include/cmsis_gcc.h **** }
 1216              		.loc 2 946 3
 1217              		.syntax unified
 1218              	@ 946 "Drivers/CMSIS/Core/Include/cmsis_gcc.h" 1
 1219 01b2 BFF34F8F 		dsb 0xF
 1220              	@ 0 "" 2
 1221              		.loc 2 947 1
 1222              		.thumb
 1223              		.syntax unified
 1224 01b6 00BF     		nop
 1225              	.LBE373:
 1226              	.LBE372:
 598:Drivers/STM32L4xx_HAL_Driver/Src/stm32l4xx_hal_nand.c ****           __DSB();
 599:Drivers/STM32L4xx_HAL_Driver/Src/stm32l4xx_hal_nand.c ****           *(__IO uint8_t *)((uint32_t)(deviceaddress | ADDR_AREA)) = ADDR_2ND_CYCLE(nandaddress);
 1227              		.loc 1 599 70
 1228 01b8 3B6A     		ldr	r3, [r7, #32]
 1229 01ba 1A0A     		lsrs	r2, r3, #8
 1230              		.loc 1 599 29
 1231 01bc 7B69     		ldr	r3, [r7, #20]
 1232 01be 43F40033 		orr	r3, r3, #131072
 1233              		.loc 1 599 70
 1234 01c2 D2B2     		uxtb	r2, r2
 1235              		.loc 1 599 68
 1236 01c4 1A70     		strb	r2, [r3]
 1237              	.LBB374:
 1238              	.LBB375:
 946:Drivers/CMSIS/Core/Include/cmsis_gcc.h **** }
 1239              		.loc 2 946 3
 1240              		.syntax unified
 1241              	@ 946 "Drivers/CMSIS/Core/Include/cmsis_gcc.h" 1
 1242 01c6 BFF34F8F 		dsb 0xF
 1243              	@ 0 "" 2
 1244              		.loc 2 947 1
 1245              		.thumb
 1246              		.syntax unified
 1247 01ca 00BF     		nop
 1248              	.LBE375:
ARM GAS  /tmp/ccUr9KqT.s 			page 50


 1249              	.LBE374:
 600:Drivers/STM32L4xx_HAL_Driver/Src/stm32l4xx_hal_nand.c ****           __DSB();
 601:Drivers/STM32L4xx_HAL_Driver/Src/stm32l4xx_hal_nand.c ****           *(__IO uint8_t *)((uint32_t)(deviceaddress | ADDR_AREA)) = ADDR_3RD_CYCLE(nandaddress);
 1250              		.loc 1 601 70
 1251 01cc 3B6A     		ldr	r3, [r7, #32]
 1252 01ce 1A0C     		lsrs	r2, r3, #16
 1253              		.loc 1 601 29
 1254 01d0 7B69     		ldr	r3, [r7, #20]
 1255 01d2 43F40033 		orr	r3, r3, #131072
 1256              		.loc 1 601 70
 1257 01d6 D2B2     		uxtb	r2, r2
 1258              		.loc 1 601 68
 1259 01d8 1A70     		strb	r2, [r3]
 1260              	.LBB376:
 1261              	.LBB377:
 946:Drivers/CMSIS/Core/Include/cmsis_gcc.h **** }
 1262              		.loc 2 946 3
 1263              		.syntax unified
 1264              	@ 946 "Drivers/CMSIS/Core/Include/cmsis_gcc.h" 1
 1265 01da BFF34F8F 		dsb 0xF
 1266              	@ 0 "" 2
 1267              		.loc 2 947 1
 1268              		.thumb
 1269              		.syntax unified
 1270 01de 00BF     		nop
 1271              	.L40:
 1272              	.LBE377:
 1273              	.LBE376:
 602:Drivers/STM32L4xx_HAL_Driver/Src/stm32l4xx_hal_nand.c ****           __DSB();
 603:Drivers/STM32L4xx_HAL_Driver/Src/stm32l4xx_hal_nand.c ****         }
 604:Drivers/STM32L4xx_HAL_Driver/Src/stm32l4xx_hal_nand.c ****       }
 605:Drivers/STM32L4xx_HAL_Driver/Src/stm32l4xx_hal_nand.c **** 
 606:Drivers/STM32L4xx_HAL_Driver/Src/stm32l4xx_hal_nand.c ****       *(__IO uint8_t *)((uint32_t)(deviceaddress | CMD_AREA))  = NAND_CMD_AREA_TRUE1;
 1274              		.loc 1 606 25
 1275 01e0 7B69     		ldr	r3, [r7, #20]
 1276 01e2 43F48033 		orr	r3, r3, #65536
 1277              		.loc 1 606 64
 1278 01e6 3022     		movs	r2, #48
 1279 01e8 1A70     		strb	r2, [r3]
 1280              	.LBB378:
 1281              	.LBB379:
 946:Drivers/CMSIS/Core/Include/cmsis_gcc.h **** }
 1282              		.loc 2 946 3
 1283              		.syntax unified
 1284              	@ 946 "Drivers/CMSIS/Core/Include/cmsis_gcc.h" 1
 1285 01ea BFF34F8F 		dsb 0xF
 1286              	@ 0 "" 2
 1287              		.loc 2 947 1
 1288              		.thumb
 1289              		.syntax unified
 1290 01ee 00BF     		nop
 1291              	.LBE379:
 1292              	.LBE378:
 607:Drivers/STM32L4xx_HAL_Driver/Src/stm32l4xx_hal_nand.c ****       __DSB();
 608:Drivers/STM32L4xx_HAL_Driver/Src/stm32l4xx_hal_nand.c **** 
 609:Drivers/STM32L4xx_HAL_Driver/Src/stm32l4xx_hal_nand.c **** 
 610:Drivers/STM32L4xx_HAL_Driver/Src/stm32l4xx_hal_nand.c ****       if (hnand->Config.ExtraCommandEnable == ENABLE)
ARM GAS  /tmp/ccUr9KqT.s 			page 51


 1293              		.loc 1 610 24
 1294 01f0 FB68     		ldr	r3, [r7, #12]
 1295 01f2 93F83C30 		ldrb	r3, [r3, #60]	@ zero_extendqisi2
 1296              		.loc 1 610 10
 1297 01f6 012B     		cmp	r3, #1
 1298 01f8 23D1     		bne	.L42
 611:Drivers/STM32L4xx_HAL_Driver/Src/stm32l4xx_hal_nand.c ****       {
 612:Drivers/STM32L4xx_HAL_Driver/Src/stm32l4xx_hal_nand.c ****         /* Get tick */
 613:Drivers/STM32L4xx_HAL_Driver/Src/stm32l4xx_hal_nand.c ****         tickstart = HAL_GetTick();
 1299              		.loc 1 613 21
 1300 01fa FFF7FEFF 		bl	HAL_GetTick
 1301 01fe 3861     		str	r0, [r7, #16]
 614:Drivers/STM32L4xx_HAL_Driver/Src/stm32l4xx_hal_nand.c **** 
 615:Drivers/STM32L4xx_HAL_Driver/Src/stm32l4xx_hal_nand.c ****         /* Read status until NAND is ready */
 616:Drivers/STM32L4xx_HAL_Driver/Src/stm32l4xx_hal_nand.c ****         while (HAL_NAND_Read_Status(hnand) != NAND_READY)
 1302              		.loc 1 616 15
 1303 0200 11E0     		b	.L43
 1304              	.L44:
 617:Drivers/STM32L4xx_HAL_Driver/Src/stm32l4xx_hal_nand.c ****         {
 618:Drivers/STM32L4xx_HAL_Driver/Src/stm32l4xx_hal_nand.c ****           if ((HAL_GetTick() - tickstart) > NAND_WRITE_TIMEOUT)
 1305              		.loc 1 618 16
 1306 0202 FFF7FEFF 		bl	HAL_GetTick
 1307 0206 0246     		mov	r2, r0
 1308              		.loc 1 618 30 discriminator 1
 1309 0208 3B69     		ldr	r3, [r7, #16]
 1310 020a D31A     		subs	r3, r2, r3
 1311              		.loc 1 618 14 discriminator 1
 1312 020c B3F1807F 		cmp	r3, #16777216
 1313 0210 09D9     		bls	.L43
 619:Drivers/STM32L4xx_HAL_Driver/Src/stm32l4xx_hal_nand.c ****           {
 620:Drivers/STM32L4xx_HAL_Driver/Src/stm32l4xx_hal_nand.c ****             /* Update the NAND controller state */
 621:Drivers/STM32L4xx_HAL_Driver/Src/stm32l4xx_hal_nand.c ****             hnand->State = HAL_NAND_STATE_ERROR;
 1314              		.loc 1 621 26
 1315 0212 FB68     		ldr	r3, [r7, #12]
 1316 0214 0322     		movs	r2, #3
 1317 0216 83F82120 		strb	r2, [r3, #33]
 622:Drivers/STM32L4xx_HAL_Driver/Src/stm32l4xx_hal_nand.c **** 
 623:Drivers/STM32L4xx_HAL_Driver/Src/stm32l4xx_hal_nand.c ****             /* Process unlocked */
 624:Drivers/STM32L4xx_HAL_Driver/Src/stm32l4xx_hal_nand.c ****             __HAL_UNLOCK(hnand);
 1318              		.loc 1 624 13
 1319 021a FB68     		ldr	r3, [r7, #12]
 1320 021c 0022     		movs	r2, #0
 1321 021e 83F82020 		strb	r2, [r3, #32]
 625:Drivers/STM32L4xx_HAL_Driver/Src/stm32l4xx_hal_nand.c **** 
 626:Drivers/STM32L4xx_HAL_Driver/Src/stm32l4xx_hal_nand.c ****             return HAL_TIMEOUT;
 1322              		.loc 1 626 20
 1323 0222 0323     		movs	r3, #3
 1324 0224 3EE0     		b	.L34
 1325              	.L43:
 616:Drivers/STM32L4xx_HAL_Driver/Src/stm32l4xx_hal_nand.c ****         {
 1326              		.loc 1 616 16
 1327 0226 F868     		ldr	r0, [r7, #12]
 1328 0228 FFF7FEFF 		bl	HAL_NAND_Read_Status
 1329 022c 0346     		mov	r3, r0
 616:Drivers/STM32L4xx_HAL_Driver/Src/stm32l4xx_hal_nand.c ****         {
 1330              		.loc 1 616 44 discriminator 1
 1331 022e 402B     		cmp	r3, #64
ARM GAS  /tmp/ccUr9KqT.s 			page 52


 1332 0230 E7D1     		bne	.L44
 627:Drivers/STM32L4xx_HAL_Driver/Src/stm32l4xx_hal_nand.c ****           }
 628:Drivers/STM32L4xx_HAL_Driver/Src/stm32l4xx_hal_nand.c ****         }
 629:Drivers/STM32L4xx_HAL_Driver/Src/stm32l4xx_hal_nand.c **** 
 630:Drivers/STM32L4xx_HAL_Driver/Src/stm32l4xx_hal_nand.c ****         /* Go back to read mode */
 631:Drivers/STM32L4xx_HAL_Driver/Src/stm32l4xx_hal_nand.c ****         *(__IO uint8_t *)((uint32_t)(deviceaddress | CMD_AREA)) = ((uint8_t)0x00);
 1333              		.loc 1 631 27
 1334 0232 7B69     		ldr	r3, [r7, #20]
 1335 0234 43F48033 		orr	r3, r3, #65536
 1336              		.loc 1 631 65
 1337 0238 0022     		movs	r2, #0
 1338 023a 1A70     		strb	r2, [r3]
 1339              	.LBB380:
 1340              	.LBB381:
 946:Drivers/CMSIS/Core/Include/cmsis_gcc.h **** }
 1341              		.loc 2 946 3
 1342              		.syntax unified
 1343              	@ 946 "Drivers/CMSIS/Core/Include/cmsis_gcc.h" 1
 1344 023c BFF34F8F 		dsb 0xF
 1345              	@ 0 "" 2
 1346              		.loc 2 947 1
 1347              		.thumb
 1348              		.syntax unified
 1349 0240 00BF     		nop
 1350              	.L42:
 1351              	.LBE381:
 1352              	.LBE380:
 632:Drivers/STM32L4xx_HAL_Driver/Src/stm32l4xx_hal_nand.c ****         __DSB();
 633:Drivers/STM32L4xx_HAL_Driver/Src/stm32l4xx_hal_nand.c ****       }
 634:Drivers/STM32L4xx_HAL_Driver/Src/stm32l4xx_hal_nand.c **** 
 635:Drivers/STM32L4xx_HAL_Driver/Src/stm32l4xx_hal_nand.c ****       /* Get Data into Buffer */
 636:Drivers/STM32L4xx_HAL_Driver/Src/stm32l4xx_hal_nand.c ****       for (index = 0U; index < hnand->Config.PageSize; index++)
 1353              		.loc 1 636 18
 1354 0242 0023     		movs	r3, #0
 1355 0244 7B62     		str	r3, [r7, #36]
 1356              		.loc 1 636 7
 1357 0246 0AE0     		b	.L45
 1358              	.L46:
 637:Drivers/STM32L4xx_HAL_Driver/Src/stm32l4xx_hal_nand.c ****       {
 638:Drivers/STM32L4xx_HAL_Driver/Src/stm32l4xx_hal_nand.c ****         *buff = *(__IO uint8_t *)deviceaddress;
 1359              		.loc 1 638 18
 1360 0248 7B69     		ldr	r3, [r7, #20]
 1361              		.loc 1 638 17
 1362 024a 1B78     		ldrb	r3, [r3]
 1363 024c DAB2     		uxtb	r2, r3
 1364              		.loc 1 638 15
 1365 024e BB69     		ldr	r3, [r7, #24]
 1366 0250 1A70     		strb	r2, [r3]
 639:Drivers/STM32L4xx_HAL_Driver/Src/stm32l4xx_hal_nand.c ****         buff++;
 1367              		.loc 1 639 13
 1368 0252 BB69     		ldr	r3, [r7, #24]
 1369 0254 0133     		adds	r3, r3, #1
 1370 0256 BB61     		str	r3, [r7, #24]
 636:Drivers/STM32L4xx_HAL_Driver/Src/stm32l4xx_hal_nand.c ****       {
 1371              		.loc 1 636 61 discriminator 3
 1372 0258 7B6A     		ldr	r3, [r7, #36]
 1373 025a 0133     		adds	r3, r3, #1
ARM GAS  /tmp/ccUr9KqT.s 			page 53


 1374 025c 7B62     		str	r3, [r7, #36]
 1375              	.L45:
 636:Drivers/STM32L4xx_HAL_Driver/Src/stm32l4xx_hal_nand.c ****       {
 1376              		.loc 1 636 45 discriminator 1
 1377 025e FB68     		ldr	r3, [r7, #12]
 1378 0260 5B6A     		ldr	r3, [r3, #36]
 636:Drivers/STM32L4xx_HAL_Driver/Src/stm32l4xx_hal_nand.c ****       {
 1379              		.loc 1 636 30 discriminator 1
 1380 0262 7A6A     		ldr	r2, [r7, #36]
 1381 0264 9A42     		cmp	r2, r3
 1382 0266 EFD3     		bcc	.L46
 640:Drivers/STM32L4xx_HAL_Driver/Src/stm32l4xx_hal_nand.c ****       }
 641:Drivers/STM32L4xx_HAL_Driver/Src/stm32l4xx_hal_nand.c **** 
 642:Drivers/STM32L4xx_HAL_Driver/Src/stm32l4xx_hal_nand.c ****       /* Decrement pages to read */
 643:Drivers/STM32L4xx_HAL_Driver/Src/stm32l4xx_hal_nand.c ****       nbpages--;
 1383              		.loc 1 643 14
 1384 0268 FB69     		ldr	r3, [r7, #28]
 1385 026a 013B     		subs	r3, r3, #1
 1386 026c FB61     		str	r3, [r7, #28]
 644:Drivers/STM32L4xx_HAL_Driver/Src/stm32l4xx_hal_nand.c **** 
 645:Drivers/STM32L4xx_HAL_Driver/Src/stm32l4xx_hal_nand.c ****       /* Increment the NAND address */
 646:Drivers/STM32L4xx_HAL_Driver/Src/stm32l4xx_hal_nand.c ****       nandaddress = (uint32_t)(nandaddress + 1U);
 1387              		.loc 1 646 19
 1388 026e 3B6A     		ldr	r3, [r7, #32]
 1389 0270 0133     		adds	r3, r3, #1
 1390 0272 3B62     		str	r3, [r7, #32]
 1391              	.L37:
 548:Drivers/STM32L4xx_HAL_Driver/Src/stm32l4xx_hal_nand.c ****     {
 1392              		.loc 1 548 28
 1393 0274 FB69     		ldr	r3, [r7, #28]
 1394 0276 002B     		cmp	r3, #0
 1395 0278 09D0     		beq	.L47
 548:Drivers/STM32L4xx_HAL_Driver/Src/stm32l4xx_hal_nand.c ****     {
 1396              		.loc 1 548 61 discriminator 1
 1397 027a FB68     		ldr	r3, [r7, #12]
 1398 027c DB6A     		ldr	r3, [r3, #44]
 548:Drivers/STM32L4xx_HAL_Driver/Src/stm32l4xx_hal_nand.c ****     {
 1399              		.loc 1 548 89 discriminator 1
 1400 027e FA68     		ldr	r2, [r7, #12]
 1401 0280 126B     		ldr	r2, [r2, #48]
 548:Drivers/STM32L4xx_HAL_Driver/Src/stm32l4xx_hal_nand.c ****     {
 1402              		.loc 1 548 73 discriminator 1
 1403 0282 02FB03F3 		mul	r3, r2, r3
 548:Drivers/STM32L4xx_HAL_Driver/Src/stm32l4xx_hal_nand.c ****     {
 1404              		.loc 1 548 28 discriminator 1
 1405 0286 3A6A     		ldr	r2, [r7, #32]
 1406 0288 9A42     		cmp	r2, r3
 1407 028a FFF4FAAE 		bcc	.L48
 1408              	.L47:
 647:Drivers/STM32L4xx_HAL_Driver/Src/stm32l4xx_hal_nand.c ****     }
 648:Drivers/STM32L4xx_HAL_Driver/Src/stm32l4xx_hal_nand.c **** 
 649:Drivers/STM32L4xx_HAL_Driver/Src/stm32l4xx_hal_nand.c ****     /* Update the NAND controller state */
 650:Drivers/STM32L4xx_HAL_Driver/Src/stm32l4xx_hal_nand.c ****     hnand->State = HAL_NAND_STATE_READY;
 1409              		.loc 1 650 18
 1410 028e FB68     		ldr	r3, [r7, #12]
 1411 0290 0122     		movs	r2, #1
 1412 0292 83F82120 		strb	r2, [r3, #33]
ARM GAS  /tmp/ccUr9KqT.s 			page 54


 651:Drivers/STM32L4xx_HAL_Driver/Src/stm32l4xx_hal_nand.c **** 
 652:Drivers/STM32L4xx_HAL_Driver/Src/stm32l4xx_hal_nand.c ****     /* Process unlocked */
 653:Drivers/STM32L4xx_HAL_Driver/Src/stm32l4xx_hal_nand.c ****     __HAL_UNLOCK(hnand);
 1413              		.loc 1 653 5
 1414 0296 FB68     		ldr	r3, [r7, #12]
 1415 0298 0022     		movs	r2, #0
 1416 029a 83F82020 		strb	r2, [r3, #32]
 654:Drivers/STM32L4xx_HAL_Driver/Src/stm32l4xx_hal_nand.c ****   }
 655:Drivers/STM32L4xx_HAL_Driver/Src/stm32l4xx_hal_nand.c ****   else
 656:Drivers/STM32L4xx_HAL_Driver/Src/stm32l4xx_hal_nand.c ****   {
 657:Drivers/STM32L4xx_HAL_Driver/Src/stm32l4xx_hal_nand.c ****     return HAL_ERROR;
 658:Drivers/STM32L4xx_HAL_Driver/Src/stm32l4xx_hal_nand.c ****   }
 659:Drivers/STM32L4xx_HAL_Driver/Src/stm32l4xx_hal_nand.c **** 
 660:Drivers/STM32L4xx_HAL_Driver/Src/stm32l4xx_hal_nand.c ****   return HAL_OK;
 1417              		.loc 1 660 10
 1418 029e 0023     		movs	r3, #0
 1419 02a0 00E0     		b	.L34
 1420              	.L35:
 657:Drivers/STM32L4xx_HAL_Driver/Src/stm32l4xx_hal_nand.c ****   }
 1421              		.loc 1 657 12
 1422 02a2 0123     		movs	r3, #1
 1423              	.L34:
 661:Drivers/STM32L4xx_HAL_Driver/Src/stm32l4xx_hal_nand.c **** }
 1424              		.loc 1 661 1
 1425 02a4 1846     		mov	r0, r3
 1426 02a6 2837     		adds	r7, r7, #40
 1427              		.cfi_def_cfa_offset 8
 1428 02a8 BD46     		mov	sp, r7
 1429              		.cfi_def_cfa_register 13
 1430              		@ sp needed
 1431 02aa 80BD     		pop	{r7, pc}
 1432              		.cfi_endproc
 1433              	.LFE454:
 1435              		.section	.text.HAL_NAND_Read_Page_16b,"ax",%progbits
 1436              		.align	1
 1437              		.global	HAL_NAND_Read_Page_16b
 1438              		.syntax unified
 1439              		.thumb
 1440              		.thumb_func
 1442              	HAL_NAND_Read_Page_16b:
 1443              	.LFB455:
 662:Drivers/STM32L4xx_HAL_Driver/Src/stm32l4xx_hal_nand.c **** 
 663:Drivers/STM32L4xx_HAL_Driver/Src/stm32l4xx_hal_nand.c **** /**
 664:Drivers/STM32L4xx_HAL_Driver/Src/stm32l4xx_hal_nand.c ****   * @brief  Read Page(s) from NAND memory block (16-bits addressing)
 665:Drivers/STM32L4xx_HAL_Driver/Src/stm32l4xx_hal_nand.c ****   * @param  hnand pointer to a NAND_HandleTypeDef structure that contains
 666:Drivers/STM32L4xx_HAL_Driver/Src/stm32l4xx_hal_nand.c ****   *                the configuration information for NAND module.
 667:Drivers/STM32L4xx_HAL_Driver/Src/stm32l4xx_hal_nand.c ****   * @param  pAddress  pointer to NAND address structure
 668:Drivers/STM32L4xx_HAL_Driver/Src/stm32l4xx_hal_nand.c ****   * @param  pBuffer  pointer to destination read buffer. pBuffer should be 16bits aligned
 669:Drivers/STM32L4xx_HAL_Driver/Src/stm32l4xx_hal_nand.c ****   * @param  NumPageToRead  number of pages to read from block
 670:Drivers/STM32L4xx_HAL_Driver/Src/stm32l4xx_hal_nand.c ****   * @retval HAL status
 671:Drivers/STM32L4xx_HAL_Driver/Src/stm32l4xx_hal_nand.c ****   */
 672:Drivers/STM32L4xx_HAL_Driver/Src/stm32l4xx_hal_nand.c **** HAL_StatusTypeDef HAL_NAND_Read_Page_16b(NAND_HandleTypeDef *hnand, const NAND_AddressTypeDef *pAdd
 673:Drivers/STM32L4xx_HAL_Driver/Src/stm32l4xx_hal_nand.c ****                                          uint16_t *pBuffer, uint32_t NumPageToRead)
 674:Drivers/STM32L4xx_HAL_Driver/Src/stm32l4xx_hal_nand.c **** {
 1444              		.loc 1 674 1
 1445              		.cfi_startproc
 1446              		@ args = 0, pretend = 0, frame = 40
ARM GAS  /tmp/ccUr9KqT.s 			page 55


 1447              		@ frame_needed = 1, uses_anonymous_args = 0
 1448 0000 80B5     		push	{r7, lr}
 1449              		.cfi_def_cfa_offset 8
 1450              		.cfi_offset 7, -8
 1451              		.cfi_offset 14, -4
 1452 0002 8AB0     		sub	sp, sp, #40
 1453              		.cfi_def_cfa_offset 48
 1454 0004 00AF     		add	r7, sp, #0
 1455              		.cfi_def_cfa_register 7
 1456 0006 F860     		str	r0, [r7, #12]
 1457 0008 B960     		str	r1, [r7, #8]
 1458 000a 7A60     		str	r2, [r7, #4]
 1459 000c 3B60     		str	r3, [r7]
 675:Drivers/STM32L4xx_HAL_Driver/Src/stm32l4xx_hal_nand.c ****   uint32_t index;
 676:Drivers/STM32L4xx_HAL_Driver/Src/stm32l4xx_hal_nand.c ****   uint32_t tickstart;
 677:Drivers/STM32L4xx_HAL_Driver/Src/stm32l4xx_hal_nand.c ****   uint32_t deviceaddress;
 678:Drivers/STM32L4xx_HAL_Driver/Src/stm32l4xx_hal_nand.c ****   uint32_t nandaddress;
 679:Drivers/STM32L4xx_HAL_Driver/Src/stm32l4xx_hal_nand.c ****   uint32_t nbpages = NumPageToRead;
 1460              		.loc 1 679 12
 1461 000e 3B68     		ldr	r3, [r7]
 1462 0010 FB61     		str	r3, [r7, #28]
 680:Drivers/STM32L4xx_HAL_Driver/Src/stm32l4xx_hal_nand.c ****   uint16_t *buff = pBuffer;
 1463              		.loc 1 680 13
 1464 0012 7B68     		ldr	r3, [r7, #4]
 1465 0014 BB61     		str	r3, [r7, #24]
 681:Drivers/STM32L4xx_HAL_Driver/Src/stm32l4xx_hal_nand.c **** 
 682:Drivers/STM32L4xx_HAL_Driver/Src/stm32l4xx_hal_nand.c ****   /* Check the NAND controller state */
 683:Drivers/STM32L4xx_HAL_Driver/Src/stm32l4xx_hal_nand.c ****   if (hnand->State == HAL_NAND_STATE_BUSY)
 1466              		.loc 1 683 12
 1467 0016 FB68     		ldr	r3, [r7, #12]
 1468 0018 93F82130 		ldrb	r3, [r3, #33]
 1469 001c DBB2     		uxtb	r3, r3
 1470              		.loc 1 683 6
 1471 001e 022B     		cmp	r3, #2
 1472 0020 01D1     		bne	.L51
 684:Drivers/STM32L4xx_HAL_Driver/Src/stm32l4xx_hal_nand.c ****   {
 685:Drivers/STM32L4xx_HAL_Driver/Src/stm32l4xx_hal_nand.c ****     return HAL_BUSY;
 1473              		.loc 1 685 12
 1474 0022 0223     		movs	r3, #2
 1475 0024 47E1     		b	.L52
 1476              	.L51:
 686:Drivers/STM32L4xx_HAL_Driver/Src/stm32l4xx_hal_nand.c ****   }
 687:Drivers/STM32L4xx_HAL_Driver/Src/stm32l4xx_hal_nand.c ****   else if (hnand->State == HAL_NAND_STATE_READY)
 1477              		.loc 1 687 17
 1478 0026 FB68     		ldr	r3, [r7, #12]
 1479 0028 93F82130 		ldrb	r3, [r3, #33]
 1480 002c DBB2     		uxtb	r3, r3
 1481              		.loc 1 687 11
 1482 002e 012B     		cmp	r3, #1
 1483 0030 40F04081 		bne	.L53
 688:Drivers/STM32L4xx_HAL_Driver/Src/stm32l4xx_hal_nand.c ****   {
 689:Drivers/STM32L4xx_HAL_Driver/Src/stm32l4xx_hal_nand.c ****     /* Process Locked */
 690:Drivers/STM32L4xx_HAL_Driver/Src/stm32l4xx_hal_nand.c ****     __HAL_LOCK(hnand);
 1484              		.loc 1 690 5
 1485 0034 FB68     		ldr	r3, [r7, #12]
 1486 0036 93F82030 		ldrb	r3, [r3, #32]	@ zero_extendqisi2
 1487 003a 012B     		cmp	r3, #1
ARM GAS  /tmp/ccUr9KqT.s 			page 56


 1488 003c 01D1     		bne	.L54
 1489              		.loc 1 690 5 is_stmt 0 discriminator 1
 1490 003e 0223     		movs	r3, #2
 1491              		.loc 1 690 5
 1492 0040 39E1     		b	.L52
 1493              	.L54:
 1494              		.loc 1 690 5 discriminator 2
 1495 0042 FB68     		ldr	r3, [r7, #12]
 1496 0044 0122     		movs	r2, #1
 1497 0046 83F82020 		strb	r2, [r3, #32]
 691:Drivers/STM32L4xx_HAL_Driver/Src/stm32l4xx_hal_nand.c **** 
 692:Drivers/STM32L4xx_HAL_Driver/Src/stm32l4xx_hal_nand.c ****     /* Update the NAND controller state */
 693:Drivers/STM32L4xx_HAL_Driver/Src/stm32l4xx_hal_nand.c ****     hnand->State = HAL_NAND_STATE_BUSY;
 1498              		.loc 1 693 18 is_stmt 1
 1499 004a FB68     		ldr	r3, [r7, #12]
 1500 004c 0222     		movs	r2, #2
 1501 004e 83F82120 		strb	r2, [r3, #33]
 694:Drivers/STM32L4xx_HAL_Driver/Src/stm32l4xx_hal_nand.c **** 
 695:Drivers/STM32L4xx_HAL_Driver/Src/stm32l4xx_hal_nand.c ****     /* Identify the device address */
 696:Drivers/STM32L4xx_HAL_Driver/Src/stm32l4xx_hal_nand.c ****     deviceaddress = NAND_DEVICE;
 1502              		.loc 1 696 19
 1503 0052 4FF00043 		mov	r3, #-2147483648
 1504 0056 7B61     		str	r3, [r7, #20]
 697:Drivers/STM32L4xx_HAL_Driver/Src/stm32l4xx_hal_nand.c **** 
 698:Drivers/STM32L4xx_HAL_Driver/Src/stm32l4xx_hal_nand.c ****     /* NAND raw address calculation */
 699:Drivers/STM32L4xx_HAL_Driver/Src/stm32l4xx_hal_nand.c ****     nandaddress = ARRAY_ADDRESS(pAddress, hnand);
 1505              		.loc 1 699 19
 1506 0058 BB68     		ldr	r3, [r7, #8]
 1507 005a 1B88     		ldrh	r3, [r3]
 1508 005c 1946     		mov	r1, r3
 1509 005e BB68     		ldr	r3, [r7, #8]
 1510 0060 9B88     		ldrh	r3, [r3, #4]
 1511 0062 1A46     		mov	r2, r3
 1512 0064 BB68     		ldr	r3, [r7, #8]
 1513 0066 5B88     		ldrh	r3, [r3, #2]
 1514 0068 1846     		mov	r0, r3
 1515 006a FB68     		ldr	r3, [r7, #12]
 1516 006c 9B6B     		ldr	r3, [r3, #56]
 1517 006e 00FB03F3 		mul	r3, r0, r3
 1518 0072 1344     		add	r3, r3, r2
 1519 0074 FA68     		ldr	r2, [r7, #12]
 1520 0076 D26A     		ldr	r2, [r2, #44]
 1521 0078 02FB03F3 		mul	r3, r2, r3
 1522              		.loc 1 699 17
 1523 007c 0B44     		add	r3, r3, r1
 1524 007e 3B62     		str	r3, [r7, #32]
 700:Drivers/STM32L4xx_HAL_Driver/Src/stm32l4xx_hal_nand.c **** 
 701:Drivers/STM32L4xx_HAL_Driver/Src/stm32l4xx_hal_nand.c ****     /* Page(s) read loop */
 702:Drivers/STM32L4xx_HAL_Driver/Src/stm32l4xx_hal_nand.c ****     while ((nbpages != 0U) && (nandaddress < ((hnand->Config.BlockSize) * (hnand->Config.BlockNbr))
 1525              		.loc 1 702 11
 1526 0080 01E1     		b	.L55
 1527              	.L67:
 703:Drivers/STM32L4xx_HAL_Driver/Src/stm32l4xx_hal_nand.c ****     {
 704:Drivers/STM32L4xx_HAL_Driver/Src/stm32l4xx_hal_nand.c ****       /* Send read page command sequence */
 705:Drivers/STM32L4xx_HAL_Driver/Src/stm32l4xx_hal_nand.c ****       *(__IO uint8_t *)((uint32_t)(deviceaddress | CMD_AREA)) = NAND_CMD_AREA_A;
 1528              		.loc 1 705 25
 1529 0082 7B69     		ldr	r3, [r7, #20]
ARM GAS  /tmp/ccUr9KqT.s 			page 57


 1530 0084 43F48033 		orr	r3, r3, #65536
 1531              		.loc 1 705 63
 1532 0088 0022     		movs	r2, #0
 1533 008a 1A70     		strb	r2, [r3]
 1534              	.LBB382:
 1535              	.LBB383:
 946:Drivers/CMSIS/Core/Include/cmsis_gcc.h **** }
 1536              		.loc 2 946 3
 1537              		.syntax unified
 1538              	@ 946 "Drivers/CMSIS/Core/Include/cmsis_gcc.h" 1
 1539 008c BFF34F8F 		dsb 0xF
 1540              	@ 0 "" 2
 1541              		.loc 2 947 1
 1542              		.thumb
 1543              		.syntax unified
 1544 0090 00BF     		nop
 1545              	.LBE383:
 1546              	.LBE382:
 706:Drivers/STM32L4xx_HAL_Driver/Src/stm32l4xx_hal_nand.c ****       __DSB();
 707:Drivers/STM32L4xx_HAL_Driver/Src/stm32l4xx_hal_nand.c **** 
 708:Drivers/STM32L4xx_HAL_Driver/Src/stm32l4xx_hal_nand.c ****       /* Cards with page size <= 512 bytes */
 709:Drivers/STM32L4xx_HAL_Driver/Src/stm32l4xx_hal_nand.c ****       if ((hnand->Config.PageSize) <= 512U)
 1547              		.loc 1 709 25
 1548 0092 FB68     		ldr	r3, [r7, #12]
 1549 0094 5B6A     		ldr	r3, [r3, #36]
 1550              		.loc 1 709 10
 1551 0096 B3F5007F 		cmp	r3, #512
 1552 009a 48D8     		bhi	.L56
 710:Drivers/STM32L4xx_HAL_Driver/Src/stm32l4xx_hal_nand.c ****       {
 711:Drivers/STM32L4xx_HAL_Driver/Src/stm32l4xx_hal_nand.c ****         if (((hnand->Config.BlockSize) * (hnand->Config.BlockNbr)) <= 65535U)
 1553              		.loc 1 711 28
 1554 009c FB68     		ldr	r3, [r7, #12]
 1555 009e DB6A     		ldr	r3, [r3, #44]
 1556              		.loc 1 711 56
 1557 00a0 FA68     		ldr	r2, [r7, #12]
 1558 00a2 126B     		ldr	r2, [r2, #48]
 1559              		.loc 1 711 40
 1560 00a4 02FB03F3 		mul	r3, r2, r3
 1561              		.loc 1 711 12
 1562 00a8 B3F5803F 		cmp	r3, #65536
 1563 00ac 1AD2     		bcs	.L57
 712:Drivers/STM32L4xx_HAL_Driver/Src/stm32l4xx_hal_nand.c ****         {
 713:Drivers/STM32L4xx_HAL_Driver/Src/stm32l4xx_hal_nand.c ****           *(__IO uint8_t *)((uint32_t)(deviceaddress | ADDR_AREA)) = 0x00U;
 1564              		.loc 1 713 29
 1565 00ae 7B69     		ldr	r3, [r7, #20]
 1566 00b0 43F40033 		orr	r3, r3, #131072
 1567              		.loc 1 713 68
 1568 00b4 0022     		movs	r2, #0
 1569 00b6 1A70     		strb	r2, [r3]
 1570              	.LBB384:
 1571              	.LBB385:
 946:Drivers/CMSIS/Core/Include/cmsis_gcc.h **** }
 1572              		.loc 2 946 3
 1573              		.syntax unified
 1574              	@ 946 "Drivers/CMSIS/Core/Include/cmsis_gcc.h" 1
 1575 00b8 BFF34F8F 		dsb 0xF
 1576              	@ 0 "" 2
ARM GAS  /tmp/ccUr9KqT.s 			page 58


 1577              		.loc 2 947 1
 1578              		.thumb
 1579              		.syntax unified
 1580 00bc 00BF     		nop
 1581              	.LBE385:
 1582              	.LBE384:
 714:Drivers/STM32L4xx_HAL_Driver/Src/stm32l4xx_hal_nand.c ****           __DSB();
 715:Drivers/STM32L4xx_HAL_Driver/Src/stm32l4xx_hal_nand.c ****           *(__IO uint8_t *)((uint32_t)(deviceaddress | ADDR_AREA)) = ADDR_1ST_CYCLE(nandaddress);
 1583              		.loc 1 715 29
 1584 00be 7B69     		ldr	r3, [r7, #20]
 1585 00c0 43F40033 		orr	r3, r3, #131072
 1586              		.loc 1 715 70
 1587 00c4 3A6A     		ldr	r2, [r7, #32]
 1588 00c6 D2B2     		uxtb	r2, r2
 1589              		.loc 1 715 68
 1590 00c8 1A70     		strb	r2, [r3]
 1591              	.LBB386:
 1592              	.LBB387:
 946:Drivers/CMSIS/Core/Include/cmsis_gcc.h **** }
 1593              		.loc 2 946 3
 1594              		.syntax unified
 1595              	@ 946 "Drivers/CMSIS/Core/Include/cmsis_gcc.h" 1
 1596 00ca BFF34F8F 		dsb 0xF
 1597              	@ 0 "" 2
 1598              		.loc 2 947 1
 1599              		.thumb
 1600              		.syntax unified
 1601 00ce 00BF     		nop
 1602              	.LBE387:
 1603              	.LBE386:
 716:Drivers/STM32L4xx_HAL_Driver/Src/stm32l4xx_hal_nand.c ****           __DSB();
 717:Drivers/STM32L4xx_HAL_Driver/Src/stm32l4xx_hal_nand.c ****           *(__IO uint8_t *)((uint32_t)(deviceaddress | ADDR_AREA)) = ADDR_2ND_CYCLE(nandaddress);
 1604              		.loc 1 717 70
 1605 00d0 3B6A     		ldr	r3, [r7, #32]
 1606 00d2 1A0A     		lsrs	r2, r3, #8
 1607              		.loc 1 717 29
 1608 00d4 7B69     		ldr	r3, [r7, #20]
 1609 00d6 43F40033 		orr	r3, r3, #131072
 1610              		.loc 1 717 70
 1611 00da D2B2     		uxtb	r2, r2
 1612              		.loc 1 717 68
 1613 00dc 1A70     		strb	r2, [r3]
 1614              	.LBB388:
 1615              	.LBB389:
 946:Drivers/CMSIS/Core/Include/cmsis_gcc.h **** }
 1616              		.loc 2 946 3
 1617              		.syntax unified
 1618              	@ 946 "Drivers/CMSIS/Core/Include/cmsis_gcc.h" 1
 1619 00de BFF34F8F 		dsb 0xF
 1620              	@ 0 "" 2
 1621              		.loc 2 947 1
 1622              		.thumb
 1623              		.syntax unified
 1624 00e2 7DE0     		b	.L58
 1625              	.L57:
 1626              	.LBE389:
 1627              	.LBE388:
ARM GAS  /tmp/ccUr9KqT.s 			page 59


 718:Drivers/STM32L4xx_HAL_Driver/Src/stm32l4xx_hal_nand.c ****           __DSB();
 719:Drivers/STM32L4xx_HAL_Driver/Src/stm32l4xx_hal_nand.c ****         }
 720:Drivers/STM32L4xx_HAL_Driver/Src/stm32l4xx_hal_nand.c ****         else /* ((hnand->Config.BlockSize)*(hnand->Config.BlockNbr)) > 65535 */
 721:Drivers/STM32L4xx_HAL_Driver/Src/stm32l4xx_hal_nand.c ****         {
 722:Drivers/STM32L4xx_HAL_Driver/Src/stm32l4xx_hal_nand.c ****           *(__IO uint8_t *)((uint32_t)(deviceaddress | ADDR_AREA)) = 0x00U;
 1628              		.loc 1 722 29
 1629 00e4 7B69     		ldr	r3, [r7, #20]
 1630 00e6 43F40033 		orr	r3, r3, #131072
 1631              		.loc 1 722 68
 1632 00ea 0022     		movs	r2, #0
 1633 00ec 1A70     		strb	r2, [r3]
 1634              	.LBB390:
 1635              	.LBB391:
 946:Drivers/CMSIS/Core/Include/cmsis_gcc.h **** }
 1636              		.loc 2 946 3
 1637              		.syntax unified
 1638              	@ 946 "Drivers/CMSIS/Core/Include/cmsis_gcc.h" 1
 1639 00ee BFF34F8F 		dsb 0xF
 1640              	@ 0 "" 2
 1641              		.loc 2 947 1
 1642              		.thumb
 1643              		.syntax unified
 1644 00f2 00BF     		nop
 1645              	.LBE391:
 1646              	.LBE390:
 723:Drivers/STM32L4xx_HAL_Driver/Src/stm32l4xx_hal_nand.c ****           __DSB();
 724:Drivers/STM32L4xx_HAL_Driver/Src/stm32l4xx_hal_nand.c ****           *(__IO uint8_t *)((uint32_t)(deviceaddress | ADDR_AREA)) = ADDR_1ST_CYCLE(nandaddress);
 1647              		.loc 1 724 29
 1648 00f4 7B69     		ldr	r3, [r7, #20]
 1649 00f6 43F40033 		orr	r3, r3, #131072
 1650              		.loc 1 724 70
 1651 00fa 3A6A     		ldr	r2, [r7, #32]
 1652 00fc D2B2     		uxtb	r2, r2
 1653              		.loc 1 724 68
 1654 00fe 1A70     		strb	r2, [r3]
 1655              	.LBB392:
 1656              	.LBB393:
 946:Drivers/CMSIS/Core/Include/cmsis_gcc.h **** }
 1657              		.loc 2 946 3
 1658              		.syntax unified
 1659              	@ 946 "Drivers/CMSIS/Core/Include/cmsis_gcc.h" 1
 1660 0100 BFF34F8F 		dsb 0xF
 1661              	@ 0 "" 2
 1662              		.loc 2 947 1
 1663              		.thumb
 1664              		.syntax unified
 1665 0104 00BF     		nop
 1666              	.LBE393:
 1667              	.LBE392:
 725:Drivers/STM32L4xx_HAL_Driver/Src/stm32l4xx_hal_nand.c ****           __DSB();
 726:Drivers/STM32L4xx_HAL_Driver/Src/stm32l4xx_hal_nand.c ****           *(__IO uint8_t *)((uint32_t)(deviceaddress | ADDR_AREA)) = ADDR_2ND_CYCLE(nandaddress);
 1668              		.loc 1 726 70
 1669 0106 3B6A     		ldr	r3, [r7, #32]
 1670 0108 1A0A     		lsrs	r2, r3, #8
 1671              		.loc 1 726 29
 1672 010a 7B69     		ldr	r3, [r7, #20]
 1673 010c 43F40033 		orr	r3, r3, #131072
ARM GAS  /tmp/ccUr9KqT.s 			page 60


 1674              		.loc 1 726 70
 1675 0110 D2B2     		uxtb	r2, r2
 1676              		.loc 1 726 68
 1677 0112 1A70     		strb	r2, [r3]
 1678              	.LBB394:
 1679              	.LBB395:
 946:Drivers/CMSIS/Core/Include/cmsis_gcc.h **** }
 1680              		.loc 2 946 3
 1681              		.syntax unified
 1682              	@ 946 "Drivers/CMSIS/Core/Include/cmsis_gcc.h" 1
 1683 0114 BFF34F8F 		dsb 0xF
 1684              	@ 0 "" 2
 1685              		.loc 2 947 1
 1686              		.thumb
 1687              		.syntax unified
 1688 0118 00BF     		nop
 1689              	.LBE395:
 1690              	.LBE394:
 727:Drivers/STM32L4xx_HAL_Driver/Src/stm32l4xx_hal_nand.c ****           __DSB();
 728:Drivers/STM32L4xx_HAL_Driver/Src/stm32l4xx_hal_nand.c ****           *(__IO uint8_t *)((uint32_t)(deviceaddress | ADDR_AREA)) = ADDR_3RD_CYCLE(nandaddress);
 1691              		.loc 1 728 70
 1692 011a 3B6A     		ldr	r3, [r7, #32]
 1693 011c 1A0C     		lsrs	r2, r3, #16
 1694              		.loc 1 728 29
 1695 011e 7B69     		ldr	r3, [r7, #20]
 1696 0120 43F40033 		orr	r3, r3, #131072
 1697              		.loc 1 728 70
 1698 0124 D2B2     		uxtb	r2, r2
 1699              		.loc 1 728 68
 1700 0126 1A70     		strb	r2, [r3]
 1701              	.LBB396:
 1702              	.LBB397:
 946:Drivers/CMSIS/Core/Include/cmsis_gcc.h **** }
 1703              		.loc 2 946 3
 1704              		.syntax unified
 1705              	@ 946 "Drivers/CMSIS/Core/Include/cmsis_gcc.h" 1
 1706 0128 BFF34F8F 		dsb 0xF
 1707              	@ 0 "" 2
 1708              		.loc 2 947 1
 1709              		.thumb
 1710              		.syntax unified
 1711 012c 58E0     		b	.L58
 1712              	.L56:
 1713              	.LBE397:
 1714              	.LBE396:
 729:Drivers/STM32L4xx_HAL_Driver/Src/stm32l4xx_hal_nand.c ****           __DSB();
 730:Drivers/STM32L4xx_HAL_Driver/Src/stm32l4xx_hal_nand.c ****         }
 731:Drivers/STM32L4xx_HAL_Driver/Src/stm32l4xx_hal_nand.c ****       }
 732:Drivers/STM32L4xx_HAL_Driver/Src/stm32l4xx_hal_nand.c ****       else /* (hnand->Config.PageSize) > 512 */
 733:Drivers/STM32L4xx_HAL_Driver/Src/stm32l4xx_hal_nand.c ****       {
 734:Drivers/STM32L4xx_HAL_Driver/Src/stm32l4xx_hal_nand.c ****         if (((hnand->Config.BlockSize) * (hnand->Config.BlockNbr)) <= 65535U)
 1715              		.loc 1 734 28
 1716 012e FB68     		ldr	r3, [r7, #12]
 1717 0130 DB6A     		ldr	r3, [r3, #44]
 1718              		.loc 1 734 56
 1719 0132 FA68     		ldr	r2, [r7, #12]
 1720 0134 126B     		ldr	r2, [r2, #48]
ARM GAS  /tmp/ccUr9KqT.s 			page 61


 1721              		.loc 1 734 40
 1722 0136 02FB03F3 		mul	r3, r2, r3
 1723              		.loc 1 734 12
 1724 013a B3F5803F 		cmp	r3, #65536
 1725 013e 22D2     		bcs	.L59
 735:Drivers/STM32L4xx_HAL_Driver/Src/stm32l4xx_hal_nand.c ****         {
 736:Drivers/STM32L4xx_HAL_Driver/Src/stm32l4xx_hal_nand.c ****           *(__IO uint8_t *)((uint32_t)(deviceaddress | ADDR_AREA)) = 0x00U;
 1726              		.loc 1 736 29
 1727 0140 7B69     		ldr	r3, [r7, #20]
 1728 0142 43F40033 		orr	r3, r3, #131072
 1729              		.loc 1 736 68
 1730 0146 0022     		movs	r2, #0
 1731 0148 1A70     		strb	r2, [r3]
 1732              	.LBB398:
 1733              	.LBB399:
 946:Drivers/CMSIS/Core/Include/cmsis_gcc.h **** }
 1734              		.loc 2 946 3
 1735              		.syntax unified
 1736              	@ 946 "Drivers/CMSIS/Core/Include/cmsis_gcc.h" 1
 1737 014a BFF34F8F 		dsb 0xF
 1738              	@ 0 "" 2
 1739              		.loc 2 947 1
 1740              		.thumb
 1741              		.syntax unified
 1742 014e 00BF     		nop
 1743              	.LBE399:
 1744              	.LBE398:
 737:Drivers/STM32L4xx_HAL_Driver/Src/stm32l4xx_hal_nand.c ****           __DSB();
 738:Drivers/STM32L4xx_HAL_Driver/Src/stm32l4xx_hal_nand.c ****           *(__IO uint8_t *)((uint32_t)(deviceaddress | ADDR_AREA)) = 0x00U;
 1745              		.loc 1 738 29
 1746 0150 7B69     		ldr	r3, [r7, #20]
 1747 0152 43F40033 		orr	r3, r3, #131072
 1748              		.loc 1 738 68
 1749 0156 0022     		movs	r2, #0
 1750 0158 1A70     		strb	r2, [r3]
 1751              	.LBB400:
 1752              	.LBB401:
 946:Drivers/CMSIS/Core/Include/cmsis_gcc.h **** }
 1753              		.loc 2 946 3
 1754              		.syntax unified
 1755              	@ 946 "Drivers/CMSIS/Core/Include/cmsis_gcc.h" 1
 1756 015a BFF34F8F 		dsb 0xF
 1757              	@ 0 "" 2
 1758              		.loc 2 947 1
 1759              		.thumb
 1760              		.syntax unified
 1761 015e 00BF     		nop
 1762              	.LBE401:
 1763              	.LBE400:
 739:Drivers/STM32L4xx_HAL_Driver/Src/stm32l4xx_hal_nand.c ****           __DSB();
 740:Drivers/STM32L4xx_HAL_Driver/Src/stm32l4xx_hal_nand.c ****           *(__IO uint8_t *)((uint32_t)(deviceaddress | ADDR_AREA)) = ADDR_1ST_CYCLE(nandaddress);
 1764              		.loc 1 740 29
 1765 0160 7B69     		ldr	r3, [r7, #20]
 1766 0162 43F40033 		orr	r3, r3, #131072
 1767              		.loc 1 740 70
 1768 0166 3A6A     		ldr	r2, [r7, #32]
 1769 0168 D2B2     		uxtb	r2, r2
ARM GAS  /tmp/ccUr9KqT.s 			page 62


 1770              		.loc 1 740 68
 1771 016a 1A70     		strb	r2, [r3]
 1772              	.LBB402:
 1773              	.LBB403:
 946:Drivers/CMSIS/Core/Include/cmsis_gcc.h **** }
 1774              		.loc 2 946 3
 1775              		.syntax unified
 1776              	@ 946 "Drivers/CMSIS/Core/Include/cmsis_gcc.h" 1
 1777 016c BFF34F8F 		dsb 0xF
 1778              	@ 0 "" 2
 1779              		.loc 2 947 1
 1780              		.thumb
 1781              		.syntax unified
 1782 0170 00BF     		nop
 1783              	.LBE403:
 1784              	.LBE402:
 741:Drivers/STM32L4xx_HAL_Driver/Src/stm32l4xx_hal_nand.c ****           __DSB();
 742:Drivers/STM32L4xx_HAL_Driver/Src/stm32l4xx_hal_nand.c ****           *(__IO uint8_t *)((uint32_t)(deviceaddress | ADDR_AREA)) = ADDR_2ND_CYCLE(nandaddress);
 1785              		.loc 1 742 70
 1786 0172 3B6A     		ldr	r3, [r7, #32]
 1787 0174 1A0A     		lsrs	r2, r3, #8
 1788              		.loc 1 742 29
 1789 0176 7B69     		ldr	r3, [r7, #20]
 1790 0178 43F40033 		orr	r3, r3, #131072
 1791              		.loc 1 742 70
 1792 017c D2B2     		uxtb	r2, r2
 1793              		.loc 1 742 68
 1794 017e 1A70     		strb	r2, [r3]
 1795              	.LBB404:
 1796              	.LBB405:
 946:Drivers/CMSIS/Core/Include/cmsis_gcc.h **** }
 1797              		.loc 2 946 3
 1798              		.syntax unified
 1799              	@ 946 "Drivers/CMSIS/Core/Include/cmsis_gcc.h" 1
 1800 0180 BFF34F8F 		dsb 0xF
 1801              	@ 0 "" 2
 1802              		.loc 2 947 1
 1803              		.thumb
 1804              		.syntax unified
 1805 0184 2CE0     		b	.L58
 1806              	.L59:
 1807              	.LBE405:
 1808              	.LBE404:
 743:Drivers/STM32L4xx_HAL_Driver/Src/stm32l4xx_hal_nand.c ****           __DSB();
 744:Drivers/STM32L4xx_HAL_Driver/Src/stm32l4xx_hal_nand.c ****         }
 745:Drivers/STM32L4xx_HAL_Driver/Src/stm32l4xx_hal_nand.c ****         else /* ((hnand->Config.BlockSize)*(hnand->Config.BlockNbr)) > 65535 */
 746:Drivers/STM32L4xx_HAL_Driver/Src/stm32l4xx_hal_nand.c ****         {
 747:Drivers/STM32L4xx_HAL_Driver/Src/stm32l4xx_hal_nand.c ****           *(__IO uint8_t *)((uint32_t)(deviceaddress | ADDR_AREA)) = 0x00U;
 1809              		.loc 1 747 29
 1810 0186 7B69     		ldr	r3, [r7, #20]
 1811 0188 43F40033 		orr	r3, r3, #131072
 1812              		.loc 1 747 68
 1813 018c 0022     		movs	r2, #0
 1814 018e 1A70     		strb	r2, [r3]
 1815              	.LBB406:
 1816              	.LBB407:
 946:Drivers/CMSIS/Core/Include/cmsis_gcc.h **** }
ARM GAS  /tmp/ccUr9KqT.s 			page 63


 1817              		.loc 2 946 3
 1818              		.syntax unified
 1819              	@ 946 "Drivers/CMSIS/Core/Include/cmsis_gcc.h" 1
 1820 0190 BFF34F8F 		dsb 0xF
 1821              	@ 0 "" 2
 1822              		.loc 2 947 1
 1823              		.thumb
 1824              		.syntax unified
 1825 0194 00BF     		nop
 1826              	.LBE407:
 1827              	.LBE406:
 748:Drivers/STM32L4xx_HAL_Driver/Src/stm32l4xx_hal_nand.c ****           __DSB();
 749:Drivers/STM32L4xx_HAL_Driver/Src/stm32l4xx_hal_nand.c ****           *(__IO uint8_t *)((uint32_t)(deviceaddress | ADDR_AREA)) = 0x00U;
 1828              		.loc 1 749 29
 1829 0196 7B69     		ldr	r3, [r7, #20]
 1830 0198 43F40033 		orr	r3, r3, #131072
 1831              		.loc 1 749 68
 1832 019c 0022     		movs	r2, #0
 1833 019e 1A70     		strb	r2, [r3]
 1834              	.LBB408:
 1835              	.LBB409:
 946:Drivers/CMSIS/Core/Include/cmsis_gcc.h **** }
 1836              		.loc 2 946 3
 1837              		.syntax unified
 1838              	@ 946 "Drivers/CMSIS/Core/Include/cmsis_gcc.h" 1
 1839 01a0 BFF34F8F 		dsb 0xF
 1840              	@ 0 "" 2
 1841              		.loc 2 947 1
 1842              		.thumb
 1843              		.syntax unified
 1844 01a4 00BF     		nop
 1845              	.LBE409:
 1846              	.LBE408:
 750:Drivers/STM32L4xx_HAL_Driver/Src/stm32l4xx_hal_nand.c ****           __DSB();
 751:Drivers/STM32L4xx_HAL_Driver/Src/stm32l4xx_hal_nand.c ****           *(__IO uint8_t *)((uint32_t)(deviceaddress | ADDR_AREA)) = ADDR_1ST_CYCLE(nandaddress);
 1847              		.loc 1 751 29
 1848 01a6 7B69     		ldr	r3, [r7, #20]
 1849 01a8 43F40033 		orr	r3, r3, #131072
 1850              		.loc 1 751 70
 1851 01ac 3A6A     		ldr	r2, [r7, #32]
 1852 01ae D2B2     		uxtb	r2, r2
 1853              		.loc 1 751 68
 1854 01b0 1A70     		strb	r2, [r3]
 1855              	.LBB410:
 1856              	.LBB411:
 946:Drivers/CMSIS/Core/Include/cmsis_gcc.h **** }
 1857              		.loc 2 946 3
 1858              		.syntax unified
 1859              	@ 946 "Drivers/CMSIS/Core/Include/cmsis_gcc.h" 1
 1860 01b2 BFF34F8F 		dsb 0xF
 1861              	@ 0 "" 2
 1862              		.loc 2 947 1
 1863              		.thumb
 1864              		.syntax unified
 1865 01b6 00BF     		nop
 1866              	.LBE411:
 1867              	.LBE410:
ARM GAS  /tmp/ccUr9KqT.s 			page 64


 752:Drivers/STM32L4xx_HAL_Driver/Src/stm32l4xx_hal_nand.c ****           __DSB();
 753:Drivers/STM32L4xx_HAL_Driver/Src/stm32l4xx_hal_nand.c ****           *(__IO uint8_t *)((uint32_t)(deviceaddress | ADDR_AREA)) = ADDR_2ND_CYCLE(nandaddress);
 1868              		.loc 1 753 70
 1869 01b8 3B6A     		ldr	r3, [r7, #32]
 1870 01ba 1A0A     		lsrs	r2, r3, #8
 1871              		.loc 1 753 29
 1872 01bc 7B69     		ldr	r3, [r7, #20]
 1873 01be 43F40033 		orr	r3, r3, #131072
 1874              		.loc 1 753 70
 1875 01c2 D2B2     		uxtb	r2, r2
 1876              		.loc 1 753 68
 1877 01c4 1A70     		strb	r2, [r3]
 1878              	.LBB412:
 1879              	.LBB413:
 946:Drivers/CMSIS/Core/Include/cmsis_gcc.h **** }
 1880              		.loc 2 946 3
 1881              		.syntax unified
 1882              	@ 946 "Drivers/CMSIS/Core/Include/cmsis_gcc.h" 1
 1883 01c6 BFF34F8F 		dsb 0xF
 1884              	@ 0 "" 2
 1885              		.loc 2 947 1
 1886              		.thumb
 1887              		.syntax unified
 1888 01ca 00BF     		nop
 1889              	.LBE413:
 1890              	.LBE412:
 754:Drivers/STM32L4xx_HAL_Driver/Src/stm32l4xx_hal_nand.c ****           __DSB();
 755:Drivers/STM32L4xx_HAL_Driver/Src/stm32l4xx_hal_nand.c ****           *(__IO uint8_t *)((uint32_t)(deviceaddress | ADDR_AREA)) = ADDR_3RD_CYCLE(nandaddress);
 1891              		.loc 1 755 70
 1892 01cc 3B6A     		ldr	r3, [r7, #32]
 1893 01ce 1A0C     		lsrs	r2, r3, #16
 1894              		.loc 1 755 29
 1895 01d0 7B69     		ldr	r3, [r7, #20]
 1896 01d2 43F40033 		orr	r3, r3, #131072
 1897              		.loc 1 755 70
 1898 01d6 D2B2     		uxtb	r2, r2
 1899              		.loc 1 755 68
 1900 01d8 1A70     		strb	r2, [r3]
 1901              	.LBB414:
 1902              	.LBB415:
 946:Drivers/CMSIS/Core/Include/cmsis_gcc.h **** }
 1903              		.loc 2 946 3
 1904              		.syntax unified
 1905              	@ 946 "Drivers/CMSIS/Core/Include/cmsis_gcc.h" 1
 1906 01da BFF34F8F 		dsb 0xF
 1907              	@ 0 "" 2
 1908              		.loc 2 947 1
 1909              		.thumb
 1910              		.syntax unified
 1911 01de 00BF     		nop
 1912              	.L58:
 1913              	.LBE415:
 1914              	.LBE414:
 756:Drivers/STM32L4xx_HAL_Driver/Src/stm32l4xx_hal_nand.c ****           __DSB();
 757:Drivers/STM32L4xx_HAL_Driver/Src/stm32l4xx_hal_nand.c ****         }
 758:Drivers/STM32L4xx_HAL_Driver/Src/stm32l4xx_hal_nand.c ****       }
 759:Drivers/STM32L4xx_HAL_Driver/Src/stm32l4xx_hal_nand.c **** 
ARM GAS  /tmp/ccUr9KqT.s 			page 65


 760:Drivers/STM32L4xx_HAL_Driver/Src/stm32l4xx_hal_nand.c ****       *(__IO uint8_t *)((uint32_t)(deviceaddress | CMD_AREA))  = NAND_CMD_AREA_TRUE1;
 1915              		.loc 1 760 25
 1916 01e0 7B69     		ldr	r3, [r7, #20]
 1917 01e2 43F48033 		orr	r3, r3, #65536
 1918              		.loc 1 760 64
 1919 01e6 3022     		movs	r2, #48
 1920 01e8 1A70     		strb	r2, [r3]
 1921              	.LBB416:
 1922              	.LBB417:
 946:Drivers/CMSIS/Core/Include/cmsis_gcc.h **** }
 1923              		.loc 2 946 3
 1924              		.syntax unified
 1925              	@ 946 "Drivers/CMSIS/Core/Include/cmsis_gcc.h" 1
 1926 01ea BFF34F8F 		dsb 0xF
 1927              	@ 0 "" 2
 1928              		.loc 2 947 1
 1929              		.thumb
 1930              		.syntax unified
 1931 01ee 00BF     		nop
 1932              	.LBE417:
 1933              	.LBE416:
 761:Drivers/STM32L4xx_HAL_Driver/Src/stm32l4xx_hal_nand.c ****       __DSB();
 762:Drivers/STM32L4xx_HAL_Driver/Src/stm32l4xx_hal_nand.c **** 
 763:Drivers/STM32L4xx_HAL_Driver/Src/stm32l4xx_hal_nand.c ****       if (hnand->Config.ExtraCommandEnable == ENABLE)
 1934              		.loc 1 763 24
 1935 01f0 FB68     		ldr	r3, [r7, #12]
 1936 01f2 93F83C30 		ldrb	r3, [r3, #60]	@ zero_extendqisi2
 1937              		.loc 1 763 10
 1938 01f6 012B     		cmp	r3, #1
 1939 01f8 23D1     		bne	.L60
 764:Drivers/STM32L4xx_HAL_Driver/Src/stm32l4xx_hal_nand.c ****       {
 765:Drivers/STM32L4xx_HAL_Driver/Src/stm32l4xx_hal_nand.c ****         /* Get tick */
 766:Drivers/STM32L4xx_HAL_Driver/Src/stm32l4xx_hal_nand.c ****         tickstart = HAL_GetTick();
 1940              		.loc 1 766 21
 1941 01fa FFF7FEFF 		bl	HAL_GetTick
 1942 01fe 3861     		str	r0, [r7, #16]
 767:Drivers/STM32L4xx_HAL_Driver/Src/stm32l4xx_hal_nand.c **** 
 768:Drivers/STM32L4xx_HAL_Driver/Src/stm32l4xx_hal_nand.c ****         /* Read status until NAND is ready */
 769:Drivers/STM32L4xx_HAL_Driver/Src/stm32l4xx_hal_nand.c ****         while (HAL_NAND_Read_Status(hnand) != NAND_READY)
 1943              		.loc 1 769 15
 1944 0200 11E0     		b	.L61
 1945              	.L62:
 770:Drivers/STM32L4xx_HAL_Driver/Src/stm32l4xx_hal_nand.c ****         {
 771:Drivers/STM32L4xx_HAL_Driver/Src/stm32l4xx_hal_nand.c ****           if ((HAL_GetTick() - tickstart) > NAND_WRITE_TIMEOUT)
 1946              		.loc 1 771 16
 1947 0202 FFF7FEFF 		bl	HAL_GetTick
 1948 0206 0246     		mov	r2, r0
 1949              		.loc 1 771 30 discriminator 1
 1950 0208 3B69     		ldr	r3, [r7, #16]
 1951 020a D31A     		subs	r3, r2, r3
 1952              		.loc 1 771 14 discriminator 1
 1953 020c B3F1807F 		cmp	r3, #16777216
 1954 0210 09D9     		bls	.L61
 772:Drivers/STM32L4xx_HAL_Driver/Src/stm32l4xx_hal_nand.c ****           {
 773:Drivers/STM32L4xx_HAL_Driver/Src/stm32l4xx_hal_nand.c ****             /* Update the NAND controller state */
 774:Drivers/STM32L4xx_HAL_Driver/Src/stm32l4xx_hal_nand.c ****             hnand->State = HAL_NAND_STATE_ERROR;
 1955              		.loc 1 774 26
ARM GAS  /tmp/ccUr9KqT.s 			page 66


 1956 0212 FB68     		ldr	r3, [r7, #12]
 1957 0214 0322     		movs	r2, #3
 1958 0216 83F82120 		strb	r2, [r3, #33]
 775:Drivers/STM32L4xx_HAL_Driver/Src/stm32l4xx_hal_nand.c **** 
 776:Drivers/STM32L4xx_HAL_Driver/Src/stm32l4xx_hal_nand.c ****             /* Process unlocked */
 777:Drivers/STM32L4xx_HAL_Driver/Src/stm32l4xx_hal_nand.c ****             __HAL_UNLOCK(hnand);
 1959              		.loc 1 777 13
 1960 021a FB68     		ldr	r3, [r7, #12]
 1961 021c 0022     		movs	r2, #0
 1962 021e 83F82020 		strb	r2, [r3, #32]
 778:Drivers/STM32L4xx_HAL_Driver/Src/stm32l4xx_hal_nand.c **** 
 779:Drivers/STM32L4xx_HAL_Driver/Src/stm32l4xx_hal_nand.c ****             return HAL_TIMEOUT;
 1963              		.loc 1 779 20
 1964 0222 0323     		movs	r3, #3
 1965 0224 47E0     		b	.L52
 1966              	.L61:
 769:Drivers/STM32L4xx_HAL_Driver/Src/stm32l4xx_hal_nand.c ****         {
 1967              		.loc 1 769 16
 1968 0226 F868     		ldr	r0, [r7, #12]
 1969 0228 FFF7FEFF 		bl	HAL_NAND_Read_Status
 1970 022c 0346     		mov	r3, r0
 769:Drivers/STM32L4xx_HAL_Driver/Src/stm32l4xx_hal_nand.c ****         {
 1971              		.loc 1 769 44 discriminator 1
 1972 022e 402B     		cmp	r3, #64
 1973 0230 E7D1     		bne	.L62
 780:Drivers/STM32L4xx_HAL_Driver/Src/stm32l4xx_hal_nand.c ****           }
 781:Drivers/STM32L4xx_HAL_Driver/Src/stm32l4xx_hal_nand.c ****         }
 782:Drivers/STM32L4xx_HAL_Driver/Src/stm32l4xx_hal_nand.c **** 
 783:Drivers/STM32L4xx_HAL_Driver/Src/stm32l4xx_hal_nand.c ****         /* Go back to read mode */
 784:Drivers/STM32L4xx_HAL_Driver/Src/stm32l4xx_hal_nand.c ****         *(__IO uint8_t *)((uint32_t)(deviceaddress | CMD_AREA)) = ((uint8_t)0x00);
 1974              		.loc 1 784 27
 1975 0232 7B69     		ldr	r3, [r7, #20]
 1976 0234 43F48033 		orr	r3, r3, #65536
 1977              		.loc 1 784 65
 1978 0238 0022     		movs	r2, #0
 1979 023a 1A70     		strb	r2, [r3]
 1980              	.LBB418:
 1981              	.LBB419:
 946:Drivers/CMSIS/Core/Include/cmsis_gcc.h **** }
 1982              		.loc 2 946 3
 1983              		.syntax unified
 1984              	@ 946 "Drivers/CMSIS/Core/Include/cmsis_gcc.h" 1
 1985 023c BFF34F8F 		dsb 0xF
 1986              	@ 0 "" 2
 1987              		.loc 2 947 1
 1988              		.thumb
 1989              		.syntax unified
 1990 0240 00BF     		nop
 1991              	.L60:
 1992              	.LBE419:
 1993              	.LBE418:
 785:Drivers/STM32L4xx_HAL_Driver/Src/stm32l4xx_hal_nand.c ****         __DSB();
 786:Drivers/STM32L4xx_HAL_Driver/Src/stm32l4xx_hal_nand.c ****       }
 787:Drivers/STM32L4xx_HAL_Driver/Src/stm32l4xx_hal_nand.c **** 
 788:Drivers/STM32L4xx_HAL_Driver/Src/stm32l4xx_hal_nand.c ****       /* Calculate PageSize */
 789:Drivers/STM32L4xx_HAL_Driver/Src/stm32l4xx_hal_nand.c ****       if (hnand->Init.MemoryDataWidth == FMC_NAND_MEM_BUS_WIDTH_8)
 1994              		.loc 1 789 22
ARM GAS  /tmp/ccUr9KqT.s 			page 67


 1995 0242 FB68     		ldr	r3, [r7, #12]
 1996 0244 DB68     		ldr	r3, [r3, #12]
 1997              		.loc 1 789 10
 1998 0246 002B     		cmp	r3, #0
 1999 0248 04D1     		bne	.L63
 790:Drivers/STM32L4xx_HAL_Driver/Src/stm32l4xx_hal_nand.c ****       {
 791:Drivers/STM32L4xx_HAL_Driver/Src/stm32l4xx_hal_nand.c ****         hnand->Config.PageSize = hnand->Config.PageSize / 2U;
 2000              		.loc 1 791 47
 2001 024a FB68     		ldr	r3, [r7, #12]
 2002 024c 5B6A     		ldr	r3, [r3, #36]
 2003              		.loc 1 791 57
 2004 024e 5A08     		lsrs	r2, r3, #1
 2005              		.loc 1 791 32
 2006 0250 FB68     		ldr	r3, [r7, #12]
 2007 0252 5A62     		str	r2, [r3, #36]
 2008              	.L63:
 792:Drivers/STM32L4xx_HAL_Driver/Src/stm32l4xx_hal_nand.c ****       }
 793:Drivers/STM32L4xx_HAL_Driver/Src/stm32l4xx_hal_nand.c ****       else
 794:Drivers/STM32L4xx_HAL_Driver/Src/stm32l4xx_hal_nand.c ****       {
 795:Drivers/STM32L4xx_HAL_Driver/Src/stm32l4xx_hal_nand.c ****         /* Do nothing */
 796:Drivers/STM32L4xx_HAL_Driver/Src/stm32l4xx_hal_nand.c ****         /* Keep the same PageSize for FMC_NAND_MEM_BUS_WIDTH_16*/
 797:Drivers/STM32L4xx_HAL_Driver/Src/stm32l4xx_hal_nand.c ****       }
 798:Drivers/STM32L4xx_HAL_Driver/Src/stm32l4xx_hal_nand.c **** 
 799:Drivers/STM32L4xx_HAL_Driver/Src/stm32l4xx_hal_nand.c ****       /* Get Data into Buffer */
 800:Drivers/STM32L4xx_HAL_Driver/Src/stm32l4xx_hal_nand.c ****       for (index = 0U; index < hnand->Config.PageSize; index++)
 2009              		.loc 1 800 18
 2010 0254 0023     		movs	r3, #0
 2011 0256 7B62     		str	r3, [r7, #36]
 2012              		.loc 1 800 7
 2013 0258 0AE0     		b	.L64
 2014              	.L65:
 801:Drivers/STM32L4xx_HAL_Driver/Src/stm32l4xx_hal_nand.c ****       {
 802:Drivers/STM32L4xx_HAL_Driver/Src/stm32l4xx_hal_nand.c ****         *buff = *(__IO uint16_t *)deviceaddress;
 2015              		.loc 1 802 18
 2016 025a 7B69     		ldr	r3, [r7, #20]
 2017              		.loc 1 802 17
 2018 025c 1B88     		ldrh	r3, [r3]	@ movhi
 2019 025e 9AB2     		uxth	r2, r3
 2020              		.loc 1 802 15
 2021 0260 BB69     		ldr	r3, [r7, #24]
 2022 0262 1A80     		strh	r2, [r3]	@ movhi
 803:Drivers/STM32L4xx_HAL_Driver/Src/stm32l4xx_hal_nand.c ****         buff++;
 2023              		.loc 1 803 13
 2024 0264 BB69     		ldr	r3, [r7, #24]
 2025 0266 0233     		adds	r3, r3, #2
 2026 0268 BB61     		str	r3, [r7, #24]
 800:Drivers/STM32L4xx_HAL_Driver/Src/stm32l4xx_hal_nand.c ****       {
 2027              		.loc 1 800 61 discriminator 3
 2028 026a 7B6A     		ldr	r3, [r7, #36]
 2029 026c 0133     		adds	r3, r3, #1
 2030 026e 7B62     		str	r3, [r7, #36]
 2031              	.L64:
 800:Drivers/STM32L4xx_HAL_Driver/Src/stm32l4xx_hal_nand.c ****       {
 2032              		.loc 1 800 45 discriminator 1
 2033 0270 FB68     		ldr	r3, [r7, #12]
 2034 0272 5B6A     		ldr	r3, [r3, #36]
 800:Drivers/STM32L4xx_HAL_Driver/Src/stm32l4xx_hal_nand.c ****       {
ARM GAS  /tmp/ccUr9KqT.s 			page 68


 2035              		.loc 1 800 30 discriminator 1
 2036 0274 7A6A     		ldr	r2, [r7, #36]
 2037 0276 9A42     		cmp	r2, r3
 2038 0278 EFD3     		bcc	.L65
 804:Drivers/STM32L4xx_HAL_Driver/Src/stm32l4xx_hal_nand.c ****       }
 805:Drivers/STM32L4xx_HAL_Driver/Src/stm32l4xx_hal_nand.c **** 
 806:Drivers/STM32L4xx_HAL_Driver/Src/stm32l4xx_hal_nand.c ****       /* Decrement pages to read */
 807:Drivers/STM32L4xx_HAL_Driver/Src/stm32l4xx_hal_nand.c ****       nbpages--;
 2039              		.loc 1 807 14
 2040 027a FB69     		ldr	r3, [r7, #28]
 2041 027c 013B     		subs	r3, r3, #1
 2042 027e FB61     		str	r3, [r7, #28]
 808:Drivers/STM32L4xx_HAL_Driver/Src/stm32l4xx_hal_nand.c **** 
 809:Drivers/STM32L4xx_HAL_Driver/Src/stm32l4xx_hal_nand.c ****       /* Increment the NAND address */
 810:Drivers/STM32L4xx_HAL_Driver/Src/stm32l4xx_hal_nand.c ****       nandaddress = (uint32_t)(nandaddress + 1U);
 2043              		.loc 1 810 19
 2044 0280 3B6A     		ldr	r3, [r7, #32]
 2045 0282 0133     		adds	r3, r3, #1
 2046 0284 3B62     		str	r3, [r7, #32]
 2047              	.L55:
 702:Drivers/STM32L4xx_HAL_Driver/Src/stm32l4xx_hal_nand.c ****     {
 2048              		.loc 1 702 28
 2049 0286 FB69     		ldr	r3, [r7, #28]
 2050 0288 002B     		cmp	r3, #0
 2051 028a 09D0     		beq	.L66
 702:Drivers/STM32L4xx_HAL_Driver/Src/stm32l4xx_hal_nand.c ****     {
 2052              		.loc 1 702 61 discriminator 1
 2053 028c FB68     		ldr	r3, [r7, #12]
 2054 028e DB6A     		ldr	r3, [r3, #44]
 702:Drivers/STM32L4xx_HAL_Driver/Src/stm32l4xx_hal_nand.c ****     {
 2055              		.loc 1 702 89 discriminator 1
 2056 0290 FA68     		ldr	r2, [r7, #12]
 2057 0292 126B     		ldr	r2, [r2, #48]
 702:Drivers/STM32L4xx_HAL_Driver/Src/stm32l4xx_hal_nand.c ****     {
 2058              		.loc 1 702 73 discriminator 1
 2059 0294 02FB03F3 		mul	r3, r2, r3
 702:Drivers/STM32L4xx_HAL_Driver/Src/stm32l4xx_hal_nand.c ****     {
 2060              		.loc 1 702 28 discriminator 1
 2061 0298 3A6A     		ldr	r2, [r7, #32]
 2062 029a 9A42     		cmp	r2, r3
 2063 029c FFF4F1AE 		bcc	.L67
 2064              	.L66:
 811:Drivers/STM32L4xx_HAL_Driver/Src/stm32l4xx_hal_nand.c ****     }
 812:Drivers/STM32L4xx_HAL_Driver/Src/stm32l4xx_hal_nand.c **** 
 813:Drivers/STM32L4xx_HAL_Driver/Src/stm32l4xx_hal_nand.c ****     /* Update the NAND controller state */
 814:Drivers/STM32L4xx_HAL_Driver/Src/stm32l4xx_hal_nand.c ****     hnand->State = HAL_NAND_STATE_READY;
 2065              		.loc 1 814 18
 2066 02a0 FB68     		ldr	r3, [r7, #12]
 2067 02a2 0122     		movs	r2, #1
 2068 02a4 83F82120 		strb	r2, [r3, #33]
 815:Drivers/STM32L4xx_HAL_Driver/Src/stm32l4xx_hal_nand.c **** 
 816:Drivers/STM32L4xx_HAL_Driver/Src/stm32l4xx_hal_nand.c ****     /* Process unlocked */
 817:Drivers/STM32L4xx_HAL_Driver/Src/stm32l4xx_hal_nand.c ****     __HAL_UNLOCK(hnand);
 2069              		.loc 1 817 5
 2070 02a8 FB68     		ldr	r3, [r7, #12]
 2071 02aa 0022     		movs	r2, #0
 2072 02ac 83F82020 		strb	r2, [r3, #32]
ARM GAS  /tmp/ccUr9KqT.s 			page 69


 818:Drivers/STM32L4xx_HAL_Driver/Src/stm32l4xx_hal_nand.c ****   }
 819:Drivers/STM32L4xx_HAL_Driver/Src/stm32l4xx_hal_nand.c ****   else
 820:Drivers/STM32L4xx_HAL_Driver/Src/stm32l4xx_hal_nand.c ****   {
 821:Drivers/STM32L4xx_HAL_Driver/Src/stm32l4xx_hal_nand.c ****     return HAL_ERROR;
 822:Drivers/STM32L4xx_HAL_Driver/Src/stm32l4xx_hal_nand.c ****   }
 823:Drivers/STM32L4xx_HAL_Driver/Src/stm32l4xx_hal_nand.c **** 
 824:Drivers/STM32L4xx_HAL_Driver/Src/stm32l4xx_hal_nand.c ****   return HAL_OK;
 2073              		.loc 1 824 10
 2074 02b0 0023     		movs	r3, #0
 2075 02b2 00E0     		b	.L52
 2076              	.L53:
 821:Drivers/STM32L4xx_HAL_Driver/Src/stm32l4xx_hal_nand.c ****   }
 2077              		.loc 1 821 12
 2078 02b4 0123     		movs	r3, #1
 2079              	.L52:
 825:Drivers/STM32L4xx_HAL_Driver/Src/stm32l4xx_hal_nand.c **** }
 2080              		.loc 1 825 1
 2081 02b6 1846     		mov	r0, r3
 2082 02b8 2837     		adds	r7, r7, #40
 2083              		.cfi_def_cfa_offset 8
 2084 02ba BD46     		mov	sp, r7
 2085              		.cfi_def_cfa_register 13
 2086              		@ sp needed
 2087 02bc 80BD     		pop	{r7, pc}
 2088              		.cfi_endproc
 2089              	.LFE455:
 2091              		.section	.text.HAL_NAND_Write_Page_8b,"ax",%progbits
 2092              		.align	1
 2093              		.global	HAL_NAND_Write_Page_8b
 2094              		.syntax unified
 2095              		.thumb
 2096              		.thumb_func
 2098              	HAL_NAND_Write_Page_8b:
 2099              	.LFB456:
 826:Drivers/STM32L4xx_HAL_Driver/Src/stm32l4xx_hal_nand.c **** 
 827:Drivers/STM32L4xx_HAL_Driver/Src/stm32l4xx_hal_nand.c **** /**
 828:Drivers/STM32L4xx_HAL_Driver/Src/stm32l4xx_hal_nand.c ****   * @brief  Write Page(s) to NAND memory block (8-bits addressing)
 829:Drivers/STM32L4xx_HAL_Driver/Src/stm32l4xx_hal_nand.c ****   * @param  hnand pointer to a NAND_HandleTypeDef structure that contains
 830:Drivers/STM32L4xx_HAL_Driver/Src/stm32l4xx_hal_nand.c ****   *                the configuration information for NAND module.
 831:Drivers/STM32L4xx_HAL_Driver/Src/stm32l4xx_hal_nand.c ****   * @param  pAddress  pointer to NAND address structure
 832:Drivers/STM32L4xx_HAL_Driver/Src/stm32l4xx_hal_nand.c ****   * @param  pBuffer  pointer to source buffer to write
 833:Drivers/STM32L4xx_HAL_Driver/Src/stm32l4xx_hal_nand.c ****   * @param  NumPageToWrite   number of pages to write to block
 834:Drivers/STM32L4xx_HAL_Driver/Src/stm32l4xx_hal_nand.c ****   * @retval HAL status
 835:Drivers/STM32L4xx_HAL_Driver/Src/stm32l4xx_hal_nand.c ****   */
 836:Drivers/STM32L4xx_HAL_Driver/Src/stm32l4xx_hal_nand.c **** HAL_StatusTypeDef HAL_NAND_Write_Page_8b(NAND_HandleTypeDef *hnand, const NAND_AddressTypeDef *pAdd
 837:Drivers/STM32L4xx_HAL_Driver/Src/stm32l4xx_hal_nand.c ****                                          const uint8_t *pBuffer, uint32_t NumPageToWrite)
 838:Drivers/STM32L4xx_HAL_Driver/Src/stm32l4xx_hal_nand.c **** {
 2100              		.loc 1 838 1
 2101              		.cfi_startproc
 2102              		@ args = 0, pretend = 0, frame = 40
 2103              		@ frame_needed = 1, uses_anonymous_args = 0
 2104 0000 80B5     		push	{r7, lr}
 2105              		.cfi_def_cfa_offset 8
 2106              		.cfi_offset 7, -8
 2107              		.cfi_offset 14, -4
 2108 0002 8AB0     		sub	sp, sp, #40
 2109              		.cfi_def_cfa_offset 48
ARM GAS  /tmp/ccUr9KqT.s 			page 70


 2110 0004 00AF     		add	r7, sp, #0
 2111              		.cfi_def_cfa_register 7
 2112 0006 F860     		str	r0, [r7, #12]
 2113 0008 B960     		str	r1, [r7, #8]
 2114 000a 7A60     		str	r2, [r7, #4]
 2115 000c 3B60     		str	r3, [r7]
 839:Drivers/STM32L4xx_HAL_Driver/Src/stm32l4xx_hal_nand.c ****   uint32_t index;
 840:Drivers/STM32L4xx_HAL_Driver/Src/stm32l4xx_hal_nand.c ****   uint32_t tickstart;
 841:Drivers/STM32L4xx_HAL_Driver/Src/stm32l4xx_hal_nand.c ****   uint32_t deviceaddress;
 842:Drivers/STM32L4xx_HAL_Driver/Src/stm32l4xx_hal_nand.c ****   uint32_t nandaddress;
 843:Drivers/STM32L4xx_HAL_Driver/Src/stm32l4xx_hal_nand.c ****   uint32_t nbpages = NumPageToWrite;
 2116              		.loc 1 843 12
 2117 000e 3B68     		ldr	r3, [r7]
 2118 0010 FB61     		str	r3, [r7, #28]
 844:Drivers/STM32L4xx_HAL_Driver/Src/stm32l4xx_hal_nand.c ****   const uint8_t *buff = pBuffer;
 2119              		.loc 1 844 18
 2120 0012 7B68     		ldr	r3, [r7, #4]
 2121 0014 BB61     		str	r3, [r7, #24]
 845:Drivers/STM32L4xx_HAL_Driver/Src/stm32l4xx_hal_nand.c **** 
 846:Drivers/STM32L4xx_HAL_Driver/Src/stm32l4xx_hal_nand.c ****   /* Check the NAND controller state */
 847:Drivers/STM32L4xx_HAL_Driver/Src/stm32l4xx_hal_nand.c ****   if (hnand->State == HAL_NAND_STATE_BUSY)
 2122              		.loc 1 847 12
 2123 0016 FB68     		ldr	r3, [r7, #12]
 2124 0018 93F82130 		ldrb	r3, [r3, #33]
 2125 001c DBB2     		uxtb	r3, r3
 2126              		.loc 1 847 6
 2127 001e 022B     		cmp	r3, #2
 2128 0020 01D1     		bne	.L70
 848:Drivers/STM32L4xx_HAL_Driver/Src/stm32l4xx_hal_nand.c ****   {
 849:Drivers/STM32L4xx_HAL_Driver/Src/stm32l4xx_hal_nand.c ****     return HAL_BUSY;
 2129              		.loc 1 849 12
 2130 0022 0223     		movs	r3, #2
 2131 0024 3BE1     		b	.L71
 2132              	.L70:
 850:Drivers/STM32L4xx_HAL_Driver/Src/stm32l4xx_hal_nand.c ****   }
 851:Drivers/STM32L4xx_HAL_Driver/Src/stm32l4xx_hal_nand.c ****   else if (hnand->State == HAL_NAND_STATE_READY)
 2133              		.loc 1 851 17
 2134 0026 FB68     		ldr	r3, [r7, #12]
 2135 0028 93F82130 		ldrb	r3, [r3, #33]
 2136 002c DBB2     		uxtb	r3, r3
 2137              		.loc 1 851 11
 2138 002e 012B     		cmp	r3, #1
 2139 0030 40F03481 		bne	.L72
 852:Drivers/STM32L4xx_HAL_Driver/Src/stm32l4xx_hal_nand.c ****   {
 853:Drivers/STM32L4xx_HAL_Driver/Src/stm32l4xx_hal_nand.c ****     /* Process Locked */
 854:Drivers/STM32L4xx_HAL_Driver/Src/stm32l4xx_hal_nand.c ****     __HAL_LOCK(hnand);
 2140              		.loc 1 854 5
 2141 0034 FB68     		ldr	r3, [r7, #12]
 2142 0036 93F82030 		ldrb	r3, [r3, #32]	@ zero_extendqisi2
 2143 003a 012B     		cmp	r3, #1
 2144 003c 01D1     		bne	.L73
 2145              		.loc 1 854 5 is_stmt 0 discriminator 1
 2146 003e 0223     		movs	r3, #2
 2147              		.loc 1 854 5
 2148 0040 2DE1     		b	.L71
 2149              	.L73:
 2150              		.loc 1 854 5 discriminator 2
ARM GAS  /tmp/ccUr9KqT.s 			page 71


 2151 0042 FB68     		ldr	r3, [r7, #12]
 2152 0044 0122     		movs	r2, #1
 2153 0046 83F82020 		strb	r2, [r3, #32]
 855:Drivers/STM32L4xx_HAL_Driver/Src/stm32l4xx_hal_nand.c **** 
 856:Drivers/STM32L4xx_HAL_Driver/Src/stm32l4xx_hal_nand.c ****     /* Update the NAND controller state */
 857:Drivers/STM32L4xx_HAL_Driver/Src/stm32l4xx_hal_nand.c ****     hnand->State = HAL_NAND_STATE_BUSY;
 2154              		.loc 1 857 18 is_stmt 1
 2155 004a FB68     		ldr	r3, [r7, #12]
 2156 004c 0222     		movs	r2, #2
 2157 004e 83F82120 		strb	r2, [r3, #33]
 858:Drivers/STM32L4xx_HAL_Driver/Src/stm32l4xx_hal_nand.c **** 
 859:Drivers/STM32L4xx_HAL_Driver/Src/stm32l4xx_hal_nand.c ****     /* Identify the device address */
 860:Drivers/STM32L4xx_HAL_Driver/Src/stm32l4xx_hal_nand.c ****     deviceaddress = NAND_DEVICE;
 2158              		.loc 1 860 19
 2159 0052 4FF00043 		mov	r3, #-2147483648
 2160 0056 7B61     		str	r3, [r7, #20]
 861:Drivers/STM32L4xx_HAL_Driver/Src/stm32l4xx_hal_nand.c **** 
 862:Drivers/STM32L4xx_HAL_Driver/Src/stm32l4xx_hal_nand.c ****     /* NAND raw address calculation */
 863:Drivers/STM32L4xx_HAL_Driver/Src/stm32l4xx_hal_nand.c ****     nandaddress = ARRAY_ADDRESS(pAddress, hnand);
 2161              		.loc 1 863 19
 2162 0058 BB68     		ldr	r3, [r7, #8]
 2163 005a 1B88     		ldrh	r3, [r3]
 2164 005c 1946     		mov	r1, r3
 2165 005e BB68     		ldr	r3, [r7, #8]
 2166 0060 9B88     		ldrh	r3, [r3, #4]
 2167 0062 1A46     		mov	r2, r3
 2168 0064 BB68     		ldr	r3, [r7, #8]
 2169 0066 5B88     		ldrh	r3, [r3, #2]
 2170 0068 1846     		mov	r0, r3
 2171 006a FB68     		ldr	r3, [r7, #12]
 2172 006c 9B6B     		ldr	r3, [r3, #56]
 2173 006e 00FB03F3 		mul	r3, r0, r3
 2174 0072 1344     		add	r3, r3, r2
 2175 0074 FA68     		ldr	r2, [r7, #12]
 2176 0076 D26A     		ldr	r2, [r2, #44]
 2177 0078 02FB03F3 		mul	r3, r2, r3
 2178              		.loc 1 863 17
 2179 007c 0B44     		add	r3, r3, r1
 2180 007e 3B62     		str	r3, [r7, #32]
 864:Drivers/STM32L4xx_HAL_Driver/Src/stm32l4xx_hal_nand.c **** 
 865:Drivers/STM32L4xx_HAL_Driver/Src/stm32l4xx_hal_nand.c ****     /* Page(s) write loop */
 866:Drivers/STM32L4xx_HAL_Driver/Src/stm32l4xx_hal_nand.c ****     while ((nbpages != 0U) && (nandaddress < ((hnand->Config.BlockSize) * (hnand->Config.BlockNbr))
 2181              		.loc 1 866 11
 2182 0080 F5E0     		b	.L74
 2183              	.L84:
 867:Drivers/STM32L4xx_HAL_Driver/Src/stm32l4xx_hal_nand.c ****     {
 868:Drivers/STM32L4xx_HAL_Driver/Src/stm32l4xx_hal_nand.c ****       /* Send write page command sequence */
 869:Drivers/STM32L4xx_HAL_Driver/Src/stm32l4xx_hal_nand.c ****       *(__IO uint8_t *)((uint32_t)(deviceaddress | CMD_AREA)) = NAND_CMD_AREA_A;
 2184              		.loc 1 869 25
 2185 0082 7B69     		ldr	r3, [r7, #20]
 2186 0084 43F48033 		orr	r3, r3, #65536
 2187              		.loc 1 869 63
 2188 0088 0022     		movs	r2, #0
 2189 008a 1A70     		strb	r2, [r3]
 2190              	.LBB420:
 2191              	.LBB421:
 946:Drivers/CMSIS/Core/Include/cmsis_gcc.h **** }
ARM GAS  /tmp/ccUr9KqT.s 			page 72


 2192              		.loc 2 946 3
 2193              		.syntax unified
 2194              	@ 946 "Drivers/CMSIS/Core/Include/cmsis_gcc.h" 1
 2195 008c BFF34F8F 		dsb 0xF
 2196              	@ 0 "" 2
 2197              		.loc 2 947 1
 2198              		.thumb
 2199              		.syntax unified
 2200 0090 00BF     		nop
 2201              	.LBE421:
 2202              	.LBE420:
 870:Drivers/STM32L4xx_HAL_Driver/Src/stm32l4xx_hal_nand.c ****       __DSB();
 871:Drivers/STM32L4xx_HAL_Driver/Src/stm32l4xx_hal_nand.c ****       *(__IO uint8_t *)((uint32_t)(deviceaddress | CMD_AREA)) = NAND_CMD_WRITE0;
 2203              		.loc 1 871 25
 2204 0092 7B69     		ldr	r3, [r7, #20]
 2205 0094 43F48033 		orr	r3, r3, #65536
 2206              		.loc 1 871 63
 2207 0098 8022     		movs	r2, #128
 2208 009a 1A70     		strb	r2, [r3]
 2209              	.LBB422:
 2210              	.LBB423:
 946:Drivers/CMSIS/Core/Include/cmsis_gcc.h **** }
 2211              		.loc 2 946 3
 2212              		.syntax unified
 2213              	@ 946 "Drivers/CMSIS/Core/Include/cmsis_gcc.h" 1
 2214 009c BFF34F8F 		dsb 0xF
 2215              	@ 0 "" 2
 2216              		.loc 2 947 1
 2217              		.thumb
 2218              		.syntax unified
 2219 00a0 00BF     		nop
 2220              	.LBE423:
 2221              	.LBE422:
 872:Drivers/STM32L4xx_HAL_Driver/Src/stm32l4xx_hal_nand.c ****       __DSB();
 873:Drivers/STM32L4xx_HAL_Driver/Src/stm32l4xx_hal_nand.c **** 
 874:Drivers/STM32L4xx_HAL_Driver/Src/stm32l4xx_hal_nand.c ****       /* Cards with page size <= 512 bytes */
 875:Drivers/STM32L4xx_HAL_Driver/Src/stm32l4xx_hal_nand.c ****       if ((hnand->Config.PageSize) <= 512U)
 2222              		.loc 1 875 25
 2223 00a2 FB68     		ldr	r3, [r7, #12]
 2224 00a4 5B6A     		ldr	r3, [r3, #36]
 2225              		.loc 1 875 10
 2226 00a6 B3F5007F 		cmp	r3, #512
 2227 00aa 48D8     		bhi	.L75
 876:Drivers/STM32L4xx_HAL_Driver/Src/stm32l4xx_hal_nand.c ****       {
 877:Drivers/STM32L4xx_HAL_Driver/Src/stm32l4xx_hal_nand.c ****         if (((hnand->Config.BlockSize) * (hnand->Config.BlockNbr)) <= 65535U)
 2228              		.loc 1 877 28
 2229 00ac FB68     		ldr	r3, [r7, #12]
 2230 00ae DB6A     		ldr	r3, [r3, #44]
 2231              		.loc 1 877 56
 2232 00b0 FA68     		ldr	r2, [r7, #12]
 2233 00b2 126B     		ldr	r2, [r2, #48]
 2234              		.loc 1 877 40
 2235 00b4 02FB03F3 		mul	r3, r2, r3
 2236              		.loc 1 877 12
 2237 00b8 B3F5803F 		cmp	r3, #65536
 2238 00bc 1AD2     		bcs	.L76
 878:Drivers/STM32L4xx_HAL_Driver/Src/stm32l4xx_hal_nand.c ****         {
ARM GAS  /tmp/ccUr9KqT.s 			page 73


 879:Drivers/STM32L4xx_HAL_Driver/Src/stm32l4xx_hal_nand.c ****           *(__IO uint8_t *)((uint32_t)(deviceaddress | ADDR_AREA)) = 0x00U;
 2239              		.loc 1 879 29
 2240 00be 7B69     		ldr	r3, [r7, #20]
 2241 00c0 43F40033 		orr	r3, r3, #131072
 2242              		.loc 1 879 68
 2243 00c4 0022     		movs	r2, #0
 2244 00c6 1A70     		strb	r2, [r3]
 2245              	.LBB424:
 2246              	.LBB425:
 946:Drivers/CMSIS/Core/Include/cmsis_gcc.h **** }
 2247              		.loc 2 946 3
 2248              		.syntax unified
 2249              	@ 946 "Drivers/CMSIS/Core/Include/cmsis_gcc.h" 1
 2250 00c8 BFF34F8F 		dsb 0xF
 2251              	@ 0 "" 2
 2252              		.loc 2 947 1
 2253              		.thumb
 2254              		.syntax unified
 2255 00cc 00BF     		nop
 2256              	.LBE425:
 2257              	.LBE424:
 880:Drivers/STM32L4xx_HAL_Driver/Src/stm32l4xx_hal_nand.c ****           __DSB();
 881:Drivers/STM32L4xx_HAL_Driver/Src/stm32l4xx_hal_nand.c ****           *(__IO uint8_t *)((uint32_t)(deviceaddress | ADDR_AREA)) = ADDR_1ST_CYCLE(nandaddress);
 2258              		.loc 1 881 29
 2259 00ce 7B69     		ldr	r3, [r7, #20]
 2260 00d0 43F40033 		orr	r3, r3, #131072
 2261              		.loc 1 881 70
 2262 00d4 3A6A     		ldr	r2, [r7, #32]
 2263 00d6 D2B2     		uxtb	r2, r2
 2264              		.loc 1 881 68
 2265 00d8 1A70     		strb	r2, [r3]
 2266              	.LBB426:
 2267              	.LBB427:
 946:Drivers/CMSIS/Core/Include/cmsis_gcc.h **** }
 2268              		.loc 2 946 3
 2269              		.syntax unified
 2270              	@ 946 "Drivers/CMSIS/Core/Include/cmsis_gcc.h" 1
 2271 00da BFF34F8F 		dsb 0xF
 2272              	@ 0 "" 2
 2273              		.loc 2 947 1
 2274              		.thumb
 2275              		.syntax unified
 2276 00de 00BF     		nop
 2277              	.LBE427:
 2278              	.LBE426:
 882:Drivers/STM32L4xx_HAL_Driver/Src/stm32l4xx_hal_nand.c ****           __DSB();
 883:Drivers/STM32L4xx_HAL_Driver/Src/stm32l4xx_hal_nand.c ****           *(__IO uint8_t *)((uint32_t)(deviceaddress | ADDR_AREA)) = ADDR_2ND_CYCLE(nandaddress);
 2279              		.loc 1 883 70
 2280 00e0 3B6A     		ldr	r3, [r7, #32]
 2281 00e2 1A0A     		lsrs	r2, r3, #8
 2282              		.loc 1 883 29
 2283 00e4 7B69     		ldr	r3, [r7, #20]
 2284 00e6 43F40033 		orr	r3, r3, #131072
 2285              		.loc 1 883 70
 2286 00ea D2B2     		uxtb	r2, r2
 2287              		.loc 1 883 68
 2288 00ec 1A70     		strb	r2, [r3]
ARM GAS  /tmp/ccUr9KqT.s 			page 74


 2289              	.LBB428:
 2290              	.LBB429:
 946:Drivers/CMSIS/Core/Include/cmsis_gcc.h **** }
 2291              		.loc 2 946 3
 2292              		.syntax unified
 2293              	@ 946 "Drivers/CMSIS/Core/Include/cmsis_gcc.h" 1
 2294 00ee BFF34F8F 		dsb 0xF
 2295              	@ 0 "" 2
 2296              		.loc 2 947 1
 2297              		.thumb
 2298              		.syntax unified
 2299 00f2 7DE0     		b	.L77
 2300              	.L76:
 2301              	.LBE429:
 2302              	.LBE428:
 884:Drivers/STM32L4xx_HAL_Driver/Src/stm32l4xx_hal_nand.c ****           __DSB();
 885:Drivers/STM32L4xx_HAL_Driver/Src/stm32l4xx_hal_nand.c ****         }
 886:Drivers/STM32L4xx_HAL_Driver/Src/stm32l4xx_hal_nand.c ****         else /* ((hnand->Config.BlockSize)*(hnand->Config.BlockNbr)) > 65535 */
 887:Drivers/STM32L4xx_HAL_Driver/Src/stm32l4xx_hal_nand.c ****         {
 888:Drivers/STM32L4xx_HAL_Driver/Src/stm32l4xx_hal_nand.c ****           *(__IO uint8_t *)((uint32_t)(deviceaddress | ADDR_AREA)) = 0x00U;
 2303              		.loc 1 888 29
 2304 00f4 7B69     		ldr	r3, [r7, #20]
 2305 00f6 43F40033 		orr	r3, r3, #131072
 2306              		.loc 1 888 68
 2307 00fa 0022     		movs	r2, #0
 2308 00fc 1A70     		strb	r2, [r3]
 2309              	.LBB430:
 2310              	.LBB431:
 946:Drivers/CMSIS/Core/Include/cmsis_gcc.h **** }
 2311              		.loc 2 946 3
 2312              		.syntax unified
 2313              	@ 946 "Drivers/CMSIS/Core/Include/cmsis_gcc.h" 1
 2314 00fe BFF34F8F 		dsb 0xF
 2315              	@ 0 "" 2
 2316              		.loc 2 947 1
 2317              		.thumb
 2318              		.syntax unified
 2319 0102 00BF     		nop
 2320              	.LBE431:
 2321              	.LBE430:
 889:Drivers/STM32L4xx_HAL_Driver/Src/stm32l4xx_hal_nand.c ****           __DSB();
 890:Drivers/STM32L4xx_HAL_Driver/Src/stm32l4xx_hal_nand.c ****           *(__IO uint8_t *)((uint32_t)(deviceaddress | ADDR_AREA)) = ADDR_1ST_CYCLE(nandaddress);
 2322              		.loc 1 890 29
 2323 0104 7B69     		ldr	r3, [r7, #20]
 2324 0106 43F40033 		orr	r3, r3, #131072
 2325              		.loc 1 890 70
 2326 010a 3A6A     		ldr	r2, [r7, #32]
 2327 010c D2B2     		uxtb	r2, r2
 2328              		.loc 1 890 68
 2329 010e 1A70     		strb	r2, [r3]
 2330              	.LBB432:
 2331              	.LBB433:
 946:Drivers/CMSIS/Core/Include/cmsis_gcc.h **** }
 2332              		.loc 2 946 3
 2333              		.syntax unified
 2334              	@ 946 "Drivers/CMSIS/Core/Include/cmsis_gcc.h" 1
 2335 0110 BFF34F8F 		dsb 0xF
ARM GAS  /tmp/ccUr9KqT.s 			page 75


 2336              	@ 0 "" 2
 2337              		.loc 2 947 1
 2338              		.thumb
 2339              		.syntax unified
 2340 0114 00BF     		nop
 2341              	.LBE433:
 2342              	.LBE432:
 891:Drivers/STM32L4xx_HAL_Driver/Src/stm32l4xx_hal_nand.c ****           __DSB();
 892:Drivers/STM32L4xx_HAL_Driver/Src/stm32l4xx_hal_nand.c ****           *(__IO uint8_t *)((uint32_t)(deviceaddress | ADDR_AREA)) = ADDR_2ND_CYCLE(nandaddress);
 2343              		.loc 1 892 70
 2344 0116 3B6A     		ldr	r3, [r7, #32]
 2345 0118 1A0A     		lsrs	r2, r3, #8
 2346              		.loc 1 892 29
 2347 011a 7B69     		ldr	r3, [r7, #20]
 2348 011c 43F40033 		orr	r3, r3, #131072
 2349              		.loc 1 892 70
 2350 0120 D2B2     		uxtb	r2, r2
 2351              		.loc 1 892 68
 2352 0122 1A70     		strb	r2, [r3]
 2353              	.LBB434:
 2354              	.LBB435:
 946:Drivers/CMSIS/Core/Include/cmsis_gcc.h **** }
 2355              		.loc 2 946 3
 2356              		.syntax unified
 2357              	@ 946 "Drivers/CMSIS/Core/Include/cmsis_gcc.h" 1
 2358 0124 BFF34F8F 		dsb 0xF
 2359              	@ 0 "" 2
 2360              		.loc 2 947 1
 2361              		.thumb
 2362              		.syntax unified
 2363 0128 00BF     		nop
 2364              	.LBE435:
 2365              	.LBE434:
 893:Drivers/STM32L4xx_HAL_Driver/Src/stm32l4xx_hal_nand.c ****           __DSB();
 894:Drivers/STM32L4xx_HAL_Driver/Src/stm32l4xx_hal_nand.c ****           *(__IO uint8_t *)((uint32_t)(deviceaddress | ADDR_AREA)) = ADDR_3RD_CYCLE(nandaddress);
 2366              		.loc 1 894 70
 2367 012a 3B6A     		ldr	r3, [r7, #32]
 2368 012c 1A0C     		lsrs	r2, r3, #16
 2369              		.loc 1 894 29
 2370 012e 7B69     		ldr	r3, [r7, #20]
 2371 0130 43F40033 		orr	r3, r3, #131072
 2372              		.loc 1 894 70
 2373 0134 D2B2     		uxtb	r2, r2
 2374              		.loc 1 894 68
 2375 0136 1A70     		strb	r2, [r3]
 2376              	.LBB436:
 2377              	.LBB437:
 946:Drivers/CMSIS/Core/Include/cmsis_gcc.h **** }
 2378              		.loc 2 946 3
 2379              		.syntax unified
 2380              	@ 946 "Drivers/CMSIS/Core/Include/cmsis_gcc.h" 1
 2381 0138 BFF34F8F 		dsb 0xF
 2382              	@ 0 "" 2
 2383              		.loc 2 947 1
 2384              		.thumb
 2385              		.syntax unified
 2386 013c 58E0     		b	.L77
ARM GAS  /tmp/ccUr9KqT.s 			page 76


 2387              	.L75:
 2388              	.LBE437:
 2389              	.LBE436:
 895:Drivers/STM32L4xx_HAL_Driver/Src/stm32l4xx_hal_nand.c ****           __DSB();
 896:Drivers/STM32L4xx_HAL_Driver/Src/stm32l4xx_hal_nand.c ****         }
 897:Drivers/STM32L4xx_HAL_Driver/Src/stm32l4xx_hal_nand.c ****       }
 898:Drivers/STM32L4xx_HAL_Driver/Src/stm32l4xx_hal_nand.c ****       else /* (hnand->Config.PageSize) > 512 */
 899:Drivers/STM32L4xx_HAL_Driver/Src/stm32l4xx_hal_nand.c ****       {
 900:Drivers/STM32L4xx_HAL_Driver/Src/stm32l4xx_hal_nand.c ****         if (((hnand->Config.BlockSize) * (hnand->Config.BlockNbr)) <= 65535U)
 2390              		.loc 1 900 28
 2391 013e FB68     		ldr	r3, [r7, #12]
 2392 0140 DB6A     		ldr	r3, [r3, #44]
 2393              		.loc 1 900 56
 2394 0142 FA68     		ldr	r2, [r7, #12]
 2395 0144 126B     		ldr	r2, [r2, #48]
 2396              		.loc 1 900 40
 2397 0146 02FB03F3 		mul	r3, r2, r3
 2398              		.loc 1 900 12
 2399 014a B3F5803F 		cmp	r3, #65536
 2400 014e 22D2     		bcs	.L78
 901:Drivers/STM32L4xx_HAL_Driver/Src/stm32l4xx_hal_nand.c ****         {
 902:Drivers/STM32L4xx_HAL_Driver/Src/stm32l4xx_hal_nand.c ****           *(__IO uint8_t *)((uint32_t)(deviceaddress | ADDR_AREA)) = 0x00U;
 2401              		.loc 1 902 29
 2402 0150 7B69     		ldr	r3, [r7, #20]
 2403 0152 43F40033 		orr	r3, r3, #131072
 2404              		.loc 1 902 68
 2405 0156 0022     		movs	r2, #0
 2406 0158 1A70     		strb	r2, [r3]
 2407              	.LBB438:
 2408              	.LBB439:
 946:Drivers/CMSIS/Core/Include/cmsis_gcc.h **** }
 2409              		.loc 2 946 3
 2410              		.syntax unified
 2411              	@ 946 "Drivers/CMSIS/Core/Include/cmsis_gcc.h" 1
 2412 015a BFF34F8F 		dsb 0xF
 2413              	@ 0 "" 2
 2414              		.loc 2 947 1
 2415              		.thumb
 2416              		.syntax unified
 2417 015e 00BF     		nop
 2418              	.LBE439:
 2419              	.LBE438:
 903:Drivers/STM32L4xx_HAL_Driver/Src/stm32l4xx_hal_nand.c ****           __DSB();
 904:Drivers/STM32L4xx_HAL_Driver/Src/stm32l4xx_hal_nand.c ****           *(__IO uint8_t *)((uint32_t)(deviceaddress | ADDR_AREA)) = 0x00U;
 2420              		.loc 1 904 29
 2421 0160 7B69     		ldr	r3, [r7, #20]
 2422 0162 43F40033 		orr	r3, r3, #131072
 2423              		.loc 1 904 68
 2424 0166 0022     		movs	r2, #0
 2425 0168 1A70     		strb	r2, [r3]
 2426              	.LBB440:
 2427              	.LBB441:
 946:Drivers/CMSIS/Core/Include/cmsis_gcc.h **** }
 2428              		.loc 2 946 3
 2429              		.syntax unified
 2430              	@ 946 "Drivers/CMSIS/Core/Include/cmsis_gcc.h" 1
 2431 016a BFF34F8F 		dsb 0xF
ARM GAS  /tmp/ccUr9KqT.s 			page 77


 2432              	@ 0 "" 2
 2433              		.loc 2 947 1
 2434              		.thumb
 2435              		.syntax unified
 2436 016e 00BF     		nop
 2437              	.LBE441:
 2438              	.LBE440:
 905:Drivers/STM32L4xx_HAL_Driver/Src/stm32l4xx_hal_nand.c ****           __DSB();
 906:Drivers/STM32L4xx_HAL_Driver/Src/stm32l4xx_hal_nand.c ****           *(__IO uint8_t *)((uint32_t)(deviceaddress | ADDR_AREA)) = ADDR_1ST_CYCLE(nandaddress);
 2439              		.loc 1 906 29
 2440 0170 7B69     		ldr	r3, [r7, #20]
 2441 0172 43F40033 		orr	r3, r3, #131072
 2442              		.loc 1 906 70
 2443 0176 3A6A     		ldr	r2, [r7, #32]
 2444 0178 D2B2     		uxtb	r2, r2
 2445              		.loc 1 906 68
 2446 017a 1A70     		strb	r2, [r3]
 2447              	.LBB442:
 2448              	.LBB443:
 946:Drivers/CMSIS/Core/Include/cmsis_gcc.h **** }
 2449              		.loc 2 946 3
 2450              		.syntax unified
 2451              	@ 946 "Drivers/CMSIS/Core/Include/cmsis_gcc.h" 1
 2452 017c BFF34F8F 		dsb 0xF
 2453              	@ 0 "" 2
 2454              		.loc 2 947 1
 2455              		.thumb
 2456              		.syntax unified
 2457 0180 00BF     		nop
 2458              	.LBE443:
 2459              	.LBE442:
 907:Drivers/STM32L4xx_HAL_Driver/Src/stm32l4xx_hal_nand.c ****           __DSB();
 908:Drivers/STM32L4xx_HAL_Driver/Src/stm32l4xx_hal_nand.c ****           *(__IO uint8_t *)((uint32_t)(deviceaddress | ADDR_AREA)) = ADDR_2ND_CYCLE(nandaddress);
 2460              		.loc 1 908 70
 2461 0182 3B6A     		ldr	r3, [r7, #32]
 2462 0184 1A0A     		lsrs	r2, r3, #8
 2463              		.loc 1 908 29
 2464 0186 7B69     		ldr	r3, [r7, #20]
 2465 0188 43F40033 		orr	r3, r3, #131072
 2466              		.loc 1 908 70
 2467 018c D2B2     		uxtb	r2, r2
 2468              		.loc 1 908 68
 2469 018e 1A70     		strb	r2, [r3]
 2470              	.LBB444:
 2471              	.LBB445:
 946:Drivers/CMSIS/Core/Include/cmsis_gcc.h **** }
 2472              		.loc 2 946 3
 2473              		.syntax unified
 2474              	@ 946 "Drivers/CMSIS/Core/Include/cmsis_gcc.h" 1
 2475 0190 BFF34F8F 		dsb 0xF
 2476              	@ 0 "" 2
 2477              		.loc 2 947 1
 2478              		.thumb
 2479              		.syntax unified
 2480 0194 2CE0     		b	.L77
 2481              	.L78:
 2482              	.LBE445:
ARM GAS  /tmp/ccUr9KqT.s 			page 78


 2483              	.LBE444:
 909:Drivers/STM32L4xx_HAL_Driver/Src/stm32l4xx_hal_nand.c ****           __DSB();
 910:Drivers/STM32L4xx_HAL_Driver/Src/stm32l4xx_hal_nand.c ****         }
 911:Drivers/STM32L4xx_HAL_Driver/Src/stm32l4xx_hal_nand.c ****         else /* ((hnand->Config.BlockSize)*(hnand->Config.BlockNbr)) > 65535 */
 912:Drivers/STM32L4xx_HAL_Driver/Src/stm32l4xx_hal_nand.c ****         {
 913:Drivers/STM32L4xx_HAL_Driver/Src/stm32l4xx_hal_nand.c ****           *(__IO uint8_t *)((uint32_t)(deviceaddress | ADDR_AREA)) = 0x00U;
 2484              		.loc 1 913 29
 2485 0196 7B69     		ldr	r3, [r7, #20]
 2486 0198 43F40033 		orr	r3, r3, #131072
 2487              		.loc 1 913 68
 2488 019c 0022     		movs	r2, #0
 2489 019e 1A70     		strb	r2, [r3]
 2490              	.LBB446:
 2491              	.LBB447:
 946:Drivers/CMSIS/Core/Include/cmsis_gcc.h **** }
 2492              		.loc 2 946 3
 2493              		.syntax unified
 2494              	@ 946 "Drivers/CMSIS/Core/Include/cmsis_gcc.h" 1
 2495 01a0 BFF34F8F 		dsb 0xF
 2496              	@ 0 "" 2
 2497              		.loc 2 947 1
 2498              		.thumb
 2499              		.syntax unified
 2500 01a4 00BF     		nop
 2501              	.LBE447:
 2502              	.LBE446:
 914:Drivers/STM32L4xx_HAL_Driver/Src/stm32l4xx_hal_nand.c ****           __DSB();
 915:Drivers/STM32L4xx_HAL_Driver/Src/stm32l4xx_hal_nand.c ****           *(__IO uint8_t *)((uint32_t)(deviceaddress | ADDR_AREA)) = 0x00U;
 2503              		.loc 1 915 29
 2504 01a6 7B69     		ldr	r3, [r7, #20]
 2505 01a8 43F40033 		orr	r3, r3, #131072
 2506              		.loc 1 915 68
 2507 01ac 0022     		movs	r2, #0
 2508 01ae 1A70     		strb	r2, [r3]
 2509              	.LBB448:
 2510              	.LBB449:
 946:Drivers/CMSIS/Core/Include/cmsis_gcc.h **** }
 2511              		.loc 2 946 3
 2512              		.syntax unified
 2513              	@ 946 "Drivers/CMSIS/Core/Include/cmsis_gcc.h" 1
 2514 01b0 BFF34F8F 		dsb 0xF
 2515              	@ 0 "" 2
 2516              		.loc 2 947 1
 2517              		.thumb
 2518              		.syntax unified
 2519 01b4 00BF     		nop
 2520              	.LBE449:
 2521              	.LBE448:
 916:Drivers/STM32L4xx_HAL_Driver/Src/stm32l4xx_hal_nand.c ****           __DSB();
 917:Drivers/STM32L4xx_HAL_Driver/Src/stm32l4xx_hal_nand.c ****           *(__IO uint8_t *)((uint32_t)(deviceaddress | ADDR_AREA)) = ADDR_1ST_CYCLE(nandaddress);
 2522              		.loc 1 917 29
 2523 01b6 7B69     		ldr	r3, [r7, #20]
 2524 01b8 43F40033 		orr	r3, r3, #131072
 2525              		.loc 1 917 70
 2526 01bc 3A6A     		ldr	r2, [r7, #32]
 2527 01be D2B2     		uxtb	r2, r2
 2528              		.loc 1 917 68
ARM GAS  /tmp/ccUr9KqT.s 			page 79


 2529 01c0 1A70     		strb	r2, [r3]
 2530              	.LBB450:
 2531              	.LBB451:
 946:Drivers/CMSIS/Core/Include/cmsis_gcc.h **** }
 2532              		.loc 2 946 3
 2533              		.syntax unified
 2534              	@ 946 "Drivers/CMSIS/Core/Include/cmsis_gcc.h" 1
 2535 01c2 BFF34F8F 		dsb 0xF
 2536              	@ 0 "" 2
 2537              		.loc 2 947 1
 2538              		.thumb
 2539              		.syntax unified
 2540 01c6 00BF     		nop
 2541              	.LBE451:
 2542              	.LBE450:
 918:Drivers/STM32L4xx_HAL_Driver/Src/stm32l4xx_hal_nand.c ****           __DSB();
 919:Drivers/STM32L4xx_HAL_Driver/Src/stm32l4xx_hal_nand.c ****           *(__IO uint8_t *)((uint32_t)(deviceaddress | ADDR_AREA)) = ADDR_2ND_CYCLE(nandaddress);
 2543              		.loc 1 919 70
 2544 01c8 3B6A     		ldr	r3, [r7, #32]
 2545 01ca 1A0A     		lsrs	r2, r3, #8
 2546              		.loc 1 919 29
 2547 01cc 7B69     		ldr	r3, [r7, #20]
 2548 01ce 43F40033 		orr	r3, r3, #131072
 2549              		.loc 1 919 70
 2550 01d2 D2B2     		uxtb	r2, r2
 2551              		.loc 1 919 68
 2552 01d4 1A70     		strb	r2, [r3]
 2553              	.LBB452:
 2554              	.LBB453:
 946:Drivers/CMSIS/Core/Include/cmsis_gcc.h **** }
 2555              		.loc 2 946 3
 2556              		.syntax unified
 2557              	@ 946 "Drivers/CMSIS/Core/Include/cmsis_gcc.h" 1
 2558 01d6 BFF34F8F 		dsb 0xF
 2559              	@ 0 "" 2
 2560              		.loc 2 947 1
 2561              		.thumb
 2562              		.syntax unified
 2563 01da 00BF     		nop
 2564              	.LBE453:
 2565              	.LBE452:
 920:Drivers/STM32L4xx_HAL_Driver/Src/stm32l4xx_hal_nand.c ****           __DSB();
 921:Drivers/STM32L4xx_HAL_Driver/Src/stm32l4xx_hal_nand.c ****           *(__IO uint8_t *)((uint32_t)(deviceaddress | ADDR_AREA)) = ADDR_3RD_CYCLE(nandaddress);
 2566              		.loc 1 921 70
 2567 01dc 3B6A     		ldr	r3, [r7, #32]
 2568 01de 1A0C     		lsrs	r2, r3, #16
 2569              		.loc 1 921 29
 2570 01e0 7B69     		ldr	r3, [r7, #20]
 2571 01e2 43F40033 		orr	r3, r3, #131072
 2572              		.loc 1 921 70
 2573 01e6 D2B2     		uxtb	r2, r2
 2574              		.loc 1 921 68
 2575 01e8 1A70     		strb	r2, [r3]
 2576              	.LBB454:
 2577              	.LBB455:
 946:Drivers/CMSIS/Core/Include/cmsis_gcc.h **** }
 2578              		.loc 2 946 3
ARM GAS  /tmp/ccUr9KqT.s 			page 80


 2579              		.syntax unified
 2580              	@ 946 "Drivers/CMSIS/Core/Include/cmsis_gcc.h" 1
 2581 01ea BFF34F8F 		dsb 0xF
 2582              	@ 0 "" 2
 2583              		.loc 2 947 1
 2584              		.thumb
 2585              		.syntax unified
 2586 01ee 00BF     		nop
 2587              	.L77:
 2588              	.LBE455:
 2589              	.LBE454:
 922:Drivers/STM32L4xx_HAL_Driver/Src/stm32l4xx_hal_nand.c ****           __DSB();
 923:Drivers/STM32L4xx_HAL_Driver/Src/stm32l4xx_hal_nand.c ****         }
 924:Drivers/STM32L4xx_HAL_Driver/Src/stm32l4xx_hal_nand.c ****       }
 925:Drivers/STM32L4xx_HAL_Driver/Src/stm32l4xx_hal_nand.c **** 
 926:Drivers/STM32L4xx_HAL_Driver/Src/stm32l4xx_hal_nand.c ****       /* Write data to memory */
 927:Drivers/STM32L4xx_HAL_Driver/Src/stm32l4xx_hal_nand.c ****       for (index = 0U; index < hnand->Config.PageSize; index++)
 2590              		.loc 1 927 18
 2591 01f0 0023     		movs	r3, #0
 2592 01f2 7B62     		str	r3, [r7, #36]
 2593              		.loc 1 927 7
 2594 01f4 0CE0     		b	.L79
 2595              	.L80:
 928:Drivers/STM32L4xx_HAL_Driver/Src/stm32l4xx_hal_nand.c ****       {
 929:Drivers/STM32L4xx_HAL_Driver/Src/stm32l4xx_hal_nand.c ****         *(__IO uint8_t *)deviceaddress = *buff;
 2596              		.loc 1 929 10
 2597 01f6 7B69     		ldr	r3, [r7, #20]
 2598              		.loc 1 929 42
 2599 01f8 BA69     		ldr	r2, [r7, #24]
 2600 01fa 1278     		ldrb	r2, [r2]	@ zero_extendqisi2
 2601              		.loc 1 929 40
 2602 01fc 1A70     		strb	r2, [r3]
 930:Drivers/STM32L4xx_HAL_Driver/Src/stm32l4xx_hal_nand.c ****         buff++;
 2603              		.loc 1 930 13
 2604 01fe BB69     		ldr	r3, [r7, #24]
 2605 0200 0133     		adds	r3, r3, #1
 2606 0202 BB61     		str	r3, [r7, #24]
 2607              	.LBB456:
 2608              	.LBB457:
 946:Drivers/CMSIS/Core/Include/cmsis_gcc.h **** }
 2609              		.loc 2 946 3
 2610              		.syntax unified
 2611              	@ 946 "Drivers/CMSIS/Core/Include/cmsis_gcc.h" 1
 2612 0204 BFF34F8F 		dsb 0xF
 2613              	@ 0 "" 2
 2614              		.loc 2 947 1
 2615              		.thumb
 2616              		.syntax unified
 2617 0208 00BF     		nop
 2618              	.LBE457:
 2619              	.LBE456:
 927:Drivers/STM32L4xx_HAL_Driver/Src/stm32l4xx_hal_nand.c ****       {
 2620              		.loc 1 927 61 discriminator 3
 2621 020a 7B6A     		ldr	r3, [r7, #36]
 2622 020c 0133     		adds	r3, r3, #1
 2623 020e 7B62     		str	r3, [r7, #36]
 2624              	.L79:
ARM GAS  /tmp/ccUr9KqT.s 			page 81


 927:Drivers/STM32L4xx_HAL_Driver/Src/stm32l4xx_hal_nand.c ****       {
 2625              		.loc 1 927 45 discriminator 1
 2626 0210 FB68     		ldr	r3, [r7, #12]
 2627 0212 5B6A     		ldr	r3, [r3, #36]
 927:Drivers/STM32L4xx_HAL_Driver/Src/stm32l4xx_hal_nand.c ****       {
 2628              		.loc 1 927 30 discriminator 1
 2629 0214 7A6A     		ldr	r2, [r7, #36]
 2630 0216 9A42     		cmp	r2, r3
 2631 0218 EDD3     		bcc	.L80
 931:Drivers/STM32L4xx_HAL_Driver/Src/stm32l4xx_hal_nand.c ****         __DSB();
 932:Drivers/STM32L4xx_HAL_Driver/Src/stm32l4xx_hal_nand.c ****       }
 933:Drivers/STM32L4xx_HAL_Driver/Src/stm32l4xx_hal_nand.c **** 
 934:Drivers/STM32L4xx_HAL_Driver/Src/stm32l4xx_hal_nand.c ****       *(__IO uint8_t *)((uint32_t)(deviceaddress | CMD_AREA)) = NAND_CMD_WRITE_TRUE1;
 2632              		.loc 1 934 25
 2633 021a 7B69     		ldr	r3, [r7, #20]
 2634 021c 43F48033 		orr	r3, r3, #65536
 2635              		.loc 1 934 63
 2636 0220 1022     		movs	r2, #16
 2637 0222 1A70     		strb	r2, [r3]
 2638              	.LBB458:
 2639              	.LBB459:
 946:Drivers/CMSIS/Core/Include/cmsis_gcc.h **** }
 2640              		.loc 2 946 3
 2641              		.syntax unified
 2642              	@ 946 "Drivers/CMSIS/Core/Include/cmsis_gcc.h" 1
 2643 0224 BFF34F8F 		dsb 0xF
 2644              	@ 0 "" 2
 2645              		.loc 2 947 1
 2646              		.thumb
 2647              		.syntax unified
 2648 0228 00BF     		nop
 2649              	.LBE459:
 2650              	.LBE458:
 935:Drivers/STM32L4xx_HAL_Driver/Src/stm32l4xx_hal_nand.c ****       __DSB();
 936:Drivers/STM32L4xx_HAL_Driver/Src/stm32l4xx_hal_nand.c **** 
 937:Drivers/STM32L4xx_HAL_Driver/Src/stm32l4xx_hal_nand.c ****       /* Get tick */
 938:Drivers/STM32L4xx_HAL_Driver/Src/stm32l4xx_hal_nand.c ****       tickstart = HAL_GetTick();
 2651              		.loc 1 938 19
 2652 022a FFF7FEFF 		bl	HAL_GetTick
 2653 022e 3861     		str	r0, [r7, #16]
 939:Drivers/STM32L4xx_HAL_Driver/Src/stm32l4xx_hal_nand.c **** 
 940:Drivers/STM32L4xx_HAL_Driver/Src/stm32l4xx_hal_nand.c ****       /* Read status until NAND is ready */
 941:Drivers/STM32L4xx_HAL_Driver/Src/stm32l4xx_hal_nand.c ****       while (HAL_NAND_Read_Status(hnand) != NAND_READY)
 2654              		.loc 1 941 13
 2655 0230 11E0     		b	.L81
 2656              	.L82:
 942:Drivers/STM32L4xx_HAL_Driver/Src/stm32l4xx_hal_nand.c ****       {
 943:Drivers/STM32L4xx_HAL_Driver/Src/stm32l4xx_hal_nand.c ****         if ((HAL_GetTick() - tickstart) > NAND_WRITE_TIMEOUT)
 2657              		.loc 1 943 14
 2658 0232 FFF7FEFF 		bl	HAL_GetTick
 2659 0236 0246     		mov	r2, r0
 2660              		.loc 1 943 28 discriminator 1
 2661 0238 3B69     		ldr	r3, [r7, #16]
 2662 023a D31A     		subs	r3, r2, r3
 2663              		.loc 1 943 12 discriminator 1
 2664 023c B3F1807F 		cmp	r3, #16777216
 2665 0240 09D9     		bls	.L81
ARM GAS  /tmp/ccUr9KqT.s 			page 82


 944:Drivers/STM32L4xx_HAL_Driver/Src/stm32l4xx_hal_nand.c ****         {
 945:Drivers/STM32L4xx_HAL_Driver/Src/stm32l4xx_hal_nand.c ****           /* Update the NAND controller state */
 946:Drivers/STM32L4xx_HAL_Driver/Src/stm32l4xx_hal_nand.c ****           hnand->State = HAL_NAND_STATE_ERROR;
 2666              		.loc 1 946 24
 2667 0242 FB68     		ldr	r3, [r7, #12]
 2668 0244 0322     		movs	r2, #3
 2669 0246 83F82120 		strb	r2, [r3, #33]
 947:Drivers/STM32L4xx_HAL_Driver/Src/stm32l4xx_hal_nand.c **** 
 948:Drivers/STM32L4xx_HAL_Driver/Src/stm32l4xx_hal_nand.c ****           /* Process unlocked */
 949:Drivers/STM32L4xx_HAL_Driver/Src/stm32l4xx_hal_nand.c ****           __HAL_UNLOCK(hnand);
 2670              		.loc 1 949 11
 2671 024a FB68     		ldr	r3, [r7, #12]
 2672 024c 0022     		movs	r2, #0
 2673 024e 83F82020 		strb	r2, [r3, #32]
 950:Drivers/STM32L4xx_HAL_Driver/Src/stm32l4xx_hal_nand.c **** 
 951:Drivers/STM32L4xx_HAL_Driver/Src/stm32l4xx_hal_nand.c ****           return HAL_TIMEOUT;
 2674              		.loc 1 951 18
 2675 0252 0323     		movs	r3, #3
 2676 0254 23E0     		b	.L71
 2677              	.L81:
 941:Drivers/STM32L4xx_HAL_Driver/Src/stm32l4xx_hal_nand.c ****       {
 2678              		.loc 1 941 14
 2679 0256 F868     		ldr	r0, [r7, #12]
 2680 0258 FFF7FEFF 		bl	HAL_NAND_Read_Status
 2681 025c 0346     		mov	r3, r0
 941:Drivers/STM32L4xx_HAL_Driver/Src/stm32l4xx_hal_nand.c ****       {
 2682              		.loc 1 941 42 discriminator 1
 2683 025e 402B     		cmp	r3, #64
 2684 0260 E7D1     		bne	.L82
 952:Drivers/STM32L4xx_HAL_Driver/Src/stm32l4xx_hal_nand.c ****         }
 953:Drivers/STM32L4xx_HAL_Driver/Src/stm32l4xx_hal_nand.c ****       }
 954:Drivers/STM32L4xx_HAL_Driver/Src/stm32l4xx_hal_nand.c **** 
 955:Drivers/STM32L4xx_HAL_Driver/Src/stm32l4xx_hal_nand.c ****       /* Decrement pages to write */
 956:Drivers/STM32L4xx_HAL_Driver/Src/stm32l4xx_hal_nand.c ****       nbpages--;
 2685              		.loc 1 956 14
 2686 0262 FB69     		ldr	r3, [r7, #28]
 2687 0264 013B     		subs	r3, r3, #1
 2688 0266 FB61     		str	r3, [r7, #28]
 957:Drivers/STM32L4xx_HAL_Driver/Src/stm32l4xx_hal_nand.c **** 
 958:Drivers/STM32L4xx_HAL_Driver/Src/stm32l4xx_hal_nand.c ****       /* Increment the NAND address */
 959:Drivers/STM32L4xx_HAL_Driver/Src/stm32l4xx_hal_nand.c ****       nandaddress = (uint32_t)(nandaddress + 1U);
 2689              		.loc 1 959 19
 2690 0268 3B6A     		ldr	r3, [r7, #32]
 2691 026a 0133     		adds	r3, r3, #1
 2692 026c 3B62     		str	r3, [r7, #32]
 2693              	.L74:
 866:Drivers/STM32L4xx_HAL_Driver/Src/stm32l4xx_hal_nand.c ****     {
 2694              		.loc 1 866 28
 2695 026e FB69     		ldr	r3, [r7, #28]
 2696 0270 002B     		cmp	r3, #0
 2697 0272 09D0     		beq	.L83
 866:Drivers/STM32L4xx_HAL_Driver/Src/stm32l4xx_hal_nand.c ****     {
 2698              		.loc 1 866 61 discriminator 1
 2699 0274 FB68     		ldr	r3, [r7, #12]
 2700 0276 DB6A     		ldr	r3, [r3, #44]
 866:Drivers/STM32L4xx_HAL_Driver/Src/stm32l4xx_hal_nand.c ****     {
 2701              		.loc 1 866 89 discriminator 1
ARM GAS  /tmp/ccUr9KqT.s 			page 83


 2702 0278 FA68     		ldr	r2, [r7, #12]
 2703 027a 126B     		ldr	r2, [r2, #48]
 866:Drivers/STM32L4xx_HAL_Driver/Src/stm32l4xx_hal_nand.c ****     {
 2704              		.loc 1 866 73 discriminator 1
 2705 027c 02FB03F3 		mul	r3, r2, r3
 866:Drivers/STM32L4xx_HAL_Driver/Src/stm32l4xx_hal_nand.c ****     {
 2706              		.loc 1 866 28 discriminator 1
 2707 0280 3A6A     		ldr	r2, [r7, #32]
 2708 0282 9A42     		cmp	r2, r3
 2709 0284 FFF4FDAE 		bcc	.L84
 2710              	.L83:
 960:Drivers/STM32L4xx_HAL_Driver/Src/stm32l4xx_hal_nand.c ****     }
 961:Drivers/STM32L4xx_HAL_Driver/Src/stm32l4xx_hal_nand.c **** 
 962:Drivers/STM32L4xx_HAL_Driver/Src/stm32l4xx_hal_nand.c ****     /* Update the NAND controller state */
 963:Drivers/STM32L4xx_HAL_Driver/Src/stm32l4xx_hal_nand.c ****     hnand->State = HAL_NAND_STATE_READY;
 2711              		.loc 1 963 18
 2712 0288 FB68     		ldr	r3, [r7, #12]
 2713 028a 0122     		movs	r2, #1
 2714 028c 83F82120 		strb	r2, [r3, #33]
 964:Drivers/STM32L4xx_HAL_Driver/Src/stm32l4xx_hal_nand.c **** 
 965:Drivers/STM32L4xx_HAL_Driver/Src/stm32l4xx_hal_nand.c ****     /* Process unlocked */
 966:Drivers/STM32L4xx_HAL_Driver/Src/stm32l4xx_hal_nand.c ****     __HAL_UNLOCK(hnand);
 2715              		.loc 1 966 5
 2716 0290 FB68     		ldr	r3, [r7, #12]
 2717 0292 0022     		movs	r2, #0
 2718 0294 83F82020 		strb	r2, [r3, #32]
 967:Drivers/STM32L4xx_HAL_Driver/Src/stm32l4xx_hal_nand.c ****   }
 968:Drivers/STM32L4xx_HAL_Driver/Src/stm32l4xx_hal_nand.c ****   else
 969:Drivers/STM32L4xx_HAL_Driver/Src/stm32l4xx_hal_nand.c ****   {
 970:Drivers/STM32L4xx_HAL_Driver/Src/stm32l4xx_hal_nand.c ****     return HAL_ERROR;
 971:Drivers/STM32L4xx_HAL_Driver/Src/stm32l4xx_hal_nand.c ****   }
 972:Drivers/STM32L4xx_HAL_Driver/Src/stm32l4xx_hal_nand.c **** 
 973:Drivers/STM32L4xx_HAL_Driver/Src/stm32l4xx_hal_nand.c ****   return HAL_OK;
 2719              		.loc 1 973 10
 2720 0298 0023     		movs	r3, #0
 2721 029a 00E0     		b	.L71
 2722              	.L72:
 970:Drivers/STM32L4xx_HAL_Driver/Src/stm32l4xx_hal_nand.c ****   }
 2723              		.loc 1 970 12
 2724 029c 0123     		movs	r3, #1
 2725              	.L71:
 974:Drivers/STM32L4xx_HAL_Driver/Src/stm32l4xx_hal_nand.c **** }
 2726              		.loc 1 974 1
 2727 029e 1846     		mov	r0, r3
 2728 02a0 2837     		adds	r7, r7, #40
 2729              		.cfi_def_cfa_offset 8
 2730 02a2 BD46     		mov	sp, r7
 2731              		.cfi_def_cfa_register 13
 2732              		@ sp needed
 2733 02a4 80BD     		pop	{r7, pc}
 2734              		.cfi_endproc
 2735              	.LFE456:
 2737              		.section	.text.HAL_NAND_Write_Page_16b,"ax",%progbits
 2738              		.align	1
 2739              		.global	HAL_NAND_Write_Page_16b
 2740              		.syntax unified
 2741              		.thumb
ARM GAS  /tmp/ccUr9KqT.s 			page 84


 2742              		.thumb_func
 2744              	HAL_NAND_Write_Page_16b:
 2745              	.LFB457:
 975:Drivers/STM32L4xx_HAL_Driver/Src/stm32l4xx_hal_nand.c **** 
 976:Drivers/STM32L4xx_HAL_Driver/Src/stm32l4xx_hal_nand.c **** /**
 977:Drivers/STM32L4xx_HAL_Driver/Src/stm32l4xx_hal_nand.c ****   * @brief  Write Page(s) to NAND memory block (16-bits addressing)
 978:Drivers/STM32L4xx_HAL_Driver/Src/stm32l4xx_hal_nand.c ****   * @param  hnand pointer to a NAND_HandleTypeDef structure that contains
 979:Drivers/STM32L4xx_HAL_Driver/Src/stm32l4xx_hal_nand.c ****   *                the configuration information for NAND module.
 980:Drivers/STM32L4xx_HAL_Driver/Src/stm32l4xx_hal_nand.c ****   * @param  pAddress  pointer to NAND address structure
 981:Drivers/STM32L4xx_HAL_Driver/Src/stm32l4xx_hal_nand.c ****   * @param  pBuffer  pointer to source buffer to write. pBuffer should be 16bits aligned
 982:Drivers/STM32L4xx_HAL_Driver/Src/stm32l4xx_hal_nand.c ****   * @param  NumPageToWrite   number of pages to write to block
 983:Drivers/STM32L4xx_HAL_Driver/Src/stm32l4xx_hal_nand.c ****   * @retval HAL status
 984:Drivers/STM32L4xx_HAL_Driver/Src/stm32l4xx_hal_nand.c ****   */
 985:Drivers/STM32L4xx_HAL_Driver/Src/stm32l4xx_hal_nand.c **** HAL_StatusTypeDef HAL_NAND_Write_Page_16b(NAND_HandleTypeDef *hnand, const NAND_AddressTypeDef *pAd
 986:Drivers/STM32L4xx_HAL_Driver/Src/stm32l4xx_hal_nand.c ****                                           const uint16_t *pBuffer, uint32_t NumPageToWrite)
 987:Drivers/STM32L4xx_HAL_Driver/Src/stm32l4xx_hal_nand.c **** {
 2746              		.loc 1 987 1
 2747              		.cfi_startproc
 2748              		@ args = 0, pretend = 0, frame = 40
 2749              		@ frame_needed = 1, uses_anonymous_args = 0
 2750 0000 80B5     		push	{r7, lr}
 2751              		.cfi_def_cfa_offset 8
 2752              		.cfi_offset 7, -8
 2753              		.cfi_offset 14, -4
 2754 0002 8AB0     		sub	sp, sp, #40
 2755              		.cfi_def_cfa_offset 48
 2756 0004 00AF     		add	r7, sp, #0
 2757              		.cfi_def_cfa_register 7
 2758 0006 F860     		str	r0, [r7, #12]
 2759 0008 B960     		str	r1, [r7, #8]
 2760 000a 7A60     		str	r2, [r7, #4]
 2761 000c 3B60     		str	r3, [r7]
 988:Drivers/STM32L4xx_HAL_Driver/Src/stm32l4xx_hal_nand.c ****   uint32_t index;
 989:Drivers/STM32L4xx_HAL_Driver/Src/stm32l4xx_hal_nand.c ****   uint32_t tickstart;
 990:Drivers/STM32L4xx_HAL_Driver/Src/stm32l4xx_hal_nand.c ****   uint32_t deviceaddress;
 991:Drivers/STM32L4xx_HAL_Driver/Src/stm32l4xx_hal_nand.c ****   uint32_t nandaddress;
 992:Drivers/STM32L4xx_HAL_Driver/Src/stm32l4xx_hal_nand.c ****   uint32_t nbpages = NumPageToWrite;
 2762              		.loc 1 992 12
 2763 000e 3B68     		ldr	r3, [r7]
 2764 0010 FB61     		str	r3, [r7, #28]
 993:Drivers/STM32L4xx_HAL_Driver/Src/stm32l4xx_hal_nand.c ****   const uint16_t *buff = pBuffer;
 2765              		.loc 1 993 19
 2766 0012 7B68     		ldr	r3, [r7, #4]
 2767 0014 BB61     		str	r3, [r7, #24]
 994:Drivers/STM32L4xx_HAL_Driver/Src/stm32l4xx_hal_nand.c **** 
 995:Drivers/STM32L4xx_HAL_Driver/Src/stm32l4xx_hal_nand.c ****   /* Check the NAND controller state */
 996:Drivers/STM32L4xx_HAL_Driver/Src/stm32l4xx_hal_nand.c ****   if (hnand->State == HAL_NAND_STATE_BUSY)
 2768              		.loc 1 996 12
 2769 0016 FB68     		ldr	r3, [r7, #12]
 2770 0018 93F82130 		ldrb	r3, [r3, #33]
 2771 001c DBB2     		uxtb	r3, r3
 2772              		.loc 1 996 6
 2773 001e 022B     		cmp	r3, #2
 2774 0020 01D1     		bne	.L87
 997:Drivers/STM32L4xx_HAL_Driver/Src/stm32l4xx_hal_nand.c ****   {
 998:Drivers/STM32L4xx_HAL_Driver/Src/stm32l4xx_hal_nand.c ****     return HAL_BUSY;
 2775              		.loc 1 998 12
ARM GAS  /tmp/ccUr9KqT.s 			page 85


 2776 0022 0223     		movs	r3, #2
 2777 0024 44E1     		b	.L88
 2778              	.L87:
 999:Drivers/STM32L4xx_HAL_Driver/Src/stm32l4xx_hal_nand.c ****   }
1000:Drivers/STM32L4xx_HAL_Driver/Src/stm32l4xx_hal_nand.c ****   else if (hnand->State == HAL_NAND_STATE_READY)
 2779              		.loc 1 1000 17
 2780 0026 FB68     		ldr	r3, [r7, #12]
 2781 0028 93F82130 		ldrb	r3, [r3, #33]
 2782 002c DBB2     		uxtb	r3, r3
 2783              		.loc 1 1000 11
 2784 002e 012B     		cmp	r3, #1
 2785 0030 40F03D81 		bne	.L89
1001:Drivers/STM32L4xx_HAL_Driver/Src/stm32l4xx_hal_nand.c ****   {
1002:Drivers/STM32L4xx_HAL_Driver/Src/stm32l4xx_hal_nand.c ****     /* Process Locked */
1003:Drivers/STM32L4xx_HAL_Driver/Src/stm32l4xx_hal_nand.c ****     __HAL_LOCK(hnand);
 2786              		.loc 1 1003 5
 2787 0034 FB68     		ldr	r3, [r7, #12]
 2788 0036 93F82030 		ldrb	r3, [r3, #32]	@ zero_extendqisi2
 2789 003a 012B     		cmp	r3, #1
 2790 003c 01D1     		bne	.L90
 2791              		.loc 1 1003 5 is_stmt 0 discriminator 1
 2792 003e 0223     		movs	r3, #2
 2793              		.loc 1 1003 5
 2794 0040 36E1     		b	.L88
 2795              	.L90:
 2796              		.loc 1 1003 5 discriminator 2
 2797 0042 FB68     		ldr	r3, [r7, #12]
 2798 0044 0122     		movs	r2, #1
 2799 0046 83F82020 		strb	r2, [r3, #32]
1004:Drivers/STM32L4xx_HAL_Driver/Src/stm32l4xx_hal_nand.c **** 
1005:Drivers/STM32L4xx_HAL_Driver/Src/stm32l4xx_hal_nand.c ****     /* Update the NAND controller state */
1006:Drivers/STM32L4xx_HAL_Driver/Src/stm32l4xx_hal_nand.c ****     hnand->State = HAL_NAND_STATE_BUSY;
 2800              		.loc 1 1006 18 is_stmt 1
 2801 004a FB68     		ldr	r3, [r7, #12]
 2802 004c 0222     		movs	r2, #2
 2803 004e 83F82120 		strb	r2, [r3, #33]
1007:Drivers/STM32L4xx_HAL_Driver/Src/stm32l4xx_hal_nand.c **** 
1008:Drivers/STM32L4xx_HAL_Driver/Src/stm32l4xx_hal_nand.c ****     /* Identify the device address */
1009:Drivers/STM32L4xx_HAL_Driver/Src/stm32l4xx_hal_nand.c ****     deviceaddress = NAND_DEVICE;
 2804              		.loc 1 1009 19
 2805 0052 4FF00043 		mov	r3, #-2147483648
 2806 0056 7B61     		str	r3, [r7, #20]
1010:Drivers/STM32L4xx_HAL_Driver/Src/stm32l4xx_hal_nand.c **** 
1011:Drivers/STM32L4xx_HAL_Driver/Src/stm32l4xx_hal_nand.c ****     /* NAND raw address calculation */
1012:Drivers/STM32L4xx_HAL_Driver/Src/stm32l4xx_hal_nand.c ****     nandaddress = ARRAY_ADDRESS(pAddress, hnand);
 2807              		.loc 1 1012 19
 2808 0058 BB68     		ldr	r3, [r7, #8]
 2809 005a 1B88     		ldrh	r3, [r3]
 2810 005c 1946     		mov	r1, r3
 2811 005e BB68     		ldr	r3, [r7, #8]
 2812 0060 9B88     		ldrh	r3, [r3, #4]
 2813 0062 1A46     		mov	r2, r3
 2814 0064 BB68     		ldr	r3, [r7, #8]
 2815 0066 5B88     		ldrh	r3, [r3, #2]
 2816 0068 1846     		mov	r0, r3
 2817 006a FB68     		ldr	r3, [r7, #12]
 2818 006c 9B6B     		ldr	r3, [r3, #56]
ARM GAS  /tmp/ccUr9KqT.s 			page 86


 2819 006e 00FB03F3 		mul	r3, r0, r3
 2820 0072 1344     		add	r3, r3, r2
 2821 0074 FA68     		ldr	r2, [r7, #12]
 2822 0076 D26A     		ldr	r2, [r2, #44]
 2823 0078 02FB03F3 		mul	r3, r2, r3
 2824              		.loc 1 1012 17
 2825 007c 0B44     		add	r3, r3, r1
 2826 007e 3B62     		str	r3, [r7, #32]
1013:Drivers/STM32L4xx_HAL_Driver/Src/stm32l4xx_hal_nand.c **** 
1014:Drivers/STM32L4xx_HAL_Driver/Src/stm32l4xx_hal_nand.c ****     /* Page(s) write loop */
1015:Drivers/STM32L4xx_HAL_Driver/Src/stm32l4xx_hal_nand.c ****     while ((nbpages != 0U) && (nandaddress < ((hnand->Config.BlockSize) * (hnand->Config.BlockNbr))
 2827              		.loc 1 1015 11
 2828 0080 FEE0     		b	.L91
 2829              	.L102:
1016:Drivers/STM32L4xx_HAL_Driver/Src/stm32l4xx_hal_nand.c ****     {
1017:Drivers/STM32L4xx_HAL_Driver/Src/stm32l4xx_hal_nand.c ****       /* Send write page command sequence */
1018:Drivers/STM32L4xx_HAL_Driver/Src/stm32l4xx_hal_nand.c ****       *(__IO uint8_t *)((uint32_t)(deviceaddress | CMD_AREA)) = NAND_CMD_AREA_A;
 2830              		.loc 1 1018 25
 2831 0082 7B69     		ldr	r3, [r7, #20]
 2832 0084 43F48033 		orr	r3, r3, #65536
 2833              		.loc 1 1018 63
 2834 0088 0022     		movs	r2, #0
 2835 008a 1A70     		strb	r2, [r3]
 2836              	.LBB460:
 2837              	.LBB461:
 946:Drivers/CMSIS/Core/Include/cmsis_gcc.h **** }
 2838              		.loc 2 946 3
 2839              		.syntax unified
 2840              	@ 946 "Drivers/CMSIS/Core/Include/cmsis_gcc.h" 1
 2841 008c BFF34F8F 		dsb 0xF
 2842              	@ 0 "" 2
 2843              		.loc 2 947 1
 2844              		.thumb
 2845              		.syntax unified
 2846 0090 00BF     		nop
 2847              	.LBE461:
 2848              	.LBE460:
1019:Drivers/STM32L4xx_HAL_Driver/Src/stm32l4xx_hal_nand.c ****       __DSB();
1020:Drivers/STM32L4xx_HAL_Driver/Src/stm32l4xx_hal_nand.c ****       *(__IO uint8_t *)((uint32_t)(deviceaddress | CMD_AREA)) = NAND_CMD_WRITE0;
 2849              		.loc 1 1020 25
 2850 0092 7B69     		ldr	r3, [r7, #20]
 2851 0094 43F48033 		orr	r3, r3, #65536
 2852              		.loc 1 1020 63
 2853 0098 8022     		movs	r2, #128
 2854 009a 1A70     		strb	r2, [r3]
 2855              	.LBB462:
 2856              	.LBB463:
 946:Drivers/CMSIS/Core/Include/cmsis_gcc.h **** }
 2857              		.loc 2 946 3
 2858              		.syntax unified
 2859              	@ 946 "Drivers/CMSIS/Core/Include/cmsis_gcc.h" 1
 2860 009c BFF34F8F 		dsb 0xF
 2861              	@ 0 "" 2
 2862              		.loc 2 947 1
 2863              		.thumb
 2864              		.syntax unified
 2865 00a0 00BF     		nop
ARM GAS  /tmp/ccUr9KqT.s 			page 87


 2866              	.LBE463:
 2867              	.LBE462:
1021:Drivers/STM32L4xx_HAL_Driver/Src/stm32l4xx_hal_nand.c ****       __DSB();
1022:Drivers/STM32L4xx_HAL_Driver/Src/stm32l4xx_hal_nand.c **** 
1023:Drivers/STM32L4xx_HAL_Driver/Src/stm32l4xx_hal_nand.c ****       /* Cards with page size <= 512 bytes */
1024:Drivers/STM32L4xx_HAL_Driver/Src/stm32l4xx_hal_nand.c ****       if ((hnand->Config.PageSize) <= 512U)
 2868              		.loc 1 1024 25
 2869 00a2 FB68     		ldr	r3, [r7, #12]
 2870 00a4 5B6A     		ldr	r3, [r3, #36]
 2871              		.loc 1 1024 10
 2872 00a6 B3F5007F 		cmp	r3, #512
 2873 00aa 48D8     		bhi	.L92
1025:Drivers/STM32L4xx_HAL_Driver/Src/stm32l4xx_hal_nand.c ****       {
1026:Drivers/STM32L4xx_HAL_Driver/Src/stm32l4xx_hal_nand.c ****         if (((hnand->Config.BlockSize) * (hnand->Config.BlockNbr)) <= 65535U)
 2874              		.loc 1 1026 28
 2875 00ac FB68     		ldr	r3, [r7, #12]
 2876 00ae DB6A     		ldr	r3, [r3, #44]
 2877              		.loc 1 1026 56
 2878 00b0 FA68     		ldr	r2, [r7, #12]
 2879 00b2 126B     		ldr	r2, [r2, #48]
 2880              		.loc 1 1026 40
 2881 00b4 02FB03F3 		mul	r3, r2, r3
 2882              		.loc 1 1026 12
 2883 00b8 B3F5803F 		cmp	r3, #65536
 2884 00bc 1AD2     		bcs	.L93
1027:Drivers/STM32L4xx_HAL_Driver/Src/stm32l4xx_hal_nand.c ****         {
1028:Drivers/STM32L4xx_HAL_Driver/Src/stm32l4xx_hal_nand.c ****           *(__IO uint8_t *)((uint32_t)(deviceaddress | ADDR_AREA)) = 0x00U;
 2885              		.loc 1 1028 29
 2886 00be 7B69     		ldr	r3, [r7, #20]
 2887 00c0 43F40033 		orr	r3, r3, #131072
 2888              		.loc 1 1028 68
 2889 00c4 0022     		movs	r2, #0
 2890 00c6 1A70     		strb	r2, [r3]
 2891              	.LBB464:
 2892              	.LBB465:
 946:Drivers/CMSIS/Core/Include/cmsis_gcc.h **** }
 2893              		.loc 2 946 3
 2894              		.syntax unified
 2895              	@ 946 "Drivers/CMSIS/Core/Include/cmsis_gcc.h" 1
 2896 00c8 BFF34F8F 		dsb 0xF
 2897              	@ 0 "" 2
 2898              		.loc 2 947 1
 2899              		.thumb
 2900              		.syntax unified
 2901 00cc 00BF     		nop
 2902              	.LBE465:
 2903              	.LBE464:
1029:Drivers/STM32L4xx_HAL_Driver/Src/stm32l4xx_hal_nand.c ****           __DSB();
1030:Drivers/STM32L4xx_HAL_Driver/Src/stm32l4xx_hal_nand.c ****           *(__IO uint8_t *)((uint32_t)(deviceaddress | ADDR_AREA)) = ADDR_1ST_CYCLE(nandaddress);
 2904              		.loc 1 1030 29
 2905 00ce 7B69     		ldr	r3, [r7, #20]
 2906 00d0 43F40033 		orr	r3, r3, #131072
 2907              		.loc 1 1030 70
 2908 00d4 3A6A     		ldr	r2, [r7, #32]
 2909 00d6 D2B2     		uxtb	r2, r2
 2910              		.loc 1 1030 68
 2911 00d8 1A70     		strb	r2, [r3]
ARM GAS  /tmp/ccUr9KqT.s 			page 88


 2912              	.LBB466:
 2913              	.LBB467:
 946:Drivers/CMSIS/Core/Include/cmsis_gcc.h **** }
 2914              		.loc 2 946 3
 2915              		.syntax unified
 2916              	@ 946 "Drivers/CMSIS/Core/Include/cmsis_gcc.h" 1
 2917 00da BFF34F8F 		dsb 0xF
 2918              	@ 0 "" 2
 2919              		.loc 2 947 1
 2920              		.thumb
 2921              		.syntax unified
 2922 00de 00BF     		nop
 2923              	.LBE467:
 2924              	.LBE466:
1031:Drivers/STM32L4xx_HAL_Driver/Src/stm32l4xx_hal_nand.c ****           __DSB();
1032:Drivers/STM32L4xx_HAL_Driver/Src/stm32l4xx_hal_nand.c ****           *(__IO uint8_t *)((uint32_t)(deviceaddress | ADDR_AREA)) = ADDR_2ND_CYCLE(nandaddress);
 2925              		.loc 1 1032 70
 2926 00e0 3B6A     		ldr	r3, [r7, #32]
 2927 00e2 1A0A     		lsrs	r2, r3, #8
 2928              		.loc 1 1032 29
 2929 00e4 7B69     		ldr	r3, [r7, #20]
 2930 00e6 43F40033 		orr	r3, r3, #131072
 2931              		.loc 1 1032 70
 2932 00ea D2B2     		uxtb	r2, r2
 2933              		.loc 1 1032 68
 2934 00ec 1A70     		strb	r2, [r3]
 2935              	.LBB468:
 2936              	.LBB469:
 946:Drivers/CMSIS/Core/Include/cmsis_gcc.h **** }
 2937              		.loc 2 946 3
 2938              		.syntax unified
 2939              	@ 946 "Drivers/CMSIS/Core/Include/cmsis_gcc.h" 1
 2940 00ee BFF34F8F 		dsb 0xF
 2941              	@ 0 "" 2
 2942              		.loc 2 947 1
 2943              		.thumb
 2944              		.syntax unified
 2945 00f2 7DE0     		b	.L94
 2946              	.L93:
 2947              	.LBE469:
 2948              	.LBE468:
1033:Drivers/STM32L4xx_HAL_Driver/Src/stm32l4xx_hal_nand.c ****           __DSB();
1034:Drivers/STM32L4xx_HAL_Driver/Src/stm32l4xx_hal_nand.c ****         }
1035:Drivers/STM32L4xx_HAL_Driver/Src/stm32l4xx_hal_nand.c ****         else /* ((hnand->Config.BlockSize)*(hnand->Config.BlockNbr)) > 65535 */
1036:Drivers/STM32L4xx_HAL_Driver/Src/stm32l4xx_hal_nand.c ****         {
1037:Drivers/STM32L4xx_HAL_Driver/Src/stm32l4xx_hal_nand.c ****           *(__IO uint8_t *)((uint32_t)(deviceaddress | ADDR_AREA)) = 0x00U;
 2949              		.loc 1 1037 29
 2950 00f4 7B69     		ldr	r3, [r7, #20]
 2951 00f6 43F40033 		orr	r3, r3, #131072
 2952              		.loc 1 1037 68
 2953 00fa 0022     		movs	r2, #0
 2954 00fc 1A70     		strb	r2, [r3]
 2955              	.LBB470:
 2956              	.LBB471:
 946:Drivers/CMSIS/Core/Include/cmsis_gcc.h **** }
 2957              		.loc 2 946 3
 2958              		.syntax unified
ARM GAS  /tmp/ccUr9KqT.s 			page 89


 2959              	@ 946 "Drivers/CMSIS/Core/Include/cmsis_gcc.h" 1
 2960 00fe BFF34F8F 		dsb 0xF
 2961              	@ 0 "" 2
 2962              		.loc 2 947 1
 2963              		.thumb
 2964              		.syntax unified
 2965 0102 00BF     		nop
 2966              	.LBE471:
 2967              	.LBE470:
1038:Drivers/STM32L4xx_HAL_Driver/Src/stm32l4xx_hal_nand.c ****           __DSB();
1039:Drivers/STM32L4xx_HAL_Driver/Src/stm32l4xx_hal_nand.c ****           *(__IO uint8_t *)((uint32_t)(deviceaddress | ADDR_AREA)) = ADDR_1ST_CYCLE(nandaddress);
 2968              		.loc 1 1039 29
 2969 0104 7B69     		ldr	r3, [r7, #20]
 2970 0106 43F40033 		orr	r3, r3, #131072
 2971              		.loc 1 1039 70
 2972 010a 3A6A     		ldr	r2, [r7, #32]
 2973 010c D2B2     		uxtb	r2, r2
 2974              		.loc 1 1039 68
 2975 010e 1A70     		strb	r2, [r3]
 2976              	.LBB472:
 2977              	.LBB473:
 946:Drivers/CMSIS/Core/Include/cmsis_gcc.h **** }
 2978              		.loc 2 946 3
 2979              		.syntax unified
 2980              	@ 946 "Drivers/CMSIS/Core/Include/cmsis_gcc.h" 1
 2981 0110 BFF34F8F 		dsb 0xF
 2982              	@ 0 "" 2
 2983              		.loc 2 947 1
 2984              		.thumb
 2985              		.syntax unified
 2986 0114 00BF     		nop
 2987              	.LBE473:
 2988              	.LBE472:
1040:Drivers/STM32L4xx_HAL_Driver/Src/stm32l4xx_hal_nand.c ****           __DSB();
1041:Drivers/STM32L4xx_HAL_Driver/Src/stm32l4xx_hal_nand.c ****           *(__IO uint8_t *)((uint32_t)(deviceaddress | ADDR_AREA)) = ADDR_2ND_CYCLE(nandaddress);
 2989              		.loc 1 1041 70
 2990 0116 3B6A     		ldr	r3, [r7, #32]
 2991 0118 1A0A     		lsrs	r2, r3, #8
 2992              		.loc 1 1041 29
 2993 011a 7B69     		ldr	r3, [r7, #20]
 2994 011c 43F40033 		orr	r3, r3, #131072
 2995              		.loc 1 1041 70
 2996 0120 D2B2     		uxtb	r2, r2
 2997              		.loc 1 1041 68
 2998 0122 1A70     		strb	r2, [r3]
 2999              	.LBB474:
 3000              	.LBB475:
 946:Drivers/CMSIS/Core/Include/cmsis_gcc.h **** }
 3001              		.loc 2 946 3
 3002              		.syntax unified
 3003              	@ 946 "Drivers/CMSIS/Core/Include/cmsis_gcc.h" 1
 3004 0124 BFF34F8F 		dsb 0xF
 3005              	@ 0 "" 2
 3006              		.loc 2 947 1
 3007              		.thumb
 3008              		.syntax unified
 3009 0128 00BF     		nop
ARM GAS  /tmp/ccUr9KqT.s 			page 90


 3010              	.LBE475:
 3011              	.LBE474:
1042:Drivers/STM32L4xx_HAL_Driver/Src/stm32l4xx_hal_nand.c ****           __DSB();
1043:Drivers/STM32L4xx_HAL_Driver/Src/stm32l4xx_hal_nand.c ****           *(__IO uint8_t *)((uint32_t)(deviceaddress | ADDR_AREA)) = ADDR_3RD_CYCLE(nandaddress);
 3012              		.loc 1 1043 70
 3013 012a 3B6A     		ldr	r3, [r7, #32]
 3014 012c 1A0C     		lsrs	r2, r3, #16
 3015              		.loc 1 1043 29
 3016 012e 7B69     		ldr	r3, [r7, #20]
 3017 0130 43F40033 		orr	r3, r3, #131072
 3018              		.loc 1 1043 70
 3019 0134 D2B2     		uxtb	r2, r2
 3020              		.loc 1 1043 68
 3021 0136 1A70     		strb	r2, [r3]
 3022              	.LBB476:
 3023              	.LBB477:
 946:Drivers/CMSIS/Core/Include/cmsis_gcc.h **** }
 3024              		.loc 2 946 3
 3025              		.syntax unified
 3026              	@ 946 "Drivers/CMSIS/Core/Include/cmsis_gcc.h" 1
 3027 0138 BFF34F8F 		dsb 0xF
 3028              	@ 0 "" 2
 3029              		.loc 2 947 1
 3030              		.thumb
 3031              		.syntax unified
 3032 013c 58E0     		b	.L94
 3033              	.L92:
 3034              	.LBE477:
 3035              	.LBE476:
1044:Drivers/STM32L4xx_HAL_Driver/Src/stm32l4xx_hal_nand.c ****           __DSB();
1045:Drivers/STM32L4xx_HAL_Driver/Src/stm32l4xx_hal_nand.c ****         }
1046:Drivers/STM32L4xx_HAL_Driver/Src/stm32l4xx_hal_nand.c ****       }
1047:Drivers/STM32L4xx_HAL_Driver/Src/stm32l4xx_hal_nand.c ****       else /* (hnand->Config.PageSize) > 512 */
1048:Drivers/STM32L4xx_HAL_Driver/Src/stm32l4xx_hal_nand.c ****       {
1049:Drivers/STM32L4xx_HAL_Driver/Src/stm32l4xx_hal_nand.c ****         if (((hnand->Config.BlockSize) * (hnand->Config.BlockNbr)) <= 65535U)
 3036              		.loc 1 1049 28
 3037 013e FB68     		ldr	r3, [r7, #12]
 3038 0140 DB6A     		ldr	r3, [r3, #44]
 3039              		.loc 1 1049 56
 3040 0142 FA68     		ldr	r2, [r7, #12]
 3041 0144 126B     		ldr	r2, [r2, #48]
 3042              		.loc 1 1049 40
 3043 0146 02FB03F3 		mul	r3, r2, r3
 3044              		.loc 1 1049 12
 3045 014a B3F5803F 		cmp	r3, #65536
 3046 014e 22D2     		bcs	.L95
1050:Drivers/STM32L4xx_HAL_Driver/Src/stm32l4xx_hal_nand.c ****         {
1051:Drivers/STM32L4xx_HAL_Driver/Src/stm32l4xx_hal_nand.c ****           *(__IO uint8_t *)((uint32_t)(deviceaddress | ADDR_AREA)) = 0x00U;
 3047              		.loc 1 1051 29
 3048 0150 7B69     		ldr	r3, [r7, #20]
 3049 0152 43F40033 		orr	r3, r3, #131072
 3050              		.loc 1 1051 68
 3051 0156 0022     		movs	r2, #0
 3052 0158 1A70     		strb	r2, [r3]
 3053              	.LBB478:
 3054              	.LBB479:
 946:Drivers/CMSIS/Core/Include/cmsis_gcc.h **** }
ARM GAS  /tmp/ccUr9KqT.s 			page 91


 3055              		.loc 2 946 3
 3056              		.syntax unified
 3057              	@ 946 "Drivers/CMSIS/Core/Include/cmsis_gcc.h" 1
 3058 015a BFF34F8F 		dsb 0xF
 3059              	@ 0 "" 2
 3060              		.loc 2 947 1
 3061              		.thumb
 3062              		.syntax unified
 3063 015e 00BF     		nop
 3064              	.LBE479:
 3065              	.LBE478:
1052:Drivers/STM32L4xx_HAL_Driver/Src/stm32l4xx_hal_nand.c ****           __DSB();
1053:Drivers/STM32L4xx_HAL_Driver/Src/stm32l4xx_hal_nand.c ****           *(__IO uint8_t *)((uint32_t)(deviceaddress | ADDR_AREA)) = 0x00U;
 3066              		.loc 1 1053 29
 3067 0160 7B69     		ldr	r3, [r7, #20]
 3068 0162 43F40033 		orr	r3, r3, #131072
 3069              		.loc 1 1053 68
 3070 0166 0022     		movs	r2, #0
 3071 0168 1A70     		strb	r2, [r3]
 3072              	.LBB480:
 3073              	.LBB481:
 946:Drivers/CMSIS/Core/Include/cmsis_gcc.h **** }
 3074              		.loc 2 946 3
 3075              		.syntax unified
 3076              	@ 946 "Drivers/CMSIS/Core/Include/cmsis_gcc.h" 1
 3077 016a BFF34F8F 		dsb 0xF
 3078              	@ 0 "" 2
 3079              		.loc 2 947 1
 3080              		.thumb
 3081              		.syntax unified
 3082 016e 00BF     		nop
 3083              	.LBE481:
 3084              	.LBE480:
1054:Drivers/STM32L4xx_HAL_Driver/Src/stm32l4xx_hal_nand.c ****           __DSB();
1055:Drivers/STM32L4xx_HAL_Driver/Src/stm32l4xx_hal_nand.c ****           *(__IO uint8_t *)((uint32_t)(deviceaddress | ADDR_AREA)) = ADDR_1ST_CYCLE(nandaddress);
 3085              		.loc 1 1055 29
 3086 0170 7B69     		ldr	r3, [r7, #20]
 3087 0172 43F40033 		orr	r3, r3, #131072
 3088              		.loc 1 1055 70
 3089 0176 3A6A     		ldr	r2, [r7, #32]
 3090 0178 D2B2     		uxtb	r2, r2
 3091              		.loc 1 1055 68
 3092 017a 1A70     		strb	r2, [r3]
 3093              	.LBB482:
 3094              	.LBB483:
 946:Drivers/CMSIS/Core/Include/cmsis_gcc.h **** }
 3095              		.loc 2 946 3
 3096              		.syntax unified
 3097              	@ 946 "Drivers/CMSIS/Core/Include/cmsis_gcc.h" 1
 3098 017c BFF34F8F 		dsb 0xF
 3099              	@ 0 "" 2
 3100              		.loc 2 947 1
 3101              		.thumb
 3102              		.syntax unified
 3103 0180 00BF     		nop
 3104              	.LBE483:
 3105              	.LBE482:
ARM GAS  /tmp/ccUr9KqT.s 			page 92


1056:Drivers/STM32L4xx_HAL_Driver/Src/stm32l4xx_hal_nand.c ****           __DSB();
1057:Drivers/STM32L4xx_HAL_Driver/Src/stm32l4xx_hal_nand.c ****           *(__IO uint8_t *)((uint32_t)(deviceaddress | ADDR_AREA)) = ADDR_2ND_CYCLE(nandaddress);
 3106              		.loc 1 1057 70
 3107 0182 3B6A     		ldr	r3, [r7, #32]
 3108 0184 1A0A     		lsrs	r2, r3, #8
 3109              		.loc 1 1057 29
 3110 0186 7B69     		ldr	r3, [r7, #20]
 3111 0188 43F40033 		orr	r3, r3, #131072
 3112              		.loc 1 1057 70
 3113 018c D2B2     		uxtb	r2, r2
 3114              		.loc 1 1057 68
 3115 018e 1A70     		strb	r2, [r3]
 3116              	.LBB484:
 3117              	.LBB485:
 946:Drivers/CMSIS/Core/Include/cmsis_gcc.h **** }
 3118              		.loc 2 946 3
 3119              		.syntax unified
 3120              	@ 946 "Drivers/CMSIS/Core/Include/cmsis_gcc.h" 1
 3121 0190 BFF34F8F 		dsb 0xF
 3122              	@ 0 "" 2
 3123              		.loc 2 947 1
 3124              		.thumb
 3125              		.syntax unified
 3126 0194 2CE0     		b	.L94
 3127              	.L95:
 3128              	.LBE485:
 3129              	.LBE484:
1058:Drivers/STM32L4xx_HAL_Driver/Src/stm32l4xx_hal_nand.c ****           __DSB();
1059:Drivers/STM32L4xx_HAL_Driver/Src/stm32l4xx_hal_nand.c ****         }
1060:Drivers/STM32L4xx_HAL_Driver/Src/stm32l4xx_hal_nand.c ****         else /* ((hnand->Config.BlockSize)*(hnand->Config.BlockNbr)) > 65535 */
1061:Drivers/STM32L4xx_HAL_Driver/Src/stm32l4xx_hal_nand.c ****         {
1062:Drivers/STM32L4xx_HAL_Driver/Src/stm32l4xx_hal_nand.c ****           *(__IO uint8_t *)((uint32_t)(deviceaddress | ADDR_AREA)) = 0x00U;
 3130              		.loc 1 1062 29
 3131 0196 7B69     		ldr	r3, [r7, #20]
 3132 0198 43F40033 		orr	r3, r3, #131072
 3133              		.loc 1 1062 68
 3134 019c 0022     		movs	r2, #0
 3135 019e 1A70     		strb	r2, [r3]
 3136              	.LBB486:
 3137              	.LBB487:
 946:Drivers/CMSIS/Core/Include/cmsis_gcc.h **** }
 3138              		.loc 2 946 3
 3139              		.syntax unified
 3140              	@ 946 "Drivers/CMSIS/Core/Include/cmsis_gcc.h" 1
 3141 01a0 BFF34F8F 		dsb 0xF
 3142              	@ 0 "" 2
 3143              		.loc 2 947 1
 3144              		.thumb
 3145              		.syntax unified
 3146 01a4 00BF     		nop
 3147              	.LBE487:
 3148              	.LBE486:
1063:Drivers/STM32L4xx_HAL_Driver/Src/stm32l4xx_hal_nand.c ****           __DSB();
1064:Drivers/STM32L4xx_HAL_Driver/Src/stm32l4xx_hal_nand.c ****           *(__IO uint8_t *)((uint32_t)(deviceaddress | ADDR_AREA)) = 0x00U;
 3149              		.loc 1 1064 29
 3150 01a6 7B69     		ldr	r3, [r7, #20]
 3151 01a8 43F40033 		orr	r3, r3, #131072
ARM GAS  /tmp/ccUr9KqT.s 			page 93


 3152              		.loc 1 1064 68
 3153 01ac 0022     		movs	r2, #0
 3154 01ae 1A70     		strb	r2, [r3]
 3155              	.LBB488:
 3156              	.LBB489:
 946:Drivers/CMSIS/Core/Include/cmsis_gcc.h **** }
 3157              		.loc 2 946 3
 3158              		.syntax unified
 3159              	@ 946 "Drivers/CMSIS/Core/Include/cmsis_gcc.h" 1
 3160 01b0 BFF34F8F 		dsb 0xF
 3161              	@ 0 "" 2
 3162              		.loc 2 947 1
 3163              		.thumb
 3164              		.syntax unified
 3165 01b4 00BF     		nop
 3166              	.LBE489:
 3167              	.LBE488:
1065:Drivers/STM32L4xx_HAL_Driver/Src/stm32l4xx_hal_nand.c ****           __DSB();
1066:Drivers/STM32L4xx_HAL_Driver/Src/stm32l4xx_hal_nand.c ****           *(__IO uint8_t *)((uint32_t)(deviceaddress | ADDR_AREA)) = ADDR_1ST_CYCLE(nandaddress);
 3168              		.loc 1 1066 29
 3169 01b6 7B69     		ldr	r3, [r7, #20]
 3170 01b8 43F40033 		orr	r3, r3, #131072
 3171              		.loc 1 1066 70
 3172 01bc 3A6A     		ldr	r2, [r7, #32]
 3173 01be D2B2     		uxtb	r2, r2
 3174              		.loc 1 1066 68
 3175 01c0 1A70     		strb	r2, [r3]
 3176              	.LBB490:
 3177              	.LBB491:
 946:Drivers/CMSIS/Core/Include/cmsis_gcc.h **** }
 3178              		.loc 2 946 3
 3179              		.syntax unified
 3180              	@ 946 "Drivers/CMSIS/Core/Include/cmsis_gcc.h" 1
 3181 01c2 BFF34F8F 		dsb 0xF
 3182              	@ 0 "" 2
 3183              		.loc 2 947 1
 3184              		.thumb
 3185              		.syntax unified
 3186 01c6 00BF     		nop
 3187              	.LBE491:
 3188              	.LBE490:
1067:Drivers/STM32L4xx_HAL_Driver/Src/stm32l4xx_hal_nand.c ****           __DSB();
1068:Drivers/STM32L4xx_HAL_Driver/Src/stm32l4xx_hal_nand.c ****           *(__IO uint8_t *)((uint32_t)(deviceaddress | ADDR_AREA)) = ADDR_2ND_CYCLE(nandaddress);
 3189              		.loc 1 1068 70
 3190 01c8 3B6A     		ldr	r3, [r7, #32]
 3191 01ca 1A0A     		lsrs	r2, r3, #8
 3192              		.loc 1 1068 29
 3193 01cc 7B69     		ldr	r3, [r7, #20]
 3194 01ce 43F40033 		orr	r3, r3, #131072
 3195              		.loc 1 1068 70
 3196 01d2 D2B2     		uxtb	r2, r2
 3197              		.loc 1 1068 68
 3198 01d4 1A70     		strb	r2, [r3]
 3199              	.LBB492:
 3200              	.LBB493:
 946:Drivers/CMSIS/Core/Include/cmsis_gcc.h **** }
 3201              		.loc 2 946 3
ARM GAS  /tmp/ccUr9KqT.s 			page 94


 3202              		.syntax unified
 3203              	@ 946 "Drivers/CMSIS/Core/Include/cmsis_gcc.h" 1
 3204 01d6 BFF34F8F 		dsb 0xF
 3205              	@ 0 "" 2
 3206              		.loc 2 947 1
 3207              		.thumb
 3208              		.syntax unified
 3209 01da 00BF     		nop
 3210              	.LBE493:
 3211              	.LBE492:
1069:Drivers/STM32L4xx_HAL_Driver/Src/stm32l4xx_hal_nand.c ****           __DSB();
1070:Drivers/STM32L4xx_HAL_Driver/Src/stm32l4xx_hal_nand.c ****           *(__IO uint8_t *)((uint32_t)(deviceaddress | ADDR_AREA)) = ADDR_3RD_CYCLE(nandaddress);
 3212              		.loc 1 1070 70
 3213 01dc 3B6A     		ldr	r3, [r7, #32]
 3214 01de 1A0C     		lsrs	r2, r3, #16
 3215              		.loc 1 1070 29
 3216 01e0 7B69     		ldr	r3, [r7, #20]
 3217 01e2 43F40033 		orr	r3, r3, #131072
 3218              		.loc 1 1070 70
 3219 01e6 D2B2     		uxtb	r2, r2
 3220              		.loc 1 1070 68
 3221 01e8 1A70     		strb	r2, [r3]
 3222              	.LBB494:
 3223              	.LBB495:
 946:Drivers/CMSIS/Core/Include/cmsis_gcc.h **** }
 3224              		.loc 2 946 3
 3225              		.syntax unified
 3226              	@ 946 "Drivers/CMSIS/Core/Include/cmsis_gcc.h" 1
 3227 01ea BFF34F8F 		dsb 0xF
 3228              	@ 0 "" 2
 3229              		.loc 2 947 1
 3230              		.thumb
 3231              		.syntax unified
 3232 01ee 00BF     		nop
 3233              	.L94:
 3234              	.LBE495:
 3235              	.LBE494:
1071:Drivers/STM32L4xx_HAL_Driver/Src/stm32l4xx_hal_nand.c ****           __DSB();
1072:Drivers/STM32L4xx_HAL_Driver/Src/stm32l4xx_hal_nand.c ****         }
1073:Drivers/STM32L4xx_HAL_Driver/Src/stm32l4xx_hal_nand.c ****       }
1074:Drivers/STM32L4xx_HAL_Driver/Src/stm32l4xx_hal_nand.c **** 
1075:Drivers/STM32L4xx_HAL_Driver/Src/stm32l4xx_hal_nand.c ****       /* Calculate PageSize */
1076:Drivers/STM32L4xx_HAL_Driver/Src/stm32l4xx_hal_nand.c ****       if (hnand->Init.MemoryDataWidth == FMC_NAND_MEM_BUS_WIDTH_8)
 3236              		.loc 1 1076 22
 3237 01f0 FB68     		ldr	r3, [r7, #12]
 3238 01f2 DB68     		ldr	r3, [r3, #12]
 3239              		.loc 1 1076 10
 3240 01f4 002B     		cmp	r3, #0
 3241 01f6 04D1     		bne	.L96
1077:Drivers/STM32L4xx_HAL_Driver/Src/stm32l4xx_hal_nand.c ****       {
1078:Drivers/STM32L4xx_HAL_Driver/Src/stm32l4xx_hal_nand.c ****         hnand->Config.PageSize = hnand->Config.PageSize / 2U;
 3242              		.loc 1 1078 47
 3243 01f8 FB68     		ldr	r3, [r7, #12]
 3244 01fa 5B6A     		ldr	r3, [r3, #36]
 3245              		.loc 1 1078 57
 3246 01fc 5A08     		lsrs	r2, r3, #1
 3247              		.loc 1 1078 32
ARM GAS  /tmp/ccUr9KqT.s 			page 95


 3248 01fe FB68     		ldr	r3, [r7, #12]
 3249 0200 5A62     		str	r2, [r3, #36]
 3250              	.L96:
1079:Drivers/STM32L4xx_HAL_Driver/Src/stm32l4xx_hal_nand.c ****       }
1080:Drivers/STM32L4xx_HAL_Driver/Src/stm32l4xx_hal_nand.c ****       else
1081:Drivers/STM32L4xx_HAL_Driver/Src/stm32l4xx_hal_nand.c ****       {
1082:Drivers/STM32L4xx_HAL_Driver/Src/stm32l4xx_hal_nand.c ****         /* Do nothing */
1083:Drivers/STM32L4xx_HAL_Driver/Src/stm32l4xx_hal_nand.c ****         /* Keep the same PageSize for FMC_NAND_MEM_BUS_WIDTH_16*/
1084:Drivers/STM32L4xx_HAL_Driver/Src/stm32l4xx_hal_nand.c ****       }
1085:Drivers/STM32L4xx_HAL_Driver/Src/stm32l4xx_hal_nand.c **** 
1086:Drivers/STM32L4xx_HAL_Driver/Src/stm32l4xx_hal_nand.c ****       /* Write data to memory */
1087:Drivers/STM32L4xx_HAL_Driver/Src/stm32l4xx_hal_nand.c ****       for (index = 0U; index < hnand->Config.PageSize; index++)
 3251              		.loc 1 1087 18
 3252 0202 0023     		movs	r3, #0
 3253 0204 7B62     		str	r3, [r7, #36]
 3254              		.loc 1 1087 7
 3255 0206 0CE0     		b	.L97
 3256              	.L98:
1088:Drivers/STM32L4xx_HAL_Driver/Src/stm32l4xx_hal_nand.c ****       {
1089:Drivers/STM32L4xx_HAL_Driver/Src/stm32l4xx_hal_nand.c ****         *(__IO uint16_t *)deviceaddress = *buff;
 3257              		.loc 1 1089 10
 3258 0208 7B69     		ldr	r3, [r7, #20]
 3259              		.loc 1 1089 43
 3260 020a BA69     		ldr	r2, [r7, #24]
 3261 020c 1288     		ldrh	r2, [r2]
 3262              		.loc 1 1089 41
 3263 020e 1A80     		strh	r2, [r3]	@ movhi
1090:Drivers/STM32L4xx_HAL_Driver/Src/stm32l4xx_hal_nand.c ****         buff++;
 3264              		.loc 1 1090 13
 3265 0210 BB69     		ldr	r3, [r7, #24]
 3266 0212 0233     		adds	r3, r3, #2
 3267 0214 BB61     		str	r3, [r7, #24]
 3268              	.LBB496:
 3269              	.LBB497:
 946:Drivers/CMSIS/Core/Include/cmsis_gcc.h **** }
 3270              		.loc 2 946 3
 3271              		.syntax unified
 3272              	@ 946 "Drivers/CMSIS/Core/Include/cmsis_gcc.h" 1
 3273 0216 BFF34F8F 		dsb 0xF
 3274              	@ 0 "" 2
 3275              		.loc 2 947 1
 3276              		.thumb
 3277              		.syntax unified
 3278 021a 00BF     		nop
 3279              	.LBE497:
 3280              	.LBE496:
1087:Drivers/STM32L4xx_HAL_Driver/Src/stm32l4xx_hal_nand.c ****       {
 3281              		.loc 1 1087 61 discriminator 3
 3282 021c 7B6A     		ldr	r3, [r7, #36]
 3283 021e 0133     		adds	r3, r3, #1
 3284 0220 7B62     		str	r3, [r7, #36]
 3285              	.L97:
1087:Drivers/STM32L4xx_HAL_Driver/Src/stm32l4xx_hal_nand.c ****       {
 3286              		.loc 1 1087 45 discriminator 1
 3287 0222 FB68     		ldr	r3, [r7, #12]
 3288 0224 5B6A     		ldr	r3, [r3, #36]
1087:Drivers/STM32L4xx_HAL_Driver/Src/stm32l4xx_hal_nand.c ****       {
ARM GAS  /tmp/ccUr9KqT.s 			page 96


 3289              		.loc 1 1087 30 discriminator 1
 3290 0226 7A6A     		ldr	r2, [r7, #36]
 3291 0228 9A42     		cmp	r2, r3
 3292 022a EDD3     		bcc	.L98
1091:Drivers/STM32L4xx_HAL_Driver/Src/stm32l4xx_hal_nand.c ****         __DSB();
1092:Drivers/STM32L4xx_HAL_Driver/Src/stm32l4xx_hal_nand.c ****       }
1093:Drivers/STM32L4xx_HAL_Driver/Src/stm32l4xx_hal_nand.c **** 
1094:Drivers/STM32L4xx_HAL_Driver/Src/stm32l4xx_hal_nand.c ****       *(__IO uint8_t *)((uint32_t)(deviceaddress | CMD_AREA)) = NAND_CMD_WRITE_TRUE1;
 3293              		.loc 1 1094 25
 3294 022c 7B69     		ldr	r3, [r7, #20]
 3295 022e 43F48033 		orr	r3, r3, #65536
 3296              		.loc 1 1094 63
 3297 0232 1022     		movs	r2, #16
 3298 0234 1A70     		strb	r2, [r3]
 3299              	.LBB498:
 3300              	.LBB499:
 946:Drivers/CMSIS/Core/Include/cmsis_gcc.h **** }
 3301              		.loc 2 946 3
 3302              		.syntax unified
 3303              	@ 946 "Drivers/CMSIS/Core/Include/cmsis_gcc.h" 1
 3304 0236 BFF34F8F 		dsb 0xF
 3305              	@ 0 "" 2
 3306              		.loc 2 947 1
 3307              		.thumb
 3308              		.syntax unified
 3309 023a 00BF     		nop
 3310              	.LBE499:
 3311              	.LBE498:
1095:Drivers/STM32L4xx_HAL_Driver/Src/stm32l4xx_hal_nand.c ****       __DSB();
1096:Drivers/STM32L4xx_HAL_Driver/Src/stm32l4xx_hal_nand.c **** 
1097:Drivers/STM32L4xx_HAL_Driver/Src/stm32l4xx_hal_nand.c ****       /* Get tick */
1098:Drivers/STM32L4xx_HAL_Driver/Src/stm32l4xx_hal_nand.c ****       tickstart = HAL_GetTick();
 3312              		.loc 1 1098 19
 3313 023c FFF7FEFF 		bl	HAL_GetTick
 3314 0240 3861     		str	r0, [r7, #16]
1099:Drivers/STM32L4xx_HAL_Driver/Src/stm32l4xx_hal_nand.c **** 
1100:Drivers/STM32L4xx_HAL_Driver/Src/stm32l4xx_hal_nand.c ****       /* Read status until NAND is ready */
1101:Drivers/STM32L4xx_HAL_Driver/Src/stm32l4xx_hal_nand.c ****       while (HAL_NAND_Read_Status(hnand) != NAND_READY)
 3315              		.loc 1 1101 13
 3316 0242 11E0     		b	.L99
 3317              	.L100:
1102:Drivers/STM32L4xx_HAL_Driver/Src/stm32l4xx_hal_nand.c ****       {
1103:Drivers/STM32L4xx_HAL_Driver/Src/stm32l4xx_hal_nand.c ****         if ((HAL_GetTick() - tickstart) > NAND_WRITE_TIMEOUT)
 3318              		.loc 1 1103 14
 3319 0244 FFF7FEFF 		bl	HAL_GetTick
 3320 0248 0246     		mov	r2, r0
 3321              		.loc 1 1103 28 discriminator 1
 3322 024a 3B69     		ldr	r3, [r7, #16]
 3323 024c D31A     		subs	r3, r2, r3
 3324              		.loc 1 1103 12 discriminator 1
 3325 024e B3F1807F 		cmp	r3, #16777216
 3326 0252 09D9     		bls	.L99
1104:Drivers/STM32L4xx_HAL_Driver/Src/stm32l4xx_hal_nand.c ****         {
1105:Drivers/STM32L4xx_HAL_Driver/Src/stm32l4xx_hal_nand.c ****           /* Update the NAND controller state */
1106:Drivers/STM32L4xx_HAL_Driver/Src/stm32l4xx_hal_nand.c ****           hnand->State = HAL_NAND_STATE_ERROR;
 3327              		.loc 1 1106 24
 3328 0254 FB68     		ldr	r3, [r7, #12]
ARM GAS  /tmp/ccUr9KqT.s 			page 97


 3329 0256 0322     		movs	r2, #3
 3330 0258 83F82120 		strb	r2, [r3, #33]
1107:Drivers/STM32L4xx_HAL_Driver/Src/stm32l4xx_hal_nand.c **** 
1108:Drivers/STM32L4xx_HAL_Driver/Src/stm32l4xx_hal_nand.c ****           /* Process unlocked */
1109:Drivers/STM32L4xx_HAL_Driver/Src/stm32l4xx_hal_nand.c ****           __HAL_UNLOCK(hnand);
 3331              		.loc 1 1109 11
 3332 025c FB68     		ldr	r3, [r7, #12]
 3333 025e 0022     		movs	r2, #0
 3334 0260 83F82020 		strb	r2, [r3, #32]
1110:Drivers/STM32L4xx_HAL_Driver/Src/stm32l4xx_hal_nand.c **** 
1111:Drivers/STM32L4xx_HAL_Driver/Src/stm32l4xx_hal_nand.c ****           return HAL_TIMEOUT;
 3335              		.loc 1 1111 18
 3336 0264 0323     		movs	r3, #3
 3337 0266 23E0     		b	.L88
 3338              	.L99:
1101:Drivers/STM32L4xx_HAL_Driver/Src/stm32l4xx_hal_nand.c ****       {
 3339              		.loc 1 1101 14
 3340 0268 F868     		ldr	r0, [r7, #12]
 3341 026a FFF7FEFF 		bl	HAL_NAND_Read_Status
 3342 026e 0346     		mov	r3, r0
1101:Drivers/STM32L4xx_HAL_Driver/Src/stm32l4xx_hal_nand.c ****       {
 3343              		.loc 1 1101 42 discriminator 1
 3344 0270 402B     		cmp	r3, #64
 3345 0272 E7D1     		bne	.L100
1112:Drivers/STM32L4xx_HAL_Driver/Src/stm32l4xx_hal_nand.c ****         }
1113:Drivers/STM32L4xx_HAL_Driver/Src/stm32l4xx_hal_nand.c ****       }
1114:Drivers/STM32L4xx_HAL_Driver/Src/stm32l4xx_hal_nand.c **** 
1115:Drivers/STM32L4xx_HAL_Driver/Src/stm32l4xx_hal_nand.c ****       /* Decrement pages to write */
1116:Drivers/STM32L4xx_HAL_Driver/Src/stm32l4xx_hal_nand.c ****       nbpages--;
 3346              		.loc 1 1116 14
 3347 0274 FB69     		ldr	r3, [r7, #28]
 3348 0276 013B     		subs	r3, r3, #1
 3349 0278 FB61     		str	r3, [r7, #28]
1117:Drivers/STM32L4xx_HAL_Driver/Src/stm32l4xx_hal_nand.c **** 
1118:Drivers/STM32L4xx_HAL_Driver/Src/stm32l4xx_hal_nand.c ****       /* Increment the NAND address */
1119:Drivers/STM32L4xx_HAL_Driver/Src/stm32l4xx_hal_nand.c ****       nandaddress = (uint32_t)(nandaddress + 1U);
 3350              		.loc 1 1119 19
 3351 027a 3B6A     		ldr	r3, [r7, #32]
 3352 027c 0133     		adds	r3, r3, #1
 3353 027e 3B62     		str	r3, [r7, #32]
 3354              	.L91:
1015:Drivers/STM32L4xx_HAL_Driver/Src/stm32l4xx_hal_nand.c ****     {
 3355              		.loc 1 1015 28
 3356 0280 FB69     		ldr	r3, [r7, #28]
 3357 0282 002B     		cmp	r3, #0
 3358 0284 09D0     		beq	.L101
1015:Drivers/STM32L4xx_HAL_Driver/Src/stm32l4xx_hal_nand.c ****     {
 3359              		.loc 1 1015 61 discriminator 1
 3360 0286 FB68     		ldr	r3, [r7, #12]
 3361 0288 DB6A     		ldr	r3, [r3, #44]
1015:Drivers/STM32L4xx_HAL_Driver/Src/stm32l4xx_hal_nand.c ****     {
 3362              		.loc 1 1015 89 discriminator 1
 3363 028a FA68     		ldr	r2, [r7, #12]
 3364 028c 126B     		ldr	r2, [r2, #48]
1015:Drivers/STM32L4xx_HAL_Driver/Src/stm32l4xx_hal_nand.c ****     {
 3365              		.loc 1 1015 73 discriminator 1
 3366 028e 02FB03F3 		mul	r3, r2, r3
ARM GAS  /tmp/ccUr9KqT.s 			page 98


1015:Drivers/STM32L4xx_HAL_Driver/Src/stm32l4xx_hal_nand.c ****     {
 3367              		.loc 1 1015 28 discriminator 1
 3368 0292 3A6A     		ldr	r2, [r7, #32]
 3369 0294 9A42     		cmp	r2, r3
 3370 0296 FFF4F4AE 		bcc	.L102
 3371              	.L101:
1120:Drivers/STM32L4xx_HAL_Driver/Src/stm32l4xx_hal_nand.c ****     }
1121:Drivers/STM32L4xx_HAL_Driver/Src/stm32l4xx_hal_nand.c **** 
1122:Drivers/STM32L4xx_HAL_Driver/Src/stm32l4xx_hal_nand.c ****     /* Update the NAND controller state */
1123:Drivers/STM32L4xx_HAL_Driver/Src/stm32l4xx_hal_nand.c ****     hnand->State = HAL_NAND_STATE_READY;
 3372              		.loc 1 1123 18
 3373 029a FB68     		ldr	r3, [r7, #12]
 3374 029c 0122     		movs	r2, #1
 3375 029e 83F82120 		strb	r2, [r3, #33]
1124:Drivers/STM32L4xx_HAL_Driver/Src/stm32l4xx_hal_nand.c **** 
1125:Drivers/STM32L4xx_HAL_Driver/Src/stm32l4xx_hal_nand.c ****     /* Process unlocked */
1126:Drivers/STM32L4xx_HAL_Driver/Src/stm32l4xx_hal_nand.c ****     __HAL_UNLOCK(hnand);
 3376              		.loc 1 1126 5
 3377 02a2 FB68     		ldr	r3, [r7, #12]
 3378 02a4 0022     		movs	r2, #0
 3379 02a6 83F82020 		strb	r2, [r3, #32]
1127:Drivers/STM32L4xx_HAL_Driver/Src/stm32l4xx_hal_nand.c ****   }
1128:Drivers/STM32L4xx_HAL_Driver/Src/stm32l4xx_hal_nand.c ****   else
1129:Drivers/STM32L4xx_HAL_Driver/Src/stm32l4xx_hal_nand.c ****   {
1130:Drivers/STM32L4xx_HAL_Driver/Src/stm32l4xx_hal_nand.c ****     return HAL_ERROR;
1131:Drivers/STM32L4xx_HAL_Driver/Src/stm32l4xx_hal_nand.c ****   }
1132:Drivers/STM32L4xx_HAL_Driver/Src/stm32l4xx_hal_nand.c **** 
1133:Drivers/STM32L4xx_HAL_Driver/Src/stm32l4xx_hal_nand.c ****   return HAL_OK;
 3380              		.loc 1 1133 10
 3381 02aa 0023     		movs	r3, #0
 3382 02ac 00E0     		b	.L88
 3383              	.L89:
1130:Drivers/STM32L4xx_HAL_Driver/Src/stm32l4xx_hal_nand.c ****   }
 3384              		.loc 1 1130 12
 3385 02ae 0123     		movs	r3, #1
 3386              	.L88:
1134:Drivers/STM32L4xx_HAL_Driver/Src/stm32l4xx_hal_nand.c **** }
 3387              		.loc 1 1134 1
 3388 02b0 1846     		mov	r0, r3
 3389 02b2 2837     		adds	r7, r7, #40
 3390              		.cfi_def_cfa_offset 8
 3391 02b4 BD46     		mov	sp, r7
 3392              		.cfi_def_cfa_register 13
 3393              		@ sp needed
 3394 02b6 80BD     		pop	{r7, pc}
 3395              		.cfi_endproc
 3396              	.LFE457:
 3398              		.section	.text.HAL_NAND_Read_SpareArea_8b,"ax",%progbits
 3399              		.align	1
 3400              		.global	HAL_NAND_Read_SpareArea_8b
 3401              		.syntax unified
 3402              		.thumb
 3403              		.thumb_func
 3405              	HAL_NAND_Read_SpareArea_8b:
 3406              	.LFB458:
1135:Drivers/STM32L4xx_HAL_Driver/Src/stm32l4xx_hal_nand.c **** 
1136:Drivers/STM32L4xx_HAL_Driver/Src/stm32l4xx_hal_nand.c **** /**
ARM GAS  /tmp/ccUr9KqT.s 			page 99


1137:Drivers/STM32L4xx_HAL_Driver/Src/stm32l4xx_hal_nand.c ****   * @brief  Read Spare area(s) from NAND memory (8-bits addressing)
1138:Drivers/STM32L4xx_HAL_Driver/Src/stm32l4xx_hal_nand.c ****   * @param  hnand pointer to a NAND_HandleTypeDef structure that contains
1139:Drivers/STM32L4xx_HAL_Driver/Src/stm32l4xx_hal_nand.c ****   *                the configuration information for NAND module.
1140:Drivers/STM32L4xx_HAL_Driver/Src/stm32l4xx_hal_nand.c ****   * @param  pAddress  pointer to NAND address structure
1141:Drivers/STM32L4xx_HAL_Driver/Src/stm32l4xx_hal_nand.c ****   * @param  pBuffer pointer to source buffer to write
1142:Drivers/STM32L4xx_HAL_Driver/Src/stm32l4xx_hal_nand.c ****   * @param  NumSpareAreaToRead Number of spare area to read
1143:Drivers/STM32L4xx_HAL_Driver/Src/stm32l4xx_hal_nand.c ****   * @retval HAL status
1144:Drivers/STM32L4xx_HAL_Driver/Src/stm32l4xx_hal_nand.c ****   */
1145:Drivers/STM32L4xx_HAL_Driver/Src/stm32l4xx_hal_nand.c **** HAL_StatusTypeDef HAL_NAND_Read_SpareArea_8b(NAND_HandleTypeDef *hnand, const NAND_AddressTypeDef *
1146:Drivers/STM32L4xx_HAL_Driver/Src/stm32l4xx_hal_nand.c ****                                              uint8_t *pBuffer, uint32_t NumSpareAreaToRead)
1147:Drivers/STM32L4xx_HAL_Driver/Src/stm32l4xx_hal_nand.c **** {
 3407              		.loc 1 1147 1
 3408              		.cfi_startproc
 3409              		@ args = 0, pretend = 0, frame = 48
 3410              		@ frame_needed = 1, uses_anonymous_args = 0
 3411 0000 80B5     		push	{r7, lr}
 3412              		.cfi_def_cfa_offset 8
 3413              		.cfi_offset 7, -8
 3414              		.cfi_offset 14, -4
 3415 0002 8CB0     		sub	sp, sp, #48
 3416              		.cfi_def_cfa_offset 56
 3417 0004 00AF     		add	r7, sp, #0
 3418              		.cfi_def_cfa_register 7
 3419 0006 F860     		str	r0, [r7, #12]
 3420 0008 B960     		str	r1, [r7, #8]
 3421 000a 7A60     		str	r2, [r7, #4]
 3422 000c 3B60     		str	r3, [r7]
1148:Drivers/STM32L4xx_HAL_Driver/Src/stm32l4xx_hal_nand.c ****   uint32_t index;
1149:Drivers/STM32L4xx_HAL_Driver/Src/stm32l4xx_hal_nand.c ****   uint32_t tickstart;
1150:Drivers/STM32L4xx_HAL_Driver/Src/stm32l4xx_hal_nand.c ****   uint32_t deviceaddress;
1151:Drivers/STM32L4xx_HAL_Driver/Src/stm32l4xx_hal_nand.c ****   uint32_t nandaddress;
1152:Drivers/STM32L4xx_HAL_Driver/Src/stm32l4xx_hal_nand.c ****   uint32_t columnaddress;
1153:Drivers/STM32L4xx_HAL_Driver/Src/stm32l4xx_hal_nand.c ****   uint32_t nbspare = NumSpareAreaToRead;
 3423              		.loc 1 1153 12
 3424 000e 3B68     		ldr	r3, [r7]
 3425 0010 7B62     		str	r3, [r7, #36]
1154:Drivers/STM32L4xx_HAL_Driver/Src/stm32l4xx_hal_nand.c ****   uint8_t *buff = pBuffer;
 3426              		.loc 1 1154 12
 3427 0012 7B68     		ldr	r3, [r7, #4]
 3428 0014 3B62     		str	r3, [r7, #32]
1155:Drivers/STM32L4xx_HAL_Driver/Src/stm32l4xx_hal_nand.c **** 
1156:Drivers/STM32L4xx_HAL_Driver/Src/stm32l4xx_hal_nand.c ****   /* Check the NAND controller state */
1157:Drivers/STM32L4xx_HAL_Driver/Src/stm32l4xx_hal_nand.c ****   if (hnand->State == HAL_NAND_STATE_BUSY)
 3429              		.loc 1 1157 12
 3430 0016 FB68     		ldr	r3, [r7, #12]
 3431 0018 93F82130 		ldrb	r3, [r3, #33]
 3432 001c DBB2     		uxtb	r3, r3
 3433              		.loc 1 1157 6
 3434 001e 022B     		cmp	r3, #2
 3435 0020 01D1     		bne	.L105
1158:Drivers/STM32L4xx_HAL_Driver/Src/stm32l4xx_hal_nand.c ****   {
1159:Drivers/STM32L4xx_HAL_Driver/Src/stm32l4xx_hal_nand.c ****     return HAL_BUSY;
 3436              		.loc 1 1159 12
 3437 0022 0223     		movs	r3, #2
 3438 0024 4FE1     		b	.L106
 3439              	.L105:
1160:Drivers/STM32L4xx_HAL_Driver/Src/stm32l4xx_hal_nand.c ****   }
ARM GAS  /tmp/ccUr9KqT.s 			page 100


1161:Drivers/STM32L4xx_HAL_Driver/Src/stm32l4xx_hal_nand.c ****   else if (hnand->State == HAL_NAND_STATE_READY)
 3440              		.loc 1 1161 17
 3441 0026 FB68     		ldr	r3, [r7, #12]
 3442 0028 93F82130 		ldrb	r3, [r3, #33]
 3443 002c DBB2     		uxtb	r3, r3
 3444              		.loc 1 1161 11
 3445 002e 012B     		cmp	r3, #1
 3446 0030 40F04881 		bne	.L107
1162:Drivers/STM32L4xx_HAL_Driver/Src/stm32l4xx_hal_nand.c ****   {
1163:Drivers/STM32L4xx_HAL_Driver/Src/stm32l4xx_hal_nand.c ****     /* Process Locked */
1164:Drivers/STM32L4xx_HAL_Driver/Src/stm32l4xx_hal_nand.c ****     __HAL_LOCK(hnand);
 3447              		.loc 1 1164 5
 3448 0034 FB68     		ldr	r3, [r7, #12]
 3449 0036 93F82030 		ldrb	r3, [r3, #32]	@ zero_extendqisi2
 3450 003a 012B     		cmp	r3, #1
 3451 003c 01D1     		bne	.L108
 3452              		.loc 1 1164 5 is_stmt 0 discriminator 1
 3453 003e 0223     		movs	r3, #2
 3454              		.loc 1 1164 5
 3455 0040 41E1     		b	.L106
 3456              	.L108:
 3457              		.loc 1 1164 5 discriminator 2
 3458 0042 FB68     		ldr	r3, [r7, #12]
 3459 0044 0122     		movs	r2, #1
 3460 0046 83F82020 		strb	r2, [r3, #32]
1165:Drivers/STM32L4xx_HAL_Driver/Src/stm32l4xx_hal_nand.c **** 
1166:Drivers/STM32L4xx_HAL_Driver/Src/stm32l4xx_hal_nand.c ****     /* Update the NAND controller state */
1167:Drivers/STM32L4xx_HAL_Driver/Src/stm32l4xx_hal_nand.c ****     hnand->State = HAL_NAND_STATE_BUSY;
 3461              		.loc 1 1167 18 is_stmt 1
 3462 004a FB68     		ldr	r3, [r7, #12]
 3463 004c 0222     		movs	r2, #2
 3464 004e 83F82120 		strb	r2, [r3, #33]
1168:Drivers/STM32L4xx_HAL_Driver/Src/stm32l4xx_hal_nand.c **** 
1169:Drivers/STM32L4xx_HAL_Driver/Src/stm32l4xx_hal_nand.c ****     /* Identify the device address */
1170:Drivers/STM32L4xx_HAL_Driver/Src/stm32l4xx_hal_nand.c ****     deviceaddress = NAND_DEVICE;
 3465              		.loc 1 1170 19
 3466 0052 4FF00043 		mov	r3, #-2147483648
 3467 0056 FB61     		str	r3, [r7, #28]
1171:Drivers/STM32L4xx_HAL_Driver/Src/stm32l4xx_hal_nand.c **** 
1172:Drivers/STM32L4xx_HAL_Driver/Src/stm32l4xx_hal_nand.c ****     /* NAND raw address calculation */
1173:Drivers/STM32L4xx_HAL_Driver/Src/stm32l4xx_hal_nand.c ****     nandaddress = ARRAY_ADDRESS(pAddress, hnand);
 3468              		.loc 1 1173 19
 3469 0058 BB68     		ldr	r3, [r7, #8]
 3470 005a 1B88     		ldrh	r3, [r3]
 3471 005c 1946     		mov	r1, r3
 3472 005e BB68     		ldr	r3, [r7, #8]
 3473 0060 9B88     		ldrh	r3, [r3, #4]
 3474 0062 1A46     		mov	r2, r3
 3475 0064 BB68     		ldr	r3, [r7, #8]
 3476 0066 5B88     		ldrh	r3, [r3, #2]
 3477 0068 1846     		mov	r0, r3
 3478 006a FB68     		ldr	r3, [r7, #12]
 3479 006c 9B6B     		ldr	r3, [r3, #56]
 3480 006e 00FB03F3 		mul	r3, r0, r3
 3481 0072 1344     		add	r3, r3, r2
 3482 0074 FA68     		ldr	r2, [r7, #12]
 3483 0076 D26A     		ldr	r2, [r2, #44]
ARM GAS  /tmp/ccUr9KqT.s 			page 101


 3484 0078 02FB03F3 		mul	r3, r2, r3
 3485              		.loc 1 1173 17
 3486 007c 0B44     		add	r3, r3, r1
 3487 007e BB62     		str	r3, [r7, #40]
1174:Drivers/STM32L4xx_HAL_Driver/Src/stm32l4xx_hal_nand.c **** 
1175:Drivers/STM32L4xx_HAL_Driver/Src/stm32l4xx_hal_nand.c ****     /* Column in page address */
1176:Drivers/STM32L4xx_HAL_Driver/Src/stm32l4xx_hal_nand.c ****     columnaddress = COLUMN_ADDRESS(hnand);
 3488              		.loc 1 1176 19
 3489 0080 FB68     		ldr	r3, [r7, #12]
 3490 0082 5B6A     		ldr	r3, [r3, #36]
 3491 0084 BB61     		str	r3, [r7, #24]
1177:Drivers/STM32L4xx_HAL_Driver/Src/stm32l4xx_hal_nand.c **** 
1178:Drivers/STM32L4xx_HAL_Driver/Src/stm32l4xx_hal_nand.c ****     /* Spare area(s) read loop */
1179:Drivers/STM32L4xx_HAL_Driver/Src/stm32l4xx_hal_nand.c ****     while ((nbspare != 0U) && (nandaddress < ((hnand->Config.BlockSize) * (hnand->Config.BlockNbr))
 3492              		.loc 1 1179 11
 3493 0086 06E1     		b	.L109
 3494              	.L120:
1180:Drivers/STM32L4xx_HAL_Driver/Src/stm32l4xx_hal_nand.c ****     {
1181:Drivers/STM32L4xx_HAL_Driver/Src/stm32l4xx_hal_nand.c ****       /* Cards with page size <= 512 bytes */
1182:Drivers/STM32L4xx_HAL_Driver/Src/stm32l4xx_hal_nand.c ****       if ((hnand->Config.PageSize) <= 512U)
 3495              		.loc 1 1182 25
 3496 0088 FB68     		ldr	r3, [r7, #12]
 3497 008a 5B6A     		ldr	r3, [r3, #36]
 3498              		.loc 1 1182 10
 3499 008c B3F5007F 		cmp	r3, #512
 3500 0090 50D8     		bhi	.L110
1183:Drivers/STM32L4xx_HAL_Driver/Src/stm32l4xx_hal_nand.c ****       {
1184:Drivers/STM32L4xx_HAL_Driver/Src/stm32l4xx_hal_nand.c ****         /* Send read spare area command sequence */
1185:Drivers/STM32L4xx_HAL_Driver/Src/stm32l4xx_hal_nand.c ****         *(__IO uint8_t *)((uint32_t)(deviceaddress | CMD_AREA)) = NAND_CMD_AREA_C;
 3501              		.loc 1 1185 27
 3502 0092 FB69     		ldr	r3, [r7, #28]
 3503 0094 43F48033 		orr	r3, r3, #65536
 3504              		.loc 1 1185 65
 3505 0098 5022     		movs	r2, #80
 3506 009a 1A70     		strb	r2, [r3]
 3507              	.LBB500:
 3508              	.LBB501:
 946:Drivers/CMSIS/Core/Include/cmsis_gcc.h **** }
 3509              		.loc 2 946 3
 3510              		.syntax unified
 3511              	@ 946 "Drivers/CMSIS/Core/Include/cmsis_gcc.h" 1
 3512 009c BFF34F8F 		dsb 0xF
 3513              	@ 0 "" 2
 3514              		.loc 2 947 1
 3515              		.thumb
 3516              		.syntax unified
 3517 00a0 00BF     		nop
 3518              	.LBE501:
 3519              	.LBE500:
1186:Drivers/STM32L4xx_HAL_Driver/Src/stm32l4xx_hal_nand.c ****         __DSB();
1187:Drivers/STM32L4xx_HAL_Driver/Src/stm32l4xx_hal_nand.c **** 
1188:Drivers/STM32L4xx_HAL_Driver/Src/stm32l4xx_hal_nand.c ****         if (((hnand->Config.BlockSize) * (hnand->Config.BlockNbr)) <= 65535U)
 3520              		.loc 1 1188 28
 3521 00a2 FB68     		ldr	r3, [r7, #12]
 3522 00a4 DB6A     		ldr	r3, [r3, #44]
 3523              		.loc 1 1188 56
 3524 00a6 FA68     		ldr	r2, [r7, #12]
ARM GAS  /tmp/ccUr9KqT.s 			page 102


 3525 00a8 126B     		ldr	r2, [r2, #48]
 3526              		.loc 1 1188 40
 3527 00aa 02FB03F3 		mul	r3, r2, r3
 3528              		.loc 1 1188 12
 3529 00ae B3F5803F 		cmp	r3, #65536
 3530 00b2 1AD2     		bcs	.L111
1189:Drivers/STM32L4xx_HAL_Driver/Src/stm32l4xx_hal_nand.c ****         {
1190:Drivers/STM32L4xx_HAL_Driver/Src/stm32l4xx_hal_nand.c ****           *(__IO uint8_t *)((uint32_t)(deviceaddress | ADDR_AREA)) = 0x00U;
 3531              		.loc 1 1190 29
 3532 00b4 FB69     		ldr	r3, [r7, #28]
 3533 00b6 43F40033 		orr	r3, r3, #131072
 3534              		.loc 1 1190 68
 3535 00ba 0022     		movs	r2, #0
 3536 00bc 1A70     		strb	r2, [r3]
 3537              	.LBB502:
 3538              	.LBB503:
 946:Drivers/CMSIS/Core/Include/cmsis_gcc.h **** }
 3539              		.loc 2 946 3
 3540              		.syntax unified
 3541              	@ 946 "Drivers/CMSIS/Core/Include/cmsis_gcc.h" 1
 3542 00be BFF34F8F 		dsb 0xF
 3543              	@ 0 "" 2
 3544              		.loc 2 947 1
 3545              		.thumb
 3546              		.syntax unified
 3547 00c2 00BF     		nop
 3548              	.LBE503:
 3549              	.LBE502:
1191:Drivers/STM32L4xx_HAL_Driver/Src/stm32l4xx_hal_nand.c ****           __DSB();
1192:Drivers/STM32L4xx_HAL_Driver/Src/stm32l4xx_hal_nand.c ****           *(__IO uint8_t *)((uint32_t)(deviceaddress | ADDR_AREA)) = ADDR_1ST_CYCLE(nandaddress);
 3550              		.loc 1 1192 29
 3551 00c4 FB69     		ldr	r3, [r7, #28]
 3552 00c6 43F40033 		orr	r3, r3, #131072
 3553              		.loc 1 1192 70
 3554 00ca BA6A     		ldr	r2, [r7, #40]
 3555 00cc D2B2     		uxtb	r2, r2
 3556              		.loc 1 1192 68
 3557 00ce 1A70     		strb	r2, [r3]
 3558              	.LBB504:
 3559              	.LBB505:
 946:Drivers/CMSIS/Core/Include/cmsis_gcc.h **** }
 3560              		.loc 2 946 3
 3561              		.syntax unified
 3562              	@ 946 "Drivers/CMSIS/Core/Include/cmsis_gcc.h" 1
 3563 00d0 BFF34F8F 		dsb 0xF
 3564              	@ 0 "" 2
 3565              		.loc 2 947 1
 3566              		.thumb
 3567              		.syntax unified
 3568 00d4 00BF     		nop
 3569              	.LBE505:
 3570              	.LBE504:
1193:Drivers/STM32L4xx_HAL_Driver/Src/stm32l4xx_hal_nand.c ****           __DSB();
1194:Drivers/STM32L4xx_HAL_Driver/Src/stm32l4xx_hal_nand.c ****           *(__IO uint8_t *)((uint32_t)(deviceaddress | ADDR_AREA)) = ADDR_2ND_CYCLE(nandaddress);
 3571              		.loc 1 1194 70
 3572 00d6 BB6A     		ldr	r3, [r7, #40]
 3573 00d8 1A0A     		lsrs	r2, r3, #8
ARM GAS  /tmp/ccUr9KqT.s 			page 103


 3574              		.loc 1 1194 29
 3575 00da FB69     		ldr	r3, [r7, #28]
 3576 00dc 43F40033 		orr	r3, r3, #131072
 3577              		.loc 1 1194 70
 3578 00e0 D2B2     		uxtb	r2, r2
 3579              		.loc 1 1194 68
 3580 00e2 1A70     		strb	r2, [r3]
 3581              	.LBB506:
 3582              	.LBB507:
 946:Drivers/CMSIS/Core/Include/cmsis_gcc.h **** }
 3583              		.loc 2 946 3
 3584              		.syntax unified
 3585              	@ 946 "Drivers/CMSIS/Core/Include/cmsis_gcc.h" 1
 3586 00e4 BFF34F8F 		dsb 0xF
 3587              	@ 0 "" 2
 3588              		.loc 2 947 1
 3589              		.thumb
 3590              		.syntax unified
 3591 00e8 8BE0     		b	.L112
 3592              	.L111:
 3593              	.LBE507:
 3594              	.LBE506:
1195:Drivers/STM32L4xx_HAL_Driver/Src/stm32l4xx_hal_nand.c ****           __DSB();
1196:Drivers/STM32L4xx_HAL_Driver/Src/stm32l4xx_hal_nand.c ****         }
1197:Drivers/STM32L4xx_HAL_Driver/Src/stm32l4xx_hal_nand.c ****         else /* ((hnand->Config.BlockSize)*(hnand->Config.BlockNbr)) > 65535 */
1198:Drivers/STM32L4xx_HAL_Driver/Src/stm32l4xx_hal_nand.c ****         {
1199:Drivers/STM32L4xx_HAL_Driver/Src/stm32l4xx_hal_nand.c ****           *(__IO uint8_t *)((uint32_t)(deviceaddress | ADDR_AREA)) = 0x00U;
 3595              		.loc 1 1199 29
 3596 00ea FB69     		ldr	r3, [r7, #28]
 3597 00ec 43F40033 		orr	r3, r3, #131072
 3598              		.loc 1 1199 68
 3599 00f0 0022     		movs	r2, #0
 3600 00f2 1A70     		strb	r2, [r3]
 3601              	.LBB508:
 3602              	.LBB509:
 946:Drivers/CMSIS/Core/Include/cmsis_gcc.h **** }
 3603              		.loc 2 946 3
 3604              		.syntax unified
 3605              	@ 946 "Drivers/CMSIS/Core/Include/cmsis_gcc.h" 1
 3606 00f4 BFF34F8F 		dsb 0xF
 3607              	@ 0 "" 2
 3608              		.loc 2 947 1
 3609              		.thumb
 3610              		.syntax unified
 3611 00f8 00BF     		nop
 3612              	.LBE509:
 3613              	.LBE508:
1200:Drivers/STM32L4xx_HAL_Driver/Src/stm32l4xx_hal_nand.c ****           __DSB();
1201:Drivers/STM32L4xx_HAL_Driver/Src/stm32l4xx_hal_nand.c ****           *(__IO uint8_t *)((uint32_t)(deviceaddress | ADDR_AREA)) = ADDR_1ST_CYCLE(nandaddress);
 3614              		.loc 1 1201 29
 3615 00fa FB69     		ldr	r3, [r7, #28]
 3616 00fc 43F40033 		orr	r3, r3, #131072
 3617              		.loc 1 1201 70
 3618 0100 BA6A     		ldr	r2, [r7, #40]
 3619 0102 D2B2     		uxtb	r2, r2
 3620              		.loc 1 1201 68
 3621 0104 1A70     		strb	r2, [r3]
ARM GAS  /tmp/ccUr9KqT.s 			page 104


 3622              	.LBB510:
 3623              	.LBB511:
 946:Drivers/CMSIS/Core/Include/cmsis_gcc.h **** }
 3624              		.loc 2 946 3
 3625              		.syntax unified
 3626              	@ 946 "Drivers/CMSIS/Core/Include/cmsis_gcc.h" 1
 3627 0106 BFF34F8F 		dsb 0xF
 3628              	@ 0 "" 2
 3629              		.loc 2 947 1
 3630              		.thumb
 3631              		.syntax unified
 3632 010a 00BF     		nop
 3633              	.LBE511:
 3634              	.LBE510:
1202:Drivers/STM32L4xx_HAL_Driver/Src/stm32l4xx_hal_nand.c ****           __DSB();
1203:Drivers/STM32L4xx_HAL_Driver/Src/stm32l4xx_hal_nand.c ****           *(__IO uint8_t *)((uint32_t)(deviceaddress | ADDR_AREA)) = ADDR_2ND_CYCLE(nandaddress);
 3635              		.loc 1 1203 70
 3636 010c BB6A     		ldr	r3, [r7, #40]
 3637 010e 1A0A     		lsrs	r2, r3, #8
 3638              		.loc 1 1203 29
 3639 0110 FB69     		ldr	r3, [r7, #28]
 3640 0112 43F40033 		orr	r3, r3, #131072
 3641              		.loc 1 1203 70
 3642 0116 D2B2     		uxtb	r2, r2
 3643              		.loc 1 1203 68
 3644 0118 1A70     		strb	r2, [r3]
 3645              	.LBB512:
 3646              	.LBB513:
 946:Drivers/CMSIS/Core/Include/cmsis_gcc.h **** }
 3647              		.loc 2 946 3
 3648              		.syntax unified
 3649              	@ 946 "Drivers/CMSIS/Core/Include/cmsis_gcc.h" 1
 3650 011a BFF34F8F 		dsb 0xF
 3651              	@ 0 "" 2
 3652              		.loc 2 947 1
 3653              		.thumb
 3654              		.syntax unified
 3655 011e 00BF     		nop
 3656              	.LBE513:
 3657              	.LBE512:
1204:Drivers/STM32L4xx_HAL_Driver/Src/stm32l4xx_hal_nand.c ****           __DSB();
1205:Drivers/STM32L4xx_HAL_Driver/Src/stm32l4xx_hal_nand.c ****           *(__IO uint8_t *)((uint32_t)(deviceaddress | ADDR_AREA)) = ADDR_3RD_CYCLE(nandaddress);
 3658              		.loc 1 1205 70
 3659 0120 BB6A     		ldr	r3, [r7, #40]
 3660 0122 1A0C     		lsrs	r2, r3, #16
 3661              		.loc 1 1205 29
 3662 0124 FB69     		ldr	r3, [r7, #28]
 3663 0126 43F40033 		orr	r3, r3, #131072
 3664              		.loc 1 1205 70
 3665 012a D2B2     		uxtb	r2, r2
 3666              		.loc 1 1205 68
 3667 012c 1A70     		strb	r2, [r3]
 3668              	.LBB514:
 3669              	.LBB515:
 946:Drivers/CMSIS/Core/Include/cmsis_gcc.h **** }
 3670              		.loc 2 946 3
 3671              		.syntax unified
ARM GAS  /tmp/ccUr9KqT.s 			page 105


 3672              	@ 946 "Drivers/CMSIS/Core/Include/cmsis_gcc.h" 1
 3673 012e BFF34F8F 		dsb 0xF
 3674              	@ 0 "" 2
 3675              		.loc 2 947 1
 3676              		.thumb
 3677              		.syntax unified
 3678 0132 66E0     		b	.L112
 3679              	.L110:
 3680              	.LBE515:
 3681              	.LBE514:
1206:Drivers/STM32L4xx_HAL_Driver/Src/stm32l4xx_hal_nand.c ****           __DSB();
1207:Drivers/STM32L4xx_HAL_Driver/Src/stm32l4xx_hal_nand.c ****         }
1208:Drivers/STM32L4xx_HAL_Driver/Src/stm32l4xx_hal_nand.c ****       }
1209:Drivers/STM32L4xx_HAL_Driver/Src/stm32l4xx_hal_nand.c ****       else /* (hnand->Config.PageSize) > 512 */
1210:Drivers/STM32L4xx_HAL_Driver/Src/stm32l4xx_hal_nand.c ****       {
1211:Drivers/STM32L4xx_HAL_Driver/Src/stm32l4xx_hal_nand.c ****         /* Send read spare area command sequence */
1212:Drivers/STM32L4xx_HAL_Driver/Src/stm32l4xx_hal_nand.c ****         *(__IO uint8_t *)((uint32_t)(deviceaddress | CMD_AREA)) = NAND_CMD_AREA_A;
 3682              		.loc 1 1212 27
 3683 0134 FB69     		ldr	r3, [r7, #28]
 3684 0136 43F48033 		orr	r3, r3, #65536
 3685              		.loc 1 1212 65
 3686 013a 0022     		movs	r2, #0
 3687 013c 1A70     		strb	r2, [r3]
 3688              	.LBB516:
 3689              	.LBB517:
 946:Drivers/CMSIS/Core/Include/cmsis_gcc.h **** }
 3690              		.loc 2 946 3
 3691              		.syntax unified
 3692              	@ 946 "Drivers/CMSIS/Core/Include/cmsis_gcc.h" 1
 3693 013e BFF34F8F 		dsb 0xF
 3694              	@ 0 "" 2
 3695              		.loc 2 947 1
 3696              		.thumb
 3697              		.syntax unified
 3698 0142 00BF     		nop
 3699              	.LBE517:
 3700              	.LBE516:
1213:Drivers/STM32L4xx_HAL_Driver/Src/stm32l4xx_hal_nand.c ****         __DSB();
1214:Drivers/STM32L4xx_HAL_Driver/Src/stm32l4xx_hal_nand.c **** 
1215:Drivers/STM32L4xx_HAL_Driver/Src/stm32l4xx_hal_nand.c ****         if (((hnand->Config.BlockSize) * (hnand->Config.BlockNbr)) <= 65535U)
 3701              		.loc 1 1215 28
 3702 0144 FB68     		ldr	r3, [r7, #12]
 3703 0146 DB6A     		ldr	r3, [r3, #44]
 3704              		.loc 1 1215 56
 3705 0148 FA68     		ldr	r2, [r7, #12]
 3706 014a 126B     		ldr	r2, [r2, #48]
 3707              		.loc 1 1215 40
 3708 014c 02FB03F3 		mul	r3, r2, r3
 3709              		.loc 1 1215 12
 3710 0150 B3F5803F 		cmp	r3, #65536
 3711 0154 25D2     		bcs	.L113
1216:Drivers/STM32L4xx_HAL_Driver/Src/stm32l4xx_hal_nand.c ****         {
1217:Drivers/STM32L4xx_HAL_Driver/Src/stm32l4xx_hal_nand.c ****           *(__IO uint8_t *)((uint32_t)(deviceaddress | ADDR_AREA)) = COLUMN_1ST_CYCLE(columnaddress
 3712              		.loc 1 1217 29
 3713 0156 FB69     		ldr	r3, [r7, #28]
 3714 0158 43F40033 		orr	r3, r3, #131072
 3715              		.loc 1 1217 70
ARM GAS  /tmp/ccUr9KqT.s 			page 106


 3716 015c BA69     		ldr	r2, [r7, #24]
 3717 015e D2B2     		uxtb	r2, r2
 3718              		.loc 1 1217 68
 3719 0160 1A70     		strb	r2, [r3]
 3720              	.LBB518:
 3721              	.LBB519:
 946:Drivers/CMSIS/Core/Include/cmsis_gcc.h **** }
 3722              		.loc 2 946 3
 3723              		.syntax unified
 3724              	@ 946 "Drivers/CMSIS/Core/Include/cmsis_gcc.h" 1
 3725 0162 BFF34F8F 		dsb 0xF
 3726              	@ 0 "" 2
 3727              		.loc 2 947 1
 3728              		.thumb
 3729              		.syntax unified
 3730 0166 00BF     		nop
 3731              	.LBE519:
 3732              	.LBE518:
1218:Drivers/STM32L4xx_HAL_Driver/Src/stm32l4xx_hal_nand.c ****           __DSB();
1219:Drivers/STM32L4xx_HAL_Driver/Src/stm32l4xx_hal_nand.c ****           *(__IO uint8_t *)((uint32_t)(deviceaddress | ADDR_AREA)) = COLUMN_2ND_CYCLE(columnaddress
 3733              		.loc 1 1219 70
 3734 0168 BB69     		ldr	r3, [r7, #24]
 3735 016a 1A0A     		lsrs	r2, r3, #8
 3736              		.loc 1 1219 29
 3737 016c FB69     		ldr	r3, [r7, #28]
 3738 016e 43F40033 		orr	r3, r3, #131072
 3739              		.loc 1 1219 70
 3740 0172 D2B2     		uxtb	r2, r2
 3741              		.loc 1 1219 68
 3742 0174 1A70     		strb	r2, [r3]
 3743              	.LBB520:
 3744              	.LBB521:
 946:Drivers/CMSIS/Core/Include/cmsis_gcc.h **** }
 3745              		.loc 2 946 3
 3746              		.syntax unified
 3747              	@ 946 "Drivers/CMSIS/Core/Include/cmsis_gcc.h" 1
 3748 0176 BFF34F8F 		dsb 0xF
 3749              	@ 0 "" 2
 3750              		.loc 2 947 1
 3751              		.thumb
 3752              		.syntax unified
 3753 017a 00BF     		nop
 3754              	.LBE521:
 3755              	.LBE520:
1220:Drivers/STM32L4xx_HAL_Driver/Src/stm32l4xx_hal_nand.c ****           __DSB();
1221:Drivers/STM32L4xx_HAL_Driver/Src/stm32l4xx_hal_nand.c ****           *(__IO uint8_t *)((uint32_t)(deviceaddress | ADDR_AREA)) = ADDR_1ST_CYCLE(nandaddress);
 3756              		.loc 1 1221 29
 3757 017c FB69     		ldr	r3, [r7, #28]
 3758 017e 43F40033 		orr	r3, r3, #131072
 3759              		.loc 1 1221 70
 3760 0182 BA6A     		ldr	r2, [r7, #40]
 3761 0184 D2B2     		uxtb	r2, r2
 3762              		.loc 1 1221 68
 3763 0186 1A70     		strb	r2, [r3]
 3764              	.LBB522:
 3765              	.LBB523:
 946:Drivers/CMSIS/Core/Include/cmsis_gcc.h **** }
ARM GAS  /tmp/ccUr9KqT.s 			page 107


 3766              		.loc 2 946 3
 3767              		.syntax unified
 3768              	@ 946 "Drivers/CMSIS/Core/Include/cmsis_gcc.h" 1
 3769 0188 BFF34F8F 		dsb 0xF
 3770              	@ 0 "" 2
 3771              		.loc 2 947 1
 3772              		.thumb
 3773              		.syntax unified
 3774 018c 00BF     		nop
 3775              	.LBE523:
 3776              	.LBE522:
1222:Drivers/STM32L4xx_HAL_Driver/Src/stm32l4xx_hal_nand.c ****           __DSB();
1223:Drivers/STM32L4xx_HAL_Driver/Src/stm32l4xx_hal_nand.c ****           *(__IO uint8_t *)((uint32_t)(deviceaddress | ADDR_AREA)) = ADDR_2ND_CYCLE(nandaddress);
 3777              		.loc 1 1223 70
 3778 018e BB6A     		ldr	r3, [r7, #40]
 3779 0190 1A0A     		lsrs	r2, r3, #8
 3780              		.loc 1 1223 29
 3781 0192 FB69     		ldr	r3, [r7, #28]
 3782 0194 43F40033 		orr	r3, r3, #131072
 3783              		.loc 1 1223 70
 3784 0198 D2B2     		uxtb	r2, r2
 3785              		.loc 1 1223 68
 3786 019a 1A70     		strb	r2, [r3]
 3787              	.LBB524:
 3788              	.LBB525:
 946:Drivers/CMSIS/Core/Include/cmsis_gcc.h **** }
 3789              		.loc 2 946 3
 3790              		.syntax unified
 3791              	@ 946 "Drivers/CMSIS/Core/Include/cmsis_gcc.h" 1
 3792 019c BFF34F8F 		dsb 0xF
 3793              	@ 0 "" 2
 3794              		.loc 2 947 1
 3795              		.thumb
 3796              		.syntax unified
 3797 01a0 2FE0     		b	.L112
 3798              	.L113:
 3799              	.LBE525:
 3800              	.LBE524:
1224:Drivers/STM32L4xx_HAL_Driver/Src/stm32l4xx_hal_nand.c ****           __DSB();
1225:Drivers/STM32L4xx_HAL_Driver/Src/stm32l4xx_hal_nand.c ****         }
1226:Drivers/STM32L4xx_HAL_Driver/Src/stm32l4xx_hal_nand.c ****         else /* ((hnand->Config.BlockSize)*(hnand->Config.BlockNbr)) > 65535 */
1227:Drivers/STM32L4xx_HAL_Driver/Src/stm32l4xx_hal_nand.c ****         {
1228:Drivers/STM32L4xx_HAL_Driver/Src/stm32l4xx_hal_nand.c ****           *(__IO uint8_t *)((uint32_t)(deviceaddress | ADDR_AREA)) = COLUMN_1ST_CYCLE(columnaddress
 3801              		.loc 1 1228 29
 3802 01a2 FB69     		ldr	r3, [r7, #28]
 3803 01a4 43F40033 		orr	r3, r3, #131072
 3804              		.loc 1 1228 70
 3805 01a8 BA69     		ldr	r2, [r7, #24]
 3806 01aa D2B2     		uxtb	r2, r2
 3807              		.loc 1 1228 68
 3808 01ac 1A70     		strb	r2, [r3]
 3809              	.LBB526:
 3810              	.LBB527:
 946:Drivers/CMSIS/Core/Include/cmsis_gcc.h **** }
 3811              		.loc 2 946 3
 3812              		.syntax unified
 3813              	@ 946 "Drivers/CMSIS/Core/Include/cmsis_gcc.h" 1
ARM GAS  /tmp/ccUr9KqT.s 			page 108


 3814 01ae BFF34F8F 		dsb 0xF
 3815              	@ 0 "" 2
 3816              		.loc 2 947 1
 3817              		.thumb
 3818              		.syntax unified
 3819 01b2 00BF     		nop
 3820              	.LBE527:
 3821              	.LBE526:
1229:Drivers/STM32L4xx_HAL_Driver/Src/stm32l4xx_hal_nand.c ****           __DSB();
1230:Drivers/STM32L4xx_HAL_Driver/Src/stm32l4xx_hal_nand.c ****           *(__IO uint8_t *)((uint32_t)(deviceaddress | ADDR_AREA)) = COLUMN_2ND_CYCLE(columnaddress
 3822              		.loc 1 1230 70
 3823 01b4 BB69     		ldr	r3, [r7, #24]
 3824 01b6 1A0A     		lsrs	r2, r3, #8
 3825              		.loc 1 1230 29
 3826 01b8 FB69     		ldr	r3, [r7, #28]
 3827 01ba 43F40033 		orr	r3, r3, #131072
 3828              		.loc 1 1230 70
 3829 01be D2B2     		uxtb	r2, r2
 3830              		.loc 1 1230 68
 3831 01c0 1A70     		strb	r2, [r3]
 3832              	.LBB528:
 3833              	.LBB529:
 946:Drivers/CMSIS/Core/Include/cmsis_gcc.h **** }
 3834              		.loc 2 946 3
 3835              		.syntax unified
 3836              	@ 946 "Drivers/CMSIS/Core/Include/cmsis_gcc.h" 1
 3837 01c2 BFF34F8F 		dsb 0xF
 3838              	@ 0 "" 2
 3839              		.loc 2 947 1
 3840              		.thumb
 3841              		.syntax unified
 3842 01c6 00BF     		nop
 3843              	.LBE529:
 3844              	.LBE528:
1231:Drivers/STM32L4xx_HAL_Driver/Src/stm32l4xx_hal_nand.c ****           __DSB();
1232:Drivers/STM32L4xx_HAL_Driver/Src/stm32l4xx_hal_nand.c ****           *(__IO uint8_t *)((uint32_t)(deviceaddress | ADDR_AREA)) = ADDR_1ST_CYCLE(nandaddress);
 3845              		.loc 1 1232 29
 3846 01c8 FB69     		ldr	r3, [r7, #28]
 3847 01ca 43F40033 		orr	r3, r3, #131072
 3848              		.loc 1 1232 70
 3849 01ce BA6A     		ldr	r2, [r7, #40]
 3850 01d0 D2B2     		uxtb	r2, r2
 3851              		.loc 1 1232 68
 3852 01d2 1A70     		strb	r2, [r3]
 3853              	.LBB530:
 3854              	.LBB531:
 946:Drivers/CMSIS/Core/Include/cmsis_gcc.h **** }
 3855              		.loc 2 946 3
 3856              		.syntax unified
 3857              	@ 946 "Drivers/CMSIS/Core/Include/cmsis_gcc.h" 1
 3858 01d4 BFF34F8F 		dsb 0xF
 3859              	@ 0 "" 2
 3860              		.loc 2 947 1
 3861              		.thumb
 3862              		.syntax unified
 3863 01d8 00BF     		nop
 3864              	.LBE531:
ARM GAS  /tmp/ccUr9KqT.s 			page 109


 3865              	.LBE530:
1233:Drivers/STM32L4xx_HAL_Driver/Src/stm32l4xx_hal_nand.c ****           __DSB();
1234:Drivers/STM32L4xx_HAL_Driver/Src/stm32l4xx_hal_nand.c ****           *(__IO uint8_t *)((uint32_t)(deviceaddress | ADDR_AREA)) = ADDR_2ND_CYCLE(nandaddress);
 3866              		.loc 1 1234 70
 3867 01da BB6A     		ldr	r3, [r7, #40]
 3868 01dc 1A0A     		lsrs	r2, r3, #8
 3869              		.loc 1 1234 29
 3870 01de FB69     		ldr	r3, [r7, #28]
 3871 01e0 43F40033 		orr	r3, r3, #131072
 3872              		.loc 1 1234 70
 3873 01e4 D2B2     		uxtb	r2, r2
 3874              		.loc 1 1234 68
 3875 01e6 1A70     		strb	r2, [r3]
 3876              	.LBB532:
 3877              	.LBB533:
 946:Drivers/CMSIS/Core/Include/cmsis_gcc.h **** }
 3878              		.loc 2 946 3
 3879              		.syntax unified
 3880              	@ 946 "Drivers/CMSIS/Core/Include/cmsis_gcc.h" 1
 3881 01e8 BFF34F8F 		dsb 0xF
 3882              	@ 0 "" 2
 3883              		.loc 2 947 1
 3884              		.thumb
 3885              		.syntax unified
 3886 01ec 00BF     		nop
 3887              	.LBE533:
 3888              	.LBE532:
1235:Drivers/STM32L4xx_HAL_Driver/Src/stm32l4xx_hal_nand.c ****           __DSB();
1236:Drivers/STM32L4xx_HAL_Driver/Src/stm32l4xx_hal_nand.c ****           *(__IO uint8_t *)((uint32_t)(deviceaddress | ADDR_AREA)) = ADDR_3RD_CYCLE(nandaddress);
 3889              		.loc 1 1236 70
 3890 01ee BB6A     		ldr	r3, [r7, #40]
 3891 01f0 1A0C     		lsrs	r2, r3, #16
 3892              		.loc 1 1236 29
 3893 01f2 FB69     		ldr	r3, [r7, #28]
 3894 01f4 43F40033 		orr	r3, r3, #131072
 3895              		.loc 1 1236 70
 3896 01f8 D2B2     		uxtb	r2, r2
 3897              		.loc 1 1236 68
 3898 01fa 1A70     		strb	r2, [r3]
 3899              	.LBB534:
 3900              	.LBB535:
 946:Drivers/CMSIS/Core/Include/cmsis_gcc.h **** }
 3901              		.loc 2 946 3
 3902              		.syntax unified
 3903              	@ 946 "Drivers/CMSIS/Core/Include/cmsis_gcc.h" 1
 3904 01fc BFF34F8F 		dsb 0xF
 3905              	@ 0 "" 2
 3906              		.loc 2 947 1
 3907              		.thumb
 3908              		.syntax unified
 3909 0200 00BF     		nop
 3910              	.L112:
 3911              	.LBE535:
 3912              	.LBE534:
1237:Drivers/STM32L4xx_HAL_Driver/Src/stm32l4xx_hal_nand.c ****           __DSB();
1238:Drivers/STM32L4xx_HAL_Driver/Src/stm32l4xx_hal_nand.c ****         }
1239:Drivers/STM32L4xx_HAL_Driver/Src/stm32l4xx_hal_nand.c ****       }
ARM GAS  /tmp/ccUr9KqT.s 			page 110


1240:Drivers/STM32L4xx_HAL_Driver/Src/stm32l4xx_hal_nand.c **** 
1241:Drivers/STM32L4xx_HAL_Driver/Src/stm32l4xx_hal_nand.c ****       *(__IO uint8_t *)((uint32_t)(deviceaddress | CMD_AREA)) = NAND_CMD_AREA_TRUE1;
 3913              		.loc 1 1241 25
 3914 0202 FB69     		ldr	r3, [r7, #28]
 3915 0204 43F48033 		orr	r3, r3, #65536
 3916              		.loc 1 1241 63
 3917 0208 3022     		movs	r2, #48
 3918 020a 1A70     		strb	r2, [r3]
 3919              	.LBB536:
 3920              	.LBB537:
 946:Drivers/CMSIS/Core/Include/cmsis_gcc.h **** }
 3921              		.loc 2 946 3
 3922              		.syntax unified
 3923              	@ 946 "Drivers/CMSIS/Core/Include/cmsis_gcc.h" 1
 3924 020c BFF34F8F 		dsb 0xF
 3925              	@ 0 "" 2
 3926              		.loc 2 947 1
 3927              		.thumb
 3928              		.syntax unified
 3929 0210 00BF     		nop
 3930              	.LBE537:
 3931              	.LBE536:
1242:Drivers/STM32L4xx_HAL_Driver/Src/stm32l4xx_hal_nand.c ****       __DSB();
1243:Drivers/STM32L4xx_HAL_Driver/Src/stm32l4xx_hal_nand.c **** 
1244:Drivers/STM32L4xx_HAL_Driver/Src/stm32l4xx_hal_nand.c ****       if (hnand->Config.ExtraCommandEnable == ENABLE)
 3932              		.loc 1 1244 24
 3933 0212 FB68     		ldr	r3, [r7, #12]
 3934 0214 93F83C30 		ldrb	r3, [r3, #60]	@ zero_extendqisi2
 3935              		.loc 1 1244 10
 3936 0218 012B     		cmp	r3, #1
 3937 021a 23D1     		bne	.L114
1245:Drivers/STM32L4xx_HAL_Driver/Src/stm32l4xx_hal_nand.c ****       {
1246:Drivers/STM32L4xx_HAL_Driver/Src/stm32l4xx_hal_nand.c ****         /* Get tick */
1247:Drivers/STM32L4xx_HAL_Driver/Src/stm32l4xx_hal_nand.c ****         tickstart = HAL_GetTick();
 3938              		.loc 1 1247 21
 3939 021c FFF7FEFF 		bl	HAL_GetTick
 3940 0220 7861     		str	r0, [r7, #20]
1248:Drivers/STM32L4xx_HAL_Driver/Src/stm32l4xx_hal_nand.c **** 
1249:Drivers/STM32L4xx_HAL_Driver/Src/stm32l4xx_hal_nand.c ****         /* Read status until NAND is ready */
1250:Drivers/STM32L4xx_HAL_Driver/Src/stm32l4xx_hal_nand.c ****         while (HAL_NAND_Read_Status(hnand) != NAND_READY)
 3941              		.loc 1 1250 15
 3942 0222 11E0     		b	.L115
 3943              	.L116:
1251:Drivers/STM32L4xx_HAL_Driver/Src/stm32l4xx_hal_nand.c ****         {
1252:Drivers/STM32L4xx_HAL_Driver/Src/stm32l4xx_hal_nand.c ****           if ((HAL_GetTick() - tickstart) > NAND_WRITE_TIMEOUT)
 3944              		.loc 1 1252 16
 3945 0224 FFF7FEFF 		bl	HAL_GetTick
 3946 0228 0246     		mov	r2, r0
 3947              		.loc 1 1252 30 discriminator 1
 3948 022a 7B69     		ldr	r3, [r7, #20]
 3949 022c D31A     		subs	r3, r2, r3
 3950              		.loc 1 1252 14 discriminator 1
 3951 022e B3F1807F 		cmp	r3, #16777216
 3952 0232 09D9     		bls	.L115
1253:Drivers/STM32L4xx_HAL_Driver/Src/stm32l4xx_hal_nand.c ****           {
1254:Drivers/STM32L4xx_HAL_Driver/Src/stm32l4xx_hal_nand.c ****             /* Update the NAND controller state */
1255:Drivers/STM32L4xx_HAL_Driver/Src/stm32l4xx_hal_nand.c ****             hnand->State = HAL_NAND_STATE_ERROR;
ARM GAS  /tmp/ccUr9KqT.s 			page 111


 3953              		.loc 1 1255 26
 3954 0234 FB68     		ldr	r3, [r7, #12]
 3955 0236 0322     		movs	r2, #3
 3956 0238 83F82120 		strb	r2, [r3, #33]
1256:Drivers/STM32L4xx_HAL_Driver/Src/stm32l4xx_hal_nand.c **** 
1257:Drivers/STM32L4xx_HAL_Driver/Src/stm32l4xx_hal_nand.c ****             /* Process unlocked */
1258:Drivers/STM32L4xx_HAL_Driver/Src/stm32l4xx_hal_nand.c ****             __HAL_UNLOCK(hnand);
 3957              		.loc 1 1258 13
 3958 023c FB68     		ldr	r3, [r7, #12]
 3959 023e 0022     		movs	r2, #0
 3960 0240 83F82020 		strb	r2, [r3, #32]
1259:Drivers/STM32L4xx_HAL_Driver/Src/stm32l4xx_hal_nand.c **** 
1260:Drivers/STM32L4xx_HAL_Driver/Src/stm32l4xx_hal_nand.c ****             return HAL_TIMEOUT;
 3961              		.loc 1 1260 20
 3962 0244 0323     		movs	r3, #3
 3963 0246 3EE0     		b	.L106
 3964              	.L115:
1250:Drivers/STM32L4xx_HAL_Driver/Src/stm32l4xx_hal_nand.c ****         {
 3965              		.loc 1 1250 16
 3966 0248 F868     		ldr	r0, [r7, #12]
 3967 024a FFF7FEFF 		bl	HAL_NAND_Read_Status
 3968 024e 0346     		mov	r3, r0
1250:Drivers/STM32L4xx_HAL_Driver/Src/stm32l4xx_hal_nand.c ****         {
 3969              		.loc 1 1250 44 discriminator 1
 3970 0250 402B     		cmp	r3, #64
 3971 0252 E7D1     		bne	.L116
1261:Drivers/STM32L4xx_HAL_Driver/Src/stm32l4xx_hal_nand.c ****           }
1262:Drivers/STM32L4xx_HAL_Driver/Src/stm32l4xx_hal_nand.c ****         }
1263:Drivers/STM32L4xx_HAL_Driver/Src/stm32l4xx_hal_nand.c **** 
1264:Drivers/STM32L4xx_HAL_Driver/Src/stm32l4xx_hal_nand.c ****         /* Go back to read mode */
1265:Drivers/STM32L4xx_HAL_Driver/Src/stm32l4xx_hal_nand.c ****         *(__IO uint8_t *)((uint32_t)(deviceaddress | CMD_AREA)) = ((uint8_t)0x00);
 3972              		.loc 1 1265 27
 3973 0254 FB69     		ldr	r3, [r7, #28]
 3974 0256 43F48033 		orr	r3, r3, #65536
 3975              		.loc 1 1265 65
 3976 025a 0022     		movs	r2, #0
 3977 025c 1A70     		strb	r2, [r3]
 3978              	.LBB538:
 3979              	.LBB539:
 946:Drivers/CMSIS/Core/Include/cmsis_gcc.h **** }
 3980              		.loc 2 946 3
 3981              		.syntax unified
 3982              	@ 946 "Drivers/CMSIS/Core/Include/cmsis_gcc.h" 1
 3983 025e BFF34F8F 		dsb 0xF
 3984              	@ 0 "" 2
 3985              		.loc 2 947 1
 3986              		.thumb
 3987              		.syntax unified
 3988 0262 00BF     		nop
 3989              	.L114:
 3990              	.LBE539:
 3991              	.LBE538:
1266:Drivers/STM32L4xx_HAL_Driver/Src/stm32l4xx_hal_nand.c ****         __DSB();
1267:Drivers/STM32L4xx_HAL_Driver/Src/stm32l4xx_hal_nand.c ****       }
1268:Drivers/STM32L4xx_HAL_Driver/Src/stm32l4xx_hal_nand.c **** 
1269:Drivers/STM32L4xx_HAL_Driver/Src/stm32l4xx_hal_nand.c ****       /* Get Data into Buffer */
1270:Drivers/STM32L4xx_HAL_Driver/Src/stm32l4xx_hal_nand.c ****       for (index = 0U; index < hnand->Config.SpareAreaSize; index++)
ARM GAS  /tmp/ccUr9KqT.s 			page 112


 3992              		.loc 1 1270 18
 3993 0264 0023     		movs	r3, #0
 3994 0266 FB62     		str	r3, [r7, #44]
 3995              		.loc 1 1270 7
 3996 0268 0AE0     		b	.L117
 3997              	.L118:
1271:Drivers/STM32L4xx_HAL_Driver/Src/stm32l4xx_hal_nand.c ****       {
1272:Drivers/STM32L4xx_HAL_Driver/Src/stm32l4xx_hal_nand.c ****         *buff = *(__IO uint8_t *)deviceaddress;
 3998              		.loc 1 1272 18
 3999 026a FB69     		ldr	r3, [r7, #28]
 4000              		.loc 1 1272 17
 4001 026c 1B78     		ldrb	r3, [r3]
 4002 026e DAB2     		uxtb	r2, r3
 4003              		.loc 1 1272 15
 4004 0270 3B6A     		ldr	r3, [r7, #32]
 4005 0272 1A70     		strb	r2, [r3]
1273:Drivers/STM32L4xx_HAL_Driver/Src/stm32l4xx_hal_nand.c ****         buff++;
 4006              		.loc 1 1273 13
 4007 0274 3B6A     		ldr	r3, [r7, #32]
 4008 0276 0133     		adds	r3, r3, #1
 4009 0278 3B62     		str	r3, [r7, #32]
1270:Drivers/STM32L4xx_HAL_Driver/Src/stm32l4xx_hal_nand.c ****       {
 4010              		.loc 1 1270 66 discriminator 3
 4011 027a FB6A     		ldr	r3, [r7, #44]
 4012 027c 0133     		adds	r3, r3, #1
 4013 027e FB62     		str	r3, [r7, #44]
 4014              	.L117:
1270:Drivers/STM32L4xx_HAL_Driver/Src/stm32l4xx_hal_nand.c ****       {
 4015              		.loc 1 1270 45 discriminator 1
 4016 0280 FB68     		ldr	r3, [r7, #12]
 4017 0282 9B6A     		ldr	r3, [r3, #40]
1270:Drivers/STM32L4xx_HAL_Driver/Src/stm32l4xx_hal_nand.c ****       {
 4018              		.loc 1 1270 30 discriminator 1
 4019 0284 FA6A     		ldr	r2, [r7, #44]
 4020 0286 9A42     		cmp	r2, r3
 4021 0288 EFD3     		bcc	.L118
1274:Drivers/STM32L4xx_HAL_Driver/Src/stm32l4xx_hal_nand.c ****       }
1275:Drivers/STM32L4xx_HAL_Driver/Src/stm32l4xx_hal_nand.c **** 
1276:Drivers/STM32L4xx_HAL_Driver/Src/stm32l4xx_hal_nand.c ****       /* Decrement spare areas to read */
1277:Drivers/STM32L4xx_HAL_Driver/Src/stm32l4xx_hal_nand.c ****       nbspare--;
 4022              		.loc 1 1277 14
 4023 028a 7B6A     		ldr	r3, [r7, #36]
 4024 028c 013B     		subs	r3, r3, #1
 4025 028e 7B62     		str	r3, [r7, #36]
1278:Drivers/STM32L4xx_HAL_Driver/Src/stm32l4xx_hal_nand.c **** 
1279:Drivers/STM32L4xx_HAL_Driver/Src/stm32l4xx_hal_nand.c ****       /* Increment the NAND address */
1280:Drivers/STM32L4xx_HAL_Driver/Src/stm32l4xx_hal_nand.c ****       nandaddress = (uint32_t)(nandaddress + 1U);
 4026              		.loc 1 1280 19
 4027 0290 BB6A     		ldr	r3, [r7, #40]
 4028 0292 0133     		adds	r3, r3, #1
 4029 0294 BB62     		str	r3, [r7, #40]
 4030              	.L109:
1179:Drivers/STM32L4xx_HAL_Driver/Src/stm32l4xx_hal_nand.c ****     {
 4031              		.loc 1 1179 28
 4032 0296 7B6A     		ldr	r3, [r7, #36]
 4033 0298 002B     		cmp	r3, #0
 4034 029a 09D0     		beq	.L119
ARM GAS  /tmp/ccUr9KqT.s 			page 113


1179:Drivers/STM32L4xx_HAL_Driver/Src/stm32l4xx_hal_nand.c ****     {
 4035              		.loc 1 1179 61 discriminator 1
 4036 029c FB68     		ldr	r3, [r7, #12]
 4037 029e DB6A     		ldr	r3, [r3, #44]
1179:Drivers/STM32L4xx_HAL_Driver/Src/stm32l4xx_hal_nand.c ****     {
 4038              		.loc 1 1179 89 discriminator 1
 4039 02a0 FA68     		ldr	r2, [r7, #12]
 4040 02a2 126B     		ldr	r2, [r2, #48]
1179:Drivers/STM32L4xx_HAL_Driver/Src/stm32l4xx_hal_nand.c ****     {
 4041              		.loc 1 1179 73 discriminator 1
 4042 02a4 02FB03F3 		mul	r3, r2, r3
1179:Drivers/STM32L4xx_HAL_Driver/Src/stm32l4xx_hal_nand.c ****     {
 4043              		.loc 1 1179 28 discriminator 1
 4044 02a8 BA6A     		ldr	r2, [r7, #40]
 4045 02aa 9A42     		cmp	r2, r3
 4046 02ac FFF4ECAE 		bcc	.L120
 4047              	.L119:
1281:Drivers/STM32L4xx_HAL_Driver/Src/stm32l4xx_hal_nand.c ****     }
1282:Drivers/STM32L4xx_HAL_Driver/Src/stm32l4xx_hal_nand.c **** 
1283:Drivers/STM32L4xx_HAL_Driver/Src/stm32l4xx_hal_nand.c ****     /* Update the NAND controller state */
1284:Drivers/STM32L4xx_HAL_Driver/Src/stm32l4xx_hal_nand.c ****     hnand->State = HAL_NAND_STATE_READY;
 4048              		.loc 1 1284 18
 4049 02b0 FB68     		ldr	r3, [r7, #12]
 4050 02b2 0122     		movs	r2, #1
 4051 02b4 83F82120 		strb	r2, [r3, #33]
1285:Drivers/STM32L4xx_HAL_Driver/Src/stm32l4xx_hal_nand.c **** 
1286:Drivers/STM32L4xx_HAL_Driver/Src/stm32l4xx_hal_nand.c ****     /* Process unlocked */
1287:Drivers/STM32L4xx_HAL_Driver/Src/stm32l4xx_hal_nand.c ****     __HAL_UNLOCK(hnand);
 4052              		.loc 1 1287 5
 4053 02b8 FB68     		ldr	r3, [r7, #12]
 4054 02ba 0022     		movs	r2, #0
 4055 02bc 83F82020 		strb	r2, [r3, #32]
1288:Drivers/STM32L4xx_HAL_Driver/Src/stm32l4xx_hal_nand.c ****   }
1289:Drivers/STM32L4xx_HAL_Driver/Src/stm32l4xx_hal_nand.c ****   else
1290:Drivers/STM32L4xx_HAL_Driver/Src/stm32l4xx_hal_nand.c ****   {
1291:Drivers/STM32L4xx_HAL_Driver/Src/stm32l4xx_hal_nand.c ****     return HAL_ERROR;
1292:Drivers/STM32L4xx_HAL_Driver/Src/stm32l4xx_hal_nand.c ****   }
1293:Drivers/STM32L4xx_HAL_Driver/Src/stm32l4xx_hal_nand.c **** 
1294:Drivers/STM32L4xx_HAL_Driver/Src/stm32l4xx_hal_nand.c ****   return HAL_OK;
 4056              		.loc 1 1294 10
 4057 02c0 0023     		movs	r3, #0
 4058 02c2 00E0     		b	.L106
 4059              	.L107:
1291:Drivers/STM32L4xx_HAL_Driver/Src/stm32l4xx_hal_nand.c ****   }
 4060              		.loc 1 1291 12
 4061 02c4 0123     		movs	r3, #1
 4062              	.L106:
1295:Drivers/STM32L4xx_HAL_Driver/Src/stm32l4xx_hal_nand.c **** }
 4063              		.loc 1 1295 1
 4064 02c6 1846     		mov	r0, r3
 4065 02c8 3037     		adds	r7, r7, #48
 4066              		.cfi_def_cfa_offset 8
 4067 02ca BD46     		mov	sp, r7
 4068              		.cfi_def_cfa_register 13
 4069              		@ sp needed
 4070 02cc 80BD     		pop	{r7, pc}
 4071              		.cfi_endproc
ARM GAS  /tmp/ccUr9KqT.s 			page 114


 4072              	.LFE458:
 4074              		.section	.text.HAL_NAND_Read_SpareArea_16b,"ax",%progbits
 4075              		.align	1
 4076              		.global	HAL_NAND_Read_SpareArea_16b
 4077              		.syntax unified
 4078              		.thumb
 4079              		.thumb_func
 4081              	HAL_NAND_Read_SpareArea_16b:
 4082              	.LFB459:
1296:Drivers/STM32L4xx_HAL_Driver/Src/stm32l4xx_hal_nand.c **** 
1297:Drivers/STM32L4xx_HAL_Driver/Src/stm32l4xx_hal_nand.c **** /**
1298:Drivers/STM32L4xx_HAL_Driver/Src/stm32l4xx_hal_nand.c ****   * @brief  Read Spare area(s) from NAND memory (16-bits addressing)
1299:Drivers/STM32L4xx_HAL_Driver/Src/stm32l4xx_hal_nand.c ****   * @param  hnand pointer to a NAND_HandleTypeDef structure that contains
1300:Drivers/STM32L4xx_HAL_Driver/Src/stm32l4xx_hal_nand.c ****   *                the configuration information for NAND module.
1301:Drivers/STM32L4xx_HAL_Driver/Src/stm32l4xx_hal_nand.c ****   * @param  pAddress  pointer to NAND address structure
1302:Drivers/STM32L4xx_HAL_Driver/Src/stm32l4xx_hal_nand.c ****   * @param  pBuffer pointer to source buffer to write. pBuffer should be 16bits aligned.
1303:Drivers/STM32L4xx_HAL_Driver/Src/stm32l4xx_hal_nand.c ****   * @param  NumSpareAreaToRead Number of spare area to read
1304:Drivers/STM32L4xx_HAL_Driver/Src/stm32l4xx_hal_nand.c ****   * @retval HAL status
1305:Drivers/STM32L4xx_HAL_Driver/Src/stm32l4xx_hal_nand.c ****   */
1306:Drivers/STM32L4xx_HAL_Driver/Src/stm32l4xx_hal_nand.c **** HAL_StatusTypeDef HAL_NAND_Read_SpareArea_16b(NAND_HandleTypeDef *hnand, const NAND_AddressTypeDef 
1307:Drivers/STM32L4xx_HAL_Driver/Src/stm32l4xx_hal_nand.c ****                                               uint16_t *pBuffer, uint32_t NumSpareAreaToRead)
1308:Drivers/STM32L4xx_HAL_Driver/Src/stm32l4xx_hal_nand.c **** {
 4083              		.loc 1 1308 1
 4084              		.cfi_startproc
 4085              		@ args = 0, pretend = 0, frame = 48
 4086              		@ frame_needed = 1, uses_anonymous_args = 0
 4087 0000 80B5     		push	{r7, lr}
 4088              		.cfi_def_cfa_offset 8
 4089              		.cfi_offset 7, -8
 4090              		.cfi_offset 14, -4
 4091 0002 8CB0     		sub	sp, sp, #48
 4092              		.cfi_def_cfa_offset 56
 4093 0004 00AF     		add	r7, sp, #0
 4094              		.cfi_def_cfa_register 7
 4095 0006 F860     		str	r0, [r7, #12]
 4096 0008 B960     		str	r1, [r7, #8]
 4097 000a 7A60     		str	r2, [r7, #4]
 4098 000c 3B60     		str	r3, [r7]
1309:Drivers/STM32L4xx_HAL_Driver/Src/stm32l4xx_hal_nand.c ****   uint32_t index;
1310:Drivers/STM32L4xx_HAL_Driver/Src/stm32l4xx_hal_nand.c ****   uint32_t tickstart;
1311:Drivers/STM32L4xx_HAL_Driver/Src/stm32l4xx_hal_nand.c ****   uint32_t deviceaddress;
1312:Drivers/STM32L4xx_HAL_Driver/Src/stm32l4xx_hal_nand.c ****   uint32_t nandaddress;
1313:Drivers/STM32L4xx_HAL_Driver/Src/stm32l4xx_hal_nand.c ****   uint32_t columnaddress;
1314:Drivers/STM32L4xx_HAL_Driver/Src/stm32l4xx_hal_nand.c ****   uint32_t nbspare = NumSpareAreaToRead;
 4099              		.loc 1 1314 12
 4100 000e 3B68     		ldr	r3, [r7]
 4101 0010 7B62     		str	r3, [r7, #36]
1315:Drivers/STM32L4xx_HAL_Driver/Src/stm32l4xx_hal_nand.c ****   uint16_t *buff = pBuffer;
 4102              		.loc 1 1315 13
 4103 0012 7B68     		ldr	r3, [r7, #4]
 4104 0014 3B62     		str	r3, [r7, #32]
1316:Drivers/STM32L4xx_HAL_Driver/Src/stm32l4xx_hal_nand.c **** 
1317:Drivers/STM32L4xx_HAL_Driver/Src/stm32l4xx_hal_nand.c ****   /* Check the NAND controller state */
1318:Drivers/STM32L4xx_HAL_Driver/Src/stm32l4xx_hal_nand.c ****   if (hnand->State == HAL_NAND_STATE_BUSY)
 4105              		.loc 1 1318 12
 4106 0016 FB68     		ldr	r3, [r7, #12]
 4107 0018 93F82130 		ldrb	r3, [r3, #33]
ARM GAS  /tmp/ccUr9KqT.s 			page 115


 4108 001c DBB2     		uxtb	r3, r3
 4109              		.loc 1 1318 6
 4110 001e 022B     		cmp	r3, #2
 4111 0020 01D1     		bne	.L123
1319:Drivers/STM32L4xx_HAL_Driver/Src/stm32l4xx_hal_nand.c ****   {
1320:Drivers/STM32L4xx_HAL_Driver/Src/stm32l4xx_hal_nand.c ****     return HAL_BUSY;
 4112              		.loc 1 1320 12
 4113 0022 0223     		movs	r3, #2
 4114 0024 4FE1     		b	.L124
 4115              	.L123:
1321:Drivers/STM32L4xx_HAL_Driver/Src/stm32l4xx_hal_nand.c ****   }
1322:Drivers/STM32L4xx_HAL_Driver/Src/stm32l4xx_hal_nand.c ****   else if (hnand->State == HAL_NAND_STATE_READY)
 4116              		.loc 1 1322 17
 4117 0026 FB68     		ldr	r3, [r7, #12]
 4118 0028 93F82130 		ldrb	r3, [r3, #33]
 4119 002c DBB2     		uxtb	r3, r3
 4120              		.loc 1 1322 11
 4121 002e 012B     		cmp	r3, #1
 4122 0030 40F04881 		bne	.L125
1323:Drivers/STM32L4xx_HAL_Driver/Src/stm32l4xx_hal_nand.c ****   {
1324:Drivers/STM32L4xx_HAL_Driver/Src/stm32l4xx_hal_nand.c ****     /* Process Locked */
1325:Drivers/STM32L4xx_HAL_Driver/Src/stm32l4xx_hal_nand.c ****     __HAL_LOCK(hnand);
 4123              		.loc 1 1325 5
 4124 0034 FB68     		ldr	r3, [r7, #12]
 4125 0036 93F82030 		ldrb	r3, [r3, #32]	@ zero_extendqisi2
 4126 003a 012B     		cmp	r3, #1
 4127 003c 01D1     		bne	.L126
 4128              		.loc 1 1325 5 is_stmt 0 discriminator 1
 4129 003e 0223     		movs	r3, #2
 4130              		.loc 1 1325 5
 4131 0040 41E1     		b	.L124
 4132              	.L126:
 4133              		.loc 1 1325 5 discriminator 2
 4134 0042 FB68     		ldr	r3, [r7, #12]
 4135 0044 0122     		movs	r2, #1
 4136 0046 83F82020 		strb	r2, [r3, #32]
1326:Drivers/STM32L4xx_HAL_Driver/Src/stm32l4xx_hal_nand.c **** 
1327:Drivers/STM32L4xx_HAL_Driver/Src/stm32l4xx_hal_nand.c ****     /* Update the NAND controller state */
1328:Drivers/STM32L4xx_HAL_Driver/Src/stm32l4xx_hal_nand.c ****     hnand->State = HAL_NAND_STATE_BUSY;
 4137              		.loc 1 1328 18 is_stmt 1
 4138 004a FB68     		ldr	r3, [r7, #12]
 4139 004c 0222     		movs	r2, #2
 4140 004e 83F82120 		strb	r2, [r3, #33]
1329:Drivers/STM32L4xx_HAL_Driver/Src/stm32l4xx_hal_nand.c **** 
1330:Drivers/STM32L4xx_HAL_Driver/Src/stm32l4xx_hal_nand.c ****     /* Identify the device address */
1331:Drivers/STM32L4xx_HAL_Driver/Src/stm32l4xx_hal_nand.c ****     deviceaddress = NAND_DEVICE;
 4141              		.loc 1 1331 19
 4142 0052 4FF00043 		mov	r3, #-2147483648
 4143 0056 FB61     		str	r3, [r7, #28]
1332:Drivers/STM32L4xx_HAL_Driver/Src/stm32l4xx_hal_nand.c **** 
1333:Drivers/STM32L4xx_HAL_Driver/Src/stm32l4xx_hal_nand.c ****     /* NAND raw address calculation */
1334:Drivers/STM32L4xx_HAL_Driver/Src/stm32l4xx_hal_nand.c ****     nandaddress = ARRAY_ADDRESS(pAddress, hnand);
 4144              		.loc 1 1334 19
 4145 0058 BB68     		ldr	r3, [r7, #8]
 4146 005a 1B88     		ldrh	r3, [r3]
 4147 005c 1946     		mov	r1, r3
 4148 005e BB68     		ldr	r3, [r7, #8]
ARM GAS  /tmp/ccUr9KqT.s 			page 116


 4149 0060 9B88     		ldrh	r3, [r3, #4]
 4150 0062 1A46     		mov	r2, r3
 4151 0064 BB68     		ldr	r3, [r7, #8]
 4152 0066 5B88     		ldrh	r3, [r3, #2]
 4153 0068 1846     		mov	r0, r3
 4154 006a FB68     		ldr	r3, [r7, #12]
 4155 006c 9B6B     		ldr	r3, [r3, #56]
 4156 006e 00FB03F3 		mul	r3, r0, r3
 4157 0072 1344     		add	r3, r3, r2
 4158 0074 FA68     		ldr	r2, [r7, #12]
 4159 0076 D26A     		ldr	r2, [r2, #44]
 4160 0078 02FB03F3 		mul	r3, r2, r3
 4161              		.loc 1 1334 17
 4162 007c 0B44     		add	r3, r3, r1
 4163 007e BB62     		str	r3, [r7, #40]
1335:Drivers/STM32L4xx_HAL_Driver/Src/stm32l4xx_hal_nand.c **** 
1336:Drivers/STM32L4xx_HAL_Driver/Src/stm32l4xx_hal_nand.c ****     /* Column in page address */
1337:Drivers/STM32L4xx_HAL_Driver/Src/stm32l4xx_hal_nand.c ****     columnaddress = (uint32_t)(COLUMN_ADDRESS(hnand));
 4164              		.loc 1 1337 19
 4165 0080 FB68     		ldr	r3, [r7, #12]
 4166 0082 5B6A     		ldr	r3, [r3, #36]
 4167 0084 BB61     		str	r3, [r7, #24]
1338:Drivers/STM32L4xx_HAL_Driver/Src/stm32l4xx_hal_nand.c **** 
1339:Drivers/STM32L4xx_HAL_Driver/Src/stm32l4xx_hal_nand.c ****     /* Spare area(s) read loop */
1340:Drivers/STM32L4xx_HAL_Driver/Src/stm32l4xx_hal_nand.c ****     while ((nbspare != 0U) && (nandaddress < ((hnand->Config.BlockSize) * (hnand->Config.BlockNbr))
 4168              		.loc 1 1340 11
 4169 0086 06E1     		b	.L127
 4170              	.L138:
1341:Drivers/STM32L4xx_HAL_Driver/Src/stm32l4xx_hal_nand.c ****     {
1342:Drivers/STM32L4xx_HAL_Driver/Src/stm32l4xx_hal_nand.c ****       /* Cards with page size <= 512 bytes */
1343:Drivers/STM32L4xx_HAL_Driver/Src/stm32l4xx_hal_nand.c ****       if ((hnand->Config.PageSize) <= 512U)
 4171              		.loc 1 1343 25
 4172 0088 FB68     		ldr	r3, [r7, #12]
 4173 008a 5B6A     		ldr	r3, [r3, #36]
 4174              		.loc 1 1343 10
 4175 008c B3F5007F 		cmp	r3, #512
 4176 0090 50D8     		bhi	.L128
1344:Drivers/STM32L4xx_HAL_Driver/Src/stm32l4xx_hal_nand.c ****       {
1345:Drivers/STM32L4xx_HAL_Driver/Src/stm32l4xx_hal_nand.c ****         /* Send read spare area command sequence */
1346:Drivers/STM32L4xx_HAL_Driver/Src/stm32l4xx_hal_nand.c ****         *(__IO uint8_t *)((uint32_t)(deviceaddress | CMD_AREA)) = NAND_CMD_AREA_C;
 4177              		.loc 1 1346 27
 4178 0092 FB69     		ldr	r3, [r7, #28]
 4179 0094 43F48033 		orr	r3, r3, #65536
 4180              		.loc 1 1346 65
 4181 0098 5022     		movs	r2, #80
 4182 009a 1A70     		strb	r2, [r3]
 4183              	.LBB540:
 4184              	.LBB541:
 946:Drivers/CMSIS/Core/Include/cmsis_gcc.h **** }
 4185              		.loc 2 946 3
 4186              		.syntax unified
 4187              	@ 946 "Drivers/CMSIS/Core/Include/cmsis_gcc.h" 1
 4188 009c BFF34F8F 		dsb 0xF
 4189              	@ 0 "" 2
 4190              		.loc 2 947 1
 4191              		.thumb
 4192              		.syntax unified
ARM GAS  /tmp/ccUr9KqT.s 			page 117


 4193 00a0 00BF     		nop
 4194              	.LBE541:
 4195              	.LBE540:
1347:Drivers/STM32L4xx_HAL_Driver/Src/stm32l4xx_hal_nand.c ****         __DSB();
1348:Drivers/STM32L4xx_HAL_Driver/Src/stm32l4xx_hal_nand.c **** 
1349:Drivers/STM32L4xx_HAL_Driver/Src/stm32l4xx_hal_nand.c ****         if (((hnand->Config.BlockSize) * (hnand->Config.BlockNbr)) <= 65535U)
 4196              		.loc 1 1349 28
 4197 00a2 FB68     		ldr	r3, [r7, #12]
 4198 00a4 DB6A     		ldr	r3, [r3, #44]
 4199              		.loc 1 1349 56
 4200 00a6 FA68     		ldr	r2, [r7, #12]
 4201 00a8 126B     		ldr	r2, [r2, #48]
 4202              		.loc 1 1349 40
 4203 00aa 02FB03F3 		mul	r3, r2, r3
 4204              		.loc 1 1349 12
 4205 00ae B3F5803F 		cmp	r3, #65536
 4206 00b2 1AD2     		bcs	.L129
1350:Drivers/STM32L4xx_HAL_Driver/Src/stm32l4xx_hal_nand.c ****         {
1351:Drivers/STM32L4xx_HAL_Driver/Src/stm32l4xx_hal_nand.c ****           *(__IO uint8_t *)((uint32_t)(deviceaddress | ADDR_AREA)) = 0x00U;
 4207              		.loc 1 1351 29
 4208 00b4 FB69     		ldr	r3, [r7, #28]
 4209 00b6 43F40033 		orr	r3, r3, #131072
 4210              		.loc 1 1351 68
 4211 00ba 0022     		movs	r2, #0
 4212 00bc 1A70     		strb	r2, [r3]
 4213              	.LBB542:
 4214              	.LBB543:
 946:Drivers/CMSIS/Core/Include/cmsis_gcc.h **** }
 4215              		.loc 2 946 3
 4216              		.syntax unified
 4217              	@ 946 "Drivers/CMSIS/Core/Include/cmsis_gcc.h" 1
 4218 00be BFF34F8F 		dsb 0xF
 4219              	@ 0 "" 2
 4220              		.loc 2 947 1
 4221              		.thumb
 4222              		.syntax unified
 4223 00c2 00BF     		nop
 4224              	.LBE543:
 4225              	.LBE542:
1352:Drivers/STM32L4xx_HAL_Driver/Src/stm32l4xx_hal_nand.c ****           __DSB();
1353:Drivers/STM32L4xx_HAL_Driver/Src/stm32l4xx_hal_nand.c ****           *(__IO uint8_t *)((uint32_t)(deviceaddress | ADDR_AREA)) = ADDR_1ST_CYCLE(nandaddress);
 4226              		.loc 1 1353 29
 4227 00c4 FB69     		ldr	r3, [r7, #28]
 4228 00c6 43F40033 		orr	r3, r3, #131072
 4229              		.loc 1 1353 70
 4230 00ca BA6A     		ldr	r2, [r7, #40]
 4231 00cc D2B2     		uxtb	r2, r2
 4232              		.loc 1 1353 68
 4233 00ce 1A70     		strb	r2, [r3]
 4234              	.LBB544:
 4235              	.LBB545:
 946:Drivers/CMSIS/Core/Include/cmsis_gcc.h **** }
 4236              		.loc 2 946 3
 4237              		.syntax unified
 4238              	@ 946 "Drivers/CMSIS/Core/Include/cmsis_gcc.h" 1
 4239 00d0 BFF34F8F 		dsb 0xF
 4240              	@ 0 "" 2
ARM GAS  /tmp/ccUr9KqT.s 			page 118


 4241              		.loc 2 947 1
 4242              		.thumb
 4243              		.syntax unified
 4244 00d4 00BF     		nop
 4245              	.LBE545:
 4246              	.LBE544:
1354:Drivers/STM32L4xx_HAL_Driver/Src/stm32l4xx_hal_nand.c ****           __DSB();
1355:Drivers/STM32L4xx_HAL_Driver/Src/stm32l4xx_hal_nand.c ****           *(__IO uint8_t *)((uint32_t)(deviceaddress | ADDR_AREA)) = ADDR_2ND_CYCLE(nandaddress);
 4247              		.loc 1 1355 70
 4248 00d6 BB6A     		ldr	r3, [r7, #40]
 4249 00d8 1A0A     		lsrs	r2, r3, #8
 4250              		.loc 1 1355 29
 4251 00da FB69     		ldr	r3, [r7, #28]
 4252 00dc 43F40033 		orr	r3, r3, #131072
 4253              		.loc 1 1355 70
 4254 00e0 D2B2     		uxtb	r2, r2
 4255              		.loc 1 1355 68
 4256 00e2 1A70     		strb	r2, [r3]
 4257              	.LBB546:
 4258              	.LBB547:
 946:Drivers/CMSIS/Core/Include/cmsis_gcc.h **** }
 4259              		.loc 2 946 3
 4260              		.syntax unified
 4261              	@ 946 "Drivers/CMSIS/Core/Include/cmsis_gcc.h" 1
 4262 00e4 BFF34F8F 		dsb 0xF
 4263              	@ 0 "" 2
 4264              		.loc 2 947 1
 4265              		.thumb
 4266              		.syntax unified
 4267 00e8 8BE0     		b	.L130
 4268              	.L129:
 4269              	.LBE547:
 4270              	.LBE546:
1356:Drivers/STM32L4xx_HAL_Driver/Src/stm32l4xx_hal_nand.c ****           __DSB();
1357:Drivers/STM32L4xx_HAL_Driver/Src/stm32l4xx_hal_nand.c ****         }
1358:Drivers/STM32L4xx_HAL_Driver/Src/stm32l4xx_hal_nand.c ****         else /* ((hnand->Config.BlockSize)*(hnand->Config.BlockNbr)) > 65535 */
1359:Drivers/STM32L4xx_HAL_Driver/Src/stm32l4xx_hal_nand.c ****         {
1360:Drivers/STM32L4xx_HAL_Driver/Src/stm32l4xx_hal_nand.c ****           *(__IO uint8_t *)((uint32_t)(deviceaddress | ADDR_AREA)) = 0x00U;
 4271              		.loc 1 1360 29
 4272 00ea FB69     		ldr	r3, [r7, #28]
 4273 00ec 43F40033 		orr	r3, r3, #131072
 4274              		.loc 1 1360 68
 4275 00f0 0022     		movs	r2, #0
 4276 00f2 1A70     		strb	r2, [r3]
 4277              	.LBB548:
 4278              	.LBB549:
 946:Drivers/CMSIS/Core/Include/cmsis_gcc.h **** }
 4279              		.loc 2 946 3
 4280              		.syntax unified
 4281              	@ 946 "Drivers/CMSIS/Core/Include/cmsis_gcc.h" 1
 4282 00f4 BFF34F8F 		dsb 0xF
 4283              	@ 0 "" 2
 4284              		.loc 2 947 1
 4285              		.thumb
 4286              		.syntax unified
 4287 00f8 00BF     		nop
 4288              	.LBE549:
ARM GAS  /tmp/ccUr9KqT.s 			page 119


 4289              	.LBE548:
1361:Drivers/STM32L4xx_HAL_Driver/Src/stm32l4xx_hal_nand.c ****           __DSB();
1362:Drivers/STM32L4xx_HAL_Driver/Src/stm32l4xx_hal_nand.c ****           *(__IO uint8_t *)((uint32_t)(deviceaddress | ADDR_AREA)) = ADDR_1ST_CYCLE(nandaddress);
 4290              		.loc 1 1362 29
 4291 00fa FB69     		ldr	r3, [r7, #28]
 4292 00fc 43F40033 		orr	r3, r3, #131072
 4293              		.loc 1 1362 70
 4294 0100 BA6A     		ldr	r2, [r7, #40]
 4295 0102 D2B2     		uxtb	r2, r2
 4296              		.loc 1 1362 68
 4297 0104 1A70     		strb	r2, [r3]
 4298              	.LBB550:
 4299              	.LBB551:
 946:Drivers/CMSIS/Core/Include/cmsis_gcc.h **** }
 4300              		.loc 2 946 3
 4301              		.syntax unified
 4302              	@ 946 "Drivers/CMSIS/Core/Include/cmsis_gcc.h" 1
 4303 0106 BFF34F8F 		dsb 0xF
 4304              	@ 0 "" 2
 4305              		.loc 2 947 1
 4306              		.thumb
 4307              		.syntax unified
 4308 010a 00BF     		nop
 4309              	.LBE551:
 4310              	.LBE550:
1363:Drivers/STM32L4xx_HAL_Driver/Src/stm32l4xx_hal_nand.c ****           __DSB();
1364:Drivers/STM32L4xx_HAL_Driver/Src/stm32l4xx_hal_nand.c ****           *(__IO uint8_t *)((uint32_t)(deviceaddress | ADDR_AREA)) = ADDR_2ND_CYCLE(nandaddress);
 4311              		.loc 1 1364 70
 4312 010c BB6A     		ldr	r3, [r7, #40]
 4313 010e 1A0A     		lsrs	r2, r3, #8
 4314              		.loc 1 1364 29
 4315 0110 FB69     		ldr	r3, [r7, #28]
 4316 0112 43F40033 		orr	r3, r3, #131072
 4317              		.loc 1 1364 70
 4318 0116 D2B2     		uxtb	r2, r2
 4319              		.loc 1 1364 68
 4320 0118 1A70     		strb	r2, [r3]
 4321              	.LBB552:
 4322              	.LBB553:
 946:Drivers/CMSIS/Core/Include/cmsis_gcc.h **** }
 4323              		.loc 2 946 3
 4324              		.syntax unified
 4325              	@ 946 "Drivers/CMSIS/Core/Include/cmsis_gcc.h" 1
 4326 011a BFF34F8F 		dsb 0xF
 4327              	@ 0 "" 2
 4328              		.loc 2 947 1
 4329              		.thumb
 4330              		.syntax unified
 4331 011e 00BF     		nop
 4332              	.LBE553:
 4333              	.LBE552:
1365:Drivers/STM32L4xx_HAL_Driver/Src/stm32l4xx_hal_nand.c ****           __DSB();
1366:Drivers/STM32L4xx_HAL_Driver/Src/stm32l4xx_hal_nand.c ****           *(__IO uint8_t *)((uint32_t)(deviceaddress | ADDR_AREA)) = ADDR_3RD_CYCLE(nandaddress);
 4334              		.loc 1 1366 70
 4335 0120 BB6A     		ldr	r3, [r7, #40]
 4336 0122 1A0C     		lsrs	r2, r3, #16
 4337              		.loc 1 1366 29
ARM GAS  /tmp/ccUr9KqT.s 			page 120


 4338 0124 FB69     		ldr	r3, [r7, #28]
 4339 0126 43F40033 		orr	r3, r3, #131072
 4340              		.loc 1 1366 70
 4341 012a D2B2     		uxtb	r2, r2
 4342              		.loc 1 1366 68
 4343 012c 1A70     		strb	r2, [r3]
 4344              	.LBB554:
 4345              	.LBB555:
 946:Drivers/CMSIS/Core/Include/cmsis_gcc.h **** }
 4346              		.loc 2 946 3
 4347              		.syntax unified
 4348              	@ 946 "Drivers/CMSIS/Core/Include/cmsis_gcc.h" 1
 4349 012e BFF34F8F 		dsb 0xF
 4350              	@ 0 "" 2
 4351              		.loc 2 947 1
 4352              		.thumb
 4353              		.syntax unified
 4354 0132 66E0     		b	.L130
 4355              	.L128:
 4356              	.LBE555:
 4357              	.LBE554:
1367:Drivers/STM32L4xx_HAL_Driver/Src/stm32l4xx_hal_nand.c ****           __DSB();
1368:Drivers/STM32L4xx_HAL_Driver/Src/stm32l4xx_hal_nand.c ****         }
1369:Drivers/STM32L4xx_HAL_Driver/Src/stm32l4xx_hal_nand.c ****       }
1370:Drivers/STM32L4xx_HAL_Driver/Src/stm32l4xx_hal_nand.c ****       else /* (hnand->Config.PageSize) > 512 */
1371:Drivers/STM32L4xx_HAL_Driver/Src/stm32l4xx_hal_nand.c ****       {
1372:Drivers/STM32L4xx_HAL_Driver/Src/stm32l4xx_hal_nand.c ****         /* Send read spare area command sequence */
1373:Drivers/STM32L4xx_HAL_Driver/Src/stm32l4xx_hal_nand.c ****         *(__IO uint8_t *)((uint32_t)(deviceaddress | CMD_AREA)) = NAND_CMD_AREA_A;
 4358              		.loc 1 1373 27
 4359 0134 FB69     		ldr	r3, [r7, #28]
 4360 0136 43F48033 		orr	r3, r3, #65536
 4361              		.loc 1 1373 65
 4362 013a 0022     		movs	r2, #0
 4363 013c 1A70     		strb	r2, [r3]
 4364              	.LBB556:
 4365              	.LBB557:
 946:Drivers/CMSIS/Core/Include/cmsis_gcc.h **** }
 4366              		.loc 2 946 3
 4367              		.syntax unified
 4368              	@ 946 "Drivers/CMSIS/Core/Include/cmsis_gcc.h" 1
 4369 013e BFF34F8F 		dsb 0xF
 4370              	@ 0 "" 2
 4371              		.loc 2 947 1
 4372              		.thumb
 4373              		.syntax unified
 4374 0142 00BF     		nop
 4375              	.LBE557:
 4376              	.LBE556:
1374:Drivers/STM32L4xx_HAL_Driver/Src/stm32l4xx_hal_nand.c ****         __DSB();
1375:Drivers/STM32L4xx_HAL_Driver/Src/stm32l4xx_hal_nand.c **** 
1376:Drivers/STM32L4xx_HAL_Driver/Src/stm32l4xx_hal_nand.c ****         if (((hnand->Config.BlockSize) * (hnand->Config.BlockNbr)) <= 65535U)
 4377              		.loc 1 1376 28
 4378 0144 FB68     		ldr	r3, [r7, #12]
 4379 0146 DB6A     		ldr	r3, [r3, #44]
 4380              		.loc 1 1376 56
 4381 0148 FA68     		ldr	r2, [r7, #12]
 4382 014a 126B     		ldr	r2, [r2, #48]
ARM GAS  /tmp/ccUr9KqT.s 			page 121


 4383              		.loc 1 1376 40
 4384 014c 02FB03F3 		mul	r3, r2, r3
 4385              		.loc 1 1376 12
 4386 0150 B3F5803F 		cmp	r3, #65536
 4387 0154 25D2     		bcs	.L131
1377:Drivers/STM32L4xx_HAL_Driver/Src/stm32l4xx_hal_nand.c ****         {
1378:Drivers/STM32L4xx_HAL_Driver/Src/stm32l4xx_hal_nand.c ****           *(__IO uint8_t *)((uint32_t)(deviceaddress | ADDR_AREA)) = COLUMN_1ST_CYCLE(columnaddress
 4388              		.loc 1 1378 29
 4389 0156 FB69     		ldr	r3, [r7, #28]
 4390 0158 43F40033 		orr	r3, r3, #131072
 4391              		.loc 1 1378 70
 4392 015c BA69     		ldr	r2, [r7, #24]
 4393 015e D2B2     		uxtb	r2, r2
 4394              		.loc 1 1378 68
 4395 0160 1A70     		strb	r2, [r3]
 4396              	.LBB558:
 4397              	.LBB559:
 946:Drivers/CMSIS/Core/Include/cmsis_gcc.h **** }
 4398              		.loc 2 946 3
 4399              		.syntax unified
 4400              	@ 946 "Drivers/CMSIS/Core/Include/cmsis_gcc.h" 1
 4401 0162 BFF34F8F 		dsb 0xF
 4402              	@ 0 "" 2
 4403              		.loc 2 947 1
 4404              		.thumb
 4405              		.syntax unified
 4406 0166 00BF     		nop
 4407              	.LBE559:
 4408              	.LBE558:
1379:Drivers/STM32L4xx_HAL_Driver/Src/stm32l4xx_hal_nand.c ****           __DSB();
1380:Drivers/STM32L4xx_HAL_Driver/Src/stm32l4xx_hal_nand.c ****           *(__IO uint8_t *)((uint32_t)(deviceaddress | ADDR_AREA)) = COLUMN_2ND_CYCLE(columnaddress
 4409              		.loc 1 1380 70
 4410 0168 BB69     		ldr	r3, [r7, #24]
 4411 016a 1A0A     		lsrs	r2, r3, #8
 4412              		.loc 1 1380 29
 4413 016c FB69     		ldr	r3, [r7, #28]
 4414 016e 43F40033 		orr	r3, r3, #131072
 4415              		.loc 1 1380 70
 4416 0172 D2B2     		uxtb	r2, r2
 4417              		.loc 1 1380 68
 4418 0174 1A70     		strb	r2, [r3]
 4419              	.LBB560:
 4420              	.LBB561:
 946:Drivers/CMSIS/Core/Include/cmsis_gcc.h **** }
 4421              		.loc 2 946 3
 4422              		.syntax unified
 4423              	@ 946 "Drivers/CMSIS/Core/Include/cmsis_gcc.h" 1
 4424 0176 BFF34F8F 		dsb 0xF
 4425              	@ 0 "" 2
 4426              		.loc 2 947 1
 4427              		.thumb
 4428              		.syntax unified
 4429 017a 00BF     		nop
 4430              	.LBE561:
 4431              	.LBE560:
1381:Drivers/STM32L4xx_HAL_Driver/Src/stm32l4xx_hal_nand.c ****           __DSB();
1382:Drivers/STM32L4xx_HAL_Driver/Src/stm32l4xx_hal_nand.c ****           *(__IO uint8_t *)((uint32_t)(deviceaddress | ADDR_AREA)) = ADDR_1ST_CYCLE(nandaddress);
ARM GAS  /tmp/ccUr9KqT.s 			page 122


 4432              		.loc 1 1382 29
 4433 017c FB69     		ldr	r3, [r7, #28]
 4434 017e 43F40033 		orr	r3, r3, #131072
 4435              		.loc 1 1382 70
 4436 0182 BA6A     		ldr	r2, [r7, #40]
 4437 0184 D2B2     		uxtb	r2, r2
 4438              		.loc 1 1382 68
 4439 0186 1A70     		strb	r2, [r3]
 4440              	.LBB562:
 4441              	.LBB563:
 946:Drivers/CMSIS/Core/Include/cmsis_gcc.h **** }
 4442              		.loc 2 946 3
 4443              		.syntax unified
 4444              	@ 946 "Drivers/CMSIS/Core/Include/cmsis_gcc.h" 1
 4445 0188 BFF34F8F 		dsb 0xF
 4446              	@ 0 "" 2
 4447              		.loc 2 947 1
 4448              		.thumb
 4449              		.syntax unified
 4450 018c 00BF     		nop
 4451              	.LBE563:
 4452              	.LBE562:
1383:Drivers/STM32L4xx_HAL_Driver/Src/stm32l4xx_hal_nand.c ****           __DSB();
1384:Drivers/STM32L4xx_HAL_Driver/Src/stm32l4xx_hal_nand.c ****           *(__IO uint8_t *)((uint32_t)(deviceaddress | ADDR_AREA)) = ADDR_2ND_CYCLE(nandaddress);
 4453              		.loc 1 1384 70
 4454 018e BB6A     		ldr	r3, [r7, #40]
 4455 0190 1A0A     		lsrs	r2, r3, #8
 4456              		.loc 1 1384 29
 4457 0192 FB69     		ldr	r3, [r7, #28]
 4458 0194 43F40033 		orr	r3, r3, #131072
 4459              		.loc 1 1384 70
 4460 0198 D2B2     		uxtb	r2, r2
 4461              		.loc 1 1384 68
 4462 019a 1A70     		strb	r2, [r3]
 4463              	.LBB564:
 4464              	.LBB565:
 946:Drivers/CMSIS/Core/Include/cmsis_gcc.h **** }
 4465              		.loc 2 946 3
 4466              		.syntax unified
 4467              	@ 946 "Drivers/CMSIS/Core/Include/cmsis_gcc.h" 1
 4468 019c BFF34F8F 		dsb 0xF
 4469              	@ 0 "" 2
 4470              		.loc 2 947 1
 4471              		.thumb
 4472              		.syntax unified
 4473 01a0 2FE0     		b	.L130
 4474              	.L131:
 4475              	.LBE565:
 4476              	.LBE564:
1385:Drivers/STM32L4xx_HAL_Driver/Src/stm32l4xx_hal_nand.c ****           __DSB();
1386:Drivers/STM32L4xx_HAL_Driver/Src/stm32l4xx_hal_nand.c ****         }
1387:Drivers/STM32L4xx_HAL_Driver/Src/stm32l4xx_hal_nand.c ****         else /* ((hnand->Config.BlockSize)*(hnand->Config.BlockNbr)) > 65535 */
1388:Drivers/STM32L4xx_HAL_Driver/Src/stm32l4xx_hal_nand.c ****         {
1389:Drivers/STM32L4xx_HAL_Driver/Src/stm32l4xx_hal_nand.c ****           *(__IO uint8_t *)((uint32_t)(deviceaddress | ADDR_AREA)) = COLUMN_1ST_CYCLE(columnaddress
 4477              		.loc 1 1389 29
 4478 01a2 FB69     		ldr	r3, [r7, #28]
 4479 01a4 43F40033 		orr	r3, r3, #131072
ARM GAS  /tmp/ccUr9KqT.s 			page 123


 4480              		.loc 1 1389 70
 4481 01a8 BA69     		ldr	r2, [r7, #24]
 4482 01aa D2B2     		uxtb	r2, r2
 4483              		.loc 1 1389 68
 4484 01ac 1A70     		strb	r2, [r3]
 4485              	.LBB566:
 4486              	.LBB567:
 946:Drivers/CMSIS/Core/Include/cmsis_gcc.h **** }
 4487              		.loc 2 946 3
 4488              		.syntax unified
 4489              	@ 946 "Drivers/CMSIS/Core/Include/cmsis_gcc.h" 1
 4490 01ae BFF34F8F 		dsb 0xF
 4491              	@ 0 "" 2
 4492              		.loc 2 947 1
 4493              		.thumb
 4494              		.syntax unified
 4495 01b2 00BF     		nop
 4496              	.LBE567:
 4497              	.LBE566:
1390:Drivers/STM32L4xx_HAL_Driver/Src/stm32l4xx_hal_nand.c ****           __DSB();
1391:Drivers/STM32L4xx_HAL_Driver/Src/stm32l4xx_hal_nand.c ****           *(__IO uint8_t *)((uint32_t)(deviceaddress | ADDR_AREA)) = COLUMN_2ND_CYCLE(columnaddress
 4498              		.loc 1 1391 70
 4499 01b4 BB69     		ldr	r3, [r7, #24]
 4500 01b6 1A0A     		lsrs	r2, r3, #8
 4501              		.loc 1 1391 29
 4502 01b8 FB69     		ldr	r3, [r7, #28]
 4503 01ba 43F40033 		orr	r3, r3, #131072
 4504              		.loc 1 1391 70
 4505 01be D2B2     		uxtb	r2, r2
 4506              		.loc 1 1391 68
 4507 01c0 1A70     		strb	r2, [r3]
 4508              	.LBB568:
 4509              	.LBB569:
 946:Drivers/CMSIS/Core/Include/cmsis_gcc.h **** }
 4510              		.loc 2 946 3
 4511              		.syntax unified
 4512              	@ 946 "Drivers/CMSIS/Core/Include/cmsis_gcc.h" 1
 4513 01c2 BFF34F8F 		dsb 0xF
 4514              	@ 0 "" 2
 4515              		.loc 2 947 1
 4516              		.thumb
 4517              		.syntax unified
 4518 01c6 00BF     		nop
 4519              	.LBE569:
 4520              	.LBE568:
1392:Drivers/STM32L4xx_HAL_Driver/Src/stm32l4xx_hal_nand.c ****           __DSB();
1393:Drivers/STM32L4xx_HAL_Driver/Src/stm32l4xx_hal_nand.c ****           *(__IO uint8_t *)((uint32_t)(deviceaddress | ADDR_AREA)) = ADDR_1ST_CYCLE(nandaddress);
 4521              		.loc 1 1393 29
 4522 01c8 FB69     		ldr	r3, [r7, #28]
 4523 01ca 43F40033 		orr	r3, r3, #131072
 4524              		.loc 1 1393 70
 4525 01ce BA6A     		ldr	r2, [r7, #40]
 4526 01d0 D2B2     		uxtb	r2, r2
 4527              		.loc 1 1393 68
 4528 01d2 1A70     		strb	r2, [r3]
 4529              	.LBB570:
 4530              	.LBB571:
ARM GAS  /tmp/ccUr9KqT.s 			page 124


 946:Drivers/CMSIS/Core/Include/cmsis_gcc.h **** }
 4531              		.loc 2 946 3
 4532              		.syntax unified
 4533              	@ 946 "Drivers/CMSIS/Core/Include/cmsis_gcc.h" 1
 4534 01d4 BFF34F8F 		dsb 0xF
 4535              	@ 0 "" 2
 4536              		.loc 2 947 1
 4537              		.thumb
 4538              		.syntax unified
 4539 01d8 00BF     		nop
 4540              	.LBE571:
 4541              	.LBE570:
1394:Drivers/STM32L4xx_HAL_Driver/Src/stm32l4xx_hal_nand.c ****           __DSB();
1395:Drivers/STM32L4xx_HAL_Driver/Src/stm32l4xx_hal_nand.c ****           *(__IO uint8_t *)((uint32_t)(deviceaddress | ADDR_AREA)) = ADDR_2ND_CYCLE(nandaddress);
 4542              		.loc 1 1395 70
 4543 01da BB6A     		ldr	r3, [r7, #40]
 4544 01dc 1A0A     		lsrs	r2, r3, #8
 4545              		.loc 1 1395 29
 4546 01de FB69     		ldr	r3, [r7, #28]
 4547 01e0 43F40033 		orr	r3, r3, #131072
 4548              		.loc 1 1395 70
 4549 01e4 D2B2     		uxtb	r2, r2
 4550              		.loc 1 1395 68
 4551 01e6 1A70     		strb	r2, [r3]
 4552              	.LBB572:
 4553              	.LBB573:
 946:Drivers/CMSIS/Core/Include/cmsis_gcc.h **** }
 4554              		.loc 2 946 3
 4555              		.syntax unified
 4556              	@ 946 "Drivers/CMSIS/Core/Include/cmsis_gcc.h" 1
 4557 01e8 BFF34F8F 		dsb 0xF
 4558              	@ 0 "" 2
 4559              		.loc 2 947 1
 4560              		.thumb
 4561              		.syntax unified
 4562 01ec 00BF     		nop
 4563              	.LBE573:
 4564              	.LBE572:
1396:Drivers/STM32L4xx_HAL_Driver/Src/stm32l4xx_hal_nand.c ****           __DSB();
1397:Drivers/STM32L4xx_HAL_Driver/Src/stm32l4xx_hal_nand.c ****           *(__IO uint8_t *)((uint32_t)(deviceaddress | ADDR_AREA)) = ADDR_3RD_CYCLE(nandaddress);
 4565              		.loc 1 1397 70
 4566 01ee BB6A     		ldr	r3, [r7, #40]
 4567 01f0 1A0C     		lsrs	r2, r3, #16
 4568              		.loc 1 1397 29
 4569 01f2 FB69     		ldr	r3, [r7, #28]
 4570 01f4 43F40033 		orr	r3, r3, #131072
 4571              		.loc 1 1397 70
 4572 01f8 D2B2     		uxtb	r2, r2
 4573              		.loc 1 1397 68
 4574 01fa 1A70     		strb	r2, [r3]
 4575              	.LBB574:
 4576              	.LBB575:
 946:Drivers/CMSIS/Core/Include/cmsis_gcc.h **** }
 4577              		.loc 2 946 3
 4578              		.syntax unified
 4579              	@ 946 "Drivers/CMSIS/Core/Include/cmsis_gcc.h" 1
 4580 01fc BFF34F8F 		dsb 0xF
ARM GAS  /tmp/ccUr9KqT.s 			page 125


 4581              	@ 0 "" 2
 4582              		.loc 2 947 1
 4583              		.thumb
 4584              		.syntax unified
 4585 0200 00BF     		nop
 4586              	.L130:
 4587              	.LBE575:
 4588              	.LBE574:
1398:Drivers/STM32L4xx_HAL_Driver/Src/stm32l4xx_hal_nand.c ****           __DSB();
1399:Drivers/STM32L4xx_HAL_Driver/Src/stm32l4xx_hal_nand.c ****         }
1400:Drivers/STM32L4xx_HAL_Driver/Src/stm32l4xx_hal_nand.c ****       }
1401:Drivers/STM32L4xx_HAL_Driver/Src/stm32l4xx_hal_nand.c **** 
1402:Drivers/STM32L4xx_HAL_Driver/Src/stm32l4xx_hal_nand.c ****       *(__IO uint8_t *)((uint32_t)(deviceaddress | CMD_AREA)) = NAND_CMD_AREA_TRUE1;
 4589              		.loc 1 1402 25
 4590 0202 FB69     		ldr	r3, [r7, #28]
 4591 0204 43F48033 		orr	r3, r3, #65536
 4592              		.loc 1 1402 63
 4593 0208 3022     		movs	r2, #48
 4594 020a 1A70     		strb	r2, [r3]
 4595              	.LBB576:
 4596              	.LBB577:
 946:Drivers/CMSIS/Core/Include/cmsis_gcc.h **** }
 4597              		.loc 2 946 3
 4598              		.syntax unified
 4599              	@ 946 "Drivers/CMSIS/Core/Include/cmsis_gcc.h" 1
 4600 020c BFF34F8F 		dsb 0xF
 4601              	@ 0 "" 2
 4602              		.loc 2 947 1
 4603              		.thumb
 4604              		.syntax unified
 4605 0210 00BF     		nop
 4606              	.LBE577:
 4607              	.LBE576:
1403:Drivers/STM32L4xx_HAL_Driver/Src/stm32l4xx_hal_nand.c ****       __DSB();
1404:Drivers/STM32L4xx_HAL_Driver/Src/stm32l4xx_hal_nand.c **** 
1405:Drivers/STM32L4xx_HAL_Driver/Src/stm32l4xx_hal_nand.c ****       if (hnand->Config.ExtraCommandEnable == ENABLE)
 4608              		.loc 1 1405 24
 4609 0212 FB68     		ldr	r3, [r7, #12]
 4610 0214 93F83C30 		ldrb	r3, [r3, #60]	@ zero_extendqisi2
 4611              		.loc 1 1405 10
 4612 0218 012B     		cmp	r3, #1
 4613 021a 23D1     		bne	.L132
1406:Drivers/STM32L4xx_HAL_Driver/Src/stm32l4xx_hal_nand.c ****       {
1407:Drivers/STM32L4xx_HAL_Driver/Src/stm32l4xx_hal_nand.c ****         /* Get tick */
1408:Drivers/STM32L4xx_HAL_Driver/Src/stm32l4xx_hal_nand.c ****         tickstart = HAL_GetTick();
 4614              		.loc 1 1408 21
 4615 021c FFF7FEFF 		bl	HAL_GetTick
 4616 0220 7861     		str	r0, [r7, #20]
1409:Drivers/STM32L4xx_HAL_Driver/Src/stm32l4xx_hal_nand.c **** 
1410:Drivers/STM32L4xx_HAL_Driver/Src/stm32l4xx_hal_nand.c ****         /* Read status until NAND is ready */
1411:Drivers/STM32L4xx_HAL_Driver/Src/stm32l4xx_hal_nand.c ****         while (HAL_NAND_Read_Status(hnand) != NAND_READY)
 4617              		.loc 1 1411 15
 4618 0222 11E0     		b	.L133
 4619              	.L134:
1412:Drivers/STM32L4xx_HAL_Driver/Src/stm32l4xx_hal_nand.c ****         {
1413:Drivers/STM32L4xx_HAL_Driver/Src/stm32l4xx_hal_nand.c ****           if ((HAL_GetTick() - tickstart) > NAND_WRITE_TIMEOUT)
 4620              		.loc 1 1413 16
ARM GAS  /tmp/ccUr9KqT.s 			page 126


 4621 0224 FFF7FEFF 		bl	HAL_GetTick
 4622 0228 0246     		mov	r2, r0
 4623              		.loc 1 1413 30 discriminator 1
 4624 022a 7B69     		ldr	r3, [r7, #20]
 4625 022c D31A     		subs	r3, r2, r3
 4626              		.loc 1 1413 14 discriminator 1
 4627 022e B3F1807F 		cmp	r3, #16777216
 4628 0232 09D9     		bls	.L133
1414:Drivers/STM32L4xx_HAL_Driver/Src/stm32l4xx_hal_nand.c ****           {
1415:Drivers/STM32L4xx_HAL_Driver/Src/stm32l4xx_hal_nand.c ****             /* Update the NAND controller state */
1416:Drivers/STM32L4xx_HAL_Driver/Src/stm32l4xx_hal_nand.c ****             hnand->State = HAL_NAND_STATE_ERROR;
 4629              		.loc 1 1416 26
 4630 0234 FB68     		ldr	r3, [r7, #12]
 4631 0236 0322     		movs	r2, #3
 4632 0238 83F82120 		strb	r2, [r3, #33]
1417:Drivers/STM32L4xx_HAL_Driver/Src/stm32l4xx_hal_nand.c **** 
1418:Drivers/STM32L4xx_HAL_Driver/Src/stm32l4xx_hal_nand.c ****             /* Process unlocked */
1419:Drivers/STM32L4xx_HAL_Driver/Src/stm32l4xx_hal_nand.c ****             __HAL_UNLOCK(hnand);
 4633              		.loc 1 1419 13
 4634 023c FB68     		ldr	r3, [r7, #12]
 4635 023e 0022     		movs	r2, #0
 4636 0240 83F82020 		strb	r2, [r3, #32]
1420:Drivers/STM32L4xx_HAL_Driver/Src/stm32l4xx_hal_nand.c **** 
1421:Drivers/STM32L4xx_HAL_Driver/Src/stm32l4xx_hal_nand.c ****             return HAL_TIMEOUT;
 4637              		.loc 1 1421 20
 4638 0244 0323     		movs	r3, #3
 4639 0246 3EE0     		b	.L124
 4640              	.L133:
1411:Drivers/STM32L4xx_HAL_Driver/Src/stm32l4xx_hal_nand.c ****         {
 4641              		.loc 1 1411 16
 4642 0248 F868     		ldr	r0, [r7, #12]
 4643 024a FFF7FEFF 		bl	HAL_NAND_Read_Status
 4644 024e 0346     		mov	r3, r0
1411:Drivers/STM32L4xx_HAL_Driver/Src/stm32l4xx_hal_nand.c ****         {
 4645              		.loc 1 1411 44 discriminator 1
 4646 0250 402B     		cmp	r3, #64
 4647 0252 E7D1     		bne	.L134
1422:Drivers/STM32L4xx_HAL_Driver/Src/stm32l4xx_hal_nand.c ****           }
1423:Drivers/STM32L4xx_HAL_Driver/Src/stm32l4xx_hal_nand.c ****         }
1424:Drivers/STM32L4xx_HAL_Driver/Src/stm32l4xx_hal_nand.c **** 
1425:Drivers/STM32L4xx_HAL_Driver/Src/stm32l4xx_hal_nand.c ****         /* Go back to read mode */
1426:Drivers/STM32L4xx_HAL_Driver/Src/stm32l4xx_hal_nand.c ****         *(__IO uint8_t *)((uint32_t)(deviceaddress | CMD_AREA)) = ((uint8_t)0x00);
 4648              		.loc 1 1426 27
 4649 0254 FB69     		ldr	r3, [r7, #28]
 4650 0256 43F48033 		orr	r3, r3, #65536
 4651              		.loc 1 1426 65
 4652 025a 0022     		movs	r2, #0
 4653 025c 1A70     		strb	r2, [r3]
 4654              	.LBB578:
 4655              	.LBB579:
 946:Drivers/CMSIS/Core/Include/cmsis_gcc.h **** }
 4656              		.loc 2 946 3
 4657              		.syntax unified
 4658              	@ 946 "Drivers/CMSIS/Core/Include/cmsis_gcc.h" 1
 4659 025e BFF34F8F 		dsb 0xF
 4660              	@ 0 "" 2
 4661              		.loc 2 947 1
ARM GAS  /tmp/ccUr9KqT.s 			page 127


 4662              		.thumb
 4663              		.syntax unified
 4664 0262 00BF     		nop
 4665              	.L132:
 4666              	.LBE579:
 4667              	.LBE578:
1427:Drivers/STM32L4xx_HAL_Driver/Src/stm32l4xx_hal_nand.c ****         __DSB();
1428:Drivers/STM32L4xx_HAL_Driver/Src/stm32l4xx_hal_nand.c ****       }
1429:Drivers/STM32L4xx_HAL_Driver/Src/stm32l4xx_hal_nand.c **** 
1430:Drivers/STM32L4xx_HAL_Driver/Src/stm32l4xx_hal_nand.c ****       /* Get Data into Buffer */
1431:Drivers/STM32L4xx_HAL_Driver/Src/stm32l4xx_hal_nand.c ****       for (index = 0U; index < hnand->Config.SpareAreaSize; index++)
 4668              		.loc 1 1431 18
 4669 0264 0023     		movs	r3, #0
 4670 0266 FB62     		str	r3, [r7, #44]
 4671              		.loc 1 1431 7
 4672 0268 0AE0     		b	.L135
 4673              	.L136:
1432:Drivers/STM32L4xx_HAL_Driver/Src/stm32l4xx_hal_nand.c ****       {
1433:Drivers/STM32L4xx_HAL_Driver/Src/stm32l4xx_hal_nand.c ****         *buff = *(__IO uint16_t *)deviceaddress;
 4674              		.loc 1 1433 18
 4675 026a FB69     		ldr	r3, [r7, #28]
 4676              		.loc 1 1433 17
 4677 026c 1B88     		ldrh	r3, [r3]	@ movhi
 4678 026e 9AB2     		uxth	r2, r3
 4679              		.loc 1 1433 15
 4680 0270 3B6A     		ldr	r3, [r7, #32]
 4681 0272 1A80     		strh	r2, [r3]	@ movhi
1434:Drivers/STM32L4xx_HAL_Driver/Src/stm32l4xx_hal_nand.c ****         buff++;
 4682              		.loc 1 1434 13
 4683 0274 3B6A     		ldr	r3, [r7, #32]
 4684 0276 0233     		adds	r3, r3, #2
 4685 0278 3B62     		str	r3, [r7, #32]
1431:Drivers/STM32L4xx_HAL_Driver/Src/stm32l4xx_hal_nand.c ****       {
 4686              		.loc 1 1431 66 discriminator 3
 4687 027a FB6A     		ldr	r3, [r7, #44]
 4688 027c 0133     		adds	r3, r3, #1
 4689 027e FB62     		str	r3, [r7, #44]
 4690              	.L135:
1431:Drivers/STM32L4xx_HAL_Driver/Src/stm32l4xx_hal_nand.c ****       {
 4691              		.loc 1 1431 45 discriminator 1
 4692 0280 FB68     		ldr	r3, [r7, #12]
 4693 0282 9B6A     		ldr	r3, [r3, #40]
1431:Drivers/STM32L4xx_HAL_Driver/Src/stm32l4xx_hal_nand.c ****       {
 4694              		.loc 1 1431 30 discriminator 1
 4695 0284 FA6A     		ldr	r2, [r7, #44]
 4696 0286 9A42     		cmp	r2, r3
 4697 0288 EFD3     		bcc	.L136
1435:Drivers/STM32L4xx_HAL_Driver/Src/stm32l4xx_hal_nand.c ****       }
1436:Drivers/STM32L4xx_HAL_Driver/Src/stm32l4xx_hal_nand.c **** 
1437:Drivers/STM32L4xx_HAL_Driver/Src/stm32l4xx_hal_nand.c ****       /* Decrement spare areas to read */
1438:Drivers/STM32L4xx_HAL_Driver/Src/stm32l4xx_hal_nand.c ****       nbspare--;
 4698              		.loc 1 1438 14
 4699 028a 7B6A     		ldr	r3, [r7, #36]
 4700 028c 013B     		subs	r3, r3, #1
 4701 028e 7B62     		str	r3, [r7, #36]
1439:Drivers/STM32L4xx_HAL_Driver/Src/stm32l4xx_hal_nand.c **** 
1440:Drivers/STM32L4xx_HAL_Driver/Src/stm32l4xx_hal_nand.c ****       /* Increment the NAND address */
ARM GAS  /tmp/ccUr9KqT.s 			page 128


1441:Drivers/STM32L4xx_HAL_Driver/Src/stm32l4xx_hal_nand.c ****       nandaddress = (uint32_t)(nandaddress + 1U);
 4702              		.loc 1 1441 19
 4703 0290 BB6A     		ldr	r3, [r7, #40]
 4704 0292 0133     		adds	r3, r3, #1
 4705 0294 BB62     		str	r3, [r7, #40]
 4706              	.L127:
1340:Drivers/STM32L4xx_HAL_Driver/Src/stm32l4xx_hal_nand.c ****     {
 4707              		.loc 1 1340 28
 4708 0296 7B6A     		ldr	r3, [r7, #36]
 4709 0298 002B     		cmp	r3, #0
 4710 029a 09D0     		beq	.L137
1340:Drivers/STM32L4xx_HAL_Driver/Src/stm32l4xx_hal_nand.c ****     {
 4711              		.loc 1 1340 61 discriminator 1
 4712 029c FB68     		ldr	r3, [r7, #12]
 4713 029e DB6A     		ldr	r3, [r3, #44]
1340:Drivers/STM32L4xx_HAL_Driver/Src/stm32l4xx_hal_nand.c ****     {
 4714              		.loc 1 1340 89 discriminator 1
 4715 02a0 FA68     		ldr	r2, [r7, #12]
 4716 02a2 126B     		ldr	r2, [r2, #48]
1340:Drivers/STM32L4xx_HAL_Driver/Src/stm32l4xx_hal_nand.c ****     {
 4717              		.loc 1 1340 73 discriminator 1
 4718 02a4 02FB03F3 		mul	r3, r2, r3
1340:Drivers/STM32L4xx_HAL_Driver/Src/stm32l4xx_hal_nand.c ****     {
 4719              		.loc 1 1340 28 discriminator 1
 4720 02a8 BA6A     		ldr	r2, [r7, #40]
 4721 02aa 9A42     		cmp	r2, r3
 4722 02ac FFF4ECAE 		bcc	.L138
 4723              	.L137:
1442:Drivers/STM32L4xx_HAL_Driver/Src/stm32l4xx_hal_nand.c ****     }
1443:Drivers/STM32L4xx_HAL_Driver/Src/stm32l4xx_hal_nand.c **** 
1444:Drivers/STM32L4xx_HAL_Driver/Src/stm32l4xx_hal_nand.c ****     /* Update the NAND controller state */
1445:Drivers/STM32L4xx_HAL_Driver/Src/stm32l4xx_hal_nand.c ****     hnand->State = HAL_NAND_STATE_READY;
 4724              		.loc 1 1445 18
 4725 02b0 FB68     		ldr	r3, [r7, #12]
 4726 02b2 0122     		movs	r2, #1
 4727 02b4 83F82120 		strb	r2, [r3, #33]
1446:Drivers/STM32L4xx_HAL_Driver/Src/stm32l4xx_hal_nand.c **** 
1447:Drivers/STM32L4xx_HAL_Driver/Src/stm32l4xx_hal_nand.c ****     /* Process unlocked */
1448:Drivers/STM32L4xx_HAL_Driver/Src/stm32l4xx_hal_nand.c ****     __HAL_UNLOCK(hnand);
 4728              		.loc 1 1448 5
 4729 02b8 FB68     		ldr	r3, [r7, #12]
 4730 02ba 0022     		movs	r2, #0
 4731 02bc 83F82020 		strb	r2, [r3, #32]
1449:Drivers/STM32L4xx_HAL_Driver/Src/stm32l4xx_hal_nand.c ****   }
1450:Drivers/STM32L4xx_HAL_Driver/Src/stm32l4xx_hal_nand.c ****   else
1451:Drivers/STM32L4xx_HAL_Driver/Src/stm32l4xx_hal_nand.c ****   {
1452:Drivers/STM32L4xx_HAL_Driver/Src/stm32l4xx_hal_nand.c ****     return HAL_ERROR;
1453:Drivers/STM32L4xx_HAL_Driver/Src/stm32l4xx_hal_nand.c ****   }
1454:Drivers/STM32L4xx_HAL_Driver/Src/stm32l4xx_hal_nand.c **** 
1455:Drivers/STM32L4xx_HAL_Driver/Src/stm32l4xx_hal_nand.c ****   return HAL_OK;
 4732              		.loc 1 1455 10
 4733 02c0 0023     		movs	r3, #0
 4734 02c2 00E0     		b	.L124
 4735              	.L125:
1452:Drivers/STM32L4xx_HAL_Driver/Src/stm32l4xx_hal_nand.c ****   }
 4736              		.loc 1 1452 12
 4737 02c4 0123     		movs	r3, #1
ARM GAS  /tmp/ccUr9KqT.s 			page 129


 4738              	.L124:
1456:Drivers/STM32L4xx_HAL_Driver/Src/stm32l4xx_hal_nand.c **** }
 4739              		.loc 1 1456 1
 4740 02c6 1846     		mov	r0, r3
 4741 02c8 3037     		adds	r7, r7, #48
 4742              		.cfi_def_cfa_offset 8
 4743 02ca BD46     		mov	sp, r7
 4744              		.cfi_def_cfa_register 13
 4745              		@ sp needed
 4746 02cc 80BD     		pop	{r7, pc}
 4747              		.cfi_endproc
 4748              	.LFE459:
 4750              		.section	.text.HAL_NAND_Write_SpareArea_8b,"ax",%progbits
 4751              		.align	1
 4752              		.global	HAL_NAND_Write_SpareArea_8b
 4753              		.syntax unified
 4754              		.thumb
 4755              		.thumb_func
 4757              	HAL_NAND_Write_SpareArea_8b:
 4758              	.LFB460:
1457:Drivers/STM32L4xx_HAL_Driver/Src/stm32l4xx_hal_nand.c **** 
1458:Drivers/STM32L4xx_HAL_Driver/Src/stm32l4xx_hal_nand.c **** /**
1459:Drivers/STM32L4xx_HAL_Driver/Src/stm32l4xx_hal_nand.c ****   * @brief  Write Spare area(s) to NAND memory (8-bits addressing)
1460:Drivers/STM32L4xx_HAL_Driver/Src/stm32l4xx_hal_nand.c ****   * @param  hnand pointer to a NAND_HandleTypeDef structure that contains
1461:Drivers/STM32L4xx_HAL_Driver/Src/stm32l4xx_hal_nand.c ****   *                the configuration information for NAND module.
1462:Drivers/STM32L4xx_HAL_Driver/Src/stm32l4xx_hal_nand.c ****   * @param  pAddress  pointer to NAND address structure
1463:Drivers/STM32L4xx_HAL_Driver/Src/stm32l4xx_hal_nand.c ****   * @param  pBuffer  pointer to source buffer to write
1464:Drivers/STM32L4xx_HAL_Driver/Src/stm32l4xx_hal_nand.c ****   * @param  NumSpareAreaTowrite   number of spare areas to write to block
1465:Drivers/STM32L4xx_HAL_Driver/Src/stm32l4xx_hal_nand.c ****   * @retval HAL status
1466:Drivers/STM32L4xx_HAL_Driver/Src/stm32l4xx_hal_nand.c ****   */
1467:Drivers/STM32L4xx_HAL_Driver/Src/stm32l4xx_hal_nand.c **** HAL_StatusTypeDef HAL_NAND_Write_SpareArea_8b(NAND_HandleTypeDef *hnand, const NAND_AddressTypeDef 
1468:Drivers/STM32L4xx_HAL_Driver/Src/stm32l4xx_hal_nand.c ****                                               const uint8_t *pBuffer, uint32_t NumSpareAreaTowrite)
1469:Drivers/STM32L4xx_HAL_Driver/Src/stm32l4xx_hal_nand.c **** {
 4759              		.loc 1 1469 1
 4760              		.cfi_startproc
 4761              		@ args = 0, pretend = 0, frame = 48
 4762              		@ frame_needed = 1, uses_anonymous_args = 0
 4763 0000 80B5     		push	{r7, lr}
 4764              		.cfi_def_cfa_offset 8
 4765              		.cfi_offset 7, -8
 4766              		.cfi_offset 14, -4
 4767 0002 8CB0     		sub	sp, sp, #48
 4768              		.cfi_def_cfa_offset 56
 4769 0004 00AF     		add	r7, sp, #0
 4770              		.cfi_def_cfa_register 7
 4771 0006 F860     		str	r0, [r7, #12]
 4772 0008 B960     		str	r1, [r7, #8]
 4773 000a 7A60     		str	r2, [r7, #4]
 4774 000c 3B60     		str	r3, [r7]
1470:Drivers/STM32L4xx_HAL_Driver/Src/stm32l4xx_hal_nand.c ****   uint32_t index;
1471:Drivers/STM32L4xx_HAL_Driver/Src/stm32l4xx_hal_nand.c ****   uint32_t tickstart;
1472:Drivers/STM32L4xx_HAL_Driver/Src/stm32l4xx_hal_nand.c ****   uint32_t deviceaddress;
1473:Drivers/STM32L4xx_HAL_Driver/Src/stm32l4xx_hal_nand.c ****   uint32_t nandaddress;
1474:Drivers/STM32L4xx_HAL_Driver/Src/stm32l4xx_hal_nand.c ****   uint32_t columnaddress;
1475:Drivers/STM32L4xx_HAL_Driver/Src/stm32l4xx_hal_nand.c ****   uint32_t nbspare = NumSpareAreaTowrite;
 4775              		.loc 1 1475 12
 4776 000e 3B68     		ldr	r3, [r7]
ARM GAS  /tmp/ccUr9KqT.s 			page 130


 4777 0010 7B62     		str	r3, [r7, #36]
1476:Drivers/STM32L4xx_HAL_Driver/Src/stm32l4xx_hal_nand.c ****   const uint8_t *buff = pBuffer;
 4778              		.loc 1 1476 18
 4779 0012 7B68     		ldr	r3, [r7, #4]
 4780 0014 3B62     		str	r3, [r7, #32]
1477:Drivers/STM32L4xx_HAL_Driver/Src/stm32l4xx_hal_nand.c **** 
1478:Drivers/STM32L4xx_HAL_Driver/Src/stm32l4xx_hal_nand.c ****   /* Check the NAND controller state */
1479:Drivers/STM32L4xx_HAL_Driver/Src/stm32l4xx_hal_nand.c ****   if (hnand->State == HAL_NAND_STATE_BUSY)
 4781              		.loc 1 1479 12
 4782 0016 FB68     		ldr	r3, [r7, #12]
 4783 0018 93F82130 		ldrb	r3, [r3, #33]
 4784 001c DBB2     		uxtb	r3, r3
 4785              		.loc 1 1479 6
 4786 001e 022B     		cmp	r3, #2
 4787 0020 01D1     		bne	.L141
1480:Drivers/STM32L4xx_HAL_Driver/Src/stm32l4xx_hal_nand.c ****   {
1481:Drivers/STM32L4xx_HAL_Driver/Src/stm32l4xx_hal_nand.c ****     return HAL_BUSY;
 4788              		.loc 1 1481 12
 4789 0022 0223     		movs	r3, #2
 4790 0024 54E1     		b	.L142
 4791              	.L141:
1482:Drivers/STM32L4xx_HAL_Driver/Src/stm32l4xx_hal_nand.c ****   }
1483:Drivers/STM32L4xx_HAL_Driver/Src/stm32l4xx_hal_nand.c ****   else if (hnand->State == HAL_NAND_STATE_READY)
 4792              		.loc 1 1483 17
 4793 0026 FB68     		ldr	r3, [r7, #12]
 4794 0028 93F82130 		ldrb	r3, [r3, #33]
 4795 002c DBB2     		uxtb	r3, r3
 4796              		.loc 1 1483 11
 4797 002e 012B     		cmp	r3, #1
 4798 0030 40F04D81 		bne	.L143
1484:Drivers/STM32L4xx_HAL_Driver/Src/stm32l4xx_hal_nand.c ****   {
1485:Drivers/STM32L4xx_HAL_Driver/Src/stm32l4xx_hal_nand.c ****     /* Process Locked */
1486:Drivers/STM32L4xx_HAL_Driver/Src/stm32l4xx_hal_nand.c ****     __HAL_LOCK(hnand);
 4799              		.loc 1 1486 5
 4800 0034 FB68     		ldr	r3, [r7, #12]
 4801 0036 93F82030 		ldrb	r3, [r3, #32]	@ zero_extendqisi2
 4802 003a 012B     		cmp	r3, #1
 4803 003c 01D1     		bne	.L144
 4804              		.loc 1 1486 5 is_stmt 0 discriminator 1
 4805 003e 0223     		movs	r3, #2
 4806              		.loc 1 1486 5
 4807 0040 46E1     		b	.L142
 4808              	.L144:
 4809              		.loc 1 1486 5 discriminator 2
 4810 0042 FB68     		ldr	r3, [r7, #12]
 4811 0044 0122     		movs	r2, #1
 4812 0046 83F82020 		strb	r2, [r3, #32]
1487:Drivers/STM32L4xx_HAL_Driver/Src/stm32l4xx_hal_nand.c **** 
1488:Drivers/STM32L4xx_HAL_Driver/Src/stm32l4xx_hal_nand.c ****     /* Update the NAND controller state */
1489:Drivers/STM32L4xx_HAL_Driver/Src/stm32l4xx_hal_nand.c ****     hnand->State = HAL_NAND_STATE_BUSY;
 4813              		.loc 1 1489 18 is_stmt 1
 4814 004a FB68     		ldr	r3, [r7, #12]
 4815 004c 0222     		movs	r2, #2
 4816 004e 83F82120 		strb	r2, [r3, #33]
1490:Drivers/STM32L4xx_HAL_Driver/Src/stm32l4xx_hal_nand.c **** 
1491:Drivers/STM32L4xx_HAL_Driver/Src/stm32l4xx_hal_nand.c ****     /* Identify the device address */
1492:Drivers/STM32L4xx_HAL_Driver/Src/stm32l4xx_hal_nand.c ****     deviceaddress = NAND_DEVICE;
ARM GAS  /tmp/ccUr9KqT.s 			page 131


 4817              		.loc 1 1492 19
 4818 0052 4FF00043 		mov	r3, #-2147483648
 4819 0056 FB61     		str	r3, [r7, #28]
1493:Drivers/STM32L4xx_HAL_Driver/Src/stm32l4xx_hal_nand.c **** 
1494:Drivers/STM32L4xx_HAL_Driver/Src/stm32l4xx_hal_nand.c ****     /* Page address calculation */
1495:Drivers/STM32L4xx_HAL_Driver/Src/stm32l4xx_hal_nand.c ****     nandaddress = ARRAY_ADDRESS(pAddress, hnand);
 4820              		.loc 1 1495 19
 4821 0058 BB68     		ldr	r3, [r7, #8]
 4822 005a 1B88     		ldrh	r3, [r3]
 4823 005c 1946     		mov	r1, r3
 4824 005e BB68     		ldr	r3, [r7, #8]
 4825 0060 9B88     		ldrh	r3, [r3, #4]
 4826 0062 1A46     		mov	r2, r3
 4827 0064 BB68     		ldr	r3, [r7, #8]
 4828 0066 5B88     		ldrh	r3, [r3, #2]
 4829 0068 1846     		mov	r0, r3
 4830 006a FB68     		ldr	r3, [r7, #12]
 4831 006c 9B6B     		ldr	r3, [r3, #56]
 4832 006e 00FB03F3 		mul	r3, r0, r3
 4833 0072 1344     		add	r3, r3, r2
 4834 0074 FA68     		ldr	r2, [r7, #12]
 4835 0076 D26A     		ldr	r2, [r2, #44]
 4836 0078 02FB03F3 		mul	r3, r2, r3
 4837              		.loc 1 1495 17
 4838 007c 0B44     		add	r3, r3, r1
 4839 007e BB62     		str	r3, [r7, #40]
1496:Drivers/STM32L4xx_HAL_Driver/Src/stm32l4xx_hal_nand.c **** 
1497:Drivers/STM32L4xx_HAL_Driver/Src/stm32l4xx_hal_nand.c ****     /* Column in page address */
1498:Drivers/STM32L4xx_HAL_Driver/Src/stm32l4xx_hal_nand.c ****     columnaddress = COLUMN_ADDRESS(hnand);
 4840              		.loc 1 1498 19
 4841 0080 FB68     		ldr	r3, [r7, #12]
 4842 0082 5B6A     		ldr	r3, [r3, #36]
 4843 0084 BB61     		str	r3, [r7, #24]
1499:Drivers/STM32L4xx_HAL_Driver/Src/stm32l4xx_hal_nand.c **** 
1500:Drivers/STM32L4xx_HAL_Driver/Src/stm32l4xx_hal_nand.c ****     /* Spare area(s) write loop */
1501:Drivers/STM32L4xx_HAL_Driver/Src/stm32l4xx_hal_nand.c ****     while ((nbspare != 0U) && (nandaddress < ((hnand->Config.BlockSize) * (hnand->Config.BlockNbr))
 4844              		.loc 1 1501 11
 4845 0086 0BE1     		b	.L145
 4846              	.L155:
1502:Drivers/STM32L4xx_HAL_Driver/Src/stm32l4xx_hal_nand.c ****     {
1503:Drivers/STM32L4xx_HAL_Driver/Src/stm32l4xx_hal_nand.c ****       /* Cards with page size <= 512 bytes */
1504:Drivers/STM32L4xx_HAL_Driver/Src/stm32l4xx_hal_nand.c ****       if ((hnand->Config.PageSize) <= 512U)
 4847              		.loc 1 1504 25
 4848 0088 FB68     		ldr	r3, [r7, #12]
 4849 008a 5B6A     		ldr	r3, [r3, #36]
 4850              		.loc 1 1504 10
 4851 008c B3F5007F 		cmp	r3, #512
 4852 0090 58D8     		bhi	.L146
1505:Drivers/STM32L4xx_HAL_Driver/Src/stm32l4xx_hal_nand.c ****       {
1506:Drivers/STM32L4xx_HAL_Driver/Src/stm32l4xx_hal_nand.c ****         /* Send write Spare area command sequence */
1507:Drivers/STM32L4xx_HAL_Driver/Src/stm32l4xx_hal_nand.c ****         *(__IO uint8_t *)((uint32_t)(deviceaddress | CMD_AREA)) = NAND_CMD_AREA_C;
 4853              		.loc 1 1507 27
 4854 0092 FB69     		ldr	r3, [r7, #28]
 4855 0094 43F48033 		orr	r3, r3, #65536
 4856              		.loc 1 1507 65
 4857 0098 5022     		movs	r2, #80
 4858 009a 1A70     		strb	r2, [r3]
ARM GAS  /tmp/ccUr9KqT.s 			page 132


 4859              	.LBB580:
 4860              	.LBB581:
 946:Drivers/CMSIS/Core/Include/cmsis_gcc.h **** }
 4861              		.loc 2 946 3
 4862              		.syntax unified
 4863              	@ 946 "Drivers/CMSIS/Core/Include/cmsis_gcc.h" 1
 4864 009c BFF34F8F 		dsb 0xF
 4865              	@ 0 "" 2
 4866              		.loc 2 947 1
 4867              		.thumb
 4868              		.syntax unified
 4869 00a0 00BF     		nop
 4870              	.LBE581:
 4871              	.LBE580:
1508:Drivers/STM32L4xx_HAL_Driver/Src/stm32l4xx_hal_nand.c ****         __DSB();
1509:Drivers/STM32L4xx_HAL_Driver/Src/stm32l4xx_hal_nand.c ****         *(__IO uint8_t *)((uint32_t)(deviceaddress | CMD_AREA)) = NAND_CMD_WRITE0;
 4872              		.loc 1 1509 27
 4873 00a2 FB69     		ldr	r3, [r7, #28]
 4874 00a4 43F48033 		orr	r3, r3, #65536
 4875              		.loc 1 1509 65
 4876 00a8 8022     		movs	r2, #128
 4877 00aa 1A70     		strb	r2, [r3]
 4878              	.LBB582:
 4879              	.LBB583:
 946:Drivers/CMSIS/Core/Include/cmsis_gcc.h **** }
 4880              		.loc 2 946 3
 4881              		.syntax unified
 4882              	@ 946 "Drivers/CMSIS/Core/Include/cmsis_gcc.h" 1
 4883 00ac BFF34F8F 		dsb 0xF
 4884              	@ 0 "" 2
 4885              		.loc 2 947 1
 4886              		.thumb
 4887              		.syntax unified
 4888 00b0 00BF     		nop
 4889              	.LBE583:
 4890              	.LBE582:
1510:Drivers/STM32L4xx_HAL_Driver/Src/stm32l4xx_hal_nand.c ****         __DSB();
1511:Drivers/STM32L4xx_HAL_Driver/Src/stm32l4xx_hal_nand.c **** 
1512:Drivers/STM32L4xx_HAL_Driver/Src/stm32l4xx_hal_nand.c ****         if (((hnand->Config.BlockSize) * (hnand->Config.BlockNbr)) <= 65535U)
 4891              		.loc 1 1512 28
 4892 00b2 FB68     		ldr	r3, [r7, #12]
 4893 00b4 DB6A     		ldr	r3, [r3, #44]
 4894              		.loc 1 1512 56
 4895 00b6 FA68     		ldr	r2, [r7, #12]
 4896 00b8 126B     		ldr	r2, [r2, #48]
 4897              		.loc 1 1512 40
 4898 00ba 02FB03F3 		mul	r3, r2, r3
 4899              		.loc 1 1512 12
 4900 00be B3F5803F 		cmp	r3, #65536
 4901 00c2 1AD2     		bcs	.L147
1513:Drivers/STM32L4xx_HAL_Driver/Src/stm32l4xx_hal_nand.c ****         {
1514:Drivers/STM32L4xx_HAL_Driver/Src/stm32l4xx_hal_nand.c ****           *(__IO uint8_t *)((uint32_t)(deviceaddress | ADDR_AREA)) = 0x00U;
 4902              		.loc 1 1514 29
 4903 00c4 FB69     		ldr	r3, [r7, #28]
 4904 00c6 43F40033 		orr	r3, r3, #131072
 4905              		.loc 1 1514 68
 4906 00ca 0022     		movs	r2, #0
ARM GAS  /tmp/ccUr9KqT.s 			page 133


 4907 00cc 1A70     		strb	r2, [r3]
 4908              	.LBB584:
 4909              	.LBB585:
 946:Drivers/CMSIS/Core/Include/cmsis_gcc.h **** }
 4910              		.loc 2 946 3
 4911              		.syntax unified
 4912              	@ 946 "Drivers/CMSIS/Core/Include/cmsis_gcc.h" 1
 4913 00ce BFF34F8F 		dsb 0xF
 4914              	@ 0 "" 2
 4915              		.loc 2 947 1
 4916              		.thumb
 4917              		.syntax unified
 4918 00d2 00BF     		nop
 4919              	.LBE585:
 4920              	.LBE584:
1515:Drivers/STM32L4xx_HAL_Driver/Src/stm32l4xx_hal_nand.c ****           __DSB();
1516:Drivers/STM32L4xx_HAL_Driver/Src/stm32l4xx_hal_nand.c ****           *(__IO uint8_t *)((uint32_t)(deviceaddress | ADDR_AREA)) = ADDR_1ST_CYCLE(nandaddress);
 4921              		.loc 1 1516 29
 4922 00d4 FB69     		ldr	r3, [r7, #28]
 4923 00d6 43F40033 		orr	r3, r3, #131072
 4924              		.loc 1 1516 70
 4925 00da BA6A     		ldr	r2, [r7, #40]
 4926 00dc D2B2     		uxtb	r2, r2
 4927              		.loc 1 1516 68
 4928 00de 1A70     		strb	r2, [r3]
 4929              	.LBB586:
 4930              	.LBB587:
 946:Drivers/CMSIS/Core/Include/cmsis_gcc.h **** }
 4931              		.loc 2 946 3
 4932              		.syntax unified
 4933              	@ 946 "Drivers/CMSIS/Core/Include/cmsis_gcc.h" 1
 4934 00e0 BFF34F8F 		dsb 0xF
 4935              	@ 0 "" 2
 4936              		.loc 2 947 1
 4937              		.thumb
 4938              		.syntax unified
 4939 00e4 00BF     		nop
 4940              	.LBE587:
 4941              	.LBE586:
1517:Drivers/STM32L4xx_HAL_Driver/Src/stm32l4xx_hal_nand.c ****           __DSB();
1518:Drivers/STM32L4xx_HAL_Driver/Src/stm32l4xx_hal_nand.c ****           *(__IO uint8_t *)((uint32_t)(deviceaddress | ADDR_AREA)) = ADDR_2ND_CYCLE(nandaddress);
 4942              		.loc 1 1518 70
 4943 00e6 BB6A     		ldr	r3, [r7, #40]
 4944 00e8 1A0A     		lsrs	r2, r3, #8
 4945              		.loc 1 1518 29
 4946 00ea FB69     		ldr	r3, [r7, #28]
 4947 00ec 43F40033 		orr	r3, r3, #131072
 4948              		.loc 1 1518 70
 4949 00f0 D2B2     		uxtb	r2, r2
 4950              		.loc 1 1518 68
 4951 00f2 1A70     		strb	r2, [r3]
 4952              	.LBB588:
 4953              	.LBB589:
 946:Drivers/CMSIS/Core/Include/cmsis_gcc.h **** }
 4954              		.loc 2 946 3
 4955              		.syntax unified
 4956              	@ 946 "Drivers/CMSIS/Core/Include/cmsis_gcc.h" 1
ARM GAS  /tmp/ccUr9KqT.s 			page 134


 4957 00f4 BFF34F8F 		dsb 0xF
 4958              	@ 0 "" 2
 4959              		.loc 2 947 1
 4960              		.thumb
 4961              		.syntax unified
 4962 00f8 93E0     		b	.L148
 4963              	.L147:
 4964              	.LBE589:
 4965              	.LBE588:
1519:Drivers/STM32L4xx_HAL_Driver/Src/stm32l4xx_hal_nand.c ****           __DSB();
1520:Drivers/STM32L4xx_HAL_Driver/Src/stm32l4xx_hal_nand.c ****         }
1521:Drivers/STM32L4xx_HAL_Driver/Src/stm32l4xx_hal_nand.c ****         else /* ((hnand->Config.BlockSize)*(hnand->Config.BlockNbr)) > 65535 */
1522:Drivers/STM32L4xx_HAL_Driver/Src/stm32l4xx_hal_nand.c ****         {
1523:Drivers/STM32L4xx_HAL_Driver/Src/stm32l4xx_hal_nand.c ****           *(__IO uint8_t *)((uint32_t)(deviceaddress | ADDR_AREA)) = 0x00U;
 4966              		.loc 1 1523 29
 4967 00fa FB69     		ldr	r3, [r7, #28]
 4968 00fc 43F40033 		orr	r3, r3, #131072
 4969              		.loc 1 1523 68
 4970 0100 0022     		movs	r2, #0
 4971 0102 1A70     		strb	r2, [r3]
 4972              	.LBB590:
 4973              	.LBB591:
 946:Drivers/CMSIS/Core/Include/cmsis_gcc.h **** }
 4974              		.loc 2 946 3
 4975              		.syntax unified
 4976              	@ 946 "Drivers/CMSIS/Core/Include/cmsis_gcc.h" 1
 4977 0104 BFF34F8F 		dsb 0xF
 4978              	@ 0 "" 2
 4979              		.loc 2 947 1
 4980              		.thumb
 4981              		.syntax unified
 4982 0108 00BF     		nop
 4983              	.LBE591:
 4984              	.LBE590:
1524:Drivers/STM32L4xx_HAL_Driver/Src/stm32l4xx_hal_nand.c ****           __DSB();
1525:Drivers/STM32L4xx_HAL_Driver/Src/stm32l4xx_hal_nand.c ****           *(__IO uint8_t *)((uint32_t)(deviceaddress | ADDR_AREA)) = ADDR_1ST_CYCLE(nandaddress);
 4985              		.loc 1 1525 29
 4986 010a FB69     		ldr	r3, [r7, #28]
 4987 010c 43F40033 		orr	r3, r3, #131072
 4988              		.loc 1 1525 70
 4989 0110 BA6A     		ldr	r2, [r7, #40]
 4990 0112 D2B2     		uxtb	r2, r2
 4991              		.loc 1 1525 68
 4992 0114 1A70     		strb	r2, [r3]
 4993              	.LBB592:
 4994              	.LBB593:
 946:Drivers/CMSIS/Core/Include/cmsis_gcc.h **** }
 4995              		.loc 2 946 3
 4996              		.syntax unified
 4997              	@ 946 "Drivers/CMSIS/Core/Include/cmsis_gcc.h" 1
 4998 0116 BFF34F8F 		dsb 0xF
 4999              	@ 0 "" 2
 5000              		.loc 2 947 1
 5001              		.thumb
 5002              		.syntax unified
 5003 011a 00BF     		nop
 5004              	.LBE593:
ARM GAS  /tmp/ccUr9KqT.s 			page 135


 5005              	.LBE592:
1526:Drivers/STM32L4xx_HAL_Driver/Src/stm32l4xx_hal_nand.c ****           __DSB();
1527:Drivers/STM32L4xx_HAL_Driver/Src/stm32l4xx_hal_nand.c ****           *(__IO uint8_t *)((uint32_t)(deviceaddress | ADDR_AREA)) = ADDR_2ND_CYCLE(nandaddress);
 5006              		.loc 1 1527 70
 5007 011c BB6A     		ldr	r3, [r7, #40]
 5008 011e 1A0A     		lsrs	r2, r3, #8
 5009              		.loc 1 1527 29
 5010 0120 FB69     		ldr	r3, [r7, #28]
 5011 0122 43F40033 		orr	r3, r3, #131072
 5012              		.loc 1 1527 70
 5013 0126 D2B2     		uxtb	r2, r2
 5014              		.loc 1 1527 68
 5015 0128 1A70     		strb	r2, [r3]
 5016              	.LBB594:
 5017              	.LBB595:
 946:Drivers/CMSIS/Core/Include/cmsis_gcc.h **** }
 5018              		.loc 2 946 3
 5019              		.syntax unified
 5020              	@ 946 "Drivers/CMSIS/Core/Include/cmsis_gcc.h" 1
 5021 012a BFF34F8F 		dsb 0xF
 5022              	@ 0 "" 2
 5023              		.loc 2 947 1
 5024              		.thumb
 5025              		.syntax unified
 5026 012e 00BF     		nop
 5027              	.LBE595:
 5028              	.LBE594:
1528:Drivers/STM32L4xx_HAL_Driver/Src/stm32l4xx_hal_nand.c ****           __DSB();
1529:Drivers/STM32L4xx_HAL_Driver/Src/stm32l4xx_hal_nand.c ****           *(__IO uint8_t *)((uint32_t)(deviceaddress | ADDR_AREA)) = ADDR_3RD_CYCLE(nandaddress);
 5029              		.loc 1 1529 70
 5030 0130 BB6A     		ldr	r3, [r7, #40]
 5031 0132 1A0C     		lsrs	r2, r3, #16
 5032              		.loc 1 1529 29
 5033 0134 FB69     		ldr	r3, [r7, #28]
 5034 0136 43F40033 		orr	r3, r3, #131072
 5035              		.loc 1 1529 70
 5036 013a D2B2     		uxtb	r2, r2
 5037              		.loc 1 1529 68
 5038 013c 1A70     		strb	r2, [r3]
 5039              	.LBB596:
 5040              	.LBB597:
 946:Drivers/CMSIS/Core/Include/cmsis_gcc.h **** }
 5041              		.loc 2 946 3
 5042              		.syntax unified
 5043              	@ 946 "Drivers/CMSIS/Core/Include/cmsis_gcc.h" 1
 5044 013e BFF34F8F 		dsb 0xF
 5045              	@ 0 "" 2
 5046              		.loc 2 947 1
 5047              		.thumb
 5048              		.syntax unified
 5049 0142 6EE0     		b	.L148
 5050              	.L146:
 5051              	.LBE597:
 5052              	.LBE596:
1530:Drivers/STM32L4xx_HAL_Driver/Src/stm32l4xx_hal_nand.c ****           __DSB();
1531:Drivers/STM32L4xx_HAL_Driver/Src/stm32l4xx_hal_nand.c ****         }
1532:Drivers/STM32L4xx_HAL_Driver/Src/stm32l4xx_hal_nand.c ****       }
ARM GAS  /tmp/ccUr9KqT.s 			page 136


1533:Drivers/STM32L4xx_HAL_Driver/Src/stm32l4xx_hal_nand.c ****       else /* (hnand->Config.PageSize) > 512 */
1534:Drivers/STM32L4xx_HAL_Driver/Src/stm32l4xx_hal_nand.c ****       {
1535:Drivers/STM32L4xx_HAL_Driver/Src/stm32l4xx_hal_nand.c ****         /* Send write Spare area command sequence */
1536:Drivers/STM32L4xx_HAL_Driver/Src/stm32l4xx_hal_nand.c ****         *(__IO uint8_t *)((uint32_t)(deviceaddress | CMD_AREA)) = NAND_CMD_AREA_A;
 5053              		.loc 1 1536 27
 5054 0144 FB69     		ldr	r3, [r7, #28]
 5055 0146 43F48033 		orr	r3, r3, #65536
 5056              		.loc 1 1536 65
 5057 014a 0022     		movs	r2, #0
 5058 014c 1A70     		strb	r2, [r3]
 5059              	.LBB598:
 5060              	.LBB599:
 946:Drivers/CMSIS/Core/Include/cmsis_gcc.h **** }
 5061              		.loc 2 946 3
 5062              		.syntax unified
 5063              	@ 946 "Drivers/CMSIS/Core/Include/cmsis_gcc.h" 1
 5064 014e BFF34F8F 		dsb 0xF
 5065              	@ 0 "" 2
 5066              		.loc 2 947 1
 5067              		.thumb
 5068              		.syntax unified
 5069 0152 00BF     		nop
 5070              	.LBE599:
 5071              	.LBE598:
1537:Drivers/STM32L4xx_HAL_Driver/Src/stm32l4xx_hal_nand.c ****         __DSB();
1538:Drivers/STM32L4xx_HAL_Driver/Src/stm32l4xx_hal_nand.c ****         *(__IO uint8_t *)((uint32_t)(deviceaddress | CMD_AREA)) = NAND_CMD_WRITE0;
 5072              		.loc 1 1538 27
 5073 0154 FB69     		ldr	r3, [r7, #28]
 5074 0156 43F48033 		orr	r3, r3, #65536
 5075              		.loc 1 1538 65
 5076 015a 8022     		movs	r2, #128
 5077 015c 1A70     		strb	r2, [r3]
 5078              	.LBB600:
 5079              	.LBB601:
 946:Drivers/CMSIS/Core/Include/cmsis_gcc.h **** }
 5080              		.loc 2 946 3
 5081              		.syntax unified
 5082              	@ 946 "Drivers/CMSIS/Core/Include/cmsis_gcc.h" 1
 5083 015e BFF34F8F 		dsb 0xF
 5084              	@ 0 "" 2
 5085              		.loc 2 947 1
 5086              		.thumb
 5087              		.syntax unified
 5088 0162 00BF     		nop
 5089              	.LBE601:
 5090              	.LBE600:
1539:Drivers/STM32L4xx_HAL_Driver/Src/stm32l4xx_hal_nand.c ****         __DSB();
1540:Drivers/STM32L4xx_HAL_Driver/Src/stm32l4xx_hal_nand.c **** 
1541:Drivers/STM32L4xx_HAL_Driver/Src/stm32l4xx_hal_nand.c ****         if (((hnand->Config.BlockSize) * (hnand->Config.BlockNbr)) <= 65535U)
 5091              		.loc 1 1541 28
 5092 0164 FB68     		ldr	r3, [r7, #12]
 5093 0166 DB6A     		ldr	r3, [r3, #44]
 5094              		.loc 1 1541 56
 5095 0168 FA68     		ldr	r2, [r7, #12]
 5096 016a 126B     		ldr	r2, [r2, #48]
 5097              		.loc 1 1541 40
 5098 016c 02FB03F3 		mul	r3, r2, r3
ARM GAS  /tmp/ccUr9KqT.s 			page 137


 5099              		.loc 1 1541 12
 5100 0170 B3F5803F 		cmp	r3, #65536
 5101 0174 25D2     		bcs	.L149
1542:Drivers/STM32L4xx_HAL_Driver/Src/stm32l4xx_hal_nand.c ****         {
1543:Drivers/STM32L4xx_HAL_Driver/Src/stm32l4xx_hal_nand.c ****           *(__IO uint8_t *)((uint32_t)(deviceaddress | ADDR_AREA)) = COLUMN_1ST_CYCLE(columnaddress
 5102              		.loc 1 1543 29
 5103 0176 FB69     		ldr	r3, [r7, #28]
 5104 0178 43F40033 		orr	r3, r3, #131072
 5105              		.loc 1 1543 70
 5106 017c BA69     		ldr	r2, [r7, #24]
 5107 017e D2B2     		uxtb	r2, r2
 5108              		.loc 1 1543 68
 5109 0180 1A70     		strb	r2, [r3]
 5110              	.LBB602:
 5111              	.LBB603:
 946:Drivers/CMSIS/Core/Include/cmsis_gcc.h **** }
 5112              		.loc 2 946 3
 5113              		.syntax unified
 5114              	@ 946 "Drivers/CMSIS/Core/Include/cmsis_gcc.h" 1
 5115 0182 BFF34F8F 		dsb 0xF
 5116              	@ 0 "" 2
 5117              		.loc 2 947 1
 5118              		.thumb
 5119              		.syntax unified
 5120 0186 00BF     		nop
 5121              	.LBE603:
 5122              	.LBE602:
1544:Drivers/STM32L4xx_HAL_Driver/Src/stm32l4xx_hal_nand.c ****           __DSB();
1545:Drivers/STM32L4xx_HAL_Driver/Src/stm32l4xx_hal_nand.c ****           *(__IO uint8_t *)((uint32_t)(deviceaddress | ADDR_AREA)) = COLUMN_2ND_CYCLE(columnaddress
 5123              		.loc 1 1545 70
 5124 0188 BB69     		ldr	r3, [r7, #24]
 5125 018a 1A0A     		lsrs	r2, r3, #8
 5126              		.loc 1 1545 29
 5127 018c FB69     		ldr	r3, [r7, #28]
 5128 018e 43F40033 		orr	r3, r3, #131072
 5129              		.loc 1 1545 70
 5130 0192 D2B2     		uxtb	r2, r2
 5131              		.loc 1 1545 68
 5132 0194 1A70     		strb	r2, [r3]
 5133              	.LBB604:
 5134              	.LBB605:
 946:Drivers/CMSIS/Core/Include/cmsis_gcc.h **** }
 5135              		.loc 2 946 3
 5136              		.syntax unified
 5137              	@ 946 "Drivers/CMSIS/Core/Include/cmsis_gcc.h" 1
 5138 0196 BFF34F8F 		dsb 0xF
 5139              	@ 0 "" 2
 5140              		.loc 2 947 1
 5141              		.thumb
 5142              		.syntax unified
 5143 019a 00BF     		nop
 5144              	.LBE605:
 5145              	.LBE604:
1546:Drivers/STM32L4xx_HAL_Driver/Src/stm32l4xx_hal_nand.c ****           __DSB();
1547:Drivers/STM32L4xx_HAL_Driver/Src/stm32l4xx_hal_nand.c ****           *(__IO uint8_t *)((uint32_t)(deviceaddress | ADDR_AREA)) = ADDR_1ST_CYCLE(nandaddress);
 5146              		.loc 1 1547 29
 5147 019c FB69     		ldr	r3, [r7, #28]
ARM GAS  /tmp/ccUr9KqT.s 			page 138


 5148 019e 43F40033 		orr	r3, r3, #131072
 5149              		.loc 1 1547 70
 5150 01a2 BA6A     		ldr	r2, [r7, #40]
 5151 01a4 D2B2     		uxtb	r2, r2
 5152              		.loc 1 1547 68
 5153 01a6 1A70     		strb	r2, [r3]
 5154              	.LBB606:
 5155              	.LBB607:
 946:Drivers/CMSIS/Core/Include/cmsis_gcc.h **** }
 5156              		.loc 2 946 3
 5157              		.syntax unified
 5158              	@ 946 "Drivers/CMSIS/Core/Include/cmsis_gcc.h" 1
 5159 01a8 BFF34F8F 		dsb 0xF
 5160              	@ 0 "" 2
 5161              		.loc 2 947 1
 5162              		.thumb
 5163              		.syntax unified
 5164 01ac 00BF     		nop
 5165              	.LBE607:
 5166              	.LBE606:
1548:Drivers/STM32L4xx_HAL_Driver/Src/stm32l4xx_hal_nand.c ****           __DSB();
1549:Drivers/STM32L4xx_HAL_Driver/Src/stm32l4xx_hal_nand.c ****           *(__IO uint8_t *)((uint32_t)(deviceaddress | ADDR_AREA)) = ADDR_2ND_CYCLE(nandaddress);
 5167              		.loc 1 1549 70
 5168 01ae BB6A     		ldr	r3, [r7, #40]
 5169 01b0 1A0A     		lsrs	r2, r3, #8
 5170              		.loc 1 1549 29
 5171 01b2 FB69     		ldr	r3, [r7, #28]
 5172 01b4 43F40033 		orr	r3, r3, #131072
 5173              		.loc 1 1549 70
 5174 01b8 D2B2     		uxtb	r2, r2
 5175              		.loc 1 1549 68
 5176 01ba 1A70     		strb	r2, [r3]
 5177              	.LBB608:
 5178              	.LBB609:
 946:Drivers/CMSIS/Core/Include/cmsis_gcc.h **** }
 5179              		.loc 2 946 3
 5180              		.syntax unified
 5181              	@ 946 "Drivers/CMSIS/Core/Include/cmsis_gcc.h" 1
 5182 01bc BFF34F8F 		dsb 0xF
 5183              	@ 0 "" 2
 5184              		.loc 2 947 1
 5185              		.thumb
 5186              		.syntax unified
 5187 01c0 2FE0     		b	.L148
 5188              	.L149:
 5189              	.LBE609:
 5190              	.LBE608:
1550:Drivers/STM32L4xx_HAL_Driver/Src/stm32l4xx_hal_nand.c ****           __DSB();
1551:Drivers/STM32L4xx_HAL_Driver/Src/stm32l4xx_hal_nand.c ****         }
1552:Drivers/STM32L4xx_HAL_Driver/Src/stm32l4xx_hal_nand.c ****         else /* ((hnand->Config.BlockSize)*(hnand->Config.BlockNbr)) > 65535 */
1553:Drivers/STM32L4xx_HAL_Driver/Src/stm32l4xx_hal_nand.c ****         {
1554:Drivers/STM32L4xx_HAL_Driver/Src/stm32l4xx_hal_nand.c ****           *(__IO uint8_t *)((uint32_t)(deviceaddress | ADDR_AREA)) = COLUMN_1ST_CYCLE(columnaddress
 5191              		.loc 1 1554 29
 5192 01c2 FB69     		ldr	r3, [r7, #28]
 5193 01c4 43F40033 		orr	r3, r3, #131072
 5194              		.loc 1 1554 70
 5195 01c8 BA69     		ldr	r2, [r7, #24]
ARM GAS  /tmp/ccUr9KqT.s 			page 139


 5196 01ca D2B2     		uxtb	r2, r2
 5197              		.loc 1 1554 68
 5198 01cc 1A70     		strb	r2, [r3]
 5199              	.LBB610:
 5200              	.LBB611:
 946:Drivers/CMSIS/Core/Include/cmsis_gcc.h **** }
 5201              		.loc 2 946 3
 5202              		.syntax unified
 5203              	@ 946 "Drivers/CMSIS/Core/Include/cmsis_gcc.h" 1
 5204 01ce BFF34F8F 		dsb 0xF
 5205              	@ 0 "" 2
 5206              		.loc 2 947 1
 5207              		.thumb
 5208              		.syntax unified
 5209 01d2 00BF     		nop
 5210              	.LBE611:
 5211              	.LBE610:
1555:Drivers/STM32L4xx_HAL_Driver/Src/stm32l4xx_hal_nand.c ****           __DSB();
1556:Drivers/STM32L4xx_HAL_Driver/Src/stm32l4xx_hal_nand.c ****           *(__IO uint8_t *)((uint32_t)(deviceaddress | ADDR_AREA)) = COLUMN_2ND_CYCLE(columnaddress
 5212              		.loc 1 1556 70
 5213 01d4 BB69     		ldr	r3, [r7, #24]
 5214 01d6 1A0A     		lsrs	r2, r3, #8
 5215              		.loc 1 1556 29
 5216 01d8 FB69     		ldr	r3, [r7, #28]
 5217 01da 43F40033 		orr	r3, r3, #131072
 5218              		.loc 1 1556 70
 5219 01de D2B2     		uxtb	r2, r2
 5220              		.loc 1 1556 68
 5221 01e0 1A70     		strb	r2, [r3]
 5222              	.LBB612:
 5223              	.LBB613:
 946:Drivers/CMSIS/Core/Include/cmsis_gcc.h **** }
 5224              		.loc 2 946 3
 5225              		.syntax unified
 5226              	@ 946 "Drivers/CMSIS/Core/Include/cmsis_gcc.h" 1
 5227 01e2 BFF34F8F 		dsb 0xF
 5228              	@ 0 "" 2
 5229              		.loc 2 947 1
 5230              		.thumb
 5231              		.syntax unified
 5232 01e6 00BF     		nop
 5233              	.LBE613:
 5234              	.LBE612:
1557:Drivers/STM32L4xx_HAL_Driver/Src/stm32l4xx_hal_nand.c ****           __DSB();
1558:Drivers/STM32L4xx_HAL_Driver/Src/stm32l4xx_hal_nand.c ****           *(__IO uint8_t *)((uint32_t)(deviceaddress | ADDR_AREA)) = ADDR_1ST_CYCLE(nandaddress);
 5235              		.loc 1 1558 29
 5236 01e8 FB69     		ldr	r3, [r7, #28]
 5237 01ea 43F40033 		orr	r3, r3, #131072
 5238              		.loc 1 1558 70
 5239 01ee BA6A     		ldr	r2, [r7, #40]
 5240 01f0 D2B2     		uxtb	r2, r2
 5241              		.loc 1 1558 68
 5242 01f2 1A70     		strb	r2, [r3]
 5243              	.LBB614:
 5244              	.LBB615:
 946:Drivers/CMSIS/Core/Include/cmsis_gcc.h **** }
 5245              		.loc 2 946 3
ARM GAS  /tmp/ccUr9KqT.s 			page 140


 5246              		.syntax unified
 5247              	@ 946 "Drivers/CMSIS/Core/Include/cmsis_gcc.h" 1
 5248 01f4 BFF34F8F 		dsb 0xF
 5249              	@ 0 "" 2
 5250              		.loc 2 947 1
 5251              		.thumb
 5252              		.syntax unified
 5253 01f8 00BF     		nop
 5254              	.LBE615:
 5255              	.LBE614:
1559:Drivers/STM32L4xx_HAL_Driver/Src/stm32l4xx_hal_nand.c ****           __DSB();
1560:Drivers/STM32L4xx_HAL_Driver/Src/stm32l4xx_hal_nand.c ****           *(__IO uint8_t *)((uint32_t)(deviceaddress | ADDR_AREA)) = ADDR_2ND_CYCLE(nandaddress);
 5256              		.loc 1 1560 70
 5257 01fa BB6A     		ldr	r3, [r7, #40]
 5258 01fc 1A0A     		lsrs	r2, r3, #8
 5259              		.loc 1 1560 29
 5260 01fe FB69     		ldr	r3, [r7, #28]
 5261 0200 43F40033 		orr	r3, r3, #131072
 5262              		.loc 1 1560 70
 5263 0204 D2B2     		uxtb	r2, r2
 5264              		.loc 1 1560 68
 5265 0206 1A70     		strb	r2, [r3]
 5266              	.LBB616:
 5267              	.LBB617:
 946:Drivers/CMSIS/Core/Include/cmsis_gcc.h **** }
 5268              		.loc 2 946 3
 5269              		.syntax unified
 5270              	@ 946 "Drivers/CMSIS/Core/Include/cmsis_gcc.h" 1
 5271 0208 BFF34F8F 		dsb 0xF
 5272              	@ 0 "" 2
 5273              		.loc 2 947 1
 5274              		.thumb
 5275              		.syntax unified
 5276 020c 00BF     		nop
 5277              	.LBE617:
 5278              	.LBE616:
1561:Drivers/STM32L4xx_HAL_Driver/Src/stm32l4xx_hal_nand.c ****           __DSB();
1562:Drivers/STM32L4xx_HAL_Driver/Src/stm32l4xx_hal_nand.c ****           *(__IO uint8_t *)((uint32_t)(deviceaddress | ADDR_AREA)) = ADDR_3RD_CYCLE(nandaddress);
 5279              		.loc 1 1562 70
 5280 020e BB6A     		ldr	r3, [r7, #40]
 5281 0210 1A0C     		lsrs	r2, r3, #16
 5282              		.loc 1 1562 29
 5283 0212 FB69     		ldr	r3, [r7, #28]
 5284 0214 43F40033 		orr	r3, r3, #131072
 5285              		.loc 1 1562 70
 5286 0218 D2B2     		uxtb	r2, r2
 5287              		.loc 1 1562 68
 5288 021a 1A70     		strb	r2, [r3]
 5289              	.LBB618:
 5290              	.LBB619:
 946:Drivers/CMSIS/Core/Include/cmsis_gcc.h **** }
 5291              		.loc 2 946 3
 5292              		.syntax unified
 5293              	@ 946 "Drivers/CMSIS/Core/Include/cmsis_gcc.h" 1
 5294 021c BFF34F8F 		dsb 0xF
 5295              	@ 0 "" 2
 5296              		.loc 2 947 1
ARM GAS  /tmp/ccUr9KqT.s 			page 141


 5297              		.thumb
 5298              		.syntax unified
 5299 0220 00BF     		nop
 5300              	.L148:
 5301              	.LBE619:
 5302              	.LBE618:
1563:Drivers/STM32L4xx_HAL_Driver/Src/stm32l4xx_hal_nand.c ****           __DSB();
1564:Drivers/STM32L4xx_HAL_Driver/Src/stm32l4xx_hal_nand.c ****         }
1565:Drivers/STM32L4xx_HAL_Driver/Src/stm32l4xx_hal_nand.c ****       }
1566:Drivers/STM32L4xx_HAL_Driver/Src/stm32l4xx_hal_nand.c **** 
1567:Drivers/STM32L4xx_HAL_Driver/Src/stm32l4xx_hal_nand.c ****       /* Write data to memory */
1568:Drivers/STM32L4xx_HAL_Driver/Src/stm32l4xx_hal_nand.c ****       for (index = 0U; index < hnand->Config.SpareAreaSize; index++)
 5303              		.loc 1 1568 18
 5304 0222 0023     		movs	r3, #0
 5305 0224 FB62     		str	r3, [r7, #44]
 5306              		.loc 1 1568 7
 5307 0226 0CE0     		b	.L150
 5308              	.L151:
1569:Drivers/STM32L4xx_HAL_Driver/Src/stm32l4xx_hal_nand.c ****       {
1570:Drivers/STM32L4xx_HAL_Driver/Src/stm32l4xx_hal_nand.c ****         *(__IO uint8_t *)deviceaddress = *buff;
 5309              		.loc 1 1570 10
 5310 0228 FB69     		ldr	r3, [r7, #28]
 5311              		.loc 1 1570 42
 5312 022a 3A6A     		ldr	r2, [r7, #32]
 5313 022c 1278     		ldrb	r2, [r2]	@ zero_extendqisi2
 5314              		.loc 1 1570 40
 5315 022e 1A70     		strb	r2, [r3]
1571:Drivers/STM32L4xx_HAL_Driver/Src/stm32l4xx_hal_nand.c ****         buff++;
 5316              		.loc 1 1571 13
 5317 0230 3B6A     		ldr	r3, [r7, #32]
 5318 0232 0133     		adds	r3, r3, #1
 5319 0234 3B62     		str	r3, [r7, #32]
 5320              	.LBB620:
 5321              	.LBB621:
 946:Drivers/CMSIS/Core/Include/cmsis_gcc.h **** }
 5322              		.loc 2 946 3
 5323              		.syntax unified
 5324              	@ 946 "Drivers/CMSIS/Core/Include/cmsis_gcc.h" 1
 5325 0236 BFF34F8F 		dsb 0xF
 5326              	@ 0 "" 2
 5327              		.loc 2 947 1
 5328              		.thumb
 5329              		.syntax unified
 5330 023a 00BF     		nop
 5331              	.LBE621:
 5332              	.LBE620:
1568:Drivers/STM32L4xx_HAL_Driver/Src/stm32l4xx_hal_nand.c ****       {
 5333              		.loc 1 1568 66 discriminator 3
 5334 023c FB6A     		ldr	r3, [r7, #44]
 5335 023e 0133     		adds	r3, r3, #1
 5336 0240 FB62     		str	r3, [r7, #44]
 5337              	.L150:
1568:Drivers/STM32L4xx_HAL_Driver/Src/stm32l4xx_hal_nand.c ****       {
 5338              		.loc 1 1568 45 discriminator 1
 5339 0242 FB68     		ldr	r3, [r7, #12]
 5340 0244 9B6A     		ldr	r3, [r3, #40]
1568:Drivers/STM32L4xx_HAL_Driver/Src/stm32l4xx_hal_nand.c ****       {
ARM GAS  /tmp/ccUr9KqT.s 			page 142


 5341              		.loc 1 1568 30 discriminator 1
 5342 0246 FA6A     		ldr	r2, [r7, #44]
 5343 0248 9A42     		cmp	r2, r3
 5344 024a EDD3     		bcc	.L151
1572:Drivers/STM32L4xx_HAL_Driver/Src/stm32l4xx_hal_nand.c ****         __DSB();
1573:Drivers/STM32L4xx_HAL_Driver/Src/stm32l4xx_hal_nand.c ****       }
1574:Drivers/STM32L4xx_HAL_Driver/Src/stm32l4xx_hal_nand.c **** 
1575:Drivers/STM32L4xx_HAL_Driver/Src/stm32l4xx_hal_nand.c ****       *(__IO uint8_t *)((uint32_t)(deviceaddress | CMD_AREA)) = NAND_CMD_WRITE_TRUE1;
 5345              		.loc 1 1575 25
 5346 024c FB69     		ldr	r3, [r7, #28]
 5347 024e 43F48033 		orr	r3, r3, #65536
 5348              		.loc 1 1575 63
 5349 0252 1022     		movs	r2, #16
 5350 0254 1A70     		strb	r2, [r3]
 5351              	.LBB622:
 5352              	.LBB623:
 946:Drivers/CMSIS/Core/Include/cmsis_gcc.h **** }
 5353              		.loc 2 946 3
 5354              		.syntax unified
 5355              	@ 946 "Drivers/CMSIS/Core/Include/cmsis_gcc.h" 1
 5356 0256 BFF34F8F 		dsb 0xF
 5357              	@ 0 "" 2
 5358              		.loc 2 947 1
 5359              		.thumb
 5360              		.syntax unified
 5361 025a 00BF     		nop
 5362              	.LBE623:
 5363              	.LBE622:
1576:Drivers/STM32L4xx_HAL_Driver/Src/stm32l4xx_hal_nand.c ****       __DSB();
1577:Drivers/STM32L4xx_HAL_Driver/Src/stm32l4xx_hal_nand.c **** 
1578:Drivers/STM32L4xx_HAL_Driver/Src/stm32l4xx_hal_nand.c ****       /* Get tick */
1579:Drivers/STM32L4xx_HAL_Driver/Src/stm32l4xx_hal_nand.c ****       tickstart = HAL_GetTick();
 5364              		.loc 1 1579 19
 5365 025c FFF7FEFF 		bl	HAL_GetTick
 5366 0260 7861     		str	r0, [r7, #20]
1580:Drivers/STM32L4xx_HAL_Driver/Src/stm32l4xx_hal_nand.c **** 
1581:Drivers/STM32L4xx_HAL_Driver/Src/stm32l4xx_hal_nand.c ****       /* Read status until NAND is ready */
1582:Drivers/STM32L4xx_HAL_Driver/Src/stm32l4xx_hal_nand.c ****       while (HAL_NAND_Read_Status(hnand) != NAND_READY)
 5367              		.loc 1 1582 13
 5368 0262 11E0     		b	.L152
 5369              	.L153:
1583:Drivers/STM32L4xx_HAL_Driver/Src/stm32l4xx_hal_nand.c ****       {
1584:Drivers/STM32L4xx_HAL_Driver/Src/stm32l4xx_hal_nand.c ****         if ((HAL_GetTick() - tickstart) > NAND_WRITE_TIMEOUT)
 5370              		.loc 1 1584 14
 5371 0264 FFF7FEFF 		bl	HAL_GetTick
 5372 0268 0246     		mov	r2, r0
 5373              		.loc 1 1584 28 discriminator 1
 5374 026a 7B69     		ldr	r3, [r7, #20]
 5375 026c D31A     		subs	r3, r2, r3
 5376              		.loc 1 1584 12 discriminator 1
 5377 026e B3F1807F 		cmp	r3, #16777216
 5378 0272 09D9     		bls	.L152
1585:Drivers/STM32L4xx_HAL_Driver/Src/stm32l4xx_hal_nand.c ****         {
1586:Drivers/STM32L4xx_HAL_Driver/Src/stm32l4xx_hal_nand.c ****           /* Update the NAND controller state */
1587:Drivers/STM32L4xx_HAL_Driver/Src/stm32l4xx_hal_nand.c ****           hnand->State = HAL_NAND_STATE_ERROR;
 5379              		.loc 1 1587 24
 5380 0274 FB68     		ldr	r3, [r7, #12]
ARM GAS  /tmp/ccUr9KqT.s 			page 143


 5381 0276 0322     		movs	r2, #3
 5382 0278 83F82120 		strb	r2, [r3, #33]
1588:Drivers/STM32L4xx_HAL_Driver/Src/stm32l4xx_hal_nand.c **** 
1589:Drivers/STM32L4xx_HAL_Driver/Src/stm32l4xx_hal_nand.c ****           /* Process unlocked */
1590:Drivers/STM32L4xx_HAL_Driver/Src/stm32l4xx_hal_nand.c ****           __HAL_UNLOCK(hnand);
 5383              		.loc 1 1590 11
 5384 027c FB68     		ldr	r3, [r7, #12]
 5385 027e 0022     		movs	r2, #0
 5386 0280 83F82020 		strb	r2, [r3, #32]
1591:Drivers/STM32L4xx_HAL_Driver/Src/stm32l4xx_hal_nand.c **** 
1592:Drivers/STM32L4xx_HAL_Driver/Src/stm32l4xx_hal_nand.c ****           return HAL_TIMEOUT;
 5387              		.loc 1 1592 18
 5388 0284 0323     		movs	r3, #3
 5389 0286 23E0     		b	.L142
 5390              	.L152:
1582:Drivers/STM32L4xx_HAL_Driver/Src/stm32l4xx_hal_nand.c ****       {
 5391              		.loc 1 1582 14
 5392 0288 F868     		ldr	r0, [r7, #12]
 5393 028a FFF7FEFF 		bl	HAL_NAND_Read_Status
 5394 028e 0346     		mov	r3, r0
1582:Drivers/STM32L4xx_HAL_Driver/Src/stm32l4xx_hal_nand.c ****       {
 5395              		.loc 1 1582 42 discriminator 1
 5396 0290 402B     		cmp	r3, #64
 5397 0292 E7D1     		bne	.L153
1593:Drivers/STM32L4xx_HAL_Driver/Src/stm32l4xx_hal_nand.c ****         }
1594:Drivers/STM32L4xx_HAL_Driver/Src/stm32l4xx_hal_nand.c ****       }
1595:Drivers/STM32L4xx_HAL_Driver/Src/stm32l4xx_hal_nand.c **** 
1596:Drivers/STM32L4xx_HAL_Driver/Src/stm32l4xx_hal_nand.c ****       /* Decrement spare areas to write */
1597:Drivers/STM32L4xx_HAL_Driver/Src/stm32l4xx_hal_nand.c ****       nbspare--;
 5398              		.loc 1 1597 14
 5399 0294 7B6A     		ldr	r3, [r7, #36]
 5400 0296 013B     		subs	r3, r3, #1
 5401 0298 7B62     		str	r3, [r7, #36]
1598:Drivers/STM32L4xx_HAL_Driver/Src/stm32l4xx_hal_nand.c **** 
1599:Drivers/STM32L4xx_HAL_Driver/Src/stm32l4xx_hal_nand.c ****       /* Increment the NAND address */
1600:Drivers/STM32L4xx_HAL_Driver/Src/stm32l4xx_hal_nand.c ****       nandaddress = (uint32_t)(nandaddress + 1U);
 5402              		.loc 1 1600 19
 5403 029a BB6A     		ldr	r3, [r7, #40]
 5404 029c 0133     		adds	r3, r3, #1
 5405 029e BB62     		str	r3, [r7, #40]
 5406              	.L145:
1501:Drivers/STM32L4xx_HAL_Driver/Src/stm32l4xx_hal_nand.c ****     {
 5407              		.loc 1 1501 28
 5408 02a0 7B6A     		ldr	r3, [r7, #36]
 5409 02a2 002B     		cmp	r3, #0
 5410 02a4 09D0     		beq	.L154
1501:Drivers/STM32L4xx_HAL_Driver/Src/stm32l4xx_hal_nand.c ****     {
 5411              		.loc 1 1501 61 discriminator 1
 5412 02a6 FB68     		ldr	r3, [r7, #12]
 5413 02a8 DB6A     		ldr	r3, [r3, #44]
1501:Drivers/STM32L4xx_HAL_Driver/Src/stm32l4xx_hal_nand.c ****     {
 5414              		.loc 1 1501 89 discriminator 1
 5415 02aa FA68     		ldr	r2, [r7, #12]
 5416 02ac 126B     		ldr	r2, [r2, #48]
1501:Drivers/STM32L4xx_HAL_Driver/Src/stm32l4xx_hal_nand.c ****     {
 5417              		.loc 1 1501 73 discriminator 1
 5418 02ae 02FB03F3 		mul	r3, r2, r3
ARM GAS  /tmp/ccUr9KqT.s 			page 144


1501:Drivers/STM32L4xx_HAL_Driver/Src/stm32l4xx_hal_nand.c ****     {
 5419              		.loc 1 1501 28 discriminator 1
 5420 02b2 BA6A     		ldr	r2, [r7, #40]
 5421 02b4 9A42     		cmp	r2, r3
 5422 02b6 FFF4E7AE 		bcc	.L155
 5423              	.L154:
1601:Drivers/STM32L4xx_HAL_Driver/Src/stm32l4xx_hal_nand.c ****     }
1602:Drivers/STM32L4xx_HAL_Driver/Src/stm32l4xx_hal_nand.c **** 
1603:Drivers/STM32L4xx_HAL_Driver/Src/stm32l4xx_hal_nand.c ****     /* Update the NAND controller state */
1604:Drivers/STM32L4xx_HAL_Driver/Src/stm32l4xx_hal_nand.c ****     hnand->State = HAL_NAND_STATE_READY;
 5424              		.loc 1 1604 18
 5425 02ba FB68     		ldr	r3, [r7, #12]
 5426 02bc 0122     		movs	r2, #1
 5427 02be 83F82120 		strb	r2, [r3, #33]
1605:Drivers/STM32L4xx_HAL_Driver/Src/stm32l4xx_hal_nand.c **** 
1606:Drivers/STM32L4xx_HAL_Driver/Src/stm32l4xx_hal_nand.c ****     /* Process unlocked */
1607:Drivers/STM32L4xx_HAL_Driver/Src/stm32l4xx_hal_nand.c ****     __HAL_UNLOCK(hnand);
 5428              		.loc 1 1607 5
 5429 02c2 FB68     		ldr	r3, [r7, #12]
 5430 02c4 0022     		movs	r2, #0
 5431 02c6 83F82020 		strb	r2, [r3, #32]
1608:Drivers/STM32L4xx_HAL_Driver/Src/stm32l4xx_hal_nand.c ****   }
1609:Drivers/STM32L4xx_HAL_Driver/Src/stm32l4xx_hal_nand.c ****   else
1610:Drivers/STM32L4xx_HAL_Driver/Src/stm32l4xx_hal_nand.c ****   {
1611:Drivers/STM32L4xx_HAL_Driver/Src/stm32l4xx_hal_nand.c ****     return HAL_ERROR;
1612:Drivers/STM32L4xx_HAL_Driver/Src/stm32l4xx_hal_nand.c ****   }
1613:Drivers/STM32L4xx_HAL_Driver/Src/stm32l4xx_hal_nand.c **** 
1614:Drivers/STM32L4xx_HAL_Driver/Src/stm32l4xx_hal_nand.c ****   return HAL_OK;
 5432              		.loc 1 1614 10
 5433 02ca 0023     		movs	r3, #0
 5434 02cc 00E0     		b	.L142
 5435              	.L143:
1611:Drivers/STM32L4xx_HAL_Driver/Src/stm32l4xx_hal_nand.c ****   }
 5436              		.loc 1 1611 12
 5437 02ce 0123     		movs	r3, #1
 5438              	.L142:
1615:Drivers/STM32L4xx_HAL_Driver/Src/stm32l4xx_hal_nand.c **** }
 5439              		.loc 1 1615 1
 5440 02d0 1846     		mov	r0, r3
 5441 02d2 3037     		adds	r7, r7, #48
 5442              		.cfi_def_cfa_offset 8
 5443 02d4 BD46     		mov	sp, r7
 5444              		.cfi_def_cfa_register 13
 5445              		@ sp needed
 5446 02d6 80BD     		pop	{r7, pc}
 5447              		.cfi_endproc
 5448              	.LFE460:
 5450              		.section	.text.HAL_NAND_Write_SpareArea_16b,"ax",%progbits
 5451              		.align	1
 5452              		.global	HAL_NAND_Write_SpareArea_16b
 5453              		.syntax unified
 5454              		.thumb
 5455              		.thumb_func
 5457              	HAL_NAND_Write_SpareArea_16b:
 5458              	.LFB461:
1616:Drivers/STM32L4xx_HAL_Driver/Src/stm32l4xx_hal_nand.c **** 
1617:Drivers/STM32L4xx_HAL_Driver/Src/stm32l4xx_hal_nand.c **** /**
ARM GAS  /tmp/ccUr9KqT.s 			page 145


1618:Drivers/STM32L4xx_HAL_Driver/Src/stm32l4xx_hal_nand.c ****   * @brief  Write Spare area(s) to NAND memory (16-bits addressing)
1619:Drivers/STM32L4xx_HAL_Driver/Src/stm32l4xx_hal_nand.c ****   * @param  hnand pointer to a NAND_HandleTypeDef structure that contains
1620:Drivers/STM32L4xx_HAL_Driver/Src/stm32l4xx_hal_nand.c ****   *                the configuration information for NAND module.
1621:Drivers/STM32L4xx_HAL_Driver/Src/stm32l4xx_hal_nand.c ****   * @param  pAddress  pointer to NAND address structure
1622:Drivers/STM32L4xx_HAL_Driver/Src/stm32l4xx_hal_nand.c ****   * @param  pBuffer  pointer to source buffer to write. pBuffer should be 16bits aligned.
1623:Drivers/STM32L4xx_HAL_Driver/Src/stm32l4xx_hal_nand.c ****   * @param  NumSpareAreaTowrite   number of spare areas to write to block
1624:Drivers/STM32L4xx_HAL_Driver/Src/stm32l4xx_hal_nand.c ****   * @retval HAL status
1625:Drivers/STM32L4xx_HAL_Driver/Src/stm32l4xx_hal_nand.c ****   */
1626:Drivers/STM32L4xx_HAL_Driver/Src/stm32l4xx_hal_nand.c **** HAL_StatusTypeDef HAL_NAND_Write_SpareArea_16b(NAND_HandleTypeDef *hnand, const NAND_AddressTypeDef
1627:Drivers/STM32L4xx_HAL_Driver/Src/stm32l4xx_hal_nand.c ****                                                const uint16_t *pBuffer, uint32_t NumSpareAreaTowrit
1628:Drivers/STM32L4xx_HAL_Driver/Src/stm32l4xx_hal_nand.c **** {
 5459              		.loc 1 1628 1
 5460              		.cfi_startproc
 5461              		@ args = 0, pretend = 0, frame = 48
 5462              		@ frame_needed = 1, uses_anonymous_args = 0
 5463 0000 80B5     		push	{r7, lr}
 5464              		.cfi_def_cfa_offset 8
 5465              		.cfi_offset 7, -8
 5466              		.cfi_offset 14, -4
 5467 0002 8CB0     		sub	sp, sp, #48
 5468              		.cfi_def_cfa_offset 56
 5469 0004 00AF     		add	r7, sp, #0
 5470              		.cfi_def_cfa_register 7
 5471 0006 F860     		str	r0, [r7, #12]
 5472 0008 B960     		str	r1, [r7, #8]
 5473 000a 7A60     		str	r2, [r7, #4]
 5474 000c 3B60     		str	r3, [r7]
1629:Drivers/STM32L4xx_HAL_Driver/Src/stm32l4xx_hal_nand.c ****   uint32_t index;
1630:Drivers/STM32L4xx_HAL_Driver/Src/stm32l4xx_hal_nand.c ****   uint32_t tickstart;
1631:Drivers/STM32L4xx_HAL_Driver/Src/stm32l4xx_hal_nand.c ****   uint32_t deviceaddress;
1632:Drivers/STM32L4xx_HAL_Driver/Src/stm32l4xx_hal_nand.c ****   uint32_t nandaddress;
1633:Drivers/STM32L4xx_HAL_Driver/Src/stm32l4xx_hal_nand.c ****   uint32_t columnaddress;
1634:Drivers/STM32L4xx_HAL_Driver/Src/stm32l4xx_hal_nand.c ****   uint32_t nbspare = NumSpareAreaTowrite;
 5475              		.loc 1 1634 12
 5476 000e 3B68     		ldr	r3, [r7]
 5477 0010 7B62     		str	r3, [r7, #36]
1635:Drivers/STM32L4xx_HAL_Driver/Src/stm32l4xx_hal_nand.c ****   const uint16_t *buff = pBuffer;
 5478              		.loc 1 1635 19
 5479 0012 7B68     		ldr	r3, [r7, #4]
 5480 0014 3B62     		str	r3, [r7, #32]
1636:Drivers/STM32L4xx_HAL_Driver/Src/stm32l4xx_hal_nand.c **** 
1637:Drivers/STM32L4xx_HAL_Driver/Src/stm32l4xx_hal_nand.c ****   /* Check the NAND controller state */
1638:Drivers/STM32L4xx_HAL_Driver/Src/stm32l4xx_hal_nand.c ****   if (hnand->State == HAL_NAND_STATE_BUSY)
 5481              		.loc 1 1638 12
 5482 0016 FB68     		ldr	r3, [r7, #12]
 5483 0018 93F82130 		ldrb	r3, [r3, #33]
 5484 001c DBB2     		uxtb	r3, r3
 5485              		.loc 1 1638 6
 5486 001e 022B     		cmp	r3, #2
 5487 0020 01D1     		bne	.L158
1639:Drivers/STM32L4xx_HAL_Driver/Src/stm32l4xx_hal_nand.c ****   {
1640:Drivers/STM32L4xx_HAL_Driver/Src/stm32l4xx_hal_nand.c ****     return HAL_BUSY;
 5488              		.loc 1 1640 12
 5489 0022 0223     		movs	r3, #2
 5490 0024 54E1     		b	.L159
 5491              	.L158:
1641:Drivers/STM32L4xx_HAL_Driver/Src/stm32l4xx_hal_nand.c ****   }
ARM GAS  /tmp/ccUr9KqT.s 			page 146


1642:Drivers/STM32L4xx_HAL_Driver/Src/stm32l4xx_hal_nand.c ****   else if (hnand->State == HAL_NAND_STATE_READY)
 5492              		.loc 1 1642 17
 5493 0026 FB68     		ldr	r3, [r7, #12]
 5494 0028 93F82130 		ldrb	r3, [r3, #33]
 5495 002c DBB2     		uxtb	r3, r3
 5496              		.loc 1 1642 11
 5497 002e 012B     		cmp	r3, #1
 5498 0030 40F04D81 		bne	.L160
1643:Drivers/STM32L4xx_HAL_Driver/Src/stm32l4xx_hal_nand.c ****   {
1644:Drivers/STM32L4xx_HAL_Driver/Src/stm32l4xx_hal_nand.c ****     /* Process Locked */
1645:Drivers/STM32L4xx_HAL_Driver/Src/stm32l4xx_hal_nand.c ****     __HAL_LOCK(hnand);
 5499              		.loc 1 1645 5
 5500 0034 FB68     		ldr	r3, [r7, #12]
 5501 0036 93F82030 		ldrb	r3, [r3, #32]	@ zero_extendqisi2
 5502 003a 012B     		cmp	r3, #1
 5503 003c 01D1     		bne	.L161
 5504              		.loc 1 1645 5 is_stmt 0 discriminator 1
 5505 003e 0223     		movs	r3, #2
 5506              		.loc 1 1645 5
 5507 0040 46E1     		b	.L159
 5508              	.L161:
 5509              		.loc 1 1645 5 discriminator 2
 5510 0042 FB68     		ldr	r3, [r7, #12]
 5511 0044 0122     		movs	r2, #1
 5512 0046 83F82020 		strb	r2, [r3, #32]
1646:Drivers/STM32L4xx_HAL_Driver/Src/stm32l4xx_hal_nand.c **** 
1647:Drivers/STM32L4xx_HAL_Driver/Src/stm32l4xx_hal_nand.c ****     /* Update the NAND controller state */
1648:Drivers/STM32L4xx_HAL_Driver/Src/stm32l4xx_hal_nand.c ****     hnand->State = HAL_NAND_STATE_BUSY;
 5513              		.loc 1 1648 18 is_stmt 1
 5514 004a FB68     		ldr	r3, [r7, #12]
 5515 004c 0222     		movs	r2, #2
 5516 004e 83F82120 		strb	r2, [r3, #33]
1649:Drivers/STM32L4xx_HAL_Driver/Src/stm32l4xx_hal_nand.c **** 
1650:Drivers/STM32L4xx_HAL_Driver/Src/stm32l4xx_hal_nand.c ****     /* Identify the device address */
1651:Drivers/STM32L4xx_HAL_Driver/Src/stm32l4xx_hal_nand.c ****     deviceaddress = NAND_DEVICE;
 5517              		.loc 1 1651 19
 5518 0052 4FF00043 		mov	r3, #-2147483648
 5519 0056 FB61     		str	r3, [r7, #28]
1652:Drivers/STM32L4xx_HAL_Driver/Src/stm32l4xx_hal_nand.c **** 
1653:Drivers/STM32L4xx_HAL_Driver/Src/stm32l4xx_hal_nand.c ****     /* NAND raw address calculation */
1654:Drivers/STM32L4xx_HAL_Driver/Src/stm32l4xx_hal_nand.c ****     nandaddress = ARRAY_ADDRESS(pAddress, hnand);
 5520              		.loc 1 1654 19
 5521 0058 BB68     		ldr	r3, [r7, #8]
 5522 005a 1B88     		ldrh	r3, [r3]
 5523 005c 1946     		mov	r1, r3
 5524 005e BB68     		ldr	r3, [r7, #8]
 5525 0060 9B88     		ldrh	r3, [r3, #4]
 5526 0062 1A46     		mov	r2, r3
 5527 0064 BB68     		ldr	r3, [r7, #8]
 5528 0066 5B88     		ldrh	r3, [r3, #2]
 5529 0068 1846     		mov	r0, r3
 5530 006a FB68     		ldr	r3, [r7, #12]
 5531 006c 9B6B     		ldr	r3, [r3, #56]
 5532 006e 00FB03F3 		mul	r3, r0, r3
 5533 0072 1344     		add	r3, r3, r2
 5534 0074 FA68     		ldr	r2, [r7, #12]
 5535 0076 D26A     		ldr	r2, [r2, #44]
ARM GAS  /tmp/ccUr9KqT.s 			page 147


 5536 0078 02FB03F3 		mul	r3, r2, r3
 5537              		.loc 1 1654 17
 5538 007c 0B44     		add	r3, r3, r1
 5539 007e BB62     		str	r3, [r7, #40]
1655:Drivers/STM32L4xx_HAL_Driver/Src/stm32l4xx_hal_nand.c **** 
1656:Drivers/STM32L4xx_HAL_Driver/Src/stm32l4xx_hal_nand.c ****     /* Column in page address */
1657:Drivers/STM32L4xx_HAL_Driver/Src/stm32l4xx_hal_nand.c ****     columnaddress = (uint32_t)(COLUMN_ADDRESS(hnand));
 5540              		.loc 1 1657 19
 5541 0080 FB68     		ldr	r3, [r7, #12]
 5542 0082 5B6A     		ldr	r3, [r3, #36]
 5543 0084 BB61     		str	r3, [r7, #24]
1658:Drivers/STM32L4xx_HAL_Driver/Src/stm32l4xx_hal_nand.c **** 
1659:Drivers/STM32L4xx_HAL_Driver/Src/stm32l4xx_hal_nand.c ****     /* Spare area(s) write loop */
1660:Drivers/STM32L4xx_HAL_Driver/Src/stm32l4xx_hal_nand.c ****     while ((nbspare != 0U) && (nandaddress < ((hnand->Config.BlockSize) * (hnand->Config.BlockNbr))
 5544              		.loc 1 1660 11
 5545 0086 0BE1     		b	.L162
 5546              	.L172:
1661:Drivers/STM32L4xx_HAL_Driver/Src/stm32l4xx_hal_nand.c ****     {
1662:Drivers/STM32L4xx_HAL_Driver/Src/stm32l4xx_hal_nand.c ****       /* Cards with page size <= 512 bytes */
1663:Drivers/STM32L4xx_HAL_Driver/Src/stm32l4xx_hal_nand.c ****       if ((hnand->Config.PageSize) <= 512U)
 5547              		.loc 1 1663 25
 5548 0088 FB68     		ldr	r3, [r7, #12]
 5549 008a 5B6A     		ldr	r3, [r3, #36]
 5550              		.loc 1 1663 10
 5551 008c B3F5007F 		cmp	r3, #512
 5552 0090 58D8     		bhi	.L163
1664:Drivers/STM32L4xx_HAL_Driver/Src/stm32l4xx_hal_nand.c ****       {
1665:Drivers/STM32L4xx_HAL_Driver/Src/stm32l4xx_hal_nand.c ****         /* Send write Spare area command sequence */
1666:Drivers/STM32L4xx_HAL_Driver/Src/stm32l4xx_hal_nand.c ****         *(__IO uint8_t *)((uint32_t)(deviceaddress | CMD_AREA)) = NAND_CMD_AREA_C;
 5553              		.loc 1 1666 27
 5554 0092 FB69     		ldr	r3, [r7, #28]
 5555 0094 43F48033 		orr	r3, r3, #65536
 5556              		.loc 1 1666 65
 5557 0098 5022     		movs	r2, #80
 5558 009a 1A70     		strb	r2, [r3]
 5559              	.LBB624:
 5560              	.LBB625:
 946:Drivers/CMSIS/Core/Include/cmsis_gcc.h **** }
 5561              		.loc 2 946 3
 5562              		.syntax unified
 5563              	@ 946 "Drivers/CMSIS/Core/Include/cmsis_gcc.h" 1
 5564 009c BFF34F8F 		dsb 0xF
 5565              	@ 0 "" 2
 5566              		.loc 2 947 1
 5567              		.thumb
 5568              		.syntax unified
 5569 00a0 00BF     		nop
 5570              	.LBE625:
 5571              	.LBE624:
1667:Drivers/STM32L4xx_HAL_Driver/Src/stm32l4xx_hal_nand.c ****         __DSB();
1668:Drivers/STM32L4xx_HAL_Driver/Src/stm32l4xx_hal_nand.c ****         *(__IO uint8_t *)((uint32_t)(deviceaddress | CMD_AREA)) = NAND_CMD_WRITE0;
 5572              		.loc 1 1668 27
 5573 00a2 FB69     		ldr	r3, [r7, #28]
 5574 00a4 43F48033 		orr	r3, r3, #65536
 5575              		.loc 1 1668 65
 5576 00a8 8022     		movs	r2, #128
 5577 00aa 1A70     		strb	r2, [r3]
ARM GAS  /tmp/ccUr9KqT.s 			page 148


 5578              	.LBB626:
 5579              	.LBB627:
 946:Drivers/CMSIS/Core/Include/cmsis_gcc.h **** }
 5580              		.loc 2 946 3
 5581              		.syntax unified
 5582              	@ 946 "Drivers/CMSIS/Core/Include/cmsis_gcc.h" 1
 5583 00ac BFF34F8F 		dsb 0xF
 5584              	@ 0 "" 2
 5585              		.loc 2 947 1
 5586              		.thumb
 5587              		.syntax unified
 5588 00b0 00BF     		nop
 5589              	.LBE627:
 5590              	.LBE626:
1669:Drivers/STM32L4xx_HAL_Driver/Src/stm32l4xx_hal_nand.c ****         __DSB();
1670:Drivers/STM32L4xx_HAL_Driver/Src/stm32l4xx_hal_nand.c **** 
1671:Drivers/STM32L4xx_HAL_Driver/Src/stm32l4xx_hal_nand.c ****         if (((hnand->Config.BlockSize) * (hnand->Config.BlockNbr)) <= 65535U)
 5591              		.loc 1 1671 28
 5592 00b2 FB68     		ldr	r3, [r7, #12]
 5593 00b4 DB6A     		ldr	r3, [r3, #44]
 5594              		.loc 1 1671 56
 5595 00b6 FA68     		ldr	r2, [r7, #12]
 5596 00b8 126B     		ldr	r2, [r2, #48]
 5597              		.loc 1 1671 40
 5598 00ba 02FB03F3 		mul	r3, r2, r3
 5599              		.loc 1 1671 12
 5600 00be B3F5803F 		cmp	r3, #65536
 5601 00c2 1AD2     		bcs	.L164
1672:Drivers/STM32L4xx_HAL_Driver/Src/stm32l4xx_hal_nand.c ****         {
1673:Drivers/STM32L4xx_HAL_Driver/Src/stm32l4xx_hal_nand.c ****           *(__IO uint8_t *)((uint32_t)(deviceaddress | ADDR_AREA)) = 0x00U;
 5602              		.loc 1 1673 29
 5603 00c4 FB69     		ldr	r3, [r7, #28]
 5604 00c6 43F40033 		orr	r3, r3, #131072
 5605              		.loc 1 1673 68
 5606 00ca 0022     		movs	r2, #0
 5607 00cc 1A70     		strb	r2, [r3]
 5608              	.LBB628:
 5609              	.LBB629:
 946:Drivers/CMSIS/Core/Include/cmsis_gcc.h **** }
 5610              		.loc 2 946 3
 5611              		.syntax unified
 5612              	@ 946 "Drivers/CMSIS/Core/Include/cmsis_gcc.h" 1
 5613 00ce BFF34F8F 		dsb 0xF
 5614              	@ 0 "" 2
 5615              		.loc 2 947 1
 5616              		.thumb
 5617              		.syntax unified
 5618 00d2 00BF     		nop
 5619              	.LBE629:
 5620              	.LBE628:
1674:Drivers/STM32L4xx_HAL_Driver/Src/stm32l4xx_hal_nand.c ****           __DSB();
1675:Drivers/STM32L4xx_HAL_Driver/Src/stm32l4xx_hal_nand.c ****           *(__IO uint8_t *)((uint32_t)(deviceaddress | ADDR_AREA)) = ADDR_1ST_CYCLE(nandaddress);
 5621              		.loc 1 1675 29
 5622 00d4 FB69     		ldr	r3, [r7, #28]
 5623 00d6 43F40033 		orr	r3, r3, #131072
 5624              		.loc 1 1675 70
 5625 00da BA6A     		ldr	r2, [r7, #40]
ARM GAS  /tmp/ccUr9KqT.s 			page 149


 5626 00dc D2B2     		uxtb	r2, r2
 5627              		.loc 1 1675 68
 5628 00de 1A70     		strb	r2, [r3]
 5629              	.LBB630:
 5630              	.LBB631:
 946:Drivers/CMSIS/Core/Include/cmsis_gcc.h **** }
 5631              		.loc 2 946 3
 5632              		.syntax unified
 5633              	@ 946 "Drivers/CMSIS/Core/Include/cmsis_gcc.h" 1
 5634 00e0 BFF34F8F 		dsb 0xF
 5635              	@ 0 "" 2
 5636              		.loc 2 947 1
 5637              		.thumb
 5638              		.syntax unified
 5639 00e4 00BF     		nop
 5640              	.LBE631:
 5641              	.LBE630:
1676:Drivers/STM32L4xx_HAL_Driver/Src/stm32l4xx_hal_nand.c ****           __DSB();
1677:Drivers/STM32L4xx_HAL_Driver/Src/stm32l4xx_hal_nand.c ****           *(__IO uint8_t *)((uint32_t)(deviceaddress | ADDR_AREA)) = ADDR_2ND_CYCLE(nandaddress);
 5642              		.loc 1 1677 70
 5643 00e6 BB6A     		ldr	r3, [r7, #40]
 5644 00e8 1A0A     		lsrs	r2, r3, #8
 5645              		.loc 1 1677 29
 5646 00ea FB69     		ldr	r3, [r7, #28]
 5647 00ec 43F40033 		orr	r3, r3, #131072
 5648              		.loc 1 1677 70
 5649 00f0 D2B2     		uxtb	r2, r2
 5650              		.loc 1 1677 68
 5651 00f2 1A70     		strb	r2, [r3]
 5652              	.LBB632:
 5653              	.LBB633:
 946:Drivers/CMSIS/Core/Include/cmsis_gcc.h **** }
 5654              		.loc 2 946 3
 5655              		.syntax unified
 5656              	@ 946 "Drivers/CMSIS/Core/Include/cmsis_gcc.h" 1
 5657 00f4 BFF34F8F 		dsb 0xF
 5658              	@ 0 "" 2
 5659              		.loc 2 947 1
 5660              		.thumb
 5661              		.syntax unified
 5662 00f8 93E0     		b	.L165
 5663              	.L164:
 5664              	.LBE633:
 5665              	.LBE632:
1678:Drivers/STM32L4xx_HAL_Driver/Src/stm32l4xx_hal_nand.c ****           __DSB();
1679:Drivers/STM32L4xx_HAL_Driver/Src/stm32l4xx_hal_nand.c ****         }
1680:Drivers/STM32L4xx_HAL_Driver/Src/stm32l4xx_hal_nand.c ****         else /* ((hnand->Config.BlockSize)*(hnand->Config.BlockNbr)) > 65535 */
1681:Drivers/STM32L4xx_HAL_Driver/Src/stm32l4xx_hal_nand.c ****         {
1682:Drivers/STM32L4xx_HAL_Driver/Src/stm32l4xx_hal_nand.c ****           *(__IO uint8_t *)((uint32_t)(deviceaddress | ADDR_AREA)) = 0x00U;
 5666              		.loc 1 1682 29
 5667 00fa FB69     		ldr	r3, [r7, #28]
 5668 00fc 43F40033 		orr	r3, r3, #131072
 5669              		.loc 1 1682 68
 5670 0100 0022     		movs	r2, #0
 5671 0102 1A70     		strb	r2, [r3]
 5672              	.LBB634:
 5673              	.LBB635:
ARM GAS  /tmp/ccUr9KqT.s 			page 150


 946:Drivers/CMSIS/Core/Include/cmsis_gcc.h **** }
 5674              		.loc 2 946 3
 5675              		.syntax unified
 5676              	@ 946 "Drivers/CMSIS/Core/Include/cmsis_gcc.h" 1
 5677 0104 BFF34F8F 		dsb 0xF
 5678              	@ 0 "" 2
 5679              		.loc 2 947 1
 5680              		.thumb
 5681              		.syntax unified
 5682 0108 00BF     		nop
 5683              	.LBE635:
 5684              	.LBE634:
1683:Drivers/STM32L4xx_HAL_Driver/Src/stm32l4xx_hal_nand.c ****           __DSB();
1684:Drivers/STM32L4xx_HAL_Driver/Src/stm32l4xx_hal_nand.c ****           *(__IO uint8_t *)((uint32_t)(deviceaddress | ADDR_AREA)) = ADDR_1ST_CYCLE(nandaddress);
 5685              		.loc 1 1684 29
 5686 010a FB69     		ldr	r3, [r7, #28]
 5687 010c 43F40033 		orr	r3, r3, #131072
 5688              		.loc 1 1684 70
 5689 0110 BA6A     		ldr	r2, [r7, #40]
 5690 0112 D2B2     		uxtb	r2, r2
 5691              		.loc 1 1684 68
 5692 0114 1A70     		strb	r2, [r3]
 5693              	.LBB636:
 5694              	.LBB637:
 946:Drivers/CMSIS/Core/Include/cmsis_gcc.h **** }
 5695              		.loc 2 946 3
 5696              		.syntax unified
 5697              	@ 946 "Drivers/CMSIS/Core/Include/cmsis_gcc.h" 1
 5698 0116 BFF34F8F 		dsb 0xF
 5699              	@ 0 "" 2
 5700              		.loc 2 947 1
 5701              		.thumb
 5702              		.syntax unified
 5703 011a 00BF     		nop
 5704              	.LBE637:
 5705              	.LBE636:
1685:Drivers/STM32L4xx_HAL_Driver/Src/stm32l4xx_hal_nand.c ****           __DSB();
1686:Drivers/STM32L4xx_HAL_Driver/Src/stm32l4xx_hal_nand.c ****           *(__IO uint8_t *)((uint32_t)(deviceaddress | ADDR_AREA)) = ADDR_2ND_CYCLE(nandaddress);
 5706              		.loc 1 1686 70
 5707 011c BB6A     		ldr	r3, [r7, #40]
 5708 011e 1A0A     		lsrs	r2, r3, #8
 5709              		.loc 1 1686 29
 5710 0120 FB69     		ldr	r3, [r7, #28]
 5711 0122 43F40033 		orr	r3, r3, #131072
 5712              		.loc 1 1686 70
 5713 0126 D2B2     		uxtb	r2, r2
 5714              		.loc 1 1686 68
 5715 0128 1A70     		strb	r2, [r3]
 5716              	.LBB638:
 5717              	.LBB639:
 946:Drivers/CMSIS/Core/Include/cmsis_gcc.h **** }
 5718              		.loc 2 946 3
 5719              		.syntax unified
 5720              	@ 946 "Drivers/CMSIS/Core/Include/cmsis_gcc.h" 1
 5721 012a BFF34F8F 		dsb 0xF
 5722              	@ 0 "" 2
 5723              		.loc 2 947 1
ARM GAS  /tmp/ccUr9KqT.s 			page 151


 5724              		.thumb
 5725              		.syntax unified
 5726 012e 00BF     		nop
 5727              	.LBE639:
 5728              	.LBE638:
1687:Drivers/STM32L4xx_HAL_Driver/Src/stm32l4xx_hal_nand.c ****           __DSB();
1688:Drivers/STM32L4xx_HAL_Driver/Src/stm32l4xx_hal_nand.c ****           *(__IO uint8_t *)((uint32_t)(deviceaddress | ADDR_AREA)) = ADDR_3RD_CYCLE(nandaddress);
 5729              		.loc 1 1688 70
 5730 0130 BB6A     		ldr	r3, [r7, #40]
 5731 0132 1A0C     		lsrs	r2, r3, #16
 5732              		.loc 1 1688 29
 5733 0134 FB69     		ldr	r3, [r7, #28]
 5734 0136 43F40033 		orr	r3, r3, #131072
 5735              		.loc 1 1688 70
 5736 013a D2B2     		uxtb	r2, r2
 5737              		.loc 1 1688 68
 5738 013c 1A70     		strb	r2, [r3]
 5739              	.LBB640:
 5740              	.LBB641:
 946:Drivers/CMSIS/Core/Include/cmsis_gcc.h **** }
 5741              		.loc 2 946 3
 5742              		.syntax unified
 5743              	@ 946 "Drivers/CMSIS/Core/Include/cmsis_gcc.h" 1
 5744 013e BFF34F8F 		dsb 0xF
 5745              	@ 0 "" 2
 5746              		.loc 2 947 1
 5747              		.thumb
 5748              		.syntax unified
 5749 0142 6EE0     		b	.L165
 5750              	.L163:
 5751              	.LBE641:
 5752              	.LBE640:
1689:Drivers/STM32L4xx_HAL_Driver/Src/stm32l4xx_hal_nand.c ****           __DSB();
1690:Drivers/STM32L4xx_HAL_Driver/Src/stm32l4xx_hal_nand.c ****         }
1691:Drivers/STM32L4xx_HAL_Driver/Src/stm32l4xx_hal_nand.c ****       }
1692:Drivers/STM32L4xx_HAL_Driver/Src/stm32l4xx_hal_nand.c ****       else /* (hnand->Config.PageSize) > 512 */
1693:Drivers/STM32L4xx_HAL_Driver/Src/stm32l4xx_hal_nand.c ****       {
1694:Drivers/STM32L4xx_HAL_Driver/Src/stm32l4xx_hal_nand.c ****         /* Send write Spare area command sequence */
1695:Drivers/STM32L4xx_HAL_Driver/Src/stm32l4xx_hal_nand.c ****         *(__IO uint8_t *)((uint32_t)(deviceaddress | CMD_AREA)) = NAND_CMD_AREA_A;
 5753              		.loc 1 1695 27
 5754 0144 FB69     		ldr	r3, [r7, #28]
 5755 0146 43F48033 		orr	r3, r3, #65536
 5756              		.loc 1 1695 65
 5757 014a 0022     		movs	r2, #0
 5758 014c 1A70     		strb	r2, [r3]
 5759              	.LBB642:
 5760              	.LBB643:
 946:Drivers/CMSIS/Core/Include/cmsis_gcc.h **** }
 5761              		.loc 2 946 3
 5762              		.syntax unified
 5763              	@ 946 "Drivers/CMSIS/Core/Include/cmsis_gcc.h" 1
 5764 014e BFF34F8F 		dsb 0xF
 5765              	@ 0 "" 2
 5766              		.loc 2 947 1
 5767              		.thumb
 5768              		.syntax unified
 5769 0152 00BF     		nop
ARM GAS  /tmp/ccUr9KqT.s 			page 152


 5770              	.LBE643:
 5771              	.LBE642:
1696:Drivers/STM32L4xx_HAL_Driver/Src/stm32l4xx_hal_nand.c ****         __DSB();
1697:Drivers/STM32L4xx_HAL_Driver/Src/stm32l4xx_hal_nand.c ****         *(__IO uint8_t *)((uint32_t)(deviceaddress | CMD_AREA)) = NAND_CMD_WRITE0;
 5772              		.loc 1 1697 27
 5773 0154 FB69     		ldr	r3, [r7, #28]
 5774 0156 43F48033 		orr	r3, r3, #65536
 5775              		.loc 1 1697 65
 5776 015a 8022     		movs	r2, #128
 5777 015c 1A70     		strb	r2, [r3]
 5778              	.LBB644:
 5779              	.LBB645:
 946:Drivers/CMSIS/Core/Include/cmsis_gcc.h **** }
 5780              		.loc 2 946 3
 5781              		.syntax unified
 5782              	@ 946 "Drivers/CMSIS/Core/Include/cmsis_gcc.h" 1
 5783 015e BFF34F8F 		dsb 0xF
 5784              	@ 0 "" 2
 5785              		.loc 2 947 1
 5786              		.thumb
 5787              		.syntax unified
 5788 0162 00BF     		nop
 5789              	.LBE645:
 5790              	.LBE644:
1698:Drivers/STM32L4xx_HAL_Driver/Src/stm32l4xx_hal_nand.c ****         __DSB();
1699:Drivers/STM32L4xx_HAL_Driver/Src/stm32l4xx_hal_nand.c **** 
1700:Drivers/STM32L4xx_HAL_Driver/Src/stm32l4xx_hal_nand.c ****         if (((hnand->Config.BlockSize) * (hnand->Config.BlockNbr)) <= 65535U)
 5791              		.loc 1 1700 28
 5792 0164 FB68     		ldr	r3, [r7, #12]
 5793 0166 DB6A     		ldr	r3, [r3, #44]
 5794              		.loc 1 1700 56
 5795 0168 FA68     		ldr	r2, [r7, #12]
 5796 016a 126B     		ldr	r2, [r2, #48]
 5797              		.loc 1 1700 40
 5798 016c 02FB03F3 		mul	r3, r2, r3
 5799              		.loc 1 1700 12
 5800 0170 B3F5803F 		cmp	r3, #65536
 5801 0174 25D2     		bcs	.L166
1701:Drivers/STM32L4xx_HAL_Driver/Src/stm32l4xx_hal_nand.c ****         {
1702:Drivers/STM32L4xx_HAL_Driver/Src/stm32l4xx_hal_nand.c ****           *(__IO uint8_t *)((uint32_t)(deviceaddress | ADDR_AREA)) = COLUMN_1ST_CYCLE(columnaddress
 5802              		.loc 1 1702 29
 5803 0176 FB69     		ldr	r3, [r7, #28]
 5804 0178 43F40033 		orr	r3, r3, #131072
 5805              		.loc 1 1702 70
 5806 017c BA69     		ldr	r2, [r7, #24]
 5807 017e D2B2     		uxtb	r2, r2
 5808              		.loc 1 1702 68
 5809 0180 1A70     		strb	r2, [r3]
 5810              	.LBB646:
 5811              	.LBB647:
 946:Drivers/CMSIS/Core/Include/cmsis_gcc.h **** }
 5812              		.loc 2 946 3
 5813              		.syntax unified
 5814              	@ 946 "Drivers/CMSIS/Core/Include/cmsis_gcc.h" 1
 5815 0182 BFF34F8F 		dsb 0xF
 5816              	@ 0 "" 2
 5817              		.loc 2 947 1
ARM GAS  /tmp/ccUr9KqT.s 			page 153


 5818              		.thumb
 5819              		.syntax unified
 5820 0186 00BF     		nop
 5821              	.LBE647:
 5822              	.LBE646:
1703:Drivers/STM32L4xx_HAL_Driver/Src/stm32l4xx_hal_nand.c ****           __DSB();
1704:Drivers/STM32L4xx_HAL_Driver/Src/stm32l4xx_hal_nand.c ****           *(__IO uint8_t *)((uint32_t)(deviceaddress | ADDR_AREA)) = COLUMN_2ND_CYCLE(columnaddress
 5823              		.loc 1 1704 70
 5824 0188 BB69     		ldr	r3, [r7, #24]
 5825 018a 1A0A     		lsrs	r2, r3, #8
 5826              		.loc 1 1704 29
 5827 018c FB69     		ldr	r3, [r7, #28]
 5828 018e 43F40033 		orr	r3, r3, #131072
 5829              		.loc 1 1704 70
 5830 0192 D2B2     		uxtb	r2, r2
 5831              		.loc 1 1704 68
 5832 0194 1A70     		strb	r2, [r3]
 5833              	.LBB648:
 5834              	.LBB649:
 946:Drivers/CMSIS/Core/Include/cmsis_gcc.h **** }
 5835              		.loc 2 946 3
 5836              		.syntax unified
 5837              	@ 946 "Drivers/CMSIS/Core/Include/cmsis_gcc.h" 1
 5838 0196 BFF34F8F 		dsb 0xF
 5839              	@ 0 "" 2
 5840              		.loc 2 947 1
 5841              		.thumb
 5842              		.syntax unified
 5843 019a 00BF     		nop
 5844              	.LBE649:
 5845              	.LBE648:
1705:Drivers/STM32L4xx_HAL_Driver/Src/stm32l4xx_hal_nand.c ****           __DSB();
1706:Drivers/STM32L4xx_HAL_Driver/Src/stm32l4xx_hal_nand.c ****           *(__IO uint8_t *)((uint32_t)(deviceaddress | ADDR_AREA)) = ADDR_1ST_CYCLE(nandaddress);
 5846              		.loc 1 1706 29
 5847 019c FB69     		ldr	r3, [r7, #28]
 5848 019e 43F40033 		orr	r3, r3, #131072
 5849              		.loc 1 1706 70
 5850 01a2 BA6A     		ldr	r2, [r7, #40]
 5851 01a4 D2B2     		uxtb	r2, r2
 5852              		.loc 1 1706 68
 5853 01a6 1A70     		strb	r2, [r3]
 5854              	.LBB650:
 5855              	.LBB651:
 946:Drivers/CMSIS/Core/Include/cmsis_gcc.h **** }
 5856              		.loc 2 946 3
 5857              		.syntax unified
 5858              	@ 946 "Drivers/CMSIS/Core/Include/cmsis_gcc.h" 1
 5859 01a8 BFF34F8F 		dsb 0xF
 5860              	@ 0 "" 2
 5861              		.loc 2 947 1
 5862              		.thumb
 5863              		.syntax unified
 5864 01ac 00BF     		nop
 5865              	.LBE651:
 5866              	.LBE650:
1707:Drivers/STM32L4xx_HAL_Driver/Src/stm32l4xx_hal_nand.c ****           __DSB();
1708:Drivers/STM32L4xx_HAL_Driver/Src/stm32l4xx_hal_nand.c ****           *(__IO uint8_t *)((uint32_t)(deviceaddress | ADDR_AREA)) = ADDR_2ND_CYCLE(nandaddress);
ARM GAS  /tmp/ccUr9KqT.s 			page 154


 5867              		.loc 1 1708 70
 5868 01ae BB6A     		ldr	r3, [r7, #40]
 5869 01b0 1A0A     		lsrs	r2, r3, #8
 5870              		.loc 1 1708 29
 5871 01b2 FB69     		ldr	r3, [r7, #28]
 5872 01b4 43F40033 		orr	r3, r3, #131072
 5873              		.loc 1 1708 70
 5874 01b8 D2B2     		uxtb	r2, r2
 5875              		.loc 1 1708 68
 5876 01ba 1A70     		strb	r2, [r3]
 5877              	.LBB652:
 5878              	.LBB653:
 946:Drivers/CMSIS/Core/Include/cmsis_gcc.h **** }
 5879              		.loc 2 946 3
 5880              		.syntax unified
 5881              	@ 946 "Drivers/CMSIS/Core/Include/cmsis_gcc.h" 1
 5882 01bc BFF34F8F 		dsb 0xF
 5883              	@ 0 "" 2
 5884              		.loc 2 947 1
 5885              		.thumb
 5886              		.syntax unified
 5887 01c0 2FE0     		b	.L165
 5888              	.L166:
 5889              	.LBE653:
 5890              	.LBE652:
1709:Drivers/STM32L4xx_HAL_Driver/Src/stm32l4xx_hal_nand.c ****           __DSB();
1710:Drivers/STM32L4xx_HAL_Driver/Src/stm32l4xx_hal_nand.c ****         }
1711:Drivers/STM32L4xx_HAL_Driver/Src/stm32l4xx_hal_nand.c ****         else /* ((hnand->Config.BlockSize)*(hnand->Config.BlockNbr)) > 65535 */
1712:Drivers/STM32L4xx_HAL_Driver/Src/stm32l4xx_hal_nand.c ****         {
1713:Drivers/STM32L4xx_HAL_Driver/Src/stm32l4xx_hal_nand.c ****           *(__IO uint8_t *)((uint32_t)(deviceaddress | ADDR_AREA)) = COLUMN_1ST_CYCLE(columnaddress
 5891              		.loc 1 1713 29
 5892 01c2 FB69     		ldr	r3, [r7, #28]
 5893 01c4 43F40033 		orr	r3, r3, #131072
 5894              		.loc 1 1713 70
 5895 01c8 BA69     		ldr	r2, [r7, #24]
 5896 01ca D2B2     		uxtb	r2, r2
 5897              		.loc 1 1713 68
 5898 01cc 1A70     		strb	r2, [r3]
 5899              	.LBB654:
 5900              	.LBB655:
 946:Drivers/CMSIS/Core/Include/cmsis_gcc.h **** }
 5901              		.loc 2 946 3
 5902              		.syntax unified
 5903              	@ 946 "Drivers/CMSIS/Core/Include/cmsis_gcc.h" 1
 5904 01ce BFF34F8F 		dsb 0xF
 5905              	@ 0 "" 2
 5906              		.loc 2 947 1
 5907              		.thumb
 5908              		.syntax unified
 5909 01d2 00BF     		nop
 5910              	.LBE655:
 5911              	.LBE654:
1714:Drivers/STM32L4xx_HAL_Driver/Src/stm32l4xx_hal_nand.c ****           __DSB();
1715:Drivers/STM32L4xx_HAL_Driver/Src/stm32l4xx_hal_nand.c ****           *(__IO uint8_t *)((uint32_t)(deviceaddress | ADDR_AREA)) = COLUMN_2ND_CYCLE(columnaddress
 5912              		.loc 1 1715 70
 5913 01d4 BB69     		ldr	r3, [r7, #24]
 5914 01d6 1A0A     		lsrs	r2, r3, #8
ARM GAS  /tmp/ccUr9KqT.s 			page 155


 5915              		.loc 1 1715 29
 5916 01d8 FB69     		ldr	r3, [r7, #28]
 5917 01da 43F40033 		orr	r3, r3, #131072
 5918              		.loc 1 1715 70
 5919 01de D2B2     		uxtb	r2, r2
 5920              		.loc 1 1715 68
 5921 01e0 1A70     		strb	r2, [r3]
 5922              	.LBB656:
 5923              	.LBB657:
 946:Drivers/CMSIS/Core/Include/cmsis_gcc.h **** }
 5924              		.loc 2 946 3
 5925              		.syntax unified
 5926              	@ 946 "Drivers/CMSIS/Core/Include/cmsis_gcc.h" 1
 5927 01e2 BFF34F8F 		dsb 0xF
 5928              	@ 0 "" 2
 5929              		.loc 2 947 1
 5930              		.thumb
 5931              		.syntax unified
 5932 01e6 00BF     		nop
 5933              	.LBE657:
 5934              	.LBE656:
1716:Drivers/STM32L4xx_HAL_Driver/Src/stm32l4xx_hal_nand.c ****           __DSB();
1717:Drivers/STM32L4xx_HAL_Driver/Src/stm32l4xx_hal_nand.c ****           *(__IO uint8_t *)((uint32_t)(deviceaddress | ADDR_AREA)) = ADDR_1ST_CYCLE(nandaddress);
 5935              		.loc 1 1717 29
 5936 01e8 FB69     		ldr	r3, [r7, #28]
 5937 01ea 43F40033 		orr	r3, r3, #131072
 5938              		.loc 1 1717 70
 5939 01ee BA6A     		ldr	r2, [r7, #40]
 5940 01f0 D2B2     		uxtb	r2, r2
 5941              		.loc 1 1717 68
 5942 01f2 1A70     		strb	r2, [r3]
 5943              	.LBB658:
 5944              	.LBB659:
 946:Drivers/CMSIS/Core/Include/cmsis_gcc.h **** }
 5945              		.loc 2 946 3
 5946              		.syntax unified
 5947              	@ 946 "Drivers/CMSIS/Core/Include/cmsis_gcc.h" 1
 5948 01f4 BFF34F8F 		dsb 0xF
 5949              	@ 0 "" 2
 5950              		.loc 2 947 1
 5951              		.thumb
 5952              		.syntax unified
 5953 01f8 00BF     		nop
 5954              	.LBE659:
 5955              	.LBE658:
1718:Drivers/STM32L4xx_HAL_Driver/Src/stm32l4xx_hal_nand.c ****           __DSB();
1719:Drivers/STM32L4xx_HAL_Driver/Src/stm32l4xx_hal_nand.c ****           *(__IO uint8_t *)((uint32_t)(deviceaddress | ADDR_AREA)) = ADDR_2ND_CYCLE(nandaddress);
 5956              		.loc 1 1719 70
 5957 01fa BB6A     		ldr	r3, [r7, #40]
 5958 01fc 1A0A     		lsrs	r2, r3, #8
 5959              		.loc 1 1719 29
 5960 01fe FB69     		ldr	r3, [r7, #28]
 5961 0200 43F40033 		orr	r3, r3, #131072
 5962              		.loc 1 1719 70
 5963 0204 D2B2     		uxtb	r2, r2
 5964              		.loc 1 1719 68
 5965 0206 1A70     		strb	r2, [r3]
ARM GAS  /tmp/ccUr9KqT.s 			page 156


 5966              	.LBB660:
 5967              	.LBB661:
 946:Drivers/CMSIS/Core/Include/cmsis_gcc.h **** }
 5968              		.loc 2 946 3
 5969              		.syntax unified
 5970              	@ 946 "Drivers/CMSIS/Core/Include/cmsis_gcc.h" 1
 5971 0208 BFF34F8F 		dsb 0xF
 5972              	@ 0 "" 2
 5973              		.loc 2 947 1
 5974              		.thumb
 5975              		.syntax unified
 5976 020c 00BF     		nop
 5977              	.LBE661:
 5978              	.LBE660:
1720:Drivers/STM32L4xx_HAL_Driver/Src/stm32l4xx_hal_nand.c ****           __DSB();
1721:Drivers/STM32L4xx_HAL_Driver/Src/stm32l4xx_hal_nand.c ****           *(__IO uint8_t *)((uint32_t)(deviceaddress | ADDR_AREA)) = ADDR_3RD_CYCLE(nandaddress);
 5979              		.loc 1 1721 70
 5980 020e BB6A     		ldr	r3, [r7, #40]
 5981 0210 1A0C     		lsrs	r2, r3, #16
 5982              		.loc 1 1721 29
 5983 0212 FB69     		ldr	r3, [r7, #28]
 5984 0214 43F40033 		orr	r3, r3, #131072
 5985              		.loc 1 1721 70
 5986 0218 D2B2     		uxtb	r2, r2
 5987              		.loc 1 1721 68
 5988 021a 1A70     		strb	r2, [r3]
 5989              	.LBB662:
 5990              	.LBB663:
 946:Drivers/CMSIS/Core/Include/cmsis_gcc.h **** }
 5991              		.loc 2 946 3
 5992              		.syntax unified
 5993              	@ 946 "Drivers/CMSIS/Core/Include/cmsis_gcc.h" 1
 5994 021c BFF34F8F 		dsb 0xF
 5995              	@ 0 "" 2
 5996              		.loc 2 947 1
 5997              		.thumb
 5998              		.syntax unified
 5999 0220 00BF     		nop
 6000              	.L165:
 6001              	.LBE663:
 6002              	.LBE662:
1722:Drivers/STM32L4xx_HAL_Driver/Src/stm32l4xx_hal_nand.c ****           __DSB();
1723:Drivers/STM32L4xx_HAL_Driver/Src/stm32l4xx_hal_nand.c ****         }
1724:Drivers/STM32L4xx_HAL_Driver/Src/stm32l4xx_hal_nand.c ****       }
1725:Drivers/STM32L4xx_HAL_Driver/Src/stm32l4xx_hal_nand.c **** 
1726:Drivers/STM32L4xx_HAL_Driver/Src/stm32l4xx_hal_nand.c ****       /* Write data to memory */
1727:Drivers/STM32L4xx_HAL_Driver/Src/stm32l4xx_hal_nand.c ****       for (index = 0U; index < hnand->Config.SpareAreaSize; index++)
 6003              		.loc 1 1727 18
 6004 0222 0023     		movs	r3, #0
 6005 0224 FB62     		str	r3, [r7, #44]
 6006              		.loc 1 1727 7
 6007 0226 0CE0     		b	.L167
 6008              	.L168:
1728:Drivers/STM32L4xx_HAL_Driver/Src/stm32l4xx_hal_nand.c ****       {
1729:Drivers/STM32L4xx_HAL_Driver/Src/stm32l4xx_hal_nand.c ****         *(__IO uint16_t *)deviceaddress = *buff;
 6009              		.loc 1 1729 10
 6010 0228 FB69     		ldr	r3, [r7, #28]
ARM GAS  /tmp/ccUr9KqT.s 			page 157


 6011              		.loc 1 1729 43
 6012 022a 3A6A     		ldr	r2, [r7, #32]
 6013 022c 1288     		ldrh	r2, [r2]
 6014              		.loc 1 1729 41
 6015 022e 1A80     		strh	r2, [r3]	@ movhi
1730:Drivers/STM32L4xx_HAL_Driver/Src/stm32l4xx_hal_nand.c ****         buff++;
 6016              		.loc 1 1730 13
 6017 0230 3B6A     		ldr	r3, [r7, #32]
 6018 0232 0233     		adds	r3, r3, #2
 6019 0234 3B62     		str	r3, [r7, #32]
 6020              	.LBB664:
 6021              	.LBB665:
 946:Drivers/CMSIS/Core/Include/cmsis_gcc.h **** }
 6022              		.loc 2 946 3
 6023              		.syntax unified
 6024              	@ 946 "Drivers/CMSIS/Core/Include/cmsis_gcc.h" 1
 6025 0236 BFF34F8F 		dsb 0xF
 6026              	@ 0 "" 2
 6027              		.loc 2 947 1
 6028              		.thumb
 6029              		.syntax unified
 6030 023a 00BF     		nop
 6031              	.LBE665:
 6032              	.LBE664:
1727:Drivers/STM32L4xx_HAL_Driver/Src/stm32l4xx_hal_nand.c ****       {
 6033              		.loc 1 1727 66 discriminator 3
 6034 023c FB6A     		ldr	r3, [r7, #44]
 6035 023e 0133     		adds	r3, r3, #1
 6036 0240 FB62     		str	r3, [r7, #44]
 6037              	.L167:
1727:Drivers/STM32L4xx_HAL_Driver/Src/stm32l4xx_hal_nand.c ****       {
 6038              		.loc 1 1727 45 discriminator 1
 6039 0242 FB68     		ldr	r3, [r7, #12]
 6040 0244 9B6A     		ldr	r3, [r3, #40]
1727:Drivers/STM32L4xx_HAL_Driver/Src/stm32l4xx_hal_nand.c ****       {
 6041              		.loc 1 1727 30 discriminator 1
 6042 0246 FA6A     		ldr	r2, [r7, #44]
 6043 0248 9A42     		cmp	r2, r3
 6044 024a EDD3     		bcc	.L168
1731:Drivers/STM32L4xx_HAL_Driver/Src/stm32l4xx_hal_nand.c ****         __DSB();
1732:Drivers/STM32L4xx_HAL_Driver/Src/stm32l4xx_hal_nand.c ****       }
1733:Drivers/STM32L4xx_HAL_Driver/Src/stm32l4xx_hal_nand.c **** 
1734:Drivers/STM32L4xx_HAL_Driver/Src/stm32l4xx_hal_nand.c ****       *(__IO uint8_t *)((uint32_t)(deviceaddress | CMD_AREA)) = NAND_CMD_WRITE_TRUE1;
 6045              		.loc 1 1734 25
 6046 024c FB69     		ldr	r3, [r7, #28]
 6047 024e 43F48033 		orr	r3, r3, #65536
 6048              		.loc 1 1734 63
 6049 0252 1022     		movs	r2, #16
 6050 0254 1A70     		strb	r2, [r3]
 6051              	.LBB666:
 6052              	.LBB667:
 946:Drivers/CMSIS/Core/Include/cmsis_gcc.h **** }
 6053              		.loc 2 946 3
 6054              		.syntax unified
 6055              	@ 946 "Drivers/CMSIS/Core/Include/cmsis_gcc.h" 1
 6056 0256 BFF34F8F 		dsb 0xF
 6057              	@ 0 "" 2
ARM GAS  /tmp/ccUr9KqT.s 			page 158


 6058              		.loc 2 947 1
 6059              		.thumb
 6060              		.syntax unified
 6061 025a 00BF     		nop
 6062              	.LBE667:
 6063              	.LBE666:
1735:Drivers/STM32L4xx_HAL_Driver/Src/stm32l4xx_hal_nand.c ****       __DSB();
1736:Drivers/STM32L4xx_HAL_Driver/Src/stm32l4xx_hal_nand.c **** 
1737:Drivers/STM32L4xx_HAL_Driver/Src/stm32l4xx_hal_nand.c ****       /* Get tick */
1738:Drivers/STM32L4xx_HAL_Driver/Src/stm32l4xx_hal_nand.c ****       tickstart = HAL_GetTick();
 6064              		.loc 1 1738 19
 6065 025c FFF7FEFF 		bl	HAL_GetTick
 6066 0260 7861     		str	r0, [r7, #20]
1739:Drivers/STM32L4xx_HAL_Driver/Src/stm32l4xx_hal_nand.c **** 
1740:Drivers/STM32L4xx_HAL_Driver/Src/stm32l4xx_hal_nand.c ****       /* Read status until NAND is ready */
1741:Drivers/STM32L4xx_HAL_Driver/Src/stm32l4xx_hal_nand.c ****       while (HAL_NAND_Read_Status(hnand) != NAND_READY)
 6067              		.loc 1 1741 13
 6068 0262 11E0     		b	.L169
 6069              	.L170:
1742:Drivers/STM32L4xx_HAL_Driver/Src/stm32l4xx_hal_nand.c ****       {
1743:Drivers/STM32L4xx_HAL_Driver/Src/stm32l4xx_hal_nand.c ****         if ((HAL_GetTick() - tickstart) > NAND_WRITE_TIMEOUT)
 6070              		.loc 1 1743 14
 6071 0264 FFF7FEFF 		bl	HAL_GetTick
 6072 0268 0246     		mov	r2, r0
 6073              		.loc 1 1743 28 discriminator 1
 6074 026a 7B69     		ldr	r3, [r7, #20]
 6075 026c D31A     		subs	r3, r2, r3
 6076              		.loc 1 1743 12 discriminator 1
 6077 026e B3F1807F 		cmp	r3, #16777216
 6078 0272 09D9     		bls	.L169
1744:Drivers/STM32L4xx_HAL_Driver/Src/stm32l4xx_hal_nand.c ****         {
1745:Drivers/STM32L4xx_HAL_Driver/Src/stm32l4xx_hal_nand.c ****           /* Update the NAND controller state */
1746:Drivers/STM32L4xx_HAL_Driver/Src/stm32l4xx_hal_nand.c ****           hnand->State = HAL_NAND_STATE_ERROR;
 6079              		.loc 1 1746 24
 6080 0274 FB68     		ldr	r3, [r7, #12]
 6081 0276 0322     		movs	r2, #3
 6082 0278 83F82120 		strb	r2, [r3, #33]
1747:Drivers/STM32L4xx_HAL_Driver/Src/stm32l4xx_hal_nand.c **** 
1748:Drivers/STM32L4xx_HAL_Driver/Src/stm32l4xx_hal_nand.c ****           /* Process unlocked */
1749:Drivers/STM32L4xx_HAL_Driver/Src/stm32l4xx_hal_nand.c ****           __HAL_UNLOCK(hnand);
 6083              		.loc 1 1749 11
 6084 027c FB68     		ldr	r3, [r7, #12]
 6085 027e 0022     		movs	r2, #0
 6086 0280 83F82020 		strb	r2, [r3, #32]
1750:Drivers/STM32L4xx_HAL_Driver/Src/stm32l4xx_hal_nand.c **** 
1751:Drivers/STM32L4xx_HAL_Driver/Src/stm32l4xx_hal_nand.c ****           return HAL_TIMEOUT;
 6087              		.loc 1 1751 18
 6088 0284 0323     		movs	r3, #3
 6089 0286 23E0     		b	.L159
 6090              	.L169:
1741:Drivers/STM32L4xx_HAL_Driver/Src/stm32l4xx_hal_nand.c ****       {
 6091              		.loc 1 1741 14
 6092 0288 F868     		ldr	r0, [r7, #12]
 6093 028a FFF7FEFF 		bl	HAL_NAND_Read_Status
 6094 028e 0346     		mov	r3, r0
1741:Drivers/STM32L4xx_HAL_Driver/Src/stm32l4xx_hal_nand.c ****       {
 6095              		.loc 1 1741 42 discriminator 1
ARM GAS  /tmp/ccUr9KqT.s 			page 159


 6096 0290 402B     		cmp	r3, #64
 6097 0292 E7D1     		bne	.L170
1752:Drivers/STM32L4xx_HAL_Driver/Src/stm32l4xx_hal_nand.c ****         }
1753:Drivers/STM32L4xx_HAL_Driver/Src/stm32l4xx_hal_nand.c ****       }
1754:Drivers/STM32L4xx_HAL_Driver/Src/stm32l4xx_hal_nand.c **** 
1755:Drivers/STM32L4xx_HAL_Driver/Src/stm32l4xx_hal_nand.c ****       /* Decrement spare areas to write */
1756:Drivers/STM32L4xx_HAL_Driver/Src/stm32l4xx_hal_nand.c ****       nbspare--;
 6098              		.loc 1 1756 14
 6099 0294 7B6A     		ldr	r3, [r7, #36]
 6100 0296 013B     		subs	r3, r3, #1
 6101 0298 7B62     		str	r3, [r7, #36]
1757:Drivers/STM32L4xx_HAL_Driver/Src/stm32l4xx_hal_nand.c **** 
1758:Drivers/STM32L4xx_HAL_Driver/Src/stm32l4xx_hal_nand.c ****       /* Increment the NAND address */
1759:Drivers/STM32L4xx_HAL_Driver/Src/stm32l4xx_hal_nand.c ****       nandaddress = (uint32_t)(nandaddress + 1U);
 6102              		.loc 1 1759 19
 6103 029a BB6A     		ldr	r3, [r7, #40]
 6104 029c 0133     		adds	r3, r3, #1
 6105 029e BB62     		str	r3, [r7, #40]
 6106              	.L162:
1660:Drivers/STM32L4xx_HAL_Driver/Src/stm32l4xx_hal_nand.c ****     {
 6107              		.loc 1 1660 28
 6108 02a0 7B6A     		ldr	r3, [r7, #36]
 6109 02a2 002B     		cmp	r3, #0
 6110 02a4 09D0     		beq	.L171
1660:Drivers/STM32L4xx_HAL_Driver/Src/stm32l4xx_hal_nand.c ****     {
 6111              		.loc 1 1660 61 discriminator 1
 6112 02a6 FB68     		ldr	r3, [r7, #12]
 6113 02a8 DB6A     		ldr	r3, [r3, #44]
1660:Drivers/STM32L4xx_HAL_Driver/Src/stm32l4xx_hal_nand.c ****     {
 6114              		.loc 1 1660 89 discriminator 1
 6115 02aa FA68     		ldr	r2, [r7, #12]
 6116 02ac 126B     		ldr	r2, [r2, #48]
1660:Drivers/STM32L4xx_HAL_Driver/Src/stm32l4xx_hal_nand.c ****     {
 6117              		.loc 1 1660 73 discriminator 1
 6118 02ae 02FB03F3 		mul	r3, r2, r3
1660:Drivers/STM32L4xx_HAL_Driver/Src/stm32l4xx_hal_nand.c ****     {
 6119              		.loc 1 1660 28 discriminator 1
 6120 02b2 BA6A     		ldr	r2, [r7, #40]
 6121 02b4 9A42     		cmp	r2, r3
 6122 02b6 FFF4E7AE 		bcc	.L172
 6123              	.L171:
1760:Drivers/STM32L4xx_HAL_Driver/Src/stm32l4xx_hal_nand.c ****     }
1761:Drivers/STM32L4xx_HAL_Driver/Src/stm32l4xx_hal_nand.c **** 
1762:Drivers/STM32L4xx_HAL_Driver/Src/stm32l4xx_hal_nand.c ****     /* Update the NAND controller state */
1763:Drivers/STM32L4xx_HAL_Driver/Src/stm32l4xx_hal_nand.c ****     hnand->State = HAL_NAND_STATE_READY;
 6124              		.loc 1 1763 18
 6125 02ba FB68     		ldr	r3, [r7, #12]
 6126 02bc 0122     		movs	r2, #1
 6127 02be 83F82120 		strb	r2, [r3, #33]
1764:Drivers/STM32L4xx_HAL_Driver/Src/stm32l4xx_hal_nand.c **** 
1765:Drivers/STM32L4xx_HAL_Driver/Src/stm32l4xx_hal_nand.c ****     /* Process unlocked */
1766:Drivers/STM32L4xx_HAL_Driver/Src/stm32l4xx_hal_nand.c ****     __HAL_UNLOCK(hnand);
 6128              		.loc 1 1766 5
 6129 02c2 FB68     		ldr	r3, [r7, #12]
 6130 02c4 0022     		movs	r2, #0
 6131 02c6 83F82020 		strb	r2, [r3, #32]
1767:Drivers/STM32L4xx_HAL_Driver/Src/stm32l4xx_hal_nand.c ****   }
ARM GAS  /tmp/ccUr9KqT.s 			page 160


1768:Drivers/STM32L4xx_HAL_Driver/Src/stm32l4xx_hal_nand.c ****   else
1769:Drivers/STM32L4xx_HAL_Driver/Src/stm32l4xx_hal_nand.c ****   {
1770:Drivers/STM32L4xx_HAL_Driver/Src/stm32l4xx_hal_nand.c ****     return HAL_ERROR;
1771:Drivers/STM32L4xx_HAL_Driver/Src/stm32l4xx_hal_nand.c ****   }
1772:Drivers/STM32L4xx_HAL_Driver/Src/stm32l4xx_hal_nand.c **** 
1773:Drivers/STM32L4xx_HAL_Driver/Src/stm32l4xx_hal_nand.c ****   return HAL_OK;
 6132              		.loc 1 1773 10
 6133 02ca 0023     		movs	r3, #0
 6134 02cc 00E0     		b	.L159
 6135              	.L160:
1770:Drivers/STM32L4xx_HAL_Driver/Src/stm32l4xx_hal_nand.c ****   }
 6136              		.loc 1 1770 12
 6137 02ce 0123     		movs	r3, #1
 6138              	.L159:
1774:Drivers/STM32L4xx_HAL_Driver/Src/stm32l4xx_hal_nand.c **** }
 6139              		.loc 1 1774 1
 6140 02d0 1846     		mov	r0, r3
 6141 02d2 3037     		adds	r7, r7, #48
 6142              		.cfi_def_cfa_offset 8
 6143 02d4 BD46     		mov	sp, r7
 6144              		.cfi_def_cfa_register 13
 6145              		@ sp needed
 6146 02d6 80BD     		pop	{r7, pc}
 6147              		.cfi_endproc
 6148              	.LFE461:
 6150              		.section	.text.HAL_NAND_Erase_Block,"ax",%progbits
 6151              		.align	1
 6152              		.global	HAL_NAND_Erase_Block
 6153              		.syntax unified
 6154              		.thumb
 6155              		.thumb_func
 6157              	HAL_NAND_Erase_Block:
 6158              	.LFB462:
1775:Drivers/STM32L4xx_HAL_Driver/Src/stm32l4xx_hal_nand.c **** 
1776:Drivers/STM32L4xx_HAL_Driver/Src/stm32l4xx_hal_nand.c **** /**
1777:Drivers/STM32L4xx_HAL_Driver/Src/stm32l4xx_hal_nand.c ****   * @brief  NAND memory Block erase
1778:Drivers/STM32L4xx_HAL_Driver/Src/stm32l4xx_hal_nand.c ****   * @param  hnand pointer to a NAND_HandleTypeDef structure that contains
1779:Drivers/STM32L4xx_HAL_Driver/Src/stm32l4xx_hal_nand.c ****   *                the configuration information for NAND module.
1780:Drivers/STM32L4xx_HAL_Driver/Src/stm32l4xx_hal_nand.c ****   * @param  pAddress  pointer to NAND address structure
1781:Drivers/STM32L4xx_HAL_Driver/Src/stm32l4xx_hal_nand.c ****   * @retval HAL status
1782:Drivers/STM32L4xx_HAL_Driver/Src/stm32l4xx_hal_nand.c ****   */
1783:Drivers/STM32L4xx_HAL_Driver/Src/stm32l4xx_hal_nand.c **** HAL_StatusTypeDef HAL_NAND_Erase_Block(NAND_HandleTypeDef *hnand, const NAND_AddressTypeDef *pAddre
1784:Drivers/STM32L4xx_HAL_Driver/Src/stm32l4xx_hal_nand.c **** {
 6159              		.loc 1 1784 1
 6160              		.cfi_startproc
 6161              		@ args = 0, pretend = 0, frame = 16
 6162              		@ frame_needed = 1, uses_anonymous_args = 0
 6163              		@ link register save eliminated.
 6164 0000 80B4     		push	{r7}
 6165              		.cfi_def_cfa_offset 4
 6166              		.cfi_offset 7, -4
 6167 0002 85B0     		sub	sp, sp, #20
 6168              		.cfi_def_cfa_offset 24
 6169 0004 00AF     		add	r7, sp, #0
 6170              		.cfi_def_cfa_register 7
 6171 0006 7860     		str	r0, [r7, #4]
 6172 0008 3960     		str	r1, [r7]
ARM GAS  /tmp/ccUr9KqT.s 			page 161


1785:Drivers/STM32L4xx_HAL_Driver/Src/stm32l4xx_hal_nand.c ****   uint32_t deviceaddress;
1786:Drivers/STM32L4xx_HAL_Driver/Src/stm32l4xx_hal_nand.c **** 
1787:Drivers/STM32L4xx_HAL_Driver/Src/stm32l4xx_hal_nand.c ****   /* Check the NAND controller state */
1788:Drivers/STM32L4xx_HAL_Driver/Src/stm32l4xx_hal_nand.c ****   if (hnand->State == HAL_NAND_STATE_BUSY)
 6173              		.loc 1 1788 12
 6174 000a 7B68     		ldr	r3, [r7, #4]
 6175 000c 93F82130 		ldrb	r3, [r3, #33]
 6176 0010 DBB2     		uxtb	r3, r3
 6177              		.loc 1 1788 6
 6178 0012 022B     		cmp	r3, #2
 6179 0014 01D1     		bne	.L175
1789:Drivers/STM32L4xx_HAL_Driver/Src/stm32l4xx_hal_nand.c ****   {
1790:Drivers/STM32L4xx_HAL_Driver/Src/stm32l4xx_hal_nand.c ****     return HAL_BUSY;
 6180              		.loc 1 1790 12
 6181 0016 0223     		movs	r3, #2
 6182 0018 89E0     		b	.L176
 6183              	.L175:
1791:Drivers/STM32L4xx_HAL_Driver/Src/stm32l4xx_hal_nand.c ****   }
1792:Drivers/STM32L4xx_HAL_Driver/Src/stm32l4xx_hal_nand.c ****   else if (hnand->State == HAL_NAND_STATE_READY)
 6184              		.loc 1 1792 17
 6185 001a 7B68     		ldr	r3, [r7, #4]
 6186 001c 93F82130 		ldrb	r3, [r3, #33]
 6187 0020 DBB2     		uxtb	r3, r3
 6188              		.loc 1 1792 11
 6189 0022 012B     		cmp	r3, #1
 6190 0024 40F08280 		bne	.L177
1793:Drivers/STM32L4xx_HAL_Driver/Src/stm32l4xx_hal_nand.c ****   {
1794:Drivers/STM32L4xx_HAL_Driver/Src/stm32l4xx_hal_nand.c ****     /* Process Locked */
1795:Drivers/STM32L4xx_HAL_Driver/Src/stm32l4xx_hal_nand.c ****     __HAL_LOCK(hnand);
 6191              		.loc 1 1795 5
 6192 0028 7B68     		ldr	r3, [r7, #4]
 6193 002a 93F82030 		ldrb	r3, [r3, #32]	@ zero_extendqisi2
 6194 002e 012B     		cmp	r3, #1
 6195 0030 01D1     		bne	.L178
 6196              		.loc 1 1795 5 is_stmt 0 discriminator 1
 6197 0032 0223     		movs	r3, #2
 6198              		.loc 1 1795 5
 6199 0034 7BE0     		b	.L176
 6200              	.L178:
 6201              		.loc 1 1795 5 discriminator 2
 6202 0036 7B68     		ldr	r3, [r7, #4]
 6203 0038 0122     		movs	r2, #1
 6204 003a 83F82020 		strb	r2, [r3, #32]
1796:Drivers/STM32L4xx_HAL_Driver/Src/stm32l4xx_hal_nand.c **** 
1797:Drivers/STM32L4xx_HAL_Driver/Src/stm32l4xx_hal_nand.c ****     /* Update the NAND controller state */
1798:Drivers/STM32L4xx_HAL_Driver/Src/stm32l4xx_hal_nand.c ****     hnand->State = HAL_NAND_STATE_BUSY;
 6205              		.loc 1 1798 18 is_stmt 1
 6206 003e 7B68     		ldr	r3, [r7, #4]
 6207 0040 0222     		movs	r2, #2
 6208 0042 83F82120 		strb	r2, [r3, #33]
1799:Drivers/STM32L4xx_HAL_Driver/Src/stm32l4xx_hal_nand.c **** 
1800:Drivers/STM32L4xx_HAL_Driver/Src/stm32l4xx_hal_nand.c ****     /* Identify the device address */
1801:Drivers/STM32L4xx_HAL_Driver/Src/stm32l4xx_hal_nand.c ****     deviceaddress = NAND_DEVICE;
 6209              		.loc 1 1801 19
 6210 0046 4FF00043 		mov	r3, #-2147483648
 6211 004a FB60     		str	r3, [r7, #12]
1802:Drivers/STM32L4xx_HAL_Driver/Src/stm32l4xx_hal_nand.c **** 
ARM GAS  /tmp/ccUr9KqT.s 			page 162


1803:Drivers/STM32L4xx_HAL_Driver/Src/stm32l4xx_hal_nand.c ****     /* Send Erase block command sequence */
1804:Drivers/STM32L4xx_HAL_Driver/Src/stm32l4xx_hal_nand.c ****     *(__IO uint8_t *)((uint32_t)(deviceaddress | CMD_AREA)) = NAND_CMD_ERASE0;
 6212              		.loc 1 1804 23
 6213 004c FB68     		ldr	r3, [r7, #12]
 6214 004e 43F48033 		orr	r3, r3, #65536
 6215              		.loc 1 1804 61
 6216 0052 6022     		movs	r2, #96
 6217 0054 1A70     		strb	r2, [r3]
 6218              	.LBB668:
 6219              	.LBB669:
 946:Drivers/CMSIS/Core/Include/cmsis_gcc.h **** }
 6220              		.loc 2 946 3
 6221              		.syntax unified
 6222              	@ 946 "Drivers/CMSIS/Core/Include/cmsis_gcc.h" 1
 6223 0056 BFF34F8F 		dsb 0xF
 6224              	@ 0 "" 2
 6225              		.loc 2 947 1
 6226              		.thumb
 6227              		.syntax unified
 6228 005a 00BF     		nop
 6229              	.LBE669:
 6230              	.LBE668:
1805:Drivers/STM32L4xx_HAL_Driver/Src/stm32l4xx_hal_nand.c ****     __DSB();
1806:Drivers/STM32L4xx_HAL_Driver/Src/stm32l4xx_hal_nand.c ****     *(__IO uint8_t *)((uint32_t)(deviceaddress | ADDR_AREA)) = ADDR_1ST_CYCLE(ARRAY_ADDRESS(pAddres
 6231              		.loc 1 1806 64
 6232 005c 3B68     		ldr	r3, [r7]
 6233 005e 1B88     		ldrh	r3, [r3]
 6234 0060 DAB2     		uxtb	r2, r3
 6235 0062 3B68     		ldr	r3, [r7]
 6236 0064 9B88     		ldrh	r3, [r3, #4]
 6237 0066 1946     		mov	r1, r3
 6238 0068 3B68     		ldr	r3, [r7]
 6239 006a 5B88     		ldrh	r3, [r3, #2]
 6240 006c 1846     		mov	r0, r3
 6241 006e 7B68     		ldr	r3, [r7, #4]
 6242 0070 9B6B     		ldr	r3, [r3, #56]
 6243 0072 00FB03F3 		mul	r3, r0, r3
 6244 0076 0B44     		add	r3, r3, r1
 6245 0078 D9B2     		uxtb	r1, r3
 6246 007a 7B68     		ldr	r3, [r7, #4]
 6247 007c DB6A     		ldr	r3, [r3, #44]
 6248 007e DBB2     		uxtb	r3, r3
 6249 0080 11FB03F3 		smulbb	r3, r1, r3
 6250 0084 DBB2     		uxtb	r3, r3
 6251              		.loc 1 1806 23
 6252 0086 F968     		ldr	r1, [r7, #12]
 6253 0088 41F40031 		orr	r1, r1, #131072
 6254              		.loc 1 1806 64
 6255 008c 1344     		add	r3, r3, r2
 6256 008e DBB2     		uxtb	r3, r3
 6257              		.loc 1 1806 62
 6258 0090 0B70     		strb	r3, [r1]
 6259              	.LBB670:
 6260              	.LBB671:
 946:Drivers/CMSIS/Core/Include/cmsis_gcc.h **** }
 6261              		.loc 2 946 3
 6262              		.syntax unified
ARM GAS  /tmp/ccUr9KqT.s 			page 163


 6263              	@ 946 "Drivers/CMSIS/Core/Include/cmsis_gcc.h" 1
 6264 0092 BFF34F8F 		dsb 0xF
 6265              	@ 0 "" 2
 6266              		.loc 2 947 1
 6267              		.thumb
 6268              		.syntax unified
 6269 0096 00BF     		nop
 6270              	.LBE671:
 6271              	.LBE670:
1807:Drivers/STM32L4xx_HAL_Driver/Src/stm32l4xx_hal_nand.c ****     __DSB();
1808:Drivers/STM32L4xx_HAL_Driver/Src/stm32l4xx_hal_nand.c ****     *(__IO uint8_t *)((uint32_t)(deviceaddress | ADDR_AREA)) = ADDR_2ND_CYCLE(ARRAY_ADDRESS(pAddres
 6272              		.loc 1 1808 64
 6273 0098 3B68     		ldr	r3, [r7]
 6274 009a 1B88     		ldrh	r3, [r3]
 6275 009c 1946     		mov	r1, r3
 6276 009e 3B68     		ldr	r3, [r7]
 6277 00a0 9B88     		ldrh	r3, [r3, #4]
 6278 00a2 1A46     		mov	r2, r3
 6279 00a4 3B68     		ldr	r3, [r7]
 6280 00a6 5B88     		ldrh	r3, [r3, #2]
 6281 00a8 1846     		mov	r0, r3
 6282 00aa 7B68     		ldr	r3, [r7, #4]
 6283 00ac 9B6B     		ldr	r3, [r3, #56]
 6284 00ae 00FB03F3 		mul	r3, r0, r3
 6285 00b2 1344     		add	r3, r3, r2
 6286 00b4 7A68     		ldr	r2, [r7, #4]
 6287 00b6 D26A     		ldr	r2, [r2, #44]
 6288 00b8 02FB03F3 		mul	r3, r2, r3
 6289 00bc 0B44     		add	r3, r3, r1
 6290 00be 1A0A     		lsrs	r2, r3, #8
 6291              		.loc 1 1808 23
 6292 00c0 FB68     		ldr	r3, [r7, #12]
 6293 00c2 43F40033 		orr	r3, r3, #131072
 6294              		.loc 1 1808 64
 6295 00c6 D2B2     		uxtb	r2, r2
 6296              		.loc 1 1808 62
 6297 00c8 1A70     		strb	r2, [r3]
 6298              	.LBB672:
 6299              	.LBB673:
 946:Drivers/CMSIS/Core/Include/cmsis_gcc.h **** }
 6300              		.loc 2 946 3
 6301              		.syntax unified
 6302              	@ 946 "Drivers/CMSIS/Core/Include/cmsis_gcc.h" 1
 6303 00ca BFF34F8F 		dsb 0xF
 6304              	@ 0 "" 2
 6305              		.loc 2 947 1
 6306              		.thumb
 6307              		.syntax unified
 6308 00ce 00BF     		nop
 6309              	.LBE673:
 6310              	.LBE672:
1809:Drivers/STM32L4xx_HAL_Driver/Src/stm32l4xx_hal_nand.c ****     __DSB();
1810:Drivers/STM32L4xx_HAL_Driver/Src/stm32l4xx_hal_nand.c ****     *(__IO uint8_t *)((uint32_t)(deviceaddress | ADDR_AREA)) = ADDR_3RD_CYCLE(ARRAY_ADDRESS(pAddres
 6311              		.loc 1 1810 64
 6312 00d0 3B68     		ldr	r3, [r7]
 6313 00d2 1B88     		ldrh	r3, [r3]
 6314 00d4 1946     		mov	r1, r3
ARM GAS  /tmp/ccUr9KqT.s 			page 164


 6315 00d6 3B68     		ldr	r3, [r7]
 6316 00d8 9B88     		ldrh	r3, [r3, #4]
 6317 00da 1A46     		mov	r2, r3
 6318 00dc 3B68     		ldr	r3, [r7]
 6319 00de 5B88     		ldrh	r3, [r3, #2]
 6320 00e0 1846     		mov	r0, r3
 6321 00e2 7B68     		ldr	r3, [r7, #4]
 6322 00e4 9B6B     		ldr	r3, [r3, #56]
 6323 00e6 00FB03F3 		mul	r3, r0, r3
 6324 00ea 1344     		add	r3, r3, r2
 6325 00ec 7A68     		ldr	r2, [r7, #4]
 6326 00ee D26A     		ldr	r2, [r2, #44]
 6327 00f0 02FB03F3 		mul	r3, r2, r3
 6328 00f4 0B44     		add	r3, r3, r1
 6329 00f6 1A0C     		lsrs	r2, r3, #16
 6330              		.loc 1 1810 23
 6331 00f8 FB68     		ldr	r3, [r7, #12]
 6332 00fa 43F40033 		orr	r3, r3, #131072
 6333              		.loc 1 1810 64
 6334 00fe D2B2     		uxtb	r2, r2
 6335              		.loc 1 1810 62
 6336 0100 1A70     		strb	r2, [r3]
 6337              	.LBB674:
 6338              	.LBB675:
 946:Drivers/CMSIS/Core/Include/cmsis_gcc.h **** }
 6339              		.loc 2 946 3
 6340              		.syntax unified
 6341              	@ 946 "Drivers/CMSIS/Core/Include/cmsis_gcc.h" 1
 6342 0102 BFF34F8F 		dsb 0xF
 6343              	@ 0 "" 2
 6344              		.loc 2 947 1
 6345              		.thumb
 6346              		.syntax unified
 6347 0106 00BF     		nop
 6348              	.LBE675:
 6349              	.LBE674:
1811:Drivers/STM32L4xx_HAL_Driver/Src/stm32l4xx_hal_nand.c ****     __DSB();
1812:Drivers/STM32L4xx_HAL_Driver/Src/stm32l4xx_hal_nand.c **** 
1813:Drivers/STM32L4xx_HAL_Driver/Src/stm32l4xx_hal_nand.c ****     *(__IO uint8_t *)((uint32_t)(deviceaddress | CMD_AREA)) = NAND_CMD_ERASE1;
 6350              		.loc 1 1813 23
 6351 0108 FB68     		ldr	r3, [r7, #12]
 6352 010a 43F48033 		orr	r3, r3, #65536
 6353              		.loc 1 1813 61
 6354 010e D022     		movs	r2, #208
 6355 0110 1A70     		strb	r2, [r3]
 6356              	.LBB676:
 6357              	.LBB677:
 946:Drivers/CMSIS/Core/Include/cmsis_gcc.h **** }
 6358              		.loc 2 946 3
 6359              		.syntax unified
 6360              	@ 946 "Drivers/CMSIS/Core/Include/cmsis_gcc.h" 1
 6361 0112 BFF34F8F 		dsb 0xF
 6362              	@ 0 "" 2
 6363              		.loc 2 947 1
 6364              		.thumb
 6365              		.syntax unified
 6366 0116 00BF     		nop
ARM GAS  /tmp/ccUr9KqT.s 			page 165


 6367              	.LBE677:
 6368              	.LBE676:
1814:Drivers/STM32L4xx_HAL_Driver/Src/stm32l4xx_hal_nand.c ****     __DSB();
1815:Drivers/STM32L4xx_HAL_Driver/Src/stm32l4xx_hal_nand.c **** 
1816:Drivers/STM32L4xx_HAL_Driver/Src/stm32l4xx_hal_nand.c ****     /* Update the NAND controller state */
1817:Drivers/STM32L4xx_HAL_Driver/Src/stm32l4xx_hal_nand.c ****     hnand->State = HAL_NAND_STATE_READY;
 6369              		.loc 1 1817 18
 6370 0118 7B68     		ldr	r3, [r7, #4]
 6371 011a 0122     		movs	r2, #1
 6372 011c 83F82120 		strb	r2, [r3, #33]
1818:Drivers/STM32L4xx_HAL_Driver/Src/stm32l4xx_hal_nand.c **** 
1819:Drivers/STM32L4xx_HAL_Driver/Src/stm32l4xx_hal_nand.c ****     /* Process unlocked */
1820:Drivers/STM32L4xx_HAL_Driver/Src/stm32l4xx_hal_nand.c ****     __HAL_UNLOCK(hnand);
 6373              		.loc 1 1820 5
 6374 0120 7B68     		ldr	r3, [r7, #4]
 6375 0122 0022     		movs	r2, #0
 6376 0124 83F82020 		strb	r2, [r3, #32]
1821:Drivers/STM32L4xx_HAL_Driver/Src/stm32l4xx_hal_nand.c ****   }
1822:Drivers/STM32L4xx_HAL_Driver/Src/stm32l4xx_hal_nand.c ****   else
1823:Drivers/STM32L4xx_HAL_Driver/Src/stm32l4xx_hal_nand.c ****   {
1824:Drivers/STM32L4xx_HAL_Driver/Src/stm32l4xx_hal_nand.c ****     return HAL_ERROR;
1825:Drivers/STM32L4xx_HAL_Driver/Src/stm32l4xx_hal_nand.c ****   }
1826:Drivers/STM32L4xx_HAL_Driver/Src/stm32l4xx_hal_nand.c **** 
1827:Drivers/STM32L4xx_HAL_Driver/Src/stm32l4xx_hal_nand.c ****   return HAL_OK;
 6377              		.loc 1 1827 10
 6378 0128 0023     		movs	r3, #0
 6379 012a 00E0     		b	.L176
 6380              	.L177:
1824:Drivers/STM32L4xx_HAL_Driver/Src/stm32l4xx_hal_nand.c ****   }
 6381              		.loc 1 1824 12
 6382 012c 0123     		movs	r3, #1
 6383              	.L176:
1828:Drivers/STM32L4xx_HAL_Driver/Src/stm32l4xx_hal_nand.c **** }
 6384              		.loc 1 1828 1
 6385 012e 1846     		mov	r0, r3
 6386 0130 1437     		adds	r7, r7, #20
 6387              		.cfi_def_cfa_offset 4
 6388 0132 BD46     		mov	sp, r7
 6389              		.cfi_def_cfa_register 13
 6390              		@ sp needed
 6391 0134 5DF8047B 		ldr	r7, [sp], #4
 6392              		.cfi_restore 7
 6393              		.cfi_def_cfa_offset 0
 6394 0138 7047     		bx	lr
 6395              		.cfi_endproc
 6396              	.LFE462:
 6398              		.section	.text.HAL_NAND_Address_Inc,"ax",%progbits
 6399              		.align	1
 6400              		.global	HAL_NAND_Address_Inc
 6401              		.syntax unified
 6402              		.thumb
 6403              		.thumb_func
 6405              	HAL_NAND_Address_Inc:
 6406              	.LFB463:
1829:Drivers/STM32L4xx_HAL_Driver/Src/stm32l4xx_hal_nand.c **** 
1830:Drivers/STM32L4xx_HAL_Driver/Src/stm32l4xx_hal_nand.c **** /**
1831:Drivers/STM32L4xx_HAL_Driver/Src/stm32l4xx_hal_nand.c ****   * @brief  Increment the NAND memory address
ARM GAS  /tmp/ccUr9KqT.s 			page 166


1832:Drivers/STM32L4xx_HAL_Driver/Src/stm32l4xx_hal_nand.c ****   * @param  hnand pointer to a NAND_HandleTypeDef structure that contains
1833:Drivers/STM32L4xx_HAL_Driver/Src/stm32l4xx_hal_nand.c ****   *                the configuration information for NAND module.
1834:Drivers/STM32L4xx_HAL_Driver/Src/stm32l4xx_hal_nand.c ****   * @param pAddress pointer to NAND address structure
1835:Drivers/STM32L4xx_HAL_Driver/Src/stm32l4xx_hal_nand.c ****   * @retval The new status of the increment address operation. It can be:
1836:Drivers/STM32L4xx_HAL_Driver/Src/stm32l4xx_hal_nand.c ****   *           - NAND_VALID_ADDRESS: When the new address is valid address
1837:Drivers/STM32L4xx_HAL_Driver/Src/stm32l4xx_hal_nand.c ****   *           - NAND_INVALID_ADDRESS: When the new address is invalid address
1838:Drivers/STM32L4xx_HAL_Driver/Src/stm32l4xx_hal_nand.c ****   */
1839:Drivers/STM32L4xx_HAL_Driver/Src/stm32l4xx_hal_nand.c **** uint32_t HAL_NAND_Address_Inc(const NAND_HandleTypeDef *hnand, NAND_AddressTypeDef *pAddress)
1840:Drivers/STM32L4xx_HAL_Driver/Src/stm32l4xx_hal_nand.c **** {
 6407              		.loc 1 1840 1
 6408              		.cfi_startproc
 6409              		@ args = 0, pretend = 0, frame = 16
 6410              		@ frame_needed = 1, uses_anonymous_args = 0
 6411              		@ link register save eliminated.
 6412 0000 80B4     		push	{r7}
 6413              		.cfi_def_cfa_offset 4
 6414              		.cfi_offset 7, -4
 6415 0002 85B0     		sub	sp, sp, #20
 6416              		.cfi_def_cfa_offset 24
 6417 0004 00AF     		add	r7, sp, #0
 6418              		.cfi_def_cfa_register 7
 6419 0006 7860     		str	r0, [r7, #4]
 6420 0008 3960     		str	r1, [r7]
1841:Drivers/STM32L4xx_HAL_Driver/Src/stm32l4xx_hal_nand.c ****   uint32_t status = NAND_VALID_ADDRESS;
 6421              		.loc 1 1841 12
 6422 000a 4FF48073 		mov	r3, #256
 6423 000e FB60     		str	r3, [r7, #12]
1842:Drivers/STM32L4xx_HAL_Driver/Src/stm32l4xx_hal_nand.c **** 
1843:Drivers/STM32L4xx_HAL_Driver/Src/stm32l4xx_hal_nand.c ****   /* Increment page address */
1844:Drivers/STM32L4xx_HAL_Driver/Src/stm32l4xx_hal_nand.c ****   pAddress->Page++;
 6424              		.loc 1 1844 11
 6425 0010 3B68     		ldr	r3, [r7]
 6426 0012 1B88     		ldrh	r3, [r3]
 6427              		.loc 1 1844 17
 6428 0014 0133     		adds	r3, r3, #1
 6429 0016 9AB2     		uxth	r2, r3
 6430 0018 3B68     		ldr	r3, [r7]
 6431 001a 1A80     		strh	r2, [r3]	@ movhi
1845:Drivers/STM32L4xx_HAL_Driver/Src/stm32l4xx_hal_nand.c **** 
1846:Drivers/STM32L4xx_HAL_Driver/Src/stm32l4xx_hal_nand.c ****   /* Check NAND address is valid */
1847:Drivers/STM32L4xx_HAL_Driver/Src/stm32l4xx_hal_nand.c ****   if (pAddress->Page == hnand->Config.BlockSize)
 6432              		.loc 1 1847 15
 6433 001c 3B68     		ldr	r3, [r7]
 6434 001e 1B88     		ldrh	r3, [r3]
 6435 0020 1A46     		mov	r2, r3
 6436              		.loc 1 1847 38
 6437 0022 7B68     		ldr	r3, [r7, #4]
 6438 0024 DB6A     		ldr	r3, [r3, #44]
 6439              		.loc 1 1847 6
 6440 0026 9A42     		cmp	r2, r3
 6441 0028 22D1     		bne	.L181
1848:Drivers/STM32L4xx_HAL_Driver/Src/stm32l4xx_hal_nand.c ****   {
1849:Drivers/STM32L4xx_HAL_Driver/Src/stm32l4xx_hal_nand.c ****     pAddress->Page = 0;
 6442              		.loc 1 1849 20
 6443 002a 3B68     		ldr	r3, [r7]
 6444 002c 0022     		movs	r2, #0
 6445 002e 1A80     		strh	r2, [r3]	@ movhi
ARM GAS  /tmp/ccUr9KqT.s 			page 167


1850:Drivers/STM32L4xx_HAL_Driver/Src/stm32l4xx_hal_nand.c ****     pAddress->Block++;
 6446              		.loc 1 1850 13
 6447 0030 3B68     		ldr	r3, [r7]
 6448 0032 9B88     		ldrh	r3, [r3, #4]
 6449              		.loc 1 1850 20
 6450 0034 0133     		adds	r3, r3, #1
 6451 0036 9AB2     		uxth	r2, r3
 6452 0038 3B68     		ldr	r3, [r7]
 6453 003a 9A80     		strh	r2, [r3, #4]	@ movhi
1851:Drivers/STM32L4xx_HAL_Driver/Src/stm32l4xx_hal_nand.c **** 
1852:Drivers/STM32L4xx_HAL_Driver/Src/stm32l4xx_hal_nand.c ****     if (pAddress->Block == hnand->Config.PlaneSize)
 6454              		.loc 1 1852 17
 6455 003c 3B68     		ldr	r3, [r7]
 6456 003e 9B88     		ldrh	r3, [r3, #4]
 6457 0040 1A46     		mov	r2, r3
 6458              		.loc 1 1852 41
 6459 0042 7B68     		ldr	r3, [r7, #4]
 6460 0044 9B6B     		ldr	r3, [r3, #56]
 6461              		.loc 1 1852 8
 6462 0046 9A42     		cmp	r2, r3
 6463 0048 12D1     		bne	.L181
1853:Drivers/STM32L4xx_HAL_Driver/Src/stm32l4xx_hal_nand.c ****     {
1854:Drivers/STM32L4xx_HAL_Driver/Src/stm32l4xx_hal_nand.c ****       pAddress->Block = 0;
 6464              		.loc 1 1854 23
 6465 004a 3B68     		ldr	r3, [r7]
 6466 004c 0022     		movs	r2, #0
 6467 004e 9A80     		strh	r2, [r3, #4]	@ movhi
1855:Drivers/STM32L4xx_HAL_Driver/Src/stm32l4xx_hal_nand.c ****       pAddress->Plane++;
 6468              		.loc 1 1855 15
 6469 0050 3B68     		ldr	r3, [r7]
 6470 0052 5B88     		ldrh	r3, [r3, #2]
 6471              		.loc 1 1855 22
 6472 0054 0133     		adds	r3, r3, #1
 6473 0056 9AB2     		uxth	r2, r3
 6474 0058 3B68     		ldr	r3, [r7]
 6475 005a 5A80     		strh	r2, [r3, #2]	@ movhi
1856:Drivers/STM32L4xx_HAL_Driver/Src/stm32l4xx_hal_nand.c **** 
1857:Drivers/STM32L4xx_HAL_Driver/Src/stm32l4xx_hal_nand.c ****       if (pAddress->Plane == (hnand->Config.PlaneNbr))
 6476              		.loc 1 1857 19
 6477 005c 3B68     		ldr	r3, [r7]
 6478 005e 5B88     		ldrh	r3, [r3, #2]
 6479 0060 1A46     		mov	r2, r3
 6480              		.loc 1 1857 44
 6481 0062 7B68     		ldr	r3, [r7, #4]
 6482 0064 5B6B     		ldr	r3, [r3, #52]
 6483              		.loc 1 1857 10
 6484 0066 9A42     		cmp	r2, r3
 6485 0068 02D1     		bne	.L181
1858:Drivers/STM32L4xx_HAL_Driver/Src/stm32l4xx_hal_nand.c ****       {
1859:Drivers/STM32L4xx_HAL_Driver/Src/stm32l4xx_hal_nand.c ****         status = NAND_INVALID_ADDRESS;
 6486              		.loc 1 1859 16
 6487 006a 4FF40073 		mov	r3, #512
 6488 006e FB60     		str	r3, [r7, #12]
 6489              	.L181:
1860:Drivers/STM32L4xx_HAL_Driver/Src/stm32l4xx_hal_nand.c ****       }
1861:Drivers/STM32L4xx_HAL_Driver/Src/stm32l4xx_hal_nand.c ****     }
1862:Drivers/STM32L4xx_HAL_Driver/Src/stm32l4xx_hal_nand.c ****   }
ARM GAS  /tmp/ccUr9KqT.s 			page 168


1863:Drivers/STM32L4xx_HAL_Driver/Src/stm32l4xx_hal_nand.c **** 
1864:Drivers/STM32L4xx_HAL_Driver/Src/stm32l4xx_hal_nand.c ****   return (status);
 6490              		.loc 1 1864 10
 6491 0070 FB68     		ldr	r3, [r7, #12]
1865:Drivers/STM32L4xx_HAL_Driver/Src/stm32l4xx_hal_nand.c **** }
 6492              		.loc 1 1865 1
 6493 0072 1846     		mov	r0, r3
 6494 0074 1437     		adds	r7, r7, #20
 6495              		.cfi_def_cfa_offset 4
 6496 0076 BD46     		mov	sp, r7
 6497              		.cfi_def_cfa_register 13
 6498              		@ sp needed
 6499 0078 5DF8047B 		ldr	r7, [sp], #4
 6500              		.cfi_restore 7
 6501              		.cfi_def_cfa_offset 0
 6502 007c 7047     		bx	lr
 6503              		.cfi_endproc
 6504              	.LFE463:
 6506              		.section	.text.HAL_NAND_ECC_Enable,"ax",%progbits
 6507              		.align	1
 6508              		.global	HAL_NAND_ECC_Enable
 6509              		.syntax unified
 6510              		.thumb
 6511              		.thumb_func
 6513              	HAL_NAND_ECC_Enable:
 6514              	.LFB464:
1866:Drivers/STM32L4xx_HAL_Driver/Src/stm32l4xx_hal_nand.c **** 
1867:Drivers/STM32L4xx_HAL_Driver/Src/stm32l4xx_hal_nand.c **** #if (USE_HAL_NAND_REGISTER_CALLBACKS == 1)
1868:Drivers/STM32L4xx_HAL_Driver/Src/stm32l4xx_hal_nand.c **** /**
1869:Drivers/STM32L4xx_HAL_Driver/Src/stm32l4xx_hal_nand.c ****   * @brief  Register a User NAND Callback
1870:Drivers/STM32L4xx_HAL_Driver/Src/stm32l4xx_hal_nand.c ****   *         To be used to override the weak predefined callback
1871:Drivers/STM32L4xx_HAL_Driver/Src/stm32l4xx_hal_nand.c ****   * @param hnand : NAND handle
1872:Drivers/STM32L4xx_HAL_Driver/Src/stm32l4xx_hal_nand.c ****   * @param CallbackId : ID of the callback to be registered
1873:Drivers/STM32L4xx_HAL_Driver/Src/stm32l4xx_hal_nand.c ****   *        This parameter can be one of the following values:
1874:Drivers/STM32L4xx_HAL_Driver/Src/stm32l4xx_hal_nand.c ****   *          @arg @ref HAL_NAND_MSP_INIT_CB_ID       NAND MspInit callback ID
1875:Drivers/STM32L4xx_HAL_Driver/Src/stm32l4xx_hal_nand.c ****   *          @arg @ref HAL_NAND_MSP_DEINIT_CB_ID     NAND MspDeInit callback ID
1876:Drivers/STM32L4xx_HAL_Driver/Src/stm32l4xx_hal_nand.c ****   *          @arg @ref HAL_NAND_IT_CB_ID             NAND IT callback ID
1877:Drivers/STM32L4xx_HAL_Driver/Src/stm32l4xx_hal_nand.c ****   * @param pCallback : pointer to the Callback function
1878:Drivers/STM32L4xx_HAL_Driver/Src/stm32l4xx_hal_nand.c ****   * @retval status
1879:Drivers/STM32L4xx_HAL_Driver/Src/stm32l4xx_hal_nand.c ****   */
1880:Drivers/STM32L4xx_HAL_Driver/Src/stm32l4xx_hal_nand.c **** HAL_StatusTypeDef HAL_NAND_RegisterCallback(NAND_HandleTypeDef *hnand, HAL_NAND_CallbackIDTypeDef C
1881:Drivers/STM32L4xx_HAL_Driver/Src/stm32l4xx_hal_nand.c ****                                             pNAND_CallbackTypeDef pCallback)
1882:Drivers/STM32L4xx_HAL_Driver/Src/stm32l4xx_hal_nand.c **** {
1883:Drivers/STM32L4xx_HAL_Driver/Src/stm32l4xx_hal_nand.c ****   HAL_StatusTypeDef status = HAL_OK;
1884:Drivers/STM32L4xx_HAL_Driver/Src/stm32l4xx_hal_nand.c **** 
1885:Drivers/STM32L4xx_HAL_Driver/Src/stm32l4xx_hal_nand.c ****   if (pCallback == NULL)
1886:Drivers/STM32L4xx_HAL_Driver/Src/stm32l4xx_hal_nand.c ****   {
1887:Drivers/STM32L4xx_HAL_Driver/Src/stm32l4xx_hal_nand.c ****     return HAL_ERROR;
1888:Drivers/STM32L4xx_HAL_Driver/Src/stm32l4xx_hal_nand.c ****   }
1889:Drivers/STM32L4xx_HAL_Driver/Src/stm32l4xx_hal_nand.c **** 
1890:Drivers/STM32L4xx_HAL_Driver/Src/stm32l4xx_hal_nand.c ****   if (hnand->State == HAL_NAND_STATE_READY)
1891:Drivers/STM32L4xx_HAL_Driver/Src/stm32l4xx_hal_nand.c ****   {
1892:Drivers/STM32L4xx_HAL_Driver/Src/stm32l4xx_hal_nand.c ****     switch (CallbackId)
1893:Drivers/STM32L4xx_HAL_Driver/Src/stm32l4xx_hal_nand.c ****     {
1894:Drivers/STM32L4xx_HAL_Driver/Src/stm32l4xx_hal_nand.c ****       case HAL_NAND_MSP_INIT_CB_ID :
1895:Drivers/STM32L4xx_HAL_Driver/Src/stm32l4xx_hal_nand.c ****         hnand->MspInitCallback = pCallback;
1896:Drivers/STM32L4xx_HAL_Driver/Src/stm32l4xx_hal_nand.c ****         break;
ARM GAS  /tmp/ccUr9KqT.s 			page 169


1897:Drivers/STM32L4xx_HAL_Driver/Src/stm32l4xx_hal_nand.c ****       case HAL_NAND_MSP_DEINIT_CB_ID :
1898:Drivers/STM32L4xx_HAL_Driver/Src/stm32l4xx_hal_nand.c ****         hnand->MspDeInitCallback = pCallback;
1899:Drivers/STM32L4xx_HAL_Driver/Src/stm32l4xx_hal_nand.c ****         break;
1900:Drivers/STM32L4xx_HAL_Driver/Src/stm32l4xx_hal_nand.c ****       case HAL_NAND_IT_CB_ID :
1901:Drivers/STM32L4xx_HAL_Driver/Src/stm32l4xx_hal_nand.c ****         hnand->ItCallback = pCallback;
1902:Drivers/STM32L4xx_HAL_Driver/Src/stm32l4xx_hal_nand.c ****         break;
1903:Drivers/STM32L4xx_HAL_Driver/Src/stm32l4xx_hal_nand.c ****       default :
1904:Drivers/STM32L4xx_HAL_Driver/Src/stm32l4xx_hal_nand.c ****         /* update return status */
1905:Drivers/STM32L4xx_HAL_Driver/Src/stm32l4xx_hal_nand.c ****         status =  HAL_ERROR;
1906:Drivers/STM32L4xx_HAL_Driver/Src/stm32l4xx_hal_nand.c ****         break;
1907:Drivers/STM32L4xx_HAL_Driver/Src/stm32l4xx_hal_nand.c ****     }
1908:Drivers/STM32L4xx_HAL_Driver/Src/stm32l4xx_hal_nand.c ****   }
1909:Drivers/STM32L4xx_HAL_Driver/Src/stm32l4xx_hal_nand.c ****   else if (hnand->State == HAL_NAND_STATE_RESET)
1910:Drivers/STM32L4xx_HAL_Driver/Src/stm32l4xx_hal_nand.c ****   {
1911:Drivers/STM32L4xx_HAL_Driver/Src/stm32l4xx_hal_nand.c ****     switch (CallbackId)
1912:Drivers/STM32L4xx_HAL_Driver/Src/stm32l4xx_hal_nand.c ****     {
1913:Drivers/STM32L4xx_HAL_Driver/Src/stm32l4xx_hal_nand.c ****       case HAL_NAND_MSP_INIT_CB_ID :
1914:Drivers/STM32L4xx_HAL_Driver/Src/stm32l4xx_hal_nand.c ****         hnand->MspInitCallback = pCallback;
1915:Drivers/STM32L4xx_HAL_Driver/Src/stm32l4xx_hal_nand.c ****         break;
1916:Drivers/STM32L4xx_HAL_Driver/Src/stm32l4xx_hal_nand.c ****       case HAL_NAND_MSP_DEINIT_CB_ID :
1917:Drivers/STM32L4xx_HAL_Driver/Src/stm32l4xx_hal_nand.c ****         hnand->MspDeInitCallback = pCallback;
1918:Drivers/STM32L4xx_HAL_Driver/Src/stm32l4xx_hal_nand.c ****         break;
1919:Drivers/STM32L4xx_HAL_Driver/Src/stm32l4xx_hal_nand.c ****       default :
1920:Drivers/STM32L4xx_HAL_Driver/Src/stm32l4xx_hal_nand.c ****         /* update return status */
1921:Drivers/STM32L4xx_HAL_Driver/Src/stm32l4xx_hal_nand.c ****         status =  HAL_ERROR;
1922:Drivers/STM32L4xx_HAL_Driver/Src/stm32l4xx_hal_nand.c ****         break;
1923:Drivers/STM32L4xx_HAL_Driver/Src/stm32l4xx_hal_nand.c ****     }
1924:Drivers/STM32L4xx_HAL_Driver/Src/stm32l4xx_hal_nand.c ****   }
1925:Drivers/STM32L4xx_HAL_Driver/Src/stm32l4xx_hal_nand.c ****   else
1926:Drivers/STM32L4xx_HAL_Driver/Src/stm32l4xx_hal_nand.c ****   {
1927:Drivers/STM32L4xx_HAL_Driver/Src/stm32l4xx_hal_nand.c ****     /* update return status */
1928:Drivers/STM32L4xx_HAL_Driver/Src/stm32l4xx_hal_nand.c ****     status =  HAL_ERROR;
1929:Drivers/STM32L4xx_HAL_Driver/Src/stm32l4xx_hal_nand.c ****   }
1930:Drivers/STM32L4xx_HAL_Driver/Src/stm32l4xx_hal_nand.c **** 
1931:Drivers/STM32L4xx_HAL_Driver/Src/stm32l4xx_hal_nand.c ****   return status;
1932:Drivers/STM32L4xx_HAL_Driver/Src/stm32l4xx_hal_nand.c **** }
1933:Drivers/STM32L4xx_HAL_Driver/Src/stm32l4xx_hal_nand.c **** 
1934:Drivers/STM32L4xx_HAL_Driver/Src/stm32l4xx_hal_nand.c **** /**
1935:Drivers/STM32L4xx_HAL_Driver/Src/stm32l4xx_hal_nand.c ****   * @brief  Unregister a User NAND Callback
1936:Drivers/STM32L4xx_HAL_Driver/Src/stm32l4xx_hal_nand.c ****   *         NAND Callback is redirected to the weak predefined callback
1937:Drivers/STM32L4xx_HAL_Driver/Src/stm32l4xx_hal_nand.c ****   * @param hnand : NAND handle
1938:Drivers/STM32L4xx_HAL_Driver/Src/stm32l4xx_hal_nand.c ****   * @param CallbackId : ID of the callback to be unregistered
1939:Drivers/STM32L4xx_HAL_Driver/Src/stm32l4xx_hal_nand.c ****   *        This parameter can be one of the following values:
1940:Drivers/STM32L4xx_HAL_Driver/Src/stm32l4xx_hal_nand.c ****   *          @arg @ref HAL_NAND_MSP_INIT_CB_ID       NAND MspInit callback ID
1941:Drivers/STM32L4xx_HAL_Driver/Src/stm32l4xx_hal_nand.c ****   *          @arg @ref HAL_NAND_MSP_DEINIT_CB_ID     NAND MspDeInit callback ID
1942:Drivers/STM32L4xx_HAL_Driver/Src/stm32l4xx_hal_nand.c ****   *          @arg @ref HAL_NAND_IT_CB_ID             NAND IT callback ID
1943:Drivers/STM32L4xx_HAL_Driver/Src/stm32l4xx_hal_nand.c ****   * @retval status
1944:Drivers/STM32L4xx_HAL_Driver/Src/stm32l4xx_hal_nand.c ****   */
1945:Drivers/STM32L4xx_HAL_Driver/Src/stm32l4xx_hal_nand.c **** HAL_StatusTypeDef HAL_NAND_UnRegisterCallback(NAND_HandleTypeDef *hnand, HAL_NAND_CallbackIDTypeDef
1946:Drivers/STM32L4xx_HAL_Driver/Src/stm32l4xx_hal_nand.c **** {
1947:Drivers/STM32L4xx_HAL_Driver/Src/stm32l4xx_hal_nand.c ****   HAL_StatusTypeDef status = HAL_OK;
1948:Drivers/STM32L4xx_HAL_Driver/Src/stm32l4xx_hal_nand.c **** 
1949:Drivers/STM32L4xx_HAL_Driver/Src/stm32l4xx_hal_nand.c ****   if (hnand->State == HAL_NAND_STATE_READY)
1950:Drivers/STM32L4xx_HAL_Driver/Src/stm32l4xx_hal_nand.c ****   {
1951:Drivers/STM32L4xx_HAL_Driver/Src/stm32l4xx_hal_nand.c ****     switch (CallbackId)
1952:Drivers/STM32L4xx_HAL_Driver/Src/stm32l4xx_hal_nand.c ****     {
1953:Drivers/STM32L4xx_HAL_Driver/Src/stm32l4xx_hal_nand.c ****       case HAL_NAND_MSP_INIT_CB_ID :
ARM GAS  /tmp/ccUr9KqT.s 			page 170


1954:Drivers/STM32L4xx_HAL_Driver/Src/stm32l4xx_hal_nand.c ****         hnand->MspInitCallback = HAL_NAND_MspInit;
1955:Drivers/STM32L4xx_HAL_Driver/Src/stm32l4xx_hal_nand.c ****         break;
1956:Drivers/STM32L4xx_HAL_Driver/Src/stm32l4xx_hal_nand.c ****       case HAL_NAND_MSP_DEINIT_CB_ID :
1957:Drivers/STM32L4xx_HAL_Driver/Src/stm32l4xx_hal_nand.c ****         hnand->MspDeInitCallback = HAL_NAND_MspDeInit;
1958:Drivers/STM32L4xx_HAL_Driver/Src/stm32l4xx_hal_nand.c ****         break;
1959:Drivers/STM32L4xx_HAL_Driver/Src/stm32l4xx_hal_nand.c ****       case HAL_NAND_IT_CB_ID :
1960:Drivers/STM32L4xx_HAL_Driver/Src/stm32l4xx_hal_nand.c ****         hnand->ItCallback = HAL_NAND_ITCallback;
1961:Drivers/STM32L4xx_HAL_Driver/Src/stm32l4xx_hal_nand.c ****         break;
1962:Drivers/STM32L4xx_HAL_Driver/Src/stm32l4xx_hal_nand.c ****       default :
1963:Drivers/STM32L4xx_HAL_Driver/Src/stm32l4xx_hal_nand.c ****         /* update return status */
1964:Drivers/STM32L4xx_HAL_Driver/Src/stm32l4xx_hal_nand.c ****         status =  HAL_ERROR;
1965:Drivers/STM32L4xx_HAL_Driver/Src/stm32l4xx_hal_nand.c ****         break;
1966:Drivers/STM32L4xx_HAL_Driver/Src/stm32l4xx_hal_nand.c ****     }
1967:Drivers/STM32L4xx_HAL_Driver/Src/stm32l4xx_hal_nand.c ****   }
1968:Drivers/STM32L4xx_HAL_Driver/Src/stm32l4xx_hal_nand.c ****   else if (hnand->State == HAL_NAND_STATE_RESET)
1969:Drivers/STM32L4xx_HAL_Driver/Src/stm32l4xx_hal_nand.c ****   {
1970:Drivers/STM32L4xx_HAL_Driver/Src/stm32l4xx_hal_nand.c ****     switch (CallbackId)
1971:Drivers/STM32L4xx_HAL_Driver/Src/stm32l4xx_hal_nand.c ****     {
1972:Drivers/STM32L4xx_HAL_Driver/Src/stm32l4xx_hal_nand.c ****       case HAL_NAND_MSP_INIT_CB_ID :
1973:Drivers/STM32L4xx_HAL_Driver/Src/stm32l4xx_hal_nand.c ****         hnand->MspInitCallback = HAL_NAND_MspInit;
1974:Drivers/STM32L4xx_HAL_Driver/Src/stm32l4xx_hal_nand.c ****         break;
1975:Drivers/STM32L4xx_HAL_Driver/Src/stm32l4xx_hal_nand.c ****       case HAL_NAND_MSP_DEINIT_CB_ID :
1976:Drivers/STM32L4xx_HAL_Driver/Src/stm32l4xx_hal_nand.c ****         hnand->MspDeInitCallback = HAL_NAND_MspDeInit;
1977:Drivers/STM32L4xx_HAL_Driver/Src/stm32l4xx_hal_nand.c ****         break;
1978:Drivers/STM32L4xx_HAL_Driver/Src/stm32l4xx_hal_nand.c ****       default :
1979:Drivers/STM32L4xx_HAL_Driver/Src/stm32l4xx_hal_nand.c ****         /* update return status */
1980:Drivers/STM32L4xx_HAL_Driver/Src/stm32l4xx_hal_nand.c ****         status =  HAL_ERROR;
1981:Drivers/STM32L4xx_HAL_Driver/Src/stm32l4xx_hal_nand.c ****         break;
1982:Drivers/STM32L4xx_HAL_Driver/Src/stm32l4xx_hal_nand.c ****     }
1983:Drivers/STM32L4xx_HAL_Driver/Src/stm32l4xx_hal_nand.c ****   }
1984:Drivers/STM32L4xx_HAL_Driver/Src/stm32l4xx_hal_nand.c ****   else
1985:Drivers/STM32L4xx_HAL_Driver/Src/stm32l4xx_hal_nand.c ****   {
1986:Drivers/STM32L4xx_HAL_Driver/Src/stm32l4xx_hal_nand.c ****     /* update return status */
1987:Drivers/STM32L4xx_HAL_Driver/Src/stm32l4xx_hal_nand.c ****     status =  HAL_ERROR;
1988:Drivers/STM32L4xx_HAL_Driver/Src/stm32l4xx_hal_nand.c ****   }
1989:Drivers/STM32L4xx_HAL_Driver/Src/stm32l4xx_hal_nand.c **** 
1990:Drivers/STM32L4xx_HAL_Driver/Src/stm32l4xx_hal_nand.c ****   return status;
1991:Drivers/STM32L4xx_HAL_Driver/Src/stm32l4xx_hal_nand.c **** }
1992:Drivers/STM32L4xx_HAL_Driver/Src/stm32l4xx_hal_nand.c **** #endif /* USE_HAL_NAND_REGISTER_CALLBACKS */
1993:Drivers/STM32L4xx_HAL_Driver/Src/stm32l4xx_hal_nand.c **** 
1994:Drivers/STM32L4xx_HAL_Driver/Src/stm32l4xx_hal_nand.c **** /**
1995:Drivers/STM32L4xx_HAL_Driver/Src/stm32l4xx_hal_nand.c ****   * @}
1996:Drivers/STM32L4xx_HAL_Driver/Src/stm32l4xx_hal_nand.c ****   */
1997:Drivers/STM32L4xx_HAL_Driver/Src/stm32l4xx_hal_nand.c **** 
1998:Drivers/STM32L4xx_HAL_Driver/Src/stm32l4xx_hal_nand.c **** /** @defgroup NAND_Exported_Functions_Group3 Peripheral Control functions
1999:Drivers/STM32L4xx_HAL_Driver/Src/stm32l4xx_hal_nand.c ****   *  @brief   management functions
2000:Drivers/STM32L4xx_HAL_Driver/Src/stm32l4xx_hal_nand.c ****   *
2001:Drivers/STM32L4xx_HAL_Driver/Src/stm32l4xx_hal_nand.c **** @verbatim
2002:Drivers/STM32L4xx_HAL_Driver/Src/stm32l4xx_hal_nand.c ****   ==============================================================================
2003:Drivers/STM32L4xx_HAL_Driver/Src/stm32l4xx_hal_nand.c ****                          ##### NAND Control functions #####
2004:Drivers/STM32L4xx_HAL_Driver/Src/stm32l4xx_hal_nand.c ****   ==============================================================================
2005:Drivers/STM32L4xx_HAL_Driver/Src/stm32l4xx_hal_nand.c ****   [..]
2006:Drivers/STM32L4xx_HAL_Driver/Src/stm32l4xx_hal_nand.c ****     This subsection provides a set of functions allowing to control dynamically
2007:Drivers/STM32L4xx_HAL_Driver/Src/stm32l4xx_hal_nand.c ****     the NAND interface.
2008:Drivers/STM32L4xx_HAL_Driver/Src/stm32l4xx_hal_nand.c **** 
2009:Drivers/STM32L4xx_HAL_Driver/Src/stm32l4xx_hal_nand.c **** @endverbatim
2010:Drivers/STM32L4xx_HAL_Driver/Src/stm32l4xx_hal_nand.c ****   * @{
ARM GAS  /tmp/ccUr9KqT.s 			page 171


2011:Drivers/STM32L4xx_HAL_Driver/Src/stm32l4xx_hal_nand.c ****   */
2012:Drivers/STM32L4xx_HAL_Driver/Src/stm32l4xx_hal_nand.c **** 
2013:Drivers/STM32L4xx_HAL_Driver/Src/stm32l4xx_hal_nand.c **** 
2014:Drivers/STM32L4xx_HAL_Driver/Src/stm32l4xx_hal_nand.c **** /**
2015:Drivers/STM32L4xx_HAL_Driver/Src/stm32l4xx_hal_nand.c ****   * @brief  Enables dynamically NAND ECC feature.
2016:Drivers/STM32L4xx_HAL_Driver/Src/stm32l4xx_hal_nand.c ****   * @param  hnand pointer to a NAND_HandleTypeDef structure that contains
2017:Drivers/STM32L4xx_HAL_Driver/Src/stm32l4xx_hal_nand.c ****   *                the configuration information for NAND module.
2018:Drivers/STM32L4xx_HAL_Driver/Src/stm32l4xx_hal_nand.c ****   * @retval HAL status
2019:Drivers/STM32L4xx_HAL_Driver/Src/stm32l4xx_hal_nand.c ****   */
2020:Drivers/STM32L4xx_HAL_Driver/Src/stm32l4xx_hal_nand.c **** HAL_StatusTypeDef  HAL_NAND_ECC_Enable(NAND_HandleTypeDef *hnand)
2021:Drivers/STM32L4xx_HAL_Driver/Src/stm32l4xx_hal_nand.c **** {
 6515              		.loc 1 2021 1
 6516              		.cfi_startproc
 6517              		@ args = 0, pretend = 0, frame = 8
 6518              		@ frame_needed = 1, uses_anonymous_args = 0
 6519 0000 80B5     		push	{r7, lr}
 6520              		.cfi_def_cfa_offset 8
 6521              		.cfi_offset 7, -8
 6522              		.cfi_offset 14, -4
 6523 0002 82B0     		sub	sp, sp, #8
 6524              		.cfi_def_cfa_offset 16
 6525 0004 00AF     		add	r7, sp, #0
 6526              		.cfi_def_cfa_register 7
 6527 0006 7860     		str	r0, [r7, #4]
2022:Drivers/STM32L4xx_HAL_Driver/Src/stm32l4xx_hal_nand.c ****   /* Check the NAND controller state */
2023:Drivers/STM32L4xx_HAL_Driver/Src/stm32l4xx_hal_nand.c ****   if (hnand->State == HAL_NAND_STATE_BUSY)
 6528              		.loc 1 2023 12
 6529 0008 7B68     		ldr	r3, [r7, #4]
 6530 000a 93F82130 		ldrb	r3, [r3, #33]
 6531 000e DBB2     		uxtb	r3, r3
 6532              		.loc 1 2023 6
 6533 0010 022B     		cmp	r3, #2
 6534 0012 01D1     		bne	.L184
2024:Drivers/STM32L4xx_HAL_Driver/Src/stm32l4xx_hal_nand.c ****   {
2025:Drivers/STM32L4xx_HAL_Driver/Src/stm32l4xx_hal_nand.c ****     return HAL_BUSY;
 6535              		.loc 1 2025 12
 6536 0014 0223     		movs	r3, #2
 6537 0016 18E0     		b	.L185
 6538              	.L184:
2026:Drivers/STM32L4xx_HAL_Driver/Src/stm32l4xx_hal_nand.c ****   }
2027:Drivers/STM32L4xx_HAL_Driver/Src/stm32l4xx_hal_nand.c ****   else if (hnand->State == HAL_NAND_STATE_READY)
 6539              		.loc 1 2027 17
 6540 0018 7B68     		ldr	r3, [r7, #4]
 6541 001a 93F82130 		ldrb	r3, [r3, #33]
 6542 001e DBB2     		uxtb	r3, r3
 6543              		.loc 1 2027 11
 6544 0020 012B     		cmp	r3, #1
 6545 0022 11D1     		bne	.L186
2028:Drivers/STM32L4xx_HAL_Driver/Src/stm32l4xx_hal_nand.c ****   {
2029:Drivers/STM32L4xx_HAL_Driver/Src/stm32l4xx_hal_nand.c ****     /* Update the NAND state */
2030:Drivers/STM32L4xx_HAL_Driver/Src/stm32l4xx_hal_nand.c ****     hnand->State = HAL_NAND_STATE_BUSY;
 6546              		.loc 1 2030 18
 6547 0024 7B68     		ldr	r3, [r7, #4]
 6548 0026 0222     		movs	r2, #2
 6549 0028 83F82120 		strb	r2, [r3, #33]
2031:Drivers/STM32L4xx_HAL_Driver/Src/stm32l4xx_hal_nand.c **** 
2032:Drivers/STM32L4xx_HAL_Driver/Src/stm32l4xx_hal_nand.c ****     /* Enable ECC feature */
ARM GAS  /tmp/ccUr9KqT.s 			page 172


2033:Drivers/STM32L4xx_HAL_Driver/Src/stm32l4xx_hal_nand.c ****     (void)FMC_NAND_ECC_Enable(hnand->Instance, hnand->Init.NandBank);
 6550              		.loc 1 2033 11
 6551 002c 7B68     		ldr	r3, [r7, #4]
 6552 002e 1A68     		ldr	r2, [r3]
 6553 0030 7B68     		ldr	r3, [r7, #4]
 6554 0032 5B68     		ldr	r3, [r3, #4]
 6555 0034 1946     		mov	r1, r3
 6556 0036 1046     		mov	r0, r2
 6557 0038 FFF7FEFF 		bl	FMC_NAND_ECC_Enable
2034:Drivers/STM32L4xx_HAL_Driver/Src/stm32l4xx_hal_nand.c **** 
2035:Drivers/STM32L4xx_HAL_Driver/Src/stm32l4xx_hal_nand.c ****     /* Update the NAND state */
2036:Drivers/STM32L4xx_HAL_Driver/Src/stm32l4xx_hal_nand.c ****     hnand->State = HAL_NAND_STATE_READY;
 6558              		.loc 1 2036 18
 6559 003c 7B68     		ldr	r3, [r7, #4]
 6560 003e 0122     		movs	r2, #1
 6561 0040 83F82120 		strb	r2, [r3, #33]
2037:Drivers/STM32L4xx_HAL_Driver/Src/stm32l4xx_hal_nand.c ****   }
2038:Drivers/STM32L4xx_HAL_Driver/Src/stm32l4xx_hal_nand.c ****   else
2039:Drivers/STM32L4xx_HAL_Driver/Src/stm32l4xx_hal_nand.c ****   {
2040:Drivers/STM32L4xx_HAL_Driver/Src/stm32l4xx_hal_nand.c ****     return HAL_ERROR;
2041:Drivers/STM32L4xx_HAL_Driver/Src/stm32l4xx_hal_nand.c ****   }
2042:Drivers/STM32L4xx_HAL_Driver/Src/stm32l4xx_hal_nand.c **** 
2043:Drivers/STM32L4xx_HAL_Driver/Src/stm32l4xx_hal_nand.c ****   return HAL_OK;
 6562              		.loc 1 2043 10
 6563 0044 0023     		movs	r3, #0
 6564 0046 00E0     		b	.L185
 6565              	.L186:
2040:Drivers/STM32L4xx_HAL_Driver/Src/stm32l4xx_hal_nand.c ****   }
 6566              		.loc 1 2040 12
 6567 0048 0123     		movs	r3, #1
 6568              	.L185:
2044:Drivers/STM32L4xx_HAL_Driver/Src/stm32l4xx_hal_nand.c **** }
 6569              		.loc 1 2044 1
 6570 004a 1846     		mov	r0, r3
 6571 004c 0837     		adds	r7, r7, #8
 6572              		.cfi_def_cfa_offset 8
 6573 004e BD46     		mov	sp, r7
 6574              		.cfi_def_cfa_register 13
 6575              		@ sp needed
 6576 0050 80BD     		pop	{r7, pc}
 6577              		.cfi_endproc
 6578              	.LFE464:
 6580              		.section	.text.HAL_NAND_ECC_Disable,"ax",%progbits
 6581              		.align	1
 6582              		.global	HAL_NAND_ECC_Disable
 6583              		.syntax unified
 6584              		.thumb
 6585              		.thumb_func
 6587              	HAL_NAND_ECC_Disable:
 6588              	.LFB465:
2045:Drivers/STM32L4xx_HAL_Driver/Src/stm32l4xx_hal_nand.c **** 
2046:Drivers/STM32L4xx_HAL_Driver/Src/stm32l4xx_hal_nand.c **** /**
2047:Drivers/STM32L4xx_HAL_Driver/Src/stm32l4xx_hal_nand.c ****   * @brief  Disables dynamically FMC_NAND ECC feature.
2048:Drivers/STM32L4xx_HAL_Driver/Src/stm32l4xx_hal_nand.c ****   * @param  hnand pointer to a NAND_HandleTypeDef structure that contains
2049:Drivers/STM32L4xx_HAL_Driver/Src/stm32l4xx_hal_nand.c ****   *                the configuration information for NAND module.
2050:Drivers/STM32L4xx_HAL_Driver/Src/stm32l4xx_hal_nand.c ****   * @retval HAL status
2051:Drivers/STM32L4xx_HAL_Driver/Src/stm32l4xx_hal_nand.c ****   */
ARM GAS  /tmp/ccUr9KqT.s 			page 173


2052:Drivers/STM32L4xx_HAL_Driver/Src/stm32l4xx_hal_nand.c **** HAL_StatusTypeDef  HAL_NAND_ECC_Disable(NAND_HandleTypeDef *hnand)
2053:Drivers/STM32L4xx_HAL_Driver/Src/stm32l4xx_hal_nand.c **** {
 6589              		.loc 1 2053 1
 6590              		.cfi_startproc
 6591              		@ args = 0, pretend = 0, frame = 8
 6592              		@ frame_needed = 1, uses_anonymous_args = 0
 6593 0000 80B5     		push	{r7, lr}
 6594              		.cfi_def_cfa_offset 8
 6595              		.cfi_offset 7, -8
 6596              		.cfi_offset 14, -4
 6597 0002 82B0     		sub	sp, sp, #8
 6598              		.cfi_def_cfa_offset 16
 6599 0004 00AF     		add	r7, sp, #0
 6600              		.cfi_def_cfa_register 7
 6601 0006 7860     		str	r0, [r7, #4]
2054:Drivers/STM32L4xx_HAL_Driver/Src/stm32l4xx_hal_nand.c ****   /* Check the NAND controller state */
2055:Drivers/STM32L4xx_HAL_Driver/Src/stm32l4xx_hal_nand.c ****   if (hnand->State == HAL_NAND_STATE_BUSY)
 6602              		.loc 1 2055 12
 6603 0008 7B68     		ldr	r3, [r7, #4]
 6604 000a 93F82130 		ldrb	r3, [r3, #33]
 6605 000e DBB2     		uxtb	r3, r3
 6606              		.loc 1 2055 6
 6607 0010 022B     		cmp	r3, #2
 6608 0012 01D1     		bne	.L189
2056:Drivers/STM32L4xx_HAL_Driver/Src/stm32l4xx_hal_nand.c ****   {
2057:Drivers/STM32L4xx_HAL_Driver/Src/stm32l4xx_hal_nand.c ****     return HAL_BUSY;
 6609              		.loc 1 2057 12
 6610 0014 0223     		movs	r3, #2
 6611 0016 18E0     		b	.L190
 6612              	.L189:
2058:Drivers/STM32L4xx_HAL_Driver/Src/stm32l4xx_hal_nand.c ****   }
2059:Drivers/STM32L4xx_HAL_Driver/Src/stm32l4xx_hal_nand.c ****   else if (hnand->State == HAL_NAND_STATE_READY)
 6613              		.loc 1 2059 17
 6614 0018 7B68     		ldr	r3, [r7, #4]
 6615 001a 93F82130 		ldrb	r3, [r3, #33]
 6616 001e DBB2     		uxtb	r3, r3
 6617              		.loc 1 2059 11
 6618 0020 012B     		cmp	r3, #1
 6619 0022 11D1     		bne	.L191
2060:Drivers/STM32L4xx_HAL_Driver/Src/stm32l4xx_hal_nand.c ****   {
2061:Drivers/STM32L4xx_HAL_Driver/Src/stm32l4xx_hal_nand.c ****     /* Update the NAND state */
2062:Drivers/STM32L4xx_HAL_Driver/Src/stm32l4xx_hal_nand.c ****     hnand->State = HAL_NAND_STATE_BUSY;
 6620              		.loc 1 2062 18
 6621 0024 7B68     		ldr	r3, [r7, #4]
 6622 0026 0222     		movs	r2, #2
 6623 0028 83F82120 		strb	r2, [r3, #33]
2063:Drivers/STM32L4xx_HAL_Driver/Src/stm32l4xx_hal_nand.c **** 
2064:Drivers/STM32L4xx_HAL_Driver/Src/stm32l4xx_hal_nand.c ****     /* Disable ECC feature */
2065:Drivers/STM32L4xx_HAL_Driver/Src/stm32l4xx_hal_nand.c ****     (void)FMC_NAND_ECC_Disable(hnand->Instance, hnand->Init.NandBank);
 6624              		.loc 1 2065 11
 6625 002c 7B68     		ldr	r3, [r7, #4]
 6626 002e 1A68     		ldr	r2, [r3]
 6627 0030 7B68     		ldr	r3, [r7, #4]
 6628 0032 5B68     		ldr	r3, [r3, #4]
 6629 0034 1946     		mov	r1, r3
 6630 0036 1046     		mov	r0, r2
 6631 0038 FFF7FEFF 		bl	FMC_NAND_ECC_Disable
ARM GAS  /tmp/ccUr9KqT.s 			page 174


2066:Drivers/STM32L4xx_HAL_Driver/Src/stm32l4xx_hal_nand.c **** 
2067:Drivers/STM32L4xx_HAL_Driver/Src/stm32l4xx_hal_nand.c ****     /* Update the NAND state */
2068:Drivers/STM32L4xx_HAL_Driver/Src/stm32l4xx_hal_nand.c ****     hnand->State = HAL_NAND_STATE_READY;
 6632              		.loc 1 2068 18
 6633 003c 7B68     		ldr	r3, [r7, #4]
 6634 003e 0122     		movs	r2, #1
 6635 0040 83F82120 		strb	r2, [r3, #33]
2069:Drivers/STM32L4xx_HAL_Driver/Src/stm32l4xx_hal_nand.c ****   }
2070:Drivers/STM32L4xx_HAL_Driver/Src/stm32l4xx_hal_nand.c ****   else
2071:Drivers/STM32L4xx_HAL_Driver/Src/stm32l4xx_hal_nand.c ****   {
2072:Drivers/STM32L4xx_HAL_Driver/Src/stm32l4xx_hal_nand.c ****     return HAL_ERROR;
2073:Drivers/STM32L4xx_HAL_Driver/Src/stm32l4xx_hal_nand.c ****   }
2074:Drivers/STM32L4xx_HAL_Driver/Src/stm32l4xx_hal_nand.c **** 
2075:Drivers/STM32L4xx_HAL_Driver/Src/stm32l4xx_hal_nand.c ****   return HAL_OK;
 6636              		.loc 1 2075 10
 6637 0044 0023     		movs	r3, #0
 6638 0046 00E0     		b	.L190
 6639              	.L191:
2072:Drivers/STM32L4xx_HAL_Driver/Src/stm32l4xx_hal_nand.c ****   }
 6640              		.loc 1 2072 12
 6641 0048 0123     		movs	r3, #1
 6642              	.L190:
2076:Drivers/STM32L4xx_HAL_Driver/Src/stm32l4xx_hal_nand.c **** }
 6643              		.loc 1 2076 1
 6644 004a 1846     		mov	r0, r3
 6645 004c 0837     		adds	r7, r7, #8
 6646              		.cfi_def_cfa_offset 8
 6647 004e BD46     		mov	sp, r7
 6648              		.cfi_def_cfa_register 13
 6649              		@ sp needed
 6650 0050 80BD     		pop	{r7, pc}
 6651              		.cfi_endproc
 6652              	.LFE465:
 6654              		.section	.text.HAL_NAND_GetECC,"ax",%progbits
 6655              		.align	1
 6656              		.global	HAL_NAND_GetECC
 6657              		.syntax unified
 6658              		.thumb
 6659              		.thumb_func
 6661              	HAL_NAND_GetECC:
 6662              	.LFB466:
2077:Drivers/STM32L4xx_HAL_Driver/Src/stm32l4xx_hal_nand.c **** 
2078:Drivers/STM32L4xx_HAL_Driver/Src/stm32l4xx_hal_nand.c **** /**
2079:Drivers/STM32L4xx_HAL_Driver/Src/stm32l4xx_hal_nand.c ****   * @brief  Disables dynamically NAND ECC feature.
2080:Drivers/STM32L4xx_HAL_Driver/Src/stm32l4xx_hal_nand.c ****   * @param  hnand pointer to a NAND_HandleTypeDef structure that contains
2081:Drivers/STM32L4xx_HAL_Driver/Src/stm32l4xx_hal_nand.c ****   *                the configuration information for NAND module.
2082:Drivers/STM32L4xx_HAL_Driver/Src/stm32l4xx_hal_nand.c ****   * @param  ECCval pointer to ECC value
2083:Drivers/STM32L4xx_HAL_Driver/Src/stm32l4xx_hal_nand.c ****   * @param  Timeout maximum timeout to wait
2084:Drivers/STM32L4xx_HAL_Driver/Src/stm32l4xx_hal_nand.c ****   * @retval HAL status
2085:Drivers/STM32L4xx_HAL_Driver/Src/stm32l4xx_hal_nand.c ****   */
2086:Drivers/STM32L4xx_HAL_Driver/Src/stm32l4xx_hal_nand.c **** HAL_StatusTypeDef  HAL_NAND_GetECC(NAND_HandleTypeDef *hnand, uint32_t *ECCval, uint32_t Timeout)
2087:Drivers/STM32L4xx_HAL_Driver/Src/stm32l4xx_hal_nand.c **** {
 6663              		.loc 1 2087 1
 6664              		.cfi_startproc
 6665              		@ args = 0, pretend = 0, frame = 24
 6666              		@ frame_needed = 1, uses_anonymous_args = 0
 6667 0000 80B5     		push	{r7, lr}
ARM GAS  /tmp/ccUr9KqT.s 			page 175


 6668              		.cfi_def_cfa_offset 8
 6669              		.cfi_offset 7, -8
 6670              		.cfi_offset 14, -4
 6671 0002 86B0     		sub	sp, sp, #24
 6672              		.cfi_def_cfa_offset 32
 6673 0004 00AF     		add	r7, sp, #0
 6674              		.cfi_def_cfa_register 7
 6675 0006 F860     		str	r0, [r7, #12]
 6676 0008 B960     		str	r1, [r7, #8]
 6677 000a 7A60     		str	r2, [r7, #4]
2088:Drivers/STM32L4xx_HAL_Driver/Src/stm32l4xx_hal_nand.c ****   HAL_StatusTypeDef status;
2089:Drivers/STM32L4xx_HAL_Driver/Src/stm32l4xx_hal_nand.c **** 
2090:Drivers/STM32L4xx_HAL_Driver/Src/stm32l4xx_hal_nand.c ****   /* Check the NAND controller state */
2091:Drivers/STM32L4xx_HAL_Driver/Src/stm32l4xx_hal_nand.c ****   if (hnand->State == HAL_NAND_STATE_BUSY)
 6678              		.loc 1 2091 12
 6679 000c FB68     		ldr	r3, [r7, #12]
 6680 000e 93F82130 		ldrb	r3, [r3, #33]
 6681 0012 DBB2     		uxtb	r3, r3
 6682              		.loc 1 2091 6
 6683 0014 022B     		cmp	r3, #2
 6684 0016 01D1     		bne	.L194
2092:Drivers/STM32L4xx_HAL_Driver/Src/stm32l4xx_hal_nand.c ****   {
2093:Drivers/STM32L4xx_HAL_Driver/Src/stm32l4xx_hal_nand.c ****     return HAL_BUSY;
 6685              		.loc 1 2093 12
 6686 0018 0223     		movs	r3, #2
 6687 001a 1AE0     		b	.L195
 6688              	.L194:
2094:Drivers/STM32L4xx_HAL_Driver/Src/stm32l4xx_hal_nand.c ****   }
2095:Drivers/STM32L4xx_HAL_Driver/Src/stm32l4xx_hal_nand.c ****   else if (hnand->State == HAL_NAND_STATE_READY)
 6689              		.loc 1 2095 17
 6690 001c FB68     		ldr	r3, [r7, #12]
 6691 001e 93F82130 		ldrb	r3, [r3, #33]
 6692 0022 DBB2     		uxtb	r3, r3
 6693              		.loc 1 2095 11
 6694 0024 012B     		cmp	r3, #1
 6695 0026 13D1     		bne	.L196
2096:Drivers/STM32L4xx_HAL_Driver/Src/stm32l4xx_hal_nand.c ****   {
2097:Drivers/STM32L4xx_HAL_Driver/Src/stm32l4xx_hal_nand.c ****     /* Update the NAND state */
2098:Drivers/STM32L4xx_HAL_Driver/Src/stm32l4xx_hal_nand.c ****     hnand->State = HAL_NAND_STATE_BUSY;
 6696              		.loc 1 2098 18
 6697 0028 FB68     		ldr	r3, [r7, #12]
 6698 002a 0222     		movs	r2, #2
 6699 002c 83F82120 		strb	r2, [r3, #33]
2099:Drivers/STM32L4xx_HAL_Driver/Src/stm32l4xx_hal_nand.c **** 
2100:Drivers/STM32L4xx_HAL_Driver/Src/stm32l4xx_hal_nand.c ****     /* Get NAND ECC value */
2101:Drivers/STM32L4xx_HAL_Driver/Src/stm32l4xx_hal_nand.c ****     status = FMC_NAND_GetECC(hnand->Instance, ECCval, hnand->Init.NandBank, Timeout);
 6700              		.loc 1 2101 35
 6701 0030 FB68     		ldr	r3, [r7, #12]
 6702 0032 1868     		ldr	r0, [r3]
 6703              		.loc 1 2101 14
 6704 0034 FB68     		ldr	r3, [r7, #12]
 6705 0036 5A68     		ldr	r2, [r3, #4]
 6706 0038 7B68     		ldr	r3, [r7, #4]
 6707 003a B968     		ldr	r1, [r7, #8]
 6708 003c FFF7FEFF 		bl	FMC_NAND_GetECC
 6709 0040 0346     		mov	r3, r0
 6710 0042 FB75     		strb	r3, [r7, #23]
ARM GAS  /tmp/ccUr9KqT.s 			page 176


2102:Drivers/STM32L4xx_HAL_Driver/Src/stm32l4xx_hal_nand.c **** 
2103:Drivers/STM32L4xx_HAL_Driver/Src/stm32l4xx_hal_nand.c ****     /* Update the NAND state */
2104:Drivers/STM32L4xx_HAL_Driver/Src/stm32l4xx_hal_nand.c ****     hnand->State = HAL_NAND_STATE_READY;
 6711              		.loc 1 2104 18
 6712 0044 FB68     		ldr	r3, [r7, #12]
 6713 0046 0122     		movs	r2, #1
 6714 0048 83F82120 		strb	r2, [r3, #33]
2105:Drivers/STM32L4xx_HAL_Driver/Src/stm32l4xx_hal_nand.c ****   }
2106:Drivers/STM32L4xx_HAL_Driver/Src/stm32l4xx_hal_nand.c ****   else
2107:Drivers/STM32L4xx_HAL_Driver/Src/stm32l4xx_hal_nand.c ****   {
2108:Drivers/STM32L4xx_HAL_Driver/Src/stm32l4xx_hal_nand.c ****     return HAL_ERROR;
2109:Drivers/STM32L4xx_HAL_Driver/Src/stm32l4xx_hal_nand.c ****   }
2110:Drivers/STM32L4xx_HAL_Driver/Src/stm32l4xx_hal_nand.c **** 
2111:Drivers/STM32L4xx_HAL_Driver/Src/stm32l4xx_hal_nand.c ****   return status;
 6715              		.loc 1 2111 10
 6716 004c FB7D     		ldrb	r3, [r7, #23]	@ zero_extendqisi2
 6717 004e 00E0     		b	.L195
 6718              	.L196:
2108:Drivers/STM32L4xx_HAL_Driver/Src/stm32l4xx_hal_nand.c ****   }
 6719              		.loc 1 2108 12
 6720 0050 0123     		movs	r3, #1
 6721              	.L195:
2112:Drivers/STM32L4xx_HAL_Driver/Src/stm32l4xx_hal_nand.c **** }
 6722              		.loc 1 2112 1
 6723 0052 1846     		mov	r0, r3
 6724 0054 1837     		adds	r7, r7, #24
 6725              		.cfi_def_cfa_offset 8
 6726 0056 BD46     		mov	sp, r7
 6727              		.cfi_def_cfa_register 13
 6728              		@ sp needed
 6729 0058 80BD     		pop	{r7, pc}
 6730              		.cfi_endproc
 6731              	.LFE466:
 6733              		.section	.text.HAL_NAND_GetState,"ax",%progbits
 6734              		.align	1
 6735              		.global	HAL_NAND_GetState
 6736              		.syntax unified
 6737              		.thumb
 6738              		.thumb_func
 6740              	HAL_NAND_GetState:
 6741              	.LFB467:
2113:Drivers/STM32L4xx_HAL_Driver/Src/stm32l4xx_hal_nand.c **** 
2114:Drivers/STM32L4xx_HAL_Driver/Src/stm32l4xx_hal_nand.c **** /**
2115:Drivers/STM32L4xx_HAL_Driver/Src/stm32l4xx_hal_nand.c ****   * @}
2116:Drivers/STM32L4xx_HAL_Driver/Src/stm32l4xx_hal_nand.c ****   */
2117:Drivers/STM32L4xx_HAL_Driver/Src/stm32l4xx_hal_nand.c **** 
2118:Drivers/STM32L4xx_HAL_Driver/Src/stm32l4xx_hal_nand.c **** 
2119:Drivers/STM32L4xx_HAL_Driver/Src/stm32l4xx_hal_nand.c **** /** @defgroup NAND_Exported_Functions_Group4 Peripheral State functions
2120:Drivers/STM32L4xx_HAL_Driver/Src/stm32l4xx_hal_nand.c ****   *  @brief   Peripheral State functions
2121:Drivers/STM32L4xx_HAL_Driver/Src/stm32l4xx_hal_nand.c ****   *
2122:Drivers/STM32L4xx_HAL_Driver/Src/stm32l4xx_hal_nand.c **** @verbatim
2123:Drivers/STM32L4xx_HAL_Driver/Src/stm32l4xx_hal_nand.c ****   ==============================================================================
2124:Drivers/STM32L4xx_HAL_Driver/Src/stm32l4xx_hal_nand.c ****                          ##### NAND State functions #####
2125:Drivers/STM32L4xx_HAL_Driver/Src/stm32l4xx_hal_nand.c ****   ==============================================================================
2126:Drivers/STM32L4xx_HAL_Driver/Src/stm32l4xx_hal_nand.c ****   [..]
2127:Drivers/STM32L4xx_HAL_Driver/Src/stm32l4xx_hal_nand.c ****     This subsection permits to get in run-time the status of the NAND controller
2128:Drivers/STM32L4xx_HAL_Driver/Src/stm32l4xx_hal_nand.c ****     and the data flow.
ARM GAS  /tmp/ccUr9KqT.s 			page 177


2129:Drivers/STM32L4xx_HAL_Driver/Src/stm32l4xx_hal_nand.c **** 
2130:Drivers/STM32L4xx_HAL_Driver/Src/stm32l4xx_hal_nand.c **** @endverbatim
2131:Drivers/STM32L4xx_HAL_Driver/Src/stm32l4xx_hal_nand.c ****   * @{
2132:Drivers/STM32L4xx_HAL_Driver/Src/stm32l4xx_hal_nand.c ****   */
2133:Drivers/STM32L4xx_HAL_Driver/Src/stm32l4xx_hal_nand.c **** 
2134:Drivers/STM32L4xx_HAL_Driver/Src/stm32l4xx_hal_nand.c **** /**
2135:Drivers/STM32L4xx_HAL_Driver/Src/stm32l4xx_hal_nand.c ****   * @brief  return the NAND state
2136:Drivers/STM32L4xx_HAL_Driver/Src/stm32l4xx_hal_nand.c ****   * @param  hnand pointer to a NAND_HandleTypeDef structure that contains
2137:Drivers/STM32L4xx_HAL_Driver/Src/stm32l4xx_hal_nand.c ****   *                the configuration information for NAND module.
2138:Drivers/STM32L4xx_HAL_Driver/Src/stm32l4xx_hal_nand.c ****   * @retval HAL state
2139:Drivers/STM32L4xx_HAL_Driver/Src/stm32l4xx_hal_nand.c ****   */
2140:Drivers/STM32L4xx_HAL_Driver/Src/stm32l4xx_hal_nand.c **** HAL_NAND_StateTypeDef HAL_NAND_GetState(const NAND_HandleTypeDef *hnand)
2141:Drivers/STM32L4xx_HAL_Driver/Src/stm32l4xx_hal_nand.c **** {
 6742              		.loc 1 2141 1
 6743              		.cfi_startproc
 6744              		@ args = 0, pretend = 0, frame = 8
 6745              		@ frame_needed = 1, uses_anonymous_args = 0
 6746              		@ link register save eliminated.
 6747 0000 80B4     		push	{r7}
 6748              		.cfi_def_cfa_offset 4
 6749              		.cfi_offset 7, -4
 6750 0002 83B0     		sub	sp, sp, #12
 6751              		.cfi_def_cfa_offset 16
 6752 0004 00AF     		add	r7, sp, #0
 6753              		.cfi_def_cfa_register 7
 6754 0006 7860     		str	r0, [r7, #4]
2142:Drivers/STM32L4xx_HAL_Driver/Src/stm32l4xx_hal_nand.c ****   return hnand->State;
 6755              		.loc 1 2142 15
 6756 0008 7B68     		ldr	r3, [r7, #4]
 6757 000a 93F82130 		ldrb	r3, [r3, #33]
 6758 000e DBB2     		uxtb	r3, r3
2143:Drivers/STM32L4xx_HAL_Driver/Src/stm32l4xx_hal_nand.c **** }
 6759              		.loc 1 2143 1
 6760 0010 1846     		mov	r0, r3
 6761 0012 0C37     		adds	r7, r7, #12
 6762              		.cfi_def_cfa_offset 4
 6763 0014 BD46     		mov	sp, r7
 6764              		.cfi_def_cfa_register 13
 6765              		@ sp needed
 6766 0016 5DF8047B 		ldr	r7, [sp], #4
 6767              		.cfi_restore 7
 6768              		.cfi_def_cfa_offset 0
 6769 001a 7047     		bx	lr
 6770              		.cfi_endproc
 6771              	.LFE467:
 6773              		.section	.text.HAL_NAND_Read_Status,"ax",%progbits
 6774              		.align	1
 6775              		.global	HAL_NAND_Read_Status
 6776              		.syntax unified
 6777              		.thumb
 6778              		.thumb_func
 6780              	HAL_NAND_Read_Status:
 6781              	.LFB468:
2144:Drivers/STM32L4xx_HAL_Driver/Src/stm32l4xx_hal_nand.c **** 
2145:Drivers/STM32L4xx_HAL_Driver/Src/stm32l4xx_hal_nand.c **** /**
2146:Drivers/STM32L4xx_HAL_Driver/Src/stm32l4xx_hal_nand.c ****   * @brief  NAND memory read status
2147:Drivers/STM32L4xx_HAL_Driver/Src/stm32l4xx_hal_nand.c ****   * @param  hnand pointer to a NAND_HandleTypeDef structure that contains
ARM GAS  /tmp/ccUr9KqT.s 			page 178


2148:Drivers/STM32L4xx_HAL_Driver/Src/stm32l4xx_hal_nand.c ****   *                the configuration information for NAND module.
2149:Drivers/STM32L4xx_HAL_Driver/Src/stm32l4xx_hal_nand.c ****   * @retval NAND status
2150:Drivers/STM32L4xx_HAL_Driver/Src/stm32l4xx_hal_nand.c ****   */
2151:Drivers/STM32L4xx_HAL_Driver/Src/stm32l4xx_hal_nand.c **** uint32_t HAL_NAND_Read_Status(const NAND_HandleTypeDef *hnand)
2152:Drivers/STM32L4xx_HAL_Driver/Src/stm32l4xx_hal_nand.c **** {
 6782              		.loc 1 2152 1
 6783              		.cfi_startproc
 6784              		@ args = 0, pretend = 0, frame = 16
 6785              		@ frame_needed = 1, uses_anonymous_args = 0
 6786              		@ link register save eliminated.
 6787 0000 80B4     		push	{r7}
 6788              		.cfi_def_cfa_offset 4
 6789              		.cfi_offset 7, -4
 6790 0002 85B0     		sub	sp, sp, #20
 6791              		.cfi_def_cfa_offset 24
 6792 0004 00AF     		add	r7, sp, #0
 6793              		.cfi_def_cfa_register 7
 6794 0006 7860     		str	r0, [r7, #4]
2153:Drivers/STM32L4xx_HAL_Driver/Src/stm32l4xx_hal_nand.c ****   uint32_t data;
2154:Drivers/STM32L4xx_HAL_Driver/Src/stm32l4xx_hal_nand.c ****   uint32_t deviceaddress;
2155:Drivers/STM32L4xx_HAL_Driver/Src/stm32l4xx_hal_nand.c ****   UNUSED(hnand);
2156:Drivers/STM32L4xx_HAL_Driver/Src/stm32l4xx_hal_nand.c **** 
2157:Drivers/STM32L4xx_HAL_Driver/Src/stm32l4xx_hal_nand.c ****   /* Identify the device address */
2158:Drivers/STM32L4xx_HAL_Driver/Src/stm32l4xx_hal_nand.c ****   deviceaddress = NAND_DEVICE;
 6795              		.loc 1 2158 17
 6796 0008 4FF00043 		mov	r3, #-2147483648
 6797 000c FB60     		str	r3, [r7, #12]
2159:Drivers/STM32L4xx_HAL_Driver/Src/stm32l4xx_hal_nand.c **** 
2160:Drivers/STM32L4xx_HAL_Driver/Src/stm32l4xx_hal_nand.c ****   /* Send Read status operation command */
2161:Drivers/STM32L4xx_HAL_Driver/Src/stm32l4xx_hal_nand.c ****   *(__IO uint8_t *)((uint32_t)(deviceaddress | CMD_AREA)) = NAND_CMD_STATUS;
 6798              		.loc 1 2161 21
 6799 000e FB68     		ldr	r3, [r7, #12]
 6800 0010 43F48033 		orr	r3, r3, #65536
 6801              		.loc 1 2161 59
 6802 0014 7022     		movs	r2, #112
 6803 0016 1A70     		strb	r2, [r3]
2162:Drivers/STM32L4xx_HAL_Driver/Src/stm32l4xx_hal_nand.c **** 
2163:Drivers/STM32L4xx_HAL_Driver/Src/stm32l4xx_hal_nand.c ****   /* Read status register data */
2164:Drivers/STM32L4xx_HAL_Driver/Src/stm32l4xx_hal_nand.c ****   data = *(__IO uint8_t *)deviceaddress;
 6804              		.loc 1 2164 11
 6805 0018 FB68     		ldr	r3, [r7, #12]
 6806              		.loc 1 2164 10
 6807 001a 1B78     		ldrb	r3, [r3]
 6808 001c DBB2     		uxtb	r3, r3
 6809              		.loc 1 2164 8
 6810 001e BB60     		str	r3, [r7, #8]
2165:Drivers/STM32L4xx_HAL_Driver/Src/stm32l4xx_hal_nand.c **** 
2166:Drivers/STM32L4xx_HAL_Driver/Src/stm32l4xx_hal_nand.c ****   /* Return the status */
2167:Drivers/STM32L4xx_HAL_Driver/Src/stm32l4xx_hal_nand.c ****   if ((data & NAND_ERROR) == NAND_ERROR)
 6811              		.loc 1 2167 13
 6812 0020 BB68     		ldr	r3, [r7, #8]
 6813 0022 03F00103 		and	r3, r3, #1
 6814              		.loc 1 2167 6
 6815 0026 002B     		cmp	r3, #0
 6816 0028 01D0     		beq	.L201
2168:Drivers/STM32L4xx_HAL_Driver/Src/stm32l4xx_hal_nand.c ****   {
2169:Drivers/STM32L4xx_HAL_Driver/Src/stm32l4xx_hal_nand.c ****     return NAND_ERROR;
ARM GAS  /tmp/ccUr9KqT.s 			page 179


 6817              		.loc 1 2169 12
 6818 002a 0123     		movs	r3, #1
 6819 002c 07E0     		b	.L202
 6820              	.L201:
2170:Drivers/STM32L4xx_HAL_Driver/Src/stm32l4xx_hal_nand.c ****   }
2171:Drivers/STM32L4xx_HAL_Driver/Src/stm32l4xx_hal_nand.c ****   else if ((data & NAND_READY) == NAND_READY)
 6821              		.loc 1 2171 18
 6822 002e BB68     		ldr	r3, [r7, #8]
 6823 0030 03F04003 		and	r3, r3, #64
 6824              		.loc 1 2171 11
 6825 0034 002B     		cmp	r3, #0
 6826 0036 01D0     		beq	.L203
2172:Drivers/STM32L4xx_HAL_Driver/Src/stm32l4xx_hal_nand.c ****   {
2173:Drivers/STM32L4xx_HAL_Driver/Src/stm32l4xx_hal_nand.c ****     return NAND_READY;
 6827              		.loc 1 2173 12
 6828 0038 4023     		movs	r3, #64
 6829 003a 00E0     		b	.L202
 6830              	.L203:
2174:Drivers/STM32L4xx_HAL_Driver/Src/stm32l4xx_hal_nand.c ****   }
2175:Drivers/STM32L4xx_HAL_Driver/Src/stm32l4xx_hal_nand.c ****   else
2176:Drivers/STM32L4xx_HAL_Driver/Src/stm32l4xx_hal_nand.c ****   {
2177:Drivers/STM32L4xx_HAL_Driver/Src/stm32l4xx_hal_nand.c ****     return NAND_BUSY;
 6831              		.loc 1 2177 12
 6832 003c 0023     		movs	r3, #0
 6833              	.L202:
2178:Drivers/STM32L4xx_HAL_Driver/Src/stm32l4xx_hal_nand.c ****   }
2179:Drivers/STM32L4xx_HAL_Driver/Src/stm32l4xx_hal_nand.c **** }
 6834              		.loc 1 2179 1
 6835 003e 1846     		mov	r0, r3
 6836 0040 1437     		adds	r7, r7, #20
 6837              		.cfi_def_cfa_offset 4
 6838 0042 BD46     		mov	sp, r7
 6839              		.cfi_def_cfa_register 13
 6840              		@ sp needed
 6841 0044 5DF8047B 		ldr	r7, [sp], #4
 6842              		.cfi_restore 7
 6843              		.cfi_def_cfa_offset 0
 6844 0048 7047     		bx	lr
 6845              		.cfi_endproc
 6846              	.LFE468:
 6848              		.text
 6849              	.Letext0:
 6850              		.file 3 "/usr/lib/gcc/arm-none-eabi/13.2.1/include/stdint.h"
 6851              		.file 4 "Drivers/CMSIS/Device/ST/STM32L4xx/Include/stm32l475xx.h"
 6852              		.file 5 "Drivers/CMSIS/Device/ST/STM32L4xx/Include/stm32l4xx.h"
 6853              		.file 6 "Drivers/STM32L4xx_HAL_Driver/Inc/stm32l4xx_hal_def.h"
 6854              		.file 7 "Drivers/STM32L4xx_HAL_Driver/Inc/stm32l4xx_ll_fmc.h"
 6855              		.file 8 "Drivers/STM32L4xx_HAL_Driver/Inc/stm32l4xx_hal_nand.h"
 6856              		.file 9 "Drivers/STM32L4xx_HAL_Driver/Inc/stm32l4xx_ll_dma.h"
 6857              		.file 10 "Drivers/STM32L4xx_HAL_Driver/Inc/stm32l4xx_hal.h"
ARM GAS  /tmp/ccUr9KqT.s 			page 180


DEFINED SYMBOLS
                            *ABS*:00000000 stm32l4xx_hal_nand.c
     /tmp/ccUr9KqT.s:21     .rodata.CHANNEL_OFFSET_TAB:00000000 $d
     /tmp/ccUr9KqT.s:24     .rodata.CHANNEL_OFFSET_TAB:00000000 CHANNEL_OFFSET_TAB
     /tmp/ccUr9KqT.s:27     .text.HAL_NAND_Init:00000000 $t
     /tmp/ccUr9KqT.s:33     .text.HAL_NAND_Init:00000000 HAL_NAND_Init
     /tmp/ccUr9KqT.s:186    .text.HAL_NAND_MspInit:00000000 HAL_NAND_MspInit
     /tmp/ccUr9KqT.s:126    .text.HAL_NAND_DeInit:00000000 $t
     /tmp/ccUr9KqT.s:132    .text.HAL_NAND_DeInit:00000000 HAL_NAND_DeInit
     /tmp/ccUr9KqT.s:222    .text.HAL_NAND_MspDeInit:00000000 HAL_NAND_MspDeInit
     /tmp/ccUr9KqT.s:180    .text.HAL_NAND_MspInit:00000000 $t
     /tmp/ccUr9KqT.s:216    .text.HAL_NAND_MspDeInit:00000000 $t
     /tmp/ccUr9KqT.s:252    .text.HAL_NAND_IRQHandler:00000000 $t
     /tmp/ccUr9KqT.s:258    .text.HAL_NAND_IRQHandler:00000000 HAL_NAND_IRQHandler
     /tmp/ccUr9KqT.s:371    .text.HAL_NAND_ITCallback:00000000 HAL_NAND_ITCallback
     /tmp/ccUr9KqT.s:365    .text.HAL_NAND_ITCallback:00000000 $t
     /tmp/ccUr9KqT.s:401    .text.HAL_NAND_Read_ID:00000000 $t
     /tmp/ccUr9KqT.s:407    .text.HAL_NAND_Read_ID:00000000 HAL_NAND_Read_ID
     /tmp/ccUr9KqT.s:618    .text.HAL_NAND_Reset:00000000 $t
     /tmp/ccUr9KqT.s:624    .text.HAL_NAND_Reset:00000000 HAL_NAND_Reset
     /tmp/ccUr9KqT.s:714    .text.HAL_NAND_ConfigDevice:00000000 $t
     /tmp/ccUr9KqT.s:720    .text.HAL_NAND_ConfigDevice:00000000 HAL_NAND_ConfigDevice
     /tmp/ccUr9KqT.s:795    .text.HAL_NAND_Read_Page_8b:00000000 $t
     /tmp/ccUr9KqT.s:801    .text.HAL_NAND_Read_Page_8b:00000000 HAL_NAND_Read_Page_8b
     /tmp/ccUr9KqT.s:6780   .text.HAL_NAND_Read_Status:00000000 HAL_NAND_Read_Status
     /tmp/ccUr9KqT.s:1436   .text.HAL_NAND_Read_Page_16b:00000000 $t
     /tmp/ccUr9KqT.s:1442   .text.HAL_NAND_Read_Page_16b:00000000 HAL_NAND_Read_Page_16b
     /tmp/ccUr9KqT.s:2092   .text.HAL_NAND_Write_Page_8b:00000000 $t
     /tmp/ccUr9KqT.s:2098   .text.HAL_NAND_Write_Page_8b:00000000 HAL_NAND_Write_Page_8b
     /tmp/ccUr9KqT.s:2738   .text.HAL_NAND_Write_Page_16b:00000000 $t
     /tmp/ccUr9KqT.s:2744   .text.HAL_NAND_Write_Page_16b:00000000 HAL_NAND_Write_Page_16b
     /tmp/ccUr9KqT.s:3399   .text.HAL_NAND_Read_SpareArea_8b:00000000 $t
     /tmp/ccUr9KqT.s:3405   .text.HAL_NAND_Read_SpareArea_8b:00000000 HAL_NAND_Read_SpareArea_8b
     /tmp/ccUr9KqT.s:4075   .text.HAL_NAND_Read_SpareArea_16b:00000000 $t
     /tmp/ccUr9KqT.s:4081   .text.HAL_NAND_Read_SpareArea_16b:00000000 HAL_NAND_Read_SpareArea_16b
     /tmp/ccUr9KqT.s:4751   .text.HAL_NAND_Write_SpareArea_8b:00000000 $t
     /tmp/ccUr9KqT.s:4757   .text.HAL_NAND_Write_SpareArea_8b:00000000 HAL_NAND_Write_SpareArea_8b
     /tmp/ccUr9KqT.s:5451   .text.HAL_NAND_Write_SpareArea_16b:00000000 $t
     /tmp/ccUr9KqT.s:5457   .text.HAL_NAND_Write_SpareArea_16b:00000000 HAL_NAND_Write_SpareArea_16b
     /tmp/ccUr9KqT.s:6151   .text.HAL_NAND_Erase_Block:00000000 $t
     /tmp/ccUr9KqT.s:6157   .text.HAL_NAND_Erase_Block:00000000 HAL_NAND_Erase_Block
     /tmp/ccUr9KqT.s:6399   .text.HAL_NAND_Address_Inc:00000000 $t
     /tmp/ccUr9KqT.s:6405   .text.HAL_NAND_Address_Inc:00000000 HAL_NAND_Address_Inc
     /tmp/ccUr9KqT.s:6507   .text.HAL_NAND_ECC_Enable:00000000 $t
     /tmp/ccUr9KqT.s:6513   .text.HAL_NAND_ECC_Enable:00000000 HAL_NAND_ECC_Enable
     /tmp/ccUr9KqT.s:6581   .text.HAL_NAND_ECC_Disable:00000000 $t
     /tmp/ccUr9KqT.s:6587   .text.HAL_NAND_ECC_Disable:00000000 HAL_NAND_ECC_Disable
     /tmp/ccUr9KqT.s:6655   .text.HAL_NAND_GetECC:00000000 $t
     /tmp/ccUr9KqT.s:6661   .text.HAL_NAND_GetECC:00000000 HAL_NAND_GetECC
     /tmp/ccUr9KqT.s:6734   .text.HAL_NAND_GetState:00000000 $t
     /tmp/ccUr9KqT.s:6740   .text.HAL_NAND_GetState:00000000 HAL_NAND_GetState
     /tmp/ccUr9KqT.s:6774   .text.HAL_NAND_Read_Status:00000000 $t
                           .group:00000000 wm4.0.e7b64c2c371cf922f2c8028878d5c18e
                           .group:00000000 wm4.stm32l4xx_hal_conf.h.23.286c2f63aaa73ed97ffb4d26f7caa6e9
                           .group:00000000 wm4.stm32l4xx.h.38.9f5830373ca31b8a3cd182fdc6c7b69a
                           .group:00000000 wm4.stm32l475xx.h.34.2f1a75aed66751e299f09004aef64973
                           .group:00000000 wm4.stdint.h.29.6d480f4ba0f60596e88234283d42444f
ARM GAS  /tmp/ccUr9KqT.s 			page 181


                           .group:00000000 wm4.cmsis_version.h.32.46e8eccfa2cfeaae11d008bb2823a3ed
                           .group:00000000 wm4.core_cm4.h.66.e4ff136c4a17abc46741866f64f8e729
                           .group:00000000 wm4.cmsis_gcc.h.26.78077cef1206e937f7b56043ffca496a
                           .group:00000000 wm4.core_cm4.h.174.fcddd62df80231752fa39eb9b61dadfe
                           .group:00000000 wm4.mpu_armv7.h.32.4049752bb5792d4e15357775e9506cfc
                           .group:00000000 wm4.stm32l475xx.h.423.4d783859c9ac66890c9807dd7bd3a4db
                           .group:00000000 wm4.stm32l4xx.h.196.f5ae8047c57b6175c94f246ef967a286
                           .group:00000000 wm4.stm32_hal_legacy.h.22.08b8350ccf512ba8d98002fb33e7cbe5
                           .group:00000000 wm4.stddef.h.39.0dc9006b34572d4d9cae4c8b422c4971
                           .group:00000000 wm4.stm32l4xx_hal_def.h.58.1058a33f7217e935f2a6b51956d66a69
                           .group:00000000 wm4.stm32l4xx_hal_rcc.h.156.ab8eecc4e10f4827a2aa75d3549a356d
                           .group:00000000 wm4.stm32l4xx_hal_rcc_ex.h.20.4a82a27d561b6d42fa16a54f82e29067
                           .group:00000000 wm4.stm32l4xx_hal_gpio.h.21.2d2b1fd6aa6afa7b6dcc89cf752a9a25
                           .group:00000000 wm4.stm32l4xx_hal_gpio_ex.h.21.7ea705f5185dd3c6b8ea336f2858cd46
                           .group:00000000 wm4.stm32l4xx_ll_dma.h.21.b30e7f48d60d1fc53041ec1e3fd6e54a
                           .group:00000000 wm4.stm32l4xx_hal_dma.h.166.54a7f8d65cee6f051d541dc010387b5a
                           .group:00000000 wm4.stm32l4xx_hal_dfsdm.h.21.6785e38d00075079c7f2e5657def82ae
                           .group:00000000 wm4.stm32l4xx_hal_cortex.h.21.cb491126bd2d6f44e90b66f27acb8434
                           .group:00000000 wm4.stm32l4xx_ll_adc.h.21.0c578f71501c74365c67044efed214d6
                           .group:00000000 wm4.stm32l4xx_hal_adc.h.411.68f60682cdb20556089756a482f23764
                           .group:00000000 wm4.stm32l4xx_hal_adc_ex.h.21.7b82cb80166a21dfa8cb3e2fa8f8e654
                           .group:00000000 wm4.stm32l4xx_hal_can.h.21.5019586d8e7137c0cec16eb1f9d6677b
                           .group:00000000 wm4.stm32l4xx_ll_exti.h.21.d866eff070d6f999af2ce4ea60aa40ac
                           .group:00000000 wm4.stm32l4xx_hal_comp.h.87.7f14cb673a463359c83faa552328844d
                           .group:00000000 wm4.stm32l4xx_hal_crc.h.21.4c36a140cca35e6a8e478e76c6ad98e3
                           .group:00000000 wm4.stm32l4xx_hal_crc_ex.h.21.9cc3dead436542d416ee5572c231a242
                           .group:00000000 wm4.stm32l4xx_hal_dac.h.21.69feba704135531cf3d9b92de27b71d5
                           .group:00000000 wm4.stm32l4xx_hal_dac_ex.h.21.c86699169bead5415cc3e94027b67df4
                           .group:00000000 wm4.stm32l4xx_hal_exti.h.21.242e0410874d91d6d7523948fff74125
                           .group:00000000 wm4.stm32l4xx_hal_firewall.h.21.7ed44f4228fcc2ef96d2177dd8632645
                           .group:00000000 wm4.stm32l4xx_hal_flash.h.20.5e337018ccfa211b4afe888a79aae9f5
                           .group:00000000 wm4.stm32l4xx_hal_flash.h.846.0445f6ea07a3f9aac82891c8687d96fb
                           .group:00000000 wm4.stm32l4xx_ll_usb.h.21.5b5e42fb72a33dd326d7b20064953946
                           .group:00000000 wm4.stm32l4xx_hal_hcd.h.107.73f2fd24f57e8822da5cc86bd5ad3dfd
                           .group:00000000 wm4.stm32l4xx_hal_i2c.h.21.e7fc2065051c77019a818818e4a637d8
                           .group:00000000 wm4.stm32l4xx_hal_i2c_ex.h.21.ad4ad4e558d4fec06df87d163a6927d7
                           .group:00000000 wm4.stm32l4xx_hal_i2c.h.737.fa3908c81294cf0f9894ae336466002c
                           .group:00000000 wm4.stm32l4xx_hal_irda.h.21.136c042f9eef333167a549cc099df0c9
                           .group:00000000 wm4.stm32l4xx_hal_irda_ex.h.21.e0ada4e6d2b2cadfb512dd3c8ac0a637
                           .group:00000000 wm4.stm32l4xx_hal_iwdg.h.21.f94ca75f2fe1ebc7a2a8d0f5b58d8430
                           .group:00000000 wm4.stm32l4xx_hal_lptim.h.21.78222ea6639fc8c02789d293a048991e
                           .group:00000000 wm4.stm32l4xx_ll_sdmmc.h.21.65a5a8696b6ca7b87cc93d218084d702
                           .group:00000000 wm4.stm32l4xx_hal_mmc.h.69.8f4159f0a88ef1ebc33c58a8f10362b9
                           .group:00000000 wm4.stm32l4xx_ll_fmc.h.21.156a244c55010643ee92c6119049cb68
                           .group:00000000 wm4.stm32l4xx_hal_nand.h.176.9bfeac6e4e757991088bbd0df44e2be9
                           .group:00000000 wm4.stm32l4xx_hal_nor.h.21.d47e91e825f466bbac02fac0a7845a7a
                           .group:00000000 wm4.stm32l4xx_hal_opamp.h.21.9d841e1eaccee939f247b3f973f8af5f
                           .group:00000000 wm4.stm32l4xx_hal_pcd.h.169.addb1fac652268a18a0707cfcb5e2e47
                           .group:00000000 wm4.stm32l4xx_hal_pwr.h.21.7ddab2caa97243c36e496eca17b27618
                           .group:00000000 wm4.stm32l4xx_hal_pwr_ex.h.21.65ad8bbdbcb1950d945c0de10f22dc80
                           .group:00000000 wm4.stm32l4xx_hal_qspi.h.21.0291dad4eaa82101f2f77d76315c9b12
                           .group:00000000 wm4.stm32l4xx_hal_rng.h.21.96593715bdeab0c74ac9dfc538fb2feb
                           .group:00000000 wm4.stm32l4xx_hal_rtc.h.21.9da6b1aeebde99930891f803cb7f9678
                           .group:00000000 wm4.stm32l4xx_hal_rtc_ex.h.21.c692539378320719c7f2a2da1ca64502
                           .group:00000000 wm4.stm32l4xx_hal_rtc.h.999.c8bd9450c783628bd606ecb31bea5cc9
                           .group:00000000 wm4.stm32l4xx_hal_sai.h.21.c1165aaf2bbde65fae28ed4817be5cc5
                           .group:00000000 wm4.stm32l4xx_hal_sd.h.21.b395c90a87e82f7e8d77d4a518036063
ARM GAS  /tmp/ccUr9KqT.s 			page 182


                           .group:00000000 wm4.stm32l4xx_hal_smartcard.h.21.423c3ad63e0df35b864303e89e6d253c
                           .group:00000000 wm4.stm32l4xx_hal_smartcard_ex.h.21.801a2ce9252a785aec000b3fc7667a74
                           .group:00000000 wm4.stm32l4xx_hal_smbus.h.21.7480adb16468bfdce819ee591f21299e
                           .group:00000000 wm4.stm32l4xx_hal_smbus_ex.h.21.bdc715f5f6fb6612a871d3c03c3b871f
                           .group:00000000 wm4.stm32l4xx_hal_spi.h.21.3b51f9f7b241962f6b3483c47a43334f
                           .group:00000000 wm4.stm32l4xx_hal_sram.h.21.285210181e158bddc1cdde63dde572fd
                           .group:00000000 wm4.stm32l4xx_hal_swpmi.h.21.787f994f40b117a62aad9a6dd408b8fc
                           .group:00000000 wm4.stm32l4xx_hal_tim.h.21.d190832030e7505384ad081daa7ba8d6
                           .group:00000000 wm4.stm32l4xx_hal_tim_ex.h.21.1d0860218366ee9f64a97fd8af0ddee1
                           .group:00000000 wm4.stm32l4xx_hal_tsc.h.21.e9010049847ea38297d4b95a5ede0d8c
                           .group:00000000 wm4.stm32l4xx_hal_uart.h.21.480c0a64ca01596a921cda9dceb01df4
                           .group:00000000 wm4.stm32l4xx_hal_uart_ex.h.21.d793e64693c93af07c90464aef42bd83
                           .group:00000000 wm4.stm32l4xx_hal_usart.h.21.561c0058e33cb8df6671dcd29d5d25f9
                           .group:00000000 wm4.stm32l4xx_hal_usart_ex.h.21.111da650523691ebc80d64103d7b26e5
                           .group:00000000 wm4.stm32l4xx_hal_wwdg.h.21.073aa79d58120ae4fb8590c46b210051
                           .group:00000000 wm4.stm32l4xx_hal.h.75.d364b3778b3801d2f66bb409c48d396d

UNDEFINED SYMBOLS
FMC_NAND_Init
FMC_NAND_CommonSpace_Timing_Init
FMC_NAND_AttributeSpace_Timing_Init
FMC_NAND_DeInit
HAL_GetTick
FMC_NAND_ECC_Enable
FMC_NAND_ECC_Disable
FMC_NAND_GetECC
