ARM GAS  /tmp/ccZ1T6Sv.s 			page 1


   1              		.cpu cortex-m4
   2              		.arch armv7e-m
   3              		.fpu fpv4-sp-d16
   4              		.eabi_attribute 27, 1
   5              		.eabi_attribute 28, 1
   6              		.eabi_attribute 20, 1
   7              		.eabi_attribute 21, 1
   8              		.eabi_attribute 23, 3
   9              		.eabi_attribute 24, 1
  10              		.eabi_attribute 25, 1
  11              		.eabi_attribute 26, 1
  12              		.eabi_attribute 30, 6
  13              		.eabi_attribute 34, 1
  14              		.eabi_attribute 18, 4
  15              		.file	"stm32l4xx_ll_sdmmc.c"
  16              		.text
  17              	.Ltext0:
  18              		.cfi_sections	.debug_frame
  19              		.file 1 "Drivers/STM32L4xx_HAL_Driver/Src/stm32l4xx_ll_sdmmc.c"
  20              		.section	.rodata.CHANNEL_OFFSET_TAB,"a"
  21              		.align	2
  24              	CHANNEL_OFFSET_TAB:
  25 0000 081C3044 		.ascii	"\010\0340DXl\200"
  25      586C80
  26              		.section	.text.SDMMC_Init,"ax",%progbits
  27              		.align	1
  28              		.global	SDMMC_Init
  29              		.syntax unified
  30              		.thumb
  31              		.thumb_func
  33              	SDMMC_Init:
  34              	.LFB445:
   1:Drivers/STM32L4xx_HAL_Driver/Src/stm32l4xx_ll_sdmmc.c **** /**
   2:Drivers/STM32L4xx_HAL_Driver/Src/stm32l4xx_ll_sdmmc.c ****   ******************************************************************************
   3:Drivers/STM32L4xx_HAL_Driver/Src/stm32l4xx_ll_sdmmc.c ****   * @file    stm32l4xx_ll_sdmmc.c
   4:Drivers/STM32L4xx_HAL_Driver/Src/stm32l4xx_ll_sdmmc.c ****   * @author  MCD Application Team
   5:Drivers/STM32L4xx_HAL_Driver/Src/stm32l4xx_ll_sdmmc.c ****   * @brief   SDMMC Low Layer HAL module driver.
   6:Drivers/STM32L4xx_HAL_Driver/Src/stm32l4xx_ll_sdmmc.c ****   *
   7:Drivers/STM32L4xx_HAL_Driver/Src/stm32l4xx_ll_sdmmc.c ****   *          This file provides firmware functions to manage the following
   8:Drivers/STM32L4xx_HAL_Driver/Src/stm32l4xx_ll_sdmmc.c ****   *          functionalities of the SDMMC peripheral:
   9:Drivers/STM32L4xx_HAL_Driver/Src/stm32l4xx_ll_sdmmc.c ****   *           + Initialization/de-initialization functions
  10:Drivers/STM32L4xx_HAL_Driver/Src/stm32l4xx_ll_sdmmc.c ****   *           + I/O operation functions
  11:Drivers/STM32L4xx_HAL_Driver/Src/stm32l4xx_ll_sdmmc.c ****   *           + Peripheral Control functions
  12:Drivers/STM32L4xx_HAL_Driver/Src/stm32l4xx_ll_sdmmc.c ****   *           + Peripheral State functions
  13:Drivers/STM32L4xx_HAL_Driver/Src/stm32l4xx_ll_sdmmc.c ****   *
  14:Drivers/STM32L4xx_HAL_Driver/Src/stm32l4xx_ll_sdmmc.c ****   ******************************************************************************
  15:Drivers/STM32L4xx_HAL_Driver/Src/stm32l4xx_ll_sdmmc.c ****   * @attention
  16:Drivers/STM32L4xx_HAL_Driver/Src/stm32l4xx_ll_sdmmc.c ****   *
  17:Drivers/STM32L4xx_HAL_Driver/Src/stm32l4xx_ll_sdmmc.c ****   * Copyright (c) 2017 STMicroelectronics.
  18:Drivers/STM32L4xx_HAL_Driver/Src/stm32l4xx_ll_sdmmc.c ****   * All rights reserved.
  19:Drivers/STM32L4xx_HAL_Driver/Src/stm32l4xx_ll_sdmmc.c ****   *
  20:Drivers/STM32L4xx_HAL_Driver/Src/stm32l4xx_ll_sdmmc.c ****   * This software is licensed under terms that can be found in the LICENSE file
  21:Drivers/STM32L4xx_HAL_Driver/Src/stm32l4xx_ll_sdmmc.c ****   * in the root directory of this software component.
  22:Drivers/STM32L4xx_HAL_Driver/Src/stm32l4xx_ll_sdmmc.c ****   * If no LICENSE file comes with this software, it is provided AS-IS.
  23:Drivers/STM32L4xx_HAL_Driver/Src/stm32l4xx_ll_sdmmc.c ****   *
  24:Drivers/STM32L4xx_HAL_Driver/Src/stm32l4xx_ll_sdmmc.c ****   ******************************************************************************
  25:Drivers/STM32L4xx_HAL_Driver/Src/stm32l4xx_ll_sdmmc.c ****   @verbatim
ARM GAS  /tmp/ccZ1T6Sv.s 			page 2


  26:Drivers/STM32L4xx_HAL_Driver/Src/stm32l4xx_ll_sdmmc.c ****   ==============================================================================
  27:Drivers/STM32L4xx_HAL_Driver/Src/stm32l4xx_ll_sdmmc.c ****                        ##### SDMMC peripheral features #####
  28:Drivers/STM32L4xx_HAL_Driver/Src/stm32l4xx_ll_sdmmc.c ****   ==============================================================================
  29:Drivers/STM32L4xx_HAL_Driver/Src/stm32l4xx_ll_sdmmc.c ****     [..] The SD/SDMMC MMC card host interface (SDMMC) provides an interface between the AHB
  30:Drivers/STM32L4xx_HAL_Driver/Src/stm32l4xx_ll_sdmmc.c ****          peripheral bus and MultiMedia cards (MMCs), SD memory cards, SDMMC cards and CE-ATA
  31:Drivers/STM32L4xx_HAL_Driver/Src/stm32l4xx_ll_sdmmc.c ****          devices.
  32:Drivers/STM32L4xx_HAL_Driver/Src/stm32l4xx_ll_sdmmc.c **** 
  33:Drivers/STM32L4xx_HAL_Driver/Src/stm32l4xx_ll_sdmmc.c ****     [..] The SDMMC features include the following:
  34:Drivers/STM32L4xx_HAL_Driver/Src/stm32l4xx_ll_sdmmc.c ****      (+) Full compliance with MultiMediaCard System Specification Version 4.51. Card support
  35:Drivers/STM32L4xx_HAL_Driver/Src/stm32l4xx_ll_sdmmc.c ****              for three different databus modes: 1-bit (default), 4-bit and 8-bit.
  36:Drivers/STM32L4xx_HAL_Driver/Src/stm32l4xx_ll_sdmmc.c ****          (+) Full compatibility with previous versions of MultiMediaCards (backward compatibility).
  37:Drivers/STM32L4xx_HAL_Driver/Src/stm32l4xx_ll_sdmmc.c ****          (+) Full compliance with SD memory card specifications version 4.1.
  38:Drivers/STM32L4xx_HAL_Driver/Src/stm32l4xx_ll_sdmmc.c ****              (SDR104 SDMMC_CK speed limited to maximum allowed IO speed, SPI mode and
  39:Drivers/STM32L4xx_HAL_Driver/Src/stm32l4xx_ll_sdmmc.c ****               UHS-II mode not supported).
  40:Drivers/STM32L4xx_HAL_Driver/Src/stm32l4xx_ll_sdmmc.c ****          (+) Full compliance with SDIO card specification version 4.0. Card support
  41:Drivers/STM32L4xx_HAL_Driver/Src/stm32l4xx_ll_sdmmc.c ****              for two different databus modes: 1-bit (default) and 4-bit.
  42:Drivers/STM32L4xx_HAL_Driver/Src/stm32l4xx_ll_sdmmc.c ****              (SDR104 SDMMC_CK speed limited to maximum allowed IO speed, SPI mode and
  43:Drivers/STM32L4xx_HAL_Driver/Src/stm32l4xx_ll_sdmmc.c ****               UHS-II mode not supported).
  44:Drivers/STM32L4xx_HAL_Driver/Src/stm32l4xx_ll_sdmmc.c ****          (+) Data transfer up to 208 Mbyte/s for the 8 bit mode. (depending maximum allowed IO spee
  45:Drivers/STM32L4xx_HAL_Driver/Src/stm32l4xx_ll_sdmmc.c ****          (+) Data and command output enable signals to control external bidirectional drivers
  46:Drivers/STM32L4xx_HAL_Driver/Src/stm32l4xx_ll_sdmmc.c **** 
  47:Drivers/STM32L4xx_HAL_Driver/Src/stm32l4xx_ll_sdmmc.c ****                            ##### How to use this driver #####
  48:Drivers/STM32L4xx_HAL_Driver/Src/stm32l4xx_ll_sdmmc.c ****   ==============================================================================
  49:Drivers/STM32L4xx_HAL_Driver/Src/stm32l4xx_ll_sdmmc.c ****     [..]
  50:Drivers/STM32L4xx_HAL_Driver/Src/stm32l4xx_ll_sdmmc.c ****       This driver is a considered as a driver of service for external devices drivers
  51:Drivers/STM32L4xx_HAL_Driver/Src/stm32l4xx_ll_sdmmc.c ****       that interfaces with the SDMMC peripheral.
  52:Drivers/STM32L4xx_HAL_Driver/Src/stm32l4xx_ll_sdmmc.c ****       According to the device used (SD card/ MMC card / SDMMC card ...), a set of APIs
  53:Drivers/STM32L4xx_HAL_Driver/Src/stm32l4xx_ll_sdmmc.c ****       is used in the device's driver to perform SDMMC operations and functionalities.
  54:Drivers/STM32L4xx_HAL_Driver/Src/stm32l4xx_ll_sdmmc.c **** 
  55:Drivers/STM32L4xx_HAL_Driver/Src/stm32l4xx_ll_sdmmc.c ****       This driver is almost transparent for the final user, it is only used to implement other
  56:Drivers/STM32L4xx_HAL_Driver/Src/stm32l4xx_ll_sdmmc.c ****       functionalities of the external device.
  57:Drivers/STM32L4xx_HAL_Driver/Src/stm32l4xx_ll_sdmmc.c **** 
  58:Drivers/STM32L4xx_HAL_Driver/Src/stm32l4xx_ll_sdmmc.c ****     [..]
  59:Drivers/STM32L4xx_HAL_Driver/Src/stm32l4xx_ll_sdmmc.c ****       (+) The SDMMC clock (SDMMCCLK = 48 MHz) is coming from a specific output (MSI, PLLUSB1CLK,
  60:Drivers/STM32L4xx_HAL_Driver/Src/stm32l4xx_ll_sdmmc.c ****           PLLUSB2CLK). Before start working with SDMMC peripheral make sure that the
  61:Drivers/STM32L4xx_HAL_Driver/Src/stm32l4xx_ll_sdmmc.c ****           PLL is well configured.
  62:Drivers/STM32L4xx_HAL_Driver/Src/stm32l4xx_ll_sdmmc.c ****           The SDMMC peripheral uses two clock signals:
  63:Drivers/STM32L4xx_HAL_Driver/Src/stm32l4xx_ll_sdmmc.c ****           (++) SDMMC adapter clock (SDMMCCLK = 48 MHz)
  64:Drivers/STM32L4xx_HAL_Driver/Src/stm32l4xx_ll_sdmmc.c ****           (++) APB2 bus clock (PCLK2)
  65:Drivers/STM32L4xx_HAL_Driver/Src/stm32l4xx_ll_sdmmc.c **** 
  66:Drivers/STM32L4xx_HAL_Driver/Src/stm32l4xx_ll_sdmmc.c ****           -@@- PCLK2 and SDMMC_CK clock frequencies must respect the following condition:
  67:Drivers/STM32L4xx_HAL_Driver/Src/stm32l4xx_ll_sdmmc.c ****                Frequency(PCLK2) >= (3 / 8 x Frequency(SDMMC_CK)) for STM32L496xG and STM32L4A6xG
  68:Drivers/STM32L4xx_HAL_Driver/Src/stm32l4xx_ll_sdmmc.c ****                Frequency(PCLK2) >= (3 / 4 x Frequency(SDMMC_CK)) otherwise
  69:Drivers/STM32L4xx_HAL_Driver/Src/stm32l4xx_ll_sdmmc.c **** 
  70:Drivers/STM32L4xx_HAL_Driver/Src/stm32l4xx_ll_sdmmc.c ****       (+) Enable/Disable peripheral clock using RCC peripheral macros related to SDMMC
  71:Drivers/STM32L4xx_HAL_Driver/Src/stm32l4xx_ll_sdmmc.c ****           peripheral.
  72:Drivers/STM32L4xx_HAL_Driver/Src/stm32l4xx_ll_sdmmc.c **** 
  73:Drivers/STM32L4xx_HAL_Driver/Src/stm32l4xx_ll_sdmmc.c ****       (+) Enable the Power ON State using the SDMMC_PowerState_ON()
  74:Drivers/STM32L4xx_HAL_Driver/Src/stm32l4xx_ll_sdmmc.c ****           function and disable it using the function SDMMC_PowerState_OFF().
  75:Drivers/STM32L4xx_HAL_Driver/Src/stm32l4xx_ll_sdmmc.c **** 
  76:Drivers/STM32L4xx_HAL_Driver/Src/stm32l4xx_ll_sdmmc.c ****       (+) Enable/Disable the clock using the __SDMMC_ENABLE()/__SDMMC_DISABLE() macros.
  77:Drivers/STM32L4xx_HAL_Driver/Src/stm32l4xx_ll_sdmmc.c **** 
  78:Drivers/STM32L4xx_HAL_Driver/Src/stm32l4xx_ll_sdmmc.c ****       (+) Enable/Disable the peripheral interrupts using the macros __SDMMC_ENABLE_IT()
  79:Drivers/STM32L4xx_HAL_Driver/Src/stm32l4xx_ll_sdmmc.c ****           and __SDMMC_DISABLE_IT() if you need to use interrupt mode.
  80:Drivers/STM32L4xx_HAL_Driver/Src/stm32l4xx_ll_sdmmc.c **** 
  81:Drivers/STM32L4xx_HAL_Driver/Src/stm32l4xx_ll_sdmmc.c ****       (+) When using the DMA mode
  82:Drivers/STM32L4xx_HAL_Driver/Src/stm32l4xx_ll_sdmmc.c ****           (++) On STM32L4Rx/STM32L4Sxx devices
ARM GAS  /tmp/ccZ1T6Sv.s 			page 3


  83:Drivers/STM32L4xx_HAL_Driver/Src/stm32l4xx_ll_sdmmc.c ****                (+++) Configure the IDMA mode (Single buffer or double)
  84:Drivers/STM32L4xx_HAL_Driver/Src/stm32l4xx_ll_sdmmc.c ****                (+++) Configure the buffer address
  85:Drivers/STM32L4xx_HAL_Driver/Src/stm32l4xx_ll_sdmmc.c ****                (+++) Configure Data Path State Machine
  86:Drivers/STM32L4xx_HAL_Driver/Src/stm32l4xx_ll_sdmmc.c ****           (++) On other devices
  87:Drivers/STM32L4xx_HAL_Driver/Src/stm32l4xx_ll_sdmmc.c ****                (+++) Configure the DMA in the MSP layer of the external device
  88:Drivers/STM32L4xx_HAL_Driver/Src/stm32l4xx_ll_sdmmc.c ****                (+++) Active the needed channel Request
  89:Drivers/STM32L4xx_HAL_Driver/Src/stm32l4xx_ll_sdmmc.c ****                (+++) Enable the DMA using __SDMMC_DMA_ENABLE() macro or Disable it using the macro
  90:Drivers/STM32L4xx_HAL_Driver/Src/stm32l4xx_ll_sdmmc.c ****            __SDMMC_DMA_DISABLE().
  91:Drivers/STM32L4xx_HAL_Driver/Src/stm32l4xx_ll_sdmmc.c **** 
  92:Drivers/STM32L4xx_HAL_Driver/Src/stm32l4xx_ll_sdmmc.c ****       (+) To control the CPSM (Command Path State Machine) and send
  93:Drivers/STM32L4xx_HAL_Driver/Src/stm32l4xx_ll_sdmmc.c ****           commands to the card use the SDMMC_SendCommand(),
  94:Drivers/STM32L4xx_HAL_Driver/Src/stm32l4xx_ll_sdmmc.c ****           SDMMC_GetCommandResponse() and SDMMC_GetResponse() functions. First, user has
  95:Drivers/STM32L4xx_HAL_Driver/Src/stm32l4xx_ll_sdmmc.c ****           to fill the command structure (pointer to SDMMC_CmdInitTypeDef) according
  96:Drivers/STM32L4xx_HAL_Driver/Src/stm32l4xx_ll_sdmmc.c ****           to the selected command to be sent.
  97:Drivers/STM32L4xx_HAL_Driver/Src/stm32l4xx_ll_sdmmc.c ****           The parameters that should be filled are:
  98:Drivers/STM32L4xx_HAL_Driver/Src/stm32l4xx_ll_sdmmc.c ****            (++) Command Argument
  99:Drivers/STM32L4xx_HAL_Driver/Src/stm32l4xx_ll_sdmmc.c ****            (++) Command Index
 100:Drivers/STM32L4xx_HAL_Driver/Src/stm32l4xx_ll_sdmmc.c ****            (++) Command Response type
 101:Drivers/STM32L4xx_HAL_Driver/Src/stm32l4xx_ll_sdmmc.c ****            (++) Command Wait
 102:Drivers/STM32L4xx_HAL_Driver/Src/stm32l4xx_ll_sdmmc.c ****            (++) CPSM Status (Enable or Disable).
 103:Drivers/STM32L4xx_HAL_Driver/Src/stm32l4xx_ll_sdmmc.c **** 
 104:Drivers/STM32L4xx_HAL_Driver/Src/stm32l4xx_ll_sdmmc.c ****           -@@- To check if the command is well received, read the SDMMC_CMDRESP
 105:Drivers/STM32L4xx_HAL_Driver/Src/stm32l4xx_ll_sdmmc.c ****               register using the SDMMC_GetCommandResponse().
 106:Drivers/STM32L4xx_HAL_Driver/Src/stm32l4xx_ll_sdmmc.c ****               The SDMMC responses registers (SDMMC_RESP1 to SDMMC_RESP2), use the
 107:Drivers/STM32L4xx_HAL_Driver/Src/stm32l4xx_ll_sdmmc.c ****               SDMMC_GetResponse() function.
 108:Drivers/STM32L4xx_HAL_Driver/Src/stm32l4xx_ll_sdmmc.c **** 
 109:Drivers/STM32L4xx_HAL_Driver/Src/stm32l4xx_ll_sdmmc.c ****       (+) To control the DPSM (Data Path State Machine) and send/receive
 110:Drivers/STM32L4xx_HAL_Driver/Src/stm32l4xx_ll_sdmmc.c ****            data to/from the card use the SDMMC_DataConfig(), SDMMC_GetDataCounter(),
 111:Drivers/STM32L4xx_HAL_Driver/Src/stm32l4xx_ll_sdmmc.c ****           SDMMC_ReadFIFO(), SDMMC_WriteFIFO() and SDMMC_GetFIFOCount() functions.
 112:Drivers/STM32L4xx_HAL_Driver/Src/stm32l4xx_ll_sdmmc.c **** 
 113:Drivers/STM32L4xx_HAL_Driver/Src/stm32l4xx_ll_sdmmc.c ****     *** Read Operations ***
 114:Drivers/STM32L4xx_HAL_Driver/Src/stm32l4xx_ll_sdmmc.c ****     =======================
 115:Drivers/STM32L4xx_HAL_Driver/Src/stm32l4xx_ll_sdmmc.c ****     [..]
 116:Drivers/STM32L4xx_HAL_Driver/Src/stm32l4xx_ll_sdmmc.c ****       (#) First, user has to fill the data structure (pointer to
 117:Drivers/STM32L4xx_HAL_Driver/Src/stm32l4xx_ll_sdmmc.c ****           SDMMC_DataInitTypeDef) according to the selected data type to be received.
 118:Drivers/STM32L4xx_HAL_Driver/Src/stm32l4xx_ll_sdmmc.c ****           The parameters that should be filled are:
 119:Drivers/STM32L4xx_HAL_Driver/Src/stm32l4xx_ll_sdmmc.c ****            (++) Data TimeOut
 120:Drivers/STM32L4xx_HAL_Driver/Src/stm32l4xx_ll_sdmmc.c ****            (++) Data Length
 121:Drivers/STM32L4xx_HAL_Driver/Src/stm32l4xx_ll_sdmmc.c ****            (++) Data Block size
 122:Drivers/STM32L4xx_HAL_Driver/Src/stm32l4xx_ll_sdmmc.c ****            (++) Data Transfer direction: should be from card (To SDMMC)
 123:Drivers/STM32L4xx_HAL_Driver/Src/stm32l4xx_ll_sdmmc.c ****            (++) Data Transfer mode
 124:Drivers/STM32L4xx_HAL_Driver/Src/stm32l4xx_ll_sdmmc.c ****            (++) DPSM Status (Enable or Disable)
 125:Drivers/STM32L4xx_HAL_Driver/Src/stm32l4xx_ll_sdmmc.c **** 
 126:Drivers/STM32L4xx_HAL_Driver/Src/stm32l4xx_ll_sdmmc.c ****       (#) Configure the SDMMC resources to receive the data from the card
 127:Drivers/STM32L4xx_HAL_Driver/Src/stm32l4xx_ll_sdmmc.c ****           according to selected transfer mode (Refer to Step 8, 9 and 10).
 128:Drivers/STM32L4xx_HAL_Driver/Src/stm32l4xx_ll_sdmmc.c **** 
 129:Drivers/STM32L4xx_HAL_Driver/Src/stm32l4xx_ll_sdmmc.c ****       (#) Send the selected Read command (refer to step 11).
 130:Drivers/STM32L4xx_HAL_Driver/Src/stm32l4xx_ll_sdmmc.c **** 
 131:Drivers/STM32L4xx_HAL_Driver/Src/stm32l4xx_ll_sdmmc.c ****       (#) Use the SDMMC flags/interrupts to check the transfer status.
 132:Drivers/STM32L4xx_HAL_Driver/Src/stm32l4xx_ll_sdmmc.c **** 
 133:Drivers/STM32L4xx_HAL_Driver/Src/stm32l4xx_ll_sdmmc.c ****     *** Write Operations ***
 134:Drivers/STM32L4xx_HAL_Driver/Src/stm32l4xx_ll_sdmmc.c ****     ========================
 135:Drivers/STM32L4xx_HAL_Driver/Src/stm32l4xx_ll_sdmmc.c ****     [..]
 136:Drivers/STM32L4xx_HAL_Driver/Src/stm32l4xx_ll_sdmmc.c ****      (#) First, user has to fill the data structure (pointer to
 137:Drivers/STM32L4xx_HAL_Driver/Src/stm32l4xx_ll_sdmmc.c ****          SDMMC_DataInitTypeDef) according to the selected data type to be received.
 138:Drivers/STM32L4xx_HAL_Driver/Src/stm32l4xx_ll_sdmmc.c ****          The parameters that should be filled are:
 139:Drivers/STM32L4xx_HAL_Driver/Src/stm32l4xx_ll_sdmmc.c ****           (++) Data TimeOut
ARM GAS  /tmp/ccZ1T6Sv.s 			page 4


 140:Drivers/STM32L4xx_HAL_Driver/Src/stm32l4xx_ll_sdmmc.c ****           (++) Data Length
 141:Drivers/STM32L4xx_HAL_Driver/Src/stm32l4xx_ll_sdmmc.c ****           (++) Data Block size
 142:Drivers/STM32L4xx_HAL_Driver/Src/stm32l4xx_ll_sdmmc.c ****           (++) Data Transfer direction:  should be to card (To CARD)
 143:Drivers/STM32L4xx_HAL_Driver/Src/stm32l4xx_ll_sdmmc.c ****           (++) Data Transfer mode
 144:Drivers/STM32L4xx_HAL_Driver/Src/stm32l4xx_ll_sdmmc.c ****           (++) DPSM Status (Enable or Disable)
 145:Drivers/STM32L4xx_HAL_Driver/Src/stm32l4xx_ll_sdmmc.c **** 
 146:Drivers/STM32L4xx_HAL_Driver/Src/stm32l4xx_ll_sdmmc.c ****      (#) Configure the SDMMC resources to send the data to the card according to
 147:Drivers/STM32L4xx_HAL_Driver/Src/stm32l4xx_ll_sdmmc.c ****          selected transfer mode.
 148:Drivers/STM32L4xx_HAL_Driver/Src/stm32l4xx_ll_sdmmc.c **** 
 149:Drivers/STM32L4xx_HAL_Driver/Src/stm32l4xx_ll_sdmmc.c ****      (#) Send the selected Write command.
 150:Drivers/STM32L4xx_HAL_Driver/Src/stm32l4xx_ll_sdmmc.c **** 
 151:Drivers/STM32L4xx_HAL_Driver/Src/stm32l4xx_ll_sdmmc.c ****      (#) Use the SDMMC flags/interrupts to check the transfer status.
 152:Drivers/STM32L4xx_HAL_Driver/Src/stm32l4xx_ll_sdmmc.c **** 
 153:Drivers/STM32L4xx_HAL_Driver/Src/stm32l4xx_ll_sdmmc.c ****     *** Command management operations ***
 154:Drivers/STM32L4xx_HAL_Driver/Src/stm32l4xx_ll_sdmmc.c ****     =====================================
 155:Drivers/STM32L4xx_HAL_Driver/Src/stm32l4xx_ll_sdmmc.c ****     [..]
 156:Drivers/STM32L4xx_HAL_Driver/Src/stm32l4xx_ll_sdmmc.c ****      (#) The commands used for Read/Write/Erase operations are managed in
 157:Drivers/STM32L4xx_HAL_Driver/Src/stm32l4xx_ll_sdmmc.c ****          separate functions.
 158:Drivers/STM32L4xx_HAL_Driver/Src/stm32l4xx_ll_sdmmc.c ****          Each function allows to send the needed command with the related argument,
 159:Drivers/STM32L4xx_HAL_Driver/Src/stm32l4xx_ll_sdmmc.c ****          then check the response.
 160:Drivers/STM32L4xx_HAL_Driver/Src/stm32l4xx_ll_sdmmc.c ****          By the same approach, you could implement a command and check the response.
 161:Drivers/STM32L4xx_HAL_Driver/Src/stm32l4xx_ll_sdmmc.c **** 
 162:Drivers/STM32L4xx_HAL_Driver/Src/stm32l4xx_ll_sdmmc.c ****   @endverbatim
 163:Drivers/STM32L4xx_HAL_Driver/Src/stm32l4xx_ll_sdmmc.c ****   ******************************************************************************
 164:Drivers/STM32L4xx_HAL_Driver/Src/stm32l4xx_ll_sdmmc.c ****   */
 165:Drivers/STM32L4xx_HAL_Driver/Src/stm32l4xx_ll_sdmmc.c **** 
 166:Drivers/STM32L4xx_HAL_Driver/Src/stm32l4xx_ll_sdmmc.c **** /* Includes ------------------------------------------------------------------*/
 167:Drivers/STM32L4xx_HAL_Driver/Src/stm32l4xx_ll_sdmmc.c **** #include "stm32l4xx_hal.h"
 168:Drivers/STM32L4xx_HAL_Driver/Src/stm32l4xx_ll_sdmmc.c **** 
 169:Drivers/STM32L4xx_HAL_Driver/Src/stm32l4xx_ll_sdmmc.c **** #if defined(SDMMC1)
 170:Drivers/STM32L4xx_HAL_Driver/Src/stm32l4xx_ll_sdmmc.c **** 
 171:Drivers/STM32L4xx_HAL_Driver/Src/stm32l4xx_ll_sdmmc.c **** /** @addtogroup STM32L4xx_HAL_Driver
 172:Drivers/STM32L4xx_HAL_Driver/Src/stm32l4xx_ll_sdmmc.c ****   * @{
 173:Drivers/STM32L4xx_HAL_Driver/Src/stm32l4xx_ll_sdmmc.c ****   */
 174:Drivers/STM32L4xx_HAL_Driver/Src/stm32l4xx_ll_sdmmc.c **** 
 175:Drivers/STM32L4xx_HAL_Driver/Src/stm32l4xx_ll_sdmmc.c **** /** @defgroup SDMMC_LL SDMMC Low Layer
 176:Drivers/STM32L4xx_HAL_Driver/Src/stm32l4xx_ll_sdmmc.c ****   * @brief Low layer module for SD
 177:Drivers/STM32L4xx_HAL_Driver/Src/stm32l4xx_ll_sdmmc.c ****   * @{
 178:Drivers/STM32L4xx_HAL_Driver/Src/stm32l4xx_ll_sdmmc.c ****   */
 179:Drivers/STM32L4xx_HAL_Driver/Src/stm32l4xx_ll_sdmmc.c **** 
 180:Drivers/STM32L4xx_HAL_Driver/Src/stm32l4xx_ll_sdmmc.c **** #if defined(HAL_SD_MODULE_ENABLED) || defined(HAL_MMC_MODULE_ENABLED)
 181:Drivers/STM32L4xx_HAL_Driver/Src/stm32l4xx_ll_sdmmc.c **** 
 182:Drivers/STM32L4xx_HAL_Driver/Src/stm32l4xx_ll_sdmmc.c **** /* Private typedef -----------------------------------------------------------*/
 183:Drivers/STM32L4xx_HAL_Driver/Src/stm32l4xx_ll_sdmmc.c **** /* Private define ------------------------------------------------------------*/
 184:Drivers/STM32L4xx_HAL_Driver/Src/stm32l4xx_ll_sdmmc.c **** /* Private macro -------------------------------------------------------------*/
 185:Drivers/STM32L4xx_HAL_Driver/Src/stm32l4xx_ll_sdmmc.c **** /* Private variables ---------------------------------------------------------*/
 186:Drivers/STM32L4xx_HAL_Driver/Src/stm32l4xx_ll_sdmmc.c **** /* Private function prototypes -----------------------------------------------*/
 187:Drivers/STM32L4xx_HAL_Driver/Src/stm32l4xx_ll_sdmmc.c **** static uint32_t SDMMC_GetCmdError(SDMMC_TypeDef *SDMMCx);
 188:Drivers/STM32L4xx_HAL_Driver/Src/stm32l4xx_ll_sdmmc.c **** 
 189:Drivers/STM32L4xx_HAL_Driver/Src/stm32l4xx_ll_sdmmc.c **** /* Exported functions --------------------------------------------------------*/
 190:Drivers/STM32L4xx_HAL_Driver/Src/stm32l4xx_ll_sdmmc.c **** 
 191:Drivers/STM32L4xx_HAL_Driver/Src/stm32l4xx_ll_sdmmc.c **** /** @defgroup SDMMC_LL_Exported_Functions SDMMC Low Layer Exported Functions
 192:Drivers/STM32L4xx_HAL_Driver/Src/stm32l4xx_ll_sdmmc.c ****   * @{
 193:Drivers/STM32L4xx_HAL_Driver/Src/stm32l4xx_ll_sdmmc.c ****   */
 194:Drivers/STM32L4xx_HAL_Driver/Src/stm32l4xx_ll_sdmmc.c **** 
 195:Drivers/STM32L4xx_HAL_Driver/Src/stm32l4xx_ll_sdmmc.c **** /** @defgroup HAL_SDMMC_LL_Group1 Initialization de-initialization functions
 196:Drivers/STM32L4xx_HAL_Driver/Src/stm32l4xx_ll_sdmmc.c ****   *  @brief    Initialization and Configuration functions
ARM GAS  /tmp/ccZ1T6Sv.s 			page 5


 197:Drivers/STM32L4xx_HAL_Driver/Src/stm32l4xx_ll_sdmmc.c ****   *
 198:Drivers/STM32L4xx_HAL_Driver/Src/stm32l4xx_ll_sdmmc.c **** @verbatim
 199:Drivers/STM32L4xx_HAL_Driver/Src/stm32l4xx_ll_sdmmc.c ****  ===============================================================================
 200:Drivers/STM32L4xx_HAL_Driver/Src/stm32l4xx_ll_sdmmc.c ****               ##### Initialization/de-initialization functions #####
 201:Drivers/STM32L4xx_HAL_Driver/Src/stm32l4xx_ll_sdmmc.c ****  ===============================================================================
 202:Drivers/STM32L4xx_HAL_Driver/Src/stm32l4xx_ll_sdmmc.c ****     [..]  This section provides functions allowing to:
 203:Drivers/STM32L4xx_HAL_Driver/Src/stm32l4xx_ll_sdmmc.c **** 
 204:Drivers/STM32L4xx_HAL_Driver/Src/stm32l4xx_ll_sdmmc.c **** @endverbatim
 205:Drivers/STM32L4xx_HAL_Driver/Src/stm32l4xx_ll_sdmmc.c ****   * @{
 206:Drivers/STM32L4xx_HAL_Driver/Src/stm32l4xx_ll_sdmmc.c ****   */
 207:Drivers/STM32L4xx_HAL_Driver/Src/stm32l4xx_ll_sdmmc.c **** 
 208:Drivers/STM32L4xx_HAL_Driver/Src/stm32l4xx_ll_sdmmc.c **** /**
 209:Drivers/STM32L4xx_HAL_Driver/Src/stm32l4xx_ll_sdmmc.c ****   * @brief  Initializes the SDMMC according to the specified
 210:Drivers/STM32L4xx_HAL_Driver/Src/stm32l4xx_ll_sdmmc.c ****   *         parameters in the SDMMC_InitTypeDef and create the associated handle.
 211:Drivers/STM32L4xx_HAL_Driver/Src/stm32l4xx_ll_sdmmc.c ****   * @param  SDMMCx: Pointer to SDMMC register base
 212:Drivers/STM32L4xx_HAL_Driver/Src/stm32l4xx_ll_sdmmc.c ****   * @param  Init: SDMMC initialization structure
 213:Drivers/STM32L4xx_HAL_Driver/Src/stm32l4xx_ll_sdmmc.c ****   * @retval HAL status
 214:Drivers/STM32L4xx_HAL_Driver/Src/stm32l4xx_ll_sdmmc.c ****   */
 215:Drivers/STM32L4xx_HAL_Driver/Src/stm32l4xx_ll_sdmmc.c **** HAL_StatusTypeDef SDMMC_Init(SDMMC_TypeDef *SDMMCx, SDMMC_InitTypeDef Init)
 216:Drivers/STM32L4xx_HAL_Driver/Src/stm32l4xx_ll_sdmmc.c **** {
  35              		.loc 1 216 1
  36              		.cfi_startproc
  37              		@ args = 28, pretend = 16, frame = 16
  38              		@ frame_needed = 1, uses_anonymous_args = 0
  39              		@ link register save eliminated.
  40 0000 84B0     		sub	sp, sp, #16
  41              		.cfi_def_cfa_offset 16
  42 0002 80B4     		push	{r7}
  43              		.cfi_def_cfa_offset 20
  44              		.cfi_offset 7, -20
  45 0004 85B0     		sub	sp, sp, #20
  46              		.cfi_def_cfa_offset 40
  47 0006 00AF     		add	r7, sp, #0
  48              		.cfi_def_cfa_register 7
  49 0008 7860     		str	r0, [r7, #4]
  50 000a 07F11C00 		add	r0, r7, #28
  51 000e 80E80E00 		stm	r0, {r1, r2, r3}
 217:Drivers/STM32L4xx_HAL_Driver/Src/stm32l4xx_ll_sdmmc.c ****   uint32_t tmpreg = 0;
  52              		.loc 1 217 12
  53 0012 0023     		movs	r3, #0
  54 0014 FB60     		str	r3, [r7, #12]
 218:Drivers/STM32L4xx_HAL_Driver/Src/stm32l4xx_ll_sdmmc.c **** 
 219:Drivers/STM32L4xx_HAL_Driver/Src/stm32l4xx_ll_sdmmc.c ****   /* Check the parameters */
 220:Drivers/STM32L4xx_HAL_Driver/Src/stm32l4xx_ll_sdmmc.c ****   assert_param(IS_SDMMC_ALL_INSTANCE(SDMMCx));
 221:Drivers/STM32L4xx_HAL_Driver/Src/stm32l4xx_ll_sdmmc.c ****   assert_param(IS_SDMMC_CLOCK_EDGE(Init.ClockEdge));
 222:Drivers/STM32L4xx_HAL_Driver/Src/stm32l4xx_ll_sdmmc.c **** #if !defined(STM32L4P5xx) && !defined(STM32L4Q5xx) && !defined(STM32L4R5xx) && !defined(STM32L4R7xx
 223:Drivers/STM32L4xx_HAL_Driver/Src/stm32l4xx_ll_sdmmc.c ****   assert_param(IS_SDMMC_CLOCK_BYPASS(Init.ClockBypass));
 224:Drivers/STM32L4xx_HAL_Driver/Src/stm32l4xx_ll_sdmmc.c **** #endif /* !STM32L4P5xx && !STM32L4Q5xx && !STM32L4R5xx && !STM32L4R7xx && !STM32L4R9xx && !STM32L4S
 225:Drivers/STM32L4xx_HAL_Driver/Src/stm32l4xx_ll_sdmmc.c ****   assert_param(IS_SDMMC_CLOCK_POWER_SAVE(Init.ClockPowerSave));
 226:Drivers/STM32L4xx_HAL_Driver/Src/stm32l4xx_ll_sdmmc.c ****   assert_param(IS_SDMMC_BUS_WIDE(Init.BusWide));
 227:Drivers/STM32L4xx_HAL_Driver/Src/stm32l4xx_ll_sdmmc.c ****   assert_param(IS_SDMMC_HARDWARE_FLOW_CONTROL(Init.HardwareFlowControl));
 228:Drivers/STM32L4xx_HAL_Driver/Src/stm32l4xx_ll_sdmmc.c ****   assert_param(IS_SDMMC_CLKDIV(Init.ClockDiv));
 229:Drivers/STM32L4xx_HAL_Driver/Src/stm32l4xx_ll_sdmmc.c **** 
 230:Drivers/STM32L4xx_HAL_Driver/Src/stm32l4xx_ll_sdmmc.c ****   /* Set SDMMC configuration parameters */
 231:Drivers/STM32L4xx_HAL_Driver/Src/stm32l4xx_ll_sdmmc.c **** #if !defined(STM32L4P5xx) && !defined(STM32L4Q5xx) && !defined(STM32L4R5xx) && !defined(STM32L4R7xx
 232:Drivers/STM32L4xx_HAL_Driver/Src/stm32l4xx_ll_sdmmc.c ****   tmpreg |= Init.ClockBypass;
  55              		.loc 1 232 17
ARM GAS  /tmp/ccZ1T6Sv.s 			page 6


  56 0016 3B6A     		ldr	r3, [r7, #32]
  57              		.loc 1 232 10
  58 0018 FA68     		ldr	r2, [r7, #12]
  59 001a 1343     		orrs	r3, r3, r2
  60 001c FB60     		str	r3, [r7, #12]
 233:Drivers/STM32L4xx_HAL_Driver/Src/stm32l4xx_ll_sdmmc.c **** #endif
 234:Drivers/STM32L4xx_HAL_Driver/Src/stm32l4xx_ll_sdmmc.c ****   tmpreg |= (Init.ClockEdge           | \
  61              		.loc 1 234 18
  62 001e FA69     		ldr	r2, [r7, #28]
 235:Drivers/STM32L4xx_HAL_Driver/Src/stm32l4xx_ll_sdmmc.c ****              Init.ClockPowerSave      | \
  63              		.loc 1 235 18
  64 0020 7B6A     		ldr	r3, [r7, #36]
 234:Drivers/STM32L4xx_HAL_Driver/Src/stm32l4xx_ll_sdmmc.c ****              Init.ClockPowerSave      | \
  65              		.loc 1 234 39
  66 0022 1A43     		orrs	r2, r2, r3
 236:Drivers/STM32L4xx_HAL_Driver/Src/stm32l4xx_ll_sdmmc.c ****              Init.BusWide             | \
  67              		.loc 1 236 18
  68 0024 BB6A     		ldr	r3, [r7, #40]
 235:Drivers/STM32L4xx_HAL_Driver/Src/stm32l4xx_ll_sdmmc.c ****              Init.ClockPowerSave      | \
  69              		.loc 1 235 39
  70 0026 1A43     		orrs	r2, r2, r3
 237:Drivers/STM32L4xx_HAL_Driver/Src/stm32l4xx_ll_sdmmc.c ****              Init.HardwareFlowControl | \
  71              		.loc 1 237 18
  72 0028 FB6A     		ldr	r3, [r7, #44]
 236:Drivers/STM32L4xx_HAL_Driver/Src/stm32l4xx_ll_sdmmc.c ****              Init.BusWide             | \
  73              		.loc 1 236 39
  74 002a 1A43     		orrs	r2, r2, r3
 238:Drivers/STM32L4xx_HAL_Driver/Src/stm32l4xx_ll_sdmmc.c ****              Init.ClockDiv
  75              		.loc 1 238 18
  76 002c 3B6B     		ldr	r3, [r7, #48]
 237:Drivers/STM32L4xx_HAL_Driver/Src/stm32l4xx_ll_sdmmc.c ****              Init.HardwareFlowControl | \
  77              		.loc 1 237 39
  78 002e 1343     		orrs	r3, r3, r2
 234:Drivers/STM32L4xx_HAL_Driver/Src/stm32l4xx_ll_sdmmc.c ****              Init.ClockPowerSave      | \
  79              		.loc 1 234 10
  80 0030 FA68     		ldr	r2, [r7, #12]
  81 0032 1343     		orrs	r3, r3, r2
  82 0034 FB60     		str	r3, [r7, #12]
 239:Drivers/STM32L4xx_HAL_Driver/Src/stm32l4xx_ll_sdmmc.c ****             );
 240:Drivers/STM32L4xx_HAL_Driver/Src/stm32l4xx_ll_sdmmc.c **** 
 241:Drivers/STM32L4xx_HAL_Driver/Src/stm32l4xx_ll_sdmmc.c ****   /* Write to SDMMC CLKCR */
 242:Drivers/STM32L4xx_HAL_Driver/Src/stm32l4xx_ll_sdmmc.c ****   MODIFY_REG(SDMMCx->CLKCR, CLKCR_CLEAR_MASK, tmpreg);
  83              		.loc 1 242 3
  84 0036 7B68     		ldr	r3, [r7, #4]
  85 0038 5B68     		ldr	r3, [r3, #4]
  86 003a 23F4FD43 		bic	r3, r3, #32384
  87 003e 23F07F03 		bic	r3, r3, #127
  88 0042 FA68     		ldr	r2, [r7, #12]
  89 0044 1A43     		orrs	r2, r2, r3
  90 0046 7B68     		ldr	r3, [r7, #4]
  91 0048 5A60     		str	r2, [r3, #4]
 243:Drivers/STM32L4xx_HAL_Driver/Src/stm32l4xx_ll_sdmmc.c **** 
 244:Drivers/STM32L4xx_HAL_Driver/Src/stm32l4xx_ll_sdmmc.c ****   return HAL_OK;
  92              		.loc 1 244 10
  93 004a 0023     		movs	r3, #0
 245:Drivers/STM32L4xx_HAL_Driver/Src/stm32l4xx_ll_sdmmc.c **** }
  94              		.loc 1 245 1
ARM GAS  /tmp/ccZ1T6Sv.s 			page 7


  95 004c 1846     		mov	r0, r3
  96 004e 1437     		adds	r7, r7, #20
  97              		.cfi_def_cfa_offset 20
  98 0050 BD46     		mov	sp, r7
  99              		.cfi_def_cfa_register 13
 100              		@ sp needed
 101 0052 5DF8047B 		ldr	r7, [sp], #4
 102              		.cfi_restore 7
 103              		.cfi_def_cfa_offset 16
 104 0056 04B0     		add	sp, sp, #16
 105              		.cfi_def_cfa_offset 0
 106 0058 7047     		bx	lr
 107              		.cfi_endproc
 108              	.LFE445:
 110              		.section	.text.SDMMC_ReadFIFO,"ax",%progbits
 111              		.align	1
 112              		.global	SDMMC_ReadFIFO
 113              		.syntax unified
 114              		.thumb
 115              		.thumb_func
 117              	SDMMC_ReadFIFO:
 118              	.LFB446:
 246:Drivers/STM32L4xx_HAL_Driver/Src/stm32l4xx_ll_sdmmc.c **** 
 247:Drivers/STM32L4xx_HAL_Driver/Src/stm32l4xx_ll_sdmmc.c **** 
 248:Drivers/STM32L4xx_HAL_Driver/Src/stm32l4xx_ll_sdmmc.c **** /**
 249:Drivers/STM32L4xx_HAL_Driver/Src/stm32l4xx_ll_sdmmc.c ****   * @}
 250:Drivers/STM32L4xx_HAL_Driver/Src/stm32l4xx_ll_sdmmc.c ****   */
 251:Drivers/STM32L4xx_HAL_Driver/Src/stm32l4xx_ll_sdmmc.c **** 
 252:Drivers/STM32L4xx_HAL_Driver/Src/stm32l4xx_ll_sdmmc.c **** /** @defgroup HAL_SDMMC_LL_Group2 IO operation functions
 253:Drivers/STM32L4xx_HAL_Driver/Src/stm32l4xx_ll_sdmmc.c ****   *  @brief   Data transfers functions
 254:Drivers/STM32L4xx_HAL_Driver/Src/stm32l4xx_ll_sdmmc.c ****   *
 255:Drivers/STM32L4xx_HAL_Driver/Src/stm32l4xx_ll_sdmmc.c **** @verbatim
 256:Drivers/STM32L4xx_HAL_Driver/Src/stm32l4xx_ll_sdmmc.c ****  ===============================================================================
 257:Drivers/STM32L4xx_HAL_Driver/Src/stm32l4xx_ll_sdmmc.c ****                       ##### I/O operation functions #####
 258:Drivers/STM32L4xx_HAL_Driver/Src/stm32l4xx_ll_sdmmc.c ****  ===============================================================================
 259:Drivers/STM32L4xx_HAL_Driver/Src/stm32l4xx_ll_sdmmc.c ****     [..]
 260:Drivers/STM32L4xx_HAL_Driver/Src/stm32l4xx_ll_sdmmc.c ****     This subsection provides a set of functions allowing to manage the SDMMC data
 261:Drivers/STM32L4xx_HAL_Driver/Src/stm32l4xx_ll_sdmmc.c ****     transfers.
 262:Drivers/STM32L4xx_HAL_Driver/Src/stm32l4xx_ll_sdmmc.c **** 
 263:Drivers/STM32L4xx_HAL_Driver/Src/stm32l4xx_ll_sdmmc.c **** @endverbatim
 264:Drivers/STM32L4xx_HAL_Driver/Src/stm32l4xx_ll_sdmmc.c ****   * @{
 265:Drivers/STM32L4xx_HAL_Driver/Src/stm32l4xx_ll_sdmmc.c ****   */
 266:Drivers/STM32L4xx_HAL_Driver/Src/stm32l4xx_ll_sdmmc.c **** 
 267:Drivers/STM32L4xx_HAL_Driver/Src/stm32l4xx_ll_sdmmc.c **** /**
 268:Drivers/STM32L4xx_HAL_Driver/Src/stm32l4xx_ll_sdmmc.c ****   * @brief  Read data (word) from Rx FIFO in blocking mode (polling)
 269:Drivers/STM32L4xx_HAL_Driver/Src/stm32l4xx_ll_sdmmc.c ****   * @param  SDMMCx: Pointer to SDMMC register base
 270:Drivers/STM32L4xx_HAL_Driver/Src/stm32l4xx_ll_sdmmc.c ****   * @retval HAL status
 271:Drivers/STM32L4xx_HAL_Driver/Src/stm32l4xx_ll_sdmmc.c ****   */
 272:Drivers/STM32L4xx_HAL_Driver/Src/stm32l4xx_ll_sdmmc.c **** uint32_t SDMMC_ReadFIFO(const SDMMC_TypeDef *SDMMCx)
 273:Drivers/STM32L4xx_HAL_Driver/Src/stm32l4xx_ll_sdmmc.c **** {
 119              		.loc 1 273 1
 120              		.cfi_startproc
 121              		@ args = 0, pretend = 0, frame = 8
 122              		@ frame_needed = 1, uses_anonymous_args = 0
 123              		@ link register save eliminated.
 124 0000 80B4     		push	{r7}
 125              		.cfi_def_cfa_offset 4
ARM GAS  /tmp/ccZ1T6Sv.s 			page 8


 126              		.cfi_offset 7, -4
 127 0002 83B0     		sub	sp, sp, #12
 128              		.cfi_def_cfa_offset 16
 129 0004 00AF     		add	r7, sp, #0
 130              		.cfi_def_cfa_register 7
 131 0006 7860     		str	r0, [r7, #4]
 274:Drivers/STM32L4xx_HAL_Driver/Src/stm32l4xx_ll_sdmmc.c ****   /* Read data from Rx FIFO */
 275:Drivers/STM32L4xx_HAL_Driver/Src/stm32l4xx_ll_sdmmc.c ****   return (SDMMCx->FIFO);
 132              		.loc 1 275 17
 133 0008 7B68     		ldr	r3, [r7, #4]
 134 000a D3F88030 		ldr	r3, [r3, #128]
 276:Drivers/STM32L4xx_HAL_Driver/Src/stm32l4xx_ll_sdmmc.c **** }
 135              		.loc 1 276 1
 136 000e 1846     		mov	r0, r3
 137 0010 0C37     		adds	r7, r7, #12
 138              		.cfi_def_cfa_offset 4
 139 0012 BD46     		mov	sp, r7
 140              		.cfi_def_cfa_register 13
 141              		@ sp needed
 142 0014 5DF8047B 		ldr	r7, [sp], #4
 143              		.cfi_restore 7
 144              		.cfi_def_cfa_offset 0
 145 0018 7047     		bx	lr
 146              		.cfi_endproc
 147              	.LFE446:
 149              		.section	.text.SDMMC_WriteFIFO,"ax",%progbits
 150              		.align	1
 151              		.global	SDMMC_WriteFIFO
 152              		.syntax unified
 153              		.thumb
 154              		.thumb_func
 156              	SDMMC_WriteFIFO:
 157              	.LFB447:
 277:Drivers/STM32L4xx_HAL_Driver/Src/stm32l4xx_ll_sdmmc.c **** 
 278:Drivers/STM32L4xx_HAL_Driver/Src/stm32l4xx_ll_sdmmc.c **** /**
 279:Drivers/STM32L4xx_HAL_Driver/Src/stm32l4xx_ll_sdmmc.c ****   * @brief  Write data (word) to Tx FIFO in blocking mode (polling)
 280:Drivers/STM32L4xx_HAL_Driver/Src/stm32l4xx_ll_sdmmc.c ****   * @param  SDMMCx: Pointer to SDMMC register base
 281:Drivers/STM32L4xx_HAL_Driver/Src/stm32l4xx_ll_sdmmc.c ****   * @param  pWriteData: pointer to data to write
 282:Drivers/STM32L4xx_HAL_Driver/Src/stm32l4xx_ll_sdmmc.c ****   * @retval HAL status
 283:Drivers/STM32L4xx_HAL_Driver/Src/stm32l4xx_ll_sdmmc.c ****   */
 284:Drivers/STM32L4xx_HAL_Driver/Src/stm32l4xx_ll_sdmmc.c **** HAL_StatusTypeDef SDMMC_WriteFIFO(SDMMC_TypeDef *SDMMCx, uint32_t *pWriteData)
 285:Drivers/STM32L4xx_HAL_Driver/Src/stm32l4xx_ll_sdmmc.c **** {
 158              		.loc 1 285 1
 159              		.cfi_startproc
 160              		@ args = 0, pretend = 0, frame = 8
 161              		@ frame_needed = 1, uses_anonymous_args = 0
 162              		@ link register save eliminated.
 163 0000 80B4     		push	{r7}
 164              		.cfi_def_cfa_offset 4
 165              		.cfi_offset 7, -4
 166 0002 83B0     		sub	sp, sp, #12
 167              		.cfi_def_cfa_offset 16
 168 0004 00AF     		add	r7, sp, #0
 169              		.cfi_def_cfa_register 7
 170 0006 7860     		str	r0, [r7, #4]
 171 0008 3960     		str	r1, [r7]
 286:Drivers/STM32L4xx_HAL_Driver/Src/stm32l4xx_ll_sdmmc.c ****   /* Write data to FIFO */
ARM GAS  /tmp/ccZ1T6Sv.s 			page 9


 287:Drivers/STM32L4xx_HAL_Driver/Src/stm32l4xx_ll_sdmmc.c ****   SDMMCx->FIFO = *pWriteData;
 172              		.loc 1 287 18
 173 000a 3B68     		ldr	r3, [r7]
 174 000c 1A68     		ldr	r2, [r3]
 175              		.loc 1 287 16
 176 000e 7B68     		ldr	r3, [r7, #4]
 177 0010 C3F88020 		str	r2, [r3, #128]
 288:Drivers/STM32L4xx_HAL_Driver/Src/stm32l4xx_ll_sdmmc.c **** 
 289:Drivers/STM32L4xx_HAL_Driver/Src/stm32l4xx_ll_sdmmc.c ****   return HAL_OK;
 178              		.loc 1 289 10
 179 0014 0023     		movs	r3, #0
 290:Drivers/STM32L4xx_HAL_Driver/Src/stm32l4xx_ll_sdmmc.c **** }
 180              		.loc 1 290 1
 181 0016 1846     		mov	r0, r3
 182 0018 0C37     		adds	r7, r7, #12
 183              		.cfi_def_cfa_offset 4
 184 001a BD46     		mov	sp, r7
 185              		.cfi_def_cfa_register 13
 186              		@ sp needed
 187 001c 5DF8047B 		ldr	r7, [sp], #4
 188              		.cfi_restore 7
 189              		.cfi_def_cfa_offset 0
 190 0020 7047     		bx	lr
 191              		.cfi_endproc
 192              	.LFE447:
 194              		.section	.text.SDMMC_PowerState_ON,"ax",%progbits
 195              		.align	1
 196              		.global	SDMMC_PowerState_ON
 197              		.syntax unified
 198              		.thumb
 199              		.thumb_func
 201              	SDMMC_PowerState_ON:
 202              	.LFB448:
 291:Drivers/STM32L4xx_HAL_Driver/Src/stm32l4xx_ll_sdmmc.c **** 
 292:Drivers/STM32L4xx_HAL_Driver/Src/stm32l4xx_ll_sdmmc.c **** /**
 293:Drivers/STM32L4xx_HAL_Driver/Src/stm32l4xx_ll_sdmmc.c ****   * @}
 294:Drivers/STM32L4xx_HAL_Driver/Src/stm32l4xx_ll_sdmmc.c ****   */
 295:Drivers/STM32L4xx_HAL_Driver/Src/stm32l4xx_ll_sdmmc.c **** 
 296:Drivers/STM32L4xx_HAL_Driver/Src/stm32l4xx_ll_sdmmc.c **** /** @defgroup HAL_SDMMC_LL_Group3 Peripheral Control functions
 297:Drivers/STM32L4xx_HAL_Driver/Src/stm32l4xx_ll_sdmmc.c ****   *  @brief   management functions
 298:Drivers/STM32L4xx_HAL_Driver/Src/stm32l4xx_ll_sdmmc.c ****   *
 299:Drivers/STM32L4xx_HAL_Driver/Src/stm32l4xx_ll_sdmmc.c **** @verbatim
 300:Drivers/STM32L4xx_HAL_Driver/Src/stm32l4xx_ll_sdmmc.c ****  ===============================================================================
 301:Drivers/STM32L4xx_HAL_Driver/Src/stm32l4xx_ll_sdmmc.c ****                       ##### Peripheral Control functions #####
 302:Drivers/STM32L4xx_HAL_Driver/Src/stm32l4xx_ll_sdmmc.c ****  ===============================================================================
 303:Drivers/STM32L4xx_HAL_Driver/Src/stm32l4xx_ll_sdmmc.c ****     [..]
 304:Drivers/STM32L4xx_HAL_Driver/Src/stm32l4xx_ll_sdmmc.c ****     This subsection provides a set of functions allowing to control the SDMMC data
 305:Drivers/STM32L4xx_HAL_Driver/Src/stm32l4xx_ll_sdmmc.c ****     transfers.
 306:Drivers/STM32L4xx_HAL_Driver/Src/stm32l4xx_ll_sdmmc.c **** 
 307:Drivers/STM32L4xx_HAL_Driver/Src/stm32l4xx_ll_sdmmc.c **** @endverbatim
 308:Drivers/STM32L4xx_HAL_Driver/Src/stm32l4xx_ll_sdmmc.c ****   * @{
 309:Drivers/STM32L4xx_HAL_Driver/Src/stm32l4xx_ll_sdmmc.c ****   */
 310:Drivers/STM32L4xx_HAL_Driver/Src/stm32l4xx_ll_sdmmc.c **** 
 311:Drivers/STM32L4xx_HAL_Driver/Src/stm32l4xx_ll_sdmmc.c **** /**
 312:Drivers/STM32L4xx_HAL_Driver/Src/stm32l4xx_ll_sdmmc.c ****   * @brief  Set SDMMC Power state to ON.
 313:Drivers/STM32L4xx_HAL_Driver/Src/stm32l4xx_ll_sdmmc.c ****   * @param  SDMMCx: Pointer to SDMMC register base
 314:Drivers/STM32L4xx_HAL_Driver/Src/stm32l4xx_ll_sdmmc.c ****   * @retval HAL status
ARM GAS  /tmp/ccZ1T6Sv.s 			page 10


 315:Drivers/STM32L4xx_HAL_Driver/Src/stm32l4xx_ll_sdmmc.c ****   */
 316:Drivers/STM32L4xx_HAL_Driver/Src/stm32l4xx_ll_sdmmc.c **** HAL_StatusTypeDef SDMMC_PowerState_ON(SDMMC_TypeDef *SDMMCx)
 317:Drivers/STM32L4xx_HAL_Driver/Src/stm32l4xx_ll_sdmmc.c **** {
 203              		.loc 1 317 1
 204              		.cfi_startproc
 205              		@ args = 0, pretend = 0, frame = 8
 206              		@ frame_needed = 1, uses_anonymous_args = 0
 207 0000 80B5     		push	{r7, lr}
 208              		.cfi_def_cfa_offset 8
 209              		.cfi_offset 7, -8
 210              		.cfi_offset 14, -4
 211 0002 82B0     		sub	sp, sp, #8
 212              		.cfi_def_cfa_offset 16
 213 0004 00AF     		add	r7, sp, #0
 214              		.cfi_def_cfa_register 7
 215 0006 7860     		str	r0, [r7, #4]
 318:Drivers/STM32L4xx_HAL_Driver/Src/stm32l4xx_ll_sdmmc.c ****   /* Set power state to ON */
 319:Drivers/STM32L4xx_HAL_Driver/Src/stm32l4xx_ll_sdmmc.c **** #if defined(STM32L4P5xx) || defined(STM32L4Q5xx) || defined(STM32L4R5xx) || defined(STM32L4R7xx) ||
 320:Drivers/STM32L4xx_HAL_Driver/Src/stm32l4xx_ll_sdmmc.c ****   SDMMCx->POWER |= SDMMC_POWER_PWRCTRL;
 321:Drivers/STM32L4xx_HAL_Driver/Src/stm32l4xx_ll_sdmmc.c **** #else
 322:Drivers/STM32L4xx_HAL_Driver/Src/stm32l4xx_ll_sdmmc.c ****   SDMMCx->POWER = SDMMC_POWER_PWRCTRL;
 216              		.loc 1 322 17
 217 0008 7B68     		ldr	r3, [r7, #4]
 218 000a 0322     		movs	r2, #3
 219 000c 1A60     		str	r2, [r3]
 323:Drivers/STM32L4xx_HAL_Driver/Src/stm32l4xx_ll_sdmmc.c **** #endif /* STM32L4P5xx || STM32L4Q5xx || STM32L4R5xx || STM32L4R7xx || STM32L4R9xx || STM32L4S5xx ||
 324:Drivers/STM32L4xx_HAL_Driver/Src/stm32l4xx_ll_sdmmc.c **** 
 325:Drivers/STM32L4xx_HAL_Driver/Src/stm32l4xx_ll_sdmmc.c ****   /* 1ms: required power up waiting time before starting the SD initialization
 326:Drivers/STM32L4xx_HAL_Driver/Src/stm32l4xx_ll_sdmmc.c ****   sequence */
 327:Drivers/STM32L4xx_HAL_Driver/Src/stm32l4xx_ll_sdmmc.c ****   HAL_Delay(2);
 220              		.loc 1 327 3
 221 000e 0220     		movs	r0, #2
 222 0010 FFF7FEFF 		bl	HAL_Delay
 328:Drivers/STM32L4xx_HAL_Driver/Src/stm32l4xx_ll_sdmmc.c **** 
 329:Drivers/STM32L4xx_HAL_Driver/Src/stm32l4xx_ll_sdmmc.c ****   return HAL_OK;
 223              		.loc 1 329 10
 224 0014 0023     		movs	r3, #0
 330:Drivers/STM32L4xx_HAL_Driver/Src/stm32l4xx_ll_sdmmc.c **** }
 225              		.loc 1 330 1
 226 0016 1846     		mov	r0, r3
 227 0018 0837     		adds	r7, r7, #8
 228              		.cfi_def_cfa_offset 8
 229 001a BD46     		mov	sp, r7
 230              		.cfi_def_cfa_register 13
 231              		@ sp needed
 232 001c 80BD     		pop	{r7, pc}
 233              		.cfi_endproc
 234              	.LFE448:
 236              		.section	.text.SDMMC_PowerState_OFF,"ax",%progbits
 237              		.align	1
 238              		.global	SDMMC_PowerState_OFF
 239              		.syntax unified
 240              		.thumb
 241              		.thumb_func
 243              	SDMMC_PowerState_OFF:
 244              	.LFB449:
 331:Drivers/STM32L4xx_HAL_Driver/Src/stm32l4xx_ll_sdmmc.c **** #if defined(STM32L4P5xx) || defined(STM32L4Q5xx) || defined(STM32L4R5xx) || defined(STM32L4R7xx) ||
ARM GAS  /tmp/ccZ1T6Sv.s 			page 11


 332:Drivers/STM32L4xx_HAL_Driver/Src/stm32l4xx_ll_sdmmc.c **** /**
 333:Drivers/STM32L4xx_HAL_Driver/Src/stm32l4xx_ll_sdmmc.c ****   * @brief  Set SDMMC Power state to Power-Cycle.
 334:Drivers/STM32L4xx_HAL_Driver/Src/stm32l4xx_ll_sdmmc.c ****   * @param  SDMMCx Pointer to SDMMC register base
 335:Drivers/STM32L4xx_HAL_Driver/Src/stm32l4xx_ll_sdmmc.c ****   * @retval HAL status
 336:Drivers/STM32L4xx_HAL_Driver/Src/stm32l4xx_ll_sdmmc.c ****   */
 337:Drivers/STM32L4xx_HAL_Driver/Src/stm32l4xx_ll_sdmmc.c **** HAL_StatusTypeDef SDMMC_PowerState_Cycle(SDMMC_TypeDef *SDMMCx)
 338:Drivers/STM32L4xx_HAL_Driver/Src/stm32l4xx_ll_sdmmc.c **** {
 339:Drivers/STM32L4xx_HAL_Driver/Src/stm32l4xx_ll_sdmmc.c ****   /* Set power state to Power Cycle*/
 340:Drivers/STM32L4xx_HAL_Driver/Src/stm32l4xx_ll_sdmmc.c ****   SDMMCx->POWER |= SDMMC_POWER_PWRCTRL_1;
 341:Drivers/STM32L4xx_HAL_Driver/Src/stm32l4xx_ll_sdmmc.c **** 
 342:Drivers/STM32L4xx_HAL_Driver/Src/stm32l4xx_ll_sdmmc.c ****   return HAL_OK;
 343:Drivers/STM32L4xx_HAL_Driver/Src/stm32l4xx_ll_sdmmc.c **** }
 344:Drivers/STM32L4xx_HAL_Driver/Src/stm32l4xx_ll_sdmmc.c **** #endif /* STM32L4P5xx || STM32L4Q5xx || STM32L4R5xx || STM32L4R7xx || STM32L4R9xx || STM32L4S5xx ||
 345:Drivers/STM32L4xx_HAL_Driver/Src/stm32l4xx_ll_sdmmc.c **** 
 346:Drivers/STM32L4xx_HAL_Driver/Src/stm32l4xx_ll_sdmmc.c **** 
 347:Drivers/STM32L4xx_HAL_Driver/Src/stm32l4xx_ll_sdmmc.c **** /**
 348:Drivers/STM32L4xx_HAL_Driver/Src/stm32l4xx_ll_sdmmc.c ****   * @brief  Set SDMMC Power state to OFF.
 349:Drivers/STM32L4xx_HAL_Driver/Src/stm32l4xx_ll_sdmmc.c ****   * @param  SDMMCx: Pointer to SDMMC register base
 350:Drivers/STM32L4xx_HAL_Driver/Src/stm32l4xx_ll_sdmmc.c ****   * @retval HAL status
 351:Drivers/STM32L4xx_HAL_Driver/Src/stm32l4xx_ll_sdmmc.c ****   */
 352:Drivers/STM32L4xx_HAL_Driver/Src/stm32l4xx_ll_sdmmc.c **** HAL_StatusTypeDef SDMMC_PowerState_OFF(SDMMC_TypeDef *SDMMCx)
 353:Drivers/STM32L4xx_HAL_Driver/Src/stm32l4xx_ll_sdmmc.c **** {
 245              		.loc 1 353 1
 246              		.cfi_startproc
 247              		@ args = 0, pretend = 0, frame = 8
 248              		@ frame_needed = 1, uses_anonymous_args = 0
 249              		@ link register save eliminated.
 250 0000 80B4     		push	{r7}
 251              		.cfi_def_cfa_offset 4
 252              		.cfi_offset 7, -4
 253 0002 83B0     		sub	sp, sp, #12
 254              		.cfi_def_cfa_offset 16
 255 0004 00AF     		add	r7, sp, #0
 256              		.cfi_def_cfa_register 7
 257 0006 7860     		str	r0, [r7, #4]
 354:Drivers/STM32L4xx_HAL_Driver/Src/stm32l4xx_ll_sdmmc.c ****   /* Set power state to OFF */
 355:Drivers/STM32L4xx_HAL_Driver/Src/stm32l4xx_ll_sdmmc.c **** #if defined(STM32L4P5xx) || defined(STM32L4Q5xx) || defined(STM32L4R5xx) || defined(STM32L4R7xx) ||
 356:Drivers/STM32L4xx_HAL_Driver/Src/stm32l4xx_ll_sdmmc.c ****   SDMMCx->POWER &= ~(SDMMC_POWER_PWRCTRL);
 357:Drivers/STM32L4xx_HAL_Driver/Src/stm32l4xx_ll_sdmmc.c **** #else
 358:Drivers/STM32L4xx_HAL_Driver/Src/stm32l4xx_ll_sdmmc.c ****   SDMMCx->POWER = (uint32_t)0x00000000;
 258              		.loc 1 358 17
 259 0008 7B68     		ldr	r3, [r7, #4]
 260 000a 0022     		movs	r2, #0
 261 000c 1A60     		str	r2, [r3]
 359:Drivers/STM32L4xx_HAL_Driver/Src/stm32l4xx_ll_sdmmc.c **** #endif /* STM32L4P5xx || STM32L4Q5xx || STM32L4R5xx || STM32L4R7xx || STM32L4R9xx || STM32L4S5xx ||
 360:Drivers/STM32L4xx_HAL_Driver/Src/stm32l4xx_ll_sdmmc.c **** 
 361:Drivers/STM32L4xx_HAL_Driver/Src/stm32l4xx_ll_sdmmc.c ****   return HAL_OK;
 262              		.loc 1 361 10
 263 000e 0023     		movs	r3, #0
 362:Drivers/STM32L4xx_HAL_Driver/Src/stm32l4xx_ll_sdmmc.c **** }
 264              		.loc 1 362 1
 265 0010 1846     		mov	r0, r3
 266 0012 0C37     		adds	r7, r7, #12
 267              		.cfi_def_cfa_offset 4
 268 0014 BD46     		mov	sp, r7
 269              		.cfi_def_cfa_register 13
 270              		@ sp needed
ARM GAS  /tmp/ccZ1T6Sv.s 			page 12


 271 0016 5DF8047B 		ldr	r7, [sp], #4
 272              		.cfi_restore 7
 273              		.cfi_def_cfa_offset 0
 274 001a 7047     		bx	lr
 275              		.cfi_endproc
 276              	.LFE449:
 278              		.section	.text.SDMMC_GetPowerState,"ax",%progbits
 279              		.align	1
 280              		.global	SDMMC_GetPowerState
 281              		.syntax unified
 282              		.thumb
 283              		.thumb_func
 285              	SDMMC_GetPowerState:
 286              	.LFB450:
 363:Drivers/STM32L4xx_HAL_Driver/Src/stm32l4xx_ll_sdmmc.c **** 
 364:Drivers/STM32L4xx_HAL_Driver/Src/stm32l4xx_ll_sdmmc.c **** /**
 365:Drivers/STM32L4xx_HAL_Driver/Src/stm32l4xx_ll_sdmmc.c ****   * @brief  Get SDMMC Power state.
 366:Drivers/STM32L4xx_HAL_Driver/Src/stm32l4xx_ll_sdmmc.c ****   * @param  SDMMCx: Pointer to SDMMC register base
 367:Drivers/STM32L4xx_HAL_Driver/Src/stm32l4xx_ll_sdmmc.c ****   * @retval Power status of the controller. The returned value can be one of the
 368:Drivers/STM32L4xx_HAL_Driver/Src/stm32l4xx_ll_sdmmc.c ****   *         following values:
 369:Drivers/STM32L4xx_HAL_Driver/Src/stm32l4xx_ll_sdmmc.c ****   *            - 0x00: Power OFF
 370:Drivers/STM32L4xx_HAL_Driver/Src/stm32l4xx_ll_sdmmc.c ****   *            - 0x02: Power UP
 371:Drivers/STM32L4xx_HAL_Driver/Src/stm32l4xx_ll_sdmmc.c ****   *            - 0x03: Power ON
 372:Drivers/STM32L4xx_HAL_Driver/Src/stm32l4xx_ll_sdmmc.c ****   */
 373:Drivers/STM32L4xx_HAL_Driver/Src/stm32l4xx_ll_sdmmc.c **** uint32_t SDMMC_GetPowerState(const SDMMC_TypeDef *SDMMCx)
 374:Drivers/STM32L4xx_HAL_Driver/Src/stm32l4xx_ll_sdmmc.c **** {
 287              		.loc 1 374 1
 288              		.cfi_startproc
 289              		@ args = 0, pretend = 0, frame = 8
 290              		@ frame_needed = 1, uses_anonymous_args = 0
 291              		@ link register save eliminated.
 292 0000 80B4     		push	{r7}
 293              		.cfi_def_cfa_offset 4
 294              		.cfi_offset 7, -4
 295 0002 83B0     		sub	sp, sp, #12
 296              		.cfi_def_cfa_offset 16
 297 0004 00AF     		add	r7, sp, #0
 298              		.cfi_def_cfa_register 7
 299 0006 7860     		str	r0, [r7, #4]
 375:Drivers/STM32L4xx_HAL_Driver/Src/stm32l4xx_ll_sdmmc.c ****   return (SDMMCx->POWER & SDMMC_POWER_PWRCTRL);
 300              		.loc 1 375 17
 301 0008 7B68     		ldr	r3, [r7, #4]
 302 000a 1B68     		ldr	r3, [r3]
 303              		.loc 1 375 25
 304 000c 03F00303 		and	r3, r3, #3
 376:Drivers/STM32L4xx_HAL_Driver/Src/stm32l4xx_ll_sdmmc.c **** }
 305              		.loc 1 376 1
 306 0010 1846     		mov	r0, r3
 307 0012 0C37     		adds	r7, r7, #12
 308              		.cfi_def_cfa_offset 4
 309 0014 BD46     		mov	sp, r7
 310              		.cfi_def_cfa_register 13
 311              		@ sp needed
 312 0016 5DF8047B 		ldr	r7, [sp], #4
 313              		.cfi_restore 7
 314              		.cfi_def_cfa_offset 0
 315 001a 7047     		bx	lr
ARM GAS  /tmp/ccZ1T6Sv.s 			page 13


 316              		.cfi_endproc
 317              	.LFE450:
 319              		.section	.text.SDMMC_SendCommand,"ax",%progbits
 320              		.align	1
 321              		.global	SDMMC_SendCommand
 322              		.syntax unified
 323              		.thumb
 324              		.thumb_func
 326              	SDMMC_SendCommand:
 327              	.LFB451:
 377:Drivers/STM32L4xx_HAL_Driver/Src/stm32l4xx_ll_sdmmc.c **** 
 378:Drivers/STM32L4xx_HAL_Driver/Src/stm32l4xx_ll_sdmmc.c **** /**
 379:Drivers/STM32L4xx_HAL_Driver/Src/stm32l4xx_ll_sdmmc.c ****   * @brief  Configure the SDMMC command path according to the specified parameters in
 380:Drivers/STM32L4xx_HAL_Driver/Src/stm32l4xx_ll_sdmmc.c ****   *         SDMMC_CmdInitTypeDef structure and send the command
 381:Drivers/STM32L4xx_HAL_Driver/Src/stm32l4xx_ll_sdmmc.c ****   * @param  SDMMCx: Pointer to SDMMC register base
 382:Drivers/STM32L4xx_HAL_Driver/Src/stm32l4xx_ll_sdmmc.c ****   * @param  Command: pointer to a SDMMC_CmdInitTypeDef structure that contains
 383:Drivers/STM32L4xx_HAL_Driver/Src/stm32l4xx_ll_sdmmc.c ****   *         the configuration information for the SDMMC command
 384:Drivers/STM32L4xx_HAL_Driver/Src/stm32l4xx_ll_sdmmc.c ****   * @retval HAL status
 385:Drivers/STM32L4xx_HAL_Driver/Src/stm32l4xx_ll_sdmmc.c ****   */
 386:Drivers/STM32L4xx_HAL_Driver/Src/stm32l4xx_ll_sdmmc.c **** HAL_StatusTypeDef SDMMC_SendCommand(SDMMC_TypeDef *SDMMCx, SDMMC_CmdInitTypeDef *Command)
 387:Drivers/STM32L4xx_HAL_Driver/Src/stm32l4xx_ll_sdmmc.c **** {
 328              		.loc 1 387 1
 329              		.cfi_startproc
 330              		@ args = 0, pretend = 0, frame = 16
 331              		@ frame_needed = 1, uses_anonymous_args = 0
 332              		@ link register save eliminated.
 333 0000 80B4     		push	{r7}
 334              		.cfi_def_cfa_offset 4
 335              		.cfi_offset 7, -4
 336 0002 85B0     		sub	sp, sp, #20
 337              		.cfi_def_cfa_offset 24
 338 0004 00AF     		add	r7, sp, #0
 339              		.cfi_def_cfa_register 7
 340 0006 7860     		str	r0, [r7, #4]
 341 0008 3960     		str	r1, [r7]
 388:Drivers/STM32L4xx_HAL_Driver/Src/stm32l4xx_ll_sdmmc.c ****   uint32_t tmpreg = 0;
 342              		.loc 1 388 12
 343 000a 0023     		movs	r3, #0
 344 000c FB60     		str	r3, [r7, #12]
 389:Drivers/STM32L4xx_HAL_Driver/Src/stm32l4xx_ll_sdmmc.c **** 
 390:Drivers/STM32L4xx_HAL_Driver/Src/stm32l4xx_ll_sdmmc.c ****   /* Check the parameters */
 391:Drivers/STM32L4xx_HAL_Driver/Src/stm32l4xx_ll_sdmmc.c ****   assert_param(IS_SDMMC_CMD_INDEX(Command->CmdIndex));
 392:Drivers/STM32L4xx_HAL_Driver/Src/stm32l4xx_ll_sdmmc.c ****   assert_param(IS_SDMMC_RESPONSE(Command->Response));
 393:Drivers/STM32L4xx_HAL_Driver/Src/stm32l4xx_ll_sdmmc.c ****   assert_param(IS_SDMMC_WAIT(Command->WaitForInterrupt));
 394:Drivers/STM32L4xx_HAL_Driver/Src/stm32l4xx_ll_sdmmc.c ****   assert_param(IS_SDMMC_CPSM(Command->CPSM));
 395:Drivers/STM32L4xx_HAL_Driver/Src/stm32l4xx_ll_sdmmc.c **** 
 396:Drivers/STM32L4xx_HAL_Driver/Src/stm32l4xx_ll_sdmmc.c ****   /* Set the SDMMC Argument value */
 397:Drivers/STM32L4xx_HAL_Driver/Src/stm32l4xx_ll_sdmmc.c ****   SDMMCx->ARG = Command->Argument;
 345              		.loc 1 397 24
 346 000e 3B68     		ldr	r3, [r7]
 347 0010 1A68     		ldr	r2, [r3]
 348              		.loc 1 397 15
 349 0012 7B68     		ldr	r3, [r7, #4]
 350 0014 9A60     		str	r2, [r3, #8]
 398:Drivers/STM32L4xx_HAL_Driver/Src/stm32l4xx_ll_sdmmc.c **** 
 399:Drivers/STM32L4xx_HAL_Driver/Src/stm32l4xx_ll_sdmmc.c ****   /* Set SDMMC command parameters */
 400:Drivers/STM32L4xx_HAL_Driver/Src/stm32l4xx_ll_sdmmc.c ****   tmpreg |= (uint32_t)(Command->CmdIndex         | \
ARM GAS  /tmp/ccZ1T6Sv.s 			page 14


 351              		.loc 1 400 31
 352 0016 3B68     		ldr	r3, [r7]
 353 0018 5A68     		ldr	r2, [r3, #4]
 401:Drivers/STM32L4xx_HAL_Driver/Src/stm32l4xx_ll_sdmmc.c ****                        Command->Response         | \
 354              		.loc 1 401 31
 355 001a 3B68     		ldr	r3, [r7]
 356 001c 9B68     		ldr	r3, [r3, #8]
 400:Drivers/STM32L4xx_HAL_Driver/Src/stm32l4xx_ll_sdmmc.c ****                        Command->Response         | \
 357              		.loc 1 400 50
 358 001e 1A43     		orrs	r2, r2, r3
 402:Drivers/STM32L4xx_HAL_Driver/Src/stm32l4xx_ll_sdmmc.c ****                        Command->WaitForInterrupt | \
 359              		.loc 1 402 31
 360 0020 3B68     		ldr	r3, [r7]
 361 0022 DB68     		ldr	r3, [r3, #12]
 401:Drivers/STM32L4xx_HAL_Driver/Src/stm32l4xx_ll_sdmmc.c ****                        Command->Response         | \
 362              		.loc 1 401 50
 363 0024 1A43     		orrs	r2, r2, r3
 403:Drivers/STM32L4xx_HAL_Driver/Src/stm32l4xx_ll_sdmmc.c ****                        Command->CPSM);
 364              		.loc 1 403 31
 365 0026 3B68     		ldr	r3, [r7]
 366 0028 1B69     		ldr	r3, [r3, #16]
 402:Drivers/STM32L4xx_HAL_Driver/Src/stm32l4xx_ll_sdmmc.c ****                        Command->WaitForInterrupt | \
 367              		.loc 1 402 50
 368 002a 1343     		orrs	r3, r3, r2
 400:Drivers/STM32L4xx_HAL_Driver/Src/stm32l4xx_ll_sdmmc.c ****                        Command->Response         | \
 369              		.loc 1 400 10
 370 002c FA68     		ldr	r2, [r7, #12]
 371 002e 1343     		orrs	r3, r3, r2
 372 0030 FB60     		str	r3, [r7, #12]
 404:Drivers/STM32L4xx_HAL_Driver/Src/stm32l4xx_ll_sdmmc.c **** 
 405:Drivers/STM32L4xx_HAL_Driver/Src/stm32l4xx_ll_sdmmc.c ****   /* Write to SDMMC CMD register */
 406:Drivers/STM32L4xx_HAL_Driver/Src/stm32l4xx_ll_sdmmc.c ****   MODIFY_REG(SDMMCx->CMD, CMD_CLEAR_MASK, tmpreg);
 373              		.loc 1 406 3
 374 0032 7B68     		ldr	r3, [r7, #4]
 375 0034 DB68     		ldr	r3, [r3, #12]
 376 0036 23F47F63 		bic	r3, r3, #4080
 377 003a 23F00F03 		bic	r3, r3, #15
 378 003e FA68     		ldr	r2, [r7, #12]
 379 0040 1A43     		orrs	r2, r2, r3
 380 0042 7B68     		ldr	r3, [r7, #4]
 381 0044 DA60     		str	r2, [r3, #12]
 407:Drivers/STM32L4xx_HAL_Driver/Src/stm32l4xx_ll_sdmmc.c **** 
 408:Drivers/STM32L4xx_HAL_Driver/Src/stm32l4xx_ll_sdmmc.c ****   return HAL_OK;
 382              		.loc 1 408 10
 383 0046 0023     		movs	r3, #0
 409:Drivers/STM32L4xx_HAL_Driver/Src/stm32l4xx_ll_sdmmc.c **** }
 384              		.loc 1 409 1
 385 0048 1846     		mov	r0, r3
 386 004a 1437     		adds	r7, r7, #20
 387              		.cfi_def_cfa_offset 4
 388 004c BD46     		mov	sp, r7
 389              		.cfi_def_cfa_register 13
 390              		@ sp needed
 391 004e 5DF8047B 		ldr	r7, [sp], #4
 392              		.cfi_restore 7
 393              		.cfi_def_cfa_offset 0
 394 0052 7047     		bx	lr
ARM GAS  /tmp/ccZ1T6Sv.s 			page 15


 395              		.cfi_endproc
 396              	.LFE451:
 398              		.section	.text.SDMMC_GetCommandResponse,"ax",%progbits
 399              		.align	1
 400              		.global	SDMMC_GetCommandResponse
 401              		.syntax unified
 402              		.thumb
 403              		.thumb_func
 405              	SDMMC_GetCommandResponse:
 406              	.LFB452:
 410:Drivers/STM32L4xx_HAL_Driver/Src/stm32l4xx_ll_sdmmc.c **** 
 411:Drivers/STM32L4xx_HAL_Driver/Src/stm32l4xx_ll_sdmmc.c **** /**
 412:Drivers/STM32L4xx_HAL_Driver/Src/stm32l4xx_ll_sdmmc.c ****   * @brief  Return the command index of last command for which response received
 413:Drivers/STM32L4xx_HAL_Driver/Src/stm32l4xx_ll_sdmmc.c ****   * @param  SDMMCx: Pointer to SDMMC register base
 414:Drivers/STM32L4xx_HAL_Driver/Src/stm32l4xx_ll_sdmmc.c ****   * @retval Command index of the last command response received
 415:Drivers/STM32L4xx_HAL_Driver/Src/stm32l4xx_ll_sdmmc.c ****   */
 416:Drivers/STM32L4xx_HAL_Driver/Src/stm32l4xx_ll_sdmmc.c **** uint8_t SDMMC_GetCommandResponse(const SDMMC_TypeDef *SDMMCx)
 417:Drivers/STM32L4xx_HAL_Driver/Src/stm32l4xx_ll_sdmmc.c **** {
 407              		.loc 1 417 1
 408              		.cfi_startproc
 409              		@ args = 0, pretend = 0, frame = 8
 410              		@ frame_needed = 1, uses_anonymous_args = 0
 411              		@ link register save eliminated.
 412 0000 80B4     		push	{r7}
 413              		.cfi_def_cfa_offset 4
 414              		.cfi_offset 7, -4
 415 0002 83B0     		sub	sp, sp, #12
 416              		.cfi_def_cfa_offset 16
 417 0004 00AF     		add	r7, sp, #0
 418              		.cfi_def_cfa_register 7
 419 0006 7860     		str	r0, [r7, #4]
 418:Drivers/STM32L4xx_HAL_Driver/Src/stm32l4xx_ll_sdmmc.c ****   return (uint8_t)(SDMMCx->RESPCMD);
 420              		.loc 1 418 26
 421 0008 7B68     		ldr	r3, [r7, #4]
 422 000a 1B69     		ldr	r3, [r3, #16]
 423              		.loc 1 418 10
 424 000c DBB2     		uxtb	r3, r3
 419:Drivers/STM32L4xx_HAL_Driver/Src/stm32l4xx_ll_sdmmc.c **** }
 425              		.loc 1 419 1
 426 000e 1846     		mov	r0, r3
 427 0010 0C37     		adds	r7, r7, #12
 428              		.cfi_def_cfa_offset 4
 429 0012 BD46     		mov	sp, r7
 430              		.cfi_def_cfa_register 13
 431              		@ sp needed
 432 0014 5DF8047B 		ldr	r7, [sp], #4
 433              		.cfi_restore 7
 434              		.cfi_def_cfa_offset 0
 435 0018 7047     		bx	lr
 436              		.cfi_endproc
 437              	.LFE452:
 439              		.section	.text.SDMMC_GetResponse,"ax",%progbits
 440              		.align	1
 441              		.global	SDMMC_GetResponse
 442              		.syntax unified
 443              		.thumb
 444              		.thumb_func
ARM GAS  /tmp/ccZ1T6Sv.s 			page 16


 446              	SDMMC_GetResponse:
 447              	.LFB453:
 420:Drivers/STM32L4xx_HAL_Driver/Src/stm32l4xx_ll_sdmmc.c **** 
 421:Drivers/STM32L4xx_HAL_Driver/Src/stm32l4xx_ll_sdmmc.c **** 
 422:Drivers/STM32L4xx_HAL_Driver/Src/stm32l4xx_ll_sdmmc.c **** /**
 423:Drivers/STM32L4xx_HAL_Driver/Src/stm32l4xx_ll_sdmmc.c ****   * @brief  Return the response received from the card for the last command
 424:Drivers/STM32L4xx_HAL_Driver/Src/stm32l4xx_ll_sdmmc.c ****   * @param  SDMMCx: Pointer to SDMMC register base
 425:Drivers/STM32L4xx_HAL_Driver/Src/stm32l4xx_ll_sdmmc.c ****   * @param  Response: Specifies the SDMMC response register.
 426:Drivers/STM32L4xx_HAL_Driver/Src/stm32l4xx_ll_sdmmc.c ****   *          This parameter can be one of the following values:
 427:Drivers/STM32L4xx_HAL_Driver/Src/stm32l4xx_ll_sdmmc.c ****   *            @arg SDMMC_RESP1: Response Register 1
 428:Drivers/STM32L4xx_HAL_Driver/Src/stm32l4xx_ll_sdmmc.c ****   *            @arg SDMMC_RESP2: Response Register 2
 429:Drivers/STM32L4xx_HAL_Driver/Src/stm32l4xx_ll_sdmmc.c ****   *            @arg SDMMC_RESP3: Response Register 3
 430:Drivers/STM32L4xx_HAL_Driver/Src/stm32l4xx_ll_sdmmc.c ****   *            @arg SDMMC_RESP4: Response Register 4
 431:Drivers/STM32L4xx_HAL_Driver/Src/stm32l4xx_ll_sdmmc.c ****   * @retval The Corresponding response register value
 432:Drivers/STM32L4xx_HAL_Driver/Src/stm32l4xx_ll_sdmmc.c ****   */
 433:Drivers/STM32L4xx_HAL_Driver/Src/stm32l4xx_ll_sdmmc.c **** uint32_t SDMMC_GetResponse(const SDMMC_TypeDef *SDMMCx, uint32_t Response)
 434:Drivers/STM32L4xx_HAL_Driver/Src/stm32l4xx_ll_sdmmc.c **** {
 448              		.loc 1 434 1
 449              		.cfi_startproc
 450              		@ args = 0, pretend = 0, frame = 16
 451              		@ frame_needed = 1, uses_anonymous_args = 0
 452              		@ link register save eliminated.
 453 0000 80B4     		push	{r7}
 454              		.cfi_def_cfa_offset 4
 455              		.cfi_offset 7, -4
 456 0002 85B0     		sub	sp, sp, #20
 457              		.cfi_def_cfa_offset 24
 458 0004 00AF     		add	r7, sp, #0
 459              		.cfi_def_cfa_register 7
 460 0006 7860     		str	r0, [r7, #4]
 461 0008 3960     		str	r1, [r7]
 435:Drivers/STM32L4xx_HAL_Driver/Src/stm32l4xx_ll_sdmmc.c ****   uint32_t tmp;
 436:Drivers/STM32L4xx_HAL_Driver/Src/stm32l4xx_ll_sdmmc.c **** 
 437:Drivers/STM32L4xx_HAL_Driver/Src/stm32l4xx_ll_sdmmc.c ****   /* Check the parameters */
 438:Drivers/STM32L4xx_HAL_Driver/Src/stm32l4xx_ll_sdmmc.c ****   assert_param(IS_SDMMC_RESP(Response));
 439:Drivers/STM32L4xx_HAL_Driver/Src/stm32l4xx_ll_sdmmc.c **** 
 440:Drivers/STM32L4xx_HAL_Driver/Src/stm32l4xx_ll_sdmmc.c ****   /* Get the response */
 441:Drivers/STM32L4xx_HAL_Driver/Src/stm32l4xx_ll_sdmmc.c ****   tmp = (uint32_t)(&(SDMMCx->RESP1)) + Response;
 462              		.loc 1 441 20
 463 000a 7B68     		ldr	r3, [r7, #4]
 464 000c 1433     		adds	r3, r3, #20
 465              		.loc 1 441 9
 466 000e 1A46     		mov	r2, r3
 467              		.loc 1 441 7
 468 0010 3B68     		ldr	r3, [r7]
 469 0012 1344     		add	r3, r3, r2
 470 0014 FB60     		str	r3, [r7, #12]
 442:Drivers/STM32L4xx_HAL_Driver/Src/stm32l4xx_ll_sdmmc.c **** 
 443:Drivers/STM32L4xx_HAL_Driver/Src/stm32l4xx_ll_sdmmc.c ****   return (*(__IO uint32_t *) tmp);
 471              		.loc 1 443 12
 472 0016 FB68     		ldr	r3, [r7, #12]
 473              		.loc 1 443 11
 474 0018 1B68     		ldr	r3, [r3]
 444:Drivers/STM32L4xx_HAL_Driver/Src/stm32l4xx_ll_sdmmc.c **** }
 475              		.loc 1 444 1
 476 001a 1846     		mov	r0, r3
 477 001c 1437     		adds	r7, r7, #20
ARM GAS  /tmp/ccZ1T6Sv.s 			page 17


 478              		.cfi_def_cfa_offset 4
 479 001e BD46     		mov	sp, r7
 480              		.cfi_def_cfa_register 13
 481              		@ sp needed
 482 0020 5DF8047B 		ldr	r7, [sp], #4
 483              		.cfi_restore 7
 484              		.cfi_def_cfa_offset 0
 485 0024 7047     		bx	lr
 486              		.cfi_endproc
 487              	.LFE453:
 489              		.section	.text.SDMMC_ConfigData,"ax",%progbits
 490              		.align	1
 491              		.global	SDMMC_ConfigData
 492              		.syntax unified
 493              		.thumb
 494              		.thumb_func
 496              	SDMMC_ConfigData:
 497              	.LFB454:
 445:Drivers/STM32L4xx_HAL_Driver/Src/stm32l4xx_ll_sdmmc.c **** 
 446:Drivers/STM32L4xx_HAL_Driver/Src/stm32l4xx_ll_sdmmc.c **** /**
 447:Drivers/STM32L4xx_HAL_Driver/Src/stm32l4xx_ll_sdmmc.c ****   * @brief  Configure the SDMMC data path according to the specified
 448:Drivers/STM32L4xx_HAL_Driver/Src/stm32l4xx_ll_sdmmc.c ****   *         parameters in the SDMMC_DataInitTypeDef.
 449:Drivers/STM32L4xx_HAL_Driver/Src/stm32l4xx_ll_sdmmc.c ****   * @param  SDMMCx: Pointer to SDMMC register base
 450:Drivers/STM32L4xx_HAL_Driver/Src/stm32l4xx_ll_sdmmc.c ****   * @param  Data : pointer to a SDMMC_DataInitTypeDef structure
 451:Drivers/STM32L4xx_HAL_Driver/Src/stm32l4xx_ll_sdmmc.c ****   *         that contains the configuration information for the SDMMC data.
 452:Drivers/STM32L4xx_HAL_Driver/Src/stm32l4xx_ll_sdmmc.c ****   * @retval HAL status
 453:Drivers/STM32L4xx_HAL_Driver/Src/stm32l4xx_ll_sdmmc.c ****   */
 454:Drivers/STM32L4xx_HAL_Driver/Src/stm32l4xx_ll_sdmmc.c **** HAL_StatusTypeDef SDMMC_ConfigData(SDMMC_TypeDef *SDMMCx, SDMMC_DataInitTypeDef *Data)
 455:Drivers/STM32L4xx_HAL_Driver/Src/stm32l4xx_ll_sdmmc.c **** {
 498              		.loc 1 455 1
 499              		.cfi_startproc
 500              		@ args = 0, pretend = 0, frame = 16
 501              		@ frame_needed = 1, uses_anonymous_args = 0
 502              		@ link register save eliminated.
 503 0000 80B4     		push	{r7}
 504              		.cfi_def_cfa_offset 4
 505              		.cfi_offset 7, -4
 506 0002 85B0     		sub	sp, sp, #20
 507              		.cfi_def_cfa_offset 24
 508 0004 00AF     		add	r7, sp, #0
 509              		.cfi_def_cfa_register 7
 510 0006 7860     		str	r0, [r7, #4]
 511 0008 3960     		str	r1, [r7]
 456:Drivers/STM32L4xx_HAL_Driver/Src/stm32l4xx_ll_sdmmc.c ****   uint32_t tmpreg = 0;
 512              		.loc 1 456 12
 513 000a 0023     		movs	r3, #0
 514 000c FB60     		str	r3, [r7, #12]
 457:Drivers/STM32L4xx_HAL_Driver/Src/stm32l4xx_ll_sdmmc.c **** 
 458:Drivers/STM32L4xx_HAL_Driver/Src/stm32l4xx_ll_sdmmc.c ****   /* Check the parameters */
 459:Drivers/STM32L4xx_HAL_Driver/Src/stm32l4xx_ll_sdmmc.c ****   assert_param(IS_SDMMC_DATA_LENGTH(Data->DataLength));
 460:Drivers/STM32L4xx_HAL_Driver/Src/stm32l4xx_ll_sdmmc.c ****   assert_param(IS_SDMMC_BLOCK_SIZE(Data->DataBlockSize));
 461:Drivers/STM32L4xx_HAL_Driver/Src/stm32l4xx_ll_sdmmc.c ****   assert_param(IS_SDMMC_TRANSFER_DIR(Data->TransferDir));
 462:Drivers/STM32L4xx_HAL_Driver/Src/stm32l4xx_ll_sdmmc.c ****   assert_param(IS_SDMMC_TRANSFER_MODE(Data->TransferMode));
 463:Drivers/STM32L4xx_HAL_Driver/Src/stm32l4xx_ll_sdmmc.c ****   assert_param(IS_SDMMC_DPSM(Data->DPSM));
 464:Drivers/STM32L4xx_HAL_Driver/Src/stm32l4xx_ll_sdmmc.c **** 
 465:Drivers/STM32L4xx_HAL_Driver/Src/stm32l4xx_ll_sdmmc.c ****   /* Set the SDMMC Data TimeOut value */
 466:Drivers/STM32L4xx_HAL_Driver/Src/stm32l4xx_ll_sdmmc.c ****   SDMMCx->DTIMER = Data->DataTimeOut;
ARM GAS  /tmp/ccZ1T6Sv.s 			page 18


 515              		.loc 1 466 24
 516 000e 3B68     		ldr	r3, [r7]
 517 0010 1A68     		ldr	r2, [r3]
 518              		.loc 1 466 18
 519 0012 7B68     		ldr	r3, [r7, #4]
 520 0014 5A62     		str	r2, [r3, #36]
 467:Drivers/STM32L4xx_HAL_Driver/Src/stm32l4xx_ll_sdmmc.c **** 
 468:Drivers/STM32L4xx_HAL_Driver/Src/stm32l4xx_ll_sdmmc.c ****   /* Set the SDMMC DataLength value */
 469:Drivers/STM32L4xx_HAL_Driver/Src/stm32l4xx_ll_sdmmc.c ****   SDMMCx->DLEN = Data->DataLength;
 521              		.loc 1 469 22
 522 0016 3B68     		ldr	r3, [r7]
 523 0018 5A68     		ldr	r2, [r3, #4]
 524              		.loc 1 469 16
 525 001a 7B68     		ldr	r3, [r7, #4]
 526 001c 9A62     		str	r2, [r3, #40]
 470:Drivers/STM32L4xx_HAL_Driver/Src/stm32l4xx_ll_sdmmc.c **** 
 471:Drivers/STM32L4xx_HAL_Driver/Src/stm32l4xx_ll_sdmmc.c ****   /* Set the SDMMC data configuration parameters */
 472:Drivers/STM32L4xx_HAL_Driver/Src/stm32l4xx_ll_sdmmc.c ****   tmpreg |= (uint32_t)(Data->DataBlockSize | \
 527              		.loc 1 472 28
 528 001e 3B68     		ldr	r3, [r7]
 529 0020 9A68     		ldr	r2, [r3, #8]
 473:Drivers/STM32L4xx_HAL_Driver/Src/stm32l4xx_ll_sdmmc.c ****                        Data->TransferDir   | \
 530              		.loc 1 473 28
 531 0022 3B68     		ldr	r3, [r7]
 532 0024 DB68     		ldr	r3, [r3, #12]
 472:Drivers/STM32L4xx_HAL_Driver/Src/stm32l4xx_ll_sdmmc.c ****                        Data->TransferDir   | \
 533              		.loc 1 472 44
 534 0026 1A43     		orrs	r2, r2, r3
 474:Drivers/STM32L4xx_HAL_Driver/Src/stm32l4xx_ll_sdmmc.c ****                        Data->TransferMode  | \
 535              		.loc 1 474 28
 536 0028 3B68     		ldr	r3, [r7]
 537 002a 1B69     		ldr	r3, [r3, #16]
 473:Drivers/STM32L4xx_HAL_Driver/Src/stm32l4xx_ll_sdmmc.c ****                        Data->TransferDir   | \
 538              		.loc 1 473 44
 539 002c 1A43     		orrs	r2, r2, r3
 475:Drivers/STM32L4xx_HAL_Driver/Src/stm32l4xx_ll_sdmmc.c ****                        Data->DPSM);
 540              		.loc 1 475 28
 541 002e 3B68     		ldr	r3, [r7]
 542 0030 5B69     		ldr	r3, [r3, #20]
 474:Drivers/STM32L4xx_HAL_Driver/Src/stm32l4xx_ll_sdmmc.c ****                        Data->TransferMode  | \
 543              		.loc 1 474 44
 544 0032 1343     		orrs	r3, r3, r2
 472:Drivers/STM32L4xx_HAL_Driver/Src/stm32l4xx_ll_sdmmc.c ****                        Data->TransferDir   | \
 545              		.loc 1 472 10
 546 0034 FA68     		ldr	r2, [r7, #12]
 547 0036 1343     		orrs	r3, r3, r2
 548 0038 FB60     		str	r3, [r7, #12]
 476:Drivers/STM32L4xx_HAL_Driver/Src/stm32l4xx_ll_sdmmc.c **** 
 477:Drivers/STM32L4xx_HAL_Driver/Src/stm32l4xx_ll_sdmmc.c ****   /* Write to SDMMC DCTRL */
 478:Drivers/STM32L4xx_HAL_Driver/Src/stm32l4xx_ll_sdmmc.c ****   MODIFY_REG(SDMMCx->DCTRL, DCTRL_CLEAR_MASK, tmpreg);
 549              		.loc 1 478 3
 550 003a 7B68     		ldr	r3, [r7, #4]
 551 003c DB6A     		ldr	r3, [r3, #44]
 552 003e 23F0F702 		bic	r2, r3, #247
 553 0042 FB68     		ldr	r3, [r7, #12]
 554 0044 1A43     		orrs	r2, r2, r3
 555 0046 7B68     		ldr	r3, [r7, #4]
ARM GAS  /tmp/ccZ1T6Sv.s 			page 19


 556 0048 DA62     		str	r2, [r3, #44]
 479:Drivers/STM32L4xx_HAL_Driver/Src/stm32l4xx_ll_sdmmc.c **** 
 480:Drivers/STM32L4xx_HAL_Driver/Src/stm32l4xx_ll_sdmmc.c ****   return HAL_OK;
 557              		.loc 1 480 10
 558 004a 0023     		movs	r3, #0
 481:Drivers/STM32L4xx_HAL_Driver/Src/stm32l4xx_ll_sdmmc.c **** 
 482:Drivers/STM32L4xx_HAL_Driver/Src/stm32l4xx_ll_sdmmc.c **** }
 559              		.loc 1 482 1
 560 004c 1846     		mov	r0, r3
 561 004e 1437     		adds	r7, r7, #20
 562              		.cfi_def_cfa_offset 4
 563 0050 BD46     		mov	sp, r7
 564              		.cfi_def_cfa_register 13
 565              		@ sp needed
 566 0052 5DF8047B 		ldr	r7, [sp], #4
 567              		.cfi_restore 7
 568              		.cfi_def_cfa_offset 0
 569 0056 7047     		bx	lr
 570              		.cfi_endproc
 571              	.LFE454:
 573              		.section	.text.SDMMC_GetDataCounter,"ax",%progbits
 574              		.align	1
 575              		.global	SDMMC_GetDataCounter
 576              		.syntax unified
 577              		.thumb
 578              		.thumb_func
 580              	SDMMC_GetDataCounter:
 581              	.LFB455:
 483:Drivers/STM32L4xx_HAL_Driver/Src/stm32l4xx_ll_sdmmc.c **** 
 484:Drivers/STM32L4xx_HAL_Driver/Src/stm32l4xx_ll_sdmmc.c **** /**
 485:Drivers/STM32L4xx_HAL_Driver/Src/stm32l4xx_ll_sdmmc.c ****   * @brief  Returns number of remaining data bytes to be transferred.
 486:Drivers/STM32L4xx_HAL_Driver/Src/stm32l4xx_ll_sdmmc.c ****   * @param  SDMMCx: Pointer to SDMMC register base
 487:Drivers/STM32L4xx_HAL_Driver/Src/stm32l4xx_ll_sdmmc.c ****   * @retval Number of remaining data bytes to be transferred
 488:Drivers/STM32L4xx_HAL_Driver/Src/stm32l4xx_ll_sdmmc.c ****   */
 489:Drivers/STM32L4xx_HAL_Driver/Src/stm32l4xx_ll_sdmmc.c **** uint32_t SDMMC_GetDataCounter(const SDMMC_TypeDef *SDMMCx)
 490:Drivers/STM32L4xx_HAL_Driver/Src/stm32l4xx_ll_sdmmc.c **** {
 582              		.loc 1 490 1
 583              		.cfi_startproc
 584              		@ args = 0, pretend = 0, frame = 8
 585              		@ frame_needed = 1, uses_anonymous_args = 0
 586              		@ link register save eliminated.
 587 0000 80B4     		push	{r7}
 588              		.cfi_def_cfa_offset 4
 589              		.cfi_offset 7, -4
 590 0002 83B0     		sub	sp, sp, #12
 591              		.cfi_def_cfa_offset 16
 592 0004 00AF     		add	r7, sp, #0
 593              		.cfi_def_cfa_register 7
 594 0006 7860     		str	r0, [r7, #4]
 491:Drivers/STM32L4xx_HAL_Driver/Src/stm32l4xx_ll_sdmmc.c ****   return (SDMMCx->DCOUNT);
 595              		.loc 1 491 17
 596 0008 7B68     		ldr	r3, [r7, #4]
 597 000a 1B6B     		ldr	r3, [r3, #48]
 492:Drivers/STM32L4xx_HAL_Driver/Src/stm32l4xx_ll_sdmmc.c **** }
 598              		.loc 1 492 1
 599 000c 1846     		mov	r0, r3
 600 000e 0C37     		adds	r7, r7, #12
ARM GAS  /tmp/ccZ1T6Sv.s 			page 20


 601              		.cfi_def_cfa_offset 4
 602 0010 BD46     		mov	sp, r7
 603              		.cfi_def_cfa_register 13
 604              		@ sp needed
 605 0012 5DF8047B 		ldr	r7, [sp], #4
 606              		.cfi_restore 7
 607              		.cfi_def_cfa_offset 0
 608 0016 7047     		bx	lr
 609              		.cfi_endproc
 610              	.LFE455:
 612              		.section	.text.SDMMC_GetFIFOCount,"ax",%progbits
 613              		.align	1
 614              		.global	SDMMC_GetFIFOCount
 615              		.syntax unified
 616              		.thumb
 617              		.thumb_func
 619              	SDMMC_GetFIFOCount:
 620              	.LFB456:
 493:Drivers/STM32L4xx_HAL_Driver/Src/stm32l4xx_ll_sdmmc.c **** 
 494:Drivers/STM32L4xx_HAL_Driver/Src/stm32l4xx_ll_sdmmc.c **** /**
 495:Drivers/STM32L4xx_HAL_Driver/Src/stm32l4xx_ll_sdmmc.c ****   * @brief  Get the FIFO data
 496:Drivers/STM32L4xx_HAL_Driver/Src/stm32l4xx_ll_sdmmc.c ****   * @param  SDMMCx: Pointer to SDMMC register base
 497:Drivers/STM32L4xx_HAL_Driver/Src/stm32l4xx_ll_sdmmc.c ****   * @retval Data received
 498:Drivers/STM32L4xx_HAL_Driver/Src/stm32l4xx_ll_sdmmc.c ****   */
 499:Drivers/STM32L4xx_HAL_Driver/Src/stm32l4xx_ll_sdmmc.c **** uint32_t SDMMC_GetFIFOCount(const SDMMC_TypeDef *SDMMCx)
 500:Drivers/STM32L4xx_HAL_Driver/Src/stm32l4xx_ll_sdmmc.c **** {
 621              		.loc 1 500 1
 622              		.cfi_startproc
 623              		@ args = 0, pretend = 0, frame = 8
 624              		@ frame_needed = 1, uses_anonymous_args = 0
 625              		@ link register save eliminated.
 626 0000 80B4     		push	{r7}
 627              		.cfi_def_cfa_offset 4
 628              		.cfi_offset 7, -4
 629 0002 83B0     		sub	sp, sp, #12
 630              		.cfi_def_cfa_offset 16
 631 0004 00AF     		add	r7, sp, #0
 632              		.cfi_def_cfa_register 7
 633 0006 7860     		str	r0, [r7, #4]
 501:Drivers/STM32L4xx_HAL_Driver/Src/stm32l4xx_ll_sdmmc.c ****   return (SDMMCx->FIFO);
 634              		.loc 1 501 17
 635 0008 7B68     		ldr	r3, [r7, #4]
 636 000a D3F88030 		ldr	r3, [r3, #128]
 502:Drivers/STM32L4xx_HAL_Driver/Src/stm32l4xx_ll_sdmmc.c **** }
 637              		.loc 1 502 1
 638 000e 1846     		mov	r0, r3
 639 0010 0C37     		adds	r7, r7, #12
 640              		.cfi_def_cfa_offset 4
 641 0012 BD46     		mov	sp, r7
 642              		.cfi_def_cfa_register 13
 643              		@ sp needed
 644 0014 5DF8047B 		ldr	r7, [sp], #4
 645              		.cfi_restore 7
 646              		.cfi_def_cfa_offset 0
 647 0018 7047     		bx	lr
 648              		.cfi_endproc
 649              	.LFE456:
ARM GAS  /tmp/ccZ1T6Sv.s 			page 21


 651              		.section	.text.SDMMC_SetSDMMCReadWaitMode,"ax",%progbits
 652              		.align	1
 653              		.global	SDMMC_SetSDMMCReadWaitMode
 654              		.syntax unified
 655              		.thumb
 656              		.thumb_func
 658              	SDMMC_SetSDMMCReadWaitMode:
 659              	.LFB457:
 503:Drivers/STM32L4xx_HAL_Driver/Src/stm32l4xx_ll_sdmmc.c **** 
 504:Drivers/STM32L4xx_HAL_Driver/Src/stm32l4xx_ll_sdmmc.c **** /**
 505:Drivers/STM32L4xx_HAL_Driver/Src/stm32l4xx_ll_sdmmc.c ****   * @brief  Sets one of the two options of inserting read wait interval.
 506:Drivers/STM32L4xx_HAL_Driver/Src/stm32l4xx_ll_sdmmc.c ****   * @param  SDMMCx: Pointer to SDMMC register base
 507:Drivers/STM32L4xx_HAL_Driver/Src/stm32l4xx_ll_sdmmc.c ****   * @param  SDMMC_ReadWaitMode: SDMMC Read Wait operation mode.
 508:Drivers/STM32L4xx_HAL_Driver/Src/stm32l4xx_ll_sdmmc.c ****   *          This parameter can be:
 509:Drivers/STM32L4xx_HAL_Driver/Src/stm32l4xx_ll_sdmmc.c ****   *            @arg SDMMC_READ_WAIT_MODE_CLK: Read Wait control by stopping SDMMCCLK
 510:Drivers/STM32L4xx_HAL_Driver/Src/stm32l4xx_ll_sdmmc.c ****   *            @arg SDMMC_READ_WAIT_MODE_DATA2: Read Wait control using SDMMC_DATA2
 511:Drivers/STM32L4xx_HAL_Driver/Src/stm32l4xx_ll_sdmmc.c ****   * @retval None
 512:Drivers/STM32L4xx_HAL_Driver/Src/stm32l4xx_ll_sdmmc.c ****   */
 513:Drivers/STM32L4xx_HAL_Driver/Src/stm32l4xx_ll_sdmmc.c **** HAL_StatusTypeDef SDMMC_SetSDMMCReadWaitMode(SDMMC_TypeDef *SDMMCx,
 514:Drivers/STM32L4xx_HAL_Driver/Src/stm32l4xx_ll_sdmmc.c ****                                              uint32_t SDMMC_ReadWaitMode)
 515:Drivers/STM32L4xx_HAL_Driver/Src/stm32l4xx_ll_sdmmc.c **** {
 660              		.loc 1 515 1
 661              		.cfi_startproc
 662              		@ args = 0, pretend = 0, frame = 8
 663              		@ frame_needed = 1, uses_anonymous_args = 0
 664              		@ link register save eliminated.
 665 0000 80B4     		push	{r7}
 666              		.cfi_def_cfa_offset 4
 667              		.cfi_offset 7, -4
 668 0002 83B0     		sub	sp, sp, #12
 669              		.cfi_def_cfa_offset 16
 670 0004 00AF     		add	r7, sp, #0
 671              		.cfi_def_cfa_register 7
 672 0006 7860     		str	r0, [r7, #4]
 673 0008 3960     		str	r1, [r7]
 516:Drivers/STM32L4xx_HAL_Driver/Src/stm32l4xx_ll_sdmmc.c ****   /* Check the parameters */
 517:Drivers/STM32L4xx_HAL_Driver/Src/stm32l4xx_ll_sdmmc.c ****   assert_param(IS_SDMMC_READWAIT_MODE(SDMMC_ReadWaitMode));
 518:Drivers/STM32L4xx_HAL_Driver/Src/stm32l4xx_ll_sdmmc.c **** 
 519:Drivers/STM32L4xx_HAL_Driver/Src/stm32l4xx_ll_sdmmc.c ****   /* Set SDMMC read wait mode */
 520:Drivers/STM32L4xx_HAL_Driver/Src/stm32l4xx_ll_sdmmc.c ****   MODIFY_REG(SDMMCx->DCTRL, SDMMC_DCTRL_RWMOD, SDMMC_ReadWaitMode);
 674              		.loc 1 520 3
 675 000a 7B68     		ldr	r3, [r7, #4]
 676 000c DB6A     		ldr	r3, [r3, #44]
 677 000e 23F48062 		bic	r2, r3, #1024
 678 0012 3B68     		ldr	r3, [r7]
 679 0014 1A43     		orrs	r2, r2, r3
 680 0016 7B68     		ldr	r3, [r7, #4]
 681 0018 DA62     		str	r2, [r3, #44]
 521:Drivers/STM32L4xx_HAL_Driver/Src/stm32l4xx_ll_sdmmc.c **** 
 522:Drivers/STM32L4xx_HAL_Driver/Src/stm32l4xx_ll_sdmmc.c ****   return HAL_OK;
 682              		.loc 1 522 10
 683 001a 0023     		movs	r3, #0
 523:Drivers/STM32L4xx_HAL_Driver/Src/stm32l4xx_ll_sdmmc.c **** }
 684              		.loc 1 523 1
 685 001c 1846     		mov	r0, r3
 686 001e 0C37     		adds	r7, r7, #12
 687              		.cfi_def_cfa_offset 4
ARM GAS  /tmp/ccZ1T6Sv.s 			page 22


 688 0020 BD46     		mov	sp, r7
 689              		.cfi_def_cfa_register 13
 690              		@ sp needed
 691 0022 5DF8047B 		ldr	r7, [sp], #4
 692              		.cfi_restore 7
 693              		.cfi_def_cfa_offset 0
 694 0026 7047     		bx	lr
 695              		.cfi_endproc
 696              	.LFE457:
 698              		.section	.text.SDMMC_CmdBlockLength,"ax",%progbits
 699              		.align	1
 700              		.global	SDMMC_CmdBlockLength
 701              		.syntax unified
 702              		.thumb
 703              		.thumb_func
 705              	SDMMC_CmdBlockLength:
 706              	.LFB458:
 524:Drivers/STM32L4xx_HAL_Driver/Src/stm32l4xx_ll_sdmmc.c **** 
 525:Drivers/STM32L4xx_HAL_Driver/Src/stm32l4xx_ll_sdmmc.c **** /**
 526:Drivers/STM32L4xx_HAL_Driver/Src/stm32l4xx_ll_sdmmc.c ****   * @}
 527:Drivers/STM32L4xx_HAL_Driver/Src/stm32l4xx_ll_sdmmc.c ****   */
 528:Drivers/STM32L4xx_HAL_Driver/Src/stm32l4xx_ll_sdmmc.c **** 
 529:Drivers/STM32L4xx_HAL_Driver/Src/stm32l4xx_ll_sdmmc.c **** 
 530:Drivers/STM32L4xx_HAL_Driver/Src/stm32l4xx_ll_sdmmc.c **** /** @defgroup HAL_SDMMC_LL_Group4 Command management functions
 531:Drivers/STM32L4xx_HAL_Driver/Src/stm32l4xx_ll_sdmmc.c ****   *  @brief   Data transfers functions
 532:Drivers/STM32L4xx_HAL_Driver/Src/stm32l4xx_ll_sdmmc.c ****   *
 533:Drivers/STM32L4xx_HAL_Driver/Src/stm32l4xx_ll_sdmmc.c **** @verbatim
 534:Drivers/STM32L4xx_HAL_Driver/Src/stm32l4xx_ll_sdmmc.c ****  ===============================================================================
 535:Drivers/STM32L4xx_HAL_Driver/Src/stm32l4xx_ll_sdmmc.c ****                    ##### Commands management functions #####
 536:Drivers/STM32L4xx_HAL_Driver/Src/stm32l4xx_ll_sdmmc.c ****  ===============================================================================
 537:Drivers/STM32L4xx_HAL_Driver/Src/stm32l4xx_ll_sdmmc.c ****     [..]
 538:Drivers/STM32L4xx_HAL_Driver/Src/stm32l4xx_ll_sdmmc.c ****     This subsection provides a set of functions allowing to manage the needed commands.
 539:Drivers/STM32L4xx_HAL_Driver/Src/stm32l4xx_ll_sdmmc.c **** 
 540:Drivers/STM32L4xx_HAL_Driver/Src/stm32l4xx_ll_sdmmc.c **** @endverbatim
 541:Drivers/STM32L4xx_HAL_Driver/Src/stm32l4xx_ll_sdmmc.c ****   * @{
 542:Drivers/STM32L4xx_HAL_Driver/Src/stm32l4xx_ll_sdmmc.c ****   */
 543:Drivers/STM32L4xx_HAL_Driver/Src/stm32l4xx_ll_sdmmc.c **** 
 544:Drivers/STM32L4xx_HAL_Driver/Src/stm32l4xx_ll_sdmmc.c **** /**
 545:Drivers/STM32L4xx_HAL_Driver/Src/stm32l4xx_ll_sdmmc.c ****   * @brief  Send the Data Block Length command and check the response
 546:Drivers/STM32L4xx_HAL_Driver/Src/stm32l4xx_ll_sdmmc.c ****   * @param  SDMMCx: Pointer to SDMMC register base
 547:Drivers/STM32L4xx_HAL_Driver/Src/stm32l4xx_ll_sdmmc.c ****   * @retval HAL status
 548:Drivers/STM32L4xx_HAL_Driver/Src/stm32l4xx_ll_sdmmc.c ****   */
 549:Drivers/STM32L4xx_HAL_Driver/Src/stm32l4xx_ll_sdmmc.c **** uint32_t SDMMC_CmdBlockLength(SDMMC_TypeDef *SDMMCx, uint32_t BlockSize)
 550:Drivers/STM32L4xx_HAL_Driver/Src/stm32l4xx_ll_sdmmc.c **** {
 707              		.loc 1 550 1
 708              		.cfi_startproc
 709              		@ args = 0, pretend = 0, frame = 32
 710              		@ frame_needed = 1, uses_anonymous_args = 0
 711 0000 80B5     		push	{r7, lr}
 712              		.cfi_def_cfa_offset 8
 713              		.cfi_offset 7, -8
 714              		.cfi_offset 14, -4
 715 0002 88B0     		sub	sp, sp, #32
 716              		.cfi_def_cfa_offset 40
 717 0004 00AF     		add	r7, sp, #0
 718              		.cfi_def_cfa_register 7
 719 0006 7860     		str	r0, [r7, #4]
ARM GAS  /tmp/ccZ1T6Sv.s 			page 23


 720 0008 3960     		str	r1, [r7]
 551:Drivers/STM32L4xx_HAL_Driver/Src/stm32l4xx_ll_sdmmc.c ****   SDMMC_CmdInitTypeDef  sdmmc_cmdinit;
 552:Drivers/STM32L4xx_HAL_Driver/Src/stm32l4xx_ll_sdmmc.c ****   uint32_t errorstate;
 553:Drivers/STM32L4xx_HAL_Driver/Src/stm32l4xx_ll_sdmmc.c **** 
 554:Drivers/STM32L4xx_HAL_Driver/Src/stm32l4xx_ll_sdmmc.c ****   /* Set Block Size for Card */
 555:Drivers/STM32L4xx_HAL_Driver/Src/stm32l4xx_ll_sdmmc.c ****   sdmmc_cmdinit.Argument         = (uint32_t)BlockSize;
 721              		.loc 1 555 34
 722 000a 3B68     		ldr	r3, [r7]
 723 000c BB60     		str	r3, [r7, #8]
 556:Drivers/STM32L4xx_HAL_Driver/Src/stm32l4xx_ll_sdmmc.c ****   sdmmc_cmdinit.CmdIndex         = SDMMC_CMD_SET_BLOCKLEN;
 724              		.loc 1 556 34
 725 000e 1023     		movs	r3, #16
 726 0010 FB60     		str	r3, [r7, #12]
 557:Drivers/STM32L4xx_HAL_Driver/Src/stm32l4xx_ll_sdmmc.c ****   sdmmc_cmdinit.Response         = SDMMC_RESPONSE_SHORT;
 727              		.loc 1 557 34
 728 0012 4023     		movs	r3, #64
 729 0014 3B61     		str	r3, [r7, #16]
 558:Drivers/STM32L4xx_HAL_Driver/Src/stm32l4xx_ll_sdmmc.c ****   sdmmc_cmdinit.WaitForInterrupt = SDMMC_WAIT_NO;
 730              		.loc 1 558 34
 731 0016 0023     		movs	r3, #0
 732 0018 7B61     		str	r3, [r7, #20]
 559:Drivers/STM32L4xx_HAL_Driver/Src/stm32l4xx_ll_sdmmc.c ****   sdmmc_cmdinit.CPSM             = SDMMC_CPSM_ENABLE;
 733              		.loc 1 559 34
 734 001a 4FF48063 		mov	r3, #1024
 735 001e BB61     		str	r3, [r7, #24]
 560:Drivers/STM32L4xx_HAL_Driver/Src/stm32l4xx_ll_sdmmc.c ****   (void)SDMMC_SendCommand(SDMMCx, &sdmmc_cmdinit);
 736              		.loc 1 560 9
 737 0020 07F10803 		add	r3, r7, #8
 738 0024 1946     		mov	r1, r3
 739 0026 7868     		ldr	r0, [r7, #4]
 740 0028 FFF7FEFF 		bl	SDMMC_SendCommand
 561:Drivers/STM32L4xx_HAL_Driver/Src/stm32l4xx_ll_sdmmc.c **** 
 562:Drivers/STM32L4xx_HAL_Driver/Src/stm32l4xx_ll_sdmmc.c ****   /* Check for error conditions */
 563:Drivers/STM32L4xx_HAL_Driver/Src/stm32l4xx_ll_sdmmc.c ****   errorstate = SDMMC_GetCmdResp1(SDMMCx, SDMMC_CMD_SET_BLOCKLEN, SDMMC_CMDTIMEOUT);
 741              		.loc 1 563 16
 742 002c 41F28832 		movw	r2, #5000
 743 0030 1021     		movs	r1, #16
 744 0032 7868     		ldr	r0, [r7, #4]
 745 0034 FFF7FEFF 		bl	SDMMC_GetCmdResp1
 746 0038 F861     		str	r0, [r7, #28]
 564:Drivers/STM32L4xx_HAL_Driver/Src/stm32l4xx_ll_sdmmc.c **** 
 565:Drivers/STM32L4xx_HAL_Driver/Src/stm32l4xx_ll_sdmmc.c ****   return errorstate;
 747              		.loc 1 565 10
 748 003a FB69     		ldr	r3, [r7, #28]
 566:Drivers/STM32L4xx_HAL_Driver/Src/stm32l4xx_ll_sdmmc.c **** }
 749              		.loc 1 566 1
 750 003c 1846     		mov	r0, r3
 751 003e 2037     		adds	r7, r7, #32
 752              		.cfi_def_cfa_offset 8
 753 0040 BD46     		mov	sp, r7
 754              		.cfi_def_cfa_register 13
 755              		@ sp needed
 756 0042 80BD     		pop	{r7, pc}
 757              		.cfi_endproc
 758              	.LFE458:
 760              		.section	.text.SDMMC_CmdReadSingleBlock,"ax",%progbits
 761              		.align	1
ARM GAS  /tmp/ccZ1T6Sv.s 			page 24


 762              		.global	SDMMC_CmdReadSingleBlock
 763              		.syntax unified
 764              		.thumb
 765              		.thumb_func
 767              	SDMMC_CmdReadSingleBlock:
 768              	.LFB459:
 567:Drivers/STM32L4xx_HAL_Driver/Src/stm32l4xx_ll_sdmmc.c **** 
 568:Drivers/STM32L4xx_HAL_Driver/Src/stm32l4xx_ll_sdmmc.c **** /**
 569:Drivers/STM32L4xx_HAL_Driver/Src/stm32l4xx_ll_sdmmc.c ****   * @brief  Send the Read Single Block command and check the response
 570:Drivers/STM32L4xx_HAL_Driver/Src/stm32l4xx_ll_sdmmc.c ****   * @param  SDMMCx: Pointer to SDMMC register base
 571:Drivers/STM32L4xx_HAL_Driver/Src/stm32l4xx_ll_sdmmc.c ****   * @retval HAL status
 572:Drivers/STM32L4xx_HAL_Driver/Src/stm32l4xx_ll_sdmmc.c ****   */
 573:Drivers/STM32L4xx_HAL_Driver/Src/stm32l4xx_ll_sdmmc.c **** uint32_t SDMMC_CmdReadSingleBlock(SDMMC_TypeDef *SDMMCx, uint32_t ReadAdd)
 574:Drivers/STM32L4xx_HAL_Driver/Src/stm32l4xx_ll_sdmmc.c **** {
 769              		.loc 1 574 1
 770              		.cfi_startproc
 771              		@ args = 0, pretend = 0, frame = 32
 772              		@ frame_needed = 1, uses_anonymous_args = 0
 773 0000 80B5     		push	{r7, lr}
 774              		.cfi_def_cfa_offset 8
 775              		.cfi_offset 7, -8
 776              		.cfi_offset 14, -4
 777 0002 88B0     		sub	sp, sp, #32
 778              		.cfi_def_cfa_offset 40
 779 0004 00AF     		add	r7, sp, #0
 780              		.cfi_def_cfa_register 7
 781 0006 7860     		str	r0, [r7, #4]
 782 0008 3960     		str	r1, [r7]
 575:Drivers/STM32L4xx_HAL_Driver/Src/stm32l4xx_ll_sdmmc.c ****   SDMMC_CmdInitTypeDef  sdmmc_cmdinit;
 576:Drivers/STM32L4xx_HAL_Driver/Src/stm32l4xx_ll_sdmmc.c ****   uint32_t errorstate;
 577:Drivers/STM32L4xx_HAL_Driver/Src/stm32l4xx_ll_sdmmc.c **** 
 578:Drivers/STM32L4xx_HAL_Driver/Src/stm32l4xx_ll_sdmmc.c ****   /* Set Block Size for Card */
 579:Drivers/STM32L4xx_HAL_Driver/Src/stm32l4xx_ll_sdmmc.c ****   sdmmc_cmdinit.Argument         = (uint32_t)ReadAdd;
 783              		.loc 1 579 34
 784 000a 3B68     		ldr	r3, [r7]
 785 000c BB60     		str	r3, [r7, #8]
 580:Drivers/STM32L4xx_HAL_Driver/Src/stm32l4xx_ll_sdmmc.c ****   sdmmc_cmdinit.CmdIndex         = SDMMC_CMD_READ_SINGLE_BLOCK;
 786              		.loc 1 580 34
 787 000e 1123     		movs	r3, #17
 788 0010 FB60     		str	r3, [r7, #12]
 581:Drivers/STM32L4xx_HAL_Driver/Src/stm32l4xx_ll_sdmmc.c ****   sdmmc_cmdinit.Response         = SDMMC_RESPONSE_SHORT;
 789              		.loc 1 581 34
 790 0012 4023     		movs	r3, #64
 791 0014 3B61     		str	r3, [r7, #16]
 582:Drivers/STM32L4xx_HAL_Driver/Src/stm32l4xx_ll_sdmmc.c ****   sdmmc_cmdinit.WaitForInterrupt = SDMMC_WAIT_NO;
 792              		.loc 1 582 34
 793 0016 0023     		movs	r3, #0
 794 0018 7B61     		str	r3, [r7, #20]
 583:Drivers/STM32L4xx_HAL_Driver/Src/stm32l4xx_ll_sdmmc.c ****   sdmmc_cmdinit.CPSM             = SDMMC_CPSM_ENABLE;
 795              		.loc 1 583 34
 796 001a 4FF48063 		mov	r3, #1024
 797 001e BB61     		str	r3, [r7, #24]
 584:Drivers/STM32L4xx_HAL_Driver/Src/stm32l4xx_ll_sdmmc.c ****   (void)SDMMC_SendCommand(SDMMCx, &sdmmc_cmdinit);
 798              		.loc 1 584 9
 799 0020 07F10803 		add	r3, r7, #8
 800 0024 1946     		mov	r1, r3
 801 0026 7868     		ldr	r0, [r7, #4]
ARM GAS  /tmp/ccZ1T6Sv.s 			page 25


 802 0028 FFF7FEFF 		bl	SDMMC_SendCommand
 585:Drivers/STM32L4xx_HAL_Driver/Src/stm32l4xx_ll_sdmmc.c **** 
 586:Drivers/STM32L4xx_HAL_Driver/Src/stm32l4xx_ll_sdmmc.c ****   /* Check for error conditions */
 587:Drivers/STM32L4xx_HAL_Driver/Src/stm32l4xx_ll_sdmmc.c ****   errorstate = SDMMC_GetCmdResp1(SDMMCx, SDMMC_CMD_READ_SINGLE_BLOCK, SDMMC_CMDTIMEOUT);
 803              		.loc 1 587 16
 804 002c 41F28832 		movw	r2, #5000
 805 0030 1121     		movs	r1, #17
 806 0032 7868     		ldr	r0, [r7, #4]
 807 0034 FFF7FEFF 		bl	SDMMC_GetCmdResp1
 808 0038 F861     		str	r0, [r7, #28]
 588:Drivers/STM32L4xx_HAL_Driver/Src/stm32l4xx_ll_sdmmc.c **** 
 589:Drivers/STM32L4xx_HAL_Driver/Src/stm32l4xx_ll_sdmmc.c ****   return errorstate;
 809              		.loc 1 589 10
 810 003a FB69     		ldr	r3, [r7, #28]
 590:Drivers/STM32L4xx_HAL_Driver/Src/stm32l4xx_ll_sdmmc.c **** }
 811              		.loc 1 590 1
 812 003c 1846     		mov	r0, r3
 813 003e 2037     		adds	r7, r7, #32
 814              		.cfi_def_cfa_offset 8
 815 0040 BD46     		mov	sp, r7
 816              		.cfi_def_cfa_register 13
 817              		@ sp needed
 818 0042 80BD     		pop	{r7, pc}
 819              		.cfi_endproc
 820              	.LFE459:
 822              		.section	.text.SDMMC_CmdReadMultiBlock,"ax",%progbits
 823              		.align	1
 824              		.global	SDMMC_CmdReadMultiBlock
 825              		.syntax unified
 826              		.thumb
 827              		.thumb_func
 829              	SDMMC_CmdReadMultiBlock:
 830              	.LFB460:
 591:Drivers/STM32L4xx_HAL_Driver/Src/stm32l4xx_ll_sdmmc.c **** 
 592:Drivers/STM32L4xx_HAL_Driver/Src/stm32l4xx_ll_sdmmc.c **** /**
 593:Drivers/STM32L4xx_HAL_Driver/Src/stm32l4xx_ll_sdmmc.c ****   * @brief  Send the Read Multi Block command and check the response
 594:Drivers/STM32L4xx_HAL_Driver/Src/stm32l4xx_ll_sdmmc.c ****   * @param  SDMMCx: Pointer to SDMMC register base
 595:Drivers/STM32L4xx_HAL_Driver/Src/stm32l4xx_ll_sdmmc.c ****   * @retval HAL status
 596:Drivers/STM32L4xx_HAL_Driver/Src/stm32l4xx_ll_sdmmc.c ****   */
 597:Drivers/STM32L4xx_HAL_Driver/Src/stm32l4xx_ll_sdmmc.c **** uint32_t SDMMC_CmdReadMultiBlock(SDMMC_TypeDef *SDMMCx, uint32_t ReadAdd)
 598:Drivers/STM32L4xx_HAL_Driver/Src/stm32l4xx_ll_sdmmc.c **** {
 831              		.loc 1 598 1
 832              		.cfi_startproc
 833              		@ args = 0, pretend = 0, frame = 32
 834              		@ frame_needed = 1, uses_anonymous_args = 0
 835 0000 80B5     		push	{r7, lr}
 836              		.cfi_def_cfa_offset 8
 837              		.cfi_offset 7, -8
 838              		.cfi_offset 14, -4
 839 0002 88B0     		sub	sp, sp, #32
 840              		.cfi_def_cfa_offset 40
 841 0004 00AF     		add	r7, sp, #0
 842              		.cfi_def_cfa_register 7
 843 0006 7860     		str	r0, [r7, #4]
 844 0008 3960     		str	r1, [r7]
 599:Drivers/STM32L4xx_HAL_Driver/Src/stm32l4xx_ll_sdmmc.c ****   SDMMC_CmdInitTypeDef  sdmmc_cmdinit;
 600:Drivers/STM32L4xx_HAL_Driver/Src/stm32l4xx_ll_sdmmc.c ****   uint32_t errorstate;
ARM GAS  /tmp/ccZ1T6Sv.s 			page 26


 601:Drivers/STM32L4xx_HAL_Driver/Src/stm32l4xx_ll_sdmmc.c **** 
 602:Drivers/STM32L4xx_HAL_Driver/Src/stm32l4xx_ll_sdmmc.c ****   /* Set Block Size for Card */
 603:Drivers/STM32L4xx_HAL_Driver/Src/stm32l4xx_ll_sdmmc.c ****   sdmmc_cmdinit.Argument         = (uint32_t)ReadAdd;
 845              		.loc 1 603 34
 846 000a 3B68     		ldr	r3, [r7]
 847 000c BB60     		str	r3, [r7, #8]
 604:Drivers/STM32L4xx_HAL_Driver/Src/stm32l4xx_ll_sdmmc.c ****   sdmmc_cmdinit.CmdIndex         = SDMMC_CMD_READ_MULT_BLOCK;
 848              		.loc 1 604 34
 849 000e 1223     		movs	r3, #18
 850 0010 FB60     		str	r3, [r7, #12]
 605:Drivers/STM32L4xx_HAL_Driver/Src/stm32l4xx_ll_sdmmc.c ****   sdmmc_cmdinit.Response         = SDMMC_RESPONSE_SHORT;
 851              		.loc 1 605 34
 852 0012 4023     		movs	r3, #64
 853 0014 3B61     		str	r3, [r7, #16]
 606:Drivers/STM32L4xx_HAL_Driver/Src/stm32l4xx_ll_sdmmc.c ****   sdmmc_cmdinit.WaitForInterrupt = SDMMC_WAIT_NO;
 854              		.loc 1 606 34
 855 0016 0023     		movs	r3, #0
 856 0018 7B61     		str	r3, [r7, #20]
 607:Drivers/STM32L4xx_HAL_Driver/Src/stm32l4xx_ll_sdmmc.c ****   sdmmc_cmdinit.CPSM             = SDMMC_CPSM_ENABLE;
 857              		.loc 1 607 34
 858 001a 4FF48063 		mov	r3, #1024
 859 001e BB61     		str	r3, [r7, #24]
 608:Drivers/STM32L4xx_HAL_Driver/Src/stm32l4xx_ll_sdmmc.c ****   (void)SDMMC_SendCommand(SDMMCx, &sdmmc_cmdinit);
 860              		.loc 1 608 9
 861 0020 07F10803 		add	r3, r7, #8
 862 0024 1946     		mov	r1, r3
 863 0026 7868     		ldr	r0, [r7, #4]
 864 0028 FFF7FEFF 		bl	SDMMC_SendCommand
 609:Drivers/STM32L4xx_HAL_Driver/Src/stm32l4xx_ll_sdmmc.c **** 
 610:Drivers/STM32L4xx_HAL_Driver/Src/stm32l4xx_ll_sdmmc.c ****   /* Check for error conditions */
 611:Drivers/STM32L4xx_HAL_Driver/Src/stm32l4xx_ll_sdmmc.c ****   errorstate = SDMMC_GetCmdResp1(SDMMCx, SDMMC_CMD_READ_MULT_BLOCK, SDMMC_CMDTIMEOUT);
 865              		.loc 1 611 16
 866 002c 41F28832 		movw	r2, #5000
 867 0030 1221     		movs	r1, #18
 868 0032 7868     		ldr	r0, [r7, #4]
 869 0034 FFF7FEFF 		bl	SDMMC_GetCmdResp1
 870 0038 F861     		str	r0, [r7, #28]
 612:Drivers/STM32L4xx_HAL_Driver/Src/stm32l4xx_ll_sdmmc.c **** 
 613:Drivers/STM32L4xx_HAL_Driver/Src/stm32l4xx_ll_sdmmc.c ****   return errorstate;
 871              		.loc 1 613 10
 872 003a FB69     		ldr	r3, [r7, #28]
 614:Drivers/STM32L4xx_HAL_Driver/Src/stm32l4xx_ll_sdmmc.c **** }
 873              		.loc 1 614 1
 874 003c 1846     		mov	r0, r3
 875 003e 2037     		adds	r7, r7, #32
 876              		.cfi_def_cfa_offset 8
 877 0040 BD46     		mov	sp, r7
 878              		.cfi_def_cfa_register 13
 879              		@ sp needed
 880 0042 80BD     		pop	{r7, pc}
 881              		.cfi_endproc
 882              	.LFE460:
 884              		.section	.text.SDMMC_CmdWriteSingleBlock,"ax",%progbits
 885              		.align	1
 886              		.global	SDMMC_CmdWriteSingleBlock
 887              		.syntax unified
 888              		.thumb
ARM GAS  /tmp/ccZ1T6Sv.s 			page 27


 889              		.thumb_func
 891              	SDMMC_CmdWriteSingleBlock:
 892              	.LFB461:
 615:Drivers/STM32L4xx_HAL_Driver/Src/stm32l4xx_ll_sdmmc.c **** 
 616:Drivers/STM32L4xx_HAL_Driver/Src/stm32l4xx_ll_sdmmc.c **** /**
 617:Drivers/STM32L4xx_HAL_Driver/Src/stm32l4xx_ll_sdmmc.c ****   * @brief  Send the Write Single Block command and check the response
 618:Drivers/STM32L4xx_HAL_Driver/Src/stm32l4xx_ll_sdmmc.c ****   * @param  SDMMCx: Pointer to SDMMC register base
 619:Drivers/STM32L4xx_HAL_Driver/Src/stm32l4xx_ll_sdmmc.c ****   * @retval HAL status
 620:Drivers/STM32L4xx_HAL_Driver/Src/stm32l4xx_ll_sdmmc.c ****   */
 621:Drivers/STM32L4xx_HAL_Driver/Src/stm32l4xx_ll_sdmmc.c **** uint32_t SDMMC_CmdWriteSingleBlock(SDMMC_TypeDef *SDMMCx, uint32_t WriteAdd)
 622:Drivers/STM32L4xx_HAL_Driver/Src/stm32l4xx_ll_sdmmc.c **** {
 893              		.loc 1 622 1
 894              		.cfi_startproc
 895              		@ args = 0, pretend = 0, frame = 32
 896              		@ frame_needed = 1, uses_anonymous_args = 0
 897 0000 80B5     		push	{r7, lr}
 898              		.cfi_def_cfa_offset 8
 899              		.cfi_offset 7, -8
 900              		.cfi_offset 14, -4
 901 0002 88B0     		sub	sp, sp, #32
 902              		.cfi_def_cfa_offset 40
 903 0004 00AF     		add	r7, sp, #0
 904              		.cfi_def_cfa_register 7
 905 0006 7860     		str	r0, [r7, #4]
 906 0008 3960     		str	r1, [r7]
 623:Drivers/STM32L4xx_HAL_Driver/Src/stm32l4xx_ll_sdmmc.c ****   SDMMC_CmdInitTypeDef  sdmmc_cmdinit;
 624:Drivers/STM32L4xx_HAL_Driver/Src/stm32l4xx_ll_sdmmc.c ****   uint32_t errorstate;
 625:Drivers/STM32L4xx_HAL_Driver/Src/stm32l4xx_ll_sdmmc.c **** 
 626:Drivers/STM32L4xx_HAL_Driver/Src/stm32l4xx_ll_sdmmc.c ****   /* Set Block Size for Card */
 627:Drivers/STM32L4xx_HAL_Driver/Src/stm32l4xx_ll_sdmmc.c ****   sdmmc_cmdinit.Argument         = (uint32_t)WriteAdd;
 907              		.loc 1 627 34
 908 000a 3B68     		ldr	r3, [r7]
 909 000c BB60     		str	r3, [r7, #8]
 628:Drivers/STM32L4xx_HAL_Driver/Src/stm32l4xx_ll_sdmmc.c ****   sdmmc_cmdinit.CmdIndex         = SDMMC_CMD_WRITE_SINGLE_BLOCK;
 910              		.loc 1 628 34
 911 000e 1823     		movs	r3, #24
 912 0010 FB60     		str	r3, [r7, #12]
 629:Drivers/STM32L4xx_HAL_Driver/Src/stm32l4xx_ll_sdmmc.c ****   sdmmc_cmdinit.Response         = SDMMC_RESPONSE_SHORT;
 913              		.loc 1 629 34
 914 0012 4023     		movs	r3, #64
 915 0014 3B61     		str	r3, [r7, #16]
 630:Drivers/STM32L4xx_HAL_Driver/Src/stm32l4xx_ll_sdmmc.c ****   sdmmc_cmdinit.WaitForInterrupt = SDMMC_WAIT_NO;
 916              		.loc 1 630 34
 917 0016 0023     		movs	r3, #0
 918 0018 7B61     		str	r3, [r7, #20]
 631:Drivers/STM32L4xx_HAL_Driver/Src/stm32l4xx_ll_sdmmc.c ****   sdmmc_cmdinit.CPSM             = SDMMC_CPSM_ENABLE;
 919              		.loc 1 631 34
 920 001a 4FF48063 		mov	r3, #1024
 921 001e BB61     		str	r3, [r7, #24]
 632:Drivers/STM32L4xx_HAL_Driver/Src/stm32l4xx_ll_sdmmc.c ****   (void)SDMMC_SendCommand(SDMMCx, &sdmmc_cmdinit);
 922              		.loc 1 632 9
 923 0020 07F10803 		add	r3, r7, #8
 924 0024 1946     		mov	r1, r3
 925 0026 7868     		ldr	r0, [r7, #4]
 926 0028 FFF7FEFF 		bl	SDMMC_SendCommand
 633:Drivers/STM32L4xx_HAL_Driver/Src/stm32l4xx_ll_sdmmc.c **** 
 634:Drivers/STM32L4xx_HAL_Driver/Src/stm32l4xx_ll_sdmmc.c ****   /* Check for error conditions */
ARM GAS  /tmp/ccZ1T6Sv.s 			page 28


 635:Drivers/STM32L4xx_HAL_Driver/Src/stm32l4xx_ll_sdmmc.c ****   errorstate = SDMMC_GetCmdResp1(SDMMCx, SDMMC_CMD_WRITE_SINGLE_BLOCK, SDMMC_CMDTIMEOUT);
 927              		.loc 1 635 16
 928 002c 41F28832 		movw	r2, #5000
 929 0030 1821     		movs	r1, #24
 930 0032 7868     		ldr	r0, [r7, #4]
 931 0034 FFF7FEFF 		bl	SDMMC_GetCmdResp1
 932 0038 F861     		str	r0, [r7, #28]
 636:Drivers/STM32L4xx_HAL_Driver/Src/stm32l4xx_ll_sdmmc.c **** 
 637:Drivers/STM32L4xx_HAL_Driver/Src/stm32l4xx_ll_sdmmc.c ****   return errorstate;
 933              		.loc 1 637 10
 934 003a FB69     		ldr	r3, [r7, #28]
 638:Drivers/STM32L4xx_HAL_Driver/Src/stm32l4xx_ll_sdmmc.c **** }
 935              		.loc 1 638 1
 936 003c 1846     		mov	r0, r3
 937 003e 2037     		adds	r7, r7, #32
 938              		.cfi_def_cfa_offset 8
 939 0040 BD46     		mov	sp, r7
 940              		.cfi_def_cfa_register 13
 941              		@ sp needed
 942 0042 80BD     		pop	{r7, pc}
 943              		.cfi_endproc
 944              	.LFE461:
 946              		.section	.text.SDMMC_CmdWriteMultiBlock,"ax",%progbits
 947              		.align	1
 948              		.global	SDMMC_CmdWriteMultiBlock
 949              		.syntax unified
 950              		.thumb
 951              		.thumb_func
 953              	SDMMC_CmdWriteMultiBlock:
 954              	.LFB462:
 639:Drivers/STM32L4xx_HAL_Driver/Src/stm32l4xx_ll_sdmmc.c **** 
 640:Drivers/STM32L4xx_HAL_Driver/Src/stm32l4xx_ll_sdmmc.c **** /**
 641:Drivers/STM32L4xx_HAL_Driver/Src/stm32l4xx_ll_sdmmc.c ****   * @brief  Send the Write Multi Block command and check the response
 642:Drivers/STM32L4xx_HAL_Driver/Src/stm32l4xx_ll_sdmmc.c ****   * @param  SDMMCx: Pointer to SDMMC register base
 643:Drivers/STM32L4xx_HAL_Driver/Src/stm32l4xx_ll_sdmmc.c ****   * @retval HAL status
 644:Drivers/STM32L4xx_HAL_Driver/Src/stm32l4xx_ll_sdmmc.c ****   */
 645:Drivers/STM32L4xx_HAL_Driver/Src/stm32l4xx_ll_sdmmc.c **** uint32_t SDMMC_CmdWriteMultiBlock(SDMMC_TypeDef *SDMMCx, uint32_t WriteAdd)
 646:Drivers/STM32L4xx_HAL_Driver/Src/stm32l4xx_ll_sdmmc.c **** {
 955              		.loc 1 646 1
 956              		.cfi_startproc
 957              		@ args = 0, pretend = 0, frame = 32
 958              		@ frame_needed = 1, uses_anonymous_args = 0
 959 0000 80B5     		push	{r7, lr}
 960              		.cfi_def_cfa_offset 8
 961              		.cfi_offset 7, -8
 962              		.cfi_offset 14, -4
 963 0002 88B0     		sub	sp, sp, #32
 964              		.cfi_def_cfa_offset 40
 965 0004 00AF     		add	r7, sp, #0
 966              		.cfi_def_cfa_register 7
 967 0006 7860     		str	r0, [r7, #4]
 968 0008 3960     		str	r1, [r7]
 647:Drivers/STM32L4xx_HAL_Driver/Src/stm32l4xx_ll_sdmmc.c ****   SDMMC_CmdInitTypeDef  sdmmc_cmdinit;
 648:Drivers/STM32L4xx_HAL_Driver/Src/stm32l4xx_ll_sdmmc.c ****   uint32_t errorstate;
 649:Drivers/STM32L4xx_HAL_Driver/Src/stm32l4xx_ll_sdmmc.c **** 
 650:Drivers/STM32L4xx_HAL_Driver/Src/stm32l4xx_ll_sdmmc.c ****   /* Set Block Size for Card */
 651:Drivers/STM32L4xx_HAL_Driver/Src/stm32l4xx_ll_sdmmc.c ****   sdmmc_cmdinit.Argument         = (uint32_t)WriteAdd;
ARM GAS  /tmp/ccZ1T6Sv.s 			page 29


 969              		.loc 1 651 34
 970 000a 3B68     		ldr	r3, [r7]
 971 000c BB60     		str	r3, [r7, #8]
 652:Drivers/STM32L4xx_HAL_Driver/Src/stm32l4xx_ll_sdmmc.c ****   sdmmc_cmdinit.CmdIndex         = SDMMC_CMD_WRITE_MULT_BLOCK;
 972              		.loc 1 652 34
 973 000e 1923     		movs	r3, #25
 974 0010 FB60     		str	r3, [r7, #12]
 653:Drivers/STM32L4xx_HAL_Driver/Src/stm32l4xx_ll_sdmmc.c ****   sdmmc_cmdinit.Response         = SDMMC_RESPONSE_SHORT;
 975              		.loc 1 653 34
 976 0012 4023     		movs	r3, #64
 977 0014 3B61     		str	r3, [r7, #16]
 654:Drivers/STM32L4xx_HAL_Driver/Src/stm32l4xx_ll_sdmmc.c ****   sdmmc_cmdinit.WaitForInterrupt = SDMMC_WAIT_NO;
 978              		.loc 1 654 34
 979 0016 0023     		movs	r3, #0
 980 0018 7B61     		str	r3, [r7, #20]
 655:Drivers/STM32L4xx_HAL_Driver/Src/stm32l4xx_ll_sdmmc.c ****   sdmmc_cmdinit.CPSM             = SDMMC_CPSM_ENABLE;
 981              		.loc 1 655 34
 982 001a 4FF48063 		mov	r3, #1024
 983 001e BB61     		str	r3, [r7, #24]
 656:Drivers/STM32L4xx_HAL_Driver/Src/stm32l4xx_ll_sdmmc.c ****   (void)SDMMC_SendCommand(SDMMCx, &sdmmc_cmdinit);
 984              		.loc 1 656 9
 985 0020 07F10803 		add	r3, r7, #8
 986 0024 1946     		mov	r1, r3
 987 0026 7868     		ldr	r0, [r7, #4]
 988 0028 FFF7FEFF 		bl	SDMMC_SendCommand
 657:Drivers/STM32L4xx_HAL_Driver/Src/stm32l4xx_ll_sdmmc.c **** 
 658:Drivers/STM32L4xx_HAL_Driver/Src/stm32l4xx_ll_sdmmc.c ****   /* Check for error conditions */
 659:Drivers/STM32L4xx_HAL_Driver/Src/stm32l4xx_ll_sdmmc.c ****   errorstate = SDMMC_GetCmdResp1(SDMMCx, SDMMC_CMD_WRITE_MULT_BLOCK, SDMMC_CMDTIMEOUT);
 989              		.loc 1 659 16
 990 002c 41F28832 		movw	r2, #5000
 991 0030 1921     		movs	r1, #25
 992 0032 7868     		ldr	r0, [r7, #4]
 993 0034 FFF7FEFF 		bl	SDMMC_GetCmdResp1
 994 0038 F861     		str	r0, [r7, #28]
 660:Drivers/STM32L4xx_HAL_Driver/Src/stm32l4xx_ll_sdmmc.c **** 
 661:Drivers/STM32L4xx_HAL_Driver/Src/stm32l4xx_ll_sdmmc.c ****   return errorstate;
 995              		.loc 1 661 10
 996 003a FB69     		ldr	r3, [r7, #28]
 662:Drivers/STM32L4xx_HAL_Driver/Src/stm32l4xx_ll_sdmmc.c **** }
 997              		.loc 1 662 1
 998 003c 1846     		mov	r0, r3
 999 003e 2037     		adds	r7, r7, #32
 1000              		.cfi_def_cfa_offset 8
 1001 0040 BD46     		mov	sp, r7
 1002              		.cfi_def_cfa_register 13
 1003              		@ sp needed
 1004 0042 80BD     		pop	{r7, pc}
 1005              		.cfi_endproc
 1006              	.LFE462:
 1008              		.section	.text.SDMMC_CmdSDEraseStartAdd,"ax",%progbits
 1009              		.align	1
 1010              		.global	SDMMC_CmdSDEraseStartAdd
 1011              		.syntax unified
 1012              		.thumb
 1013              		.thumb_func
 1015              	SDMMC_CmdSDEraseStartAdd:
 1016              	.LFB463:
ARM GAS  /tmp/ccZ1T6Sv.s 			page 30


 663:Drivers/STM32L4xx_HAL_Driver/Src/stm32l4xx_ll_sdmmc.c **** 
 664:Drivers/STM32L4xx_HAL_Driver/Src/stm32l4xx_ll_sdmmc.c **** /**
 665:Drivers/STM32L4xx_HAL_Driver/Src/stm32l4xx_ll_sdmmc.c ****   * @brief  Send the Start Address Erase command for SD and check the response
 666:Drivers/STM32L4xx_HAL_Driver/Src/stm32l4xx_ll_sdmmc.c ****   * @param  SDMMCx: Pointer to SDMMC register base
 667:Drivers/STM32L4xx_HAL_Driver/Src/stm32l4xx_ll_sdmmc.c ****   * @retval HAL status
 668:Drivers/STM32L4xx_HAL_Driver/Src/stm32l4xx_ll_sdmmc.c ****   */
 669:Drivers/STM32L4xx_HAL_Driver/Src/stm32l4xx_ll_sdmmc.c **** uint32_t SDMMC_CmdSDEraseStartAdd(SDMMC_TypeDef *SDMMCx, uint32_t StartAdd)
 670:Drivers/STM32L4xx_HAL_Driver/Src/stm32l4xx_ll_sdmmc.c **** {
 1017              		.loc 1 670 1
 1018              		.cfi_startproc
 1019              		@ args = 0, pretend = 0, frame = 32
 1020              		@ frame_needed = 1, uses_anonymous_args = 0
 1021 0000 80B5     		push	{r7, lr}
 1022              		.cfi_def_cfa_offset 8
 1023              		.cfi_offset 7, -8
 1024              		.cfi_offset 14, -4
 1025 0002 88B0     		sub	sp, sp, #32
 1026              		.cfi_def_cfa_offset 40
 1027 0004 00AF     		add	r7, sp, #0
 1028              		.cfi_def_cfa_register 7
 1029 0006 7860     		str	r0, [r7, #4]
 1030 0008 3960     		str	r1, [r7]
 671:Drivers/STM32L4xx_HAL_Driver/Src/stm32l4xx_ll_sdmmc.c ****   SDMMC_CmdInitTypeDef  sdmmc_cmdinit;
 672:Drivers/STM32L4xx_HAL_Driver/Src/stm32l4xx_ll_sdmmc.c ****   uint32_t errorstate;
 673:Drivers/STM32L4xx_HAL_Driver/Src/stm32l4xx_ll_sdmmc.c **** 
 674:Drivers/STM32L4xx_HAL_Driver/Src/stm32l4xx_ll_sdmmc.c ****   /* Set Block Size for Card */
 675:Drivers/STM32L4xx_HAL_Driver/Src/stm32l4xx_ll_sdmmc.c ****   sdmmc_cmdinit.Argument         = (uint32_t)StartAdd;
 1031              		.loc 1 675 34
 1032 000a 3B68     		ldr	r3, [r7]
 1033 000c BB60     		str	r3, [r7, #8]
 676:Drivers/STM32L4xx_HAL_Driver/Src/stm32l4xx_ll_sdmmc.c ****   sdmmc_cmdinit.CmdIndex         = SDMMC_CMD_SD_ERASE_GRP_START;
 1034              		.loc 1 676 34
 1035 000e 2023     		movs	r3, #32
 1036 0010 FB60     		str	r3, [r7, #12]
 677:Drivers/STM32L4xx_HAL_Driver/Src/stm32l4xx_ll_sdmmc.c ****   sdmmc_cmdinit.Response         = SDMMC_RESPONSE_SHORT;
 1037              		.loc 1 677 34
 1038 0012 4023     		movs	r3, #64
 1039 0014 3B61     		str	r3, [r7, #16]
 678:Drivers/STM32L4xx_HAL_Driver/Src/stm32l4xx_ll_sdmmc.c ****   sdmmc_cmdinit.WaitForInterrupt = SDMMC_WAIT_NO;
 1040              		.loc 1 678 34
 1041 0016 0023     		movs	r3, #0
 1042 0018 7B61     		str	r3, [r7, #20]
 679:Drivers/STM32L4xx_HAL_Driver/Src/stm32l4xx_ll_sdmmc.c ****   sdmmc_cmdinit.CPSM             = SDMMC_CPSM_ENABLE;
 1043              		.loc 1 679 34
 1044 001a 4FF48063 		mov	r3, #1024
 1045 001e BB61     		str	r3, [r7, #24]
 680:Drivers/STM32L4xx_HAL_Driver/Src/stm32l4xx_ll_sdmmc.c ****   (void)SDMMC_SendCommand(SDMMCx, &sdmmc_cmdinit);
 1046              		.loc 1 680 9
 1047 0020 07F10803 		add	r3, r7, #8
 1048 0024 1946     		mov	r1, r3
 1049 0026 7868     		ldr	r0, [r7, #4]
 1050 0028 FFF7FEFF 		bl	SDMMC_SendCommand
 681:Drivers/STM32L4xx_HAL_Driver/Src/stm32l4xx_ll_sdmmc.c **** 
 682:Drivers/STM32L4xx_HAL_Driver/Src/stm32l4xx_ll_sdmmc.c ****   /* Check for error conditions */
 683:Drivers/STM32L4xx_HAL_Driver/Src/stm32l4xx_ll_sdmmc.c ****   errorstate = SDMMC_GetCmdResp1(SDMMCx, SDMMC_CMD_SD_ERASE_GRP_START, SDMMC_CMDTIMEOUT);
 1051              		.loc 1 683 16
 1052 002c 41F28832 		movw	r2, #5000
ARM GAS  /tmp/ccZ1T6Sv.s 			page 31


 1053 0030 2021     		movs	r1, #32
 1054 0032 7868     		ldr	r0, [r7, #4]
 1055 0034 FFF7FEFF 		bl	SDMMC_GetCmdResp1
 1056 0038 F861     		str	r0, [r7, #28]
 684:Drivers/STM32L4xx_HAL_Driver/Src/stm32l4xx_ll_sdmmc.c **** 
 685:Drivers/STM32L4xx_HAL_Driver/Src/stm32l4xx_ll_sdmmc.c ****   return errorstate;
 1057              		.loc 1 685 10
 1058 003a FB69     		ldr	r3, [r7, #28]
 686:Drivers/STM32L4xx_HAL_Driver/Src/stm32l4xx_ll_sdmmc.c **** }
 1059              		.loc 1 686 1
 1060 003c 1846     		mov	r0, r3
 1061 003e 2037     		adds	r7, r7, #32
 1062              		.cfi_def_cfa_offset 8
 1063 0040 BD46     		mov	sp, r7
 1064              		.cfi_def_cfa_register 13
 1065              		@ sp needed
 1066 0042 80BD     		pop	{r7, pc}
 1067              		.cfi_endproc
 1068              	.LFE463:
 1070              		.section	.text.SDMMC_CmdSDEraseEndAdd,"ax",%progbits
 1071              		.align	1
 1072              		.global	SDMMC_CmdSDEraseEndAdd
 1073              		.syntax unified
 1074              		.thumb
 1075              		.thumb_func
 1077              	SDMMC_CmdSDEraseEndAdd:
 1078              	.LFB464:
 687:Drivers/STM32L4xx_HAL_Driver/Src/stm32l4xx_ll_sdmmc.c **** 
 688:Drivers/STM32L4xx_HAL_Driver/Src/stm32l4xx_ll_sdmmc.c **** /**
 689:Drivers/STM32L4xx_HAL_Driver/Src/stm32l4xx_ll_sdmmc.c ****   * @brief  Send the End Address Erase command for SD and check the response
 690:Drivers/STM32L4xx_HAL_Driver/Src/stm32l4xx_ll_sdmmc.c ****   * @param  SDMMCx: Pointer to SDMMC register base
 691:Drivers/STM32L4xx_HAL_Driver/Src/stm32l4xx_ll_sdmmc.c ****   * @retval HAL status
 692:Drivers/STM32L4xx_HAL_Driver/Src/stm32l4xx_ll_sdmmc.c ****   */
 693:Drivers/STM32L4xx_HAL_Driver/Src/stm32l4xx_ll_sdmmc.c **** uint32_t SDMMC_CmdSDEraseEndAdd(SDMMC_TypeDef *SDMMCx, uint32_t EndAdd)
 694:Drivers/STM32L4xx_HAL_Driver/Src/stm32l4xx_ll_sdmmc.c **** {
 1079              		.loc 1 694 1
 1080              		.cfi_startproc
 1081              		@ args = 0, pretend = 0, frame = 32
 1082              		@ frame_needed = 1, uses_anonymous_args = 0
 1083 0000 80B5     		push	{r7, lr}
 1084              		.cfi_def_cfa_offset 8
 1085              		.cfi_offset 7, -8
 1086              		.cfi_offset 14, -4
 1087 0002 88B0     		sub	sp, sp, #32
 1088              		.cfi_def_cfa_offset 40
 1089 0004 00AF     		add	r7, sp, #0
 1090              		.cfi_def_cfa_register 7
 1091 0006 7860     		str	r0, [r7, #4]
 1092 0008 3960     		str	r1, [r7]
 695:Drivers/STM32L4xx_HAL_Driver/Src/stm32l4xx_ll_sdmmc.c ****   SDMMC_CmdInitTypeDef  sdmmc_cmdinit;
 696:Drivers/STM32L4xx_HAL_Driver/Src/stm32l4xx_ll_sdmmc.c ****   uint32_t errorstate;
 697:Drivers/STM32L4xx_HAL_Driver/Src/stm32l4xx_ll_sdmmc.c **** 
 698:Drivers/STM32L4xx_HAL_Driver/Src/stm32l4xx_ll_sdmmc.c ****   /* Set Block Size for Card */
 699:Drivers/STM32L4xx_HAL_Driver/Src/stm32l4xx_ll_sdmmc.c ****   sdmmc_cmdinit.Argument         = (uint32_t)EndAdd;
 1093              		.loc 1 699 34
 1094 000a 3B68     		ldr	r3, [r7]
 1095 000c BB60     		str	r3, [r7, #8]
ARM GAS  /tmp/ccZ1T6Sv.s 			page 32


 700:Drivers/STM32L4xx_HAL_Driver/Src/stm32l4xx_ll_sdmmc.c ****   sdmmc_cmdinit.CmdIndex         = SDMMC_CMD_SD_ERASE_GRP_END;
 1096              		.loc 1 700 34
 1097 000e 2123     		movs	r3, #33
 1098 0010 FB60     		str	r3, [r7, #12]
 701:Drivers/STM32L4xx_HAL_Driver/Src/stm32l4xx_ll_sdmmc.c ****   sdmmc_cmdinit.Response         = SDMMC_RESPONSE_SHORT;
 1099              		.loc 1 701 34
 1100 0012 4023     		movs	r3, #64
 1101 0014 3B61     		str	r3, [r7, #16]
 702:Drivers/STM32L4xx_HAL_Driver/Src/stm32l4xx_ll_sdmmc.c ****   sdmmc_cmdinit.WaitForInterrupt = SDMMC_WAIT_NO;
 1102              		.loc 1 702 34
 1103 0016 0023     		movs	r3, #0
 1104 0018 7B61     		str	r3, [r7, #20]
 703:Drivers/STM32L4xx_HAL_Driver/Src/stm32l4xx_ll_sdmmc.c ****   sdmmc_cmdinit.CPSM             = SDMMC_CPSM_ENABLE;
 1105              		.loc 1 703 34
 1106 001a 4FF48063 		mov	r3, #1024
 1107 001e BB61     		str	r3, [r7, #24]
 704:Drivers/STM32L4xx_HAL_Driver/Src/stm32l4xx_ll_sdmmc.c ****   (void)SDMMC_SendCommand(SDMMCx, &sdmmc_cmdinit);
 1108              		.loc 1 704 9
 1109 0020 07F10803 		add	r3, r7, #8
 1110 0024 1946     		mov	r1, r3
 1111 0026 7868     		ldr	r0, [r7, #4]
 1112 0028 FFF7FEFF 		bl	SDMMC_SendCommand
 705:Drivers/STM32L4xx_HAL_Driver/Src/stm32l4xx_ll_sdmmc.c **** 
 706:Drivers/STM32L4xx_HAL_Driver/Src/stm32l4xx_ll_sdmmc.c ****   /* Check for error conditions */
 707:Drivers/STM32L4xx_HAL_Driver/Src/stm32l4xx_ll_sdmmc.c ****   errorstate = SDMMC_GetCmdResp1(SDMMCx, SDMMC_CMD_SD_ERASE_GRP_END, SDMMC_CMDTIMEOUT);
 1113              		.loc 1 707 16
 1114 002c 41F28832 		movw	r2, #5000
 1115 0030 2121     		movs	r1, #33
 1116 0032 7868     		ldr	r0, [r7, #4]
 1117 0034 FFF7FEFF 		bl	SDMMC_GetCmdResp1
 1118 0038 F861     		str	r0, [r7, #28]
 708:Drivers/STM32L4xx_HAL_Driver/Src/stm32l4xx_ll_sdmmc.c **** 
 709:Drivers/STM32L4xx_HAL_Driver/Src/stm32l4xx_ll_sdmmc.c ****   return errorstate;
 1119              		.loc 1 709 10
 1120 003a FB69     		ldr	r3, [r7, #28]
 710:Drivers/STM32L4xx_HAL_Driver/Src/stm32l4xx_ll_sdmmc.c **** }
 1121              		.loc 1 710 1
 1122 003c 1846     		mov	r0, r3
 1123 003e 2037     		adds	r7, r7, #32
 1124              		.cfi_def_cfa_offset 8
 1125 0040 BD46     		mov	sp, r7
 1126              		.cfi_def_cfa_register 13
 1127              		@ sp needed
 1128 0042 80BD     		pop	{r7, pc}
 1129              		.cfi_endproc
 1130              	.LFE464:
 1132              		.section	.text.SDMMC_CmdEraseStartAdd,"ax",%progbits
 1133              		.align	1
 1134              		.global	SDMMC_CmdEraseStartAdd
 1135              		.syntax unified
 1136              		.thumb
 1137              		.thumb_func
 1139              	SDMMC_CmdEraseStartAdd:
 1140              	.LFB465:
 711:Drivers/STM32L4xx_HAL_Driver/Src/stm32l4xx_ll_sdmmc.c **** 
 712:Drivers/STM32L4xx_HAL_Driver/Src/stm32l4xx_ll_sdmmc.c **** /**
 713:Drivers/STM32L4xx_HAL_Driver/Src/stm32l4xx_ll_sdmmc.c ****   * @brief  Send the Start Address Erase command and check the response
ARM GAS  /tmp/ccZ1T6Sv.s 			page 33


 714:Drivers/STM32L4xx_HAL_Driver/Src/stm32l4xx_ll_sdmmc.c ****   * @param  SDMMCx: Pointer to SDMMC register base
 715:Drivers/STM32L4xx_HAL_Driver/Src/stm32l4xx_ll_sdmmc.c ****   * @retval HAL status
 716:Drivers/STM32L4xx_HAL_Driver/Src/stm32l4xx_ll_sdmmc.c ****   */
 717:Drivers/STM32L4xx_HAL_Driver/Src/stm32l4xx_ll_sdmmc.c **** uint32_t SDMMC_CmdEraseStartAdd(SDMMC_TypeDef *SDMMCx, uint32_t StartAdd)
 718:Drivers/STM32L4xx_HAL_Driver/Src/stm32l4xx_ll_sdmmc.c **** {
 1141              		.loc 1 718 1
 1142              		.cfi_startproc
 1143              		@ args = 0, pretend = 0, frame = 32
 1144              		@ frame_needed = 1, uses_anonymous_args = 0
 1145 0000 80B5     		push	{r7, lr}
 1146              		.cfi_def_cfa_offset 8
 1147              		.cfi_offset 7, -8
 1148              		.cfi_offset 14, -4
 1149 0002 88B0     		sub	sp, sp, #32
 1150              		.cfi_def_cfa_offset 40
 1151 0004 00AF     		add	r7, sp, #0
 1152              		.cfi_def_cfa_register 7
 1153 0006 7860     		str	r0, [r7, #4]
 1154 0008 3960     		str	r1, [r7]
 719:Drivers/STM32L4xx_HAL_Driver/Src/stm32l4xx_ll_sdmmc.c ****   SDMMC_CmdInitTypeDef  sdmmc_cmdinit;
 720:Drivers/STM32L4xx_HAL_Driver/Src/stm32l4xx_ll_sdmmc.c ****   uint32_t errorstate;
 721:Drivers/STM32L4xx_HAL_Driver/Src/stm32l4xx_ll_sdmmc.c **** 
 722:Drivers/STM32L4xx_HAL_Driver/Src/stm32l4xx_ll_sdmmc.c ****   /* Set Block Size for Card */
 723:Drivers/STM32L4xx_HAL_Driver/Src/stm32l4xx_ll_sdmmc.c ****   sdmmc_cmdinit.Argument         = (uint32_t)StartAdd;
 1155              		.loc 1 723 34
 1156 000a 3B68     		ldr	r3, [r7]
 1157 000c BB60     		str	r3, [r7, #8]
 724:Drivers/STM32L4xx_HAL_Driver/Src/stm32l4xx_ll_sdmmc.c ****   sdmmc_cmdinit.CmdIndex         = SDMMC_CMD_ERASE_GRP_START;
 1158              		.loc 1 724 34
 1159 000e 2323     		movs	r3, #35
 1160 0010 FB60     		str	r3, [r7, #12]
 725:Drivers/STM32L4xx_HAL_Driver/Src/stm32l4xx_ll_sdmmc.c ****   sdmmc_cmdinit.Response         = SDMMC_RESPONSE_SHORT;
 1161              		.loc 1 725 34
 1162 0012 4023     		movs	r3, #64
 1163 0014 3B61     		str	r3, [r7, #16]
 726:Drivers/STM32L4xx_HAL_Driver/Src/stm32l4xx_ll_sdmmc.c ****   sdmmc_cmdinit.WaitForInterrupt = SDMMC_WAIT_NO;
 1164              		.loc 1 726 34
 1165 0016 0023     		movs	r3, #0
 1166 0018 7B61     		str	r3, [r7, #20]
 727:Drivers/STM32L4xx_HAL_Driver/Src/stm32l4xx_ll_sdmmc.c ****   sdmmc_cmdinit.CPSM             = SDMMC_CPSM_ENABLE;
 1167              		.loc 1 727 34
 1168 001a 4FF48063 		mov	r3, #1024
 1169 001e BB61     		str	r3, [r7, #24]
 728:Drivers/STM32L4xx_HAL_Driver/Src/stm32l4xx_ll_sdmmc.c ****   (void)SDMMC_SendCommand(SDMMCx, &sdmmc_cmdinit);
 1170              		.loc 1 728 9
 1171 0020 07F10803 		add	r3, r7, #8
 1172 0024 1946     		mov	r1, r3
 1173 0026 7868     		ldr	r0, [r7, #4]
 1174 0028 FFF7FEFF 		bl	SDMMC_SendCommand
 729:Drivers/STM32L4xx_HAL_Driver/Src/stm32l4xx_ll_sdmmc.c **** 
 730:Drivers/STM32L4xx_HAL_Driver/Src/stm32l4xx_ll_sdmmc.c ****   /* Check for error conditions */
 731:Drivers/STM32L4xx_HAL_Driver/Src/stm32l4xx_ll_sdmmc.c ****   errorstate = SDMMC_GetCmdResp1(SDMMCx, SDMMC_CMD_ERASE_GRP_START, SDMMC_CMDTIMEOUT);
 1175              		.loc 1 731 16
 1176 002c 41F28832 		movw	r2, #5000
 1177 0030 2321     		movs	r1, #35
 1178 0032 7868     		ldr	r0, [r7, #4]
 1179 0034 FFF7FEFF 		bl	SDMMC_GetCmdResp1
ARM GAS  /tmp/ccZ1T6Sv.s 			page 34


 1180 0038 F861     		str	r0, [r7, #28]
 732:Drivers/STM32L4xx_HAL_Driver/Src/stm32l4xx_ll_sdmmc.c **** 
 733:Drivers/STM32L4xx_HAL_Driver/Src/stm32l4xx_ll_sdmmc.c ****   return errorstate;
 1181              		.loc 1 733 10
 1182 003a FB69     		ldr	r3, [r7, #28]
 734:Drivers/STM32L4xx_HAL_Driver/Src/stm32l4xx_ll_sdmmc.c **** }
 1183              		.loc 1 734 1
 1184 003c 1846     		mov	r0, r3
 1185 003e 2037     		adds	r7, r7, #32
 1186              		.cfi_def_cfa_offset 8
 1187 0040 BD46     		mov	sp, r7
 1188              		.cfi_def_cfa_register 13
 1189              		@ sp needed
 1190 0042 80BD     		pop	{r7, pc}
 1191              		.cfi_endproc
 1192              	.LFE465:
 1194              		.section	.text.SDMMC_CmdEraseEndAdd,"ax",%progbits
 1195              		.align	1
 1196              		.global	SDMMC_CmdEraseEndAdd
 1197              		.syntax unified
 1198              		.thumb
 1199              		.thumb_func
 1201              	SDMMC_CmdEraseEndAdd:
 1202              	.LFB466:
 735:Drivers/STM32L4xx_HAL_Driver/Src/stm32l4xx_ll_sdmmc.c **** 
 736:Drivers/STM32L4xx_HAL_Driver/Src/stm32l4xx_ll_sdmmc.c **** /**
 737:Drivers/STM32L4xx_HAL_Driver/Src/stm32l4xx_ll_sdmmc.c ****   * @brief  Send the End Address Erase command and check the response
 738:Drivers/STM32L4xx_HAL_Driver/Src/stm32l4xx_ll_sdmmc.c ****   * @param  SDMMCx: Pointer to SDMMC register base
 739:Drivers/STM32L4xx_HAL_Driver/Src/stm32l4xx_ll_sdmmc.c ****   * @retval HAL status
 740:Drivers/STM32L4xx_HAL_Driver/Src/stm32l4xx_ll_sdmmc.c ****   */
 741:Drivers/STM32L4xx_HAL_Driver/Src/stm32l4xx_ll_sdmmc.c **** uint32_t SDMMC_CmdEraseEndAdd(SDMMC_TypeDef *SDMMCx, uint32_t EndAdd)
 742:Drivers/STM32L4xx_HAL_Driver/Src/stm32l4xx_ll_sdmmc.c **** {
 1203              		.loc 1 742 1
 1204              		.cfi_startproc
 1205              		@ args = 0, pretend = 0, frame = 32
 1206              		@ frame_needed = 1, uses_anonymous_args = 0
 1207 0000 80B5     		push	{r7, lr}
 1208              		.cfi_def_cfa_offset 8
 1209              		.cfi_offset 7, -8
 1210              		.cfi_offset 14, -4
 1211 0002 88B0     		sub	sp, sp, #32
 1212              		.cfi_def_cfa_offset 40
 1213 0004 00AF     		add	r7, sp, #0
 1214              		.cfi_def_cfa_register 7
 1215 0006 7860     		str	r0, [r7, #4]
 1216 0008 3960     		str	r1, [r7]
 743:Drivers/STM32L4xx_HAL_Driver/Src/stm32l4xx_ll_sdmmc.c ****   SDMMC_CmdInitTypeDef  sdmmc_cmdinit;
 744:Drivers/STM32L4xx_HAL_Driver/Src/stm32l4xx_ll_sdmmc.c ****   uint32_t errorstate;
 745:Drivers/STM32L4xx_HAL_Driver/Src/stm32l4xx_ll_sdmmc.c **** 
 746:Drivers/STM32L4xx_HAL_Driver/Src/stm32l4xx_ll_sdmmc.c ****   /* Set Block Size for Card */
 747:Drivers/STM32L4xx_HAL_Driver/Src/stm32l4xx_ll_sdmmc.c ****   sdmmc_cmdinit.Argument         = (uint32_t)EndAdd;
 1217              		.loc 1 747 34
 1218 000a 3B68     		ldr	r3, [r7]
 1219 000c BB60     		str	r3, [r7, #8]
 748:Drivers/STM32L4xx_HAL_Driver/Src/stm32l4xx_ll_sdmmc.c ****   sdmmc_cmdinit.CmdIndex         = SDMMC_CMD_ERASE_GRP_END;
 1220              		.loc 1 748 34
 1221 000e 2423     		movs	r3, #36
ARM GAS  /tmp/ccZ1T6Sv.s 			page 35


 1222 0010 FB60     		str	r3, [r7, #12]
 749:Drivers/STM32L4xx_HAL_Driver/Src/stm32l4xx_ll_sdmmc.c ****   sdmmc_cmdinit.Response         = SDMMC_RESPONSE_SHORT;
 1223              		.loc 1 749 34
 1224 0012 4023     		movs	r3, #64
 1225 0014 3B61     		str	r3, [r7, #16]
 750:Drivers/STM32L4xx_HAL_Driver/Src/stm32l4xx_ll_sdmmc.c ****   sdmmc_cmdinit.WaitForInterrupt = SDMMC_WAIT_NO;
 1226              		.loc 1 750 34
 1227 0016 0023     		movs	r3, #0
 1228 0018 7B61     		str	r3, [r7, #20]
 751:Drivers/STM32L4xx_HAL_Driver/Src/stm32l4xx_ll_sdmmc.c ****   sdmmc_cmdinit.CPSM             = SDMMC_CPSM_ENABLE;
 1229              		.loc 1 751 34
 1230 001a 4FF48063 		mov	r3, #1024
 1231 001e BB61     		str	r3, [r7, #24]
 752:Drivers/STM32L4xx_HAL_Driver/Src/stm32l4xx_ll_sdmmc.c ****   (void)SDMMC_SendCommand(SDMMCx, &sdmmc_cmdinit);
 1232              		.loc 1 752 9
 1233 0020 07F10803 		add	r3, r7, #8
 1234 0024 1946     		mov	r1, r3
 1235 0026 7868     		ldr	r0, [r7, #4]
 1236 0028 FFF7FEFF 		bl	SDMMC_SendCommand
 753:Drivers/STM32L4xx_HAL_Driver/Src/stm32l4xx_ll_sdmmc.c **** 
 754:Drivers/STM32L4xx_HAL_Driver/Src/stm32l4xx_ll_sdmmc.c ****   /* Check for error conditions */
 755:Drivers/STM32L4xx_HAL_Driver/Src/stm32l4xx_ll_sdmmc.c ****   errorstate = SDMMC_GetCmdResp1(SDMMCx, SDMMC_CMD_ERASE_GRP_END, SDMMC_CMDTIMEOUT);
 1237              		.loc 1 755 16
 1238 002c 41F28832 		movw	r2, #5000
 1239 0030 2421     		movs	r1, #36
 1240 0032 7868     		ldr	r0, [r7, #4]
 1241 0034 FFF7FEFF 		bl	SDMMC_GetCmdResp1
 1242 0038 F861     		str	r0, [r7, #28]
 756:Drivers/STM32L4xx_HAL_Driver/Src/stm32l4xx_ll_sdmmc.c **** 
 757:Drivers/STM32L4xx_HAL_Driver/Src/stm32l4xx_ll_sdmmc.c ****   return errorstate;
 1243              		.loc 1 757 10
 1244 003a FB69     		ldr	r3, [r7, #28]
 758:Drivers/STM32L4xx_HAL_Driver/Src/stm32l4xx_ll_sdmmc.c **** }
 1245              		.loc 1 758 1
 1246 003c 1846     		mov	r0, r3
 1247 003e 2037     		adds	r7, r7, #32
 1248              		.cfi_def_cfa_offset 8
 1249 0040 BD46     		mov	sp, r7
 1250              		.cfi_def_cfa_register 13
 1251              		@ sp needed
 1252 0042 80BD     		pop	{r7, pc}
 1253              		.cfi_endproc
 1254              	.LFE466:
 1256              		.section	.text.SDMMC_CmdErase,"ax",%progbits
 1257              		.align	1
 1258              		.global	SDMMC_CmdErase
 1259              		.syntax unified
 1260              		.thumb
 1261              		.thumb_func
 1263              	SDMMC_CmdErase:
 1264              	.LFB467:
 759:Drivers/STM32L4xx_HAL_Driver/Src/stm32l4xx_ll_sdmmc.c **** 
 760:Drivers/STM32L4xx_HAL_Driver/Src/stm32l4xx_ll_sdmmc.c **** /**
 761:Drivers/STM32L4xx_HAL_Driver/Src/stm32l4xx_ll_sdmmc.c ****   * @brief  Send the Erase command and check the response
 762:Drivers/STM32L4xx_HAL_Driver/Src/stm32l4xx_ll_sdmmc.c ****   * @param  SDMMCx: Pointer to SDMMC register base
 763:Drivers/STM32L4xx_HAL_Driver/Src/stm32l4xx_ll_sdmmc.c ****   * @retval HAL status
 764:Drivers/STM32L4xx_HAL_Driver/Src/stm32l4xx_ll_sdmmc.c ****   */
ARM GAS  /tmp/ccZ1T6Sv.s 			page 36


 765:Drivers/STM32L4xx_HAL_Driver/Src/stm32l4xx_ll_sdmmc.c **** uint32_t SDMMC_CmdErase(SDMMC_TypeDef *SDMMCx, uint32_t EraseType)
 766:Drivers/STM32L4xx_HAL_Driver/Src/stm32l4xx_ll_sdmmc.c **** {
 1265              		.loc 1 766 1
 1266              		.cfi_startproc
 1267              		@ args = 0, pretend = 0, frame = 32
 1268              		@ frame_needed = 1, uses_anonymous_args = 0
 1269 0000 80B5     		push	{r7, lr}
 1270              		.cfi_def_cfa_offset 8
 1271              		.cfi_offset 7, -8
 1272              		.cfi_offset 14, -4
 1273 0002 88B0     		sub	sp, sp, #32
 1274              		.cfi_def_cfa_offset 40
 1275 0004 00AF     		add	r7, sp, #0
 1276              		.cfi_def_cfa_register 7
 1277 0006 7860     		str	r0, [r7, #4]
 1278 0008 3960     		str	r1, [r7]
 767:Drivers/STM32L4xx_HAL_Driver/Src/stm32l4xx_ll_sdmmc.c ****   SDMMC_CmdInitTypeDef  sdmmc_cmdinit;
 768:Drivers/STM32L4xx_HAL_Driver/Src/stm32l4xx_ll_sdmmc.c ****   uint32_t errorstate;
 769:Drivers/STM32L4xx_HAL_Driver/Src/stm32l4xx_ll_sdmmc.c **** 
 770:Drivers/STM32L4xx_HAL_Driver/Src/stm32l4xx_ll_sdmmc.c ****   /* Set Block Size for Card */
 771:Drivers/STM32L4xx_HAL_Driver/Src/stm32l4xx_ll_sdmmc.c ****   sdmmc_cmdinit.Argument         = EraseType;
 1279              		.loc 1 771 34
 1280 000a 3B68     		ldr	r3, [r7]
 1281 000c BB60     		str	r3, [r7, #8]
 772:Drivers/STM32L4xx_HAL_Driver/Src/stm32l4xx_ll_sdmmc.c ****   sdmmc_cmdinit.CmdIndex         = SDMMC_CMD_ERASE;
 1282              		.loc 1 772 34
 1283 000e 2623     		movs	r3, #38
 1284 0010 FB60     		str	r3, [r7, #12]
 773:Drivers/STM32L4xx_HAL_Driver/Src/stm32l4xx_ll_sdmmc.c ****   sdmmc_cmdinit.Response         = SDMMC_RESPONSE_SHORT;
 1285              		.loc 1 773 34
 1286 0012 4023     		movs	r3, #64
 1287 0014 3B61     		str	r3, [r7, #16]
 774:Drivers/STM32L4xx_HAL_Driver/Src/stm32l4xx_ll_sdmmc.c ****   sdmmc_cmdinit.WaitForInterrupt = SDMMC_WAIT_NO;
 1288              		.loc 1 774 34
 1289 0016 0023     		movs	r3, #0
 1290 0018 7B61     		str	r3, [r7, #20]
 775:Drivers/STM32L4xx_HAL_Driver/Src/stm32l4xx_ll_sdmmc.c ****   sdmmc_cmdinit.CPSM             = SDMMC_CPSM_ENABLE;
 1291              		.loc 1 775 34
 1292 001a 4FF48063 		mov	r3, #1024
 1293 001e BB61     		str	r3, [r7, #24]
 776:Drivers/STM32L4xx_HAL_Driver/Src/stm32l4xx_ll_sdmmc.c ****   (void)SDMMC_SendCommand(SDMMCx, &sdmmc_cmdinit);
 1294              		.loc 1 776 9
 1295 0020 07F10803 		add	r3, r7, #8
 1296 0024 1946     		mov	r1, r3
 1297 0026 7868     		ldr	r0, [r7, #4]
 1298 0028 FFF7FEFF 		bl	SDMMC_SendCommand
 777:Drivers/STM32L4xx_HAL_Driver/Src/stm32l4xx_ll_sdmmc.c **** 
 778:Drivers/STM32L4xx_HAL_Driver/Src/stm32l4xx_ll_sdmmc.c ****   /* Check for error conditions */
 779:Drivers/STM32L4xx_HAL_Driver/Src/stm32l4xx_ll_sdmmc.c ****   errorstate = SDMMC_GetCmdResp1(SDMMCx, SDMMC_CMD_ERASE, SDMMC_MAXERASETIMEOUT);
 1299              		.loc 1 779 16
 1300 002c 4FF21862 		movw	r2, #63000
 1301 0030 2621     		movs	r1, #38
 1302 0032 7868     		ldr	r0, [r7, #4]
 1303 0034 FFF7FEFF 		bl	SDMMC_GetCmdResp1
 1304 0038 F861     		str	r0, [r7, #28]
 780:Drivers/STM32L4xx_HAL_Driver/Src/stm32l4xx_ll_sdmmc.c **** 
 781:Drivers/STM32L4xx_HAL_Driver/Src/stm32l4xx_ll_sdmmc.c ****   return errorstate;
ARM GAS  /tmp/ccZ1T6Sv.s 			page 37


 1305              		.loc 1 781 10
 1306 003a FB69     		ldr	r3, [r7, #28]
 782:Drivers/STM32L4xx_HAL_Driver/Src/stm32l4xx_ll_sdmmc.c **** }
 1307              		.loc 1 782 1
 1308 003c 1846     		mov	r0, r3
 1309 003e 2037     		adds	r7, r7, #32
 1310              		.cfi_def_cfa_offset 8
 1311 0040 BD46     		mov	sp, r7
 1312              		.cfi_def_cfa_register 13
 1313              		@ sp needed
 1314 0042 80BD     		pop	{r7, pc}
 1315              		.cfi_endproc
 1316              	.LFE467:
 1318              		.section	.text.SDMMC_CmdStopTransfer,"ax",%progbits
 1319              		.align	1
 1320              		.global	SDMMC_CmdStopTransfer
 1321              		.syntax unified
 1322              		.thumb
 1323              		.thumb_func
 1325              	SDMMC_CmdStopTransfer:
 1326              	.LFB468:
 783:Drivers/STM32L4xx_HAL_Driver/Src/stm32l4xx_ll_sdmmc.c **** 
 784:Drivers/STM32L4xx_HAL_Driver/Src/stm32l4xx_ll_sdmmc.c **** /**
 785:Drivers/STM32L4xx_HAL_Driver/Src/stm32l4xx_ll_sdmmc.c ****   * @brief  Send the Stop Transfer command and check the response.
 786:Drivers/STM32L4xx_HAL_Driver/Src/stm32l4xx_ll_sdmmc.c ****   * @param  SDMMCx: Pointer to SDMMC register base
 787:Drivers/STM32L4xx_HAL_Driver/Src/stm32l4xx_ll_sdmmc.c ****   * @retval HAL status
 788:Drivers/STM32L4xx_HAL_Driver/Src/stm32l4xx_ll_sdmmc.c ****   */
 789:Drivers/STM32L4xx_HAL_Driver/Src/stm32l4xx_ll_sdmmc.c **** uint32_t SDMMC_CmdStopTransfer(SDMMC_TypeDef *SDMMCx)
 790:Drivers/STM32L4xx_HAL_Driver/Src/stm32l4xx_ll_sdmmc.c **** {
 1327              		.loc 1 790 1
 1328              		.cfi_startproc
 1329              		@ args = 0, pretend = 0, frame = 32
 1330              		@ frame_needed = 1, uses_anonymous_args = 0
 1331 0000 80B5     		push	{r7, lr}
 1332              		.cfi_def_cfa_offset 8
 1333              		.cfi_offset 7, -8
 1334              		.cfi_offset 14, -4
 1335 0002 88B0     		sub	sp, sp, #32
 1336              		.cfi_def_cfa_offset 40
 1337 0004 00AF     		add	r7, sp, #0
 1338              		.cfi_def_cfa_register 7
 1339 0006 7860     		str	r0, [r7, #4]
 791:Drivers/STM32L4xx_HAL_Driver/Src/stm32l4xx_ll_sdmmc.c ****   SDMMC_CmdInitTypeDef  sdmmc_cmdinit;
 792:Drivers/STM32L4xx_HAL_Driver/Src/stm32l4xx_ll_sdmmc.c ****   uint32_t errorstate;
 793:Drivers/STM32L4xx_HAL_Driver/Src/stm32l4xx_ll_sdmmc.c **** 
 794:Drivers/STM32L4xx_HAL_Driver/Src/stm32l4xx_ll_sdmmc.c ****   /* Send CMD12 STOP_TRANSMISSION  */
 795:Drivers/STM32L4xx_HAL_Driver/Src/stm32l4xx_ll_sdmmc.c ****   sdmmc_cmdinit.Argument         = 0U;
 1340              		.loc 1 795 34
 1341 0008 0023     		movs	r3, #0
 1342 000a BB60     		str	r3, [r7, #8]
 796:Drivers/STM32L4xx_HAL_Driver/Src/stm32l4xx_ll_sdmmc.c ****   sdmmc_cmdinit.CmdIndex         = SDMMC_CMD_STOP_TRANSMISSION;
 1343              		.loc 1 796 34
 1344 000c 0C23     		movs	r3, #12
 1345 000e FB60     		str	r3, [r7, #12]
 797:Drivers/STM32L4xx_HAL_Driver/Src/stm32l4xx_ll_sdmmc.c ****   sdmmc_cmdinit.Response         = SDMMC_RESPONSE_SHORT;
 1346              		.loc 1 797 34
 1347 0010 4023     		movs	r3, #64
ARM GAS  /tmp/ccZ1T6Sv.s 			page 38


 1348 0012 3B61     		str	r3, [r7, #16]
 798:Drivers/STM32L4xx_HAL_Driver/Src/stm32l4xx_ll_sdmmc.c ****   sdmmc_cmdinit.WaitForInterrupt = SDMMC_WAIT_NO;
 1349              		.loc 1 798 34
 1350 0014 0023     		movs	r3, #0
 1351 0016 7B61     		str	r3, [r7, #20]
 799:Drivers/STM32L4xx_HAL_Driver/Src/stm32l4xx_ll_sdmmc.c ****   sdmmc_cmdinit.CPSM             = SDMMC_CPSM_ENABLE;
 1352              		.loc 1 799 34
 1353 0018 4FF48063 		mov	r3, #1024
 1354 001c BB61     		str	r3, [r7, #24]
 800:Drivers/STM32L4xx_HAL_Driver/Src/stm32l4xx_ll_sdmmc.c **** #if defined(STM32L4P5xx) || defined(STM32L4Q5xx) || defined(STM32L4R5xx) || defined(STM32L4R7xx) ||
 801:Drivers/STM32L4xx_HAL_Driver/Src/stm32l4xx_ll_sdmmc.c ****   __SDMMC_CMDSTOP_ENABLE(SDMMCx);
 802:Drivers/STM32L4xx_HAL_Driver/Src/stm32l4xx_ll_sdmmc.c ****   __SDMMC_CMDTRANS_DISABLE(SDMMCx);
 803:Drivers/STM32L4xx_HAL_Driver/Src/stm32l4xx_ll_sdmmc.c **** #endif /* STM32L4P5xx || STM32L4Q5xx || STM32L4R5xx || STM32L4R7xx || STM32L4R9xx || STM32L4S5xx ||
 804:Drivers/STM32L4xx_HAL_Driver/Src/stm32l4xx_ll_sdmmc.c **** 
 805:Drivers/STM32L4xx_HAL_Driver/Src/stm32l4xx_ll_sdmmc.c ****   (void)SDMMC_SendCommand(SDMMCx, &sdmmc_cmdinit);
 1355              		.loc 1 805 9
 1356 001e 07F10803 		add	r3, r7, #8
 1357 0022 1946     		mov	r1, r3
 1358 0024 7868     		ldr	r0, [r7, #4]
 1359 0026 FFF7FEFF 		bl	SDMMC_SendCommand
 806:Drivers/STM32L4xx_HAL_Driver/Src/stm32l4xx_ll_sdmmc.c **** 
 807:Drivers/STM32L4xx_HAL_Driver/Src/stm32l4xx_ll_sdmmc.c ****   /* Check for error conditions */
 808:Drivers/STM32L4xx_HAL_Driver/Src/stm32l4xx_ll_sdmmc.c ****   errorstate = SDMMC_GetCmdResp1(SDMMCx, SDMMC_CMD_STOP_TRANSMISSION, SDMMC_STOPTRANSFERTIMEOUT);
 1360              		.loc 1 808 16
 1361 002a 054A     		ldr	r2, .L49
 1362 002c 0C21     		movs	r1, #12
 1363 002e 7868     		ldr	r0, [r7, #4]
 1364 0030 FFF7FEFF 		bl	SDMMC_GetCmdResp1
 1365 0034 F861     		str	r0, [r7, #28]
 809:Drivers/STM32L4xx_HAL_Driver/Src/stm32l4xx_ll_sdmmc.c **** 
 810:Drivers/STM32L4xx_HAL_Driver/Src/stm32l4xx_ll_sdmmc.c **** #if defined(STM32L4P5xx) || defined(STM32L4Q5xx) || defined(STM32L4R5xx) || defined(STM32L4R7xx) ||
 811:Drivers/STM32L4xx_HAL_Driver/Src/stm32l4xx_ll_sdmmc.c ****   __SDMMC_CMDSTOP_DISABLE(SDMMCx);
 812:Drivers/STM32L4xx_HAL_Driver/Src/stm32l4xx_ll_sdmmc.c **** #endif /* STM32L4P5xx || STM32L4Q5xx || STM32L4R5xx || STM32L4R7xx || STM32L4R9xx || STM32L4S5xx ||
 813:Drivers/STM32L4xx_HAL_Driver/Src/stm32l4xx_ll_sdmmc.c ****   return errorstate;
 1366              		.loc 1 813 10
 1367 0036 FB69     		ldr	r3, [r7, #28]
 814:Drivers/STM32L4xx_HAL_Driver/Src/stm32l4xx_ll_sdmmc.c **** }
 1368              		.loc 1 814 1
 1369 0038 1846     		mov	r0, r3
 1370 003a 2037     		adds	r7, r7, #32
 1371              		.cfi_def_cfa_offset 8
 1372 003c BD46     		mov	sp, r7
 1373              		.cfi_def_cfa_register 13
 1374              		@ sp needed
 1375 003e 80BD     		pop	{r7, pc}
 1376              	.L50:
 1377              		.align	2
 1378              	.L49:
 1379 0040 00E1F505 		.word	100000000
 1380              		.cfi_endproc
 1381              	.LFE468:
 1383              		.section	.text.SDMMC_CmdSelDesel,"ax",%progbits
 1384              		.align	1
 1385              		.global	SDMMC_CmdSelDesel
 1386              		.syntax unified
 1387              		.thumb
 1388              		.thumb_func
ARM GAS  /tmp/ccZ1T6Sv.s 			page 39


 1390              	SDMMC_CmdSelDesel:
 1391              	.LFB469:
 815:Drivers/STM32L4xx_HAL_Driver/Src/stm32l4xx_ll_sdmmc.c **** 
 816:Drivers/STM32L4xx_HAL_Driver/Src/stm32l4xx_ll_sdmmc.c **** /**
 817:Drivers/STM32L4xx_HAL_Driver/Src/stm32l4xx_ll_sdmmc.c ****   * @brief  Send the Select Deselect command and check the response.
 818:Drivers/STM32L4xx_HAL_Driver/Src/stm32l4xx_ll_sdmmc.c ****   * @param  SDMMCx: Pointer to SDMMC register base
 819:Drivers/STM32L4xx_HAL_Driver/Src/stm32l4xx_ll_sdmmc.c ****   * @param  addr: Address of the card to be selected
 820:Drivers/STM32L4xx_HAL_Driver/Src/stm32l4xx_ll_sdmmc.c ****   * @retval HAL status
 821:Drivers/STM32L4xx_HAL_Driver/Src/stm32l4xx_ll_sdmmc.c ****   */
 822:Drivers/STM32L4xx_HAL_Driver/Src/stm32l4xx_ll_sdmmc.c **** uint32_t SDMMC_CmdSelDesel(SDMMC_TypeDef *SDMMCx, uint64_t Addr)
 823:Drivers/STM32L4xx_HAL_Driver/Src/stm32l4xx_ll_sdmmc.c **** {
 1392              		.loc 1 823 1
 1393              		.cfi_startproc
 1394              		@ args = 0, pretend = 0, frame = 40
 1395              		@ frame_needed = 1, uses_anonymous_args = 0
 1396 0000 80B5     		push	{r7, lr}
 1397              		.cfi_def_cfa_offset 8
 1398              		.cfi_offset 7, -8
 1399              		.cfi_offset 14, -4
 1400 0002 8AB0     		sub	sp, sp, #40
 1401              		.cfi_def_cfa_offset 48
 1402 0004 00AF     		add	r7, sp, #0
 1403              		.cfi_def_cfa_register 7
 1404 0006 F860     		str	r0, [r7, #12]
 1405 0008 C7E90023 		strd	r2, [r7]
 824:Drivers/STM32L4xx_HAL_Driver/Src/stm32l4xx_ll_sdmmc.c ****   SDMMC_CmdInitTypeDef  sdmmc_cmdinit;
 825:Drivers/STM32L4xx_HAL_Driver/Src/stm32l4xx_ll_sdmmc.c ****   uint32_t errorstate;
 826:Drivers/STM32L4xx_HAL_Driver/Src/stm32l4xx_ll_sdmmc.c **** 
 827:Drivers/STM32L4xx_HAL_Driver/Src/stm32l4xx_ll_sdmmc.c ****   /* Send CMD7 SDMMC_SEL_DESEL_CARD */
 828:Drivers/STM32L4xx_HAL_Driver/Src/stm32l4xx_ll_sdmmc.c ****   sdmmc_cmdinit.Argument         = (uint32_t)Addr;
 1406              		.loc 1 828 36
 1407 000c 3B68     		ldr	r3, [r7]
 1408              		.loc 1 828 34
 1409 000e 3B61     		str	r3, [r7, #16]
 829:Drivers/STM32L4xx_HAL_Driver/Src/stm32l4xx_ll_sdmmc.c ****   sdmmc_cmdinit.CmdIndex         = SDMMC_CMD_SEL_DESEL_CARD;
 1410              		.loc 1 829 34
 1411 0010 0723     		movs	r3, #7
 1412 0012 7B61     		str	r3, [r7, #20]
 830:Drivers/STM32L4xx_HAL_Driver/Src/stm32l4xx_ll_sdmmc.c ****   sdmmc_cmdinit.Response         = SDMMC_RESPONSE_SHORT;
 1413              		.loc 1 830 34
 1414 0014 4023     		movs	r3, #64
 1415 0016 BB61     		str	r3, [r7, #24]
 831:Drivers/STM32L4xx_HAL_Driver/Src/stm32l4xx_ll_sdmmc.c ****   sdmmc_cmdinit.WaitForInterrupt = SDMMC_WAIT_NO;
 1416              		.loc 1 831 34
 1417 0018 0023     		movs	r3, #0
 1418 001a FB61     		str	r3, [r7, #28]
 832:Drivers/STM32L4xx_HAL_Driver/Src/stm32l4xx_ll_sdmmc.c ****   sdmmc_cmdinit.CPSM             = SDMMC_CPSM_ENABLE;
 1419              		.loc 1 832 34
 1420 001c 4FF48063 		mov	r3, #1024
 1421 0020 3B62     		str	r3, [r7, #32]
 833:Drivers/STM32L4xx_HAL_Driver/Src/stm32l4xx_ll_sdmmc.c ****   (void)SDMMC_SendCommand(SDMMCx, &sdmmc_cmdinit);
 1422              		.loc 1 833 9
 1423 0022 07F11003 		add	r3, r7, #16
 1424 0026 1946     		mov	r1, r3
 1425 0028 F868     		ldr	r0, [r7, #12]
 1426 002a FFF7FEFF 		bl	SDMMC_SendCommand
 834:Drivers/STM32L4xx_HAL_Driver/Src/stm32l4xx_ll_sdmmc.c **** 
ARM GAS  /tmp/ccZ1T6Sv.s 			page 40


 835:Drivers/STM32L4xx_HAL_Driver/Src/stm32l4xx_ll_sdmmc.c ****   /* Check for error conditions */
 836:Drivers/STM32L4xx_HAL_Driver/Src/stm32l4xx_ll_sdmmc.c ****   errorstate = SDMMC_GetCmdResp1(SDMMCx, SDMMC_CMD_SEL_DESEL_CARD, SDMMC_CMDTIMEOUT);
 1427              		.loc 1 836 16
 1428 002e 41F28832 		movw	r2, #5000
 1429 0032 0721     		movs	r1, #7
 1430 0034 F868     		ldr	r0, [r7, #12]
 1431 0036 FFF7FEFF 		bl	SDMMC_GetCmdResp1
 1432 003a 7862     		str	r0, [r7, #36]
 837:Drivers/STM32L4xx_HAL_Driver/Src/stm32l4xx_ll_sdmmc.c **** 
 838:Drivers/STM32L4xx_HAL_Driver/Src/stm32l4xx_ll_sdmmc.c ****   return errorstate;
 1433              		.loc 1 838 10
 1434 003c 7B6A     		ldr	r3, [r7, #36]
 839:Drivers/STM32L4xx_HAL_Driver/Src/stm32l4xx_ll_sdmmc.c **** }
 1435              		.loc 1 839 1
 1436 003e 1846     		mov	r0, r3
 1437 0040 2837     		adds	r7, r7, #40
 1438              		.cfi_def_cfa_offset 8
 1439 0042 BD46     		mov	sp, r7
 1440              		.cfi_def_cfa_register 13
 1441              		@ sp needed
 1442 0044 80BD     		pop	{r7, pc}
 1443              		.cfi_endproc
 1444              	.LFE469:
 1446              		.section	.text.SDMMC_CmdGoIdleState,"ax",%progbits
 1447              		.align	1
 1448              		.global	SDMMC_CmdGoIdleState
 1449              		.syntax unified
 1450              		.thumb
 1451              		.thumb_func
 1453              	SDMMC_CmdGoIdleState:
 1454              	.LFB470:
 840:Drivers/STM32L4xx_HAL_Driver/Src/stm32l4xx_ll_sdmmc.c **** 
 841:Drivers/STM32L4xx_HAL_Driver/Src/stm32l4xx_ll_sdmmc.c **** /**
 842:Drivers/STM32L4xx_HAL_Driver/Src/stm32l4xx_ll_sdmmc.c ****   * @brief  Send the Go Idle State command and check the response.
 843:Drivers/STM32L4xx_HAL_Driver/Src/stm32l4xx_ll_sdmmc.c ****   * @param  SDMMCx: Pointer to SDMMC register base
 844:Drivers/STM32L4xx_HAL_Driver/Src/stm32l4xx_ll_sdmmc.c ****   * @retval HAL status
 845:Drivers/STM32L4xx_HAL_Driver/Src/stm32l4xx_ll_sdmmc.c ****   */
 846:Drivers/STM32L4xx_HAL_Driver/Src/stm32l4xx_ll_sdmmc.c **** uint32_t SDMMC_CmdGoIdleState(SDMMC_TypeDef *SDMMCx)
 847:Drivers/STM32L4xx_HAL_Driver/Src/stm32l4xx_ll_sdmmc.c **** {
 1455              		.loc 1 847 1
 1456              		.cfi_startproc
 1457              		@ args = 0, pretend = 0, frame = 32
 1458              		@ frame_needed = 1, uses_anonymous_args = 0
 1459 0000 80B5     		push	{r7, lr}
 1460              		.cfi_def_cfa_offset 8
 1461              		.cfi_offset 7, -8
 1462              		.cfi_offset 14, -4
 1463 0002 88B0     		sub	sp, sp, #32
 1464              		.cfi_def_cfa_offset 40
 1465 0004 00AF     		add	r7, sp, #0
 1466              		.cfi_def_cfa_register 7
 1467 0006 7860     		str	r0, [r7, #4]
 848:Drivers/STM32L4xx_HAL_Driver/Src/stm32l4xx_ll_sdmmc.c ****   SDMMC_CmdInitTypeDef  sdmmc_cmdinit;
 849:Drivers/STM32L4xx_HAL_Driver/Src/stm32l4xx_ll_sdmmc.c ****   uint32_t errorstate;
 850:Drivers/STM32L4xx_HAL_Driver/Src/stm32l4xx_ll_sdmmc.c **** 
 851:Drivers/STM32L4xx_HAL_Driver/Src/stm32l4xx_ll_sdmmc.c ****   sdmmc_cmdinit.Argument         = 0U;
 1468              		.loc 1 851 34
ARM GAS  /tmp/ccZ1T6Sv.s 			page 41


 1469 0008 0023     		movs	r3, #0
 1470 000a BB60     		str	r3, [r7, #8]
 852:Drivers/STM32L4xx_HAL_Driver/Src/stm32l4xx_ll_sdmmc.c ****   sdmmc_cmdinit.CmdIndex         = SDMMC_CMD_GO_IDLE_STATE;
 1471              		.loc 1 852 34
 1472 000c 0023     		movs	r3, #0
 1473 000e FB60     		str	r3, [r7, #12]
 853:Drivers/STM32L4xx_HAL_Driver/Src/stm32l4xx_ll_sdmmc.c ****   sdmmc_cmdinit.Response         = SDMMC_RESPONSE_NO;
 1474              		.loc 1 853 34
 1475 0010 0023     		movs	r3, #0
 1476 0012 3B61     		str	r3, [r7, #16]
 854:Drivers/STM32L4xx_HAL_Driver/Src/stm32l4xx_ll_sdmmc.c ****   sdmmc_cmdinit.WaitForInterrupt = SDMMC_WAIT_NO;
 1477              		.loc 1 854 34
 1478 0014 0023     		movs	r3, #0
 1479 0016 7B61     		str	r3, [r7, #20]
 855:Drivers/STM32L4xx_HAL_Driver/Src/stm32l4xx_ll_sdmmc.c ****   sdmmc_cmdinit.CPSM             = SDMMC_CPSM_ENABLE;
 1480              		.loc 1 855 34
 1481 0018 4FF48063 		mov	r3, #1024
 1482 001c BB61     		str	r3, [r7, #24]
 856:Drivers/STM32L4xx_HAL_Driver/Src/stm32l4xx_ll_sdmmc.c ****   (void)SDMMC_SendCommand(SDMMCx, &sdmmc_cmdinit);
 1483              		.loc 1 856 9
 1484 001e 07F10803 		add	r3, r7, #8
 1485 0022 1946     		mov	r1, r3
 1486 0024 7868     		ldr	r0, [r7, #4]
 1487 0026 FFF7FEFF 		bl	SDMMC_SendCommand
 857:Drivers/STM32L4xx_HAL_Driver/Src/stm32l4xx_ll_sdmmc.c **** 
 858:Drivers/STM32L4xx_HAL_Driver/Src/stm32l4xx_ll_sdmmc.c ****   /* Check for error conditions */
 859:Drivers/STM32L4xx_HAL_Driver/Src/stm32l4xx_ll_sdmmc.c ****   errorstate = SDMMC_GetCmdError(SDMMCx);
 1488              		.loc 1 859 16
 1489 002a 7868     		ldr	r0, [r7, #4]
 1490 002c FFF7FEFF 		bl	SDMMC_GetCmdError
 1491 0030 F861     		str	r0, [r7, #28]
 860:Drivers/STM32L4xx_HAL_Driver/Src/stm32l4xx_ll_sdmmc.c **** 
 861:Drivers/STM32L4xx_HAL_Driver/Src/stm32l4xx_ll_sdmmc.c ****   return errorstate;
 1492              		.loc 1 861 10
 1493 0032 FB69     		ldr	r3, [r7, #28]
 862:Drivers/STM32L4xx_HAL_Driver/Src/stm32l4xx_ll_sdmmc.c **** }
 1494              		.loc 1 862 1
 1495 0034 1846     		mov	r0, r3
 1496 0036 2037     		adds	r7, r7, #32
 1497              		.cfi_def_cfa_offset 8
 1498 0038 BD46     		mov	sp, r7
 1499              		.cfi_def_cfa_register 13
 1500              		@ sp needed
 1501 003a 80BD     		pop	{r7, pc}
 1502              		.cfi_endproc
 1503              	.LFE470:
 1505              		.section	.text.SDMMC_CmdOperCond,"ax",%progbits
 1506              		.align	1
 1507              		.global	SDMMC_CmdOperCond
 1508              		.syntax unified
 1509              		.thumb
 1510              		.thumb_func
 1512              	SDMMC_CmdOperCond:
 1513              	.LFB471:
 863:Drivers/STM32L4xx_HAL_Driver/Src/stm32l4xx_ll_sdmmc.c **** 
 864:Drivers/STM32L4xx_HAL_Driver/Src/stm32l4xx_ll_sdmmc.c **** /**
 865:Drivers/STM32L4xx_HAL_Driver/Src/stm32l4xx_ll_sdmmc.c ****   * @brief  Send the Operating Condition command and check the response.
ARM GAS  /tmp/ccZ1T6Sv.s 			page 42


 866:Drivers/STM32L4xx_HAL_Driver/Src/stm32l4xx_ll_sdmmc.c ****   * @param  SDMMCx: Pointer to SDMMC register base
 867:Drivers/STM32L4xx_HAL_Driver/Src/stm32l4xx_ll_sdmmc.c ****   * @retval HAL status
 868:Drivers/STM32L4xx_HAL_Driver/Src/stm32l4xx_ll_sdmmc.c ****   */
 869:Drivers/STM32L4xx_HAL_Driver/Src/stm32l4xx_ll_sdmmc.c **** uint32_t SDMMC_CmdOperCond(SDMMC_TypeDef *SDMMCx)
 870:Drivers/STM32L4xx_HAL_Driver/Src/stm32l4xx_ll_sdmmc.c **** {
 1514              		.loc 1 870 1
 1515              		.cfi_startproc
 1516              		@ args = 0, pretend = 0, frame = 32
 1517              		@ frame_needed = 1, uses_anonymous_args = 0
 1518 0000 80B5     		push	{r7, lr}
 1519              		.cfi_def_cfa_offset 8
 1520              		.cfi_offset 7, -8
 1521              		.cfi_offset 14, -4
 1522 0002 88B0     		sub	sp, sp, #32
 1523              		.cfi_def_cfa_offset 40
 1524 0004 00AF     		add	r7, sp, #0
 1525              		.cfi_def_cfa_register 7
 1526 0006 7860     		str	r0, [r7, #4]
 871:Drivers/STM32L4xx_HAL_Driver/Src/stm32l4xx_ll_sdmmc.c ****   SDMMC_CmdInitTypeDef  sdmmc_cmdinit;
 872:Drivers/STM32L4xx_HAL_Driver/Src/stm32l4xx_ll_sdmmc.c ****   uint32_t errorstate;
 873:Drivers/STM32L4xx_HAL_Driver/Src/stm32l4xx_ll_sdmmc.c **** 
 874:Drivers/STM32L4xx_HAL_Driver/Src/stm32l4xx_ll_sdmmc.c ****   /* Send CMD8 to verify SD card interface operating condition */
 875:Drivers/STM32L4xx_HAL_Driver/Src/stm32l4xx_ll_sdmmc.c ****   /* Argument: - [31:12]: Reserved (shall be set to '0')
 876:Drivers/STM32L4xx_HAL_Driver/Src/stm32l4xx_ll_sdmmc.c ****   - [11:8]: Supply Voltage (VHS) 0x1 (Range: 2.7-3.6 V)
 877:Drivers/STM32L4xx_HAL_Driver/Src/stm32l4xx_ll_sdmmc.c ****   - [7:0]: Check Pattern (recommended 0xAA) */
 878:Drivers/STM32L4xx_HAL_Driver/Src/stm32l4xx_ll_sdmmc.c ****   /* CMD Response: R7 */
 879:Drivers/STM32L4xx_HAL_Driver/Src/stm32l4xx_ll_sdmmc.c ****   sdmmc_cmdinit.Argument         = SDMMC_CHECK_PATTERN;
 1527              		.loc 1 879 34
 1528 0008 4FF4D573 		mov	r3, #426
 1529 000c BB60     		str	r3, [r7, #8]
 880:Drivers/STM32L4xx_HAL_Driver/Src/stm32l4xx_ll_sdmmc.c ****   sdmmc_cmdinit.CmdIndex         = SDMMC_CMD_HS_SEND_EXT_CSD;
 1530              		.loc 1 880 34
 1531 000e 0823     		movs	r3, #8
 1532 0010 FB60     		str	r3, [r7, #12]
 881:Drivers/STM32L4xx_HAL_Driver/Src/stm32l4xx_ll_sdmmc.c ****   sdmmc_cmdinit.Response         = SDMMC_RESPONSE_SHORT;
 1533              		.loc 1 881 34
 1534 0012 4023     		movs	r3, #64
 1535 0014 3B61     		str	r3, [r7, #16]
 882:Drivers/STM32L4xx_HAL_Driver/Src/stm32l4xx_ll_sdmmc.c ****   sdmmc_cmdinit.WaitForInterrupt = SDMMC_WAIT_NO;
 1536              		.loc 1 882 34
 1537 0016 0023     		movs	r3, #0
 1538 0018 7B61     		str	r3, [r7, #20]
 883:Drivers/STM32L4xx_HAL_Driver/Src/stm32l4xx_ll_sdmmc.c ****   sdmmc_cmdinit.CPSM             = SDMMC_CPSM_ENABLE;
 1539              		.loc 1 883 34
 1540 001a 4FF48063 		mov	r3, #1024
 1541 001e BB61     		str	r3, [r7, #24]
 884:Drivers/STM32L4xx_HAL_Driver/Src/stm32l4xx_ll_sdmmc.c ****   (void)SDMMC_SendCommand(SDMMCx, &sdmmc_cmdinit);
 1542              		.loc 1 884 9
 1543 0020 07F10803 		add	r3, r7, #8
 1544 0024 1946     		mov	r1, r3
 1545 0026 7868     		ldr	r0, [r7, #4]
 1546 0028 FFF7FEFF 		bl	SDMMC_SendCommand
 885:Drivers/STM32L4xx_HAL_Driver/Src/stm32l4xx_ll_sdmmc.c **** 
 886:Drivers/STM32L4xx_HAL_Driver/Src/stm32l4xx_ll_sdmmc.c ****   /* Check for error conditions */
 887:Drivers/STM32L4xx_HAL_Driver/Src/stm32l4xx_ll_sdmmc.c ****   errorstate = SDMMC_GetCmdResp7(SDMMCx);
 1547              		.loc 1 887 16
 1548 002c 7868     		ldr	r0, [r7, #4]
ARM GAS  /tmp/ccZ1T6Sv.s 			page 43


 1549 002e FFF7FEFF 		bl	SDMMC_GetCmdResp7
 1550 0032 F861     		str	r0, [r7, #28]
 888:Drivers/STM32L4xx_HAL_Driver/Src/stm32l4xx_ll_sdmmc.c **** 
 889:Drivers/STM32L4xx_HAL_Driver/Src/stm32l4xx_ll_sdmmc.c ****   return errorstate;
 1551              		.loc 1 889 10
 1552 0034 FB69     		ldr	r3, [r7, #28]
 890:Drivers/STM32L4xx_HAL_Driver/Src/stm32l4xx_ll_sdmmc.c **** }
 1553              		.loc 1 890 1
 1554 0036 1846     		mov	r0, r3
 1555 0038 2037     		adds	r7, r7, #32
 1556              		.cfi_def_cfa_offset 8
 1557 003a BD46     		mov	sp, r7
 1558              		.cfi_def_cfa_register 13
 1559              		@ sp needed
 1560 003c 80BD     		pop	{r7, pc}
 1561              		.cfi_endproc
 1562              	.LFE471:
 1564              		.section	.text.SDMMC_CmdAppCommand,"ax",%progbits
 1565              		.align	1
 1566              		.global	SDMMC_CmdAppCommand
 1567              		.syntax unified
 1568              		.thumb
 1569              		.thumb_func
 1571              	SDMMC_CmdAppCommand:
 1572              	.LFB472:
 891:Drivers/STM32L4xx_HAL_Driver/Src/stm32l4xx_ll_sdmmc.c **** 
 892:Drivers/STM32L4xx_HAL_Driver/Src/stm32l4xx_ll_sdmmc.c **** /**
 893:Drivers/STM32L4xx_HAL_Driver/Src/stm32l4xx_ll_sdmmc.c ****   * @brief  Send the Application command to verify that that the next command
 894:Drivers/STM32L4xx_HAL_Driver/Src/stm32l4xx_ll_sdmmc.c ****   *         is an application specific com-mand rather than a standard command
 895:Drivers/STM32L4xx_HAL_Driver/Src/stm32l4xx_ll_sdmmc.c ****   *         and check the response.
 896:Drivers/STM32L4xx_HAL_Driver/Src/stm32l4xx_ll_sdmmc.c ****   * @param  SDMMCx: Pointer to SDMMC register base
 897:Drivers/STM32L4xx_HAL_Driver/Src/stm32l4xx_ll_sdmmc.c ****   * @param  Argument: Command Argument
 898:Drivers/STM32L4xx_HAL_Driver/Src/stm32l4xx_ll_sdmmc.c ****   * @retval HAL status
 899:Drivers/STM32L4xx_HAL_Driver/Src/stm32l4xx_ll_sdmmc.c ****   */
 900:Drivers/STM32L4xx_HAL_Driver/Src/stm32l4xx_ll_sdmmc.c **** uint32_t SDMMC_CmdAppCommand(SDMMC_TypeDef *SDMMCx, uint32_t Argument)
 901:Drivers/STM32L4xx_HAL_Driver/Src/stm32l4xx_ll_sdmmc.c **** {
 1573              		.loc 1 901 1
 1574              		.cfi_startproc
 1575              		@ args = 0, pretend = 0, frame = 32
 1576              		@ frame_needed = 1, uses_anonymous_args = 0
 1577 0000 80B5     		push	{r7, lr}
 1578              		.cfi_def_cfa_offset 8
 1579              		.cfi_offset 7, -8
 1580              		.cfi_offset 14, -4
 1581 0002 88B0     		sub	sp, sp, #32
 1582              		.cfi_def_cfa_offset 40
 1583 0004 00AF     		add	r7, sp, #0
 1584              		.cfi_def_cfa_register 7
 1585 0006 7860     		str	r0, [r7, #4]
 1586 0008 3960     		str	r1, [r7]
 902:Drivers/STM32L4xx_HAL_Driver/Src/stm32l4xx_ll_sdmmc.c ****   SDMMC_CmdInitTypeDef  sdmmc_cmdinit;
 903:Drivers/STM32L4xx_HAL_Driver/Src/stm32l4xx_ll_sdmmc.c ****   uint32_t errorstate;
 904:Drivers/STM32L4xx_HAL_Driver/Src/stm32l4xx_ll_sdmmc.c **** 
 905:Drivers/STM32L4xx_HAL_Driver/Src/stm32l4xx_ll_sdmmc.c ****   sdmmc_cmdinit.Argument         = (uint32_t)Argument;
 1587              		.loc 1 905 34
 1588 000a 3B68     		ldr	r3, [r7]
 1589 000c BB60     		str	r3, [r7, #8]
ARM GAS  /tmp/ccZ1T6Sv.s 			page 44


 906:Drivers/STM32L4xx_HAL_Driver/Src/stm32l4xx_ll_sdmmc.c ****   sdmmc_cmdinit.CmdIndex         = SDMMC_CMD_APP_CMD;
 1590              		.loc 1 906 34
 1591 000e 3723     		movs	r3, #55
 1592 0010 FB60     		str	r3, [r7, #12]
 907:Drivers/STM32L4xx_HAL_Driver/Src/stm32l4xx_ll_sdmmc.c ****   sdmmc_cmdinit.Response         = SDMMC_RESPONSE_SHORT;
 1593              		.loc 1 907 34
 1594 0012 4023     		movs	r3, #64
 1595 0014 3B61     		str	r3, [r7, #16]
 908:Drivers/STM32L4xx_HAL_Driver/Src/stm32l4xx_ll_sdmmc.c ****   sdmmc_cmdinit.WaitForInterrupt = SDMMC_WAIT_NO;
 1596              		.loc 1 908 34
 1597 0016 0023     		movs	r3, #0
 1598 0018 7B61     		str	r3, [r7, #20]
 909:Drivers/STM32L4xx_HAL_Driver/Src/stm32l4xx_ll_sdmmc.c ****   sdmmc_cmdinit.CPSM             = SDMMC_CPSM_ENABLE;
 1599              		.loc 1 909 34
 1600 001a 4FF48063 		mov	r3, #1024
 1601 001e BB61     		str	r3, [r7, #24]
 910:Drivers/STM32L4xx_HAL_Driver/Src/stm32l4xx_ll_sdmmc.c ****   (void)SDMMC_SendCommand(SDMMCx, &sdmmc_cmdinit);
 1602              		.loc 1 910 9
 1603 0020 07F10803 		add	r3, r7, #8
 1604 0024 1946     		mov	r1, r3
 1605 0026 7868     		ldr	r0, [r7, #4]
 1606 0028 FFF7FEFF 		bl	SDMMC_SendCommand
 911:Drivers/STM32L4xx_HAL_Driver/Src/stm32l4xx_ll_sdmmc.c **** 
 912:Drivers/STM32L4xx_HAL_Driver/Src/stm32l4xx_ll_sdmmc.c ****   /* Check for error conditions */
 913:Drivers/STM32L4xx_HAL_Driver/Src/stm32l4xx_ll_sdmmc.c ****   /* If there is a HAL_ERROR, it is a MMC card, else
 914:Drivers/STM32L4xx_HAL_Driver/Src/stm32l4xx_ll_sdmmc.c ****   it is a SD card: SD card 2.0 (voltage range mismatch)
 915:Drivers/STM32L4xx_HAL_Driver/Src/stm32l4xx_ll_sdmmc.c ****      or SD card 1.x */
 916:Drivers/STM32L4xx_HAL_Driver/Src/stm32l4xx_ll_sdmmc.c ****   errorstate = SDMMC_GetCmdResp1(SDMMCx, SDMMC_CMD_APP_CMD, SDMMC_CMDTIMEOUT);
 1607              		.loc 1 916 16
 1608 002c 41F28832 		movw	r2, #5000
 1609 0030 3721     		movs	r1, #55
 1610 0032 7868     		ldr	r0, [r7, #4]
 1611 0034 FFF7FEFF 		bl	SDMMC_GetCmdResp1
 1612 0038 F861     		str	r0, [r7, #28]
 917:Drivers/STM32L4xx_HAL_Driver/Src/stm32l4xx_ll_sdmmc.c **** 
 918:Drivers/STM32L4xx_HAL_Driver/Src/stm32l4xx_ll_sdmmc.c ****   return errorstate;
 1613              		.loc 1 918 10
 1614 003a FB69     		ldr	r3, [r7, #28]
 919:Drivers/STM32L4xx_HAL_Driver/Src/stm32l4xx_ll_sdmmc.c **** }
 1615              		.loc 1 919 1
 1616 003c 1846     		mov	r0, r3
 1617 003e 2037     		adds	r7, r7, #32
 1618              		.cfi_def_cfa_offset 8
 1619 0040 BD46     		mov	sp, r7
 1620              		.cfi_def_cfa_register 13
 1621              		@ sp needed
 1622 0042 80BD     		pop	{r7, pc}
 1623              		.cfi_endproc
 1624              	.LFE472:
 1626              		.section	.text.SDMMC_CmdAppOperCommand,"ax",%progbits
 1627              		.align	1
 1628              		.global	SDMMC_CmdAppOperCommand
 1629              		.syntax unified
 1630              		.thumb
 1631              		.thumb_func
 1633              	SDMMC_CmdAppOperCommand:
 1634              	.LFB473:
ARM GAS  /tmp/ccZ1T6Sv.s 			page 45


 920:Drivers/STM32L4xx_HAL_Driver/Src/stm32l4xx_ll_sdmmc.c **** 
 921:Drivers/STM32L4xx_HAL_Driver/Src/stm32l4xx_ll_sdmmc.c **** /**
 922:Drivers/STM32L4xx_HAL_Driver/Src/stm32l4xx_ll_sdmmc.c ****   * @brief  Send the command asking the accessed card to send its operating
 923:Drivers/STM32L4xx_HAL_Driver/Src/stm32l4xx_ll_sdmmc.c ****   *         condition register (OCR)
 924:Drivers/STM32L4xx_HAL_Driver/Src/stm32l4xx_ll_sdmmc.c ****   * @param  SDMMCx: Pointer to SDMMC register base
 925:Drivers/STM32L4xx_HAL_Driver/Src/stm32l4xx_ll_sdmmc.c ****   * @param  Argument: Command Argument
 926:Drivers/STM32L4xx_HAL_Driver/Src/stm32l4xx_ll_sdmmc.c ****   * @retval HAL status
 927:Drivers/STM32L4xx_HAL_Driver/Src/stm32l4xx_ll_sdmmc.c ****   */
 928:Drivers/STM32L4xx_HAL_Driver/Src/stm32l4xx_ll_sdmmc.c **** uint32_t SDMMC_CmdAppOperCommand(SDMMC_TypeDef *SDMMCx, uint32_t Argument)
 929:Drivers/STM32L4xx_HAL_Driver/Src/stm32l4xx_ll_sdmmc.c **** {
 1635              		.loc 1 929 1
 1636              		.cfi_startproc
 1637              		@ args = 0, pretend = 0, frame = 32
 1638              		@ frame_needed = 1, uses_anonymous_args = 0
 1639 0000 80B5     		push	{r7, lr}
 1640              		.cfi_def_cfa_offset 8
 1641              		.cfi_offset 7, -8
 1642              		.cfi_offset 14, -4
 1643 0002 88B0     		sub	sp, sp, #32
 1644              		.cfi_def_cfa_offset 40
 1645 0004 00AF     		add	r7, sp, #0
 1646              		.cfi_def_cfa_register 7
 1647 0006 7860     		str	r0, [r7, #4]
 1648 0008 3960     		str	r1, [r7]
 930:Drivers/STM32L4xx_HAL_Driver/Src/stm32l4xx_ll_sdmmc.c ****   SDMMC_CmdInitTypeDef  sdmmc_cmdinit;
 931:Drivers/STM32L4xx_HAL_Driver/Src/stm32l4xx_ll_sdmmc.c ****   uint32_t errorstate;
 932:Drivers/STM32L4xx_HAL_Driver/Src/stm32l4xx_ll_sdmmc.c **** 
 933:Drivers/STM32L4xx_HAL_Driver/Src/stm32l4xx_ll_sdmmc.c **** #if defined(STM32L4P5xx) || defined(STM32L4Q5xx) || defined(STM32L4R5xx) || defined(STM32L4R7xx) ||
 934:Drivers/STM32L4xx_HAL_Driver/Src/stm32l4xx_ll_sdmmc.c ****   sdmmc_cmdinit.Argument         = Argument;
 935:Drivers/STM32L4xx_HAL_Driver/Src/stm32l4xx_ll_sdmmc.c **** #else
 936:Drivers/STM32L4xx_HAL_Driver/Src/stm32l4xx_ll_sdmmc.c ****   sdmmc_cmdinit.Argument         = SDMMC_VOLTAGE_WINDOW_SD | Argument;
 1649              		.loc 1 936 60
 1650 000a 3B68     		ldr	r3, [r7]
 1651 000c 43F00043 		orr	r3, r3, #-2147483648
 1652 0010 43F48013 		orr	r3, r3, #1048576
 1653              		.loc 1 936 34
 1654 0014 BB60     		str	r3, [r7, #8]
 937:Drivers/STM32L4xx_HAL_Driver/Src/stm32l4xx_ll_sdmmc.c **** #endif /* STM32L4P5xx || STM32L4Q5xx || STM32L4R5xx || STM32L4R7xx || STM32L4R9xx || STM32L4S5xx ||
 938:Drivers/STM32L4xx_HAL_Driver/Src/stm32l4xx_ll_sdmmc.c ****   sdmmc_cmdinit.CmdIndex         = SDMMC_CMD_SD_APP_OP_COND;
 1655              		.loc 1 938 34
 1656 0016 2923     		movs	r3, #41
 1657 0018 FB60     		str	r3, [r7, #12]
 939:Drivers/STM32L4xx_HAL_Driver/Src/stm32l4xx_ll_sdmmc.c ****   sdmmc_cmdinit.Response         = SDMMC_RESPONSE_SHORT;
 1658              		.loc 1 939 34
 1659 001a 4023     		movs	r3, #64
 1660 001c 3B61     		str	r3, [r7, #16]
 940:Drivers/STM32L4xx_HAL_Driver/Src/stm32l4xx_ll_sdmmc.c ****   sdmmc_cmdinit.WaitForInterrupt = SDMMC_WAIT_NO;
 1661              		.loc 1 940 34
 1662 001e 0023     		movs	r3, #0
 1663 0020 7B61     		str	r3, [r7, #20]
 941:Drivers/STM32L4xx_HAL_Driver/Src/stm32l4xx_ll_sdmmc.c ****   sdmmc_cmdinit.CPSM             = SDMMC_CPSM_ENABLE;
 1664              		.loc 1 941 34
 1665 0022 4FF48063 		mov	r3, #1024
 1666 0026 BB61     		str	r3, [r7, #24]
 942:Drivers/STM32L4xx_HAL_Driver/Src/stm32l4xx_ll_sdmmc.c ****   (void)SDMMC_SendCommand(SDMMCx, &sdmmc_cmdinit);
 1667              		.loc 1 942 9
 1668 0028 07F10803 		add	r3, r7, #8
ARM GAS  /tmp/ccZ1T6Sv.s 			page 46


 1669 002c 1946     		mov	r1, r3
 1670 002e 7868     		ldr	r0, [r7, #4]
 1671 0030 FFF7FEFF 		bl	SDMMC_SendCommand
 943:Drivers/STM32L4xx_HAL_Driver/Src/stm32l4xx_ll_sdmmc.c **** 
 944:Drivers/STM32L4xx_HAL_Driver/Src/stm32l4xx_ll_sdmmc.c ****   /* Check for error conditions */
 945:Drivers/STM32L4xx_HAL_Driver/Src/stm32l4xx_ll_sdmmc.c ****   errorstate = SDMMC_GetCmdResp3(SDMMCx);
 1672              		.loc 1 945 16
 1673 0034 7868     		ldr	r0, [r7, #4]
 1674 0036 FFF7FEFF 		bl	SDMMC_GetCmdResp3
 1675 003a F861     		str	r0, [r7, #28]
 946:Drivers/STM32L4xx_HAL_Driver/Src/stm32l4xx_ll_sdmmc.c **** 
 947:Drivers/STM32L4xx_HAL_Driver/Src/stm32l4xx_ll_sdmmc.c ****   return errorstate;
 1676              		.loc 1 947 10
 1677 003c FB69     		ldr	r3, [r7, #28]
 948:Drivers/STM32L4xx_HAL_Driver/Src/stm32l4xx_ll_sdmmc.c **** }
 1678              		.loc 1 948 1
 1679 003e 1846     		mov	r0, r3
 1680 0040 2037     		adds	r7, r7, #32
 1681              		.cfi_def_cfa_offset 8
 1682 0042 BD46     		mov	sp, r7
 1683              		.cfi_def_cfa_register 13
 1684              		@ sp needed
 1685 0044 80BD     		pop	{r7, pc}
 1686              		.cfi_endproc
 1687              	.LFE473:
 1689              		.section	.text.SDMMC_CmdBusWidth,"ax",%progbits
 1690              		.align	1
 1691              		.global	SDMMC_CmdBusWidth
 1692              		.syntax unified
 1693              		.thumb
 1694              		.thumb_func
 1696              	SDMMC_CmdBusWidth:
 1697              	.LFB474:
 949:Drivers/STM32L4xx_HAL_Driver/Src/stm32l4xx_ll_sdmmc.c **** 
 950:Drivers/STM32L4xx_HAL_Driver/Src/stm32l4xx_ll_sdmmc.c **** /**
 951:Drivers/STM32L4xx_HAL_Driver/Src/stm32l4xx_ll_sdmmc.c ****   * @brief  Send the Bus Width command and check the response.
 952:Drivers/STM32L4xx_HAL_Driver/Src/stm32l4xx_ll_sdmmc.c ****   * @param  SDMMCx: Pointer to SDMMC register base
 953:Drivers/STM32L4xx_HAL_Driver/Src/stm32l4xx_ll_sdmmc.c ****   * @param  BusWidth: BusWidth
 954:Drivers/STM32L4xx_HAL_Driver/Src/stm32l4xx_ll_sdmmc.c ****   * @retval HAL status
 955:Drivers/STM32L4xx_HAL_Driver/Src/stm32l4xx_ll_sdmmc.c ****   */
 956:Drivers/STM32L4xx_HAL_Driver/Src/stm32l4xx_ll_sdmmc.c **** uint32_t SDMMC_CmdBusWidth(SDMMC_TypeDef *SDMMCx, uint32_t BusWidth)
 957:Drivers/STM32L4xx_HAL_Driver/Src/stm32l4xx_ll_sdmmc.c **** {
 1698              		.loc 1 957 1
 1699              		.cfi_startproc
 1700              		@ args = 0, pretend = 0, frame = 32
 1701              		@ frame_needed = 1, uses_anonymous_args = 0
 1702 0000 80B5     		push	{r7, lr}
 1703              		.cfi_def_cfa_offset 8
 1704              		.cfi_offset 7, -8
 1705              		.cfi_offset 14, -4
 1706 0002 88B0     		sub	sp, sp, #32
 1707              		.cfi_def_cfa_offset 40
 1708 0004 00AF     		add	r7, sp, #0
 1709              		.cfi_def_cfa_register 7
 1710 0006 7860     		str	r0, [r7, #4]
 1711 0008 3960     		str	r1, [r7]
 958:Drivers/STM32L4xx_HAL_Driver/Src/stm32l4xx_ll_sdmmc.c ****   SDMMC_CmdInitTypeDef  sdmmc_cmdinit;
ARM GAS  /tmp/ccZ1T6Sv.s 			page 47


 959:Drivers/STM32L4xx_HAL_Driver/Src/stm32l4xx_ll_sdmmc.c ****   uint32_t errorstate;
 960:Drivers/STM32L4xx_HAL_Driver/Src/stm32l4xx_ll_sdmmc.c **** 
 961:Drivers/STM32L4xx_HAL_Driver/Src/stm32l4xx_ll_sdmmc.c ****   sdmmc_cmdinit.Argument         = (uint32_t)BusWidth;
 1712              		.loc 1 961 34
 1713 000a 3B68     		ldr	r3, [r7]
 1714 000c BB60     		str	r3, [r7, #8]
 962:Drivers/STM32L4xx_HAL_Driver/Src/stm32l4xx_ll_sdmmc.c ****   sdmmc_cmdinit.CmdIndex         = SDMMC_CMD_APP_SD_SET_BUSWIDTH;
 1715              		.loc 1 962 34
 1716 000e 0623     		movs	r3, #6
 1717 0010 FB60     		str	r3, [r7, #12]
 963:Drivers/STM32L4xx_HAL_Driver/Src/stm32l4xx_ll_sdmmc.c ****   sdmmc_cmdinit.Response         = SDMMC_RESPONSE_SHORT;
 1718              		.loc 1 963 34
 1719 0012 4023     		movs	r3, #64
 1720 0014 3B61     		str	r3, [r7, #16]
 964:Drivers/STM32L4xx_HAL_Driver/Src/stm32l4xx_ll_sdmmc.c ****   sdmmc_cmdinit.WaitForInterrupt = SDMMC_WAIT_NO;
 1721              		.loc 1 964 34
 1722 0016 0023     		movs	r3, #0
 1723 0018 7B61     		str	r3, [r7, #20]
 965:Drivers/STM32L4xx_HAL_Driver/Src/stm32l4xx_ll_sdmmc.c ****   sdmmc_cmdinit.CPSM             = SDMMC_CPSM_ENABLE;
 1724              		.loc 1 965 34
 1725 001a 4FF48063 		mov	r3, #1024
 1726 001e BB61     		str	r3, [r7, #24]
 966:Drivers/STM32L4xx_HAL_Driver/Src/stm32l4xx_ll_sdmmc.c ****   (void)SDMMC_SendCommand(SDMMCx, &sdmmc_cmdinit);
 1727              		.loc 1 966 9
 1728 0020 07F10803 		add	r3, r7, #8
 1729 0024 1946     		mov	r1, r3
 1730 0026 7868     		ldr	r0, [r7, #4]
 1731 0028 FFF7FEFF 		bl	SDMMC_SendCommand
 967:Drivers/STM32L4xx_HAL_Driver/Src/stm32l4xx_ll_sdmmc.c **** 
 968:Drivers/STM32L4xx_HAL_Driver/Src/stm32l4xx_ll_sdmmc.c ****   /* Check for error conditions */
 969:Drivers/STM32L4xx_HAL_Driver/Src/stm32l4xx_ll_sdmmc.c ****   errorstate = SDMMC_GetCmdResp1(SDMMCx, SDMMC_CMD_APP_SD_SET_BUSWIDTH, SDMMC_CMDTIMEOUT);
 1732              		.loc 1 969 16
 1733 002c 41F28832 		movw	r2, #5000
 1734 0030 0621     		movs	r1, #6
 1735 0032 7868     		ldr	r0, [r7, #4]
 1736 0034 FFF7FEFF 		bl	SDMMC_GetCmdResp1
 1737 0038 F861     		str	r0, [r7, #28]
 970:Drivers/STM32L4xx_HAL_Driver/Src/stm32l4xx_ll_sdmmc.c **** 
 971:Drivers/STM32L4xx_HAL_Driver/Src/stm32l4xx_ll_sdmmc.c ****   return errorstate;
 1738              		.loc 1 971 10
 1739 003a FB69     		ldr	r3, [r7, #28]
 972:Drivers/STM32L4xx_HAL_Driver/Src/stm32l4xx_ll_sdmmc.c **** }
 1740              		.loc 1 972 1
 1741 003c 1846     		mov	r0, r3
 1742 003e 2037     		adds	r7, r7, #32
 1743              		.cfi_def_cfa_offset 8
 1744 0040 BD46     		mov	sp, r7
 1745              		.cfi_def_cfa_register 13
 1746              		@ sp needed
 1747 0042 80BD     		pop	{r7, pc}
 1748              		.cfi_endproc
 1749              	.LFE474:
 1751              		.section	.text.SDMMC_CmdSendSCR,"ax",%progbits
 1752              		.align	1
 1753              		.global	SDMMC_CmdSendSCR
 1754              		.syntax unified
 1755              		.thumb
ARM GAS  /tmp/ccZ1T6Sv.s 			page 48


 1756              		.thumb_func
 1758              	SDMMC_CmdSendSCR:
 1759              	.LFB475:
 973:Drivers/STM32L4xx_HAL_Driver/Src/stm32l4xx_ll_sdmmc.c **** 
 974:Drivers/STM32L4xx_HAL_Driver/Src/stm32l4xx_ll_sdmmc.c **** /**
 975:Drivers/STM32L4xx_HAL_Driver/Src/stm32l4xx_ll_sdmmc.c ****   * @brief  Send the Send SCR command and check the response.
 976:Drivers/STM32L4xx_HAL_Driver/Src/stm32l4xx_ll_sdmmc.c ****   * @param  SDMMCx: Pointer to SDMMC register base
 977:Drivers/STM32L4xx_HAL_Driver/Src/stm32l4xx_ll_sdmmc.c ****   * @retval HAL status
 978:Drivers/STM32L4xx_HAL_Driver/Src/stm32l4xx_ll_sdmmc.c ****   */
 979:Drivers/STM32L4xx_HAL_Driver/Src/stm32l4xx_ll_sdmmc.c **** uint32_t SDMMC_CmdSendSCR(SDMMC_TypeDef *SDMMCx)
 980:Drivers/STM32L4xx_HAL_Driver/Src/stm32l4xx_ll_sdmmc.c **** {
 1760              		.loc 1 980 1
 1761              		.cfi_startproc
 1762              		@ args = 0, pretend = 0, frame = 32
 1763              		@ frame_needed = 1, uses_anonymous_args = 0
 1764 0000 80B5     		push	{r7, lr}
 1765              		.cfi_def_cfa_offset 8
 1766              		.cfi_offset 7, -8
 1767              		.cfi_offset 14, -4
 1768 0002 88B0     		sub	sp, sp, #32
 1769              		.cfi_def_cfa_offset 40
 1770 0004 00AF     		add	r7, sp, #0
 1771              		.cfi_def_cfa_register 7
 1772 0006 7860     		str	r0, [r7, #4]
 981:Drivers/STM32L4xx_HAL_Driver/Src/stm32l4xx_ll_sdmmc.c ****   SDMMC_CmdInitTypeDef  sdmmc_cmdinit;
 982:Drivers/STM32L4xx_HAL_Driver/Src/stm32l4xx_ll_sdmmc.c ****   uint32_t errorstate;
 983:Drivers/STM32L4xx_HAL_Driver/Src/stm32l4xx_ll_sdmmc.c **** 
 984:Drivers/STM32L4xx_HAL_Driver/Src/stm32l4xx_ll_sdmmc.c ****   /* Send CMD51 SD_APP_SEND_SCR */
 985:Drivers/STM32L4xx_HAL_Driver/Src/stm32l4xx_ll_sdmmc.c ****   sdmmc_cmdinit.Argument         = 0U;
 1773              		.loc 1 985 34
 1774 0008 0023     		movs	r3, #0
 1775 000a BB60     		str	r3, [r7, #8]
 986:Drivers/STM32L4xx_HAL_Driver/Src/stm32l4xx_ll_sdmmc.c ****   sdmmc_cmdinit.CmdIndex         = SDMMC_CMD_SD_APP_SEND_SCR;
 1776              		.loc 1 986 34
 1777 000c 3323     		movs	r3, #51
 1778 000e FB60     		str	r3, [r7, #12]
 987:Drivers/STM32L4xx_HAL_Driver/Src/stm32l4xx_ll_sdmmc.c ****   sdmmc_cmdinit.Response         = SDMMC_RESPONSE_SHORT;
 1779              		.loc 1 987 34
 1780 0010 4023     		movs	r3, #64
 1781 0012 3B61     		str	r3, [r7, #16]
 988:Drivers/STM32L4xx_HAL_Driver/Src/stm32l4xx_ll_sdmmc.c ****   sdmmc_cmdinit.WaitForInterrupt = SDMMC_WAIT_NO;
 1782              		.loc 1 988 34
 1783 0014 0023     		movs	r3, #0
 1784 0016 7B61     		str	r3, [r7, #20]
 989:Drivers/STM32L4xx_HAL_Driver/Src/stm32l4xx_ll_sdmmc.c ****   sdmmc_cmdinit.CPSM             = SDMMC_CPSM_ENABLE;
 1785              		.loc 1 989 34
 1786 0018 4FF48063 		mov	r3, #1024
 1787 001c BB61     		str	r3, [r7, #24]
 990:Drivers/STM32L4xx_HAL_Driver/Src/stm32l4xx_ll_sdmmc.c ****   (void)SDMMC_SendCommand(SDMMCx, &sdmmc_cmdinit);
 1788              		.loc 1 990 9
 1789 001e 07F10803 		add	r3, r7, #8
 1790 0022 1946     		mov	r1, r3
 1791 0024 7868     		ldr	r0, [r7, #4]
 1792 0026 FFF7FEFF 		bl	SDMMC_SendCommand
 991:Drivers/STM32L4xx_HAL_Driver/Src/stm32l4xx_ll_sdmmc.c **** 
 992:Drivers/STM32L4xx_HAL_Driver/Src/stm32l4xx_ll_sdmmc.c ****   /* Check for error conditions */
 993:Drivers/STM32L4xx_HAL_Driver/Src/stm32l4xx_ll_sdmmc.c ****   errorstate = SDMMC_GetCmdResp1(SDMMCx, SDMMC_CMD_SD_APP_SEND_SCR, SDMMC_CMDTIMEOUT);
ARM GAS  /tmp/ccZ1T6Sv.s 			page 49


 1793              		.loc 1 993 16
 1794 002a 41F28832 		movw	r2, #5000
 1795 002e 3321     		movs	r1, #51
 1796 0030 7868     		ldr	r0, [r7, #4]
 1797 0032 FFF7FEFF 		bl	SDMMC_GetCmdResp1
 1798 0036 F861     		str	r0, [r7, #28]
 994:Drivers/STM32L4xx_HAL_Driver/Src/stm32l4xx_ll_sdmmc.c **** 
 995:Drivers/STM32L4xx_HAL_Driver/Src/stm32l4xx_ll_sdmmc.c ****   return errorstate;
 1799              		.loc 1 995 10
 1800 0038 FB69     		ldr	r3, [r7, #28]
 996:Drivers/STM32L4xx_HAL_Driver/Src/stm32l4xx_ll_sdmmc.c **** }
 1801              		.loc 1 996 1
 1802 003a 1846     		mov	r0, r3
 1803 003c 2037     		adds	r7, r7, #32
 1804              		.cfi_def_cfa_offset 8
 1805 003e BD46     		mov	sp, r7
 1806              		.cfi_def_cfa_register 13
 1807              		@ sp needed
 1808 0040 80BD     		pop	{r7, pc}
 1809              		.cfi_endproc
 1810              	.LFE475:
 1812              		.section	.text.SDMMC_CmdSendCID,"ax",%progbits
 1813              		.align	1
 1814              		.global	SDMMC_CmdSendCID
 1815              		.syntax unified
 1816              		.thumb
 1817              		.thumb_func
 1819              	SDMMC_CmdSendCID:
 1820              	.LFB476:
 997:Drivers/STM32L4xx_HAL_Driver/Src/stm32l4xx_ll_sdmmc.c **** 
 998:Drivers/STM32L4xx_HAL_Driver/Src/stm32l4xx_ll_sdmmc.c **** /**
 999:Drivers/STM32L4xx_HAL_Driver/Src/stm32l4xx_ll_sdmmc.c ****   * @brief  Send the Send CID command and check the response.
1000:Drivers/STM32L4xx_HAL_Driver/Src/stm32l4xx_ll_sdmmc.c ****   * @param  SDMMCx: Pointer to SDMMC register base
1001:Drivers/STM32L4xx_HAL_Driver/Src/stm32l4xx_ll_sdmmc.c ****   * @retval HAL status
1002:Drivers/STM32L4xx_HAL_Driver/Src/stm32l4xx_ll_sdmmc.c ****   */
1003:Drivers/STM32L4xx_HAL_Driver/Src/stm32l4xx_ll_sdmmc.c **** uint32_t SDMMC_CmdSendCID(SDMMC_TypeDef *SDMMCx)
1004:Drivers/STM32L4xx_HAL_Driver/Src/stm32l4xx_ll_sdmmc.c **** {
 1821              		.loc 1 1004 1
 1822              		.cfi_startproc
 1823              		@ args = 0, pretend = 0, frame = 32
 1824              		@ frame_needed = 1, uses_anonymous_args = 0
 1825 0000 80B5     		push	{r7, lr}
 1826              		.cfi_def_cfa_offset 8
 1827              		.cfi_offset 7, -8
 1828              		.cfi_offset 14, -4
 1829 0002 88B0     		sub	sp, sp, #32
 1830              		.cfi_def_cfa_offset 40
 1831 0004 00AF     		add	r7, sp, #0
 1832              		.cfi_def_cfa_register 7
 1833 0006 7860     		str	r0, [r7, #4]
1005:Drivers/STM32L4xx_HAL_Driver/Src/stm32l4xx_ll_sdmmc.c ****   SDMMC_CmdInitTypeDef  sdmmc_cmdinit;
1006:Drivers/STM32L4xx_HAL_Driver/Src/stm32l4xx_ll_sdmmc.c ****   uint32_t errorstate;
1007:Drivers/STM32L4xx_HAL_Driver/Src/stm32l4xx_ll_sdmmc.c **** 
1008:Drivers/STM32L4xx_HAL_Driver/Src/stm32l4xx_ll_sdmmc.c ****   /* Send CMD2 ALL_SEND_CID */
1009:Drivers/STM32L4xx_HAL_Driver/Src/stm32l4xx_ll_sdmmc.c ****   sdmmc_cmdinit.Argument         = 0U;
 1834              		.loc 1 1009 34
 1835 0008 0023     		movs	r3, #0
ARM GAS  /tmp/ccZ1T6Sv.s 			page 50


 1836 000a BB60     		str	r3, [r7, #8]
1010:Drivers/STM32L4xx_HAL_Driver/Src/stm32l4xx_ll_sdmmc.c ****   sdmmc_cmdinit.CmdIndex         = SDMMC_CMD_ALL_SEND_CID;
 1837              		.loc 1 1010 34
 1838 000c 0223     		movs	r3, #2
 1839 000e FB60     		str	r3, [r7, #12]
1011:Drivers/STM32L4xx_HAL_Driver/Src/stm32l4xx_ll_sdmmc.c ****   sdmmc_cmdinit.Response         = SDMMC_RESPONSE_LONG;
 1840              		.loc 1 1011 34
 1841 0010 C023     		movs	r3, #192
 1842 0012 3B61     		str	r3, [r7, #16]
1012:Drivers/STM32L4xx_HAL_Driver/Src/stm32l4xx_ll_sdmmc.c ****   sdmmc_cmdinit.WaitForInterrupt = SDMMC_WAIT_NO;
 1843              		.loc 1 1012 34
 1844 0014 0023     		movs	r3, #0
 1845 0016 7B61     		str	r3, [r7, #20]
1013:Drivers/STM32L4xx_HAL_Driver/Src/stm32l4xx_ll_sdmmc.c ****   sdmmc_cmdinit.CPSM             = SDMMC_CPSM_ENABLE;
 1846              		.loc 1 1013 34
 1847 0018 4FF48063 		mov	r3, #1024
 1848 001c BB61     		str	r3, [r7, #24]
1014:Drivers/STM32L4xx_HAL_Driver/Src/stm32l4xx_ll_sdmmc.c ****   (void)SDMMC_SendCommand(SDMMCx, &sdmmc_cmdinit);
 1849              		.loc 1 1014 9
 1850 001e 07F10803 		add	r3, r7, #8
 1851 0022 1946     		mov	r1, r3
 1852 0024 7868     		ldr	r0, [r7, #4]
 1853 0026 FFF7FEFF 		bl	SDMMC_SendCommand
1015:Drivers/STM32L4xx_HAL_Driver/Src/stm32l4xx_ll_sdmmc.c **** 
1016:Drivers/STM32L4xx_HAL_Driver/Src/stm32l4xx_ll_sdmmc.c ****   /* Check for error conditions */
1017:Drivers/STM32L4xx_HAL_Driver/Src/stm32l4xx_ll_sdmmc.c ****   errorstate = SDMMC_GetCmdResp2(SDMMCx);
 1854              		.loc 1 1017 16
 1855 002a 7868     		ldr	r0, [r7, #4]
 1856 002c FFF7FEFF 		bl	SDMMC_GetCmdResp2
 1857 0030 F861     		str	r0, [r7, #28]
1018:Drivers/STM32L4xx_HAL_Driver/Src/stm32l4xx_ll_sdmmc.c **** 
1019:Drivers/STM32L4xx_HAL_Driver/Src/stm32l4xx_ll_sdmmc.c ****   return errorstate;
 1858              		.loc 1 1019 10
 1859 0032 FB69     		ldr	r3, [r7, #28]
1020:Drivers/STM32L4xx_HAL_Driver/Src/stm32l4xx_ll_sdmmc.c **** }
 1860              		.loc 1 1020 1
 1861 0034 1846     		mov	r0, r3
 1862 0036 2037     		adds	r7, r7, #32
 1863              		.cfi_def_cfa_offset 8
 1864 0038 BD46     		mov	sp, r7
 1865              		.cfi_def_cfa_register 13
 1866              		@ sp needed
 1867 003a 80BD     		pop	{r7, pc}
 1868              		.cfi_endproc
 1869              	.LFE476:
 1871              		.section	.text.SDMMC_CmdSendCSD,"ax",%progbits
 1872              		.align	1
 1873              		.global	SDMMC_CmdSendCSD
 1874              		.syntax unified
 1875              		.thumb
 1876              		.thumb_func
 1878              	SDMMC_CmdSendCSD:
 1879              	.LFB477:
1021:Drivers/STM32L4xx_HAL_Driver/Src/stm32l4xx_ll_sdmmc.c **** 
1022:Drivers/STM32L4xx_HAL_Driver/Src/stm32l4xx_ll_sdmmc.c **** /**
1023:Drivers/STM32L4xx_HAL_Driver/Src/stm32l4xx_ll_sdmmc.c ****   * @brief  Send the Send CSD command and check the response.
1024:Drivers/STM32L4xx_HAL_Driver/Src/stm32l4xx_ll_sdmmc.c ****   * @param  SDMMCx: Pointer to SDMMC register base
ARM GAS  /tmp/ccZ1T6Sv.s 			page 51


1025:Drivers/STM32L4xx_HAL_Driver/Src/stm32l4xx_ll_sdmmc.c ****   * @param  Argument: Command Argument
1026:Drivers/STM32L4xx_HAL_Driver/Src/stm32l4xx_ll_sdmmc.c ****   * @retval HAL status
1027:Drivers/STM32L4xx_HAL_Driver/Src/stm32l4xx_ll_sdmmc.c ****   */
1028:Drivers/STM32L4xx_HAL_Driver/Src/stm32l4xx_ll_sdmmc.c **** uint32_t SDMMC_CmdSendCSD(SDMMC_TypeDef *SDMMCx, uint32_t Argument)
1029:Drivers/STM32L4xx_HAL_Driver/Src/stm32l4xx_ll_sdmmc.c **** {
 1880              		.loc 1 1029 1
 1881              		.cfi_startproc
 1882              		@ args = 0, pretend = 0, frame = 32
 1883              		@ frame_needed = 1, uses_anonymous_args = 0
 1884 0000 80B5     		push	{r7, lr}
 1885              		.cfi_def_cfa_offset 8
 1886              		.cfi_offset 7, -8
 1887              		.cfi_offset 14, -4
 1888 0002 88B0     		sub	sp, sp, #32
 1889              		.cfi_def_cfa_offset 40
 1890 0004 00AF     		add	r7, sp, #0
 1891              		.cfi_def_cfa_register 7
 1892 0006 7860     		str	r0, [r7, #4]
 1893 0008 3960     		str	r1, [r7]
1030:Drivers/STM32L4xx_HAL_Driver/Src/stm32l4xx_ll_sdmmc.c ****   SDMMC_CmdInitTypeDef  sdmmc_cmdinit;
1031:Drivers/STM32L4xx_HAL_Driver/Src/stm32l4xx_ll_sdmmc.c ****   uint32_t errorstate;
1032:Drivers/STM32L4xx_HAL_Driver/Src/stm32l4xx_ll_sdmmc.c **** 
1033:Drivers/STM32L4xx_HAL_Driver/Src/stm32l4xx_ll_sdmmc.c ****   /* Send CMD9 SEND_CSD */
1034:Drivers/STM32L4xx_HAL_Driver/Src/stm32l4xx_ll_sdmmc.c ****   sdmmc_cmdinit.Argument         = Argument;
 1894              		.loc 1 1034 34
 1895 000a 3B68     		ldr	r3, [r7]
 1896 000c BB60     		str	r3, [r7, #8]
1035:Drivers/STM32L4xx_HAL_Driver/Src/stm32l4xx_ll_sdmmc.c ****   sdmmc_cmdinit.CmdIndex         = SDMMC_CMD_SEND_CSD;
 1897              		.loc 1 1035 34
 1898 000e 0923     		movs	r3, #9
 1899 0010 FB60     		str	r3, [r7, #12]
1036:Drivers/STM32L4xx_HAL_Driver/Src/stm32l4xx_ll_sdmmc.c ****   sdmmc_cmdinit.Response         = SDMMC_RESPONSE_LONG;
 1900              		.loc 1 1036 34
 1901 0012 C023     		movs	r3, #192
 1902 0014 3B61     		str	r3, [r7, #16]
1037:Drivers/STM32L4xx_HAL_Driver/Src/stm32l4xx_ll_sdmmc.c ****   sdmmc_cmdinit.WaitForInterrupt = SDMMC_WAIT_NO;
 1903              		.loc 1 1037 34
 1904 0016 0023     		movs	r3, #0
 1905 0018 7B61     		str	r3, [r7, #20]
1038:Drivers/STM32L4xx_HAL_Driver/Src/stm32l4xx_ll_sdmmc.c ****   sdmmc_cmdinit.CPSM             = SDMMC_CPSM_ENABLE;
 1906              		.loc 1 1038 34
 1907 001a 4FF48063 		mov	r3, #1024
 1908 001e BB61     		str	r3, [r7, #24]
1039:Drivers/STM32L4xx_HAL_Driver/Src/stm32l4xx_ll_sdmmc.c ****   (void)SDMMC_SendCommand(SDMMCx, &sdmmc_cmdinit);
 1909              		.loc 1 1039 9
 1910 0020 07F10803 		add	r3, r7, #8
 1911 0024 1946     		mov	r1, r3
 1912 0026 7868     		ldr	r0, [r7, #4]
 1913 0028 FFF7FEFF 		bl	SDMMC_SendCommand
1040:Drivers/STM32L4xx_HAL_Driver/Src/stm32l4xx_ll_sdmmc.c **** 
1041:Drivers/STM32L4xx_HAL_Driver/Src/stm32l4xx_ll_sdmmc.c ****   /* Check for error conditions */
1042:Drivers/STM32L4xx_HAL_Driver/Src/stm32l4xx_ll_sdmmc.c ****   errorstate = SDMMC_GetCmdResp2(SDMMCx);
 1914              		.loc 1 1042 16
 1915 002c 7868     		ldr	r0, [r7, #4]
 1916 002e FFF7FEFF 		bl	SDMMC_GetCmdResp2
 1917 0032 F861     		str	r0, [r7, #28]
1043:Drivers/STM32L4xx_HAL_Driver/Src/stm32l4xx_ll_sdmmc.c **** 
ARM GAS  /tmp/ccZ1T6Sv.s 			page 52


1044:Drivers/STM32L4xx_HAL_Driver/Src/stm32l4xx_ll_sdmmc.c ****   return errorstate;
 1918              		.loc 1 1044 10
 1919 0034 FB69     		ldr	r3, [r7, #28]
1045:Drivers/STM32L4xx_HAL_Driver/Src/stm32l4xx_ll_sdmmc.c **** }
 1920              		.loc 1 1045 1
 1921 0036 1846     		mov	r0, r3
 1922 0038 2037     		adds	r7, r7, #32
 1923              		.cfi_def_cfa_offset 8
 1924 003a BD46     		mov	sp, r7
 1925              		.cfi_def_cfa_register 13
 1926              		@ sp needed
 1927 003c 80BD     		pop	{r7, pc}
 1928              		.cfi_endproc
 1929              	.LFE477:
 1931              		.section	.text.SDMMC_CmdSetRelAdd,"ax",%progbits
 1932              		.align	1
 1933              		.global	SDMMC_CmdSetRelAdd
 1934              		.syntax unified
 1935              		.thumb
 1936              		.thumb_func
 1938              	SDMMC_CmdSetRelAdd:
 1939              	.LFB478:
1046:Drivers/STM32L4xx_HAL_Driver/Src/stm32l4xx_ll_sdmmc.c **** 
1047:Drivers/STM32L4xx_HAL_Driver/Src/stm32l4xx_ll_sdmmc.c **** /**
1048:Drivers/STM32L4xx_HAL_Driver/Src/stm32l4xx_ll_sdmmc.c ****   * @brief  Send the Send CSD command and check the response.
1049:Drivers/STM32L4xx_HAL_Driver/Src/stm32l4xx_ll_sdmmc.c ****   * @param  SDMMCx: Pointer to SDMMC register base
1050:Drivers/STM32L4xx_HAL_Driver/Src/stm32l4xx_ll_sdmmc.c ****   * @param  pRCA: Card RCA
1051:Drivers/STM32L4xx_HAL_Driver/Src/stm32l4xx_ll_sdmmc.c ****   * @retval HAL status
1052:Drivers/STM32L4xx_HAL_Driver/Src/stm32l4xx_ll_sdmmc.c ****   */
1053:Drivers/STM32L4xx_HAL_Driver/Src/stm32l4xx_ll_sdmmc.c **** uint32_t SDMMC_CmdSetRelAdd(SDMMC_TypeDef *SDMMCx, uint16_t *pRCA)
1054:Drivers/STM32L4xx_HAL_Driver/Src/stm32l4xx_ll_sdmmc.c **** {
 1940              		.loc 1 1054 1
 1941              		.cfi_startproc
 1942              		@ args = 0, pretend = 0, frame = 32
 1943              		@ frame_needed = 1, uses_anonymous_args = 0
 1944 0000 80B5     		push	{r7, lr}
 1945              		.cfi_def_cfa_offset 8
 1946              		.cfi_offset 7, -8
 1947              		.cfi_offset 14, -4
 1948 0002 88B0     		sub	sp, sp, #32
 1949              		.cfi_def_cfa_offset 40
 1950 0004 00AF     		add	r7, sp, #0
 1951              		.cfi_def_cfa_register 7
 1952 0006 7860     		str	r0, [r7, #4]
 1953 0008 3960     		str	r1, [r7]
1055:Drivers/STM32L4xx_HAL_Driver/Src/stm32l4xx_ll_sdmmc.c ****   SDMMC_CmdInitTypeDef  sdmmc_cmdinit;
1056:Drivers/STM32L4xx_HAL_Driver/Src/stm32l4xx_ll_sdmmc.c ****   uint32_t errorstate;
1057:Drivers/STM32L4xx_HAL_Driver/Src/stm32l4xx_ll_sdmmc.c **** 
1058:Drivers/STM32L4xx_HAL_Driver/Src/stm32l4xx_ll_sdmmc.c ****   /* Send CMD3 SD_CMD_SET_REL_ADDR */
1059:Drivers/STM32L4xx_HAL_Driver/Src/stm32l4xx_ll_sdmmc.c ****   sdmmc_cmdinit.Argument         = 0U;
 1954              		.loc 1 1059 34
 1955 000a 0023     		movs	r3, #0
 1956 000c BB60     		str	r3, [r7, #8]
1060:Drivers/STM32L4xx_HAL_Driver/Src/stm32l4xx_ll_sdmmc.c ****   sdmmc_cmdinit.CmdIndex         = SDMMC_CMD_SET_REL_ADDR;
 1957              		.loc 1 1060 34
 1958 000e 0323     		movs	r3, #3
 1959 0010 FB60     		str	r3, [r7, #12]
ARM GAS  /tmp/ccZ1T6Sv.s 			page 53


1061:Drivers/STM32L4xx_HAL_Driver/Src/stm32l4xx_ll_sdmmc.c ****   sdmmc_cmdinit.Response         = SDMMC_RESPONSE_SHORT;
 1960              		.loc 1 1061 34
 1961 0012 4023     		movs	r3, #64
 1962 0014 3B61     		str	r3, [r7, #16]
1062:Drivers/STM32L4xx_HAL_Driver/Src/stm32l4xx_ll_sdmmc.c ****   sdmmc_cmdinit.WaitForInterrupt = SDMMC_WAIT_NO;
 1963              		.loc 1 1062 34
 1964 0016 0023     		movs	r3, #0
 1965 0018 7B61     		str	r3, [r7, #20]
1063:Drivers/STM32L4xx_HAL_Driver/Src/stm32l4xx_ll_sdmmc.c ****   sdmmc_cmdinit.CPSM             = SDMMC_CPSM_ENABLE;
 1966              		.loc 1 1063 34
 1967 001a 4FF48063 		mov	r3, #1024
 1968 001e BB61     		str	r3, [r7, #24]
1064:Drivers/STM32L4xx_HAL_Driver/Src/stm32l4xx_ll_sdmmc.c ****   (void)SDMMC_SendCommand(SDMMCx, &sdmmc_cmdinit);
 1969              		.loc 1 1064 9
 1970 0020 07F10803 		add	r3, r7, #8
 1971 0024 1946     		mov	r1, r3
 1972 0026 7868     		ldr	r0, [r7, #4]
 1973 0028 FFF7FEFF 		bl	SDMMC_SendCommand
1065:Drivers/STM32L4xx_HAL_Driver/Src/stm32l4xx_ll_sdmmc.c **** 
1066:Drivers/STM32L4xx_HAL_Driver/Src/stm32l4xx_ll_sdmmc.c ****   /* Check for error conditions */
1067:Drivers/STM32L4xx_HAL_Driver/Src/stm32l4xx_ll_sdmmc.c ****   errorstate = SDMMC_GetCmdResp6(SDMMCx, SDMMC_CMD_SET_REL_ADDR, pRCA);
 1974              		.loc 1 1067 16
 1975 002c 3A68     		ldr	r2, [r7]
 1976 002e 0321     		movs	r1, #3
 1977 0030 7868     		ldr	r0, [r7, #4]
 1978 0032 FFF7FEFF 		bl	SDMMC_GetCmdResp6
 1979 0036 F861     		str	r0, [r7, #28]
1068:Drivers/STM32L4xx_HAL_Driver/Src/stm32l4xx_ll_sdmmc.c **** 
1069:Drivers/STM32L4xx_HAL_Driver/Src/stm32l4xx_ll_sdmmc.c ****   return errorstate;
 1980              		.loc 1 1069 10
 1981 0038 FB69     		ldr	r3, [r7, #28]
1070:Drivers/STM32L4xx_HAL_Driver/Src/stm32l4xx_ll_sdmmc.c **** }
 1982              		.loc 1 1070 1
 1983 003a 1846     		mov	r0, r3
 1984 003c 2037     		adds	r7, r7, #32
 1985              		.cfi_def_cfa_offset 8
 1986 003e BD46     		mov	sp, r7
 1987              		.cfi_def_cfa_register 13
 1988              		@ sp needed
 1989 0040 80BD     		pop	{r7, pc}
 1990              		.cfi_endproc
 1991              	.LFE478:
 1993              		.section	.text.SDMMC_CmdSetRelAddMmc,"ax",%progbits
 1994              		.align	1
 1995              		.global	SDMMC_CmdSetRelAddMmc
 1996              		.syntax unified
 1997              		.thumb
 1998              		.thumb_func
 2000              	SDMMC_CmdSetRelAddMmc:
 2001              	.LFB479:
1071:Drivers/STM32L4xx_HAL_Driver/Src/stm32l4xx_ll_sdmmc.c **** 
1072:Drivers/STM32L4xx_HAL_Driver/Src/stm32l4xx_ll_sdmmc.c **** /**
1073:Drivers/STM32L4xx_HAL_Driver/Src/stm32l4xx_ll_sdmmc.c ****   * @brief  Send the Set Relative Address command to MMC card (not SD card).
1074:Drivers/STM32L4xx_HAL_Driver/Src/stm32l4xx_ll_sdmmc.c ****   * @param  SDMMCx Pointer to SDMMC register base
1075:Drivers/STM32L4xx_HAL_Driver/Src/stm32l4xx_ll_sdmmc.c ****   * @param  RCA Card RCA
1076:Drivers/STM32L4xx_HAL_Driver/Src/stm32l4xx_ll_sdmmc.c ****   * @retval HAL status
1077:Drivers/STM32L4xx_HAL_Driver/Src/stm32l4xx_ll_sdmmc.c ****   */
ARM GAS  /tmp/ccZ1T6Sv.s 			page 54


1078:Drivers/STM32L4xx_HAL_Driver/Src/stm32l4xx_ll_sdmmc.c **** uint32_t SDMMC_CmdSetRelAddMmc(SDMMC_TypeDef *SDMMCx, uint16_t RCA)
1079:Drivers/STM32L4xx_HAL_Driver/Src/stm32l4xx_ll_sdmmc.c **** {
 2002              		.loc 1 1079 1
 2003              		.cfi_startproc
 2004              		@ args = 0, pretend = 0, frame = 32
 2005              		@ frame_needed = 1, uses_anonymous_args = 0
 2006 0000 80B5     		push	{r7, lr}
 2007              		.cfi_def_cfa_offset 8
 2008              		.cfi_offset 7, -8
 2009              		.cfi_offset 14, -4
 2010 0002 88B0     		sub	sp, sp, #32
 2011              		.cfi_def_cfa_offset 40
 2012 0004 00AF     		add	r7, sp, #0
 2013              		.cfi_def_cfa_register 7
 2014 0006 7860     		str	r0, [r7, #4]
 2015 0008 0B46     		mov	r3, r1
 2016 000a 7B80     		strh	r3, [r7, #2]	@ movhi
1080:Drivers/STM32L4xx_HAL_Driver/Src/stm32l4xx_ll_sdmmc.c ****   SDMMC_CmdInitTypeDef  sdmmc_cmdinit;
1081:Drivers/STM32L4xx_HAL_Driver/Src/stm32l4xx_ll_sdmmc.c ****   uint32_t errorstate;
1082:Drivers/STM32L4xx_HAL_Driver/Src/stm32l4xx_ll_sdmmc.c **** 
1083:Drivers/STM32L4xx_HAL_Driver/Src/stm32l4xx_ll_sdmmc.c ****   /* Send CMD3 SD_CMD_SET_REL_ADDR */
1084:Drivers/STM32L4xx_HAL_Driver/Src/stm32l4xx_ll_sdmmc.c ****   sdmmc_cmdinit.Argument         = ((uint32_t)RCA << 16U);
 2017              		.loc 1 1084 37
 2018 000c 7B88     		ldrh	r3, [r7, #2]
 2019              		.loc 1 1084 51
 2020 000e 1B04     		lsls	r3, r3, #16
 2021              		.loc 1 1084 34
 2022 0010 BB60     		str	r3, [r7, #8]
1085:Drivers/STM32L4xx_HAL_Driver/Src/stm32l4xx_ll_sdmmc.c ****   sdmmc_cmdinit.CmdIndex         = SDMMC_CMD_SET_REL_ADDR;
 2023              		.loc 1 1085 34
 2024 0012 0323     		movs	r3, #3
 2025 0014 FB60     		str	r3, [r7, #12]
1086:Drivers/STM32L4xx_HAL_Driver/Src/stm32l4xx_ll_sdmmc.c ****   sdmmc_cmdinit.Response         = SDMMC_RESPONSE_SHORT;
 2026              		.loc 1 1086 34
 2027 0016 4023     		movs	r3, #64
 2028 0018 3B61     		str	r3, [r7, #16]
1087:Drivers/STM32L4xx_HAL_Driver/Src/stm32l4xx_ll_sdmmc.c ****   sdmmc_cmdinit.WaitForInterrupt = SDMMC_WAIT_NO;
 2029              		.loc 1 1087 34
 2030 001a 0023     		movs	r3, #0
 2031 001c 7B61     		str	r3, [r7, #20]
1088:Drivers/STM32L4xx_HAL_Driver/Src/stm32l4xx_ll_sdmmc.c ****   sdmmc_cmdinit.CPSM             = SDMMC_CPSM_ENABLE;
 2032              		.loc 1 1088 34
 2033 001e 4FF48063 		mov	r3, #1024
 2034 0022 BB61     		str	r3, [r7, #24]
1089:Drivers/STM32L4xx_HAL_Driver/Src/stm32l4xx_ll_sdmmc.c ****   (void)SDMMC_SendCommand(SDMMCx, &sdmmc_cmdinit);
 2035              		.loc 1 1089 9
 2036 0024 07F10803 		add	r3, r7, #8
 2037 0028 1946     		mov	r1, r3
 2038 002a 7868     		ldr	r0, [r7, #4]
 2039 002c FFF7FEFF 		bl	SDMMC_SendCommand
1090:Drivers/STM32L4xx_HAL_Driver/Src/stm32l4xx_ll_sdmmc.c **** 
1091:Drivers/STM32L4xx_HAL_Driver/Src/stm32l4xx_ll_sdmmc.c ****   /* Check for error conditions */
1092:Drivers/STM32L4xx_HAL_Driver/Src/stm32l4xx_ll_sdmmc.c ****   errorstate = SDMMC_GetCmdResp1(SDMMCx, SDMMC_CMD_SET_REL_ADDR, SDMMC_CMDTIMEOUT);
 2040              		.loc 1 1092 16
 2041 0030 41F28832 		movw	r2, #5000
 2042 0034 0321     		movs	r1, #3
 2043 0036 7868     		ldr	r0, [r7, #4]
ARM GAS  /tmp/ccZ1T6Sv.s 			page 55


 2044 0038 FFF7FEFF 		bl	SDMMC_GetCmdResp1
 2045 003c F861     		str	r0, [r7, #28]
1093:Drivers/STM32L4xx_HAL_Driver/Src/stm32l4xx_ll_sdmmc.c **** 
1094:Drivers/STM32L4xx_HAL_Driver/Src/stm32l4xx_ll_sdmmc.c ****   return errorstate;
 2046              		.loc 1 1094 10
 2047 003e FB69     		ldr	r3, [r7, #28]
1095:Drivers/STM32L4xx_HAL_Driver/Src/stm32l4xx_ll_sdmmc.c **** }
 2048              		.loc 1 1095 1
 2049 0040 1846     		mov	r0, r3
 2050 0042 2037     		adds	r7, r7, #32
 2051              		.cfi_def_cfa_offset 8
 2052 0044 BD46     		mov	sp, r7
 2053              		.cfi_def_cfa_register 13
 2054              		@ sp needed
 2055 0046 80BD     		pop	{r7, pc}
 2056              		.cfi_endproc
 2057              	.LFE479:
 2059              		.section	.text.SDMMC_CmdSleepMmc,"ax",%progbits
 2060              		.align	1
 2061              		.global	SDMMC_CmdSleepMmc
 2062              		.syntax unified
 2063              		.thumb
 2064              		.thumb_func
 2066              	SDMMC_CmdSleepMmc:
 2067              	.LFB480:
1096:Drivers/STM32L4xx_HAL_Driver/Src/stm32l4xx_ll_sdmmc.c **** 
1097:Drivers/STM32L4xx_HAL_Driver/Src/stm32l4xx_ll_sdmmc.c **** /**
1098:Drivers/STM32L4xx_HAL_Driver/Src/stm32l4xx_ll_sdmmc.c ****   * @brief  Send the Sleep command to MMC card (not SD card).
1099:Drivers/STM32L4xx_HAL_Driver/Src/stm32l4xx_ll_sdmmc.c ****   * @param  SDMMCx Pointer to SDMMC register base
1100:Drivers/STM32L4xx_HAL_Driver/Src/stm32l4xx_ll_sdmmc.c ****   * @param  Argument Argument of the command (RCA and Sleep/Awake)
1101:Drivers/STM32L4xx_HAL_Driver/Src/stm32l4xx_ll_sdmmc.c ****   * @retval HAL status
1102:Drivers/STM32L4xx_HAL_Driver/Src/stm32l4xx_ll_sdmmc.c ****   */
1103:Drivers/STM32L4xx_HAL_Driver/Src/stm32l4xx_ll_sdmmc.c **** uint32_t SDMMC_CmdSleepMmc(SDMMC_TypeDef *SDMMCx, uint32_t Argument)
1104:Drivers/STM32L4xx_HAL_Driver/Src/stm32l4xx_ll_sdmmc.c **** {
 2068              		.loc 1 1104 1
 2069              		.cfi_startproc
 2070              		@ args = 0, pretend = 0, frame = 32
 2071              		@ frame_needed = 1, uses_anonymous_args = 0
 2072 0000 80B5     		push	{r7, lr}
 2073              		.cfi_def_cfa_offset 8
 2074              		.cfi_offset 7, -8
 2075              		.cfi_offset 14, -4
 2076 0002 88B0     		sub	sp, sp, #32
 2077              		.cfi_def_cfa_offset 40
 2078 0004 00AF     		add	r7, sp, #0
 2079              		.cfi_def_cfa_register 7
 2080 0006 7860     		str	r0, [r7, #4]
 2081 0008 3960     		str	r1, [r7]
1105:Drivers/STM32L4xx_HAL_Driver/Src/stm32l4xx_ll_sdmmc.c ****   SDMMC_CmdInitTypeDef  sdmmc_cmdinit;
1106:Drivers/STM32L4xx_HAL_Driver/Src/stm32l4xx_ll_sdmmc.c ****   uint32_t errorstate;
1107:Drivers/STM32L4xx_HAL_Driver/Src/stm32l4xx_ll_sdmmc.c **** 
1108:Drivers/STM32L4xx_HAL_Driver/Src/stm32l4xx_ll_sdmmc.c ****   /* Send CMD5 SDMMC_CMD_MMC_SLEEP_AWAKE */
1109:Drivers/STM32L4xx_HAL_Driver/Src/stm32l4xx_ll_sdmmc.c ****   sdmmc_cmdinit.Argument         = Argument;
 2082              		.loc 1 1109 34
 2083 000a 3B68     		ldr	r3, [r7]
 2084 000c BB60     		str	r3, [r7, #8]
1110:Drivers/STM32L4xx_HAL_Driver/Src/stm32l4xx_ll_sdmmc.c ****   sdmmc_cmdinit.CmdIndex         = SDMMC_CMD_MMC_SLEEP_AWAKE;
ARM GAS  /tmp/ccZ1T6Sv.s 			page 56


 2085              		.loc 1 1110 34
 2086 000e 0523     		movs	r3, #5
 2087 0010 FB60     		str	r3, [r7, #12]
1111:Drivers/STM32L4xx_HAL_Driver/Src/stm32l4xx_ll_sdmmc.c ****   sdmmc_cmdinit.Response         = SDMMC_RESPONSE_SHORT;
 2088              		.loc 1 1111 34
 2089 0012 4023     		movs	r3, #64
 2090 0014 3B61     		str	r3, [r7, #16]
1112:Drivers/STM32L4xx_HAL_Driver/Src/stm32l4xx_ll_sdmmc.c ****   sdmmc_cmdinit.WaitForInterrupt = SDMMC_WAIT_NO;
 2091              		.loc 1 1112 34
 2092 0016 0023     		movs	r3, #0
 2093 0018 7B61     		str	r3, [r7, #20]
1113:Drivers/STM32L4xx_HAL_Driver/Src/stm32l4xx_ll_sdmmc.c ****   sdmmc_cmdinit.CPSM             = SDMMC_CPSM_ENABLE;
 2094              		.loc 1 1113 34
 2095 001a 4FF48063 		mov	r3, #1024
 2096 001e BB61     		str	r3, [r7, #24]
1114:Drivers/STM32L4xx_HAL_Driver/Src/stm32l4xx_ll_sdmmc.c ****   (void)SDMMC_SendCommand(SDMMCx, &sdmmc_cmdinit);
 2097              		.loc 1 1114 9
 2098 0020 07F10803 		add	r3, r7, #8
 2099 0024 1946     		mov	r1, r3
 2100 0026 7868     		ldr	r0, [r7, #4]
 2101 0028 FFF7FEFF 		bl	SDMMC_SendCommand
1115:Drivers/STM32L4xx_HAL_Driver/Src/stm32l4xx_ll_sdmmc.c **** 
1116:Drivers/STM32L4xx_HAL_Driver/Src/stm32l4xx_ll_sdmmc.c ****   /* Check for error conditions */
1117:Drivers/STM32L4xx_HAL_Driver/Src/stm32l4xx_ll_sdmmc.c ****   errorstate = SDMMC_GetCmdResp1(SDMMCx, SDMMC_CMD_MMC_SLEEP_AWAKE, SDMMC_CMDTIMEOUT);
 2102              		.loc 1 1117 16
 2103 002c 41F28832 		movw	r2, #5000
 2104 0030 0521     		movs	r1, #5
 2105 0032 7868     		ldr	r0, [r7, #4]
 2106 0034 FFF7FEFF 		bl	SDMMC_GetCmdResp1
 2107 0038 F861     		str	r0, [r7, #28]
1118:Drivers/STM32L4xx_HAL_Driver/Src/stm32l4xx_ll_sdmmc.c **** 
1119:Drivers/STM32L4xx_HAL_Driver/Src/stm32l4xx_ll_sdmmc.c ****   return errorstate;
 2108              		.loc 1 1119 10
 2109 003a FB69     		ldr	r3, [r7, #28]
1120:Drivers/STM32L4xx_HAL_Driver/Src/stm32l4xx_ll_sdmmc.c **** }
 2110              		.loc 1 1120 1
 2111 003c 1846     		mov	r0, r3
 2112 003e 2037     		adds	r7, r7, #32
 2113              		.cfi_def_cfa_offset 8
 2114 0040 BD46     		mov	sp, r7
 2115              		.cfi_def_cfa_register 13
 2116              		@ sp needed
 2117 0042 80BD     		pop	{r7, pc}
 2118              		.cfi_endproc
 2119              	.LFE480:
 2121              		.section	.text.SDMMC_CmdSendStatus,"ax",%progbits
 2122              		.align	1
 2123              		.global	SDMMC_CmdSendStatus
 2124              		.syntax unified
 2125              		.thumb
 2126              		.thumb_func
 2128              	SDMMC_CmdSendStatus:
 2129              	.LFB481:
1121:Drivers/STM32L4xx_HAL_Driver/Src/stm32l4xx_ll_sdmmc.c **** 
1122:Drivers/STM32L4xx_HAL_Driver/Src/stm32l4xx_ll_sdmmc.c **** /**
1123:Drivers/STM32L4xx_HAL_Driver/Src/stm32l4xx_ll_sdmmc.c ****   * @brief  Send the Status command and check the response.
1124:Drivers/STM32L4xx_HAL_Driver/Src/stm32l4xx_ll_sdmmc.c ****   * @param  SDMMCx: Pointer to SDMMC register base
ARM GAS  /tmp/ccZ1T6Sv.s 			page 57


1125:Drivers/STM32L4xx_HAL_Driver/Src/stm32l4xx_ll_sdmmc.c ****   * @param  Argument: Command Argument
1126:Drivers/STM32L4xx_HAL_Driver/Src/stm32l4xx_ll_sdmmc.c ****   * @retval HAL status
1127:Drivers/STM32L4xx_HAL_Driver/Src/stm32l4xx_ll_sdmmc.c ****   */
1128:Drivers/STM32L4xx_HAL_Driver/Src/stm32l4xx_ll_sdmmc.c **** uint32_t SDMMC_CmdSendStatus(SDMMC_TypeDef *SDMMCx, uint32_t Argument)
1129:Drivers/STM32L4xx_HAL_Driver/Src/stm32l4xx_ll_sdmmc.c **** {
 2130              		.loc 1 1129 1
 2131              		.cfi_startproc
 2132              		@ args = 0, pretend = 0, frame = 32
 2133              		@ frame_needed = 1, uses_anonymous_args = 0
 2134 0000 80B5     		push	{r7, lr}
 2135              		.cfi_def_cfa_offset 8
 2136              		.cfi_offset 7, -8
 2137              		.cfi_offset 14, -4
 2138 0002 88B0     		sub	sp, sp, #32
 2139              		.cfi_def_cfa_offset 40
 2140 0004 00AF     		add	r7, sp, #0
 2141              		.cfi_def_cfa_register 7
 2142 0006 7860     		str	r0, [r7, #4]
 2143 0008 3960     		str	r1, [r7]
1130:Drivers/STM32L4xx_HAL_Driver/Src/stm32l4xx_ll_sdmmc.c ****   SDMMC_CmdInitTypeDef  sdmmc_cmdinit;
1131:Drivers/STM32L4xx_HAL_Driver/Src/stm32l4xx_ll_sdmmc.c ****   uint32_t errorstate;
1132:Drivers/STM32L4xx_HAL_Driver/Src/stm32l4xx_ll_sdmmc.c **** 
1133:Drivers/STM32L4xx_HAL_Driver/Src/stm32l4xx_ll_sdmmc.c ****   sdmmc_cmdinit.Argument         = Argument;
 2144              		.loc 1 1133 34
 2145 000a 3B68     		ldr	r3, [r7]
 2146 000c BB60     		str	r3, [r7, #8]
1134:Drivers/STM32L4xx_HAL_Driver/Src/stm32l4xx_ll_sdmmc.c ****   sdmmc_cmdinit.CmdIndex         = SDMMC_CMD_SEND_STATUS;
 2147              		.loc 1 1134 34
 2148 000e 0D23     		movs	r3, #13
 2149 0010 FB60     		str	r3, [r7, #12]
1135:Drivers/STM32L4xx_HAL_Driver/Src/stm32l4xx_ll_sdmmc.c ****   sdmmc_cmdinit.Response         = SDMMC_RESPONSE_SHORT;
 2150              		.loc 1 1135 34
 2151 0012 4023     		movs	r3, #64
 2152 0014 3B61     		str	r3, [r7, #16]
1136:Drivers/STM32L4xx_HAL_Driver/Src/stm32l4xx_ll_sdmmc.c ****   sdmmc_cmdinit.WaitForInterrupt = SDMMC_WAIT_NO;
 2153              		.loc 1 1136 34
 2154 0016 0023     		movs	r3, #0
 2155 0018 7B61     		str	r3, [r7, #20]
1137:Drivers/STM32L4xx_HAL_Driver/Src/stm32l4xx_ll_sdmmc.c ****   sdmmc_cmdinit.CPSM             = SDMMC_CPSM_ENABLE;
 2156              		.loc 1 1137 34
 2157 001a 4FF48063 		mov	r3, #1024
 2158 001e BB61     		str	r3, [r7, #24]
1138:Drivers/STM32L4xx_HAL_Driver/Src/stm32l4xx_ll_sdmmc.c ****   (void)SDMMC_SendCommand(SDMMCx, &sdmmc_cmdinit);
 2159              		.loc 1 1138 9
 2160 0020 07F10803 		add	r3, r7, #8
 2161 0024 1946     		mov	r1, r3
 2162 0026 7868     		ldr	r0, [r7, #4]
 2163 0028 FFF7FEFF 		bl	SDMMC_SendCommand
1139:Drivers/STM32L4xx_HAL_Driver/Src/stm32l4xx_ll_sdmmc.c **** 
1140:Drivers/STM32L4xx_HAL_Driver/Src/stm32l4xx_ll_sdmmc.c ****   /* Check for error conditions */
1141:Drivers/STM32L4xx_HAL_Driver/Src/stm32l4xx_ll_sdmmc.c ****   errorstate = SDMMC_GetCmdResp1(SDMMCx, SDMMC_CMD_SEND_STATUS, SDMMC_CMDTIMEOUT);
 2164              		.loc 1 1141 16
 2165 002c 41F28832 		movw	r2, #5000
 2166 0030 0D21     		movs	r1, #13
 2167 0032 7868     		ldr	r0, [r7, #4]
 2168 0034 FFF7FEFF 		bl	SDMMC_GetCmdResp1
 2169 0038 F861     		str	r0, [r7, #28]
ARM GAS  /tmp/ccZ1T6Sv.s 			page 58


1142:Drivers/STM32L4xx_HAL_Driver/Src/stm32l4xx_ll_sdmmc.c **** 
1143:Drivers/STM32L4xx_HAL_Driver/Src/stm32l4xx_ll_sdmmc.c ****   return errorstate;
 2170              		.loc 1 1143 10
 2171 003a FB69     		ldr	r3, [r7, #28]
1144:Drivers/STM32L4xx_HAL_Driver/Src/stm32l4xx_ll_sdmmc.c **** }
 2172              		.loc 1 1144 1
 2173 003c 1846     		mov	r0, r3
 2174 003e 2037     		adds	r7, r7, #32
 2175              		.cfi_def_cfa_offset 8
 2176 0040 BD46     		mov	sp, r7
 2177              		.cfi_def_cfa_register 13
 2178              		@ sp needed
 2179 0042 80BD     		pop	{r7, pc}
 2180              		.cfi_endproc
 2181              	.LFE481:
 2183              		.section	.text.SDMMC_CmdStatusRegister,"ax",%progbits
 2184              		.align	1
 2185              		.global	SDMMC_CmdStatusRegister
 2186              		.syntax unified
 2187              		.thumb
 2188              		.thumb_func
 2190              	SDMMC_CmdStatusRegister:
 2191              	.LFB482:
1145:Drivers/STM32L4xx_HAL_Driver/Src/stm32l4xx_ll_sdmmc.c **** 
1146:Drivers/STM32L4xx_HAL_Driver/Src/stm32l4xx_ll_sdmmc.c **** /**
1147:Drivers/STM32L4xx_HAL_Driver/Src/stm32l4xx_ll_sdmmc.c ****   * @brief  Send the Status register command and check the response.
1148:Drivers/STM32L4xx_HAL_Driver/Src/stm32l4xx_ll_sdmmc.c ****   * @param  SDMMCx: Pointer to SDMMC register base
1149:Drivers/STM32L4xx_HAL_Driver/Src/stm32l4xx_ll_sdmmc.c ****   * @retval HAL status
1150:Drivers/STM32L4xx_HAL_Driver/Src/stm32l4xx_ll_sdmmc.c ****   */
1151:Drivers/STM32L4xx_HAL_Driver/Src/stm32l4xx_ll_sdmmc.c **** uint32_t SDMMC_CmdStatusRegister(SDMMC_TypeDef *SDMMCx)
1152:Drivers/STM32L4xx_HAL_Driver/Src/stm32l4xx_ll_sdmmc.c **** {
 2192              		.loc 1 1152 1
 2193              		.cfi_startproc
 2194              		@ args = 0, pretend = 0, frame = 32
 2195              		@ frame_needed = 1, uses_anonymous_args = 0
 2196 0000 80B5     		push	{r7, lr}
 2197              		.cfi_def_cfa_offset 8
 2198              		.cfi_offset 7, -8
 2199              		.cfi_offset 14, -4
 2200 0002 88B0     		sub	sp, sp, #32
 2201              		.cfi_def_cfa_offset 40
 2202 0004 00AF     		add	r7, sp, #0
 2203              		.cfi_def_cfa_register 7
 2204 0006 7860     		str	r0, [r7, #4]
1153:Drivers/STM32L4xx_HAL_Driver/Src/stm32l4xx_ll_sdmmc.c ****   SDMMC_CmdInitTypeDef  sdmmc_cmdinit;
1154:Drivers/STM32L4xx_HAL_Driver/Src/stm32l4xx_ll_sdmmc.c ****   uint32_t errorstate;
1155:Drivers/STM32L4xx_HAL_Driver/Src/stm32l4xx_ll_sdmmc.c **** 
1156:Drivers/STM32L4xx_HAL_Driver/Src/stm32l4xx_ll_sdmmc.c ****   sdmmc_cmdinit.Argument         = 0U;
 2205              		.loc 1 1156 34
 2206 0008 0023     		movs	r3, #0
 2207 000a BB60     		str	r3, [r7, #8]
1157:Drivers/STM32L4xx_HAL_Driver/Src/stm32l4xx_ll_sdmmc.c ****   sdmmc_cmdinit.CmdIndex         = SDMMC_CMD_SD_APP_STATUS;
 2208              		.loc 1 1157 34
 2209 000c 0D23     		movs	r3, #13
 2210 000e FB60     		str	r3, [r7, #12]
1158:Drivers/STM32L4xx_HAL_Driver/Src/stm32l4xx_ll_sdmmc.c ****   sdmmc_cmdinit.Response         = SDMMC_RESPONSE_SHORT;
 2211              		.loc 1 1158 34
ARM GAS  /tmp/ccZ1T6Sv.s 			page 59


 2212 0010 4023     		movs	r3, #64
 2213 0012 3B61     		str	r3, [r7, #16]
1159:Drivers/STM32L4xx_HAL_Driver/Src/stm32l4xx_ll_sdmmc.c ****   sdmmc_cmdinit.WaitForInterrupt = SDMMC_WAIT_NO;
 2214              		.loc 1 1159 34
 2215 0014 0023     		movs	r3, #0
 2216 0016 7B61     		str	r3, [r7, #20]
1160:Drivers/STM32L4xx_HAL_Driver/Src/stm32l4xx_ll_sdmmc.c ****   sdmmc_cmdinit.CPSM             = SDMMC_CPSM_ENABLE;
 2217              		.loc 1 1160 34
 2218 0018 4FF48063 		mov	r3, #1024
 2219 001c BB61     		str	r3, [r7, #24]
1161:Drivers/STM32L4xx_HAL_Driver/Src/stm32l4xx_ll_sdmmc.c ****   (void)SDMMC_SendCommand(SDMMCx, &sdmmc_cmdinit);
 2220              		.loc 1 1161 9
 2221 001e 07F10803 		add	r3, r7, #8
 2222 0022 1946     		mov	r1, r3
 2223 0024 7868     		ldr	r0, [r7, #4]
 2224 0026 FFF7FEFF 		bl	SDMMC_SendCommand
1162:Drivers/STM32L4xx_HAL_Driver/Src/stm32l4xx_ll_sdmmc.c **** 
1163:Drivers/STM32L4xx_HAL_Driver/Src/stm32l4xx_ll_sdmmc.c ****   /* Check for error conditions */
1164:Drivers/STM32L4xx_HAL_Driver/Src/stm32l4xx_ll_sdmmc.c ****   errorstate = SDMMC_GetCmdResp1(SDMMCx, SDMMC_CMD_SD_APP_STATUS, SDMMC_CMDTIMEOUT);
 2225              		.loc 1 1164 16
 2226 002a 41F28832 		movw	r2, #5000
 2227 002e 0D21     		movs	r1, #13
 2228 0030 7868     		ldr	r0, [r7, #4]
 2229 0032 FFF7FEFF 		bl	SDMMC_GetCmdResp1
 2230 0036 F861     		str	r0, [r7, #28]
1165:Drivers/STM32L4xx_HAL_Driver/Src/stm32l4xx_ll_sdmmc.c **** 
1166:Drivers/STM32L4xx_HAL_Driver/Src/stm32l4xx_ll_sdmmc.c ****   return errorstate;
 2231              		.loc 1 1166 10
 2232 0038 FB69     		ldr	r3, [r7, #28]
1167:Drivers/STM32L4xx_HAL_Driver/Src/stm32l4xx_ll_sdmmc.c **** }
 2233              		.loc 1 1167 1
 2234 003a 1846     		mov	r0, r3
 2235 003c 2037     		adds	r7, r7, #32
 2236              		.cfi_def_cfa_offset 8
 2237 003e BD46     		mov	sp, r7
 2238              		.cfi_def_cfa_register 13
 2239              		@ sp needed
 2240 0040 80BD     		pop	{r7, pc}
 2241              		.cfi_endproc
 2242              	.LFE482:
 2244              		.section	.text.SDMMC_CmdOpCondition,"ax",%progbits
 2245              		.align	1
 2246              		.global	SDMMC_CmdOpCondition
 2247              		.syntax unified
 2248              		.thumb
 2249              		.thumb_func
 2251              	SDMMC_CmdOpCondition:
 2252              	.LFB483:
1168:Drivers/STM32L4xx_HAL_Driver/Src/stm32l4xx_ll_sdmmc.c **** 
1169:Drivers/STM32L4xx_HAL_Driver/Src/stm32l4xx_ll_sdmmc.c **** /**
1170:Drivers/STM32L4xx_HAL_Driver/Src/stm32l4xx_ll_sdmmc.c ****   * @brief  Sends host capacity support information and activates the card's
1171:Drivers/STM32L4xx_HAL_Driver/Src/stm32l4xx_ll_sdmmc.c ****   *         initialization process. Send SDMMC_CMD_SEND_OP_COND command
1172:Drivers/STM32L4xx_HAL_Driver/Src/stm32l4xx_ll_sdmmc.c ****   * @param  SDMMCx: Pointer to SDMMC register base
1173:Drivers/STM32L4xx_HAL_Driver/Src/stm32l4xx_ll_sdmmc.c ****   * @parame Argument: Argument used for the command
1174:Drivers/STM32L4xx_HAL_Driver/Src/stm32l4xx_ll_sdmmc.c ****   * @retval HAL status
1175:Drivers/STM32L4xx_HAL_Driver/Src/stm32l4xx_ll_sdmmc.c ****   */
1176:Drivers/STM32L4xx_HAL_Driver/Src/stm32l4xx_ll_sdmmc.c **** uint32_t SDMMC_CmdOpCondition(SDMMC_TypeDef *SDMMCx, uint32_t Argument)
ARM GAS  /tmp/ccZ1T6Sv.s 			page 60


1177:Drivers/STM32L4xx_HAL_Driver/Src/stm32l4xx_ll_sdmmc.c **** {
 2253              		.loc 1 1177 1
 2254              		.cfi_startproc
 2255              		@ args = 0, pretend = 0, frame = 32
 2256              		@ frame_needed = 1, uses_anonymous_args = 0
 2257 0000 80B5     		push	{r7, lr}
 2258              		.cfi_def_cfa_offset 8
 2259              		.cfi_offset 7, -8
 2260              		.cfi_offset 14, -4
 2261 0002 88B0     		sub	sp, sp, #32
 2262              		.cfi_def_cfa_offset 40
 2263 0004 00AF     		add	r7, sp, #0
 2264              		.cfi_def_cfa_register 7
 2265 0006 7860     		str	r0, [r7, #4]
 2266 0008 3960     		str	r1, [r7]
1178:Drivers/STM32L4xx_HAL_Driver/Src/stm32l4xx_ll_sdmmc.c ****   SDMMC_CmdInitTypeDef  sdmmc_cmdinit;
1179:Drivers/STM32L4xx_HAL_Driver/Src/stm32l4xx_ll_sdmmc.c ****   uint32_t errorstate;
1180:Drivers/STM32L4xx_HAL_Driver/Src/stm32l4xx_ll_sdmmc.c **** 
1181:Drivers/STM32L4xx_HAL_Driver/Src/stm32l4xx_ll_sdmmc.c ****   sdmmc_cmdinit.Argument         = Argument;
 2267              		.loc 1 1181 34
 2268 000a 3B68     		ldr	r3, [r7]
 2269 000c BB60     		str	r3, [r7, #8]
1182:Drivers/STM32L4xx_HAL_Driver/Src/stm32l4xx_ll_sdmmc.c ****   sdmmc_cmdinit.CmdIndex         = SDMMC_CMD_SEND_OP_COND;
 2270              		.loc 1 1182 34
 2271 000e 0123     		movs	r3, #1
 2272 0010 FB60     		str	r3, [r7, #12]
1183:Drivers/STM32L4xx_HAL_Driver/Src/stm32l4xx_ll_sdmmc.c ****   sdmmc_cmdinit.Response         = SDMMC_RESPONSE_SHORT;
 2273              		.loc 1 1183 34
 2274 0012 4023     		movs	r3, #64
 2275 0014 3B61     		str	r3, [r7, #16]
1184:Drivers/STM32L4xx_HAL_Driver/Src/stm32l4xx_ll_sdmmc.c ****   sdmmc_cmdinit.WaitForInterrupt = SDMMC_WAIT_NO;
 2276              		.loc 1 1184 34
 2277 0016 0023     		movs	r3, #0
 2278 0018 7B61     		str	r3, [r7, #20]
1185:Drivers/STM32L4xx_HAL_Driver/Src/stm32l4xx_ll_sdmmc.c ****   sdmmc_cmdinit.CPSM             = SDMMC_CPSM_ENABLE;
 2279              		.loc 1 1185 34
 2280 001a 4FF48063 		mov	r3, #1024
 2281 001e BB61     		str	r3, [r7, #24]
1186:Drivers/STM32L4xx_HAL_Driver/Src/stm32l4xx_ll_sdmmc.c ****   (void)SDMMC_SendCommand(SDMMCx, &sdmmc_cmdinit);
 2282              		.loc 1 1186 9
 2283 0020 07F10803 		add	r3, r7, #8
 2284 0024 1946     		mov	r1, r3
 2285 0026 7868     		ldr	r0, [r7, #4]
 2286 0028 FFF7FEFF 		bl	SDMMC_SendCommand
1187:Drivers/STM32L4xx_HAL_Driver/Src/stm32l4xx_ll_sdmmc.c **** 
1188:Drivers/STM32L4xx_HAL_Driver/Src/stm32l4xx_ll_sdmmc.c ****   /* Check for error conditions */
1189:Drivers/STM32L4xx_HAL_Driver/Src/stm32l4xx_ll_sdmmc.c ****   errorstate = SDMMC_GetCmdResp3(SDMMCx);
 2287              		.loc 1 1189 16
 2288 002c 7868     		ldr	r0, [r7, #4]
 2289 002e FFF7FEFF 		bl	SDMMC_GetCmdResp3
 2290 0032 F861     		str	r0, [r7, #28]
1190:Drivers/STM32L4xx_HAL_Driver/Src/stm32l4xx_ll_sdmmc.c **** 
1191:Drivers/STM32L4xx_HAL_Driver/Src/stm32l4xx_ll_sdmmc.c ****   return errorstate;
 2291              		.loc 1 1191 10
 2292 0034 FB69     		ldr	r3, [r7, #28]
1192:Drivers/STM32L4xx_HAL_Driver/Src/stm32l4xx_ll_sdmmc.c **** }
 2293              		.loc 1 1192 1
ARM GAS  /tmp/ccZ1T6Sv.s 			page 61


 2294 0036 1846     		mov	r0, r3
 2295 0038 2037     		adds	r7, r7, #32
 2296              		.cfi_def_cfa_offset 8
 2297 003a BD46     		mov	sp, r7
 2298              		.cfi_def_cfa_register 13
 2299              		@ sp needed
 2300 003c 80BD     		pop	{r7, pc}
 2301              		.cfi_endproc
 2302              	.LFE483:
 2304              		.section	.text.SDMMC_CmdSwitch,"ax",%progbits
 2305              		.align	1
 2306              		.global	SDMMC_CmdSwitch
 2307              		.syntax unified
 2308              		.thumb
 2309              		.thumb_func
 2311              	SDMMC_CmdSwitch:
 2312              	.LFB484:
1193:Drivers/STM32L4xx_HAL_Driver/Src/stm32l4xx_ll_sdmmc.c **** 
1194:Drivers/STM32L4xx_HAL_Driver/Src/stm32l4xx_ll_sdmmc.c **** /**
1195:Drivers/STM32L4xx_HAL_Driver/Src/stm32l4xx_ll_sdmmc.c ****   * @brief  Checks switchable function and switch card function. SDMMC_CMD_HS_SWITCH command
1196:Drivers/STM32L4xx_HAL_Driver/Src/stm32l4xx_ll_sdmmc.c ****   * @param  SDMMCx: Pointer to SDMMC register base
1197:Drivers/STM32L4xx_HAL_Driver/Src/stm32l4xx_ll_sdmmc.c ****   * @parame Argument: Argument used for the command
1198:Drivers/STM32L4xx_HAL_Driver/Src/stm32l4xx_ll_sdmmc.c ****   * @retval HAL status
1199:Drivers/STM32L4xx_HAL_Driver/Src/stm32l4xx_ll_sdmmc.c ****   */
1200:Drivers/STM32L4xx_HAL_Driver/Src/stm32l4xx_ll_sdmmc.c **** uint32_t SDMMC_CmdSwitch(SDMMC_TypeDef *SDMMCx, uint32_t Argument)
1201:Drivers/STM32L4xx_HAL_Driver/Src/stm32l4xx_ll_sdmmc.c **** {
 2313              		.loc 1 1201 1
 2314              		.cfi_startproc
 2315              		@ args = 0, pretend = 0, frame = 32
 2316              		@ frame_needed = 1, uses_anonymous_args = 0
 2317 0000 80B5     		push	{r7, lr}
 2318              		.cfi_def_cfa_offset 8
 2319              		.cfi_offset 7, -8
 2320              		.cfi_offset 14, -4
 2321 0002 88B0     		sub	sp, sp, #32
 2322              		.cfi_def_cfa_offset 40
 2323 0004 00AF     		add	r7, sp, #0
 2324              		.cfi_def_cfa_register 7
 2325 0006 7860     		str	r0, [r7, #4]
 2326 0008 3960     		str	r1, [r7]
1202:Drivers/STM32L4xx_HAL_Driver/Src/stm32l4xx_ll_sdmmc.c ****   SDMMC_CmdInitTypeDef  sdmmc_cmdinit;
1203:Drivers/STM32L4xx_HAL_Driver/Src/stm32l4xx_ll_sdmmc.c ****   uint32_t errorstate;
1204:Drivers/STM32L4xx_HAL_Driver/Src/stm32l4xx_ll_sdmmc.c **** 
1205:Drivers/STM32L4xx_HAL_Driver/Src/stm32l4xx_ll_sdmmc.c ****   /* Send CMD6 to activate SDR50 Mode and Power Limit 1.44W */
1206:Drivers/STM32L4xx_HAL_Driver/Src/stm32l4xx_ll_sdmmc.c ****   /* CMD Response: R1 */
1207:Drivers/STM32L4xx_HAL_Driver/Src/stm32l4xx_ll_sdmmc.c ****   sdmmc_cmdinit.Argument         = Argument; /* SDMMC_SDR25_SWITCH_PATTERN */
 2327              		.loc 1 1207 34
 2328 000a 3B68     		ldr	r3, [r7]
 2329 000c BB60     		str	r3, [r7, #8]
1208:Drivers/STM32L4xx_HAL_Driver/Src/stm32l4xx_ll_sdmmc.c ****   sdmmc_cmdinit.CmdIndex         = SDMMC_CMD_HS_SWITCH;
 2330              		.loc 1 1208 34
 2331 000e 0623     		movs	r3, #6
 2332 0010 FB60     		str	r3, [r7, #12]
1209:Drivers/STM32L4xx_HAL_Driver/Src/stm32l4xx_ll_sdmmc.c ****   sdmmc_cmdinit.Response         = SDMMC_RESPONSE_SHORT;
 2333              		.loc 1 1209 34
 2334 0012 4023     		movs	r3, #64
 2335 0014 3B61     		str	r3, [r7, #16]
ARM GAS  /tmp/ccZ1T6Sv.s 			page 62


1210:Drivers/STM32L4xx_HAL_Driver/Src/stm32l4xx_ll_sdmmc.c ****   sdmmc_cmdinit.WaitForInterrupt = SDMMC_WAIT_NO;
 2336              		.loc 1 1210 34
 2337 0016 0023     		movs	r3, #0
 2338 0018 7B61     		str	r3, [r7, #20]
1211:Drivers/STM32L4xx_HAL_Driver/Src/stm32l4xx_ll_sdmmc.c ****   sdmmc_cmdinit.CPSM             = SDMMC_CPSM_ENABLE;
 2339              		.loc 1 1211 34
 2340 001a 4FF48063 		mov	r3, #1024
 2341 001e BB61     		str	r3, [r7, #24]
1212:Drivers/STM32L4xx_HAL_Driver/Src/stm32l4xx_ll_sdmmc.c ****   (void)SDMMC_SendCommand(SDMMCx, &sdmmc_cmdinit);
 2342              		.loc 1 1212 9
 2343 0020 07F10803 		add	r3, r7, #8
 2344 0024 1946     		mov	r1, r3
 2345 0026 7868     		ldr	r0, [r7, #4]
 2346 0028 FFF7FEFF 		bl	SDMMC_SendCommand
1213:Drivers/STM32L4xx_HAL_Driver/Src/stm32l4xx_ll_sdmmc.c **** 
1214:Drivers/STM32L4xx_HAL_Driver/Src/stm32l4xx_ll_sdmmc.c ****   /* Check for error conditions */
1215:Drivers/STM32L4xx_HAL_Driver/Src/stm32l4xx_ll_sdmmc.c ****   errorstate = SDMMC_GetCmdResp1(SDMMCx, SDMMC_CMD_HS_SWITCH, SDMMC_CMDTIMEOUT);
 2347              		.loc 1 1215 16
 2348 002c 41F28832 		movw	r2, #5000
 2349 0030 0621     		movs	r1, #6
 2350 0032 7868     		ldr	r0, [r7, #4]
 2351 0034 FFF7FEFF 		bl	SDMMC_GetCmdResp1
 2352 0038 F861     		str	r0, [r7, #28]
1216:Drivers/STM32L4xx_HAL_Driver/Src/stm32l4xx_ll_sdmmc.c **** 
1217:Drivers/STM32L4xx_HAL_Driver/Src/stm32l4xx_ll_sdmmc.c ****   return errorstate;
 2353              		.loc 1 1217 10
 2354 003a FB69     		ldr	r3, [r7, #28]
1218:Drivers/STM32L4xx_HAL_Driver/Src/stm32l4xx_ll_sdmmc.c **** }
 2355              		.loc 1 1218 1
 2356 003c 1846     		mov	r0, r3
 2357 003e 2037     		adds	r7, r7, #32
 2358              		.cfi_def_cfa_offset 8
 2359 0040 BD46     		mov	sp, r7
 2360              		.cfi_def_cfa_register 13
 2361              		@ sp needed
 2362 0042 80BD     		pop	{r7, pc}
 2363              		.cfi_endproc
 2364              	.LFE484:
 2366              		.section	.text.SDMMC_CmdSendEXTCSD,"ax",%progbits
 2367              		.align	1
 2368              		.global	SDMMC_CmdSendEXTCSD
 2369              		.syntax unified
 2370              		.thumb
 2371              		.thumb_func
 2373              	SDMMC_CmdSendEXTCSD:
 2374              	.LFB485:
1219:Drivers/STM32L4xx_HAL_Driver/Src/stm32l4xx_ll_sdmmc.c **** 
1220:Drivers/STM32L4xx_HAL_Driver/Src/stm32l4xx_ll_sdmmc.c **** #if defined(STM32L4P5xx) || defined(STM32L4Q5xx) || defined(STM32L4R5xx) || defined(STM32L4R7xx) ||
1221:Drivers/STM32L4xx_HAL_Driver/Src/stm32l4xx_ll_sdmmc.c **** /**
1222:Drivers/STM32L4xx_HAL_Driver/Src/stm32l4xx_ll_sdmmc.c ****   * @brief  Send the command asking the accessed card to send its operating
1223:Drivers/STM32L4xx_HAL_Driver/Src/stm32l4xx_ll_sdmmc.c ****   *         condition register (OCR)
1224:Drivers/STM32L4xx_HAL_Driver/Src/stm32l4xx_ll_sdmmc.c ****   * @param  None
1225:Drivers/STM32L4xx_HAL_Driver/Src/stm32l4xx_ll_sdmmc.c ****   * @retval HAL status
1226:Drivers/STM32L4xx_HAL_Driver/Src/stm32l4xx_ll_sdmmc.c ****   */
1227:Drivers/STM32L4xx_HAL_Driver/Src/stm32l4xx_ll_sdmmc.c **** uint32_t SDMMC_CmdVoltageSwitch(SDMMC_TypeDef *SDMMCx)
1228:Drivers/STM32L4xx_HAL_Driver/Src/stm32l4xx_ll_sdmmc.c **** {
1229:Drivers/STM32L4xx_HAL_Driver/Src/stm32l4xx_ll_sdmmc.c ****   SDMMC_CmdInitTypeDef  sdmmc_cmdinit;
ARM GAS  /tmp/ccZ1T6Sv.s 			page 63


1230:Drivers/STM32L4xx_HAL_Driver/Src/stm32l4xx_ll_sdmmc.c ****   uint32_t errorstate;
1231:Drivers/STM32L4xx_HAL_Driver/Src/stm32l4xx_ll_sdmmc.c **** 
1232:Drivers/STM32L4xx_HAL_Driver/Src/stm32l4xx_ll_sdmmc.c ****   sdmmc_cmdinit.Argument         = 0x00000000;
1233:Drivers/STM32L4xx_HAL_Driver/Src/stm32l4xx_ll_sdmmc.c ****   sdmmc_cmdinit.CmdIndex         = SDMMC_CMD_VOLTAGE_SWITCH;
1234:Drivers/STM32L4xx_HAL_Driver/Src/stm32l4xx_ll_sdmmc.c ****   sdmmc_cmdinit.Response         = SDMMC_RESPONSE_SHORT;
1235:Drivers/STM32L4xx_HAL_Driver/Src/stm32l4xx_ll_sdmmc.c ****   sdmmc_cmdinit.WaitForInterrupt = SDMMC_WAIT_NO;
1236:Drivers/STM32L4xx_HAL_Driver/Src/stm32l4xx_ll_sdmmc.c ****   sdmmc_cmdinit.CPSM             = SDMMC_CPSM_ENABLE;
1237:Drivers/STM32L4xx_HAL_Driver/Src/stm32l4xx_ll_sdmmc.c ****   (void)SDMMC_SendCommand(SDMMCx, &sdmmc_cmdinit);
1238:Drivers/STM32L4xx_HAL_Driver/Src/stm32l4xx_ll_sdmmc.c **** 
1239:Drivers/STM32L4xx_HAL_Driver/Src/stm32l4xx_ll_sdmmc.c ****   /* Check for error conditions */
1240:Drivers/STM32L4xx_HAL_Driver/Src/stm32l4xx_ll_sdmmc.c ****   errorstate = SDMMC_GetCmdResp1(SDMMCx, SDMMC_CMD_VOLTAGE_SWITCH, SDMMC_CMDTIMEOUT);
1241:Drivers/STM32L4xx_HAL_Driver/Src/stm32l4xx_ll_sdmmc.c **** 
1242:Drivers/STM32L4xx_HAL_Driver/Src/stm32l4xx_ll_sdmmc.c ****   return errorstate;
1243:Drivers/STM32L4xx_HAL_Driver/Src/stm32l4xx_ll_sdmmc.c **** }
1244:Drivers/STM32L4xx_HAL_Driver/Src/stm32l4xx_ll_sdmmc.c **** #endif /* STM32L4R5xx || STM32L4R7xx || STM32L4R9xx || STM32L4S5xx || STM32L4S7xx || STM32L4S9xx */
1245:Drivers/STM32L4xx_HAL_Driver/Src/stm32l4xx_ll_sdmmc.c **** 
1246:Drivers/STM32L4xx_HAL_Driver/Src/stm32l4xx_ll_sdmmc.c **** /**
1247:Drivers/STM32L4xx_HAL_Driver/Src/stm32l4xx_ll_sdmmc.c ****   * @brief  Send the Send EXT_CSD command and check the response.
1248:Drivers/STM32L4xx_HAL_Driver/Src/stm32l4xx_ll_sdmmc.c ****   * @param  SDMMCx Pointer to SDMMC register base
1249:Drivers/STM32L4xx_HAL_Driver/Src/stm32l4xx_ll_sdmmc.c ****   * @param  Argument Command Argument
1250:Drivers/STM32L4xx_HAL_Driver/Src/stm32l4xx_ll_sdmmc.c ****   * @retval HAL status
1251:Drivers/STM32L4xx_HAL_Driver/Src/stm32l4xx_ll_sdmmc.c ****   */
1252:Drivers/STM32L4xx_HAL_Driver/Src/stm32l4xx_ll_sdmmc.c **** uint32_t SDMMC_CmdSendEXTCSD(SDMMC_TypeDef *SDMMCx, uint32_t Argument)
1253:Drivers/STM32L4xx_HAL_Driver/Src/stm32l4xx_ll_sdmmc.c **** {
 2375              		.loc 1 1253 1
 2376              		.cfi_startproc
 2377              		@ args = 0, pretend = 0, frame = 32
 2378              		@ frame_needed = 1, uses_anonymous_args = 0
 2379 0000 80B5     		push	{r7, lr}
 2380              		.cfi_def_cfa_offset 8
 2381              		.cfi_offset 7, -8
 2382              		.cfi_offset 14, -4
 2383 0002 88B0     		sub	sp, sp, #32
 2384              		.cfi_def_cfa_offset 40
 2385 0004 00AF     		add	r7, sp, #0
 2386              		.cfi_def_cfa_register 7
 2387 0006 7860     		str	r0, [r7, #4]
 2388 0008 3960     		str	r1, [r7]
1254:Drivers/STM32L4xx_HAL_Driver/Src/stm32l4xx_ll_sdmmc.c ****   SDMMC_CmdInitTypeDef  sdmmc_cmdinit;
1255:Drivers/STM32L4xx_HAL_Driver/Src/stm32l4xx_ll_sdmmc.c ****   uint32_t errorstate;
1256:Drivers/STM32L4xx_HAL_Driver/Src/stm32l4xx_ll_sdmmc.c **** 
1257:Drivers/STM32L4xx_HAL_Driver/Src/stm32l4xx_ll_sdmmc.c ****   /* Send CMD9 SEND_CSD */
1258:Drivers/STM32L4xx_HAL_Driver/Src/stm32l4xx_ll_sdmmc.c ****   sdmmc_cmdinit.Argument         = Argument;
 2389              		.loc 1 1258 34
 2390 000a 3B68     		ldr	r3, [r7]
 2391 000c BB60     		str	r3, [r7, #8]
1259:Drivers/STM32L4xx_HAL_Driver/Src/stm32l4xx_ll_sdmmc.c ****   sdmmc_cmdinit.CmdIndex         = SDMMC_CMD_HS_SEND_EXT_CSD;
 2392              		.loc 1 1259 34
 2393 000e 0823     		movs	r3, #8
 2394 0010 FB60     		str	r3, [r7, #12]
1260:Drivers/STM32L4xx_HAL_Driver/Src/stm32l4xx_ll_sdmmc.c ****   sdmmc_cmdinit.Response         = SDMMC_RESPONSE_SHORT;
 2395              		.loc 1 1260 34
 2396 0012 4023     		movs	r3, #64
 2397 0014 3B61     		str	r3, [r7, #16]
1261:Drivers/STM32L4xx_HAL_Driver/Src/stm32l4xx_ll_sdmmc.c ****   sdmmc_cmdinit.WaitForInterrupt = SDMMC_WAIT_NO;
 2398              		.loc 1 1261 34
 2399 0016 0023     		movs	r3, #0
ARM GAS  /tmp/ccZ1T6Sv.s 			page 64


 2400 0018 7B61     		str	r3, [r7, #20]
1262:Drivers/STM32L4xx_HAL_Driver/Src/stm32l4xx_ll_sdmmc.c ****   sdmmc_cmdinit.CPSM             = SDMMC_CPSM_ENABLE;
 2401              		.loc 1 1262 34
 2402 001a 4FF48063 		mov	r3, #1024
 2403 001e BB61     		str	r3, [r7, #24]
1263:Drivers/STM32L4xx_HAL_Driver/Src/stm32l4xx_ll_sdmmc.c ****   (void)SDMMC_SendCommand(SDMMCx, &sdmmc_cmdinit);
 2404              		.loc 1 1263 9
 2405 0020 07F10803 		add	r3, r7, #8
 2406 0024 1946     		mov	r1, r3
 2407 0026 7868     		ldr	r0, [r7, #4]
 2408 0028 FFF7FEFF 		bl	SDMMC_SendCommand
1264:Drivers/STM32L4xx_HAL_Driver/Src/stm32l4xx_ll_sdmmc.c **** 
1265:Drivers/STM32L4xx_HAL_Driver/Src/stm32l4xx_ll_sdmmc.c ****   /* Check for error conditions */
1266:Drivers/STM32L4xx_HAL_Driver/Src/stm32l4xx_ll_sdmmc.c ****   errorstate = SDMMC_GetCmdResp1(SDMMCx, SDMMC_CMD_HS_SEND_EXT_CSD, SDMMC_CMDTIMEOUT);
 2409              		.loc 1 1266 16
 2410 002c 41F28832 		movw	r2, #5000
 2411 0030 0821     		movs	r1, #8
 2412 0032 7868     		ldr	r0, [r7, #4]
 2413 0034 FFF7FEFF 		bl	SDMMC_GetCmdResp1
 2414 0038 F861     		str	r0, [r7, #28]
1267:Drivers/STM32L4xx_HAL_Driver/Src/stm32l4xx_ll_sdmmc.c **** 
1268:Drivers/STM32L4xx_HAL_Driver/Src/stm32l4xx_ll_sdmmc.c ****   return errorstate;
 2415              		.loc 1 1268 10
 2416 003a FB69     		ldr	r3, [r7, #28]
1269:Drivers/STM32L4xx_HAL_Driver/Src/stm32l4xx_ll_sdmmc.c **** }
 2417              		.loc 1 1269 1
 2418 003c 1846     		mov	r0, r3
 2419 003e 2037     		adds	r7, r7, #32
 2420              		.cfi_def_cfa_offset 8
 2421 0040 BD46     		mov	sp, r7
 2422              		.cfi_def_cfa_register 13
 2423              		@ sp needed
 2424 0042 80BD     		pop	{r7, pc}
 2425              		.cfi_endproc
 2426              	.LFE485:
 2428              		.section	.text.SDMMC_GetCmdResp1,"ax",%progbits
 2429              		.align	1
 2430              		.global	SDMMC_GetCmdResp1
 2431              		.syntax unified
 2432              		.thumb
 2433              		.thumb_func
 2435              	SDMMC_GetCmdResp1:
 2436              	.LFB486:
1270:Drivers/STM32L4xx_HAL_Driver/Src/stm32l4xx_ll_sdmmc.c **** 
1271:Drivers/STM32L4xx_HAL_Driver/Src/stm32l4xx_ll_sdmmc.c **** /**
1272:Drivers/STM32L4xx_HAL_Driver/Src/stm32l4xx_ll_sdmmc.c ****   * @}
1273:Drivers/STM32L4xx_HAL_Driver/Src/stm32l4xx_ll_sdmmc.c ****   */
1274:Drivers/STM32L4xx_HAL_Driver/Src/stm32l4xx_ll_sdmmc.c **** 
1275:Drivers/STM32L4xx_HAL_Driver/Src/stm32l4xx_ll_sdmmc.c **** /** @defgroup HAL_SDMMC_LL_Group5 Responses management functions
1276:Drivers/STM32L4xx_HAL_Driver/Src/stm32l4xx_ll_sdmmc.c ****   *  @brief   Responses functions
1277:Drivers/STM32L4xx_HAL_Driver/Src/stm32l4xx_ll_sdmmc.c ****   *
1278:Drivers/STM32L4xx_HAL_Driver/Src/stm32l4xx_ll_sdmmc.c **** @verbatim
1279:Drivers/STM32L4xx_HAL_Driver/Src/stm32l4xx_ll_sdmmc.c ****  ===============================================================================
1280:Drivers/STM32L4xx_HAL_Driver/Src/stm32l4xx_ll_sdmmc.c ****                    ##### Responses management functions #####
1281:Drivers/STM32L4xx_HAL_Driver/Src/stm32l4xx_ll_sdmmc.c ****  ===============================================================================
1282:Drivers/STM32L4xx_HAL_Driver/Src/stm32l4xx_ll_sdmmc.c ****     [..]
1283:Drivers/STM32L4xx_HAL_Driver/Src/stm32l4xx_ll_sdmmc.c ****     This subsection provides a set of functions allowing to manage the needed responses.
ARM GAS  /tmp/ccZ1T6Sv.s 			page 65


1284:Drivers/STM32L4xx_HAL_Driver/Src/stm32l4xx_ll_sdmmc.c **** 
1285:Drivers/STM32L4xx_HAL_Driver/Src/stm32l4xx_ll_sdmmc.c **** @endverbatim
1286:Drivers/STM32L4xx_HAL_Driver/Src/stm32l4xx_ll_sdmmc.c ****   * @{
1287:Drivers/STM32L4xx_HAL_Driver/Src/stm32l4xx_ll_sdmmc.c ****   */
1288:Drivers/STM32L4xx_HAL_Driver/Src/stm32l4xx_ll_sdmmc.c **** /**
1289:Drivers/STM32L4xx_HAL_Driver/Src/stm32l4xx_ll_sdmmc.c ****   * @brief  Checks for error conditions for R1 response.
1290:Drivers/STM32L4xx_HAL_Driver/Src/stm32l4xx_ll_sdmmc.c ****   * @param  SDMMCx Pointer to SDMMC register base
1291:Drivers/STM32L4xx_HAL_Driver/Src/stm32l4xx_ll_sdmmc.c ****   * @param  SD_CMD: The sent command index
1292:Drivers/STM32L4xx_HAL_Driver/Src/stm32l4xx_ll_sdmmc.c ****   * @retval SD Card error state
1293:Drivers/STM32L4xx_HAL_Driver/Src/stm32l4xx_ll_sdmmc.c ****   */
1294:Drivers/STM32L4xx_HAL_Driver/Src/stm32l4xx_ll_sdmmc.c **** uint32_t SDMMC_GetCmdResp1(SDMMC_TypeDef *SDMMCx, uint8_t SD_CMD, uint32_t Timeout)
1295:Drivers/STM32L4xx_HAL_Driver/Src/stm32l4xx_ll_sdmmc.c **** {
 2437              		.loc 1 1295 1
 2438              		.cfi_startproc
 2439              		@ args = 0, pretend = 0, frame = 32
 2440              		@ frame_needed = 1, uses_anonymous_args = 0
 2441 0000 80B5     		push	{r7, lr}
 2442              		.cfi_def_cfa_offset 8
 2443              		.cfi_offset 7, -8
 2444              		.cfi_offset 14, -4
 2445 0002 88B0     		sub	sp, sp, #32
 2446              		.cfi_def_cfa_offset 40
 2447 0004 00AF     		add	r7, sp, #0
 2448              		.cfi_def_cfa_register 7
 2449 0006 F860     		str	r0, [r7, #12]
 2450 0008 0B46     		mov	r3, r1
 2451 000a 7A60     		str	r2, [r7, #4]
 2452 000c FB72     		strb	r3, [r7, #11]
1296:Drivers/STM32L4xx_HAL_Driver/Src/stm32l4xx_ll_sdmmc.c ****   uint32_t response_r1;
1297:Drivers/STM32L4xx_HAL_Driver/Src/stm32l4xx_ll_sdmmc.c ****   uint32_t sta_reg;
1298:Drivers/STM32L4xx_HAL_Driver/Src/stm32l4xx_ll_sdmmc.c **** 
1299:Drivers/STM32L4xx_HAL_Driver/Src/stm32l4xx_ll_sdmmc.c ****   /* 8 is the number of required instructions cycles for the below loop statement.
1300:Drivers/STM32L4xx_HAL_Driver/Src/stm32l4xx_ll_sdmmc.c ****   The Timeout is expressed in ms */
1301:Drivers/STM32L4xx_HAL_Driver/Src/stm32l4xx_ll_sdmmc.c ****   uint32_t count = Timeout * (SystemCoreClock / 8U / 1000U);
 2453              		.loc 1 1301 52
 2454 000e 704B     		ldr	r3, .L112
 2455 0010 1B68     		ldr	r3, [r3]
 2456 0012 704A     		ldr	r2, .L112+4
 2457 0014 A2FB0323 		umull	r2, r3, r2, r3
 2458 0018 5A0A     		lsrs	r2, r3, #9
 2459              		.loc 1 1301 12
 2460 001a 7B68     		ldr	r3, [r7, #4]
 2461 001c 02FB03F3 		mul	r3, r2, r3
 2462 0020 FB61     		str	r3, [r7, #28]
 2463              	.L86:
1302:Drivers/STM32L4xx_HAL_Driver/Src/stm32l4xx_ll_sdmmc.c **** 
1303:Drivers/STM32L4xx_HAL_Driver/Src/stm32l4xx_ll_sdmmc.c ****   do
1304:Drivers/STM32L4xx_HAL_Driver/Src/stm32l4xx_ll_sdmmc.c ****   {
1305:Drivers/STM32L4xx_HAL_Driver/Src/stm32l4xx_ll_sdmmc.c ****     if (count-- == 0U)
 2464              		.loc 1 1305 14
 2465 0022 FB69     		ldr	r3, [r7, #28]
 2466 0024 5A1E     		subs	r2, r3, #1
 2467 0026 FA61     		str	r2, [r7, #28]
 2468              		.loc 1 1305 8
 2469 0028 002B     		cmp	r3, #0
 2470 002a 02D1     		bne	.L87
1306:Drivers/STM32L4xx_HAL_Driver/Src/stm32l4xx_ll_sdmmc.c ****     {
ARM GAS  /tmp/ccZ1T6Sv.s 			page 66


1307:Drivers/STM32L4xx_HAL_Driver/Src/stm32l4xx_ll_sdmmc.c ****       return SDMMC_ERROR_TIMEOUT;
 2471              		.loc 1 1307 14
 2472 002c 4FF00043 		mov	r3, #-2147483648
 2473 0030 C9E0     		b	.L88
 2474              	.L87:
1308:Drivers/STM32L4xx_HAL_Driver/Src/stm32l4xx_ll_sdmmc.c ****     }
1309:Drivers/STM32L4xx_HAL_Driver/Src/stm32l4xx_ll_sdmmc.c ****     sta_reg = SDMMCx->STA;
 2475              		.loc 1 1309 13
 2476 0032 FB68     		ldr	r3, [r7, #12]
 2477 0034 5B6B     		ldr	r3, [r3, #52]
 2478 0036 BB61     		str	r3, [r7, #24]
1310:Drivers/STM32L4xx_HAL_Driver/Src/stm32l4xx_ll_sdmmc.c **** #if defined(STM32L4P5xx) || defined(STM32L4Q5xx) || defined(STM32L4R5xx) || defined(STM32L4R7xx) ||
1311:Drivers/STM32L4xx_HAL_Driver/Src/stm32l4xx_ll_sdmmc.c ****   } while (((sta_reg & (SDMMC_FLAG_CCRCFAIL | SDMMC_FLAG_CMDREND | SDMMC_FLAG_CTIMEOUT | SDMMC_FLAG
1312:Drivers/STM32L4xx_HAL_Driver/Src/stm32l4xx_ll_sdmmc.c ****            ((sta_reg & SDMMC_FLAG_CMDACT) != 0U));
1313:Drivers/STM32L4xx_HAL_Driver/Src/stm32l4xx_ll_sdmmc.c **** #else
1314:Drivers/STM32L4xx_HAL_Driver/Src/stm32l4xx_ll_sdmmc.c ****   }
1315:Drivers/STM32L4xx_HAL_Driver/Src/stm32l4xx_ll_sdmmc.c ****   while (((sta_reg & (SDMMC_FLAG_CCRCFAIL | SDMMC_FLAG_CMDREND | SDMMC_FLAG_CTIMEOUT)) == 0U) ||
 2479              		.loc 1 1315 20
 2480 0038 BB69     		ldr	r3, [r7, #24]
 2481 003a 03F04503 		and	r3, r3, #69
 2482              		.loc 1 1315 95
 2483 003e 002B     		cmp	r3, #0
 2484 0040 EFD0     		beq	.L86
1316:Drivers/STM32L4xx_HAL_Driver/Src/stm32l4xx_ll_sdmmc.c ****          ((sta_reg &SDMMC_FLAG_CMDACT) != 0U));
 2485              		.loc 1 1316 20
 2486 0042 BB69     		ldr	r3, [r7, #24]
 2487 0044 03F40063 		and	r3, r3, #2048
1315:Drivers/STM32L4xx_HAL_Driver/Src/stm32l4xx_ll_sdmmc.c ****          ((sta_reg &SDMMC_FLAG_CMDACT) != 0U));
 2488              		.loc 1 1315 95 discriminator 1
 2489 0048 002B     		cmp	r3, #0
 2490 004a EAD1     		bne	.L86
1317:Drivers/STM32L4xx_HAL_Driver/Src/stm32l4xx_ll_sdmmc.c **** #endif /* STM32L4P5xx || STM32L4Q5xx || STM32L4R5xx || STM32L4R7xx || STM32L4R9xx || STM32L4S5xx ||
1318:Drivers/STM32L4xx_HAL_Driver/Src/stm32l4xx_ll_sdmmc.c **** 
1319:Drivers/STM32L4xx_HAL_Driver/Src/stm32l4xx_ll_sdmmc.c ****   if (__SDMMC_GET_FLAG(SDMMCx, SDMMC_FLAG_CTIMEOUT))
 2491              		.loc 1 1319 7
 2492 004c FB68     		ldr	r3, [r7, #12]
 2493 004e 5B6B     		ldr	r3, [r3, #52]
 2494 0050 03F00403 		and	r3, r3, #4
 2495              		.loc 1 1319 6
 2496 0054 002B     		cmp	r3, #0
 2497 0056 04D0     		beq	.L90
1320:Drivers/STM32L4xx_HAL_Driver/Src/stm32l4xx_ll_sdmmc.c ****   {
1321:Drivers/STM32L4xx_HAL_Driver/Src/stm32l4xx_ll_sdmmc.c ****     __SDMMC_CLEAR_FLAG(SDMMCx, SDMMC_FLAG_CTIMEOUT);
 2498              		.loc 1 1321 5
 2499 0058 FB68     		ldr	r3, [r7, #12]
 2500 005a 0422     		movs	r2, #4
 2501 005c 9A63     		str	r2, [r3, #56]
1322:Drivers/STM32L4xx_HAL_Driver/Src/stm32l4xx_ll_sdmmc.c **** 
1323:Drivers/STM32L4xx_HAL_Driver/Src/stm32l4xx_ll_sdmmc.c ****     return SDMMC_ERROR_CMD_RSP_TIMEOUT;
 2502              		.loc 1 1323 12
 2503 005e 0423     		movs	r3, #4
 2504 0060 B1E0     		b	.L88
 2505              	.L90:
1324:Drivers/STM32L4xx_HAL_Driver/Src/stm32l4xx_ll_sdmmc.c ****   }
1325:Drivers/STM32L4xx_HAL_Driver/Src/stm32l4xx_ll_sdmmc.c ****   else if (__SDMMC_GET_FLAG(SDMMCx, SDMMC_FLAG_CCRCFAIL))
 2506              		.loc 1 1325 12
 2507 0062 FB68     		ldr	r3, [r7, #12]
ARM GAS  /tmp/ccZ1T6Sv.s 			page 67


 2508 0064 5B6B     		ldr	r3, [r3, #52]
 2509 0066 03F00103 		and	r3, r3, #1
 2510              		.loc 1 1325 11
 2511 006a 002B     		cmp	r3, #0
 2512 006c 04D0     		beq	.L91
1326:Drivers/STM32L4xx_HAL_Driver/Src/stm32l4xx_ll_sdmmc.c ****   {
1327:Drivers/STM32L4xx_HAL_Driver/Src/stm32l4xx_ll_sdmmc.c ****     __SDMMC_CLEAR_FLAG(SDMMCx, SDMMC_FLAG_CCRCFAIL);
 2513              		.loc 1 1327 5
 2514 006e FB68     		ldr	r3, [r7, #12]
 2515 0070 0122     		movs	r2, #1
 2516 0072 9A63     		str	r2, [r3, #56]
1328:Drivers/STM32L4xx_HAL_Driver/Src/stm32l4xx_ll_sdmmc.c **** 
1329:Drivers/STM32L4xx_HAL_Driver/Src/stm32l4xx_ll_sdmmc.c ****     return SDMMC_ERROR_CMD_CRC_FAIL;
 2517              		.loc 1 1329 12
 2518 0074 0123     		movs	r3, #1
 2519 0076 A6E0     		b	.L88
 2520              	.L91:
1330:Drivers/STM32L4xx_HAL_Driver/Src/stm32l4xx_ll_sdmmc.c ****   }
1331:Drivers/STM32L4xx_HAL_Driver/Src/stm32l4xx_ll_sdmmc.c ****   else
1332:Drivers/STM32L4xx_HAL_Driver/Src/stm32l4xx_ll_sdmmc.c ****   {
1333:Drivers/STM32L4xx_HAL_Driver/Src/stm32l4xx_ll_sdmmc.c ****     /* Nothing to do */
1334:Drivers/STM32L4xx_HAL_Driver/Src/stm32l4xx_ll_sdmmc.c ****   }
1335:Drivers/STM32L4xx_HAL_Driver/Src/stm32l4xx_ll_sdmmc.c **** 
1336:Drivers/STM32L4xx_HAL_Driver/Src/stm32l4xx_ll_sdmmc.c ****   /* Clear all the static flags */
1337:Drivers/STM32L4xx_HAL_Driver/Src/stm32l4xx_ll_sdmmc.c ****   __SDMMC_CLEAR_FLAG(SDMMCx, SDMMC_STATIC_CMD_FLAGS);
 2521              		.loc 1 1337 3
 2522 0078 FB68     		ldr	r3, [r7, #12]
 2523 007a C522     		movs	r2, #197
 2524 007c 9A63     		str	r2, [r3, #56]
1338:Drivers/STM32L4xx_HAL_Driver/Src/stm32l4xx_ll_sdmmc.c **** 
1339:Drivers/STM32L4xx_HAL_Driver/Src/stm32l4xx_ll_sdmmc.c ****   /* Check response received is of desired command */
1340:Drivers/STM32L4xx_HAL_Driver/Src/stm32l4xx_ll_sdmmc.c ****   if (SDMMC_GetCommandResponse(SDMMCx) != SD_CMD)
 2525              		.loc 1 1340 7
 2526 007e F868     		ldr	r0, [r7, #12]
 2527 0080 FFF7FEFF 		bl	SDMMC_GetCommandResponse
 2528 0084 0346     		mov	r3, r0
 2529 0086 1A46     		mov	r2, r3
 2530              		.loc 1 1340 6 discriminator 1
 2531 0088 FB7A     		ldrb	r3, [r7, #11]	@ zero_extendqisi2
 2532 008a 9342     		cmp	r3, r2
 2533 008c 01D0     		beq	.L92
1341:Drivers/STM32L4xx_HAL_Driver/Src/stm32l4xx_ll_sdmmc.c ****   {
1342:Drivers/STM32L4xx_HAL_Driver/Src/stm32l4xx_ll_sdmmc.c ****     return SDMMC_ERROR_CMD_CRC_FAIL;
 2534              		.loc 1 1342 12
 2535 008e 0123     		movs	r3, #1
 2536 0090 99E0     		b	.L88
 2537              	.L92:
1343:Drivers/STM32L4xx_HAL_Driver/Src/stm32l4xx_ll_sdmmc.c ****   }
1344:Drivers/STM32L4xx_HAL_Driver/Src/stm32l4xx_ll_sdmmc.c **** 
1345:Drivers/STM32L4xx_HAL_Driver/Src/stm32l4xx_ll_sdmmc.c ****   /* We have received response, retrieve it for analysis  */
1346:Drivers/STM32L4xx_HAL_Driver/Src/stm32l4xx_ll_sdmmc.c ****   response_r1 = SDMMC_GetResponse(SDMMCx, SDMMC_RESP1);
 2538              		.loc 1 1346 17
 2539 0092 0021     		movs	r1, #0
 2540 0094 F868     		ldr	r0, [r7, #12]
 2541 0096 FFF7FEFF 		bl	SDMMC_GetResponse
 2542 009a 7861     		str	r0, [r7, #20]
1347:Drivers/STM32L4xx_HAL_Driver/Src/stm32l4xx_ll_sdmmc.c **** 
ARM GAS  /tmp/ccZ1T6Sv.s 			page 68


1348:Drivers/STM32L4xx_HAL_Driver/Src/stm32l4xx_ll_sdmmc.c ****   if ((response_r1 &SDMMC_OCR_ERRORBITS) == SDMMC_ALLZERO)
 2543              		.loc 1 1348 20
 2544 009c 7A69     		ldr	r2, [r7, #20]
 2545 009e 4E4B     		ldr	r3, .L112+8
 2546 00a0 1340     		ands	r3, r3, r2
 2547              		.loc 1 1348 6
 2548 00a2 002B     		cmp	r3, #0
 2549 00a4 01D1     		bne	.L93
1349:Drivers/STM32L4xx_HAL_Driver/Src/stm32l4xx_ll_sdmmc.c ****   {
1350:Drivers/STM32L4xx_HAL_Driver/Src/stm32l4xx_ll_sdmmc.c ****     return SDMMC_ERROR_NONE;
 2550              		.loc 1 1350 12
 2551 00a6 0023     		movs	r3, #0
 2552 00a8 8DE0     		b	.L88
 2553              	.L93:
1351:Drivers/STM32L4xx_HAL_Driver/Src/stm32l4xx_ll_sdmmc.c ****   }
1352:Drivers/STM32L4xx_HAL_Driver/Src/stm32l4xx_ll_sdmmc.c ****   else if ((response_r1 &SDMMC_OCR_ADDR_OUT_OF_RANGE) == SDMMC_OCR_ADDR_OUT_OF_RANGE)
 2554              		.loc 1 1352 55
 2555 00aa 7B69     		ldr	r3, [r7, #20]
 2556              		.loc 1 1352 11
 2557 00ac 002B     		cmp	r3, #0
 2558 00ae 02DA     		bge	.L94
1353:Drivers/STM32L4xx_HAL_Driver/Src/stm32l4xx_ll_sdmmc.c ****   {
1354:Drivers/STM32L4xx_HAL_Driver/Src/stm32l4xx_ll_sdmmc.c ****     return SDMMC_ERROR_ADDR_OUT_OF_RANGE;
 2559              		.loc 1 1354 12
 2560 00b0 4FF00073 		mov	r3, #33554432
 2561 00b4 87E0     		b	.L88
 2562              	.L94:
1355:Drivers/STM32L4xx_HAL_Driver/Src/stm32l4xx_ll_sdmmc.c ****   }
1356:Drivers/STM32L4xx_HAL_Driver/Src/stm32l4xx_ll_sdmmc.c ****   else if ((response_r1 &SDMMC_OCR_ADDR_MISALIGNED) == SDMMC_OCR_ADDR_MISALIGNED)
 2563              		.loc 1 1356 25
 2564 00b6 7B69     		ldr	r3, [r7, #20]
 2565 00b8 03F08043 		and	r3, r3, #1073741824
 2566              		.loc 1 1356 11
 2567 00bc 002B     		cmp	r3, #0
 2568 00be 01D0     		beq	.L95
1357:Drivers/STM32L4xx_HAL_Driver/Src/stm32l4xx_ll_sdmmc.c ****   {
1358:Drivers/STM32L4xx_HAL_Driver/Src/stm32l4xx_ll_sdmmc.c ****     return SDMMC_ERROR_ADDR_MISALIGNED;
 2569              		.loc 1 1358 12
 2570 00c0 4023     		movs	r3, #64
 2571 00c2 80E0     		b	.L88
 2572              	.L95:
1359:Drivers/STM32L4xx_HAL_Driver/Src/stm32l4xx_ll_sdmmc.c ****   }
1360:Drivers/STM32L4xx_HAL_Driver/Src/stm32l4xx_ll_sdmmc.c ****   else if ((response_r1 &SDMMC_OCR_BLOCK_LEN_ERR) == SDMMC_OCR_BLOCK_LEN_ERR)
 2573              		.loc 1 1360 25
 2574 00c4 7B69     		ldr	r3, [r7, #20]
 2575 00c6 03F00053 		and	r3, r3, #536870912
 2576              		.loc 1 1360 11
 2577 00ca 002B     		cmp	r3, #0
 2578 00cc 01D0     		beq	.L96
1361:Drivers/STM32L4xx_HAL_Driver/Src/stm32l4xx_ll_sdmmc.c ****   {
1362:Drivers/STM32L4xx_HAL_Driver/Src/stm32l4xx_ll_sdmmc.c ****     return SDMMC_ERROR_BLOCK_LEN_ERR;
 2579              		.loc 1 1362 12
 2580 00ce 8023     		movs	r3, #128
 2581 00d0 79E0     		b	.L88
 2582              	.L96:
1363:Drivers/STM32L4xx_HAL_Driver/Src/stm32l4xx_ll_sdmmc.c ****   }
1364:Drivers/STM32L4xx_HAL_Driver/Src/stm32l4xx_ll_sdmmc.c ****   else if ((response_r1 &SDMMC_OCR_ERASE_SEQ_ERR) == SDMMC_OCR_ERASE_SEQ_ERR)
ARM GAS  /tmp/ccZ1T6Sv.s 			page 69


 2583              		.loc 1 1364 25
 2584 00d2 7B69     		ldr	r3, [r7, #20]
 2585 00d4 03F08053 		and	r3, r3, #268435456
 2586              		.loc 1 1364 11
 2587 00d8 002B     		cmp	r3, #0
 2588 00da 02D0     		beq	.L97
1365:Drivers/STM32L4xx_HAL_Driver/Src/stm32l4xx_ll_sdmmc.c ****   {
1366:Drivers/STM32L4xx_HAL_Driver/Src/stm32l4xx_ll_sdmmc.c ****     return SDMMC_ERROR_ERASE_SEQ_ERR;
 2589              		.loc 1 1366 12
 2590 00dc 4FF48073 		mov	r3, #256
 2591 00e0 71E0     		b	.L88
 2592              	.L97:
1367:Drivers/STM32L4xx_HAL_Driver/Src/stm32l4xx_ll_sdmmc.c ****   }
1368:Drivers/STM32L4xx_HAL_Driver/Src/stm32l4xx_ll_sdmmc.c ****   else if ((response_r1 &SDMMC_OCR_BAD_ERASE_PARAM) == SDMMC_OCR_BAD_ERASE_PARAM)
 2593              		.loc 1 1368 25
 2594 00e2 7B69     		ldr	r3, [r7, #20]
 2595 00e4 03F00063 		and	r3, r3, #134217728
 2596              		.loc 1 1368 11
 2597 00e8 002B     		cmp	r3, #0
 2598 00ea 02D0     		beq	.L98
1369:Drivers/STM32L4xx_HAL_Driver/Src/stm32l4xx_ll_sdmmc.c ****   {
1370:Drivers/STM32L4xx_HAL_Driver/Src/stm32l4xx_ll_sdmmc.c ****     return SDMMC_ERROR_BAD_ERASE_PARAM;
 2599              		.loc 1 1370 12
 2600 00ec 4FF40073 		mov	r3, #512
 2601 00f0 69E0     		b	.L88
 2602              	.L98:
1371:Drivers/STM32L4xx_HAL_Driver/Src/stm32l4xx_ll_sdmmc.c ****   }
1372:Drivers/STM32L4xx_HAL_Driver/Src/stm32l4xx_ll_sdmmc.c ****   else if ((response_r1 &SDMMC_OCR_WRITE_PROT_VIOLATION) == SDMMC_OCR_WRITE_PROT_VIOLATION)
 2603              		.loc 1 1372 25
 2604 00f2 7B69     		ldr	r3, [r7, #20]
 2605 00f4 03F08063 		and	r3, r3, #67108864
 2606              		.loc 1 1372 11
 2607 00f8 002B     		cmp	r3, #0
 2608 00fa 02D0     		beq	.L99
1373:Drivers/STM32L4xx_HAL_Driver/Src/stm32l4xx_ll_sdmmc.c ****   {
1374:Drivers/STM32L4xx_HAL_Driver/Src/stm32l4xx_ll_sdmmc.c ****     return SDMMC_ERROR_WRITE_PROT_VIOLATION;
 2609              		.loc 1 1374 12
 2610 00fc 4FF48063 		mov	r3, #1024
 2611 0100 61E0     		b	.L88
 2612              	.L99:
1375:Drivers/STM32L4xx_HAL_Driver/Src/stm32l4xx_ll_sdmmc.c ****   }
1376:Drivers/STM32L4xx_HAL_Driver/Src/stm32l4xx_ll_sdmmc.c ****   else if ((response_r1 &SDMMC_OCR_LOCK_UNLOCK_FAILED) == SDMMC_OCR_LOCK_UNLOCK_FAILED)
 2613              		.loc 1 1376 25
 2614 0102 7B69     		ldr	r3, [r7, #20]
 2615 0104 03F08073 		and	r3, r3, #16777216
 2616              		.loc 1 1376 11
 2617 0108 002B     		cmp	r3, #0
 2618 010a 02D0     		beq	.L100
1377:Drivers/STM32L4xx_HAL_Driver/Src/stm32l4xx_ll_sdmmc.c ****   {
1378:Drivers/STM32L4xx_HAL_Driver/Src/stm32l4xx_ll_sdmmc.c ****     return SDMMC_ERROR_LOCK_UNLOCK_FAILED;
 2619              		.loc 1 1378 12
 2620 010c 4FF40063 		mov	r3, #2048
 2621 0110 59E0     		b	.L88
 2622              	.L100:
1379:Drivers/STM32L4xx_HAL_Driver/Src/stm32l4xx_ll_sdmmc.c ****   }
1380:Drivers/STM32L4xx_HAL_Driver/Src/stm32l4xx_ll_sdmmc.c ****   else if ((response_r1 &SDMMC_OCR_COM_CRC_FAILED) == SDMMC_OCR_COM_CRC_FAILED)
 2623              		.loc 1 1380 25
ARM GAS  /tmp/ccZ1T6Sv.s 			page 70


 2624 0112 7B69     		ldr	r3, [r7, #20]
 2625 0114 03F40003 		and	r3, r3, #8388608
 2626              		.loc 1 1380 11
 2627 0118 002B     		cmp	r3, #0
 2628 011a 02D0     		beq	.L101
1381:Drivers/STM32L4xx_HAL_Driver/Src/stm32l4xx_ll_sdmmc.c ****   {
1382:Drivers/STM32L4xx_HAL_Driver/Src/stm32l4xx_ll_sdmmc.c ****     return SDMMC_ERROR_COM_CRC_FAILED;
 2629              		.loc 1 1382 12
 2630 011c 4FF48053 		mov	r3, #4096
 2631 0120 51E0     		b	.L88
 2632              	.L101:
1383:Drivers/STM32L4xx_HAL_Driver/Src/stm32l4xx_ll_sdmmc.c ****   }
1384:Drivers/STM32L4xx_HAL_Driver/Src/stm32l4xx_ll_sdmmc.c ****   else if ((response_r1 &SDMMC_OCR_ILLEGAL_CMD) == SDMMC_OCR_ILLEGAL_CMD)
 2633              		.loc 1 1384 25
 2634 0122 7B69     		ldr	r3, [r7, #20]
 2635 0124 03F48003 		and	r3, r3, #4194304
 2636              		.loc 1 1384 11
 2637 0128 002B     		cmp	r3, #0
 2638 012a 02D0     		beq	.L102
1385:Drivers/STM32L4xx_HAL_Driver/Src/stm32l4xx_ll_sdmmc.c ****   {
1386:Drivers/STM32L4xx_HAL_Driver/Src/stm32l4xx_ll_sdmmc.c ****     return SDMMC_ERROR_ILLEGAL_CMD;
 2639              		.loc 1 1386 12
 2640 012c 4FF40053 		mov	r3, #8192
 2641 0130 49E0     		b	.L88
 2642              	.L102:
1387:Drivers/STM32L4xx_HAL_Driver/Src/stm32l4xx_ll_sdmmc.c ****   }
1388:Drivers/STM32L4xx_HAL_Driver/Src/stm32l4xx_ll_sdmmc.c ****   else if ((response_r1 &SDMMC_OCR_CARD_ECC_FAILED) == SDMMC_OCR_CARD_ECC_FAILED)
 2643              		.loc 1 1388 25
 2644 0132 7B69     		ldr	r3, [r7, #20]
 2645 0134 03F40013 		and	r3, r3, #2097152
 2646              		.loc 1 1388 11
 2647 0138 002B     		cmp	r3, #0
 2648 013a 02D0     		beq	.L103
1389:Drivers/STM32L4xx_HAL_Driver/Src/stm32l4xx_ll_sdmmc.c ****   {
1390:Drivers/STM32L4xx_HAL_Driver/Src/stm32l4xx_ll_sdmmc.c ****     return SDMMC_ERROR_CARD_ECC_FAILED;
 2649              		.loc 1 1390 12
 2650 013c 4FF48043 		mov	r3, #16384
 2651 0140 41E0     		b	.L88
 2652              	.L103:
1391:Drivers/STM32L4xx_HAL_Driver/Src/stm32l4xx_ll_sdmmc.c ****   }
1392:Drivers/STM32L4xx_HAL_Driver/Src/stm32l4xx_ll_sdmmc.c ****   else if ((response_r1 &SDMMC_OCR_CC_ERROR) == SDMMC_OCR_CC_ERROR)
 2653              		.loc 1 1392 25
 2654 0142 7B69     		ldr	r3, [r7, #20]
 2655 0144 03F48013 		and	r3, r3, #1048576
 2656              		.loc 1 1392 11
 2657 0148 002B     		cmp	r3, #0
 2658 014a 02D0     		beq	.L104
1393:Drivers/STM32L4xx_HAL_Driver/Src/stm32l4xx_ll_sdmmc.c ****   {
1394:Drivers/STM32L4xx_HAL_Driver/Src/stm32l4xx_ll_sdmmc.c ****     return SDMMC_ERROR_CC_ERR;
 2659              		.loc 1 1394 12
 2660 014c 4FF40043 		mov	r3, #32768
 2661 0150 39E0     		b	.L88
 2662              	.L104:
1395:Drivers/STM32L4xx_HAL_Driver/Src/stm32l4xx_ll_sdmmc.c ****   }
1396:Drivers/STM32L4xx_HAL_Driver/Src/stm32l4xx_ll_sdmmc.c ****   else if ((response_r1 &SDMMC_OCR_STREAM_READ_UNDERRUN) == SDMMC_OCR_STREAM_READ_UNDERRUN)
 2663              		.loc 1 1396 25
 2664 0152 7B69     		ldr	r3, [r7, #20]
ARM GAS  /tmp/ccZ1T6Sv.s 			page 71


 2665 0154 03F48023 		and	r3, r3, #262144
 2666              		.loc 1 1396 11
 2667 0158 002B     		cmp	r3, #0
 2668 015a 02D0     		beq	.L105
1397:Drivers/STM32L4xx_HAL_Driver/Src/stm32l4xx_ll_sdmmc.c ****   {
1398:Drivers/STM32L4xx_HAL_Driver/Src/stm32l4xx_ll_sdmmc.c ****     return SDMMC_ERROR_STREAM_READ_UNDERRUN;
 2669              		.loc 1 1398 12
 2670 015c 4FF40033 		mov	r3, #131072
 2671 0160 31E0     		b	.L88
 2672              	.L105:
1399:Drivers/STM32L4xx_HAL_Driver/Src/stm32l4xx_ll_sdmmc.c ****   }
1400:Drivers/STM32L4xx_HAL_Driver/Src/stm32l4xx_ll_sdmmc.c ****   else if ((response_r1 &SDMMC_OCR_STREAM_WRITE_OVERRUN) == SDMMC_OCR_STREAM_WRITE_OVERRUN)
 2673              		.loc 1 1400 25
 2674 0162 7B69     		ldr	r3, [r7, #20]
 2675 0164 03F40033 		and	r3, r3, #131072
 2676              		.loc 1 1400 11
 2677 0168 002B     		cmp	r3, #0
 2678 016a 02D0     		beq	.L106
1401:Drivers/STM32L4xx_HAL_Driver/Src/stm32l4xx_ll_sdmmc.c ****   {
1402:Drivers/STM32L4xx_HAL_Driver/Src/stm32l4xx_ll_sdmmc.c ****     return SDMMC_ERROR_STREAM_WRITE_OVERRUN;
 2679              		.loc 1 1402 12
 2680 016c 4FF48023 		mov	r3, #262144
 2681 0170 29E0     		b	.L88
 2682              	.L106:
1403:Drivers/STM32L4xx_HAL_Driver/Src/stm32l4xx_ll_sdmmc.c ****   }
1404:Drivers/STM32L4xx_HAL_Driver/Src/stm32l4xx_ll_sdmmc.c ****   else if ((response_r1 &SDMMC_OCR_CID_CSD_OVERWRITE) == SDMMC_OCR_CID_CSD_OVERWRITE)
 2683              		.loc 1 1404 25
 2684 0172 7B69     		ldr	r3, [r7, #20]
 2685 0174 03F48033 		and	r3, r3, #65536
 2686              		.loc 1 1404 11
 2687 0178 002B     		cmp	r3, #0
 2688 017a 02D0     		beq	.L107
1405:Drivers/STM32L4xx_HAL_Driver/Src/stm32l4xx_ll_sdmmc.c ****   {
1406:Drivers/STM32L4xx_HAL_Driver/Src/stm32l4xx_ll_sdmmc.c ****     return SDMMC_ERROR_CID_CSD_OVERWRITE;
 2689              		.loc 1 1406 12
 2690 017c 4FF40023 		mov	r3, #524288
 2691 0180 21E0     		b	.L88
 2692              	.L107:
1407:Drivers/STM32L4xx_HAL_Driver/Src/stm32l4xx_ll_sdmmc.c ****   }
1408:Drivers/STM32L4xx_HAL_Driver/Src/stm32l4xx_ll_sdmmc.c ****   else if ((response_r1 &SDMMC_OCR_WP_ERASE_SKIP) == SDMMC_OCR_WP_ERASE_SKIP)
 2693              		.loc 1 1408 25
 2694 0182 7B69     		ldr	r3, [r7, #20]
 2695 0184 03F40043 		and	r3, r3, #32768
 2696              		.loc 1 1408 11
 2697 0188 002B     		cmp	r3, #0
 2698 018a 02D0     		beq	.L108
1409:Drivers/STM32L4xx_HAL_Driver/Src/stm32l4xx_ll_sdmmc.c ****   {
1410:Drivers/STM32L4xx_HAL_Driver/Src/stm32l4xx_ll_sdmmc.c ****     return SDMMC_ERROR_WP_ERASE_SKIP;
 2699              		.loc 1 1410 12
 2700 018c 4FF48013 		mov	r3, #1048576
 2701 0190 19E0     		b	.L88
 2702              	.L108:
1411:Drivers/STM32L4xx_HAL_Driver/Src/stm32l4xx_ll_sdmmc.c ****   }
1412:Drivers/STM32L4xx_HAL_Driver/Src/stm32l4xx_ll_sdmmc.c ****   else if ((response_r1 &SDMMC_OCR_CARD_ECC_DISABLED) == SDMMC_OCR_CARD_ECC_DISABLED)
 2703              		.loc 1 1412 25
 2704 0192 7B69     		ldr	r3, [r7, #20]
 2705 0194 03F48043 		and	r3, r3, #16384
ARM GAS  /tmp/ccZ1T6Sv.s 			page 72


 2706              		.loc 1 1412 11
 2707 0198 002B     		cmp	r3, #0
 2708 019a 02D0     		beq	.L109
1413:Drivers/STM32L4xx_HAL_Driver/Src/stm32l4xx_ll_sdmmc.c ****   {
1414:Drivers/STM32L4xx_HAL_Driver/Src/stm32l4xx_ll_sdmmc.c ****     return SDMMC_ERROR_CARD_ECC_DISABLED;
 2709              		.loc 1 1414 12
 2710 019c 4FF40013 		mov	r3, #2097152
 2711 01a0 11E0     		b	.L88
 2712              	.L109:
1415:Drivers/STM32L4xx_HAL_Driver/Src/stm32l4xx_ll_sdmmc.c ****   }
1416:Drivers/STM32L4xx_HAL_Driver/Src/stm32l4xx_ll_sdmmc.c ****   else if ((response_r1 &SDMMC_OCR_ERASE_RESET) == SDMMC_OCR_ERASE_RESET)
 2713              		.loc 1 1416 25
 2714 01a2 7B69     		ldr	r3, [r7, #20]
 2715 01a4 03F40053 		and	r3, r3, #8192
 2716              		.loc 1 1416 11
 2717 01a8 002B     		cmp	r3, #0
 2718 01aa 02D0     		beq	.L110
1417:Drivers/STM32L4xx_HAL_Driver/Src/stm32l4xx_ll_sdmmc.c ****   {
1418:Drivers/STM32L4xx_HAL_Driver/Src/stm32l4xx_ll_sdmmc.c ****     return SDMMC_ERROR_ERASE_RESET;
 2719              		.loc 1 1418 12
 2720 01ac 4FF48003 		mov	r3, #4194304
 2721 01b0 09E0     		b	.L88
 2722              	.L110:
1419:Drivers/STM32L4xx_HAL_Driver/Src/stm32l4xx_ll_sdmmc.c ****   }
1420:Drivers/STM32L4xx_HAL_Driver/Src/stm32l4xx_ll_sdmmc.c ****   else if ((response_r1 &SDMMC_OCR_AKE_SEQ_ERROR) == SDMMC_OCR_AKE_SEQ_ERROR)
 2723              		.loc 1 1420 25
 2724 01b2 7B69     		ldr	r3, [r7, #20]
 2725 01b4 03F00803 		and	r3, r3, #8
 2726              		.loc 1 1420 11
 2727 01b8 002B     		cmp	r3, #0
 2728 01ba 02D0     		beq	.L111
1421:Drivers/STM32L4xx_HAL_Driver/Src/stm32l4xx_ll_sdmmc.c ****   {
1422:Drivers/STM32L4xx_HAL_Driver/Src/stm32l4xx_ll_sdmmc.c ****     return SDMMC_ERROR_AKE_SEQ_ERR;
 2729              		.loc 1 1422 12
 2730 01bc 4FF40003 		mov	r3, #8388608
 2731 01c0 01E0     		b	.L88
 2732              	.L111:
1423:Drivers/STM32L4xx_HAL_Driver/Src/stm32l4xx_ll_sdmmc.c ****   }
1424:Drivers/STM32L4xx_HAL_Driver/Src/stm32l4xx_ll_sdmmc.c ****   else
1425:Drivers/STM32L4xx_HAL_Driver/Src/stm32l4xx_ll_sdmmc.c ****   {
1426:Drivers/STM32L4xx_HAL_Driver/Src/stm32l4xx_ll_sdmmc.c ****     return SDMMC_ERROR_GENERAL_UNKNOWN_ERR;
 2733              		.loc 1 1426 12
 2734 01c2 4FF48033 		mov	r3, #65536
 2735              	.L88:
1427:Drivers/STM32L4xx_HAL_Driver/Src/stm32l4xx_ll_sdmmc.c ****   }
1428:Drivers/STM32L4xx_HAL_Driver/Src/stm32l4xx_ll_sdmmc.c **** }
 2736              		.loc 1 1428 1
 2737 01c6 1846     		mov	r0, r3
 2738 01c8 2037     		adds	r7, r7, #32
 2739              		.cfi_def_cfa_offset 8
 2740 01ca BD46     		mov	sp, r7
 2741              		.cfi_def_cfa_register 13
 2742              		@ sp needed
 2743 01cc 80BD     		pop	{r7, pc}
 2744              	.L113:
 2745 01ce 00BF     		.align	2
 2746              	.L112:
ARM GAS  /tmp/ccZ1T6Sv.s 			page 73


 2747 01d0 00000000 		.word	SystemCoreClock
 2748 01d4 D34D6210 		.word	274877907
 2749 01d8 08E0FFFD 		.word	-33562616
 2750              		.cfi_endproc
 2751              	.LFE486:
 2753              		.section	.text.SDMMC_GetCmdResp2,"ax",%progbits
 2754              		.align	1
 2755              		.global	SDMMC_GetCmdResp2
 2756              		.syntax unified
 2757              		.thumb
 2758              		.thumb_func
 2760              	SDMMC_GetCmdResp2:
 2761              	.LFB487:
1429:Drivers/STM32L4xx_HAL_Driver/Src/stm32l4xx_ll_sdmmc.c **** 
1430:Drivers/STM32L4xx_HAL_Driver/Src/stm32l4xx_ll_sdmmc.c **** /**
1431:Drivers/STM32L4xx_HAL_Driver/Src/stm32l4xx_ll_sdmmc.c ****   * @brief  Checks for error conditions for R2 (CID or CSD) response.
1432:Drivers/STM32L4xx_HAL_Driver/Src/stm32l4xx_ll_sdmmc.c ****   * @param  SDMMCx Pointer to SDMMC register base
1433:Drivers/STM32L4xx_HAL_Driver/Src/stm32l4xx_ll_sdmmc.c ****   * @retval SD Card error state
1434:Drivers/STM32L4xx_HAL_Driver/Src/stm32l4xx_ll_sdmmc.c ****   */
1435:Drivers/STM32L4xx_HAL_Driver/Src/stm32l4xx_ll_sdmmc.c **** uint32_t SDMMC_GetCmdResp2(SDMMC_TypeDef *SDMMCx)
1436:Drivers/STM32L4xx_HAL_Driver/Src/stm32l4xx_ll_sdmmc.c **** {
 2762              		.loc 1 1436 1
 2763              		.cfi_startproc
 2764              		@ args = 0, pretend = 0, frame = 16
 2765              		@ frame_needed = 1, uses_anonymous_args = 0
 2766              		@ link register save eliminated.
 2767 0000 80B4     		push	{r7}
 2768              		.cfi_def_cfa_offset 4
 2769              		.cfi_offset 7, -4
 2770 0002 85B0     		sub	sp, sp, #20
 2771              		.cfi_def_cfa_offset 24
 2772 0004 00AF     		add	r7, sp, #0
 2773              		.cfi_def_cfa_register 7
 2774 0006 7860     		str	r0, [r7, #4]
1437:Drivers/STM32L4xx_HAL_Driver/Src/stm32l4xx_ll_sdmmc.c ****   uint32_t sta_reg;
1438:Drivers/STM32L4xx_HAL_Driver/Src/stm32l4xx_ll_sdmmc.c ****   /* 8 is the number of required instructions cycles for the below loop statement.
1439:Drivers/STM32L4xx_HAL_Driver/Src/stm32l4xx_ll_sdmmc.c ****   The SDMMC_CMDTIMEOUT is expressed in ms */
1440:Drivers/STM32L4xx_HAL_Driver/Src/stm32l4xx_ll_sdmmc.c ****   uint32_t count = SDMMC_CMDTIMEOUT * (SystemCoreClock / 8U / 1000U);
 2775              		.loc 1 1440 61
 2776 0008 1F4B     		ldr	r3, .L121
 2777 000a 1B68     		ldr	r3, [r3]
 2778 000c 1F4A     		ldr	r2, .L121+4
 2779 000e A2FB0323 		umull	r2, r3, r2, r3
 2780 0012 5B0A     		lsrs	r3, r3, #9
 2781              		.loc 1 1440 12
 2782 0014 41F28832 		movw	r2, #5000
 2783 0018 02FB03F3 		mul	r3, r2, r3
 2784 001c FB60     		str	r3, [r7, #12]
 2785              	.L115:
1441:Drivers/STM32L4xx_HAL_Driver/Src/stm32l4xx_ll_sdmmc.c **** 
1442:Drivers/STM32L4xx_HAL_Driver/Src/stm32l4xx_ll_sdmmc.c ****   do
1443:Drivers/STM32L4xx_HAL_Driver/Src/stm32l4xx_ll_sdmmc.c ****   {
1444:Drivers/STM32L4xx_HAL_Driver/Src/stm32l4xx_ll_sdmmc.c ****     if (count-- == 0U)
 2786              		.loc 1 1444 14
 2787 001e FB68     		ldr	r3, [r7, #12]
 2788 0020 5A1E     		subs	r2, r3, #1
 2789 0022 FA60     		str	r2, [r7, #12]
ARM GAS  /tmp/ccZ1T6Sv.s 			page 74


 2790              		.loc 1 1444 8
 2791 0024 002B     		cmp	r3, #0
 2792 0026 02D1     		bne	.L116
1445:Drivers/STM32L4xx_HAL_Driver/Src/stm32l4xx_ll_sdmmc.c ****     {
1446:Drivers/STM32L4xx_HAL_Driver/Src/stm32l4xx_ll_sdmmc.c ****       return SDMMC_ERROR_TIMEOUT;
 2793              		.loc 1 1446 14
 2794 0028 4FF00043 		mov	r3, #-2147483648
 2795 002c 26E0     		b	.L117
 2796              	.L116:
1447:Drivers/STM32L4xx_HAL_Driver/Src/stm32l4xx_ll_sdmmc.c ****     }
1448:Drivers/STM32L4xx_HAL_Driver/Src/stm32l4xx_ll_sdmmc.c ****     sta_reg = SDMMCx->STA;
 2797              		.loc 1 1448 13
 2798 002e 7B68     		ldr	r3, [r7, #4]
 2799 0030 5B6B     		ldr	r3, [r3, #52]
 2800 0032 BB60     		str	r3, [r7, #8]
1449:Drivers/STM32L4xx_HAL_Driver/Src/stm32l4xx_ll_sdmmc.c ****   } while (((sta_reg & (SDMMC_FLAG_CCRCFAIL | SDMMC_FLAG_CMDREND | SDMMC_FLAG_CTIMEOUT)) == 0U) ||
 2801              		.loc 1 1449 22
 2802 0034 BB68     		ldr	r3, [r7, #8]
 2803 0036 03F04503 		and	r3, r3, #69
 2804              		.loc 1 1449 97
 2805 003a 002B     		cmp	r3, #0
 2806 003c EFD0     		beq	.L115
1450:Drivers/STM32L4xx_HAL_Driver/Src/stm32l4xx_ll_sdmmc.c ****            ((sta_reg & SDMMC_FLAG_CMDACT) != 0U));
 2807              		.loc 1 1450 22
