ARM GAS  /tmp/ccMw5Apb.s 			page 1


   1              		.cpu cortex-m4
   2              		.arch armv7e-m
   3              		.fpu fpv4-sp-d16
   4              		.eabi_attribute 27, 1
   5              		.eabi_attribute 28, 1
   6              		.eabi_attribute 20, 1
   7              		.eabi_attribute 21, 1
   8              		.eabi_attribute 23, 3
   9              		.eabi_attribute 24, 1
  10              		.eabi_attribute 25, 1
  11              		.eabi_attribute 26, 1
  12              		.eabi_attribute 30, 6
  13              		.eabi_attribute 34, 1
  14              		.eabi_attribute 18, 4
  15              		.file	"stm32l475e_iot01_magneto.c"
  16              		.text
  17              	.Ltext0:
  18              		.cfi_sections	.debug_frame
  19              		.file 1 "Drivers/BSP/B-L475E-IOT01/stm32l475e_iot01_magneto.c"
  20              		.section	.rodata.CHANNEL_OFFSET_TAB,"a"
  21              		.align	2
  24              	CHANNEL_OFFSET_TAB:
  25 0000 081C3044 		.ascii	"\010\0340DXl\200"
  25      586C80
  26              		.section	.bss.MagnetoDrv,"aw",%nobits
  27              		.align	2
  30              	MagnetoDrv:
  31 0000 00000000 		.space	4
  32              		.section	.text.BSP_MAGNETO_Init,"ax",%progbits
  33              		.align	1
  34              		.global	BSP_MAGNETO_Init
  35              		.syntax unified
  36              		.thumb
  37              		.thumb_func
  39              	BSP_MAGNETO_Init:
  40              	.LFB445:
   1:Drivers/BSP/B-L475E-IOT01/stm32l475e_iot01_magneto.c **** /**
   2:Drivers/BSP/B-L475E-IOT01/stm32l475e_iot01_magneto.c ****   ******************************************************************************
   3:Drivers/BSP/B-L475E-IOT01/stm32l475e_iot01_magneto.c ****   * @file    stm32l475e_iot01_magneto.c
   4:Drivers/BSP/B-L475E-IOT01/stm32l475e_iot01_magneto.c ****   * @author  MCD Application Team
   5:Drivers/BSP/B-L475E-IOT01/stm32l475e_iot01_magneto.c ****   * @brief   This file provides a set of functions needed to manage the magnetometer sensor
   6:Drivers/BSP/B-L475E-IOT01/stm32l475e_iot01_magneto.c ****   ******************************************************************************
   7:Drivers/BSP/B-L475E-IOT01/stm32l475e_iot01_magneto.c ****   * @attention
   8:Drivers/BSP/B-L475E-IOT01/stm32l475e_iot01_magneto.c ****   *
   9:Drivers/BSP/B-L475E-IOT01/stm32l475e_iot01_magneto.c ****   * Copyright (c) 2017 STMicroelectronics.
  10:Drivers/BSP/B-L475E-IOT01/stm32l475e_iot01_magneto.c ****   * All rights reserved.
  11:Drivers/BSP/B-L475E-IOT01/stm32l475e_iot01_magneto.c ****   *
  12:Drivers/BSP/B-L475E-IOT01/stm32l475e_iot01_magneto.c ****   * This software is licensed under terms that can be found in the LICENSE file
  13:Drivers/BSP/B-L475E-IOT01/stm32l475e_iot01_magneto.c ****   * in the root directory of this software component.
  14:Drivers/BSP/B-L475E-IOT01/stm32l475e_iot01_magneto.c ****   * If no LICENSE file comes with this software, it is provided AS-IS.
  15:Drivers/BSP/B-L475E-IOT01/stm32l475e_iot01_magneto.c ****   *
  16:Drivers/BSP/B-L475E-IOT01/stm32l475e_iot01_magneto.c ****   ******************************************************************************
  17:Drivers/BSP/B-L475E-IOT01/stm32l475e_iot01_magneto.c ****   */
  18:Drivers/BSP/B-L475E-IOT01/stm32l475e_iot01_magneto.c **** 
  19:Drivers/BSP/B-L475E-IOT01/stm32l475e_iot01_magneto.c **** /* Includes ------------------------------------------------------------------*/
  20:Drivers/BSP/B-L475E-IOT01/stm32l475e_iot01_magneto.c **** #include "stm32l475e_iot01_magneto.h"
  21:Drivers/BSP/B-L475E-IOT01/stm32l475e_iot01_magneto.c **** 
ARM GAS  /tmp/ccMw5Apb.s 			page 2


  22:Drivers/BSP/B-L475E-IOT01/stm32l475e_iot01_magneto.c **** /** @addtogroup BSP
  23:Drivers/BSP/B-L475E-IOT01/stm32l475e_iot01_magneto.c ****   * @{
  24:Drivers/BSP/B-L475E-IOT01/stm32l475e_iot01_magneto.c ****   */
  25:Drivers/BSP/B-L475E-IOT01/stm32l475e_iot01_magneto.c **** 
  26:Drivers/BSP/B-L475E-IOT01/stm32l475e_iot01_magneto.c **** /** @addtogroup STM32L475E_IOT01
  27:Drivers/BSP/B-L475E-IOT01/stm32l475e_iot01_magneto.c ****   * @{
  28:Drivers/BSP/B-L475E-IOT01/stm32l475e_iot01_magneto.c ****   */
  29:Drivers/BSP/B-L475E-IOT01/stm32l475e_iot01_magneto.c ****       
  30:Drivers/BSP/B-L475E-IOT01/stm32l475e_iot01_magneto.c **** /** @defgroup STM32L475E_IOT01_MAGNETO MAGNETO
  31:Drivers/BSP/B-L475E-IOT01/stm32l475e_iot01_magneto.c ****   * @{
  32:Drivers/BSP/B-L475E-IOT01/stm32l475e_iot01_magneto.c ****   */ 
  33:Drivers/BSP/B-L475E-IOT01/stm32l475e_iot01_magneto.c **** 
  34:Drivers/BSP/B-L475E-IOT01/stm32l475e_iot01_magneto.c **** /** @defgroup STM32L475E_IOT01_MAGNETO_Private_Variables MAGNETO Private Variables
  35:Drivers/BSP/B-L475E-IOT01/stm32l475e_iot01_magneto.c ****   * @{
  36:Drivers/BSP/B-L475E-IOT01/stm32l475e_iot01_magneto.c ****   */
  37:Drivers/BSP/B-L475E-IOT01/stm32l475e_iot01_magneto.c **** static MAGNETO_DrvTypeDef  *MagnetoDrv;
  38:Drivers/BSP/B-L475E-IOT01/stm32l475e_iot01_magneto.c **** /**
  39:Drivers/BSP/B-L475E-IOT01/stm32l475e_iot01_magneto.c ****   * @}
  40:Drivers/BSP/B-L475E-IOT01/stm32l475e_iot01_magneto.c ****   */
  41:Drivers/BSP/B-L475E-IOT01/stm32l475e_iot01_magneto.c **** 
  42:Drivers/BSP/B-L475E-IOT01/stm32l475e_iot01_magneto.c **** 
  43:Drivers/BSP/B-L475E-IOT01/stm32l475e_iot01_magneto.c **** /** @defgroup STM32L475E_IOT01_MAGNETO_Private_Functions MAGNETO Private Functions
  44:Drivers/BSP/B-L475E-IOT01/stm32l475e_iot01_magneto.c ****   * @{
  45:Drivers/BSP/B-L475E-IOT01/stm32l475e_iot01_magneto.c ****   */
  46:Drivers/BSP/B-L475E-IOT01/stm32l475e_iot01_magneto.c **** 
  47:Drivers/BSP/B-L475E-IOT01/stm32l475e_iot01_magneto.c **** /**
  48:Drivers/BSP/B-L475E-IOT01/stm32l475e_iot01_magneto.c ****  * @brief Initialize a magnetometer sensor
  49:Drivers/BSP/B-L475E-IOT01/stm32l475e_iot01_magneto.c ****  * @retval COMPONENT_ERROR in case of failure
  50:Drivers/BSP/B-L475E-IOT01/stm32l475e_iot01_magneto.c ****  */
  51:Drivers/BSP/B-L475E-IOT01/stm32l475e_iot01_magneto.c **** MAGNETO_StatusTypeDef BSP_MAGNETO_Init(void)
  52:Drivers/BSP/B-L475E-IOT01/stm32l475e_iot01_magneto.c **** {
  41              		.loc 1 52 1
  42              		.cfi_startproc
  43              		@ args = 0, pretend = 0, frame = 8
  44              		@ frame_needed = 1, uses_anonymous_args = 0
  45 0000 80B5     		push	{r7, lr}
  46              		.cfi_def_cfa_offset 8
  47              		.cfi_offset 7, -8
  48              		.cfi_offset 14, -4
  49 0002 82B0     		sub	sp, sp, #8
  50              		.cfi_def_cfa_offset 16
  51 0004 00AF     		add	r7, sp, #0
  52              		.cfi_def_cfa_register 7
  53:Drivers/BSP/B-L475E-IOT01/stm32l475e_iot01_magneto.c ****   MAGNETO_StatusTypeDef ret = MAGNETO_OK;
  53              		.loc 1 53 25
  54 0006 0023     		movs	r3, #0
  55 0008 FB71     		strb	r3, [r7, #7]
  54:Drivers/BSP/B-L475E-IOT01/stm32l475e_iot01_magneto.c ****   MAGNETO_InitTypeDef LIS3MDL_InitStructureMag;
  55:Drivers/BSP/B-L475E-IOT01/stm32l475e_iot01_magneto.c **** 
  56:Drivers/BSP/B-L475E-IOT01/stm32l475e_iot01_magneto.c ****   if(Lis3mdlMagDrv.ReadID() != I_AM_LIS3MDL)
  56              		.loc 1 56 19
  57 000a 114B     		ldr	r3, .L5
  58 000c 9B68     		ldr	r3, [r3, #8]
  59              		.loc 1 56 6
  60 000e 9847     		blx	r3
  61              	.LVL0:
  62 0010 0346     		mov	r3, r0
ARM GAS  /tmp/ccMw5Apb.s 			page 3


  63              		.loc 1 56 5 discriminator 1
  64 0012 3D2B     		cmp	r3, #61
  65 0014 02D0     		beq	.L2
  57:Drivers/BSP/B-L475E-IOT01/stm32l475e_iot01_magneto.c ****   {
  58:Drivers/BSP/B-L475E-IOT01/stm32l475e_iot01_magneto.c ****     ret = MAGNETO_ERROR;
  66              		.loc 1 58 9
  67 0016 0123     		movs	r3, #1
  68 0018 FB71     		strb	r3, [r7, #7]
  69 001a 13E0     		b	.L3
  70              	.L2:
  59:Drivers/BSP/B-L475E-IOT01/stm32l475e_iot01_magneto.c ****   }
  60:Drivers/BSP/B-L475E-IOT01/stm32l475e_iot01_magneto.c ****   else
  61:Drivers/BSP/B-L475E-IOT01/stm32l475e_iot01_magneto.c ****   {
  62:Drivers/BSP/B-L475E-IOT01/stm32l475e_iot01_magneto.c ****     /* Initialize the MAGNETO magnetometer driver structure */
  63:Drivers/BSP/B-L475E-IOT01/stm32l475e_iot01_magneto.c ****     MagnetoDrv = &Lis3mdlMagDrv;
  71              		.loc 1 63 16
  72 001c 0D4B     		ldr	r3, .L5+4
  73 001e 0C4A     		ldr	r2, .L5
  74 0020 1A60     		str	r2, [r3]
  64:Drivers/BSP/B-L475E-IOT01/stm32l475e_iot01_magneto.c ****     
  65:Drivers/BSP/B-L475E-IOT01/stm32l475e_iot01_magneto.c ****     /* MEMS configuration ------------------------------------------------------*/
  66:Drivers/BSP/B-L475E-IOT01/stm32l475e_iot01_magneto.c ****     /* Fill the MAGNETO magnetometer structure */
  67:Drivers/BSP/B-L475E-IOT01/stm32l475e_iot01_magneto.c ****     LIS3MDL_InitStructureMag.Register1 = LIS3MDL_MAG_TEMPSENSOR_DISABLE | LIS3MDL_MAG_OM_XY_HIGH | 
  75              		.loc 1 67 40
  76 0022 5823     		movs	r3, #88
  77 0024 3B70     		strb	r3, [r7]
  68:Drivers/BSP/B-L475E-IOT01/stm32l475e_iot01_magneto.c ****     LIS3MDL_InitStructureMag.Register2 = LIS3MDL_MAG_FS_4_GA | LIS3MDL_MAG_REBOOT_DEFAULT | LIS3MDL
  78              		.loc 1 68 40
  79 0026 0023     		movs	r3, #0
  80 0028 7B70     		strb	r3, [r7, #1]
  69:Drivers/BSP/B-L475E-IOT01/stm32l475e_iot01_magneto.c ****     LIS3MDL_InitStructureMag.Register3 = LIS3MDL_MAG_CONFIG_NORMAL_MODE | LIS3MDL_MAG_CONTINUOUS_MO
  81              		.loc 1 69 40
  82 002a 0023     		movs	r3, #0
  83 002c BB70     		strb	r3, [r7, #2]
  70:Drivers/BSP/B-L475E-IOT01/stm32l475e_iot01_magneto.c ****     LIS3MDL_InitStructureMag.Register4 = LIS3MDL_MAG_OM_Z_HIGH | LIS3MDL_MAG_BLE_LSB;
  84              		.loc 1 70 40
  85 002e 0823     		movs	r3, #8
  86 0030 FB70     		strb	r3, [r7, #3]
  71:Drivers/BSP/B-L475E-IOT01/stm32l475e_iot01_magneto.c ****     LIS3MDL_InitStructureMag.Register5 = LIS3MDL_MAG_BDU_MSBLSB;
  87              		.loc 1 71 40
  88 0032 4023     		movs	r3, #64
  89 0034 3B71     		strb	r3, [r7, #4]
  72:Drivers/BSP/B-L475E-IOT01/stm32l475e_iot01_magneto.c ****     /* Configure the MAGNETO magnetometer main parameters */
  73:Drivers/BSP/B-L475E-IOT01/stm32l475e_iot01_magneto.c ****     MagnetoDrv->Init(LIS3MDL_InitStructureMag);
  90              		.loc 1 73 15
  91 0036 074B     		ldr	r3, .L5+4
  92 0038 1B68     		ldr	r3, [r3]
  93 003a 1B68     		ldr	r3, [r3]
  94              		.loc 1 73 5
  95 003c 3A46     		mov	r2, r7
  96 003e 92E80300 		ldm	r2, {r0, r1}
  97 0042 9847     		blx	r3
  98              	.LVL1:
  99              	.L3:
  74:Drivers/BSP/B-L475E-IOT01/stm32l475e_iot01_magneto.c ****   } 
  75:Drivers/BSP/B-L475E-IOT01/stm32l475e_iot01_magneto.c **** 
  76:Drivers/BSP/B-L475E-IOT01/stm32l475e_iot01_magneto.c ****   return ret;  
ARM GAS  /tmp/ccMw5Apb.s 			page 4


 100              		.loc 1 76 10
 101 0044 FB79     		ldrb	r3, [r7, #7]	@ zero_extendqisi2
  77:Drivers/BSP/B-L475E-IOT01/stm32l475e_iot01_magneto.c **** }
 102              		.loc 1 77 1
 103 0046 1846     		mov	r0, r3
 104 0048 0837     		adds	r7, r7, #8
 105              		.cfi_def_cfa_offset 8
 106 004a BD46     		mov	sp, r7
 107              		.cfi_def_cfa_register 13
 108              		@ sp needed
 109 004c 80BD     		pop	{r7, pc}
 110              	.L6:
 111 004e 00BF     		.align	2
 112              	.L5:
 113 0050 00000000 		.word	Lis3mdlMagDrv
 114 0054 00000000 		.word	MagnetoDrv
 115              		.cfi_endproc
 116              	.LFE445:
 118              		.section	.text.BSP_MAGNETO_DeInit,"ax",%progbits
 119              		.align	1
 120              		.global	BSP_MAGNETO_DeInit
 121              		.syntax unified
 122              		.thumb
 123              		.thumb_func
 125              	BSP_MAGNETO_DeInit:
 126              	.LFB446:
  78:Drivers/BSP/B-L475E-IOT01/stm32l475e_iot01_magneto.c **** 
  79:Drivers/BSP/B-L475E-IOT01/stm32l475e_iot01_magneto.c **** /**
  80:Drivers/BSP/B-L475E-IOT01/stm32l475e_iot01_magneto.c ****   * @brief  DeInitialize the MAGNETO.
  81:Drivers/BSP/B-L475E-IOT01/stm32l475e_iot01_magneto.c ****   */
  82:Drivers/BSP/B-L475E-IOT01/stm32l475e_iot01_magneto.c **** void BSP_MAGNETO_DeInit(void)
  83:Drivers/BSP/B-L475E-IOT01/stm32l475e_iot01_magneto.c **** {
 127              		.loc 1 83 1
 128              		.cfi_startproc
 129              		@ args = 0, pretend = 0, frame = 0
 130              		@ frame_needed = 1, uses_anonymous_args = 0
 131 0000 80B5     		push	{r7, lr}
 132              		.cfi_def_cfa_offset 8
 133              		.cfi_offset 7, -8
 134              		.cfi_offset 14, -4
 135 0002 00AF     		add	r7, sp, #0
 136              		.cfi_def_cfa_register 7
  84:Drivers/BSP/B-L475E-IOT01/stm32l475e_iot01_magneto.c ****   /* DeInitialize the  magnetometer IO interfaces */
  85:Drivers/BSP/B-L475E-IOT01/stm32l475e_iot01_magneto.c ****   if(MagnetoDrv != NULL)
 137              		.loc 1 85 17
 138 0004 074B     		ldr	r3, .L10
 139 0006 1B68     		ldr	r3, [r3]
 140              		.loc 1 85 5
 141 0008 002B     		cmp	r3, #0
 142 000a 08D0     		beq	.L9
  86:Drivers/BSP/B-L475E-IOT01/stm32l475e_iot01_magneto.c ****   {
  87:Drivers/BSP/B-L475E-IOT01/stm32l475e_iot01_magneto.c ****     if(MagnetoDrv->DeInit != NULL)
 143              		.loc 1 87 18
 144 000c 054B     		ldr	r3, .L10
 145 000e 1B68     		ldr	r3, [r3]
 146 0010 5B68     		ldr	r3, [r3, #4]
 147              		.loc 1 87 7
ARM GAS  /tmp/ccMw5Apb.s 			page 5


 148 0012 002B     		cmp	r3, #0
 149 0014 03D0     		beq	.L9
  88:Drivers/BSP/B-L475E-IOT01/stm32l475e_iot01_magneto.c ****     {
  89:Drivers/BSP/B-L475E-IOT01/stm32l475e_iot01_magneto.c ****       MagnetoDrv->DeInit();
 150              		.loc 1 89 17
 151 0016 034B     		ldr	r3, .L10
 152 0018 1B68     		ldr	r3, [r3]
 153 001a 5B68     		ldr	r3, [r3, #4]
 154              		.loc 1 89 7
 155 001c 9847     		blx	r3
 156              	.LVL2:
 157              	.L9:
  90:Drivers/BSP/B-L475E-IOT01/stm32l475e_iot01_magneto.c ****     }
  91:Drivers/BSP/B-L475E-IOT01/stm32l475e_iot01_magneto.c ****   }
  92:Drivers/BSP/B-L475E-IOT01/stm32l475e_iot01_magneto.c **** }
 158              		.loc 1 92 1
 159 001e 00BF     		nop
 160 0020 80BD     		pop	{r7, pc}
 161              	.L11:
 162 0022 00BF     		.align	2
 163              	.L10:
 164 0024 00000000 		.word	MagnetoDrv
 165              		.cfi_endproc
 166              	.LFE446:
 168              		.section	.text.BSP_MAGNETO_LowPower,"ax",%progbits
 169              		.align	1
 170              		.global	BSP_MAGNETO_LowPower
 171              		.syntax unified
 172              		.thumb
 173              		.thumb_func
 175              	BSP_MAGNETO_LowPower:
 176              	.LFB447:
  93:Drivers/BSP/B-L475E-IOT01/stm32l475e_iot01_magneto.c **** 
  94:Drivers/BSP/B-L475E-IOT01/stm32l475e_iot01_magneto.c **** /**
  95:Drivers/BSP/B-L475E-IOT01/stm32l475e_iot01_magneto.c ****   * @brief  Set/Unset the MAGNETO in low power mode.
  96:Drivers/BSP/B-L475E-IOT01/stm32l475e_iot01_magneto.c ****   */
  97:Drivers/BSP/B-L475E-IOT01/stm32l475e_iot01_magneto.c **** void BSP_MAGNETO_LowPower(uint16_t status)
  98:Drivers/BSP/B-L475E-IOT01/stm32l475e_iot01_magneto.c **** {
 177              		.loc 1 98 1
 178              		.cfi_startproc
 179              		@ args = 0, pretend = 0, frame = 8
 180              		@ frame_needed = 1, uses_anonymous_args = 0
 181 0000 80B5     		push	{r7, lr}
 182              		.cfi_def_cfa_offset 8
 183              		.cfi_offset 7, -8
 184              		.cfi_offset 14, -4
 185 0002 82B0     		sub	sp, sp, #8
 186              		.cfi_def_cfa_offset 16
 187 0004 00AF     		add	r7, sp, #0
 188              		.cfi_def_cfa_register 7
 189 0006 0346     		mov	r3, r0
 190 0008 FB80     		strh	r3, [r7, #6]	@ movhi
  99:Drivers/BSP/B-L475E-IOT01/stm32l475e_iot01_magneto.c ****   /* Put the magnetometer in low power mode */
 100:Drivers/BSP/B-L475E-IOT01/stm32l475e_iot01_magneto.c ****   if(MagnetoDrv != NULL)
 191              		.loc 1 100 17
 192 000a 094B     		ldr	r3, .L15
 193 000c 1B68     		ldr	r3, [r3]
ARM GAS  /tmp/ccMw5Apb.s 			page 6


 194              		.loc 1 100 5
 195 000e 002B     		cmp	r3, #0
 196 0010 0AD0     		beq	.L14
 101:Drivers/BSP/B-L475E-IOT01/stm32l475e_iot01_magneto.c ****   {
 102:Drivers/BSP/B-L475E-IOT01/stm32l475e_iot01_magneto.c ****     if(MagnetoDrv->LowPower != NULL)
 197              		.loc 1 102 18
 198 0012 074B     		ldr	r3, .L15
 199 0014 1B68     		ldr	r3, [r3]
 200 0016 1B69     		ldr	r3, [r3, #16]
 201              		.loc 1 102 7
 202 0018 002B     		cmp	r3, #0
 203 001a 05D0     		beq	.L14
 103:Drivers/BSP/B-L475E-IOT01/stm32l475e_iot01_magneto.c ****     {
 104:Drivers/BSP/B-L475E-IOT01/stm32l475e_iot01_magneto.c ****       MagnetoDrv->LowPower(status);
 204              		.loc 1 104 17
 205 001c 044B     		ldr	r3, .L15
 206 001e 1B68     		ldr	r3, [r3]
 207 0020 1B69     		ldr	r3, [r3, #16]
 208              		.loc 1 104 7
 209 0022 FA88     		ldrh	r2, [r7, #6]
 210 0024 1046     		mov	r0, r2
 211 0026 9847     		blx	r3
 212              	.LVL3:
 213              	.L14:
 105:Drivers/BSP/B-L475E-IOT01/stm32l475e_iot01_magneto.c ****     }
 106:Drivers/BSP/B-L475E-IOT01/stm32l475e_iot01_magneto.c ****   }
 107:Drivers/BSP/B-L475E-IOT01/stm32l475e_iot01_magneto.c **** }
 214              		.loc 1 107 1
 215 0028 00BF     		nop
 216 002a 0837     		adds	r7, r7, #8
 217              		.cfi_def_cfa_offset 8
 218 002c BD46     		mov	sp, r7
 219              		.cfi_def_cfa_register 13
 220              		@ sp needed
 221 002e 80BD     		pop	{r7, pc}
 222              	.L16:
 223              		.align	2
 224              	.L15:
 225 0030 00000000 		.word	MagnetoDrv
 226              		.cfi_endproc
 227              	.LFE447:
 229              		.section	.text.BSP_MAGNETO_GetXYZ,"ax",%progbits
 230              		.align	1
 231              		.global	BSP_MAGNETO_GetXYZ
 232              		.syntax unified
 233              		.thumb
 234              		.thumb_func
 236              	BSP_MAGNETO_GetXYZ:
 237              	.LFB448:
 108:Drivers/BSP/B-L475E-IOT01/stm32l475e_iot01_magneto.c **** 
 109:Drivers/BSP/B-L475E-IOT01/stm32l475e_iot01_magneto.c **** /**
 110:Drivers/BSP/B-L475E-IOT01/stm32l475e_iot01_magneto.c ****   * @brief  Get XYZ magnetometer values.
 111:Drivers/BSP/B-L475E-IOT01/stm32l475e_iot01_magneto.c ****   * @param  pDataXYZ Pointer on 3 magnetometer values table with
 112:Drivers/BSP/B-L475E-IOT01/stm32l475e_iot01_magneto.c ****   *                  pDataXYZ[0] = X axis, pDataXYZ[1] = Y axis, pDataXYZ[2] = Z axis 
 113:Drivers/BSP/B-L475E-IOT01/stm32l475e_iot01_magneto.c ****   */
 114:Drivers/BSP/B-L475E-IOT01/stm32l475e_iot01_magneto.c **** void BSP_MAGNETO_GetXYZ(int16_t *pDataXYZ)
 115:Drivers/BSP/B-L475E-IOT01/stm32l475e_iot01_magneto.c **** {
ARM GAS  /tmp/ccMw5Apb.s 			page 7


 238              		.loc 1 115 1
 239              		.cfi_startproc
 240              		@ args = 0, pretend = 0, frame = 8
 241              		@ frame_needed = 1, uses_anonymous_args = 0
 242 0000 80B5     		push	{r7, lr}
 243              		.cfi_def_cfa_offset 8
 244              		.cfi_offset 7, -8
 245              		.cfi_offset 14, -4
 246 0002 82B0     		sub	sp, sp, #8
 247              		.cfi_def_cfa_offset 16
 248 0004 00AF     		add	r7, sp, #0
 249              		.cfi_def_cfa_register 7
 250 0006 7860     		str	r0, [r7, #4]
 116:Drivers/BSP/B-L475E-IOT01/stm32l475e_iot01_magneto.c ****   if(MagnetoDrv != NULL)
 251              		.loc 1 116 17
 252 0008 084B     		ldr	r3, .L20
 253 000a 1B68     		ldr	r3, [r3]
 254              		.loc 1 116 5
 255 000c 002B     		cmp	r3, #0
 256 000e 09D0     		beq	.L19
 117:Drivers/BSP/B-L475E-IOT01/stm32l475e_iot01_magneto.c ****   {
 118:Drivers/BSP/B-L475E-IOT01/stm32l475e_iot01_magneto.c ****     if(MagnetoDrv->GetXYZ != NULL)
 257              		.loc 1 118 18
 258 0010 064B     		ldr	r3, .L20
 259 0012 1B68     		ldr	r3, [r3]
 260 0014 1B6B     		ldr	r3, [r3, #48]
 261              		.loc 1 118 7
 262 0016 002B     		cmp	r3, #0
 263 0018 04D0     		beq	.L19
 119:Drivers/BSP/B-L475E-IOT01/stm32l475e_iot01_magneto.c ****     {   
 120:Drivers/BSP/B-L475E-IOT01/stm32l475e_iot01_magneto.c ****       MagnetoDrv->GetXYZ(pDataXYZ);
 264              		.loc 1 120 17
 265 001a 044B     		ldr	r3, .L20
 266 001c 1B68     		ldr	r3, [r3]
 267 001e 1B6B     		ldr	r3, [r3, #48]
 268              		.loc 1 120 7
 269 0020 7868     		ldr	r0, [r7, #4]
 270 0022 9847     		blx	r3
 271              	.LVL4:
 272              	.L19:
 121:Drivers/BSP/B-L475E-IOT01/stm32l475e_iot01_magneto.c ****     }
 122:Drivers/BSP/B-L475E-IOT01/stm32l475e_iot01_magneto.c ****   }
 123:Drivers/BSP/B-L475E-IOT01/stm32l475e_iot01_magneto.c **** }
 273              		.loc 1 123 1
 274 0024 00BF     		nop
 275 0026 0837     		adds	r7, r7, #8
 276              		.cfi_def_cfa_offset 8
 277 0028 BD46     		mov	sp, r7
 278              		.cfi_def_cfa_register 13
 279              		@ sp needed
 280 002a 80BD     		pop	{r7, pc}
 281              	.L21:
 282              		.align	2
 283              	.L20:
 284 002c 00000000 		.word	MagnetoDrv
 285              		.cfi_endproc
 286              	.LFE448:
ARM GAS  /tmp/ccMw5Apb.s 			page 8


 288              		.text
 289              	.Letext0:
 290              		.file 2 "/usr/lib/gcc/arm-none-eabi/13.2.1/include/stdint.h"
 291              		.file 3 "Drivers/BSP/B-L475E-IOT01/../Components/lis3mdl/../Common/magneto.h"
 292              		.file 4 "Drivers/BSP/B-L475E-IOT01/stm32l475e_iot01_magneto.h"
 293              		.file 5 "Drivers/STM32L4xx_HAL_Driver/Inc/stm32l4xx_ll_dma.h"
 294              		.file 6 "Drivers/BSP/B-L475E-IOT01/../Components/lis3mdl/lis3mdl.h"
ARM GAS  /tmp/ccMw5Apb.s 			page 9

