ARM GAS  /tmp/cc3N4Hnz.s 			page 1


   1              		.cpu cortex-m4
   2              		.arch armv7e-m
   3              		.fpu fpv4-sp-d16
   4              		.eabi_attribute 27, 1
   5              		.eabi_attribute 28, 1
   6              		.eabi_attribute 20, 1
   7              		.eabi_attribute 21, 1
   8              		.eabi_attribute 23, 3
   9              		.eabi_attribute 24, 1
  10              		.eabi_attribute 25, 1
  11              		.eabi_attribute 26, 1
  12              		.eabi_attribute 30, 6
  13              		.eabi_attribute 34, 1
  14              		.eabi_attribute 18, 4
  15              		.file	"stm32l4xx_ll_usb.c"
  16              		.text
  17              	.Ltext0:
  18              		.cfi_sections	.debug_frame
  19              		.file 1 "Drivers/STM32L4xx_HAL_Driver/Src/stm32l4xx_ll_usb.c"
  20              		.section	.rodata.CHANNEL_OFFSET_TAB,"a"
  21              		.align	2
  24              	CHANNEL_OFFSET_TAB:
  25 0000 081C3044 		.ascii	"\010\0340DXl\200"
  25      586C80
  26              		.section	.text.USB_CoreInit,"ax",%progbits
  27              		.align	1
  28              		.global	USB_CoreInit
  29              		.syntax unified
  30              		.thumb
  31              		.thumb_func
  33              	USB_CoreInit:
  34              	.LFB445:
   1:Drivers/STM32L4xx_HAL_Driver/Src/stm32l4xx_ll_usb.c **** /**
   2:Drivers/STM32L4xx_HAL_Driver/Src/stm32l4xx_ll_usb.c ****   ******************************************************************************
   3:Drivers/STM32L4xx_HAL_Driver/Src/stm32l4xx_ll_usb.c ****   * @file    stm32l4xx_ll_usb.c
   4:Drivers/STM32L4xx_HAL_Driver/Src/stm32l4xx_ll_usb.c ****   * @author  MCD Application Team
   5:Drivers/STM32L4xx_HAL_Driver/Src/stm32l4xx_ll_usb.c ****   * @brief   USB Low Layer HAL module driver.
   6:Drivers/STM32L4xx_HAL_Driver/Src/stm32l4xx_ll_usb.c ****   *
   7:Drivers/STM32L4xx_HAL_Driver/Src/stm32l4xx_ll_usb.c ****   *          This file provides firmware functions to manage the following
   8:Drivers/STM32L4xx_HAL_Driver/Src/stm32l4xx_ll_usb.c ****   *          functionalities of the USB Peripheral Controller:
   9:Drivers/STM32L4xx_HAL_Driver/Src/stm32l4xx_ll_usb.c ****   *           + Initialization/de-initialization functions
  10:Drivers/STM32L4xx_HAL_Driver/Src/stm32l4xx_ll_usb.c ****   *           + I/O operation functions
  11:Drivers/STM32L4xx_HAL_Driver/Src/stm32l4xx_ll_usb.c ****   *           + Peripheral Control functions
  12:Drivers/STM32L4xx_HAL_Driver/Src/stm32l4xx_ll_usb.c ****   *           + Peripheral State functions
  13:Drivers/STM32L4xx_HAL_Driver/Src/stm32l4xx_ll_usb.c ****   *
  14:Drivers/STM32L4xx_HAL_Driver/Src/stm32l4xx_ll_usb.c ****   ******************************************************************************
  15:Drivers/STM32L4xx_HAL_Driver/Src/stm32l4xx_ll_usb.c ****   * @attention
  16:Drivers/STM32L4xx_HAL_Driver/Src/stm32l4xx_ll_usb.c ****   *
  17:Drivers/STM32L4xx_HAL_Driver/Src/stm32l4xx_ll_usb.c ****   * Copyright (c) 2017 STMicroelectronics.
  18:Drivers/STM32L4xx_HAL_Driver/Src/stm32l4xx_ll_usb.c ****   * All rights reserved.
  19:Drivers/STM32L4xx_HAL_Driver/Src/stm32l4xx_ll_usb.c ****   *
  20:Drivers/STM32L4xx_HAL_Driver/Src/stm32l4xx_ll_usb.c ****   * This software is licensed under terms that can be found in the LICENSE file
  21:Drivers/STM32L4xx_HAL_Driver/Src/stm32l4xx_ll_usb.c ****   * in the root directory of this software component.
  22:Drivers/STM32L4xx_HAL_Driver/Src/stm32l4xx_ll_usb.c ****   * If no LICENSE file comes with this software, it is provided AS-IS.
  23:Drivers/STM32L4xx_HAL_Driver/Src/stm32l4xx_ll_usb.c ****   *
  24:Drivers/STM32L4xx_HAL_Driver/Src/stm32l4xx_ll_usb.c ****   ******************************************************************************
  25:Drivers/STM32L4xx_HAL_Driver/Src/stm32l4xx_ll_usb.c ****   @verbatim
ARM GAS  /tmp/cc3N4Hnz.s 			page 2


  26:Drivers/STM32L4xx_HAL_Driver/Src/stm32l4xx_ll_usb.c ****   ==============================================================================
  27:Drivers/STM32L4xx_HAL_Driver/Src/stm32l4xx_ll_usb.c ****                     ##### How to use this driver #####
  28:Drivers/STM32L4xx_HAL_Driver/Src/stm32l4xx_ll_usb.c ****   ==============================================================================
  29:Drivers/STM32L4xx_HAL_Driver/Src/stm32l4xx_ll_usb.c ****     [..]
  30:Drivers/STM32L4xx_HAL_Driver/Src/stm32l4xx_ll_usb.c ****       (#) Fill parameters of Init structure in USB_CfgTypeDef structure.
  31:Drivers/STM32L4xx_HAL_Driver/Src/stm32l4xx_ll_usb.c **** 
  32:Drivers/STM32L4xx_HAL_Driver/Src/stm32l4xx_ll_usb.c ****       (#) Call USB_CoreInit() API to initialize the USB Core peripheral.
  33:Drivers/STM32L4xx_HAL_Driver/Src/stm32l4xx_ll_usb.c **** 
  34:Drivers/STM32L4xx_HAL_Driver/Src/stm32l4xx_ll_usb.c ****       (#) The upper HAL HCD/PCD driver will call the right routines for its internal processes.
  35:Drivers/STM32L4xx_HAL_Driver/Src/stm32l4xx_ll_usb.c **** 
  36:Drivers/STM32L4xx_HAL_Driver/Src/stm32l4xx_ll_usb.c ****       (#)NOTE: For applications not using double buffer mode, define the symbol
  37:Drivers/STM32L4xx_HAL_Driver/Src/stm32l4xx_ll_usb.c ****                 'USE_USB_DOUBLE_BUFFER' as 0 to reduce the driver's memory footprint.
  38:Drivers/STM32L4xx_HAL_Driver/Src/stm32l4xx_ll_usb.c **** 
  39:Drivers/STM32L4xx_HAL_Driver/Src/stm32l4xx_ll_usb.c ****   @endverbatim
  40:Drivers/STM32L4xx_HAL_Driver/Src/stm32l4xx_ll_usb.c **** 
  41:Drivers/STM32L4xx_HAL_Driver/Src/stm32l4xx_ll_usb.c ****   ******************************************************************************
  42:Drivers/STM32L4xx_HAL_Driver/Src/stm32l4xx_ll_usb.c ****   */
  43:Drivers/STM32L4xx_HAL_Driver/Src/stm32l4xx_ll_usb.c **** 
  44:Drivers/STM32L4xx_HAL_Driver/Src/stm32l4xx_ll_usb.c **** /* Includes ------------------------------------------------------------------*/
  45:Drivers/STM32L4xx_HAL_Driver/Src/stm32l4xx_ll_usb.c **** #include "stm32l4xx_hal.h"
  46:Drivers/STM32L4xx_HAL_Driver/Src/stm32l4xx_ll_usb.c **** 
  47:Drivers/STM32L4xx_HAL_Driver/Src/stm32l4xx_ll_usb.c **** /** @addtogroup STM32L4xx_LL_USB_DRIVER
  48:Drivers/STM32L4xx_HAL_Driver/Src/stm32l4xx_ll_usb.c ****   * @{
  49:Drivers/STM32L4xx_HAL_Driver/Src/stm32l4xx_ll_usb.c ****   */
  50:Drivers/STM32L4xx_HAL_Driver/Src/stm32l4xx_ll_usb.c **** 
  51:Drivers/STM32L4xx_HAL_Driver/Src/stm32l4xx_ll_usb.c **** #if defined (HAL_PCD_MODULE_ENABLED) || defined (HAL_HCD_MODULE_ENABLED)
  52:Drivers/STM32L4xx_HAL_Driver/Src/stm32l4xx_ll_usb.c **** #if defined (USB) || defined (USB_OTG_FS)
  53:Drivers/STM32L4xx_HAL_Driver/Src/stm32l4xx_ll_usb.c **** /* Private typedef -----------------------------------------------------------*/
  54:Drivers/STM32L4xx_HAL_Driver/Src/stm32l4xx_ll_usb.c **** /* Private define ------------------------------------------------------------*/
  55:Drivers/STM32L4xx_HAL_Driver/Src/stm32l4xx_ll_usb.c **** /* Private macro -------------------------------------------------------------*/
  56:Drivers/STM32L4xx_HAL_Driver/Src/stm32l4xx_ll_usb.c **** /* Private variables ---------------------------------------------------------*/
  57:Drivers/STM32L4xx_HAL_Driver/Src/stm32l4xx_ll_usb.c **** /* Private function prototypes -----------------------------------------------*/
  58:Drivers/STM32L4xx_HAL_Driver/Src/stm32l4xx_ll_usb.c **** /* Private functions ---------------------------------------------------------*/
  59:Drivers/STM32L4xx_HAL_Driver/Src/stm32l4xx_ll_usb.c **** #if defined (USB_OTG_FS)
  60:Drivers/STM32L4xx_HAL_Driver/Src/stm32l4xx_ll_usb.c **** static HAL_StatusTypeDef USB_CoreReset(USB_OTG_GlobalTypeDef *USBx);
  61:Drivers/STM32L4xx_HAL_Driver/Src/stm32l4xx_ll_usb.c **** 
  62:Drivers/STM32L4xx_HAL_Driver/Src/stm32l4xx_ll_usb.c **** /* Exported functions --------------------------------------------------------*/
  63:Drivers/STM32L4xx_HAL_Driver/Src/stm32l4xx_ll_usb.c **** /** @defgroup USB_LL_Exported_Functions USB Low Layer Exported Functions
  64:Drivers/STM32L4xx_HAL_Driver/Src/stm32l4xx_ll_usb.c ****   * @{
  65:Drivers/STM32L4xx_HAL_Driver/Src/stm32l4xx_ll_usb.c ****   */
  66:Drivers/STM32L4xx_HAL_Driver/Src/stm32l4xx_ll_usb.c **** 
  67:Drivers/STM32L4xx_HAL_Driver/Src/stm32l4xx_ll_usb.c **** /** @defgroup USB_LL_Exported_Functions_Group1 Initialization/de-initialization functions
  68:Drivers/STM32L4xx_HAL_Driver/Src/stm32l4xx_ll_usb.c ****   *  @brief    Initialization and Configuration functions
  69:Drivers/STM32L4xx_HAL_Driver/Src/stm32l4xx_ll_usb.c ****   *
  70:Drivers/STM32L4xx_HAL_Driver/Src/stm32l4xx_ll_usb.c **** @verbatim
  71:Drivers/STM32L4xx_HAL_Driver/Src/stm32l4xx_ll_usb.c ****  ===============================================================================
  72:Drivers/STM32L4xx_HAL_Driver/Src/stm32l4xx_ll_usb.c ****                       ##### Initialization/de-initialization functions #####
  73:Drivers/STM32L4xx_HAL_Driver/Src/stm32l4xx_ll_usb.c ****  ===============================================================================
  74:Drivers/STM32L4xx_HAL_Driver/Src/stm32l4xx_ll_usb.c **** 
  75:Drivers/STM32L4xx_HAL_Driver/Src/stm32l4xx_ll_usb.c **** @endverbatim
  76:Drivers/STM32L4xx_HAL_Driver/Src/stm32l4xx_ll_usb.c ****   * @{
  77:Drivers/STM32L4xx_HAL_Driver/Src/stm32l4xx_ll_usb.c ****   */
  78:Drivers/STM32L4xx_HAL_Driver/Src/stm32l4xx_ll_usb.c **** 
  79:Drivers/STM32L4xx_HAL_Driver/Src/stm32l4xx_ll_usb.c **** /**
  80:Drivers/STM32L4xx_HAL_Driver/Src/stm32l4xx_ll_usb.c ****   * @brief  Initializes the USB Core
  81:Drivers/STM32L4xx_HAL_Driver/Src/stm32l4xx_ll_usb.c ****   * @param  USBx USB Instance
  82:Drivers/STM32L4xx_HAL_Driver/Src/stm32l4xx_ll_usb.c ****   * @param  cfg pointer to a USB_OTG_CfgTypeDef structure that contains
ARM GAS  /tmp/cc3N4Hnz.s 			page 3


  83:Drivers/STM32L4xx_HAL_Driver/Src/stm32l4xx_ll_usb.c ****   *         the configuration information for the specified USBx peripheral.
  84:Drivers/STM32L4xx_HAL_Driver/Src/stm32l4xx_ll_usb.c ****   * @retval HAL status
  85:Drivers/STM32L4xx_HAL_Driver/Src/stm32l4xx_ll_usb.c ****   */
  86:Drivers/STM32L4xx_HAL_Driver/Src/stm32l4xx_ll_usb.c **** HAL_StatusTypeDef USB_CoreInit(USB_OTG_GlobalTypeDef *USBx, USB_OTG_CfgTypeDef cfg)
  87:Drivers/STM32L4xx_HAL_Driver/Src/stm32l4xx_ll_usb.c **** {
  35              		.loc 1 87 1
  36              		.cfi_startproc
  37              		@ args = 20, pretend = 16, frame = 16
  38              		@ frame_needed = 1, uses_anonymous_args = 0
  39 0000 84B0     		sub	sp, sp, #16
  40              		.cfi_def_cfa_offset 16
  41 0002 80B5     		push	{r7, lr}
  42              		.cfi_def_cfa_offset 24
  43              		.cfi_offset 7, -24
  44              		.cfi_offset 14, -20
  45 0004 84B0     		sub	sp, sp, #16
  46              		.cfi_def_cfa_offset 40
  47 0006 00AF     		add	r7, sp, #0
  48              		.cfi_def_cfa_register 7
  49 0008 7860     		str	r0, [r7, #4]
  50 000a 07F11C00 		add	r0, r7, #28
  51 000e 80E80E00 		stm	r0, {r1, r2, r3}
  88:Drivers/STM32L4xx_HAL_Driver/Src/stm32l4xx_ll_usb.c ****   HAL_StatusTypeDef ret;
  89:Drivers/STM32L4xx_HAL_Driver/Src/stm32l4xx_ll_usb.c **** 
  90:Drivers/STM32L4xx_HAL_Driver/Src/stm32l4xx_ll_usb.c ****   /* Select FS Embedded PHY */
  91:Drivers/STM32L4xx_HAL_Driver/Src/stm32l4xx_ll_usb.c ****   USBx->GUSBCFG |= USB_OTG_GUSBCFG_PHYSEL;
  52              		.loc 1 91 7
  53 0012 7B68     		ldr	r3, [r7, #4]
  54 0014 DB68     		ldr	r3, [r3, #12]
  55              		.loc 1 91 17
  56 0016 43F04002 		orr	r2, r3, #64
  57 001a 7B68     		ldr	r3, [r7, #4]
  58 001c DA60     		str	r2, [r3, #12]
  92:Drivers/STM32L4xx_HAL_Driver/Src/stm32l4xx_ll_usb.c **** 
  93:Drivers/STM32L4xx_HAL_Driver/Src/stm32l4xx_ll_usb.c ****   /* Reset after a PHY select */
  94:Drivers/STM32L4xx_HAL_Driver/Src/stm32l4xx_ll_usb.c ****   ret = USB_CoreReset(USBx);
  59              		.loc 1 94 9
  60 001e 7868     		ldr	r0, [r7, #4]
  61 0020 FFF7FEFF 		bl	USB_CoreReset
  62 0024 0346     		mov	r3, r0
  63 0026 FB73     		strb	r3, [r7, #15]
  95:Drivers/STM32L4xx_HAL_Driver/Src/stm32l4xx_ll_usb.c **** 
  96:Drivers/STM32L4xx_HAL_Driver/Src/stm32l4xx_ll_usb.c ****   if (cfg.battery_charging_enable == 0U)
  64              		.loc 1 96 10
  65 0028 97F82530 		ldrb	r3, [r7, #37]	@ zero_extendqisi2
  66              		.loc 1 96 6
  67 002c 002B     		cmp	r3, #0
  68 002e 06D1     		bne	.L2
  97:Drivers/STM32L4xx_HAL_Driver/Src/stm32l4xx_ll_usb.c ****   {
  98:Drivers/STM32L4xx_HAL_Driver/Src/stm32l4xx_ll_usb.c ****     /* Activate the USB Transceiver */
  99:Drivers/STM32L4xx_HAL_Driver/Src/stm32l4xx_ll_usb.c ****     USBx->GCCFG |= USB_OTG_GCCFG_PWRDWN;
  69              		.loc 1 99 9
  70 0030 7B68     		ldr	r3, [r7, #4]
  71 0032 9B6B     		ldr	r3, [r3, #56]
  72              		.loc 1 99 17
  73 0034 43F48032 		orr	r2, r3, #65536
  74 0038 7B68     		ldr	r3, [r7, #4]
ARM GAS  /tmp/cc3N4Hnz.s 			page 4


  75 003a 9A63     		str	r2, [r3, #56]
  76 003c 05E0     		b	.L3
  77              	.L2:
 100:Drivers/STM32L4xx_HAL_Driver/Src/stm32l4xx_ll_usb.c ****   }
 101:Drivers/STM32L4xx_HAL_Driver/Src/stm32l4xx_ll_usb.c ****   else
 102:Drivers/STM32L4xx_HAL_Driver/Src/stm32l4xx_ll_usb.c ****   {
 103:Drivers/STM32L4xx_HAL_Driver/Src/stm32l4xx_ll_usb.c ****     /* Deactivate the USB Transceiver */
 104:Drivers/STM32L4xx_HAL_Driver/Src/stm32l4xx_ll_usb.c ****     USBx->GCCFG &= ~(USB_OTG_GCCFG_PWRDWN);
  78              		.loc 1 104 9
  79 003e 7B68     		ldr	r3, [r7, #4]
  80 0040 9B6B     		ldr	r3, [r3, #56]
  81              		.loc 1 104 17
  82 0042 23F48032 		bic	r2, r3, #65536
  83 0046 7B68     		ldr	r3, [r7, #4]
  84 0048 9A63     		str	r2, [r3, #56]
  85              	.L3:
 105:Drivers/STM32L4xx_HAL_Driver/Src/stm32l4xx_ll_usb.c ****   }
 106:Drivers/STM32L4xx_HAL_Driver/Src/stm32l4xx_ll_usb.c **** 
 107:Drivers/STM32L4xx_HAL_Driver/Src/stm32l4xx_ll_usb.c ****   return ret;
  86              		.loc 1 107 10
  87 004a FB7B     		ldrb	r3, [r7, #15]	@ zero_extendqisi2
 108:Drivers/STM32L4xx_HAL_Driver/Src/stm32l4xx_ll_usb.c **** }
  88              		.loc 1 108 1
  89 004c 1846     		mov	r0, r3
  90 004e 1037     		adds	r7, r7, #16
  91              		.cfi_def_cfa_offset 24
  92 0050 BD46     		mov	sp, r7
  93              		.cfi_def_cfa_register 13
  94              		@ sp needed
  95 0052 BDE88040 		pop	{r7, lr}
  96              		.cfi_restore 14
  97              		.cfi_restore 7
  98              		.cfi_def_cfa_offset 16
  99 0056 04B0     		add	sp, sp, #16
 100              		.cfi_def_cfa_offset 0
 101 0058 7047     		bx	lr
 102              		.cfi_endproc
 103              	.LFE445:
 105              		.section	.text.USB_SetTurnaroundTime,"ax",%progbits
 106              		.align	1
 107              		.global	USB_SetTurnaroundTime
 108              		.syntax unified
 109              		.thumb
 110              		.thumb_func
 112              	USB_SetTurnaroundTime:
 113              	.LFB446:
 109:Drivers/STM32L4xx_HAL_Driver/Src/stm32l4xx_ll_usb.c **** 
 110:Drivers/STM32L4xx_HAL_Driver/Src/stm32l4xx_ll_usb.c **** 
 111:Drivers/STM32L4xx_HAL_Driver/Src/stm32l4xx_ll_usb.c **** /**
 112:Drivers/STM32L4xx_HAL_Driver/Src/stm32l4xx_ll_usb.c ****   * @brief  Set the USB turnaround time
 113:Drivers/STM32L4xx_HAL_Driver/Src/stm32l4xx_ll_usb.c ****   * @param  USBx USB Instance
 114:Drivers/STM32L4xx_HAL_Driver/Src/stm32l4xx_ll_usb.c ****   * @param  hclk: AHB clock frequency
 115:Drivers/STM32L4xx_HAL_Driver/Src/stm32l4xx_ll_usb.c ****   * @retval USB turnaround time In PHY Clocks number
 116:Drivers/STM32L4xx_HAL_Driver/Src/stm32l4xx_ll_usb.c ****   */
 117:Drivers/STM32L4xx_HAL_Driver/Src/stm32l4xx_ll_usb.c **** HAL_StatusTypeDef USB_SetTurnaroundTime(USB_OTG_GlobalTypeDef *USBx,
 118:Drivers/STM32L4xx_HAL_Driver/Src/stm32l4xx_ll_usb.c ****                                         uint32_t hclk, uint8_t speed)
 119:Drivers/STM32L4xx_HAL_Driver/Src/stm32l4xx_ll_usb.c **** {
ARM GAS  /tmp/cc3N4Hnz.s 			page 5


 114              		.loc 1 119 1
 115              		.cfi_startproc
 116              		@ args = 0, pretend = 0, frame = 24
 117              		@ frame_needed = 1, uses_anonymous_args = 0
 118              		@ link register save eliminated.
 119 0000 80B4     		push	{r7}
 120              		.cfi_def_cfa_offset 4
 121              		.cfi_offset 7, -4
 122 0002 87B0     		sub	sp, sp, #28
 123              		.cfi_def_cfa_offset 32
 124 0004 00AF     		add	r7, sp, #0
 125              		.cfi_def_cfa_register 7
 126 0006 F860     		str	r0, [r7, #12]
 127 0008 B960     		str	r1, [r7, #8]
 128 000a 1346     		mov	r3, r2
 129 000c FB71     		strb	r3, [r7, #7]
 120:Drivers/STM32L4xx_HAL_Driver/Src/stm32l4xx_ll_usb.c ****   uint32_t UsbTrd;
 121:Drivers/STM32L4xx_HAL_Driver/Src/stm32l4xx_ll_usb.c **** 
 122:Drivers/STM32L4xx_HAL_Driver/Src/stm32l4xx_ll_usb.c ****   /* The USBTRD is configured according to the tables below, depending on AHB frequency
 123:Drivers/STM32L4xx_HAL_Driver/Src/stm32l4xx_ll_usb.c ****   used by application. In the low AHB frequency range it is used to stretch enough the USB response
 124:Drivers/STM32L4xx_HAL_Driver/Src/stm32l4xx_ll_usb.c ****   time to IN tokens, the USB turnaround time, so to compensate for the longer AHB read access
 125:Drivers/STM32L4xx_HAL_Driver/Src/stm32l4xx_ll_usb.c ****   latency to the Data FIFO */
 126:Drivers/STM32L4xx_HAL_Driver/Src/stm32l4xx_ll_usb.c ****   if (speed == USBD_FS_SPEED)
 130              		.loc 1 126 6
 131 000e FB79     		ldrb	r3, [r7, #7]	@ zero_extendqisi2
 132 0010 022B     		cmp	r3, #2
 133 0012 65D1     		bne	.L6
 127:Drivers/STM32L4xx_HAL_Driver/Src/stm32l4xx_ll_usb.c ****   {
 128:Drivers/STM32L4xx_HAL_Driver/Src/stm32l4xx_ll_usb.c ****     if ((hclk >= 14200000U) && (hclk < 15000000U))
 134              		.loc 1 128 8
 135 0014 BB68     		ldr	r3, [r7, #8]
 136 0016 3E4A     		ldr	r2, .L19
 137 0018 9342     		cmp	r3, r2
 138 001a 06D9     		bls	.L7
 139              		.loc 1 128 29 discriminator 1
 140 001c BB68     		ldr	r3, [r7, #8]
 141 001e 3D4A     		ldr	r2, .L19+4
 142 0020 9342     		cmp	r3, r2
 143 0022 02D2     		bcs	.L7
 129:Drivers/STM32L4xx_HAL_Driver/Src/stm32l4xx_ll_usb.c ****     {
 130:Drivers/STM32L4xx_HAL_Driver/Src/stm32l4xx_ll_usb.c ****       /* hclk Clock Range between 14.2-15 MHz */
 131:Drivers/STM32L4xx_HAL_Driver/Src/stm32l4xx_ll_usb.c ****       UsbTrd = 0xFU;
 144              		.loc 1 131 14
 145 0024 0F23     		movs	r3, #15
 146 0026 7B61     		str	r3, [r7, #20]
 147 0028 5CE0     		b	.L17
 148              	.L7:
 132:Drivers/STM32L4xx_HAL_Driver/Src/stm32l4xx_ll_usb.c ****     }
 133:Drivers/STM32L4xx_HAL_Driver/Src/stm32l4xx_ll_usb.c ****     else if ((hclk >= 15000000U) && (hclk < 16000000U))
 149              		.loc 1 133 13
 150 002a BB68     		ldr	r3, [r7, #8]
 151 002c 394A     		ldr	r2, .L19+4
 152 002e 9342     		cmp	r3, r2
 153 0030 06D3     		bcc	.L9
 154              		.loc 1 133 34 discriminator 1
 155 0032 BB68     		ldr	r3, [r7, #8]
 156 0034 384A     		ldr	r2, .L19+8
ARM GAS  /tmp/cc3N4Hnz.s 			page 6


 157 0036 9342     		cmp	r3, r2
 158 0038 02D2     		bcs	.L9
 134:Drivers/STM32L4xx_HAL_Driver/Src/stm32l4xx_ll_usb.c ****     {
 135:Drivers/STM32L4xx_HAL_Driver/Src/stm32l4xx_ll_usb.c ****       /* hclk Clock Range between 15-16 MHz */
 136:Drivers/STM32L4xx_HAL_Driver/Src/stm32l4xx_ll_usb.c ****       UsbTrd = 0xEU;
 159              		.loc 1 136 14
 160 003a 0E23     		movs	r3, #14
 161 003c 7B61     		str	r3, [r7, #20]
 162 003e 51E0     		b	.L17
 163              	.L9:
 137:Drivers/STM32L4xx_HAL_Driver/Src/stm32l4xx_ll_usb.c ****     }
 138:Drivers/STM32L4xx_HAL_Driver/Src/stm32l4xx_ll_usb.c ****     else if ((hclk >= 16000000U) && (hclk < 17200000U))
 164              		.loc 1 138 13
 165 0040 BB68     		ldr	r3, [r7, #8]
 166 0042 354A     		ldr	r2, .L19+8
 167 0044 9342     		cmp	r3, r2
 168 0046 06D3     		bcc	.L10
 169              		.loc 1 138 34 discriminator 1
 170 0048 BB68     		ldr	r3, [r7, #8]
 171 004a 344A     		ldr	r2, .L19+12
 172 004c 9342     		cmp	r3, r2
 173 004e 02D2     		bcs	.L10
 139:Drivers/STM32L4xx_HAL_Driver/Src/stm32l4xx_ll_usb.c ****     {
 140:Drivers/STM32L4xx_HAL_Driver/Src/stm32l4xx_ll_usb.c ****       /* hclk Clock Range between 16-17.2 MHz */
 141:Drivers/STM32L4xx_HAL_Driver/Src/stm32l4xx_ll_usb.c ****       UsbTrd = 0xDU;
 174              		.loc 1 141 14
 175 0050 0D23     		movs	r3, #13
 176 0052 7B61     		str	r3, [r7, #20]
 177 0054 46E0     		b	.L17
 178              	.L10:
 142:Drivers/STM32L4xx_HAL_Driver/Src/stm32l4xx_ll_usb.c ****     }
 143:Drivers/STM32L4xx_HAL_Driver/Src/stm32l4xx_ll_usb.c ****     else if ((hclk >= 17200000U) && (hclk < 18500000U))
 179              		.loc 1 143 13
 180 0056 BB68     		ldr	r3, [r7, #8]
 181 0058 304A     		ldr	r2, .L19+12
 182 005a 9342     		cmp	r3, r2
 183 005c 06D3     		bcc	.L11
 184              		.loc 1 143 34 discriminator 1
 185 005e BB68     		ldr	r3, [r7, #8]
 186 0060 2F4A     		ldr	r2, .L19+16
 187 0062 9342     		cmp	r3, r2
 188 0064 02D8     		bhi	.L11
 144:Drivers/STM32L4xx_HAL_Driver/Src/stm32l4xx_ll_usb.c ****     {
 145:Drivers/STM32L4xx_HAL_Driver/Src/stm32l4xx_ll_usb.c ****       /* hclk Clock Range between 17.2-18.5 MHz */
 146:Drivers/STM32L4xx_HAL_Driver/Src/stm32l4xx_ll_usb.c ****       UsbTrd = 0xCU;
 189              		.loc 1 146 14
 190 0066 0C23     		movs	r3, #12
 191 0068 7B61     		str	r3, [r7, #20]
 192 006a 3BE0     		b	.L17
 193              	.L11:
 147:Drivers/STM32L4xx_HAL_Driver/Src/stm32l4xx_ll_usb.c ****     }
 148:Drivers/STM32L4xx_HAL_Driver/Src/stm32l4xx_ll_usb.c ****     else if ((hclk >= 18500000U) && (hclk < 20000000U))
 194              		.loc 1 148 13
 195 006c BB68     		ldr	r3, [r7, #8]
 196 006e 2C4A     		ldr	r2, .L19+16
 197 0070 9342     		cmp	r3, r2
 198 0072 06D9     		bls	.L12
ARM GAS  /tmp/cc3N4Hnz.s 			page 7


 199              		.loc 1 148 34 discriminator 1
 200 0074 BB68     		ldr	r3, [r7, #8]
 201 0076 2B4A     		ldr	r2, .L19+20
 202 0078 9342     		cmp	r3, r2
 203 007a 02D8     		bhi	.L12
 149:Drivers/STM32L4xx_HAL_Driver/Src/stm32l4xx_ll_usb.c ****     {
 150:Drivers/STM32L4xx_HAL_Driver/Src/stm32l4xx_ll_usb.c ****       /* hclk Clock Range between 18.5-20 MHz */
 151:Drivers/STM32L4xx_HAL_Driver/Src/stm32l4xx_ll_usb.c ****       UsbTrd = 0xBU;
 204              		.loc 1 151 14
 205 007c 0B23     		movs	r3, #11
 206 007e 7B61     		str	r3, [r7, #20]
 207 0080 30E0     		b	.L17
 208              	.L12:
 152:Drivers/STM32L4xx_HAL_Driver/Src/stm32l4xx_ll_usb.c ****     }
 153:Drivers/STM32L4xx_HAL_Driver/Src/stm32l4xx_ll_usb.c ****     else if ((hclk >= 20000000U) && (hclk < 21800000U))
 209              		.loc 1 153 13
 210 0082 BB68     		ldr	r3, [r7, #8]
 211 0084 274A     		ldr	r2, .L19+20
 212 0086 9342     		cmp	r3, r2
 213 0088 06D9     		bls	.L13
 214              		.loc 1 153 34 discriminator 1
 215 008a BB68     		ldr	r3, [r7, #8]
 216 008c 264A     		ldr	r2, .L19+24
 217 008e 9342     		cmp	r3, r2
 218 0090 02D8     		bhi	.L13
 154:Drivers/STM32L4xx_HAL_Driver/Src/stm32l4xx_ll_usb.c ****     {
 155:Drivers/STM32L4xx_HAL_Driver/Src/stm32l4xx_ll_usb.c ****       /* hclk Clock Range between 20-21.8 MHz */
 156:Drivers/STM32L4xx_HAL_Driver/Src/stm32l4xx_ll_usb.c ****       UsbTrd = 0xAU;
 219              		.loc 1 156 14
 220 0092 0A23     		movs	r3, #10
 221 0094 7B61     		str	r3, [r7, #20]
 222 0096 25E0     		b	.L17
 223              	.L13:
 157:Drivers/STM32L4xx_HAL_Driver/Src/stm32l4xx_ll_usb.c ****     }
 158:Drivers/STM32L4xx_HAL_Driver/Src/stm32l4xx_ll_usb.c ****     else if ((hclk >= 21800000U) && (hclk < 24000000U))
 224              		.loc 1 158 13
 225 0098 BB68     		ldr	r3, [r7, #8]
 226 009a 234A     		ldr	r2, .L19+24
 227 009c 9342     		cmp	r3, r2
 228 009e 06D9     		bls	.L14
 229              		.loc 1 158 34 discriminator 1
 230 00a0 BB68     		ldr	r3, [r7, #8]
 231 00a2 224A     		ldr	r2, .L19+28
 232 00a4 9342     		cmp	r3, r2
 233 00a6 02D2     		bcs	.L14
 159:Drivers/STM32L4xx_HAL_Driver/Src/stm32l4xx_ll_usb.c ****     {
 160:Drivers/STM32L4xx_HAL_Driver/Src/stm32l4xx_ll_usb.c ****       /* hclk Clock Range between 21.8-24 MHz */
 161:Drivers/STM32L4xx_HAL_Driver/Src/stm32l4xx_ll_usb.c ****       UsbTrd = 0x9U;
 234              		.loc 1 161 14
 235 00a8 0923     		movs	r3, #9
 236 00aa 7B61     		str	r3, [r7, #20]
 237 00ac 1AE0     		b	.L17
 238              	.L14:
 162:Drivers/STM32L4xx_HAL_Driver/Src/stm32l4xx_ll_usb.c ****     }
 163:Drivers/STM32L4xx_HAL_Driver/Src/stm32l4xx_ll_usb.c ****     else if ((hclk >= 24000000U) && (hclk < 27700000U))
 239              		.loc 1 163 13
 240 00ae BB68     		ldr	r3, [r7, #8]
ARM GAS  /tmp/cc3N4Hnz.s 			page 8


 241 00b0 1E4A     		ldr	r2, .L19+28
 242 00b2 9342     		cmp	r3, r2
 243 00b4 06D3     		bcc	.L15
 244              		.loc 1 163 34 discriminator 1
 245 00b6 BB68     		ldr	r3, [r7, #8]
 246 00b8 1D4A     		ldr	r2, .L19+32
 247 00ba 9342     		cmp	r3, r2
 248 00bc 02D8     		bhi	.L15
 164:Drivers/STM32L4xx_HAL_Driver/Src/stm32l4xx_ll_usb.c ****     {
 165:Drivers/STM32L4xx_HAL_Driver/Src/stm32l4xx_ll_usb.c ****       /* hclk Clock Range between 24-27.7 MHz */
 166:Drivers/STM32L4xx_HAL_Driver/Src/stm32l4xx_ll_usb.c ****       UsbTrd = 0x8U;
 249              		.loc 1 166 14
 250 00be 0823     		movs	r3, #8
 251 00c0 7B61     		str	r3, [r7, #20]
 252 00c2 0FE0     		b	.L17
 253              	.L15:
 167:Drivers/STM32L4xx_HAL_Driver/Src/stm32l4xx_ll_usb.c ****     }
 168:Drivers/STM32L4xx_HAL_Driver/Src/stm32l4xx_ll_usb.c ****     else if ((hclk >= 27700000U) && (hclk < 32000000U))
 254              		.loc 1 168 13
 255 00c4 BB68     		ldr	r3, [r7, #8]
 256 00c6 1A4A     		ldr	r2, .L19+32
 257 00c8 9342     		cmp	r3, r2
 258 00ca 06D9     		bls	.L16
 259              		.loc 1 168 34 discriminator 1
 260 00cc BB68     		ldr	r3, [r7, #8]
 261 00ce 194A     		ldr	r2, .L19+36
 262 00d0 9342     		cmp	r3, r2
 263 00d2 02D2     		bcs	.L16
 169:Drivers/STM32L4xx_HAL_Driver/Src/stm32l4xx_ll_usb.c ****     {
 170:Drivers/STM32L4xx_HAL_Driver/Src/stm32l4xx_ll_usb.c ****       /* hclk Clock Range between 27.7-32 MHz */
 171:Drivers/STM32L4xx_HAL_Driver/Src/stm32l4xx_ll_usb.c ****       UsbTrd = 0x7U;
 264              		.loc 1 171 14
 265 00d4 0723     		movs	r3, #7
 266 00d6 7B61     		str	r3, [r7, #20]
 267 00d8 04E0     		b	.L17
 268              	.L16:
 172:Drivers/STM32L4xx_HAL_Driver/Src/stm32l4xx_ll_usb.c ****     }
 173:Drivers/STM32L4xx_HAL_Driver/Src/stm32l4xx_ll_usb.c ****     else /* if(hclk >= 32000000) */
 174:Drivers/STM32L4xx_HAL_Driver/Src/stm32l4xx_ll_usb.c ****     {
 175:Drivers/STM32L4xx_HAL_Driver/Src/stm32l4xx_ll_usb.c ****       /* hclk Clock Range between 32-200 MHz */
 176:Drivers/STM32L4xx_HAL_Driver/Src/stm32l4xx_ll_usb.c ****       UsbTrd = 0x6U;
 269              		.loc 1 176 14
 270 00da 0623     		movs	r3, #6
 271 00dc 7B61     		str	r3, [r7, #20]
 272 00de 01E0     		b	.L17
 273              	.L6:
 177:Drivers/STM32L4xx_HAL_Driver/Src/stm32l4xx_ll_usb.c ****     }
 178:Drivers/STM32L4xx_HAL_Driver/Src/stm32l4xx_ll_usb.c ****   }
 179:Drivers/STM32L4xx_HAL_Driver/Src/stm32l4xx_ll_usb.c ****   else
 180:Drivers/STM32L4xx_HAL_Driver/Src/stm32l4xx_ll_usb.c ****   {
 181:Drivers/STM32L4xx_HAL_Driver/Src/stm32l4xx_ll_usb.c ****     UsbTrd = USBD_DEFAULT_TRDT_VALUE;
 274              		.loc 1 181 12
 275 00e0 0923     		movs	r3, #9
 276 00e2 7B61     		str	r3, [r7, #20]
 277              	.L17:
 182:Drivers/STM32L4xx_HAL_Driver/Src/stm32l4xx_ll_usb.c ****   }
 183:Drivers/STM32L4xx_HAL_Driver/Src/stm32l4xx_ll_usb.c **** 
ARM GAS  /tmp/cc3N4Hnz.s 			page 9


 184:Drivers/STM32L4xx_HAL_Driver/Src/stm32l4xx_ll_usb.c ****   USBx->GUSBCFG &= ~USB_OTG_GUSBCFG_TRDT;
 278              		.loc 1 184 7
 279 00e4 FB68     		ldr	r3, [r7, #12]
 280 00e6 DB68     		ldr	r3, [r3, #12]
 281              		.loc 1 184 17
 282 00e8 23F47052 		bic	r2, r3, #15360
 283 00ec FB68     		ldr	r3, [r7, #12]
 284 00ee DA60     		str	r2, [r3, #12]
 185:Drivers/STM32L4xx_HAL_Driver/Src/stm32l4xx_ll_usb.c ****   USBx->GUSBCFG |= (uint32_t)((UsbTrd << 10) & USB_OTG_GUSBCFG_TRDT);
 285              		.loc 1 185 7
 286 00f0 FB68     		ldr	r3, [r7, #12]
 287 00f2 DA68     		ldr	r2, [r3, #12]
 288              		.loc 1 185 39
 289 00f4 7B69     		ldr	r3, [r7, #20]
 290 00f6 9B02     		lsls	r3, r3, #10
 291              		.loc 1 185 20
 292 00f8 03F47053 		and	r3, r3, #15360
 293              		.loc 1 185 17
 294 00fc 1A43     		orrs	r2, r2, r3
 295 00fe FB68     		ldr	r3, [r7, #12]
 296 0100 DA60     		str	r2, [r3, #12]
 186:Drivers/STM32L4xx_HAL_Driver/Src/stm32l4xx_ll_usb.c **** 
 187:Drivers/STM32L4xx_HAL_Driver/Src/stm32l4xx_ll_usb.c ****   return HAL_OK;
 297              		.loc 1 187 10
 298 0102 0023     		movs	r3, #0
 188:Drivers/STM32L4xx_HAL_Driver/Src/stm32l4xx_ll_usb.c **** }
 299              		.loc 1 188 1
 300 0104 1846     		mov	r0, r3
 301 0106 1C37     		adds	r7, r7, #28
 302              		.cfi_def_cfa_offset 4
 303 0108 BD46     		mov	sp, r7
 304              		.cfi_def_cfa_register 13
 305              		@ sp needed
 306 010a 5DF8047B 		ldr	r7, [sp], #4
 307              		.cfi_restore 7
 308              		.cfi_def_cfa_offset 0
 309 010e 7047     		bx	lr
 310              	.L20:
 311              		.align	2
 312              	.L19:
 313 0110 BFACD800 		.word	14199999
 314 0114 C0E1E400 		.word	15000000
 315 0118 0024F400 		.word	16000000
 316 011c 80730601 		.word	17200000
 317 0120 9F491A01 		.word	18499999
 318 0124 FF2C3101 		.word	19999999
 319 0128 3FA44C01 		.word	21799999
 320 012c 00366E01 		.word	24000000
 321 0130 1FABA601 		.word	27699999
 322 0134 0048E801 		.word	32000000
 323              		.cfi_endproc
 324              	.LFE446:
 326              		.section	.text.USB_EnableGlobalInt,"ax",%progbits
 327              		.align	1
 328              		.global	USB_EnableGlobalInt
 329              		.syntax unified
 330              		.thumb
ARM GAS  /tmp/cc3N4Hnz.s 			page 10


 331              		.thumb_func
 333              	USB_EnableGlobalInt:
 334              	.LFB447:
 189:Drivers/STM32L4xx_HAL_Driver/Src/stm32l4xx_ll_usb.c **** 
 190:Drivers/STM32L4xx_HAL_Driver/Src/stm32l4xx_ll_usb.c **** /**
 191:Drivers/STM32L4xx_HAL_Driver/Src/stm32l4xx_ll_usb.c ****   * @brief  USB_EnableGlobalInt
 192:Drivers/STM32L4xx_HAL_Driver/Src/stm32l4xx_ll_usb.c ****   *         Enables the controller's Global Int in the AHB Config reg
 193:Drivers/STM32L4xx_HAL_Driver/Src/stm32l4xx_ll_usb.c ****   * @param  USBx  Selected device
 194:Drivers/STM32L4xx_HAL_Driver/Src/stm32l4xx_ll_usb.c ****   * @retval HAL status
 195:Drivers/STM32L4xx_HAL_Driver/Src/stm32l4xx_ll_usb.c ****   */
 196:Drivers/STM32L4xx_HAL_Driver/Src/stm32l4xx_ll_usb.c **** HAL_StatusTypeDef USB_EnableGlobalInt(USB_OTG_GlobalTypeDef *USBx)
 197:Drivers/STM32L4xx_HAL_Driver/Src/stm32l4xx_ll_usb.c **** {
 335              		.loc 1 197 1
 336              		.cfi_startproc
 337              		@ args = 0, pretend = 0, frame = 8
 338              		@ frame_needed = 1, uses_anonymous_args = 0
 339              		@ link register save eliminated.
 340 0000 80B4     		push	{r7}
 341              		.cfi_def_cfa_offset 4
 342              		.cfi_offset 7, -4
 343 0002 83B0     		sub	sp, sp, #12
 344              		.cfi_def_cfa_offset 16
 345 0004 00AF     		add	r7, sp, #0
 346              		.cfi_def_cfa_register 7
 347 0006 7860     		str	r0, [r7, #4]
 198:Drivers/STM32L4xx_HAL_Driver/Src/stm32l4xx_ll_usb.c ****   USBx->GAHBCFG |= USB_OTG_GAHBCFG_GINT;
 348              		.loc 1 198 7
 349 0008 7B68     		ldr	r3, [r7, #4]
 350 000a 9B68     		ldr	r3, [r3, #8]
 351              		.loc 1 198 17
 352 000c 43F00102 		orr	r2, r3, #1
 353 0010 7B68     		ldr	r3, [r7, #4]
 354 0012 9A60     		str	r2, [r3, #8]
 199:Drivers/STM32L4xx_HAL_Driver/Src/stm32l4xx_ll_usb.c ****   return HAL_OK;
 355              		.loc 1 199 10
 356 0014 0023     		movs	r3, #0
 200:Drivers/STM32L4xx_HAL_Driver/Src/stm32l4xx_ll_usb.c **** }
 357              		.loc 1 200 1
 358 0016 1846     		mov	r0, r3
 359 0018 0C37     		adds	r7, r7, #12
 360              		.cfi_def_cfa_offset 4
 361 001a BD46     		mov	sp, r7
 362              		.cfi_def_cfa_register 13
 363              		@ sp needed
 364 001c 5DF8047B 		ldr	r7, [sp], #4
 365              		.cfi_restore 7
 366              		.cfi_def_cfa_offset 0
 367 0020 7047     		bx	lr
 368              		.cfi_endproc
 369              	.LFE447:
 371              		.section	.text.USB_DisableGlobalInt,"ax",%progbits
 372              		.align	1
 373              		.global	USB_DisableGlobalInt
 374              		.syntax unified
 375              		.thumb
 376              		.thumb_func
 378              	USB_DisableGlobalInt:
ARM GAS  /tmp/cc3N4Hnz.s 			page 11


 379              	.LFB448:
 201:Drivers/STM32L4xx_HAL_Driver/Src/stm32l4xx_ll_usb.c **** 
 202:Drivers/STM32L4xx_HAL_Driver/Src/stm32l4xx_ll_usb.c **** /**
 203:Drivers/STM32L4xx_HAL_Driver/Src/stm32l4xx_ll_usb.c ****   * @brief  USB_DisableGlobalInt
 204:Drivers/STM32L4xx_HAL_Driver/Src/stm32l4xx_ll_usb.c ****   *         Disable the controller's Global Int in the AHB Config reg
 205:Drivers/STM32L4xx_HAL_Driver/Src/stm32l4xx_ll_usb.c ****   * @param  USBx  Selected device
 206:Drivers/STM32L4xx_HAL_Driver/Src/stm32l4xx_ll_usb.c ****   * @retval HAL status
 207:Drivers/STM32L4xx_HAL_Driver/Src/stm32l4xx_ll_usb.c ****   */
 208:Drivers/STM32L4xx_HAL_Driver/Src/stm32l4xx_ll_usb.c **** HAL_StatusTypeDef USB_DisableGlobalInt(USB_OTG_GlobalTypeDef *USBx)
 209:Drivers/STM32L4xx_HAL_Driver/Src/stm32l4xx_ll_usb.c **** {
 380              		.loc 1 209 1
 381              		.cfi_startproc
 382              		@ args = 0, pretend = 0, frame = 8
 383              		@ frame_needed = 1, uses_anonymous_args = 0
 384              		@ link register save eliminated.
 385 0000 80B4     		push	{r7}
 386              		.cfi_def_cfa_offset 4
 387              		.cfi_offset 7, -4
 388 0002 83B0     		sub	sp, sp, #12
 389              		.cfi_def_cfa_offset 16
 390 0004 00AF     		add	r7, sp, #0
 391              		.cfi_def_cfa_register 7
 392 0006 7860     		str	r0, [r7, #4]
 210:Drivers/STM32L4xx_HAL_Driver/Src/stm32l4xx_ll_usb.c ****   USBx->GAHBCFG &= ~USB_OTG_GAHBCFG_GINT;
 393              		.loc 1 210 7
 394 0008 7B68     		ldr	r3, [r7, #4]
 395 000a 9B68     		ldr	r3, [r3, #8]
 396              		.loc 1 210 17
 397 000c 23F00102 		bic	r2, r3, #1
 398 0010 7B68     		ldr	r3, [r7, #4]
 399 0012 9A60     		str	r2, [r3, #8]
 211:Drivers/STM32L4xx_HAL_Driver/Src/stm32l4xx_ll_usb.c ****   return HAL_OK;
 400              		.loc 1 211 10
 401 0014 0023     		movs	r3, #0
 212:Drivers/STM32L4xx_HAL_Driver/Src/stm32l4xx_ll_usb.c **** }
 402              		.loc 1 212 1
 403 0016 1846     		mov	r0, r3
 404 0018 0C37     		adds	r7, r7, #12
 405              		.cfi_def_cfa_offset 4
 406 001a BD46     		mov	sp, r7
 407              		.cfi_def_cfa_register 13
 408              		@ sp needed
 409 001c 5DF8047B 		ldr	r7, [sp], #4
 410              		.cfi_restore 7
 411              		.cfi_def_cfa_offset 0
 412 0020 7047     		bx	lr
 413              		.cfi_endproc
 414              	.LFE448:
 416              		.section	.text.USB_SetCurrentMode,"ax",%progbits
 417              		.align	1
 418              		.global	USB_SetCurrentMode
 419              		.syntax unified
 420              		.thumb
 421              		.thumb_func
 423              	USB_SetCurrentMode:
 424              	.LFB449:
 213:Drivers/STM32L4xx_HAL_Driver/Src/stm32l4xx_ll_usb.c **** 
ARM GAS  /tmp/cc3N4Hnz.s 			page 12


 214:Drivers/STM32L4xx_HAL_Driver/Src/stm32l4xx_ll_usb.c **** /**
 215:Drivers/STM32L4xx_HAL_Driver/Src/stm32l4xx_ll_usb.c ****   * @brief  USB_SetCurrentMode Set functional mode
 216:Drivers/STM32L4xx_HAL_Driver/Src/stm32l4xx_ll_usb.c ****   * @param  USBx  Selected device
 217:Drivers/STM32L4xx_HAL_Driver/Src/stm32l4xx_ll_usb.c ****   * @param  mode  current core mode
 218:Drivers/STM32L4xx_HAL_Driver/Src/stm32l4xx_ll_usb.c ****   *          This parameter can be one of these values:
 219:Drivers/STM32L4xx_HAL_Driver/Src/stm32l4xx_ll_usb.c ****   *            @arg USB_DEVICE_MODE Peripheral mode
 220:Drivers/STM32L4xx_HAL_Driver/Src/stm32l4xx_ll_usb.c ****   *            @arg USB_HOST_MODE Host mode
 221:Drivers/STM32L4xx_HAL_Driver/Src/stm32l4xx_ll_usb.c ****   * @retval HAL status
 222:Drivers/STM32L4xx_HAL_Driver/Src/stm32l4xx_ll_usb.c ****   */
 223:Drivers/STM32L4xx_HAL_Driver/Src/stm32l4xx_ll_usb.c **** HAL_StatusTypeDef USB_SetCurrentMode(USB_OTG_GlobalTypeDef *USBx, USB_ModeTypeDef mode)
 224:Drivers/STM32L4xx_HAL_Driver/Src/stm32l4xx_ll_usb.c **** {
 425              		.loc 1 224 1
 426              		.cfi_startproc
 427              		@ args = 0, pretend = 0, frame = 16
 428              		@ frame_needed = 1, uses_anonymous_args = 0
 429 0000 80B5     		push	{r7, lr}
 430              		.cfi_def_cfa_offset 8
 431              		.cfi_offset 7, -8
 432              		.cfi_offset 14, -4
 433 0002 84B0     		sub	sp, sp, #16
 434              		.cfi_def_cfa_offset 24
 435 0004 00AF     		add	r7, sp, #0
 436              		.cfi_def_cfa_register 7
 437 0006 7860     		str	r0, [r7, #4]
 438 0008 0B46     		mov	r3, r1
 439 000a FB70     		strb	r3, [r7, #3]
 225:Drivers/STM32L4xx_HAL_Driver/Src/stm32l4xx_ll_usb.c ****   uint32_t ms = 0U;
 440              		.loc 1 225 12
 441 000c 0023     		movs	r3, #0
 442 000e FB60     		str	r3, [r7, #12]
 226:Drivers/STM32L4xx_HAL_Driver/Src/stm32l4xx_ll_usb.c **** 
 227:Drivers/STM32L4xx_HAL_Driver/Src/stm32l4xx_ll_usb.c ****   USBx->GUSBCFG &= ~(USB_OTG_GUSBCFG_FHMOD | USB_OTG_GUSBCFG_FDMOD);
 443              		.loc 1 227 7
 444 0010 7B68     		ldr	r3, [r7, #4]
 445 0012 DB68     		ldr	r3, [r3, #12]
 446              		.loc 1 227 17
 447 0014 23F0C042 		bic	r2, r3, #1610612736
 448 0018 7B68     		ldr	r3, [r7, #4]
 449 001a DA60     		str	r2, [r3, #12]
 228:Drivers/STM32L4xx_HAL_Driver/Src/stm32l4xx_ll_usb.c **** 
 229:Drivers/STM32L4xx_HAL_Driver/Src/stm32l4xx_ll_usb.c ****   if (mode == USB_HOST_MODE)
 450              		.loc 1 229 6
 451 001c FB78     		ldrb	r3, [r7, #3]	@ zero_extendqisi2
 452 001e 012B     		cmp	r3, #1
 453 0020 15D1     		bne	.L26
 230:Drivers/STM32L4xx_HAL_Driver/Src/stm32l4xx_ll_usb.c ****   {
 231:Drivers/STM32L4xx_HAL_Driver/Src/stm32l4xx_ll_usb.c ****     USBx->GUSBCFG |= USB_OTG_GUSBCFG_FHMOD;
 454              		.loc 1 231 9
 455 0022 7B68     		ldr	r3, [r7, #4]
 456 0024 DB68     		ldr	r3, [r3, #12]
 457              		.loc 1 231 19
 458 0026 43F00052 		orr	r2, r3, #536870912
 459 002a 7B68     		ldr	r3, [r7, #4]
 460 002c DA60     		str	r2, [r3, #12]
 461              	.L28:
 232:Drivers/STM32L4xx_HAL_Driver/Src/stm32l4xx_ll_usb.c **** 
 233:Drivers/STM32L4xx_HAL_Driver/Src/stm32l4xx_ll_usb.c ****     do
ARM GAS  /tmp/cc3N4Hnz.s 			page 13


 234:Drivers/STM32L4xx_HAL_Driver/Src/stm32l4xx_ll_usb.c ****     {
 235:Drivers/STM32L4xx_HAL_Driver/Src/stm32l4xx_ll_usb.c ****       HAL_Delay(10U);
 462              		.loc 1 235 7
 463 002e 0A20     		movs	r0, #10
 464 0030 FFF7FEFF 		bl	HAL_Delay
 236:Drivers/STM32L4xx_HAL_Driver/Src/stm32l4xx_ll_usb.c ****       ms += 10U;
 465              		.loc 1 236 10
 466 0034 FB68     		ldr	r3, [r7, #12]
 467 0036 0A33     		adds	r3, r3, #10
 468 0038 FB60     		str	r3, [r7, #12]
 237:Drivers/STM32L4xx_HAL_Driver/Src/stm32l4xx_ll_usb.c ****     } while ((USB_GetMode(USBx) != (uint32_t)USB_HOST_MODE) && (ms < HAL_USB_CURRENT_MODE_MAX_DELAY
 469              		.loc 1 237 15 discriminator 2
 470 003a 7868     		ldr	r0, [r7, #4]
 471 003c FFF7FEFF 		bl	USB_GetMode
 472 0040 0346     		mov	r3, r0
 473              		.loc 1 237 61 discriminator 2
 474 0042 012B     		cmp	r3, #1
 475 0044 1ED0     		beq	.L27
 476              		.loc 1 237 61 is_stmt 0 discriminator 1
 477 0046 FB68     		ldr	r3, [r7, #12]
 478 0048 C72B     		cmp	r3, #199
 479 004a F0D9     		bls	.L28
 480 004c 1AE0     		b	.L27
 481              	.L26:
 238:Drivers/STM32L4xx_HAL_Driver/Src/stm32l4xx_ll_usb.c ****   }
 239:Drivers/STM32L4xx_HAL_Driver/Src/stm32l4xx_ll_usb.c ****   else if (mode == USB_DEVICE_MODE)
 482              		.loc 1 239 11 is_stmt 1
 483 004e FB78     		ldrb	r3, [r7, #3]	@ zero_extendqisi2
 484 0050 002B     		cmp	r3, #0
 485 0052 15D1     		bne	.L29
 240:Drivers/STM32L4xx_HAL_Driver/Src/stm32l4xx_ll_usb.c ****   {
 241:Drivers/STM32L4xx_HAL_Driver/Src/stm32l4xx_ll_usb.c ****     USBx->GUSBCFG |= USB_OTG_GUSBCFG_FDMOD;
 486              		.loc 1 241 9
 487 0054 7B68     		ldr	r3, [r7, #4]
 488 0056 DB68     		ldr	r3, [r3, #12]
 489              		.loc 1 241 19
 490 0058 43F08042 		orr	r2, r3, #1073741824
 491 005c 7B68     		ldr	r3, [r7, #4]
 492 005e DA60     		str	r2, [r3, #12]
 493              	.L30:
 242:Drivers/STM32L4xx_HAL_Driver/Src/stm32l4xx_ll_usb.c **** 
 243:Drivers/STM32L4xx_HAL_Driver/Src/stm32l4xx_ll_usb.c ****     do
 244:Drivers/STM32L4xx_HAL_Driver/Src/stm32l4xx_ll_usb.c ****     {
 245:Drivers/STM32L4xx_HAL_Driver/Src/stm32l4xx_ll_usb.c ****       HAL_Delay(10U);
 494              		.loc 1 245 7
 495 0060 0A20     		movs	r0, #10
 496 0062 FFF7FEFF 		bl	HAL_Delay
 246:Drivers/STM32L4xx_HAL_Driver/Src/stm32l4xx_ll_usb.c ****       ms += 10U;
 497              		.loc 1 246 10
 498 0066 FB68     		ldr	r3, [r7, #12]
 499 0068 0A33     		adds	r3, r3, #10
 500 006a FB60     		str	r3, [r7, #12]
 247:Drivers/STM32L4xx_HAL_Driver/Src/stm32l4xx_ll_usb.c ****     } while ((USB_GetMode(USBx) != (uint32_t)USB_DEVICE_MODE) && (ms < HAL_USB_CURRENT_MODE_MAX_DEL
 501              		.loc 1 247 15 discriminator 2
 502 006c 7868     		ldr	r0, [r7, #4]
 503 006e FFF7FEFF 		bl	USB_GetMode
 504 0072 0346     		mov	r3, r0
ARM GAS  /tmp/cc3N4Hnz.s 			page 14


 505              		.loc 1 247 63 discriminator 2
 506 0074 002B     		cmp	r3, #0
 507 0076 05D0     		beq	.L27
 508              		.loc 1 247 63 is_stmt 0 discriminator 1
 509 0078 FB68     		ldr	r3, [r7, #12]
 510 007a C72B     		cmp	r3, #199
 511 007c F0D9     		bls	.L30
 512 007e 01E0     		b	.L27
 513              	.L29:
 248:Drivers/STM32L4xx_HAL_Driver/Src/stm32l4xx_ll_usb.c ****   }
 249:Drivers/STM32L4xx_HAL_Driver/Src/stm32l4xx_ll_usb.c ****   else
 250:Drivers/STM32L4xx_HAL_Driver/Src/stm32l4xx_ll_usb.c ****   {
 251:Drivers/STM32L4xx_HAL_Driver/Src/stm32l4xx_ll_usb.c ****     return HAL_ERROR;
 514              		.loc 1 251 12 is_stmt 1
 515 0080 0123     		movs	r3, #1
 516 0082 05E0     		b	.L31
 517              	.L27:
 252:Drivers/STM32L4xx_HAL_Driver/Src/stm32l4xx_ll_usb.c ****   }
 253:Drivers/STM32L4xx_HAL_Driver/Src/stm32l4xx_ll_usb.c **** 
 254:Drivers/STM32L4xx_HAL_Driver/Src/stm32l4xx_ll_usb.c ****   if (ms == HAL_USB_CURRENT_MODE_MAX_DELAY_MS)
 518              		.loc 1 254 6
 519 0084 FB68     		ldr	r3, [r7, #12]
 520 0086 C82B     		cmp	r3, #200
 521 0088 01D1     		bne	.L32
 255:Drivers/STM32L4xx_HAL_Driver/Src/stm32l4xx_ll_usb.c ****   {
 256:Drivers/STM32L4xx_HAL_Driver/Src/stm32l4xx_ll_usb.c ****     return HAL_ERROR;
 522              		.loc 1 256 12
 523 008a 0123     		movs	r3, #1
 524 008c 00E0     		b	.L31
 525              	.L32:
 257:Drivers/STM32L4xx_HAL_Driver/Src/stm32l4xx_ll_usb.c ****   }
 258:Drivers/STM32L4xx_HAL_Driver/Src/stm32l4xx_ll_usb.c **** 
 259:Drivers/STM32L4xx_HAL_Driver/Src/stm32l4xx_ll_usb.c ****   return HAL_OK;
 526              		.loc 1 259 10
 527 008e 0023     		movs	r3, #0
 528              	.L31:
 260:Drivers/STM32L4xx_HAL_Driver/Src/stm32l4xx_ll_usb.c **** }
 529              		.loc 1 260 1
 530 0090 1846     		mov	r0, r3
 531 0092 1037     		adds	r7, r7, #16
 532              		.cfi_def_cfa_offset 8
 533 0094 BD46     		mov	sp, r7
 534              		.cfi_def_cfa_register 13
 535              		@ sp needed
 536 0096 80BD     		pop	{r7, pc}
 537              		.cfi_endproc
 538              	.LFE449:
 540              		.section	.text.USB_DevInit,"ax",%progbits
 541              		.align	1
 542              		.global	USB_DevInit
 543              		.syntax unified
 544              		.thumb
 545              		.thumb_func
 547              	USB_DevInit:
 548              	.LFB450:
 261:Drivers/STM32L4xx_HAL_Driver/Src/stm32l4xx_ll_usb.c **** 
 262:Drivers/STM32L4xx_HAL_Driver/Src/stm32l4xx_ll_usb.c **** /**
ARM GAS  /tmp/cc3N4Hnz.s 			page 15


 263:Drivers/STM32L4xx_HAL_Driver/Src/stm32l4xx_ll_usb.c ****   * @brief  USB_DevInit Initializes the USB_OTG controller registers
 264:Drivers/STM32L4xx_HAL_Driver/Src/stm32l4xx_ll_usb.c ****   *         for device mode
 265:Drivers/STM32L4xx_HAL_Driver/Src/stm32l4xx_ll_usb.c ****   * @param  USBx  Selected device
 266:Drivers/STM32L4xx_HAL_Driver/Src/stm32l4xx_ll_usb.c ****   * @param  cfg   pointer to a USB_OTG_CfgTypeDef structure that contains
 267:Drivers/STM32L4xx_HAL_Driver/Src/stm32l4xx_ll_usb.c ****   *         the configuration information for the specified USBx peripheral.
 268:Drivers/STM32L4xx_HAL_Driver/Src/stm32l4xx_ll_usb.c ****   * @retval HAL status
 269:Drivers/STM32L4xx_HAL_Driver/Src/stm32l4xx_ll_usb.c ****   */
 270:Drivers/STM32L4xx_HAL_Driver/Src/stm32l4xx_ll_usb.c **** HAL_StatusTypeDef USB_DevInit(USB_OTG_GlobalTypeDef *USBx, USB_OTG_CfgTypeDef cfg)
 271:Drivers/STM32L4xx_HAL_Driver/Src/stm32l4xx_ll_usb.c **** {
 549              		.loc 1 271 1
 550              		.cfi_startproc
 551              		@ args = 20, pretend = 16, frame = 24
 552              		@ frame_needed = 1, uses_anonymous_args = 0
 553 0000 84B0     		sub	sp, sp, #16
 554              		.cfi_def_cfa_offset 16
 555 0002 80B5     		push	{r7, lr}
 556              		.cfi_def_cfa_offset 24
 557              		.cfi_offset 7, -24
 558              		.cfi_offset 14, -20
 559 0004 86B0     		sub	sp, sp, #24
 560              		.cfi_def_cfa_offset 48
 561 0006 00AF     		add	r7, sp, #0
 562              		.cfi_def_cfa_register 7
 563 0008 7860     		str	r0, [r7, #4]
 564 000a 07F12400 		add	r0, r7, #36
 565 000e 80E80E00 		stm	r0, {r1, r2, r3}
 272:Drivers/STM32L4xx_HAL_Driver/Src/stm32l4xx_ll_usb.c ****   HAL_StatusTypeDef ret = HAL_OK;
 566              		.loc 1 272 21
 567 0012 0023     		movs	r3, #0
 568 0014 FB75     		strb	r3, [r7, #23]
 273:Drivers/STM32L4xx_HAL_Driver/Src/stm32l4xx_ll_usb.c ****   uint32_t USBx_BASE = (uint32_t)USBx;
 569              		.loc 1 273 12
 570 0016 7B68     		ldr	r3, [r7, #4]
 571 0018 FB60     		str	r3, [r7, #12]
 274:Drivers/STM32L4xx_HAL_Driver/Src/stm32l4xx_ll_usb.c ****   uint32_t i;
 275:Drivers/STM32L4xx_HAL_Driver/Src/stm32l4xx_ll_usb.c **** 
 276:Drivers/STM32L4xx_HAL_Driver/Src/stm32l4xx_ll_usb.c ****   for (i = 0U; i < 15U; i++)
 572              		.loc 1 276 10
 573 001a 0023     		movs	r3, #0
 574 001c 3B61     		str	r3, [r7, #16]
 575              		.loc 1 276 3
 576 001e 09E0     		b	.L34
 577              	.L35:
 277:Drivers/STM32L4xx_HAL_Driver/Src/stm32l4xx_ll_usb.c ****   {
 278:Drivers/STM32L4xx_HAL_Driver/Src/stm32l4xx_ll_usb.c ****     USBx->DIEPTXF[i] = 0U;
 578              		.loc 1 278 22
 579 0020 7A68     		ldr	r2, [r7, #4]
 580 0022 3B69     		ldr	r3, [r7, #16]
 581 0024 4033     		adds	r3, r3, #64
 582 0026 9B00     		lsls	r3, r3, #2
 583 0028 1344     		add	r3, r3, r2
 584 002a 0022     		movs	r2, #0
 585 002c 5A60     		str	r2, [r3, #4]
 276:Drivers/STM32L4xx_HAL_Driver/Src/stm32l4xx_ll_usb.c ****   {
 586              		.loc 1 276 26 discriminator 3
 587 002e 3B69     		ldr	r3, [r7, #16]
 588 0030 0133     		adds	r3, r3, #1
ARM GAS  /tmp/cc3N4Hnz.s 			page 16


 589 0032 3B61     		str	r3, [r7, #16]
 590              	.L34:
 276:Drivers/STM32L4xx_HAL_Driver/Src/stm32l4xx_ll_usb.c ****   {
 591              		.loc 1 276 18 discriminator 1
 592 0034 3B69     		ldr	r3, [r7, #16]
 593 0036 0E2B     		cmp	r3, #14
 594 0038 F2D9     		bls	.L35
 279:Drivers/STM32L4xx_HAL_Driver/Src/stm32l4xx_ll_usb.c ****   }
 280:Drivers/STM32L4xx_HAL_Driver/Src/stm32l4xx_ll_usb.c **** 
 281:Drivers/STM32L4xx_HAL_Driver/Src/stm32l4xx_ll_usb.c ****   /* VBUS Sensing setup */
 282:Drivers/STM32L4xx_HAL_Driver/Src/stm32l4xx_ll_usb.c ****   if (cfg.vbus_sensing_enable == 0U)
 595              		.loc 1 282 10
 596 003a 97F82E30 		ldrb	r3, [r7, #46]	@ zero_extendqisi2
 597              		.loc 1 282 6
 598 003e 002B     		cmp	r3, #0
 599 0040 1CD1     		bne	.L36
 283:Drivers/STM32L4xx_HAL_Driver/Src/stm32l4xx_ll_usb.c ****   {
 284:Drivers/STM32L4xx_HAL_Driver/Src/stm32l4xx_ll_usb.c ****     USBx_DEVICE->DCTL |= USB_OTG_DCTL_SDIS;
 600              		.loc 1 284 16
 601 0042 FB68     		ldr	r3, [r7, #12]
 602 0044 03F50063 		add	r3, r3, #2048
 603 0048 5B68     		ldr	r3, [r3, #4]
 604 004a FA68     		ldr	r2, [r7, #12]
 605 004c 02F50062 		add	r2, r2, #2048
 606              		.loc 1 284 23
 607 0050 43F00203 		orr	r3, r3, #2
 608 0054 5360     		str	r3, [r2, #4]
 285:Drivers/STM32L4xx_HAL_Driver/Src/stm32l4xx_ll_usb.c **** 
 286:Drivers/STM32L4xx_HAL_Driver/Src/stm32l4xx_ll_usb.c ****     /* Deactivate VBUS Sensing B */
 287:Drivers/STM32L4xx_HAL_Driver/Src/stm32l4xx_ll_usb.c ****     USBx->GCCFG &= ~USB_OTG_GCCFG_VBDEN;
 609              		.loc 1 287 9
 610 0056 7B68     		ldr	r3, [r7, #4]
 611 0058 9B6B     		ldr	r3, [r3, #56]
 612              		.loc 1 287 17
 613 005a 23F40012 		bic	r2, r3, #2097152
 614 005e 7B68     		ldr	r3, [r7, #4]
 615 0060 9A63     		str	r2, [r3, #56]
 288:Drivers/STM32L4xx_HAL_Driver/Src/stm32l4xx_ll_usb.c **** 
 289:Drivers/STM32L4xx_HAL_Driver/Src/stm32l4xx_ll_usb.c ****     /* B-peripheral session valid override enable */
 290:Drivers/STM32L4xx_HAL_Driver/Src/stm32l4xx_ll_usb.c ****     USBx->GOTGCTL |= USB_OTG_GOTGCTL_BVALOEN;
 616              		.loc 1 290 9
 617 0062 7B68     		ldr	r3, [r7, #4]
 618 0064 1B68     		ldr	r3, [r3]
 619              		.loc 1 290 19
 620 0066 43F04002 		orr	r2, r3, #64
 621 006a 7B68     		ldr	r3, [r7, #4]
 622 006c 1A60     		str	r2, [r3]
 291:Drivers/STM32L4xx_HAL_Driver/Src/stm32l4xx_ll_usb.c ****     USBx->GOTGCTL |= USB_OTG_GOTGCTL_BVALOVAL;
 623              		.loc 1 291 9
 624 006e 7B68     		ldr	r3, [r7, #4]
 625 0070 1B68     		ldr	r3, [r3]
 626              		.loc 1 291 19
 627 0072 43F08002 		orr	r2, r3, #128
 628 0076 7B68     		ldr	r3, [r7, #4]
 629 0078 1A60     		str	r2, [r3]
 630 007a 05E0     		b	.L37
 631              	.L36:
ARM GAS  /tmp/cc3N4Hnz.s 			page 17


 292:Drivers/STM32L4xx_HAL_Driver/Src/stm32l4xx_ll_usb.c ****   }
 293:Drivers/STM32L4xx_HAL_Driver/Src/stm32l4xx_ll_usb.c ****   else
 294:Drivers/STM32L4xx_HAL_Driver/Src/stm32l4xx_ll_usb.c ****   {
 295:Drivers/STM32L4xx_HAL_Driver/Src/stm32l4xx_ll_usb.c ****     /* Enable HW VBUS sensing */
 296:Drivers/STM32L4xx_HAL_Driver/Src/stm32l4xx_ll_usb.c ****     USBx->GCCFG |= USB_OTG_GCCFG_VBDEN;
 632              		.loc 1 296 9
 633 007c 7B68     		ldr	r3, [r7, #4]
 634 007e 9B6B     		ldr	r3, [r3, #56]
 635              		.loc 1 296 17
 636 0080 43F40012 		orr	r2, r3, #2097152
 637 0084 7B68     		ldr	r3, [r7, #4]
 638 0086 9A63     		str	r2, [r3, #56]
 639              	.L37:
 297:Drivers/STM32L4xx_HAL_Driver/Src/stm32l4xx_ll_usb.c ****   }
 298:Drivers/STM32L4xx_HAL_Driver/Src/stm32l4xx_ll_usb.c **** 
 299:Drivers/STM32L4xx_HAL_Driver/Src/stm32l4xx_ll_usb.c ****   /* Restart the Phy Clock */
 300:Drivers/STM32L4xx_HAL_Driver/Src/stm32l4xx_ll_usb.c ****   USBx_PCGCCTL = 0U;
 640              		.loc 1 300 3
 641 0088 FB68     		ldr	r3, [r7, #12]
 642 008a 03F56063 		add	r3, r3, #3584
 643 008e 1A46     		mov	r2, r3
 644              		.loc 1 300 16
 645 0090 0023     		movs	r3, #0
 646 0092 1360     		str	r3, [r2]
 301:Drivers/STM32L4xx_HAL_Driver/Src/stm32l4xx_ll_usb.c **** 
 302:Drivers/STM32L4xx_HAL_Driver/Src/stm32l4xx_ll_usb.c ****   /* Set Core speed to Full speed mode */
 303:Drivers/STM32L4xx_HAL_Driver/Src/stm32l4xx_ll_usb.c ****   (void)USB_SetDevSpeed(USBx, USB_OTG_SPEED_FULL);
 647              		.loc 1 303 9
 648 0094 0321     		movs	r1, #3
 649 0096 7868     		ldr	r0, [r7, #4]
 650 0098 FFF7FEFF 		bl	USB_SetDevSpeed
 304:Drivers/STM32L4xx_HAL_Driver/Src/stm32l4xx_ll_usb.c **** 
 305:Drivers/STM32L4xx_HAL_Driver/Src/stm32l4xx_ll_usb.c ****   /* Flush the FIFOs */
 306:Drivers/STM32L4xx_HAL_Driver/Src/stm32l4xx_ll_usb.c ****   if (USB_FlushTxFifo(USBx, 0x10U) != HAL_OK) /* all Tx FIFOs */
 651              		.loc 1 306 7
 652 009c 1021     		movs	r1, #16
 653 009e 7868     		ldr	r0, [r7, #4]
 654 00a0 FFF7FEFF 		bl	USB_FlushTxFifo
 655 00a4 0346     		mov	r3, r0
 656              		.loc 1 306 6 discriminator 1
 657 00a6 002B     		cmp	r3, #0
 658 00a8 01D0     		beq	.L38
 307:Drivers/STM32L4xx_HAL_Driver/Src/stm32l4xx_ll_usb.c ****   {
 308:Drivers/STM32L4xx_HAL_Driver/Src/stm32l4xx_ll_usb.c ****     ret = HAL_ERROR;
 659              		.loc 1 308 9
 660 00aa 0123     		movs	r3, #1
 661 00ac FB75     		strb	r3, [r7, #23]
 662              	.L38:
 309:Drivers/STM32L4xx_HAL_Driver/Src/stm32l4xx_ll_usb.c ****   }
 310:Drivers/STM32L4xx_HAL_Driver/Src/stm32l4xx_ll_usb.c **** 
 311:Drivers/STM32L4xx_HAL_Driver/Src/stm32l4xx_ll_usb.c ****   if (USB_FlushRxFifo(USBx) != HAL_OK)
 663              		.loc 1 311 7
 664 00ae 7868     		ldr	r0, [r7, #4]
 665 00b0 FFF7FEFF 		bl	USB_FlushRxFifo
 666 00b4 0346     		mov	r3, r0
 667              		.loc 1 311 6 discriminator 1
 668 00b6 002B     		cmp	r3, #0
ARM GAS  /tmp/cc3N4Hnz.s 			page 18


 669 00b8 01D0     		beq	.L39
 312:Drivers/STM32L4xx_HAL_Driver/Src/stm32l4xx_ll_usb.c ****   {
 313:Drivers/STM32L4xx_HAL_Driver/Src/stm32l4xx_ll_usb.c ****     ret = HAL_ERROR;
 670              		.loc 1 313 9
 671 00ba 0123     		movs	r3, #1
 672 00bc FB75     		strb	r3, [r7, #23]
 673              	.L39:
 314:Drivers/STM32L4xx_HAL_Driver/Src/stm32l4xx_ll_usb.c ****   }
 315:Drivers/STM32L4xx_HAL_Driver/Src/stm32l4xx_ll_usb.c **** 
 316:Drivers/STM32L4xx_HAL_Driver/Src/stm32l4xx_ll_usb.c ****   /* Clear all pending Device Interrupts */
 317:Drivers/STM32L4xx_HAL_Driver/Src/stm32l4xx_ll_usb.c ****   USBx_DEVICE->DIEPMSK = 0U;
 674              		.loc 1 317 3
 675 00be FB68     		ldr	r3, [r7, #12]
 676 00c0 03F50063 		add	r3, r3, #2048
 677 00c4 1A46     		mov	r2, r3
 678              		.loc 1 317 24
 679 00c6 0023     		movs	r3, #0
 680 00c8 1361     		str	r3, [r2, #16]
 318:Drivers/STM32L4xx_HAL_Driver/Src/stm32l4xx_ll_usb.c ****   USBx_DEVICE->DOEPMSK = 0U;
 681              		.loc 1 318 3
 682 00ca FB68     		ldr	r3, [r7, #12]
 683 00cc 03F50063 		add	r3, r3, #2048
 684 00d0 1A46     		mov	r2, r3
 685              		.loc 1 318 24
 686 00d2 0023     		movs	r3, #0
 687 00d4 5361     		str	r3, [r2, #20]
 319:Drivers/STM32L4xx_HAL_Driver/Src/stm32l4xx_ll_usb.c ****   USBx_DEVICE->DAINTMSK = 0U;
 688              		.loc 1 319 3
 689 00d6 FB68     		ldr	r3, [r7, #12]
 690 00d8 03F50063 		add	r3, r3, #2048
 691 00dc 1A46     		mov	r2, r3
 692              		.loc 1 319 25
 693 00de 0023     		movs	r3, #0
 694 00e0 D361     		str	r3, [r2, #28]
 320:Drivers/STM32L4xx_HAL_Driver/Src/stm32l4xx_ll_usb.c **** 
 321:Drivers/STM32L4xx_HAL_Driver/Src/stm32l4xx_ll_usb.c ****   for (i = 0U; i < cfg.dev_endpoints; i++)
 695              		.loc 1 321 10
 696 00e2 0023     		movs	r3, #0
 697 00e4 3B61     		str	r3, [r7, #16]
 698              		.loc 1 321 3
 699 00e6 43E0     		b	.L40
 700              	.L44:
 322:Drivers/STM32L4xx_HAL_Driver/Src/stm32l4xx_ll_usb.c ****   {
 323:Drivers/STM32L4xx_HAL_Driver/Src/stm32l4xx_ll_usb.c ****     if ((USBx_INEP(i)->DIEPCTL & USB_OTG_DIEPCTL_EPENA) == USB_OTG_DIEPCTL_EPENA)
 701              		.loc 1 323 10
 702 00e8 3B69     		ldr	r3, [r7, #16]
 703 00ea 5A01     		lsls	r2, r3, #5
 704 00ec FB68     		ldr	r3, [r7, #12]
 705 00ee 1344     		add	r3, r3, r2
 706 00f0 03F51063 		add	r3, r3, #2304
 707              		.loc 1 323 22
 708 00f4 1B68     		ldr	r3, [r3]
 709              		.loc 1 323 32
 710 00f6 03F00043 		and	r3, r3, #-2147483648
 711              		.loc 1 323 8
 712 00fa B3F1004F 		cmp	r3, #-2147483648
 713 00fe 18D1     		bne	.L41
ARM GAS  /tmp/cc3N4Hnz.s 			page 19


 324:Drivers/STM32L4xx_HAL_Driver/Src/stm32l4xx_ll_usb.c ****     {
 325:Drivers/STM32L4xx_HAL_Driver/Src/stm32l4xx_ll_usb.c ****       if (i == 0U)
 714              		.loc 1 325 10
 715 0100 3B69     		ldr	r3, [r7, #16]
 716 0102 002B     		cmp	r3, #0
 717 0104 0AD1     		bne	.L42
 326:Drivers/STM32L4xx_HAL_Driver/Src/stm32l4xx_ll_usb.c ****       {
 327:Drivers/STM32L4xx_HAL_Driver/Src/stm32l4xx_ll_usb.c ****         USBx_INEP(i)->DIEPCTL = USB_OTG_DIEPCTL_SNAK;
 718              		.loc 1 327 9
 719 0106 3B69     		ldr	r3, [r7, #16]
 720 0108 5A01     		lsls	r2, r3, #5
 721 010a FB68     		ldr	r3, [r7, #12]
 722 010c 1344     		add	r3, r3, r2
 723 010e 03F51063 		add	r3, r3, #2304
 724 0112 1A46     		mov	r2, r3
 725              		.loc 1 327 31
 726 0114 4FF00063 		mov	r3, #134217728
 727 0118 1360     		str	r3, [r2]
 728 011a 13E0     		b	.L43
 729              	.L42:
 328:Drivers/STM32L4xx_HAL_Driver/Src/stm32l4xx_ll_usb.c ****       }
 329:Drivers/STM32L4xx_HAL_Driver/Src/stm32l4xx_ll_usb.c ****       else
 330:Drivers/STM32L4xx_HAL_Driver/Src/stm32l4xx_ll_usb.c ****       {
 331:Drivers/STM32L4xx_HAL_Driver/Src/stm32l4xx_ll_usb.c ****         USBx_INEP(i)->DIEPCTL = USB_OTG_DIEPCTL_EPDIS | USB_OTG_DIEPCTL_SNAK;
 730              		.loc 1 331 9
 731 011c 3B69     		ldr	r3, [r7, #16]
 732 011e 5A01     		lsls	r2, r3, #5
 733 0120 FB68     		ldr	r3, [r7, #12]
 734 0122 1344     		add	r3, r3, r2
 735 0124 03F51063 		add	r3, r3, #2304
 736 0128 1A46     		mov	r2, r3
 737              		.loc 1 331 31
 738 012a 4FF09043 		mov	r3, #1207959552
 739 012e 1360     		str	r3, [r2]
 740 0130 08E0     		b	.L43
 741              	.L41:
 332:Drivers/STM32L4xx_HAL_Driver/Src/stm32l4xx_ll_usb.c ****       }
 333:Drivers/STM32L4xx_HAL_Driver/Src/stm32l4xx_ll_usb.c ****     }
 334:Drivers/STM32L4xx_HAL_Driver/Src/stm32l4xx_ll_usb.c ****     else
 335:Drivers/STM32L4xx_HAL_Driver/Src/stm32l4xx_ll_usb.c ****     {
 336:Drivers/STM32L4xx_HAL_Driver/Src/stm32l4xx_ll_usb.c ****       USBx_INEP(i)->DIEPCTL = 0U;
 742              		.loc 1 336 7
 743 0132 3B69     		ldr	r3, [r7, #16]
 744 0134 5A01     		lsls	r2, r3, #5
 745 0136 FB68     		ldr	r3, [r7, #12]
 746 0138 1344     		add	r3, r3, r2
 747 013a 03F51063 		add	r3, r3, #2304
 748 013e 1A46     		mov	r2, r3
 749              		.loc 1 336 29
 750 0140 0023     		movs	r3, #0
 751 0142 1360     		str	r3, [r2]
 752              	.L43:
 337:Drivers/STM32L4xx_HAL_Driver/Src/stm32l4xx_ll_usb.c ****     }
 338:Drivers/STM32L4xx_HAL_Driver/Src/stm32l4xx_ll_usb.c **** 
 339:Drivers/STM32L4xx_HAL_Driver/Src/stm32l4xx_ll_usb.c ****     USBx_INEP(i)->DIEPTSIZ = 0U;
 753              		.loc 1 339 5
 754 0144 3B69     		ldr	r3, [r7, #16]
ARM GAS  /tmp/cc3N4Hnz.s 			page 20


 755 0146 5A01     		lsls	r2, r3, #5
 756 0148 FB68     		ldr	r3, [r7, #12]
 757 014a 1344     		add	r3, r3, r2
 758 014c 03F51063 		add	r3, r3, #2304
 759 0150 1A46     		mov	r2, r3
 760              		.loc 1 339 28
 761 0152 0023     		movs	r3, #0
 762 0154 1361     		str	r3, [r2, #16]
 340:Drivers/STM32L4xx_HAL_Driver/Src/stm32l4xx_ll_usb.c ****     USBx_INEP(i)->DIEPINT  = 0xFB7FU;
 763              		.loc 1 340 5
 764 0156 3B69     		ldr	r3, [r7, #16]
 765 0158 5A01     		lsls	r2, r3, #5
 766 015a FB68     		ldr	r3, [r7, #12]
 767 015c 1344     		add	r3, r3, r2
 768 015e 03F51063 		add	r3, r3, #2304
 769 0162 1A46     		mov	r2, r3
 770              		.loc 1 340 28
 771 0164 4FF67F33 		movw	r3, #64383
 772 0168 9360     		str	r3, [r2, #8]
 321:Drivers/STM32L4xx_HAL_Driver/Src/stm32l4xx_ll_usb.c ****   {
 773              		.loc 1 321 40 discriminator 2
 774 016a 3B69     		ldr	r3, [r7, #16]
 775 016c 0133     		adds	r3, r3, #1
 776 016e 3B61     		str	r3, [r7, #16]
 777              	.L40:
 321:Drivers/STM32L4xx_HAL_Driver/Src/stm32l4xx_ll_usb.c ****   {
 778              		.loc 1 321 23 discriminator 1
 779 0170 97F82430 		ldrb	r3, [r7, #36]	@ zero_extendqisi2
 780 0174 1A46     		mov	r2, r3
 321:Drivers/STM32L4xx_HAL_Driver/Src/stm32l4xx_ll_usb.c ****   {
 781              		.loc 1 321 18 discriminator 1
 782 0176 3B69     		ldr	r3, [r7, #16]
 783 0178 9342     		cmp	r3, r2
 784 017a B5D3     		bcc	.L44
 341:Drivers/STM32L4xx_HAL_Driver/Src/stm32l4xx_ll_usb.c ****   }
 342:Drivers/STM32L4xx_HAL_Driver/Src/stm32l4xx_ll_usb.c **** 
 343:Drivers/STM32L4xx_HAL_Driver/Src/stm32l4xx_ll_usb.c ****   for (i = 0U; i < cfg.dev_endpoints; i++)
 785              		.loc 1 343 10
 786 017c 0023     		movs	r3, #0
 787 017e 3B61     		str	r3, [r7, #16]
 788              		.loc 1 343 3
 789 0180 43E0     		b	.L45
 790              	.L49:
 344:Drivers/STM32L4xx_HAL_Driver/Src/stm32l4xx_ll_usb.c ****   {
 345:Drivers/STM32L4xx_HAL_Driver/Src/stm32l4xx_ll_usb.c ****     if ((USBx_OUTEP(i)->DOEPCTL & USB_OTG_DOEPCTL_EPENA) == USB_OTG_DOEPCTL_EPENA)
 791              		.loc 1 345 10
 792 0182 3B69     		ldr	r3, [r7, #16]
 793 0184 5A01     		lsls	r2, r3, #5
 794 0186 FB68     		ldr	r3, [r7, #12]
 795 0188 1344     		add	r3, r3, r2
 796 018a 03F53063 		add	r3, r3, #2816
 797              		.loc 1 345 23
 798 018e 1B68     		ldr	r3, [r3]
 799              		.loc 1 345 33
 800 0190 03F00043 		and	r3, r3, #-2147483648
 801              		.loc 1 345 8
 802 0194 B3F1004F 		cmp	r3, #-2147483648
ARM GAS  /tmp/cc3N4Hnz.s 			page 21


 803 0198 18D1     		bne	.L46
 346:Drivers/STM32L4xx_HAL_Driver/Src/stm32l4xx_ll_usb.c ****     {
 347:Drivers/STM32L4xx_HAL_Driver/Src/stm32l4xx_ll_usb.c ****       if (i == 0U)
 804              		.loc 1 347 10
 805 019a 3B69     		ldr	r3, [r7, #16]
 806 019c 002B     		cmp	r3, #0
 807 019e 0AD1     		bne	.L47
 348:Drivers/STM32L4xx_HAL_Driver/Src/stm32l4xx_ll_usb.c ****       {
 349:Drivers/STM32L4xx_HAL_Driver/Src/stm32l4xx_ll_usb.c ****         USBx_OUTEP(i)->DOEPCTL = USB_OTG_DOEPCTL_SNAK;
 808              		.loc 1 349 9
 809 01a0 3B69     		ldr	r3, [r7, #16]
 810 01a2 5A01     		lsls	r2, r3, #5
 811 01a4 FB68     		ldr	r3, [r7, #12]
 812 01a6 1344     		add	r3, r3, r2
 813 01a8 03F53063 		add	r3, r3, #2816
 814 01ac 1A46     		mov	r2, r3
 815              		.loc 1 349 32
 816 01ae 4FF00063 		mov	r3, #134217728
 817 01b2 1360     		str	r3, [r2]
 818 01b4 13E0     		b	.L48
 819              	.L47:
 350:Drivers/STM32L4xx_HAL_Driver/Src/stm32l4xx_ll_usb.c ****       }
 351:Drivers/STM32L4xx_HAL_Driver/Src/stm32l4xx_ll_usb.c ****       else
 352:Drivers/STM32L4xx_HAL_Driver/Src/stm32l4xx_ll_usb.c ****       {
 353:Drivers/STM32L4xx_HAL_Driver/Src/stm32l4xx_ll_usb.c ****         USBx_OUTEP(i)->DOEPCTL = USB_OTG_DOEPCTL_EPDIS | USB_OTG_DOEPCTL_SNAK;
 820              		.loc 1 353 9
 821 01b6 3B69     		ldr	r3, [r7, #16]
 822 01b8 5A01     		lsls	r2, r3, #5
 823 01ba FB68     		ldr	r3, [r7, #12]
 824 01bc 1344     		add	r3, r3, r2
 825 01be 03F53063 		add	r3, r3, #2816
 826 01c2 1A46     		mov	r2, r3
 827              		.loc 1 353 32
 828 01c4 4FF09043 		mov	r3, #1207959552
 829 01c8 1360     		str	r3, [r2]
 830 01ca 08E0     		b	.L48
 831              	.L46:
 354:Drivers/STM32L4xx_HAL_Driver/Src/stm32l4xx_ll_usb.c ****       }
 355:Drivers/STM32L4xx_HAL_Driver/Src/stm32l4xx_ll_usb.c ****     }
 356:Drivers/STM32L4xx_HAL_Driver/Src/stm32l4xx_ll_usb.c ****     else
 357:Drivers/STM32L4xx_HAL_Driver/Src/stm32l4xx_ll_usb.c ****     {
 358:Drivers/STM32L4xx_HAL_Driver/Src/stm32l4xx_ll_usb.c ****       USBx_OUTEP(i)->DOEPCTL = 0U;
 832              		.loc 1 358 7
 833 01cc 3B69     		ldr	r3, [r7, #16]
 834 01ce 5A01     		lsls	r2, r3, #5
 835 01d0 FB68     		ldr	r3, [r7, #12]
 836 01d2 1344     		add	r3, r3, r2
 837 01d4 03F53063 		add	r3, r3, #2816
 838 01d8 1A46     		mov	r2, r3
 839              		.loc 1 358 30
 840 01da 0023     		movs	r3, #0
 841 01dc 1360     		str	r3, [r2]
 842              	.L48:
 359:Drivers/STM32L4xx_HAL_Driver/Src/stm32l4xx_ll_usb.c ****     }
 360:Drivers/STM32L4xx_HAL_Driver/Src/stm32l4xx_ll_usb.c **** 
 361:Drivers/STM32L4xx_HAL_Driver/Src/stm32l4xx_ll_usb.c ****     USBx_OUTEP(i)->DOEPTSIZ = 0U;
 843              		.loc 1 361 5
ARM GAS  /tmp/cc3N4Hnz.s 			page 22


 844 01de 3B69     		ldr	r3, [r7, #16]
 845 01e0 5A01     		lsls	r2, r3, #5
 846 01e2 FB68     		ldr	r3, [r7, #12]
 847 01e4 1344     		add	r3, r3, r2
 848 01e6 03F53063 		add	r3, r3, #2816
 849 01ea 1A46     		mov	r2, r3
 850              		.loc 1 361 29
 851 01ec 0023     		movs	r3, #0
 852 01ee 1361     		str	r3, [r2, #16]
 362:Drivers/STM32L4xx_HAL_Driver/Src/stm32l4xx_ll_usb.c ****     USBx_OUTEP(i)->DOEPINT  = 0xFB7FU;
 853              		.loc 1 362 5
 854 01f0 3B69     		ldr	r3, [r7, #16]
 855 01f2 5A01     		lsls	r2, r3, #5
 856 01f4 FB68     		ldr	r3, [r7, #12]
 857 01f6 1344     		add	r3, r3, r2
 858 01f8 03F53063 		add	r3, r3, #2816
 859 01fc 1A46     		mov	r2, r3
 860              		.loc 1 362 29
 861 01fe 4FF67F33 		movw	r3, #64383
 862 0202 9360     		str	r3, [r2, #8]
 343:Drivers/STM32L4xx_HAL_Driver/Src/stm32l4xx_ll_usb.c ****   {
 863              		.loc 1 343 40 discriminator 2
 864 0204 3B69     		ldr	r3, [r7, #16]
 865 0206 0133     		adds	r3, r3, #1
 866 0208 3B61     		str	r3, [r7, #16]
 867              	.L45:
 343:Drivers/STM32L4xx_HAL_Driver/Src/stm32l4xx_ll_usb.c ****   {
 868              		.loc 1 343 23 discriminator 1
 869 020a 97F82430 		ldrb	r3, [r7, #36]	@ zero_extendqisi2
 870 020e 1A46     		mov	r2, r3
 343:Drivers/STM32L4xx_HAL_Driver/Src/stm32l4xx_ll_usb.c ****   {
 871              		.loc 1 343 18 discriminator 1
 872 0210 3B69     		ldr	r3, [r7, #16]
 873 0212 9342     		cmp	r3, r2
 874 0214 B5D3     		bcc	.L49
 363:Drivers/STM32L4xx_HAL_Driver/Src/stm32l4xx_ll_usb.c ****   }
 364:Drivers/STM32L4xx_HAL_Driver/Src/stm32l4xx_ll_usb.c **** 
 365:Drivers/STM32L4xx_HAL_Driver/Src/stm32l4xx_ll_usb.c ****   USBx_DEVICE->DIEPMSK &= ~(USB_OTG_DIEPMSK_TXFURM);
 875              		.loc 1 365 14
 876 0216 FB68     		ldr	r3, [r7, #12]
 877 0218 03F50063 		add	r3, r3, #2048
 878 021c 1B69     		ldr	r3, [r3, #16]
 879 021e FA68     		ldr	r2, [r7, #12]
 880 0220 02F50062 		add	r2, r2, #2048
 881              		.loc 1 365 24
 882 0224 23F48073 		bic	r3, r3, #256
 883 0228 1361     		str	r3, [r2, #16]
 366:Drivers/STM32L4xx_HAL_Driver/Src/stm32l4xx_ll_usb.c **** 
 367:Drivers/STM32L4xx_HAL_Driver/Src/stm32l4xx_ll_usb.c ****   /* Disable all interrupts. */
 368:Drivers/STM32L4xx_HAL_Driver/Src/stm32l4xx_ll_usb.c ****   USBx->GINTMSK = 0U;
 884              		.loc 1 368 17
 885 022a 7B68     		ldr	r3, [r7, #4]
 886 022c 0022     		movs	r2, #0
 887 022e 9A61     		str	r2, [r3, #24]
 369:Drivers/STM32L4xx_HAL_Driver/Src/stm32l4xx_ll_usb.c **** 
 370:Drivers/STM32L4xx_HAL_Driver/Src/stm32l4xx_ll_usb.c ****   /* Clear any pending interrupts */
 371:Drivers/STM32L4xx_HAL_Driver/Src/stm32l4xx_ll_usb.c ****   USBx->GINTSTS = 0xBFFFFFFFU;
ARM GAS  /tmp/cc3N4Hnz.s 			page 23


 888              		.loc 1 371 17
 889 0230 7B68     		ldr	r3, [r7, #4]
 890 0232 6FF08042 		mvn	r2, #1073741824
 891 0236 5A61     		str	r2, [r3, #20]
 372:Drivers/STM32L4xx_HAL_Driver/Src/stm32l4xx_ll_usb.c **** 
 373:Drivers/STM32L4xx_HAL_Driver/Src/stm32l4xx_ll_usb.c ****   /* Enable the common interrupts */
 374:Drivers/STM32L4xx_HAL_Driver/Src/stm32l4xx_ll_usb.c ****   USBx->GINTMSK |= USB_OTG_GINTMSK_RXFLVLM;
 892              		.loc 1 374 7
 893 0238 7B68     		ldr	r3, [r7, #4]
 894 023a 9B69     		ldr	r3, [r3, #24]
 895              		.loc 1 374 17
 896 023c 43F01002 		orr	r2, r3, #16
 897 0240 7B68     		ldr	r3, [r7, #4]
 898 0242 9A61     		str	r2, [r3, #24]
 375:Drivers/STM32L4xx_HAL_Driver/Src/stm32l4xx_ll_usb.c **** 
 376:Drivers/STM32L4xx_HAL_Driver/Src/stm32l4xx_ll_usb.c ****   /* Enable interrupts matching to the Device mode ONLY */
 377:Drivers/STM32L4xx_HAL_Driver/Src/stm32l4xx_ll_usb.c ****   USBx->GINTMSK |= USB_OTG_GINTMSK_USBSUSPM | USB_OTG_GINTMSK_USBRST |
 899              		.loc 1 377 7
 900 0244 7B68     		ldr	r3, [r7, #4]
 901 0246 9A69     		ldr	r2, [r3, #24]
 902              		.loc 1 377 17
 903 0248 104B     		ldr	r3, .L53
 904 024a 1343     		orrs	r3, r3, r2
 905 024c 7A68     		ldr	r2, [r7, #4]
 906 024e 9361     		str	r3, [r2, #24]
 378:Drivers/STM32L4xx_HAL_Driver/Src/stm32l4xx_ll_usb.c ****                    USB_OTG_GINTMSK_ENUMDNEM | USB_OTG_GINTMSK_IEPINT |
 379:Drivers/STM32L4xx_HAL_Driver/Src/stm32l4xx_ll_usb.c ****                    USB_OTG_GINTMSK_OEPINT   | USB_OTG_GINTMSK_IISOIXFRM |
 380:Drivers/STM32L4xx_HAL_Driver/Src/stm32l4xx_ll_usb.c ****                    USB_OTG_GINTMSK_PXFRM_IISOOXFRM | USB_OTG_GINTMSK_WUIM;
 381:Drivers/STM32L4xx_HAL_Driver/Src/stm32l4xx_ll_usb.c **** 
 382:Drivers/STM32L4xx_HAL_Driver/Src/stm32l4xx_ll_usb.c ****   if (cfg.Sof_enable != 0U)
 907              		.loc 1 382 10
 908 0250 97F82A30 		ldrb	r3, [r7, #42]	@ zero_extendqisi2
 909              		.loc 1 382 6
 910 0254 002B     		cmp	r3, #0
 911 0256 05D0     		beq	.L50
 383:Drivers/STM32L4xx_HAL_Driver/Src/stm32l4xx_ll_usb.c ****   {
 384:Drivers/STM32L4xx_HAL_Driver/Src/stm32l4xx_ll_usb.c ****     USBx->GINTMSK |= USB_OTG_GINTMSK_SOFM;
 912              		.loc 1 384 9
 913 0258 7B68     		ldr	r3, [r7, #4]
 914 025a 9B69     		ldr	r3, [r3, #24]
 915              		.loc 1 384 19
 916 025c 43F00802 		orr	r2, r3, #8
 917 0260 7B68     		ldr	r3, [r7, #4]
 918 0262 9A61     		str	r2, [r3, #24]
 919              	.L50:
 385:Drivers/STM32L4xx_HAL_Driver/Src/stm32l4xx_ll_usb.c ****   }
 386:Drivers/STM32L4xx_HAL_Driver/Src/stm32l4xx_ll_usb.c **** 
 387:Drivers/STM32L4xx_HAL_Driver/Src/stm32l4xx_ll_usb.c ****   if (cfg.vbus_sensing_enable == 1U)
 920              		.loc 1 387 10
 921 0264 97F82E30 		ldrb	r3, [r7, #46]	@ zero_extendqisi2
 922              		.loc 1 387 6
 923 0268 012B     		cmp	r3, #1
 924 026a 07D1     		bne	.L51
 388:Drivers/STM32L4xx_HAL_Driver/Src/stm32l4xx_ll_usb.c ****   {
 389:Drivers/STM32L4xx_HAL_Driver/Src/stm32l4xx_ll_usb.c ****     USBx->GINTMSK |= (USB_OTG_GINTMSK_SRQIM | USB_OTG_GINTMSK_OTGINT);
 925              		.loc 1 389 9
 926 026c 7B68     		ldr	r3, [r7, #4]
ARM GAS  /tmp/cc3N4Hnz.s 			page 24


 927 026e 9B69     		ldr	r3, [r3, #24]
 928              		.loc 1 389 19
 929 0270 43F08043 		orr	r3, r3, #1073741824
 930 0274 43F00403 		orr	r3, r3, #4
 931 0278 7A68     		ldr	r2, [r7, #4]
 932 027a 9361     		str	r3, [r2, #24]
 933              	.L51:
 390:Drivers/STM32L4xx_HAL_Driver/Src/stm32l4xx_ll_usb.c ****   }
 391:Drivers/STM32L4xx_HAL_Driver/Src/stm32l4xx_ll_usb.c **** 
 392:Drivers/STM32L4xx_HAL_Driver/Src/stm32l4xx_ll_usb.c ****   return ret;
 934              		.loc 1 392 10
 935 027c FB7D     		ldrb	r3, [r7, #23]	@ zero_extendqisi2
 393:Drivers/STM32L4xx_HAL_Driver/Src/stm32l4xx_ll_usb.c **** }
 936              		.loc 1 393 1
 937 027e 1846     		mov	r0, r3
 938 0280 1837     		adds	r7, r7, #24
 939              		.cfi_def_cfa_offset 24
 940 0282 BD46     		mov	sp, r7
 941              		.cfi_def_cfa_register 13
 942              		@ sp needed
 943 0284 BDE88040 		pop	{r7, lr}
 944              		.cfi_restore 14
 945              		.cfi_restore 7
 946              		.cfi_def_cfa_offset 16
 947 0288 04B0     		add	sp, sp, #16
 948              		.cfi_def_cfa_offset 0
 949 028a 7047     		bx	lr
 950              	.L54:
 951              		.align	2
 952              	.L53:
 953 028c 00383C80 		.word	-2143537152
 954              		.cfi_endproc
 955              	.LFE450:
 957              		.section	.text.USB_FlushTxFifo,"ax",%progbits
 958              		.align	1
 959              		.global	USB_FlushTxFifo
 960              		.syntax unified
 961              		.thumb
 962              		.thumb_func
 964              	USB_FlushTxFifo:
 965              	.LFB451:
 394:Drivers/STM32L4xx_HAL_Driver/Src/stm32l4xx_ll_usb.c **** 
 395:Drivers/STM32L4xx_HAL_Driver/Src/stm32l4xx_ll_usb.c **** /**
 396:Drivers/STM32L4xx_HAL_Driver/Src/stm32l4xx_ll_usb.c ****   * @brief  USB_FlushTxFifo Flush a Tx FIFO
 397:Drivers/STM32L4xx_HAL_Driver/Src/stm32l4xx_ll_usb.c ****   * @param  USBx  Selected device
 398:Drivers/STM32L4xx_HAL_Driver/Src/stm32l4xx_ll_usb.c ****   * @param  num  FIFO number
 399:Drivers/STM32L4xx_HAL_Driver/Src/stm32l4xx_ll_usb.c ****   *         This parameter can be a value from 1 to 15
 400:Drivers/STM32L4xx_HAL_Driver/Src/stm32l4xx_ll_usb.c ****             15 means Flush all Tx FIFOs
 401:Drivers/STM32L4xx_HAL_Driver/Src/stm32l4xx_ll_usb.c ****   * @retval HAL status
 402:Drivers/STM32L4xx_HAL_Driver/Src/stm32l4xx_ll_usb.c ****   */
 403:Drivers/STM32L4xx_HAL_Driver/Src/stm32l4xx_ll_usb.c **** HAL_StatusTypeDef USB_FlushTxFifo(USB_OTG_GlobalTypeDef *USBx, uint32_t num)
 404:Drivers/STM32L4xx_HAL_Driver/Src/stm32l4xx_ll_usb.c **** {
 966              		.loc 1 404 1
 967              		.cfi_startproc
 968              		@ args = 0, pretend = 0, frame = 16
 969              		@ frame_needed = 1, uses_anonymous_args = 0
 970              		@ link register save eliminated.
ARM GAS  /tmp/cc3N4Hnz.s 			page 25


 971 0000 80B4     		push	{r7}
 972              		.cfi_def_cfa_offset 4
 973              		.cfi_offset 7, -4
 974 0002 85B0     		sub	sp, sp, #20
 975              		.cfi_def_cfa_offset 24
 976 0004 00AF     		add	r7, sp, #0
 977              		.cfi_def_cfa_register 7
 978 0006 7860     		str	r0, [r7, #4]
 979 0008 3960     		str	r1, [r7]
 405:Drivers/STM32L4xx_HAL_Driver/Src/stm32l4xx_ll_usb.c ****   __IO uint32_t count = 0U;
 980              		.loc 1 405 17
 981 000a 0023     		movs	r3, #0
 982 000c FB60     		str	r3, [r7, #12]
 983              	.L58:
 406:Drivers/STM32L4xx_HAL_Driver/Src/stm32l4xx_ll_usb.c **** 
 407:Drivers/STM32L4xx_HAL_Driver/Src/stm32l4xx_ll_usb.c ****   /* Wait for AHB master IDLE state. */
 408:Drivers/STM32L4xx_HAL_Driver/Src/stm32l4xx_ll_usb.c ****   do
 409:Drivers/STM32L4xx_HAL_Driver/Src/stm32l4xx_ll_usb.c ****   {
 410:Drivers/STM32L4xx_HAL_Driver/Src/stm32l4xx_ll_usb.c ****     count++;
 984              		.loc 1 410 10
 985 000e FB68     		ldr	r3, [r7, #12]
 986 0010 0133     		adds	r3, r3, #1
 987 0012 FB60     		str	r3, [r7, #12]
 411:Drivers/STM32L4xx_HAL_Driver/Src/stm32l4xx_ll_usb.c **** 
 412:Drivers/STM32L4xx_HAL_Driver/Src/stm32l4xx_ll_usb.c ****     if (count > HAL_USB_TIMEOUT)
 988              		.loc 1 412 15
 989 0014 FB68     		ldr	r3, [r7, #12]
 990              		.loc 1 412 8
 991 0016 B3F1706F 		cmp	r3, #251658240
 992 001a 01D9     		bls	.L56
 413:Drivers/STM32L4xx_HAL_Driver/Src/stm32l4xx_ll_usb.c ****     {
 414:Drivers/STM32L4xx_HAL_Driver/Src/stm32l4xx_ll_usb.c ****       return HAL_TIMEOUT;
 993              		.loc 1 414 14
 994 001c 0323     		movs	r3, #3
 995 001e 1BE0     		b	.L57
 996              	.L56:
 415:Drivers/STM32L4xx_HAL_Driver/Src/stm32l4xx_ll_usb.c ****     }
 416:Drivers/STM32L4xx_HAL_Driver/Src/stm32l4xx_ll_usb.c ****   } while ((USBx->GRSTCTL & USB_OTG_GRSTCTL_AHBIDL) == 0U);
 997              		.loc 1 416 17
 998 0020 7B68     		ldr	r3, [r7, #4]
 999 0022 1B69     		ldr	r3, [r3, #16]
 1000              		.loc 1 416 53
 1001 0024 002B     		cmp	r3, #0
 1002 0026 F2DA     		bge	.L58
 417:Drivers/STM32L4xx_HAL_Driver/Src/stm32l4xx_ll_usb.c **** 
 418:Drivers/STM32L4xx_HAL_Driver/Src/stm32l4xx_ll_usb.c ****   /* Flush TX Fifo */
 419:Drivers/STM32L4xx_HAL_Driver/Src/stm32l4xx_ll_usb.c ****   count = 0U;
 1003              		.loc 1 419 9
 1004 0028 0023     		movs	r3, #0
 1005 002a FB60     		str	r3, [r7, #12]
 420:Drivers/STM32L4xx_HAL_Driver/Src/stm32l4xx_ll_usb.c ****   USBx->GRSTCTL = (USB_OTG_GRSTCTL_TXFFLSH | (num << 6));
 1006              		.loc 1 420 51
 1007 002c 3B68     		ldr	r3, [r7]
 1008 002e 9B01     		lsls	r3, r3, #6
 1009              		.loc 1 420 44
 1010 0030 43F02002 		orr	r2, r3, #32
 1011              		.loc 1 420 17
ARM GAS  /tmp/cc3N4Hnz.s 			page 26


 1012 0034 7B68     		ldr	r3, [r7, #4]
 1013 0036 1A61     		str	r2, [r3, #16]
 1014              	.L60:
 421:Drivers/STM32L4xx_HAL_Driver/Src/stm32l4xx_ll_usb.c **** 
 422:Drivers/STM32L4xx_HAL_Driver/Src/stm32l4xx_ll_usb.c ****   do
 423:Drivers/STM32L4xx_HAL_Driver/Src/stm32l4xx_ll_usb.c ****   {
 424:Drivers/STM32L4xx_HAL_Driver/Src/stm32l4xx_ll_usb.c ****     count++;
 1015              		.loc 1 424 10
 1016 0038 FB68     		ldr	r3, [r7, #12]
 1017 003a 0133     		adds	r3, r3, #1
 1018 003c FB60     		str	r3, [r7, #12]
 425:Drivers/STM32L4xx_HAL_Driver/Src/stm32l4xx_ll_usb.c **** 
 426:Drivers/STM32L4xx_HAL_Driver/Src/stm32l4xx_ll_usb.c ****     if (count > HAL_USB_TIMEOUT)
 1019              		.loc 1 426 15
 1020 003e FB68     		ldr	r3, [r7, #12]
 1021              		.loc 1 426 8
 1022 0040 B3F1706F 		cmp	r3, #251658240
 1023 0044 01D9     		bls	.L59
 427:Drivers/STM32L4xx_HAL_Driver/Src/stm32l4xx_ll_usb.c ****     {
 428:Drivers/STM32L4xx_HAL_Driver/Src/stm32l4xx_ll_usb.c ****       return HAL_TIMEOUT;
 1024              		.loc 1 428 14
 1025 0046 0323     		movs	r3, #3
 1026 0048 06E0     		b	.L57
 1027              	.L59:
 429:Drivers/STM32L4xx_HAL_Driver/Src/stm32l4xx_ll_usb.c ****     }
 430:Drivers/STM32L4xx_HAL_Driver/Src/stm32l4xx_ll_usb.c ****   } while ((USBx->GRSTCTL & USB_OTG_GRSTCTL_TXFFLSH) == USB_OTG_GRSTCTL_TXFFLSH);
 1028              		.loc 1 430 17
 1029 004a 7B68     		ldr	r3, [r7, #4]
 1030 004c 1B69     		ldr	r3, [r3, #16]
 1031              		.loc 1 430 27
 1032 004e 03F02003 		and	r3, r3, #32
 1033              		.loc 1 430 54
 1034 0052 202B     		cmp	r3, #32
 1035 0054 F0D0     		beq	.L60
 431:Drivers/STM32L4xx_HAL_Driver/Src/stm32l4xx_ll_usb.c **** 
 432:Drivers/STM32L4xx_HAL_Driver/Src/stm32l4xx_ll_usb.c ****   return HAL_OK;
 1036              		.loc 1 432 10
 1037 0056 0023     		movs	r3, #0
 1038              	.L57:
 433:Drivers/STM32L4xx_HAL_Driver/Src/stm32l4xx_ll_usb.c **** }
 1039              		.loc 1 433 1
 1040 0058 1846     		mov	r0, r3
 1041 005a 1437     		adds	r7, r7, #20
 1042              		.cfi_def_cfa_offset 4
 1043 005c BD46     		mov	sp, r7
 1044              		.cfi_def_cfa_register 13
 1045              		@ sp needed
 1046 005e 5DF8047B 		ldr	r7, [sp], #4
 1047              		.cfi_restore 7
 1048              		.cfi_def_cfa_offset 0
 1049 0062 7047     		bx	lr
 1050              		.cfi_endproc
 1051              	.LFE451:
 1053              		.section	.text.USB_FlushRxFifo,"ax",%progbits
 1054              		.align	1
 1055              		.global	USB_FlushRxFifo
 1056              		.syntax unified
ARM GAS  /tmp/cc3N4Hnz.s 			page 27


 1057              		.thumb
 1058              		.thumb_func
 1060              	USB_FlushRxFifo:
 1061              	.LFB452:
 434:Drivers/STM32L4xx_HAL_Driver/Src/stm32l4xx_ll_usb.c **** 
 435:Drivers/STM32L4xx_HAL_Driver/Src/stm32l4xx_ll_usb.c **** /**
 436:Drivers/STM32L4xx_HAL_Driver/Src/stm32l4xx_ll_usb.c ****   * @brief  USB_FlushRxFifo  Flush Rx FIFO
 437:Drivers/STM32L4xx_HAL_Driver/Src/stm32l4xx_ll_usb.c ****   * @param  USBx  Selected device
 438:Drivers/STM32L4xx_HAL_Driver/Src/stm32l4xx_ll_usb.c ****   * @retval HAL status
 439:Drivers/STM32L4xx_HAL_Driver/Src/stm32l4xx_ll_usb.c ****   */
 440:Drivers/STM32L4xx_HAL_Driver/Src/stm32l4xx_ll_usb.c **** HAL_StatusTypeDef USB_FlushRxFifo(USB_OTG_GlobalTypeDef *USBx)
 441:Drivers/STM32L4xx_HAL_Driver/Src/stm32l4xx_ll_usb.c **** {
 1062              		.loc 1 441 1
 1063              		.cfi_startproc
 1064              		@ args = 0, pretend = 0, frame = 16
 1065              		@ frame_needed = 1, uses_anonymous_args = 0
 1066              		@ link register save eliminated.
 1067 0000 80B4     		push	{r7}
 1068              		.cfi_def_cfa_offset 4
 1069              		.cfi_offset 7, -4
 1070 0002 85B0     		sub	sp, sp, #20
 1071              		.cfi_def_cfa_offset 24
 1072 0004 00AF     		add	r7, sp, #0
 1073              		.cfi_def_cfa_register 7
 1074 0006 7860     		str	r0, [r7, #4]
 442:Drivers/STM32L4xx_HAL_Driver/Src/stm32l4xx_ll_usb.c ****   __IO uint32_t count = 0U;
 1075              		.loc 1 442 17
 1076 0008 0023     		movs	r3, #0
 1077 000a FB60     		str	r3, [r7, #12]
 1078              	.L64:
 443:Drivers/STM32L4xx_HAL_Driver/Src/stm32l4xx_ll_usb.c **** 
 444:Drivers/STM32L4xx_HAL_Driver/Src/stm32l4xx_ll_usb.c ****   /* Wait for AHB master IDLE state. */
 445:Drivers/STM32L4xx_HAL_Driver/Src/stm32l4xx_ll_usb.c ****   do
 446:Drivers/STM32L4xx_HAL_Driver/Src/stm32l4xx_ll_usb.c ****   {
 447:Drivers/STM32L4xx_HAL_Driver/Src/stm32l4xx_ll_usb.c ****     count++;
 1079              		.loc 1 447 10
 1080 000c FB68     		ldr	r3, [r7, #12]
 1081 000e 0133     		adds	r3, r3, #1
 1082 0010 FB60     		str	r3, [r7, #12]
 448:Drivers/STM32L4xx_HAL_Driver/Src/stm32l4xx_ll_usb.c **** 
 449:Drivers/STM32L4xx_HAL_Driver/Src/stm32l4xx_ll_usb.c ****     if (count > HAL_USB_TIMEOUT)
 1083              		.loc 1 449 15
 1084 0012 FB68     		ldr	r3, [r7, #12]
 1085              		.loc 1 449 8
 1086 0014 B3F1706F 		cmp	r3, #251658240
 1087 0018 01D9     		bls	.L62
 450:Drivers/STM32L4xx_HAL_Driver/Src/stm32l4xx_ll_usb.c ****     {
 451:Drivers/STM32L4xx_HAL_Driver/Src/stm32l4xx_ll_usb.c ****       return HAL_TIMEOUT;
 1088              		.loc 1 451 14
 1089 001a 0323     		movs	r3, #3
 1090 001c 18E0     		b	.L63
 1091              	.L62:
 452:Drivers/STM32L4xx_HAL_Driver/Src/stm32l4xx_ll_usb.c ****     }
 453:Drivers/STM32L4xx_HAL_Driver/Src/stm32l4xx_ll_usb.c ****   } while ((USBx->GRSTCTL & USB_OTG_GRSTCTL_AHBIDL) == 0U);
 1092              		.loc 1 453 17
 1093 001e 7B68     		ldr	r3, [r7, #4]
 1094 0020 1B69     		ldr	r3, [r3, #16]
ARM GAS  /tmp/cc3N4Hnz.s 			page 28


 1095              		.loc 1 453 53
 1096 0022 002B     		cmp	r3, #0
 1097 0024 F2DA     		bge	.L64
 454:Drivers/STM32L4xx_HAL_Driver/Src/stm32l4xx_ll_usb.c **** 
 455:Drivers/STM32L4xx_HAL_Driver/Src/stm32l4xx_ll_usb.c ****   /* Flush RX Fifo */
 456:Drivers/STM32L4xx_HAL_Driver/Src/stm32l4xx_ll_usb.c ****   count = 0U;
 1098              		.loc 1 456 9
 1099 0026 0023     		movs	r3, #0
 1100 0028 FB60     		str	r3, [r7, #12]
 457:Drivers/STM32L4xx_HAL_Driver/Src/stm32l4xx_ll_usb.c ****   USBx->GRSTCTL = USB_OTG_GRSTCTL_RXFFLSH;
 1101              		.loc 1 457 17
 1102 002a 7B68     		ldr	r3, [r7, #4]
 1103 002c 1022     		movs	r2, #16
 1104 002e 1A61     		str	r2, [r3, #16]
 1105              	.L66:
 458:Drivers/STM32L4xx_HAL_Driver/Src/stm32l4xx_ll_usb.c **** 
 459:Drivers/STM32L4xx_HAL_Driver/Src/stm32l4xx_ll_usb.c ****   do
 460:Drivers/STM32L4xx_HAL_Driver/Src/stm32l4xx_ll_usb.c ****   {
 461:Drivers/STM32L4xx_HAL_Driver/Src/stm32l4xx_ll_usb.c ****     count++;
 1106              		.loc 1 461 10
 1107 0030 FB68     		ldr	r3, [r7, #12]
 1108 0032 0133     		adds	r3, r3, #1
 1109 0034 FB60     		str	r3, [r7, #12]
 462:Drivers/STM32L4xx_HAL_Driver/Src/stm32l4xx_ll_usb.c **** 
 463:Drivers/STM32L4xx_HAL_Driver/Src/stm32l4xx_ll_usb.c ****     if (count > HAL_USB_TIMEOUT)
 1110              		.loc 1 463 15
 1111 0036 FB68     		ldr	r3, [r7, #12]
 1112              		.loc 1 463 8
 1113 0038 B3F1706F 		cmp	r3, #251658240
 1114 003c 01D9     		bls	.L65
 464:Drivers/STM32L4xx_HAL_Driver/Src/stm32l4xx_ll_usb.c ****     {
 465:Drivers/STM32L4xx_HAL_Driver/Src/stm32l4xx_ll_usb.c ****       return HAL_TIMEOUT;
 1115              		.loc 1 465 14
 1116 003e 0323     		movs	r3, #3
 1117 0040 06E0     		b	.L63
 1118              	.L65:
 466:Drivers/STM32L4xx_HAL_Driver/Src/stm32l4xx_ll_usb.c ****     }
 467:Drivers/STM32L4xx_HAL_Driver/Src/stm32l4xx_ll_usb.c ****   } while ((USBx->GRSTCTL & USB_OTG_GRSTCTL_RXFFLSH) == USB_OTG_GRSTCTL_RXFFLSH);
 1119              		.loc 1 467 17
 1120 0042 7B68     		ldr	r3, [r7, #4]
 1121 0044 1B69     		ldr	r3, [r3, #16]
 1122              		.loc 1 467 27
 1123 0046 03F01003 		and	r3, r3, #16
 1124              		.loc 1 467 54
 1125 004a 102B     		cmp	r3, #16
 1126 004c F0D0     		beq	.L66
 468:Drivers/STM32L4xx_HAL_Driver/Src/stm32l4xx_ll_usb.c **** 
 469:Drivers/STM32L4xx_HAL_Driver/Src/stm32l4xx_ll_usb.c ****   return HAL_OK;
 1127              		.loc 1 469 10
 1128 004e 0023     		movs	r3, #0
 1129              	.L63:
 470:Drivers/STM32L4xx_HAL_Driver/Src/stm32l4xx_ll_usb.c **** }
 1130              		.loc 1 470 1
 1131 0050 1846     		mov	r0, r3
 1132 0052 1437     		adds	r7, r7, #20
 1133              		.cfi_def_cfa_offset 4
 1134 0054 BD46     		mov	sp, r7
ARM GAS  /tmp/cc3N4Hnz.s 			page 29


 1135              		.cfi_def_cfa_register 13
 1136              		@ sp needed
 1137 0056 5DF8047B 		ldr	r7, [sp], #4
 1138              		.cfi_restore 7
 1139              		.cfi_def_cfa_offset 0
 1140 005a 7047     		bx	lr
 1141              		.cfi_endproc
 1142              	.LFE452:
 1144              		.section	.text.USB_SetDevSpeed,"ax",%progbits
 1145              		.align	1
 1146              		.global	USB_SetDevSpeed
 1147              		.syntax unified
 1148              		.thumb
 1149              		.thumb_func
 1151              	USB_SetDevSpeed:
 1152              	.LFB453:
 471:Drivers/STM32L4xx_HAL_Driver/Src/stm32l4xx_ll_usb.c **** 
 472:Drivers/STM32L4xx_HAL_Driver/Src/stm32l4xx_ll_usb.c **** /**
 473:Drivers/STM32L4xx_HAL_Driver/Src/stm32l4xx_ll_usb.c ****   * @brief  USB_SetDevSpeed  Initializes the DevSpd field of DCFG register
 474:Drivers/STM32L4xx_HAL_Driver/Src/stm32l4xx_ll_usb.c ****   *         depending the PHY type and the enumeration speed of the device.
 475:Drivers/STM32L4xx_HAL_Driver/Src/stm32l4xx_ll_usb.c ****   * @param  USBx  Selected device
 476:Drivers/STM32L4xx_HAL_Driver/Src/stm32l4xx_ll_usb.c ****   * @param  speed  device speed
 477:Drivers/STM32L4xx_HAL_Driver/Src/stm32l4xx_ll_usb.c ****   *          This parameter can be one of these values:
 478:Drivers/STM32L4xx_HAL_Driver/Src/stm32l4xx_ll_usb.c ****   *            @arg USB_OTG_SPEED_FULL: Full speed mode
 479:Drivers/STM32L4xx_HAL_Driver/Src/stm32l4xx_ll_usb.c ****   * @retval  Hal status
 480:Drivers/STM32L4xx_HAL_Driver/Src/stm32l4xx_ll_usb.c ****   */
 481:Drivers/STM32L4xx_HAL_Driver/Src/stm32l4xx_ll_usb.c **** HAL_StatusTypeDef USB_SetDevSpeed(const USB_OTG_GlobalTypeDef *USBx, uint8_t speed)
 482:Drivers/STM32L4xx_HAL_Driver/Src/stm32l4xx_ll_usb.c **** {
 1153              		.loc 1 482 1
 1154              		.cfi_startproc
 1155              		@ args = 0, pretend = 0, frame = 16
 1156              		@ frame_needed = 1, uses_anonymous_args = 0
 1157              		@ link register save eliminated.
 1158 0000 80B4     		push	{r7}
 1159              		.cfi_def_cfa_offset 4
 1160              		.cfi_offset 7, -4
 1161 0002 85B0     		sub	sp, sp, #20
 1162              		.cfi_def_cfa_offset 24
 1163 0004 00AF     		add	r7, sp, #0
 1164              		.cfi_def_cfa_register 7
 1165 0006 7860     		str	r0, [r7, #4]
 1166 0008 0B46     		mov	r3, r1
 1167 000a FB70     		strb	r3, [r7, #3]
 483:Drivers/STM32L4xx_HAL_Driver/Src/stm32l4xx_ll_usb.c ****   uint32_t USBx_BASE = (uint32_t)USBx;
 1168              		.loc 1 483 12
 1169 000c 7B68     		ldr	r3, [r7, #4]
 1170 000e FB60     		str	r3, [r7, #12]
 484:Drivers/STM32L4xx_HAL_Driver/Src/stm32l4xx_ll_usb.c **** 
 485:Drivers/STM32L4xx_HAL_Driver/Src/stm32l4xx_ll_usb.c ****   USBx_DEVICE->DCFG |= speed;
 1171              		.loc 1 485 14
 1172 0010 FB68     		ldr	r3, [r7, #12]
 1173 0012 03F50063 		add	r3, r3, #2048
 1174 0016 1A68     		ldr	r2, [r3]
 1175              		.loc 1 485 21
 1176 0018 FB78     		ldrb	r3, [r7, #3]	@ zero_extendqisi2
 1177              		.loc 1 485 14
 1178 001a F968     		ldr	r1, [r7, #12]
ARM GAS  /tmp/cc3N4Hnz.s 			page 30


 1179 001c 01F50061 		add	r1, r1, #2048
 1180              		.loc 1 485 21
 1181 0020 1343     		orrs	r3, r3, r2
 1182 0022 0B60     		str	r3, [r1]
 486:Drivers/STM32L4xx_HAL_Driver/Src/stm32l4xx_ll_usb.c ****   return HAL_OK;
 1183              		.loc 1 486 10
 1184 0024 0023     		movs	r3, #0
 487:Drivers/STM32L4xx_HAL_Driver/Src/stm32l4xx_ll_usb.c **** }
 1185              		.loc 1 487 1
 1186 0026 1846     		mov	r0, r3
 1187 0028 1437     		adds	r7, r7, #20
 1188              		.cfi_def_cfa_offset 4
 1189 002a BD46     		mov	sp, r7
 1190              		.cfi_def_cfa_register 13
 1191              		@ sp needed
 1192 002c 5DF8047B 		ldr	r7, [sp], #4
 1193              		.cfi_restore 7
 1194              		.cfi_def_cfa_offset 0
 1195 0030 7047     		bx	lr
 1196              		.cfi_endproc
 1197              	.LFE453:
 1199              		.section	.text.USB_GetDevSpeed,"ax",%progbits
 1200              		.align	1
 1201              		.global	USB_GetDevSpeed
 1202              		.syntax unified
 1203              		.thumb
 1204              		.thumb_func
 1206              	USB_GetDevSpeed:
 1207              	.LFB454:
 488:Drivers/STM32L4xx_HAL_Driver/Src/stm32l4xx_ll_usb.c **** 
 489:Drivers/STM32L4xx_HAL_Driver/Src/stm32l4xx_ll_usb.c **** /**
 490:Drivers/STM32L4xx_HAL_Driver/Src/stm32l4xx_ll_usb.c ****   * @brief  USB_GetDevSpeed  Return the Dev Speed
 491:Drivers/STM32L4xx_HAL_Driver/Src/stm32l4xx_ll_usb.c ****   * @param  USBx  Selected device
 492:Drivers/STM32L4xx_HAL_Driver/Src/stm32l4xx_ll_usb.c ****   * @retval speed  device speed
 493:Drivers/STM32L4xx_HAL_Driver/Src/stm32l4xx_ll_usb.c ****   *          This parameter can be one of these values:
 494:Drivers/STM32L4xx_HAL_Driver/Src/stm32l4xx_ll_usb.c ****   *            @arg USBD_FS_SPEED: Full speed mode
 495:Drivers/STM32L4xx_HAL_Driver/Src/stm32l4xx_ll_usb.c ****   */
 496:Drivers/STM32L4xx_HAL_Driver/Src/stm32l4xx_ll_usb.c **** uint8_t USB_GetDevSpeed(const USB_OTG_GlobalTypeDef *USBx)
 497:Drivers/STM32L4xx_HAL_Driver/Src/stm32l4xx_ll_usb.c **** {
 1208              		.loc 1 497 1
 1209              		.cfi_startproc
 1210              		@ args = 0, pretend = 0, frame = 24
 1211              		@ frame_needed = 1, uses_anonymous_args = 0
 1212              		@ link register save eliminated.
 1213 0000 80B4     		push	{r7}
 1214              		.cfi_def_cfa_offset 4
 1215              		.cfi_offset 7, -4
 1216 0002 87B0     		sub	sp, sp, #28
 1217              		.cfi_def_cfa_offset 32
 1218 0004 00AF     		add	r7, sp, #0
 1219              		.cfi_def_cfa_register 7
 1220 0006 7860     		str	r0, [r7, #4]
 498:Drivers/STM32L4xx_HAL_Driver/Src/stm32l4xx_ll_usb.c ****   uint32_t USBx_BASE = (uint32_t)USBx;
 1221              		.loc 1 498 12
 1222 0008 7B68     		ldr	r3, [r7, #4]
 1223 000a 3B61     		str	r3, [r7, #16]
 499:Drivers/STM32L4xx_HAL_Driver/Src/stm32l4xx_ll_usb.c ****   uint8_t speed;
ARM GAS  /tmp/cc3N4Hnz.s 			page 31


 500:Drivers/STM32L4xx_HAL_Driver/Src/stm32l4xx_ll_usb.c ****   uint32_t DevEnumSpeed = USBx_DEVICE->DSTS & USB_OTG_DSTS_ENUMSPD;
 1224              		.loc 1 500 27
 1225 000c 3B69     		ldr	r3, [r7, #16]
 1226 000e 03F50063 		add	r3, r3, #2048
 1227              		.loc 1 500 38
 1228 0012 9B68     		ldr	r3, [r3, #8]
 1229              		.loc 1 500 12
 1230 0014 03F00603 		and	r3, r3, #6
 1231 0018 FB60     		str	r3, [r7, #12]
 501:Drivers/STM32L4xx_HAL_Driver/Src/stm32l4xx_ll_usb.c **** 
 502:Drivers/STM32L4xx_HAL_Driver/Src/stm32l4xx_ll_usb.c ****   if ((DevEnumSpeed == DSTS_ENUMSPD_FS_PHY_30MHZ_OR_60MHZ) ||
 1232              		.loc 1 502 6
 1233 001a FB68     		ldr	r3, [r7, #12]
 1234 001c 022B     		cmp	r3, #2
 1235 001e 02D0     		beq	.L70
 1236              		.loc 1 502 60 discriminator 1
 1237 0020 FB68     		ldr	r3, [r7, #12]
 1238 0022 062B     		cmp	r3, #6
 1239 0024 02D1     		bne	.L71
 1240              	.L70:
 503:Drivers/STM32L4xx_HAL_Driver/Src/stm32l4xx_ll_usb.c ****       (DevEnumSpeed == DSTS_ENUMSPD_FS_PHY_48MHZ))
 504:Drivers/STM32L4xx_HAL_Driver/Src/stm32l4xx_ll_usb.c ****   {
 505:Drivers/STM32L4xx_HAL_Driver/Src/stm32l4xx_ll_usb.c ****     speed = USBD_FS_SPEED;
 1241              		.loc 1 505 11
 1242 0026 0223     		movs	r3, #2
 1243 0028 FB75     		strb	r3, [r7, #23]
 1244 002a 01E0     		b	.L72
 1245              	.L71:
 506:Drivers/STM32L4xx_HAL_Driver/Src/stm32l4xx_ll_usb.c ****   }
 507:Drivers/STM32L4xx_HAL_Driver/Src/stm32l4xx_ll_usb.c ****   else
 508:Drivers/STM32L4xx_HAL_Driver/Src/stm32l4xx_ll_usb.c ****   {
 509:Drivers/STM32L4xx_HAL_Driver/Src/stm32l4xx_ll_usb.c ****     speed = 0xFU;
 1246              		.loc 1 509 11
 1247 002c 0F23     		movs	r3, #15
 1248 002e FB75     		strb	r3, [r7, #23]
 1249              	.L72:
 510:Drivers/STM32L4xx_HAL_Driver/Src/stm32l4xx_ll_usb.c ****   }
 511:Drivers/STM32L4xx_HAL_Driver/Src/stm32l4xx_ll_usb.c **** 
 512:Drivers/STM32L4xx_HAL_Driver/Src/stm32l4xx_ll_usb.c ****   return speed;
 1250              		.loc 1 512 10
 1251 0030 FB7D     		ldrb	r3, [r7, #23]	@ zero_extendqisi2
 513:Drivers/STM32L4xx_HAL_Driver/Src/stm32l4xx_ll_usb.c **** }
 1252              		.loc 1 513 1
 1253 0032 1846     		mov	r0, r3
 1254 0034 1C37     		adds	r7, r7, #28
 1255              		.cfi_def_cfa_offset 4
 1256 0036 BD46     		mov	sp, r7
 1257              		.cfi_def_cfa_register 13
 1258              		@ sp needed
 1259 0038 5DF8047B 		ldr	r7, [sp], #4
 1260              		.cfi_restore 7
 1261              		.cfi_def_cfa_offset 0
 1262 003c 7047     		bx	lr
 1263              		.cfi_endproc
 1264              	.LFE454:
 1266              		.section	.text.USB_ActivateEndpoint,"ax",%progbits
 1267              		.align	1
ARM GAS  /tmp/cc3N4Hnz.s 			page 32


 1268              		.global	USB_ActivateEndpoint
 1269              		.syntax unified
 1270              		.thumb
 1271              		.thumb_func
 1273              	USB_ActivateEndpoint:
 1274              	.LFB455:
 514:Drivers/STM32L4xx_HAL_Driver/Src/stm32l4xx_ll_usb.c **** 
 515:Drivers/STM32L4xx_HAL_Driver/Src/stm32l4xx_ll_usb.c **** #if defined (HAL_PCD_MODULE_ENABLED)
 516:Drivers/STM32L4xx_HAL_Driver/Src/stm32l4xx_ll_usb.c **** /**
 517:Drivers/STM32L4xx_HAL_Driver/Src/stm32l4xx_ll_usb.c ****   * @brief  Activate and configure an endpoint
 518:Drivers/STM32L4xx_HAL_Driver/Src/stm32l4xx_ll_usb.c ****   * @param  USBx  Selected device
 519:Drivers/STM32L4xx_HAL_Driver/Src/stm32l4xx_ll_usb.c ****   * @param  ep pointer to endpoint structure
 520:Drivers/STM32L4xx_HAL_Driver/Src/stm32l4xx_ll_usb.c ****   * @retval HAL status
 521:Drivers/STM32L4xx_HAL_Driver/Src/stm32l4xx_ll_usb.c ****   */
 522:Drivers/STM32L4xx_HAL_Driver/Src/stm32l4xx_ll_usb.c **** HAL_StatusTypeDef USB_ActivateEndpoint(const USB_OTG_GlobalTypeDef *USBx, const USB_OTG_EPTypeDef *
 523:Drivers/STM32L4xx_HAL_Driver/Src/stm32l4xx_ll_usb.c **** {
 1275              		.loc 1 523 1
 1276              		.cfi_startproc
 1277              		@ args = 0, pretend = 0, frame = 16
 1278              		@ frame_needed = 1, uses_anonymous_args = 0
 1279              		@ link register save eliminated.
 1280 0000 80B4     		push	{r7}
 1281              		.cfi_def_cfa_offset 4
 1282              		.cfi_offset 7, -4
 1283 0002 85B0     		sub	sp, sp, #20
 1284              		.cfi_def_cfa_offset 24
 1285 0004 00AF     		add	r7, sp, #0
 1286              		.cfi_def_cfa_register 7
 1287 0006 7860     		str	r0, [r7, #4]
 1288 0008 3960     		str	r1, [r7]
 524:Drivers/STM32L4xx_HAL_Driver/Src/stm32l4xx_ll_usb.c ****   uint32_t USBx_BASE = (uint32_t)USBx;
 1289              		.loc 1 524 12
 1290 000a 7B68     		ldr	r3, [r7, #4]
 1291 000c FB60     		str	r3, [r7, #12]
 525:Drivers/STM32L4xx_HAL_Driver/Src/stm32l4xx_ll_usb.c ****   uint32_t epnum = (uint32_t)ep->num;
 1292              		.loc 1 525 32
 1293 000e 3B68     		ldr	r3, [r7]
 1294 0010 1B78     		ldrb	r3, [r3]	@ zero_extendqisi2
 1295              		.loc 1 525 12
 1296 0012 BB60     		str	r3, [r7, #8]
 526:Drivers/STM32L4xx_HAL_Driver/Src/stm32l4xx_ll_usb.c **** 
 527:Drivers/STM32L4xx_HAL_Driver/Src/stm32l4xx_ll_usb.c ****   if (ep->is_in == 1U)
 1297              		.loc 1 527 9
 1298 0014 3B68     		ldr	r3, [r7]
 1299 0016 5B78     		ldrb	r3, [r3, #1]	@ zero_extendqisi2
 1300              		.loc 1 527 6
 1301 0018 012B     		cmp	r3, #1
 1302 001a 3AD1     		bne	.L75
 528:Drivers/STM32L4xx_HAL_Driver/Src/stm32l4xx_ll_usb.c ****   {
 529:Drivers/STM32L4xx_HAL_Driver/Src/stm32l4xx_ll_usb.c ****     USBx_DEVICE->DAINTMSK |= USB_OTG_DAINTMSK_IEPM & (uint32_t)(1UL << (ep->num & EP_ADDR_MSK));
 1303              		.loc 1 529 16
 1304 001c FB68     		ldr	r3, [r7, #12]
 1305 001e 03F50063 		add	r3, r3, #2048
 1306 0022 DA69     		ldr	r2, [r3, #28]
 1307              		.loc 1 529 75
 1308 0024 3B68     		ldr	r3, [r7]
 1309 0026 1B78     		ldrb	r3, [r3]	@ zero_extendqisi2
ARM GAS  /tmp/cc3N4Hnz.s 			page 33


 1310              		.loc 1 529 81
 1311 0028 03F00F03 		and	r3, r3, #15
 1312              		.loc 1 529 54
 1313 002c 0121     		movs	r1, #1
 1314 002e 01FA03F3 		lsl	r3, r1, r3
 1315              		.loc 1 529 52
 1316 0032 9BB2     		uxth	r3, r3
 1317              		.loc 1 529 16
 1318 0034 F968     		ldr	r1, [r7, #12]
 1319 0036 01F50061 		add	r1, r1, #2048
 1320              		.loc 1 529 27
 1321 003a 1343     		orrs	r3, r3, r2
 1322 003c CB61     		str	r3, [r1, #28]
 530:Drivers/STM32L4xx_HAL_Driver/Src/stm32l4xx_ll_usb.c **** 
 531:Drivers/STM32L4xx_HAL_Driver/Src/stm32l4xx_ll_usb.c ****     if ((USBx_INEP(epnum)->DIEPCTL & USB_OTG_DIEPCTL_USBAEP) == 0U)
 1323              		.loc 1 531 10
 1324 003e BB68     		ldr	r3, [r7, #8]
 1325 0040 5A01     		lsls	r2, r3, #5
 1326 0042 FB68     		ldr	r3, [r7, #12]
 1327 0044 1344     		add	r3, r3, r2
 1328 0046 03F51063 		add	r3, r3, #2304
 1329              		.loc 1 531 26
 1330 004a 1B68     		ldr	r3, [r3]
 1331              		.loc 1 531 36
 1332 004c 03F40043 		and	r3, r3, #32768
 1333              		.loc 1 531 8
 1334 0050 002B     		cmp	r3, #0
 1335 0052 55D1     		bne	.L76
 532:Drivers/STM32L4xx_HAL_Driver/Src/stm32l4xx_ll_usb.c ****     {
 533:Drivers/STM32L4xx_HAL_Driver/Src/stm32l4xx_ll_usb.c ****       USBx_INEP(epnum)->DIEPCTL |= (ep->maxpacket & USB_OTG_DIEPCTL_MPSIZ) |
 1336              		.loc 1 533 23
 1337 0054 BB68     		ldr	r3, [r7, #8]
 1338 0056 5A01     		lsls	r2, r3, #5
 1339 0058 FB68     		ldr	r3, [r7, #12]
 1340 005a 1344     		add	r3, r3, r2
 1341 005c 03F51063 		add	r3, r3, #2304
 1342 0060 1A68     		ldr	r2, [r3]
 1343              		.loc 1 533 39
 1344 0062 3B68     		ldr	r3, [r7]
 1345 0064 9B68     		ldr	r3, [r3, #8]
 1346              		.loc 1 533 51
 1347 0066 C3F30A01 		ubfx	r1, r3, #0, #11
 534:Drivers/STM32L4xx_HAL_Driver/Src/stm32l4xx_ll_usb.c ****                                    ((uint32_t)ep->type << 18) | (epnum << 22) |
 1348              		.loc 1 534 49
 1349 006a 3B68     		ldr	r3, [r7]
 1350 006c 1B79     		ldrb	r3, [r3, #4]	@ zero_extendqisi2
 1351              		.loc 1 534 56
 1352 006e 9B04     		lsls	r3, r3, #18
 533:Drivers/STM32L4xx_HAL_Driver/Src/stm32l4xx_ll_usb.c ****                                    ((uint32_t)ep->type << 18) | (epnum << 22) |
 1353              		.loc 1 533 76
 1354 0070 1943     		orrs	r1, r1, r3
 1355              		.loc 1 534 72
 1356 0072 BB68     		ldr	r3, [r7, #8]
 1357 0074 9B05     		lsls	r3, r3, #22
 1358              		.loc 1 534 63
 1359 0076 0B43     		orrs	r3, r3, r1
 533:Drivers/STM32L4xx_HAL_Driver/Src/stm32l4xx_ll_usb.c ****                                    ((uint32_t)ep->type << 18) | (epnum << 22) |
ARM GAS  /tmp/cc3N4Hnz.s 			page 34


 1360              		.loc 1 533 33
 1361 0078 1343     		orrs	r3, r3, r2
 533:Drivers/STM32L4xx_HAL_Driver/Src/stm32l4xx_ll_usb.c ****                                    ((uint32_t)ep->type << 18) | (epnum << 22) |
 1362              		.loc 1 533 23
 1363 007a BA68     		ldr	r2, [r7, #8]
 1364 007c 5101     		lsls	r1, r2, #5
 1365 007e FA68     		ldr	r2, [r7, #12]
 1366 0080 0A44     		add	r2, r2, r1
 1367 0082 02F51062 		add	r2, r2, #2304
 533:Drivers/STM32L4xx_HAL_Driver/Src/stm32l4xx_ll_usb.c ****                                    ((uint32_t)ep->type << 18) | (epnum << 22) |
 1368              		.loc 1 533 33
 1369 0086 43F08053 		orr	r3, r3, #268435456
 1370 008a 43F40043 		orr	r3, r3, #32768
 1371 008e 1360     		str	r3, [r2]
 1372 0090 36E0     		b	.L76
 1373              	.L75:
 535:Drivers/STM32L4xx_HAL_Driver/Src/stm32l4xx_ll_usb.c ****                                    USB_OTG_DIEPCTL_SD0PID_SEVNFRM |
 536:Drivers/STM32L4xx_HAL_Driver/Src/stm32l4xx_ll_usb.c ****                                    USB_OTG_DIEPCTL_USBAEP;
 537:Drivers/STM32L4xx_HAL_Driver/Src/stm32l4xx_ll_usb.c ****     }
 538:Drivers/STM32L4xx_HAL_Driver/Src/stm32l4xx_ll_usb.c ****   }
 539:Drivers/STM32L4xx_HAL_Driver/Src/stm32l4xx_ll_usb.c ****   else
 540:Drivers/STM32L4xx_HAL_Driver/Src/stm32l4xx_ll_usb.c ****   {
 541:Drivers/STM32L4xx_HAL_Driver/Src/stm32l4xx_ll_usb.c ****     USBx_DEVICE->DAINTMSK |= USB_OTG_DAINTMSK_OEPM & ((uint32_t)(1UL << (ep->num & EP_ADDR_MSK)) <<
 1374              		.loc 1 541 16
 1375 0092 FB68     		ldr	r3, [r7, #12]
 1376 0094 03F50063 		add	r3, r3, #2048
 1377 0098 DA69     		ldr	r2, [r3, #28]
 1378              		.loc 1 541 76
 1379 009a 3B68     		ldr	r3, [r7]
 1380 009c 1B78     		ldrb	r3, [r3]	@ zero_extendqisi2
 1381              		.loc 1 541 82
 1382 009e 03F00F03 		and	r3, r3, #15
 1383              		.loc 1 541 55
 1384 00a2 0121     		movs	r1, #1
 1385 00a4 01FA03F3 		lsl	r3, r1, r3
 1386              		.loc 1 541 52
 1387 00a8 1B04     		lsls	r3, r3, #16
 1388              		.loc 1 541 16
 1389 00aa F968     		ldr	r1, [r7, #12]
 1390 00ac 01F50061 		add	r1, r1, #2048
 1391              		.loc 1 541 27
 1392 00b0 1343     		orrs	r3, r3, r2
 1393 00b2 CB61     		str	r3, [r1, #28]
 542:Drivers/STM32L4xx_HAL_Driver/Src/stm32l4xx_ll_usb.c **** 
 543:Drivers/STM32L4xx_HAL_Driver/Src/stm32l4xx_ll_usb.c ****     if (((USBx_OUTEP(epnum)->DOEPCTL) & USB_OTG_DOEPCTL_USBAEP) == 0U)
 1394              		.loc 1 543 11
 1395 00b4 BB68     		ldr	r3, [r7, #8]
 1396 00b6 5A01     		lsls	r2, r3, #5
 1397 00b8 FB68     		ldr	r3, [r7, #12]
 1398 00ba 1344     		add	r3, r3, r2
 1399 00bc 03F53063 		add	r3, r3, #2816
 1400              		.loc 1 543 28
 1401 00c0 1B68     		ldr	r3, [r3]
 1402              		.loc 1 543 39
 1403 00c2 03F40043 		and	r3, r3, #32768
 1404              		.loc 1 543 8
 1405 00c6 002B     		cmp	r3, #0
ARM GAS  /tmp/cc3N4Hnz.s 			page 35


 1406 00c8 1AD1     		bne	.L76
 544:Drivers/STM32L4xx_HAL_Driver/Src/stm32l4xx_ll_usb.c ****     {
 545:Drivers/STM32L4xx_HAL_Driver/Src/stm32l4xx_ll_usb.c ****       USBx_OUTEP(epnum)->DOEPCTL |= (ep->maxpacket & USB_OTG_DOEPCTL_MPSIZ) |
 1407              		.loc 1 545 24
 1408 00ca BB68     		ldr	r3, [r7, #8]
 1409 00cc 5A01     		lsls	r2, r3, #5
 1410 00ce FB68     		ldr	r3, [r7, #12]
 1411 00d0 1344     		add	r3, r3, r2
 1412 00d2 03F53063 		add	r3, r3, #2816
 1413 00d6 1A68     		ldr	r2, [r3]
 1414              		.loc 1 545 40
 1415 00d8 3B68     		ldr	r3, [r7]
 1416 00da 9B68     		ldr	r3, [r3, #8]
 1417              		.loc 1 545 52
 1418 00dc C3F30A01 		ubfx	r1, r3, #0, #11
 546:Drivers/STM32L4xx_HAL_Driver/Src/stm32l4xx_ll_usb.c ****                                     ((uint32_t)ep->type << 18) |
 1419              		.loc 1 546 50
 1420 00e0 3B68     		ldr	r3, [r7]
 1421 00e2 1B79     		ldrb	r3, [r3, #4]	@ zero_extendqisi2
 1422              		.loc 1 546 57
 1423 00e4 9B04     		lsls	r3, r3, #18
 545:Drivers/STM32L4xx_HAL_Driver/Src/stm32l4xx_ll_usb.c ****                                     ((uint32_t)ep->type << 18) |
 1424              		.loc 1 545 77
 1425 00e6 0B43     		orrs	r3, r3, r1
 545:Drivers/STM32L4xx_HAL_Driver/Src/stm32l4xx_ll_usb.c ****                                     ((uint32_t)ep->type << 18) |
 1426              		.loc 1 545 34
 1427 00e8 1343     		orrs	r3, r3, r2
 545:Drivers/STM32L4xx_HAL_Driver/Src/stm32l4xx_ll_usb.c ****                                     ((uint32_t)ep->type << 18) |
 1428              		.loc 1 545 24
 1429 00ea BA68     		ldr	r2, [r7, #8]
 1430 00ec 5101     		lsls	r1, r2, #5
 1431 00ee FA68     		ldr	r2, [r7, #12]
 1432 00f0 0A44     		add	r2, r2, r1
 1433 00f2 02F53062 		add	r2, r2, #2816
 545:Drivers/STM32L4xx_HAL_Driver/Src/stm32l4xx_ll_usb.c ****                                     ((uint32_t)ep->type << 18) |
 1434              		.loc 1 545 34
 1435 00f6 43F08053 		orr	r3, r3, #268435456
 1436 00fa 43F40043 		orr	r3, r3, #32768
 1437 00fe 1360     		str	r3, [r2]
 1438              	.L76:
 547:Drivers/STM32L4xx_HAL_Driver/Src/stm32l4xx_ll_usb.c ****                                     USB_OTG_DIEPCTL_SD0PID_SEVNFRM |
 548:Drivers/STM32L4xx_HAL_Driver/Src/stm32l4xx_ll_usb.c ****                                     USB_OTG_DOEPCTL_USBAEP;
 549:Drivers/STM32L4xx_HAL_Driver/Src/stm32l4xx_ll_usb.c ****     }
 550:Drivers/STM32L4xx_HAL_Driver/Src/stm32l4xx_ll_usb.c ****   }
 551:Drivers/STM32L4xx_HAL_Driver/Src/stm32l4xx_ll_usb.c ****   return HAL_OK;
 1439              		.loc 1 551 10
 1440 0100 0023     		movs	r3, #0
 552:Drivers/STM32L4xx_HAL_Driver/Src/stm32l4xx_ll_usb.c **** }
 1441              		.loc 1 552 1
 1442 0102 1846     		mov	r0, r3
 1443 0104 1437     		adds	r7, r7, #20
 1444              		.cfi_def_cfa_offset 4
 1445 0106 BD46     		mov	sp, r7
 1446              		.cfi_def_cfa_register 13
 1447              		@ sp needed
 1448 0108 5DF8047B 		ldr	r7, [sp], #4
 1449              		.cfi_restore 7
ARM GAS  /tmp/cc3N4Hnz.s 			page 36


 1450              		.cfi_def_cfa_offset 0
 1451 010c 7047     		bx	lr
 1452              		.cfi_endproc
 1453              	.LFE455:
 1455              		.section	.text.USB_ActivateDedicatedEndpoint,"ax",%progbits
 1456              		.align	1
 1457              		.global	USB_ActivateDedicatedEndpoint
 1458              		.syntax unified
 1459              		.thumb
 1460              		.thumb_func
 1462              	USB_ActivateDedicatedEndpoint:
 1463              	.LFB456:
 553:Drivers/STM32L4xx_HAL_Driver/Src/stm32l4xx_ll_usb.c **** 
 554:Drivers/STM32L4xx_HAL_Driver/Src/stm32l4xx_ll_usb.c **** /**
 555:Drivers/STM32L4xx_HAL_Driver/Src/stm32l4xx_ll_usb.c ****   * @brief  Activate and configure a dedicated endpoint
 556:Drivers/STM32L4xx_HAL_Driver/Src/stm32l4xx_ll_usb.c ****   * @param  USBx  Selected device
 557:Drivers/STM32L4xx_HAL_Driver/Src/stm32l4xx_ll_usb.c ****   * @param  ep pointer to endpoint structure
 558:Drivers/STM32L4xx_HAL_Driver/Src/stm32l4xx_ll_usb.c ****   * @retval HAL status
 559:Drivers/STM32L4xx_HAL_Driver/Src/stm32l4xx_ll_usb.c ****   */
 560:Drivers/STM32L4xx_HAL_Driver/Src/stm32l4xx_ll_usb.c **** HAL_StatusTypeDef USB_ActivateDedicatedEndpoint(const USB_OTG_GlobalTypeDef *USBx, const USB_OTG_EP
 561:Drivers/STM32L4xx_HAL_Driver/Src/stm32l4xx_ll_usb.c **** {
 1464              		.loc 1 561 1
 1465              		.cfi_startproc
 1466              		@ args = 0, pretend = 0, frame = 16
 1467              		@ frame_needed = 1, uses_anonymous_args = 0
 1468              		@ link register save eliminated.
 1469 0000 80B4     		push	{r7}
 1470              		.cfi_def_cfa_offset 4
 1471              		.cfi_offset 7, -4
 1472 0002 85B0     		sub	sp, sp, #20
 1473              		.cfi_def_cfa_offset 24
 1474 0004 00AF     		add	r7, sp, #0
 1475              		.cfi_def_cfa_register 7
 1476 0006 7860     		str	r0, [r7, #4]
 1477 0008 3960     		str	r1, [r7]
 562:Drivers/STM32L4xx_HAL_Driver/Src/stm32l4xx_ll_usb.c ****   uint32_t USBx_BASE = (uint32_t)USBx;
 1478              		.loc 1 562 12
 1479 000a 7B68     		ldr	r3, [r7, #4]
 1480 000c FB60     		str	r3, [r7, #12]
 563:Drivers/STM32L4xx_HAL_Driver/Src/stm32l4xx_ll_usb.c ****   uint32_t epnum = (uint32_t)ep->num;
 1481              		.loc 1 563 32
 1482 000e 3B68     		ldr	r3, [r7]
 1483 0010 1B78     		ldrb	r3, [r3]	@ zero_extendqisi2
 1484              		.loc 1 563 12
 1485 0012 BB60     		str	r3, [r7, #8]
 564:Drivers/STM32L4xx_HAL_Driver/Src/stm32l4xx_ll_usb.c **** 
 565:Drivers/STM32L4xx_HAL_Driver/Src/stm32l4xx_ll_usb.c ****   /* Read DEPCTLn register */
 566:Drivers/STM32L4xx_HAL_Driver/Src/stm32l4xx_ll_usb.c ****   if (ep->is_in == 1U)
 1486              		.loc 1 566 9
 1487 0014 3B68     		ldr	r3, [r7]
 1488 0016 5B78     		ldrb	r3, [r3, #1]	@ zero_extendqisi2
 1489              		.loc 1 566 6
 1490 0018 012B     		cmp	r3, #1
 1491 001a 3AD1     		bne	.L79
 567:Drivers/STM32L4xx_HAL_Driver/Src/stm32l4xx_ll_usb.c ****   {
 568:Drivers/STM32L4xx_HAL_Driver/Src/stm32l4xx_ll_usb.c ****     if (((USBx_INEP(epnum)->DIEPCTL) & USB_OTG_DIEPCTL_USBAEP) == 0U)
 1492              		.loc 1 568 11
ARM GAS  /tmp/cc3N4Hnz.s 			page 37


 1493 001c BB68     		ldr	r3, [r7, #8]
 1494 001e 5A01     		lsls	r2, r3, #5
 1495 0020 FB68     		ldr	r3, [r7, #12]
 1496 0022 1344     		add	r3, r3, r2
 1497 0024 03F51063 		add	r3, r3, #2304
 1498              		.loc 1 568 27
 1499 0028 1B68     		ldr	r3, [r3]
 1500              		.loc 1 568 38
 1501 002a 03F40043 		and	r3, r3, #32768
 1502              		.loc 1 568 8
 1503 002e 002B     		cmp	r3, #0
 1504 0030 1DD1     		bne	.L80
 569:Drivers/STM32L4xx_HAL_Driver/Src/stm32l4xx_ll_usb.c ****     {
 570:Drivers/STM32L4xx_HAL_Driver/Src/stm32l4xx_ll_usb.c ****       USBx_INEP(epnum)->DIEPCTL |= (ep->maxpacket & USB_OTG_DIEPCTL_MPSIZ) |
 1505              		.loc 1 570 23
 1506 0032 BB68     		ldr	r3, [r7, #8]
 1507 0034 5A01     		lsls	r2, r3, #5
 1508 0036 FB68     		ldr	r3, [r7, #12]
 1509 0038 1344     		add	r3, r3, r2
 1510 003a 03F51063 		add	r3, r3, #2304
 1511 003e 1A68     		ldr	r2, [r3]
 1512              		.loc 1 570 39
 1513 0040 3B68     		ldr	r3, [r7]
 1514 0042 9B68     		ldr	r3, [r3, #8]
 1515              		.loc 1 570 51
 1516 0044 C3F30A01 		ubfx	r1, r3, #0, #11
 571:Drivers/STM32L4xx_HAL_Driver/Src/stm32l4xx_ll_usb.c ****                                    ((uint32_t)ep->type << 18) | (epnum << 22) |
 1517              		.loc 1 571 49
 1518 0048 3B68     		ldr	r3, [r7]
 1519 004a 1B79     		ldrb	r3, [r3, #4]	@ zero_extendqisi2
 1520              		.loc 1 571 56
 1521 004c 9B04     		lsls	r3, r3, #18
 570:Drivers/STM32L4xx_HAL_Driver/Src/stm32l4xx_ll_usb.c ****                                    ((uint32_t)ep->type << 18) | (epnum << 22) |
 1522              		.loc 1 570 76
 1523 004e 1943     		orrs	r1, r1, r3
 1524              		.loc 1 571 72
 1525 0050 BB68     		ldr	r3, [r7, #8]
 1526 0052 9B05     		lsls	r3, r3, #22
 1527              		.loc 1 571 63
 1528 0054 0B43     		orrs	r3, r3, r1
 570:Drivers/STM32L4xx_HAL_Driver/Src/stm32l4xx_ll_usb.c ****                                    ((uint32_t)ep->type << 18) | (epnum << 22) |
 1529              		.loc 1 570 33
 1530 0056 1343     		orrs	r3, r3, r2
 570:Drivers/STM32L4xx_HAL_Driver/Src/stm32l4xx_ll_usb.c ****                                    ((uint32_t)ep->type << 18) | (epnum << 22) |
 1531              		.loc 1 570 23
 1532 0058 BA68     		ldr	r2, [r7, #8]
 1533 005a 5101     		lsls	r1, r2, #5
 1534 005c FA68     		ldr	r2, [r7, #12]
 1535 005e 0A44     		add	r2, r2, r1
 1536 0060 02F51062 		add	r2, r2, #2304
 570:Drivers/STM32L4xx_HAL_Driver/Src/stm32l4xx_ll_usb.c ****                                    ((uint32_t)ep->type << 18) | (epnum << 22) |
 1537              		.loc 1 570 33
 1538 0064 43F08053 		orr	r3, r3, #268435456
 1539 0068 43F40043 		orr	r3, r3, #32768
 1540 006c 1360     		str	r3, [r2]
 1541              	.L80:
 572:Drivers/STM32L4xx_HAL_Driver/Src/stm32l4xx_ll_usb.c ****                                    USB_OTG_DIEPCTL_SD0PID_SEVNFRM |
ARM GAS  /tmp/cc3N4Hnz.s 			page 38


 573:Drivers/STM32L4xx_HAL_Driver/Src/stm32l4xx_ll_usb.c ****                                    USB_OTG_DIEPCTL_USBAEP;
 574:Drivers/STM32L4xx_HAL_Driver/Src/stm32l4xx_ll_usb.c ****     }
 575:Drivers/STM32L4xx_HAL_Driver/Src/stm32l4xx_ll_usb.c **** 
 576:Drivers/STM32L4xx_HAL_Driver/Src/stm32l4xx_ll_usb.c ****     USBx_DEVICE->DEACHMSK |= USB_OTG_DAINTMSK_IEPM & (uint32_t)(1UL << (ep->num & EP_ADDR_MSK));
 1542              		.loc 1 576 16
 1543 006e FB68     		ldr	r3, [r7, #12]
 1544 0070 03F50063 		add	r3, r3, #2048
 1545 0074 DA6B     		ldr	r2, [r3, #60]
 1546              		.loc 1 576 75
 1547 0076 3B68     		ldr	r3, [r7]
 1548 0078 1B78     		ldrb	r3, [r3]	@ zero_extendqisi2
 1549              		.loc 1 576 81
 1550 007a 03F00F03 		and	r3, r3, #15
 1551              		.loc 1 576 54
 1552 007e 0121     		movs	r1, #1
 1553 0080 01FA03F3 		lsl	r3, r1, r3
 1554              		.loc 1 576 52
 1555 0084 9BB2     		uxth	r3, r3
 1556              		.loc 1 576 16
 1557 0086 F968     		ldr	r1, [r7, #12]
 1558 0088 01F50061 		add	r1, r1, #2048
 1559              		.loc 1 576 27
 1560 008c 1343     		orrs	r3, r3, r2
 1561 008e CB63     		str	r3, [r1, #60]
 1562 0090 37E0     		b	.L81
 1563              	.L79:
 577:Drivers/STM32L4xx_HAL_Driver/Src/stm32l4xx_ll_usb.c ****   }
 578:Drivers/STM32L4xx_HAL_Driver/Src/stm32l4xx_ll_usb.c ****   else
 579:Drivers/STM32L4xx_HAL_Driver/Src/stm32l4xx_ll_usb.c ****   {
 580:Drivers/STM32L4xx_HAL_Driver/Src/stm32l4xx_ll_usb.c ****     if (((USBx_OUTEP(epnum)->DOEPCTL) & USB_OTG_DOEPCTL_USBAEP) == 0U)
 1564              		.loc 1 580 11
 1565 0092 BB68     		ldr	r3, [r7, #8]
 1566 0094 5A01     		lsls	r2, r3, #5
 1567 0096 FB68     		ldr	r3, [r7, #12]
 1568 0098 1344     		add	r3, r3, r2
 1569 009a 03F53063 		add	r3, r3, #2816
 1570              		.loc 1 580 28
 1571 009e 1B68     		ldr	r3, [r3]
 1572              		.loc 1 580 39
 1573 00a0 03F40043 		and	r3, r3, #32768
 1574              		.loc 1 580 8
 1575 00a4 002B     		cmp	r3, #0
 1576 00a6 1BD1     		bne	.L82
 581:Drivers/STM32L4xx_HAL_Driver/Src/stm32l4xx_ll_usb.c ****     {
 582:Drivers/STM32L4xx_HAL_Driver/Src/stm32l4xx_ll_usb.c ****       USBx_OUTEP(epnum)->DOEPCTL |= (ep->maxpacket & USB_OTG_DOEPCTL_MPSIZ) |
 1577              		.loc 1 582 24
 1578 00a8 BB68     		ldr	r3, [r7, #8]
 1579 00aa 5A01     		lsls	r2, r3, #5
 1580 00ac FB68     		ldr	r3, [r7, #12]
 1581 00ae 1344     		add	r3, r3, r2
 1582 00b0 03F53063 		add	r3, r3, #2816
 1583 00b4 1A68     		ldr	r2, [r3]
 1584              		.loc 1 582 40
 1585 00b6 3B68     		ldr	r3, [r7]
 1586 00b8 9B68     		ldr	r3, [r3, #8]
 1587              		.loc 1 582 52
 1588 00ba C3F30A01 		ubfx	r1, r3, #0, #11
ARM GAS  /tmp/cc3N4Hnz.s 			page 39


 583:Drivers/STM32L4xx_HAL_Driver/Src/stm32l4xx_ll_usb.c ****                                     ((uint32_t)ep->type << 18) | (epnum << 22) |
 1589              		.loc 1 583 50
 1590 00be 3B68     		ldr	r3, [r7]
 1591 00c0 1B79     		ldrb	r3, [r3, #4]	@ zero_extendqisi2
 1592              		.loc 1 583 57
 1593 00c2 9B04     		lsls	r3, r3, #18
 582:Drivers/STM32L4xx_HAL_Driver/Src/stm32l4xx_ll_usb.c ****                                     ((uint32_t)ep->type << 18) | (epnum << 22) |
 1594              		.loc 1 582 77
 1595 00c4 1943     		orrs	r1, r1, r3
 1596              		.loc 1 583 73
 1597 00c6 BB68     		ldr	r3, [r7, #8]
 1598 00c8 9B05     		lsls	r3, r3, #22
 1599              		.loc 1 583 64
 1600 00ca 0B43     		orrs	r3, r3, r1
 582:Drivers/STM32L4xx_HAL_Driver/Src/stm32l4xx_ll_usb.c ****                                     ((uint32_t)ep->type << 18) | (epnum << 22) |
 1601              		.loc 1 582 34
 1602 00cc 1343     		orrs	r3, r3, r2
 582:Drivers/STM32L4xx_HAL_Driver/Src/stm32l4xx_ll_usb.c ****                                     ((uint32_t)ep->type << 18) | (epnum << 22) |
 1603              		.loc 1 582 24
 1604 00ce BA68     		ldr	r2, [r7, #8]
 1605 00d0 5101     		lsls	r1, r2, #5
 1606 00d2 FA68     		ldr	r2, [r7, #12]
 1607 00d4 0A44     		add	r2, r2, r1
 1608 00d6 02F53062 		add	r2, r2, #2816
 582:Drivers/STM32L4xx_HAL_Driver/Src/stm32l4xx_ll_usb.c ****                                     ((uint32_t)ep->type << 18) | (epnum << 22) |
 1609              		.loc 1 582 34
 1610 00da 43F40043 		orr	r3, r3, #32768
 1611 00de 1360     		str	r3, [r2]
 1612              	.L82:
 584:Drivers/STM32L4xx_HAL_Driver/Src/stm32l4xx_ll_usb.c ****                                     USB_OTG_DOEPCTL_USBAEP;
 585:Drivers/STM32L4xx_HAL_Driver/Src/stm32l4xx_ll_usb.c ****     }
 586:Drivers/STM32L4xx_HAL_Driver/Src/stm32l4xx_ll_usb.c **** 
 587:Drivers/STM32L4xx_HAL_Driver/Src/stm32l4xx_ll_usb.c ****     USBx_DEVICE->DEACHMSK |= USB_OTG_DAINTMSK_OEPM & ((uint32_t)(1UL << (ep->num & EP_ADDR_MSK)) <<
 1613              		.loc 1 587 16
 1614 00e0 FB68     		ldr	r3, [r7, #12]
 1615 00e2 03F50063 		add	r3, r3, #2048
 1616 00e6 DA6B     		ldr	r2, [r3, #60]
 1617              		.loc 1 587 76
 1618 00e8 3B68     		ldr	r3, [r7]
 1619 00ea 1B78     		ldrb	r3, [r3]	@ zero_extendqisi2
 1620              		.loc 1 587 82
 1621 00ec 03F00F03 		and	r3, r3, #15
 1622              		.loc 1 587 55
 1623 00f0 0121     		movs	r1, #1
 1624 00f2 01FA03F3 		lsl	r3, r1, r3
 1625              		.loc 1 587 52
 1626 00f6 1B04     		lsls	r3, r3, #16
 1627              		.loc 1 587 16
 1628 00f8 F968     		ldr	r1, [r7, #12]
 1629 00fa 01F50061 		add	r1, r1, #2048
 1630              		.loc 1 587 27
 1631 00fe 1343     		orrs	r3, r3, r2
 1632 0100 CB63     		str	r3, [r1, #60]
 1633              	.L81:
 588:Drivers/STM32L4xx_HAL_Driver/Src/stm32l4xx_ll_usb.c ****   }
 589:Drivers/STM32L4xx_HAL_Driver/Src/stm32l4xx_ll_usb.c **** 
 590:Drivers/STM32L4xx_HAL_Driver/Src/stm32l4xx_ll_usb.c ****   return HAL_OK;
ARM GAS  /tmp/cc3N4Hnz.s 			page 40


 1634              		.loc 1 590 10
 1635 0102 0023     		movs	r3, #0
 591:Drivers/STM32L4xx_HAL_Driver/Src/stm32l4xx_ll_usb.c **** }
 1636              		.loc 1 591 1
 1637 0104 1846     		mov	r0, r3
 1638 0106 1437     		adds	r7, r7, #20
 1639              		.cfi_def_cfa_offset 4
 1640 0108 BD46     		mov	sp, r7
 1641              		.cfi_def_cfa_register 13
 1642              		@ sp needed
 1643 010a 5DF8047B 		ldr	r7, [sp], #4
 1644              		.cfi_restore 7
 1645              		.cfi_def_cfa_offset 0
 1646 010e 7047     		bx	lr
 1647              		.cfi_endproc
 1648              	.LFE456:
 1650              		.section	.text.USB_DeactivateEndpoint,"ax",%progbits
 1651              		.align	1
 1652              		.global	USB_DeactivateEndpoint
 1653              		.syntax unified
 1654              		.thumb
 1655              		.thumb_func
 1657              	USB_DeactivateEndpoint:
 1658              	.LFB457:
 592:Drivers/STM32L4xx_HAL_Driver/Src/stm32l4xx_ll_usb.c **** 
 593:Drivers/STM32L4xx_HAL_Driver/Src/stm32l4xx_ll_usb.c **** /**
 594:Drivers/STM32L4xx_HAL_Driver/Src/stm32l4xx_ll_usb.c ****   * @brief  De-activate and de-initialize an endpoint
 595:Drivers/STM32L4xx_HAL_Driver/Src/stm32l4xx_ll_usb.c ****   * @param  USBx  Selected device
 596:Drivers/STM32L4xx_HAL_Driver/Src/stm32l4xx_ll_usb.c ****   * @param  ep pointer to endpoint structure
 597:Drivers/STM32L4xx_HAL_Driver/Src/stm32l4xx_ll_usb.c ****   * @retval HAL status
 598:Drivers/STM32L4xx_HAL_Driver/Src/stm32l4xx_ll_usb.c ****   */
 599:Drivers/STM32L4xx_HAL_Driver/Src/stm32l4xx_ll_usb.c **** HAL_StatusTypeDef USB_DeactivateEndpoint(const USB_OTG_GlobalTypeDef *USBx, const USB_OTG_EPTypeDef
 600:Drivers/STM32L4xx_HAL_Driver/Src/stm32l4xx_ll_usb.c **** {
 1659              		.loc 1 600 1
 1660              		.cfi_startproc
 1661              		@ args = 0, pretend = 0, frame = 16
 1662              		@ frame_needed = 1, uses_anonymous_args = 0
 1663              		@ link register save eliminated.
 1664 0000 80B4     		push	{r7}
 1665              		.cfi_def_cfa_offset 4
 1666              		.cfi_offset 7, -4
 1667 0002 85B0     		sub	sp, sp, #20
 1668              		.cfi_def_cfa_offset 24
 1669 0004 00AF     		add	r7, sp, #0
 1670              		.cfi_def_cfa_register 7
 1671 0006 7860     		str	r0, [r7, #4]
 1672 0008 3960     		str	r1, [r7]
 601:Drivers/STM32L4xx_HAL_Driver/Src/stm32l4xx_ll_usb.c ****   uint32_t USBx_BASE = (uint32_t)USBx;
 1673              		.loc 1 601 12
 1674 000a 7B68     		ldr	r3, [r7, #4]
 1675 000c FB60     		str	r3, [r7, #12]
 602:Drivers/STM32L4xx_HAL_Driver/Src/stm32l4xx_ll_usb.c ****   uint32_t epnum = (uint32_t)ep->num;
 1676              		.loc 1 602 32
 1677 000e 3B68     		ldr	r3, [r7]
 1678 0010 1B78     		ldrb	r3, [r3]	@ zero_extendqisi2
 1679              		.loc 1 602 12
 1680 0012 BB60     		str	r3, [r7, #8]
ARM GAS  /tmp/cc3N4Hnz.s 			page 41


 603:Drivers/STM32L4xx_HAL_Driver/Src/stm32l4xx_ll_usb.c **** 
 604:Drivers/STM32L4xx_HAL_Driver/Src/stm32l4xx_ll_usb.c ****   /* Read DEPCTLn register */
 605:Drivers/STM32L4xx_HAL_Driver/Src/stm32l4xx_ll_usb.c ****   if (ep->is_in == 1U)
 1681              		.loc 1 605 9
 1682 0014 3B68     		ldr	r3, [r7]
 1683 0016 5B78     		ldrb	r3, [r3, #1]	@ zero_extendqisi2
 1684              		.loc 1 605 6
 1685 0018 012B     		cmp	r3, #1
 1686 001a 61D1     		bne	.L85
 606:Drivers/STM32L4xx_HAL_Driver/Src/stm32l4xx_ll_usb.c ****   {
 607:Drivers/STM32L4xx_HAL_Driver/Src/stm32l4xx_ll_usb.c ****     if ((USBx_INEP(epnum)->DIEPCTL & USB_OTG_DIEPCTL_EPENA) == USB_OTG_DIEPCTL_EPENA)
 1687              		.loc 1 607 10
 1688 001c BB68     		ldr	r3, [r7, #8]
 1689 001e 5A01     		lsls	r2, r3, #5
 1690 0020 FB68     		ldr	r3, [r7, #12]
 1691 0022 1344     		add	r3, r3, r2
 1692 0024 03F51063 		add	r3, r3, #2304
 1693              		.loc 1 607 26
 1694 0028 1B68     		ldr	r3, [r3]
 1695              		.loc 1 607 36
 1696 002a 03F00043 		and	r3, r3, #-2147483648
 1697              		.loc 1 607 8
 1698 002e B3F1004F 		cmp	r3, #-2147483648
 1699 0032 1FD1     		bne	.L86
 608:Drivers/STM32L4xx_HAL_Driver/Src/stm32l4xx_ll_usb.c ****     {
 609:Drivers/STM32L4xx_HAL_Driver/Src/stm32l4xx_ll_usb.c ****       USBx_INEP(epnum)->DIEPCTL |= USB_OTG_DIEPCTL_SNAK;
 1700              		.loc 1 609 23
 1701 0034 BB68     		ldr	r3, [r7, #8]
 1702 0036 5A01     		lsls	r2, r3, #5
 1703 0038 FB68     		ldr	r3, [r7, #12]
 1704 003a 1344     		add	r3, r3, r2
 1705 003c 03F51063 		add	r3, r3, #2304
 1706 0040 1B68     		ldr	r3, [r3]
 1707 0042 BA68     		ldr	r2, [r7, #8]
 1708 0044 5101     		lsls	r1, r2, #5
 1709 0046 FA68     		ldr	r2, [r7, #12]
 1710 0048 0A44     		add	r2, r2, r1
 1711 004a 02F51062 		add	r2, r2, #2304
 1712              		.loc 1 609 33
 1713 004e 43F00063 		orr	r3, r3, #134217728
 1714 0052 1360     		str	r3, [r2]
 610:Drivers/STM32L4xx_HAL_Driver/Src/stm32l4xx_ll_usb.c ****       USBx_INEP(epnum)->DIEPCTL |= USB_OTG_DIEPCTL_EPDIS;
 1715              		.loc 1 610 23
 1716 0054 BB68     		ldr	r3, [r7, #8]
 1717 0056 5A01     		lsls	r2, r3, #5
 1718 0058 FB68     		ldr	r3, [r7, #12]
 1719 005a 1344     		add	r3, r3, r2
 1720 005c 03F51063 		add	r3, r3, #2304
 1721 0060 1B68     		ldr	r3, [r3]
 1722 0062 BA68     		ldr	r2, [r7, #8]
 1723 0064 5101     		lsls	r1, r2, #5
 1724 0066 FA68     		ldr	r2, [r7, #12]
 1725 0068 0A44     		add	r2, r2, r1
 1726 006a 02F51062 		add	r2, r2, #2304
 1727              		.loc 1 610 33
 1728 006e 43F08043 		orr	r3, r3, #1073741824
 1729 0072 1360     		str	r3, [r2]
ARM GAS  /tmp/cc3N4Hnz.s 			page 42


 1730              	.L86:
 611:Drivers/STM32L4xx_HAL_Driver/Src/stm32l4xx_ll_usb.c ****     }
 612:Drivers/STM32L4xx_HAL_Driver/Src/stm32l4xx_ll_usb.c **** 
 613:Drivers/STM32L4xx_HAL_Driver/Src/stm32l4xx_ll_usb.c ****     USBx_DEVICE->DEACHMSK &= ~(USB_OTG_DAINTMSK_IEPM & (uint32_t)(1UL << (ep->num & EP_ADDR_MSK)));
 1731              		.loc 1 613 16
 1732 0074 FB68     		ldr	r3, [r7, #12]
 1733 0076 03F50063 		add	r3, r3, #2048
 1734 007a DA6B     		ldr	r2, [r3, #60]
 1735              		.loc 1 613 77
 1736 007c 3B68     		ldr	r3, [r7]
 1737 007e 1B78     		ldrb	r3, [r3]	@ zero_extendqisi2
 1738              		.loc 1 613 83
 1739 0080 03F00F03 		and	r3, r3, #15
 1740              		.loc 1 613 56
 1741 0084 0121     		movs	r1, #1
 1742 0086 01FA03F3 		lsl	r3, r1, r3
 1743              		.loc 1 613 54
 1744 008a 9BB2     		uxth	r3, r3
 1745              		.loc 1 613 30
 1746 008c DB43     		mvns	r3, r3
 1747              		.loc 1 613 16
 1748 008e F968     		ldr	r1, [r7, #12]
 1749 0090 01F50061 		add	r1, r1, #2048
 1750              		.loc 1 613 27
 1751 0094 1340     		ands	r3, r3, r2
 1752 0096 CB63     		str	r3, [r1, #60]
 614:Drivers/STM32L4xx_HAL_Driver/Src/stm32l4xx_ll_usb.c ****     USBx_DEVICE->DAINTMSK &= ~(USB_OTG_DAINTMSK_IEPM & (uint32_t)(1UL << (ep->num & EP_ADDR_MSK)));
 1753              		.loc 1 614 16
 1754 0098 FB68     		ldr	r3, [r7, #12]
 1755 009a 03F50063 		add	r3, r3, #2048
 1756 009e DA69     		ldr	r2, [r3, #28]
 1757              		.loc 1 614 77
 1758 00a0 3B68     		ldr	r3, [r7]
 1759 00a2 1B78     		ldrb	r3, [r3]	@ zero_extendqisi2
 1760              		.loc 1 614 83
 1761 00a4 03F00F03 		and	r3, r3, #15
 1762              		.loc 1 614 56
 1763 00a8 0121     		movs	r1, #1
 1764 00aa 01FA03F3 		lsl	r3, r1, r3
 1765              		.loc 1 614 54
 1766 00ae 9BB2     		uxth	r3, r3
 1767              		.loc 1 614 30
 1768 00b0 DB43     		mvns	r3, r3
 1769              		.loc 1 614 16
 1770 00b2 F968     		ldr	r1, [r7, #12]
 1771 00b4 01F50061 		add	r1, r1, #2048
 1772              		.loc 1 614 27
 1773 00b8 1340     		ands	r3, r3, r2
 1774 00ba CB61     		str	r3, [r1, #28]
 615:Drivers/STM32L4xx_HAL_Driver/Src/stm32l4xx_ll_usb.c ****     USBx_INEP(epnum)->DIEPCTL &= ~(USB_OTG_DIEPCTL_USBAEP |
 1775              		.loc 1 615 21
 1776 00bc BB68     		ldr	r3, [r7, #8]
 1777 00be 5A01     		lsls	r2, r3, #5
 1778 00c0 FB68     		ldr	r3, [r7, #12]
 1779 00c2 1344     		add	r3, r3, r2
 1780 00c4 03F51063 		add	r3, r3, #2304
 1781 00c8 1A68     		ldr	r2, [r3]
ARM GAS  /tmp/cc3N4Hnz.s 			page 43


 1782 00ca BB68     		ldr	r3, [r7, #8]
 1783 00cc 5901     		lsls	r1, r3, #5
 1784 00ce FB68     		ldr	r3, [r7, #12]
 1785 00d0 0B44     		add	r3, r3, r1
 1786 00d2 03F51063 		add	r3, r3, #2304
 1787 00d6 1946     		mov	r1, r3
 1788              		.loc 1 615 31
 1789 00d8 354B     		ldr	r3, .L90
 1790 00da 1340     		ands	r3, r3, r2
 1791 00dc 0B60     		str	r3, [r1]
 1792 00de 60E0     		b	.L87
 1793              	.L85:
 616:Drivers/STM32L4xx_HAL_Driver/Src/stm32l4xx_ll_usb.c ****                                    USB_OTG_DIEPCTL_MPSIZ |
 617:Drivers/STM32L4xx_HAL_Driver/Src/stm32l4xx_ll_usb.c ****                                    USB_OTG_DIEPCTL_TXFNUM |
 618:Drivers/STM32L4xx_HAL_Driver/Src/stm32l4xx_ll_usb.c ****                                    USB_OTG_DIEPCTL_SD0PID_SEVNFRM |
 619:Drivers/STM32L4xx_HAL_Driver/Src/stm32l4xx_ll_usb.c ****                                    USB_OTG_DIEPCTL_EPTYP);
 620:Drivers/STM32L4xx_HAL_Driver/Src/stm32l4xx_ll_usb.c ****   }
 621:Drivers/STM32L4xx_HAL_Driver/Src/stm32l4xx_ll_usb.c ****   else
 622:Drivers/STM32L4xx_HAL_Driver/Src/stm32l4xx_ll_usb.c ****   {
 623:Drivers/STM32L4xx_HAL_Driver/Src/stm32l4xx_ll_usb.c ****     if ((USBx_OUTEP(epnum)->DOEPCTL & USB_OTG_DOEPCTL_EPENA) == USB_OTG_DOEPCTL_EPENA)
 1794              		.loc 1 623 10
 1795 00e0 BB68     		ldr	r3, [r7, #8]
 1796 00e2 5A01     		lsls	r2, r3, #5
 1797 00e4 FB68     		ldr	r3, [r7, #12]
 1798 00e6 1344     		add	r3, r3, r2
 1799 00e8 03F53063 		add	r3, r3, #2816
 1800              		.loc 1 623 27
 1801 00ec 1B68     		ldr	r3, [r3]
 1802              		.loc 1 623 37
 1803 00ee 03F00043 		and	r3, r3, #-2147483648
 1804              		.loc 1 623 8
 1805 00f2 B3F1004F 		cmp	r3, #-2147483648
 1806 00f6 1FD1     		bne	.L88
 624:Drivers/STM32L4xx_HAL_Driver/Src/stm32l4xx_ll_usb.c ****     {
 625:Drivers/STM32L4xx_HAL_Driver/Src/stm32l4xx_ll_usb.c ****       USBx_OUTEP(epnum)->DOEPCTL |= USB_OTG_DOEPCTL_SNAK;
 1807              		.loc 1 625 24
 1808 00f8 BB68     		ldr	r3, [r7, #8]
 1809 00fa 5A01     		lsls	r2, r3, #5
 1810 00fc FB68     		ldr	r3, [r7, #12]
 1811 00fe 1344     		add	r3, r3, r2
 1812 0100 03F53063 		add	r3, r3, #2816
 1813 0104 1B68     		ldr	r3, [r3]
 1814 0106 BA68     		ldr	r2, [r7, #8]
 1815 0108 5101     		lsls	r1, r2, #5
 1816 010a FA68     		ldr	r2, [r7, #12]
 1817 010c 0A44     		add	r2, r2, r1
 1818 010e 02F53062 		add	r2, r2, #2816
 1819              		.loc 1 625 34
 1820 0112 43F00063 		orr	r3, r3, #134217728
 1821 0116 1360     		str	r3, [r2]
 626:Drivers/STM32L4xx_HAL_Driver/Src/stm32l4xx_ll_usb.c ****       USBx_OUTEP(epnum)->DOEPCTL |= USB_OTG_DOEPCTL_EPDIS;
 1822              		.loc 1 626 24
 1823 0118 BB68     		ldr	r3, [r7, #8]
 1824 011a 5A01     		lsls	r2, r3, #5
 1825 011c FB68     		ldr	r3, [r7, #12]
 1826 011e 1344     		add	r3, r3, r2
 1827 0120 03F53063 		add	r3, r3, #2816
ARM GAS  /tmp/cc3N4Hnz.s 			page 44


 1828 0124 1B68     		ldr	r3, [r3]
 1829 0126 BA68     		ldr	r2, [r7, #8]
 1830 0128 5101     		lsls	r1, r2, #5
 1831 012a FA68     		ldr	r2, [r7, #12]
 1832 012c 0A44     		add	r2, r2, r1
 1833 012e 02F53062 		add	r2, r2, #2816
 1834              		.loc 1 626 34
 1835 0132 43F08043 		orr	r3, r3, #1073741824
 1836 0136 1360     		str	r3, [r2]
 1837              	.L88:
 627:Drivers/STM32L4xx_HAL_Driver/Src/stm32l4xx_ll_usb.c ****     }
 628:Drivers/STM32L4xx_HAL_Driver/Src/stm32l4xx_ll_usb.c **** 
 629:Drivers/STM32L4xx_HAL_Driver/Src/stm32l4xx_ll_usb.c ****     USBx_DEVICE->DEACHMSK &= ~(USB_OTG_DAINTMSK_OEPM & ((uint32_t)(1UL << (ep->num & EP_ADDR_MSK)) 
 1838              		.loc 1 629 16
 1839 0138 FB68     		ldr	r3, [r7, #12]
 1840 013a 03F50063 		add	r3, r3, #2048
 1841 013e DA6B     		ldr	r2, [r3, #60]
 1842              		.loc 1 629 78
 1843 0140 3B68     		ldr	r3, [r7]
 1844 0142 1B78     		ldrb	r3, [r3]	@ zero_extendqisi2
 1845              		.loc 1 629 84
 1846 0144 03F00F03 		and	r3, r3, #15
 1847              		.loc 1 629 57
 1848 0148 0121     		movs	r1, #1
 1849 014a 01FA03F3 		lsl	r3, r1, r3
 1850              		.loc 1 629 54
 1851 014e 1B04     		lsls	r3, r3, #16
 1852              		.loc 1 629 30
 1853 0150 DB43     		mvns	r3, r3
 1854              		.loc 1 629 16
 1855 0152 F968     		ldr	r1, [r7, #12]
 1856 0154 01F50061 		add	r1, r1, #2048
 1857              		.loc 1 629 27
 1858 0158 1340     		ands	r3, r3, r2
 1859 015a CB63     		str	r3, [r1, #60]
 630:Drivers/STM32L4xx_HAL_Driver/Src/stm32l4xx_ll_usb.c ****     USBx_DEVICE->DAINTMSK &= ~(USB_OTG_DAINTMSK_OEPM & ((uint32_t)(1UL << (ep->num & EP_ADDR_MSK)) 
 1860              		.loc 1 630 16
 1861 015c FB68     		ldr	r3, [r7, #12]
 1862 015e 03F50063 		add	r3, r3, #2048
 1863 0162 DA69     		ldr	r2, [r3, #28]
 1864              		.loc 1 630 78
 1865 0164 3B68     		ldr	r3, [r7]
 1866 0166 1B78     		ldrb	r3, [r3]	@ zero_extendqisi2
 1867              		.loc 1 630 84
 1868 0168 03F00F03 		and	r3, r3, #15
 1869              		.loc 1 630 57
 1870 016c 0121     		movs	r1, #1
 1871 016e 01FA03F3 		lsl	r3, r1, r3
 1872              		.loc 1 630 54
 1873 0172 1B04     		lsls	r3, r3, #16
 1874              		.loc 1 630 30
 1875 0174 DB43     		mvns	r3, r3
 1876              		.loc 1 630 16
 1877 0176 F968     		ldr	r1, [r7, #12]
 1878 0178 01F50061 		add	r1, r1, #2048
 1879              		.loc 1 630 27
 1880 017c 1340     		ands	r3, r3, r2
ARM GAS  /tmp/cc3N4Hnz.s 			page 45


 1881 017e CB61     		str	r3, [r1, #28]
 631:Drivers/STM32L4xx_HAL_Driver/Src/stm32l4xx_ll_usb.c ****     USBx_OUTEP(epnum)->DOEPCTL &= ~(USB_OTG_DOEPCTL_USBAEP |
 1882              		.loc 1 631 22
 1883 0180 BB68     		ldr	r3, [r7, #8]
 1884 0182 5A01     		lsls	r2, r3, #5
 1885 0184 FB68     		ldr	r3, [r7, #12]
 1886 0186 1344     		add	r3, r3, r2
 1887 0188 03F53063 		add	r3, r3, #2816
 1888 018c 1A68     		ldr	r2, [r3]
 1889 018e BB68     		ldr	r3, [r7, #8]
 1890 0190 5901     		lsls	r1, r3, #5
 1891 0192 FB68     		ldr	r3, [r7, #12]
 1892 0194 0B44     		add	r3, r3, r1
 1893 0196 03F53063 		add	r3, r3, #2816
 1894 019a 1946     		mov	r1, r3
 1895              		.loc 1 631 32
 1896 019c 054B     		ldr	r3, .L90+4
 1897 019e 1340     		ands	r3, r3, r2
 1898 01a0 0B60     		str	r3, [r1]
 1899              	.L87:
 632:Drivers/STM32L4xx_HAL_Driver/Src/stm32l4xx_ll_usb.c ****                                     USB_OTG_DOEPCTL_MPSIZ |
 633:Drivers/STM32L4xx_HAL_Driver/Src/stm32l4xx_ll_usb.c ****                                     USB_OTG_DOEPCTL_SD0PID_SEVNFRM |
 634:Drivers/STM32L4xx_HAL_Driver/Src/stm32l4xx_ll_usb.c ****                                     USB_OTG_DOEPCTL_EPTYP);
 635:Drivers/STM32L4xx_HAL_Driver/Src/stm32l4xx_ll_usb.c ****   }
 636:Drivers/STM32L4xx_HAL_Driver/Src/stm32l4xx_ll_usb.c **** 
 637:Drivers/STM32L4xx_HAL_Driver/Src/stm32l4xx_ll_usb.c ****   return HAL_OK;
 1900              		.loc 1 637 10
 1901 01a2 0023     		movs	r3, #0
 638:Drivers/STM32L4xx_HAL_Driver/Src/stm32l4xx_ll_usb.c **** }
 1902              		.loc 1 638 1
 1903 01a4 1846     		mov	r0, r3
 1904 01a6 1437     		adds	r7, r7, #20
 1905              		.cfi_def_cfa_offset 4
 1906 01a8 BD46     		mov	sp, r7
 1907              		.cfi_def_cfa_register 13
 1908              		@ sp needed
 1909 01aa 5DF8047B 		ldr	r7, [sp], #4
 1910              		.cfi_restore 7
 1911              		.cfi_def_cfa_offset 0
 1912 01ae 7047     		bx	lr
 1913              	.L91:
 1914              		.align	2
 1915              	.L90:
 1916 01b0 007833EC 		.word	-332171264
 1917 01b4 0078F3EF 		.word	-269256704
 1918              		.cfi_endproc
 1919              	.LFE457:
 1921              		.section	.text.USB_DeactivateDedicatedEndpoint,"ax",%progbits
 1922              		.align	1
 1923              		.global	USB_DeactivateDedicatedEndpoint
 1924              		.syntax unified
 1925              		.thumb
 1926              		.thumb_func
 1928              	USB_DeactivateDedicatedEndpoint:
 1929              	.LFB458:
 639:Drivers/STM32L4xx_HAL_Driver/Src/stm32l4xx_ll_usb.c **** 
 640:Drivers/STM32L4xx_HAL_Driver/Src/stm32l4xx_ll_usb.c **** /**
ARM GAS  /tmp/cc3N4Hnz.s 			page 46


 641:Drivers/STM32L4xx_HAL_Driver/Src/stm32l4xx_ll_usb.c ****   * @brief  De-activate and de-initialize a dedicated endpoint
 642:Drivers/STM32L4xx_HAL_Driver/Src/stm32l4xx_ll_usb.c ****   * @param  USBx  Selected device
 643:Drivers/STM32L4xx_HAL_Driver/Src/stm32l4xx_ll_usb.c ****   * @param  ep pointer to endpoint structure
 644:Drivers/STM32L4xx_HAL_Driver/Src/stm32l4xx_ll_usb.c ****   * @retval HAL status
 645:Drivers/STM32L4xx_HAL_Driver/Src/stm32l4xx_ll_usb.c ****   */
 646:Drivers/STM32L4xx_HAL_Driver/Src/stm32l4xx_ll_usb.c **** HAL_StatusTypeDef USB_DeactivateDedicatedEndpoint(const USB_OTG_GlobalTypeDef *USBx, const USB_OTG_
 647:Drivers/STM32L4xx_HAL_Driver/Src/stm32l4xx_ll_usb.c **** {
 1930              		.loc 1 647 1
 1931              		.cfi_startproc
 1932              		@ args = 0, pretend = 0, frame = 16
 1933              		@ frame_needed = 1, uses_anonymous_args = 0
 1934              		@ link register save eliminated.
 1935 0000 80B4     		push	{r7}
 1936              		.cfi_def_cfa_offset 4
 1937              		.cfi_offset 7, -4
 1938 0002 85B0     		sub	sp, sp, #20
 1939              		.cfi_def_cfa_offset 24
 1940 0004 00AF     		add	r7, sp, #0
 1941              		.cfi_def_cfa_register 7
 1942 0006 7860     		str	r0, [r7, #4]
 1943 0008 3960     		str	r1, [r7]
 648:Drivers/STM32L4xx_HAL_Driver/Src/stm32l4xx_ll_usb.c ****   uint32_t USBx_BASE = (uint32_t)USBx;
 1944              		.loc 1 648 12
 1945 000a 7B68     		ldr	r3, [r7, #4]
 1946 000c FB60     		str	r3, [r7, #12]
 649:Drivers/STM32L4xx_HAL_Driver/Src/stm32l4xx_ll_usb.c ****   uint32_t epnum = (uint32_t)ep->num;
 1947              		.loc 1 649 32
 1948 000e 3B68     		ldr	r3, [r7]
 1949 0010 1B78     		ldrb	r3, [r3]	@ zero_extendqisi2
 1950              		.loc 1 649 12
 1951 0012 BB60     		str	r3, [r7, #8]
 650:Drivers/STM32L4xx_HAL_Driver/Src/stm32l4xx_ll_usb.c **** 
 651:Drivers/STM32L4xx_HAL_Driver/Src/stm32l4xx_ll_usb.c ****   /* Read DEPCTLn register */
 652:Drivers/STM32L4xx_HAL_Driver/Src/stm32l4xx_ll_usb.c ****   if (ep->is_in == 1U)
 1952              		.loc 1 652 9
 1953 0014 3B68     		ldr	r3, [r7]
 1954 0016 5B78     		ldrb	r3, [r3, #1]	@ zero_extendqisi2
 1955              		.loc 1 652 6
 1956 0018 012B     		cmp	r3, #1
 1957 001a 4ED1     		bne	.L93
 653:Drivers/STM32L4xx_HAL_Driver/Src/stm32l4xx_ll_usb.c ****   {
 654:Drivers/STM32L4xx_HAL_Driver/Src/stm32l4xx_ll_usb.c ****     if ((USBx_INEP(epnum)->DIEPCTL & USB_OTG_DIEPCTL_EPENA) == USB_OTG_DIEPCTL_EPENA)
 1958              		.loc 1 654 10
 1959 001c BB68     		ldr	r3, [r7, #8]
 1960 001e 5A01     		lsls	r2, r3, #5
 1961 0020 FB68     		ldr	r3, [r7, #12]
 1962 0022 1344     		add	r3, r3, r2
 1963 0024 03F51063 		add	r3, r3, #2304
 1964              		.loc 1 654 26
 1965 0028 1B68     		ldr	r3, [r3]
 1966              		.loc 1 654 36
 1967 002a 03F00043 		and	r3, r3, #-2147483648
 1968              		.loc 1 654 8
 1969 002e B3F1004F 		cmp	r3, #-2147483648
 1970 0032 1FD1     		bne	.L94
 655:Drivers/STM32L4xx_HAL_Driver/Src/stm32l4xx_ll_usb.c ****     {
 656:Drivers/STM32L4xx_HAL_Driver/Src/stm32l4xx_ll_usb.c ****       USBx_INEP(epnum)->DIEPCTL  |= USB_OTG_DIEPCTL_SNAK;
ARM GAS  /tmp/cc3N4Hnz.s 			page 47


 1971              		.loc 1 656 23
 1972 0034 BB68     		ldr	r3, [r7, #8]
 1973 0036 5A01     		lsls	r2, r3, #5
 1974 0038 FB68     		ldr	r3, [r7, #12]
 1975 003a 1344     		add	r3, r3, r2
 1976 003c 03F51063 		add	r3, r3, #2304
 1977 0040 1B68     		ldr	r3, [r3]
 1978 0042 BA68     		ldr	r2, [r7, #8]
 1979 0044 5101     		lsls	r1, r2, #5
 1980 0046 FA68     		ldr	r2, [r7, #12]
 1981 0048 0A44     		add	r2, r2, r1
 1982 004a 02F51062 		add	r2, r2, #2304
 1983              		.loc 1 656 34
 1984 004e 43F00063 		orr	r3, r3, #134217728
 1985 0052 1360     		str	r3, [r2]
 657:Drivers/STM32L4xx_HAL_Driver/Src/stm32l4xx_ll_usb.c ****       USBx_INEP(epnum)->DIEPCTL  |= USB_OTG_DIEPCTL_EPDIS;
 1986              		.loc 1 657 23
 1987 0054 BB68     		ldr	r3, [r7, #8]
 1988 0056 5A01     		lsls	r2, r3, #5
 1989 0058 FB68     		ldr	r3, [r7, #12]
 1990 005a 1344     		add	r3, r3, r2
 1991 005c 03F51063 		add	r3, r3, #2304
 1992 0060 1B68     		ldr	r3, [r3]
 1993 0062 BA68     		ldr	r2, [r7, #8]
 1994 0064 5101     		lsls	r1, r2, #5
 1995 0066 FA68     		ldr	r2, [r7, #12]
 1996 0068 0A44     		add	r2, r2, r1
 1997 006a 02F51062 		add	r2, r2, #2304
 1998              		.loc 1 657 34
 1999 006e 43F08043 		orr	r3, r3, #1073741824
 2000 0072 1360     		str	r3, [r2]
 2001              	.L94:
 658:Drivers/STM32L4xx_HAL_Driver/Src/stm32l4xx_ll_usb.c ****     }
 659:Drivers/STM32L4xx_HAL_Driver/Src/stm32l4xx_ll_usb.c **** 
 660:Drivers/STM32L4xx_HAL_Driver/Src/stm32l4xx_ll_usb.c ****     USBx_INEP(epnum)->DIEPCTL &= ~ USB_OTG_DIEPCTL_USBAEP;
 2002              		.loc 1 660 21
 2003 0074 BB68     		ldr	r3, [r7, #8]
 2004 0076 5A01     		lsls	r2, r3, #5
 2005 0078 FB68     		ldr	r3, [r7, #12]
 2006 007a 1344     		add	r3, r3, r2
 2007 007c 03F51063 		add	r3, r3, #2304
 2008 0080 1B68     		ldr	r3, [r3]
 2009 0082 BA68     		ldr	r2, [r7, #8]
 2010 0084 5101     		lsls	r1, r2, #5
 2011 0086 FA68     		ldr	r2, [r7, #12]
 2012 0088 0A44     		add	r2, r2, r1
 2013 008a 02F51062 		add	r2, r2, #2304
 2014              		.loc 1 660 31
 2015 008e 23F40043 		bic	r3, r3, #32768
 2016 0092 1360     		str	r3, [r2]
 661:Drivers/STM32L4xx_HAL_Driver/Src/stm32l4xx_ll_usb.c ****     USBx_DEVICE->DAINTMSK &= ~(USB_OTG_DAINTMSK_IEPM & (uint32_t)(1UL << (ep->num & EP_ADDR_MSK)));
 2017              		.loc 1 661 16
 2018 0094 FB68     		ldr	r3, [r7, #12]
 2019 0096 03F50063 		add	r3, r3, #2048
 2020 009a DA69     		ldr	r2, [r3, #28]
 2021              		.loc 1 661 77
 2022 009c 3B68     		ldr	r3, [r7]
ARM GAS  /tmp/cc3N4Hnz.s 			page 48


 2023 009e 1B78     		ldrb	r3, [r3]	@ zero_extendqisi2
 2024              		.loc 1 661 83
 2025 00a0 03F00F03 		and	r3, r3, #15
 2026              		.loc 1 661 56
 2027 00a4 0121     		movs	r1, #1
 2028 00a6 01FA03F3 		lsl	r3, r1, r3
 2029              		.loc 1 661 54
 2030 00aa 9BB2     		uxth	r3, r3
 2031              		.loc 1 661 30
 2032 00ac DB43     		mvns	r3, r3
 2033              		.loc 1 661 16
 2034 00ae F968     		ldr	r1, [r7, #12]
 2035 00b0 01F50061 		add	r1, r1, #2048
 2036              		.loc 1 661 27
 2037 00b4 1340     		ands	r3, r3, r2
 2038 00b6 CB61     		str	r3, [r1, #28]
 2039 00b8 4DE0     		b	.L95
 2040              	.L93:
 662:Drivers/STM32L4xx_HAL_Driver/Src/stm32l4xx_ll_usb.c ****   }
 663:Drivers/STM32L4xx_HAL_Driver/Src/stm32l4xx_ll_usb.c ****   else
 664:Drivers/STM32L4xx_HAL_Driver/Src/stm32l4xx_ll_usb.c ****   {
 665:Drivers/STM32L4xx_HAL_Driver/Src/stm32l4xx_ll_usb.c ****     if ((USBx_OUTEP(epnum)->DOEPCTL & USB_OTG_DOEPCTL_EPENA) == USB_OTG_DOEPCTL_EPENA)
 2041              		.loc 1 665 10
 2042 00ba BB68     		ldr	r3, [r7, #8]
 2043 00bc 5A01     		lsls	r2, r3, #5
 2044 00be FB68     		ldr	r3, [r7, #12]
 2045 00c0 1344     		add	r3, r3, r2
 2046 00c2 03F53063 		add	r3, r3, #2816
 2047              		.loc 1 665 27
 2048 00c6 1B68     		ldr	r3, [r3]
 2049              		.loc 1 665 37
 2050 00c8 03F00043 		and	r3, r3, #-2147483648
 2051              		.loc 1 665 8
 2052 00cc B3F1004F 		cmp	r3, #-2147483648
 2053 00d0 1FD1     		bne	.L96
 666:Drivers/STM32L4xx_HAL_Driver/Src/stm32l4xx_ll_usb.c ****     {
 667:Drivers/STM32L4xx_HAL_Driver/Src/stm32l4xx_ll_usb.c ****       USBx_OUTEP(epnum)->DOEPCTL  |= USB_OTG_DOEPCTL_SNAK;
 2054              		.loc 1 667 24
 2055 00d2 BB68     		ldr	r3, [r7, #8]
 2056 00d4 5A01     		lsls	r2, r3, #5
 2057 00d6 FB68     		ldr	r3, [r7, #12]
 2058 00d8 1344     		add	r3, r3, r2
 2059 00da 03F53063 		add	r3, r3, #2816
 2060 00de 1B68     		ldr	r3, [r3]
 2061 00e0 BA68     		ldr	r2, [r7, #8]
 2062 00e2 5101     		lsls	r1, r2, #5
 2063 00e4 FA68     		ldr	r2, [r7, #12]
 2064 00e6 0A44     		add	r2, r2, r1
 2065 00e8 02F53062 		add	r2, r2, #2816
 2066              		.loc 1 667 35
 2067 00ec 43F00063 		orr	r3, r3, #134217728
 2068 00f0 1360     		str	r3, [r2]
 668:Drivers/STM32L4xx_HAL_Driver/Src/stm32l4xx_ll_usb.c ****       USBx_OUTEP(epnum)->DOEPCTL  |= USB_OTG_DOEPCTL_EPDIS;
 2069              		.loc 1 668 24
 2070 00f2 BB68     		ldr	r3, [r7, #8]
 2071 00f4 5A01     		lsls	r2, r3, #5
 2072 00f6 FB68     		ldr	r3, [r7, #12]
ARM GAS  /tmp/cc3N4Hnz.s 			page 49


 2073 00f8 1344     		add	r3, r3, r2
 2074 00fa 03F53063 		add	r3, r3, #2816
 2075 00fe 1B68     		ldr	r3, [r3]
 2076 0100 BA68     		ldr	r2, [r7, #8]
 2077 0102 5101     		lsls	r1, r2, #5
 2078 0104 FA68     		ldr	r2, [r7, #12]
 2079 0106 0A44     		add	r2, r2, r1
 2080 0108 02F53062 		add	r2, r2, #2816
 2081              		.loc 1 668 35
 2082 010c 43F08043 		orr	r3, r3, #1073741824
 2083 0110 1360     		str	r3, [r2]
 2084              	.L96:
 669:Drivers/STM32L4xx_HAL_Driver/Src/stm32l4xx_ll_usb.c ****     }
 670:Drivers/STM32L4xx_HAL_Driver/Src/stm32l4xx_ll_usb.c **** 
 671:Drivers/STM32L4xx_HAL_Driver/Src/stm32l4xx_ll_usb.c ****     USBx_OUTEP(epnum)->DOEPCTL &= ~USB_OTG_DOEPCTL_USBAEP;
 2085              		.loc 1 671 22
 2086 0112 BB68     		ldr	r3, [r7, #8]
 2087 0114 5A01     		lsls	r2, r3, #5
 2088 0116 FB68     		ldr	r3, [r7, #12]
 2089 0118 1344     		add	r3, r3, r2
 2090 011a 03F53063 		add	r3, r3, #2816
 2091 011e 1B68     		ldr	r3, [r3]
 2092 0120 BA68     		ldr	r2, [r7, #8]
 2093 0122 5101     		lsls	r1, r2, #5
 2094 0124 FA68     		ldr	r2, [r7, #12]
 2095 0126 0A44     		add	r2, r2, r1
 2096 0128 02F53062 		add	r2, r2, #2816
 2097              		.loc 1 671 32
 2098 012c 23F40043 		bic	r3, r3, #32768
 2099 0130 1360     		str	r3, [r2]
 672:Drivers/STM32L4xx_HAL_Driver/Src/stm32l4xx_ll_usb.c ****     USBx_DEVICE->DAINTMSK &= ~(USB_OTG_DAINTMSK_OEPM & ((uint32_t)(1UL << (ep->num & EP_ADDR_MSK)) 
 2100              		.loc 1 672 16
 2101 0132 FB68     		ldr	r3, [r7, #12]
 2102 0134 03F50063 		add	r3, r3, #2048
 2103 0138 DA69     		ldr	r2, [r3, #28]
 2104              		.loc 1 672 78
 2105 013a 3B68     		ldr	r3, [r7]
 2106 013c 1B78     		ldrb	r3, [r3]	@ zero_extendqisi2
 2107              		.loc 1 672 84
 2108 013e 03F00F03 		and	r3, r3, #15
 2109              		.loc 1 672 57
 2110 0142 0121     		movs	r1, #1
 2111 0144 01FA03F3 		lsl	r3, r1, r3
 2112              		.loc 1 672 54
 2113 0148 1B04     		lsls	r3, r3, #16
 2114              		.loc 1 672 30
 2115 014a DB43     		mvns	r3, r3
 2116              		.loc 1 672 16
 2117 014c F968     		ldr	r1, [r7, #12]
 2118 014e 01F50061 		add	r1, r1, #2048
 2119              		.loc 1 672 27
 2120 0152 1340     		ands	r3, r3, r2
 2121 0154 CB61     		str	r3, [r1, #28]
 2122              	.L95:
 673:Drivers/STM32L4xx_HAL_Driver/Src/stm32l4xx_ll_usb.c ****   }
 674:Drivers/STM32L4xx_HAL_Driver/Src/stm32l4xx_ll_usb.c **** 
 675:Drivers/STM32L4xx_HAL_Driver/Src/stm32l4xx_ll_usb.c ****   return HAL_OK;
ARM GAS  /tmp/cc3N4Hnz.s 			page 50


 2123              		.loc 1 675 10
 2124 0156 0023     		movs	r3, #0
 676:Drivers/STM32L4xx_HAL_Driver/Src/stm32l4xx_ll_usb.c **** }
 2125              		.loc 1 676 1
 2126 0158 1846     		mov	r0, r3
 2127 015a 1437     		adds	r7, r7, #20
 2128              		.cfi_def_cfa_offset 4
 2129 015c BD46     		mov	sp, r7
 2130              		.cfi_def_cfa_register 13
 2131              		@ sp needed
 2132 015e 5DF8047B 		ldr	r7, [sp], #4
 2133              		.cfi_restore 7
 2134              		.cfi_def_cfa_offset 0
 2135 0162 7047     		bx	lr
 2136              		.cfi_endproc
 2137              	.LFE458:
 2139              		.section	.text.USB_EPStartXfer,"ax",%progbits
 2140              		.align	1
 2141              		.global	USB_EPStartXfer
 2142              		.syntax unified
 2143              		.thumb
 2144              		.thumb_func
 2146              	USB_EPStartXfer:
 2147              	.LFB459:
 677:Drivers/STM32L4xx_HAL_Driver/Src/stm32l4xx_ll_usb.c **** 
 678:Drivers/STM32L4xx_HAL_Driver/Src/stm32l4xx_ll_usb.c **** /**
 679:Drivers/STM32L4xx_HAL_Driver/Src/stm32l4xx_ll_usb.c ****   * @brief  USB_EPStartXfer : setup and starts a transfer over an EP
 680:Drivers/STM32L4xx_HAL_Driver/Src/stm32l4xx_ll_usb.c ****   * @param  USBx  Selected device
 681:Drivers/STM32L4xx_HAL_Driver/Src/stm32l4xx_ll_usb.c ****   * @param  ep pointer to endpoint structure
 682:Drivers/STM32L4xx_HAL_Driver/Src/stm32l4xx_ll_usb.c ****   * @retval HAL status
 683:Drivers/STM32L4xx_HAL_Driver/Src/stm32l4xx_ll_usb.c ****   */
 684:Drivers/STM32L4xx_HAL_Driver/Src/stm32l4xx_ll_usb.c **** HAL_StatusTypeDef USB_EPStartXfer(USB_OTG_GlobalTypeDef *USBx, USB_OTG_EPTypeDef *ep)
 685:Drivers/STM32L4xx_HAL_Driver/Src/stm32l4xx_ll_usb.c **** {
 2148              		.loc 1 685 1
 2149              		.cfi_startproc
 2150              		@ args = 0, pretend = 0, frame = 24
 2151              		@ frame_needed = 1, uses_anonymous_args = 0
 2152 0000 80B5     		push	{r7, lr}
 2153              		.cfi_def_cfa_offset 8
 2154              		.cfi_offset 7, -8
 2155              		.cfi_offset 14, -4
 2156 0002 86B0     		sub	sp, sp, #24
 2157              		.cfi_def_cfa_offset 32
 2158 0004 00AF     		add	r7, sp, #0
 2159              		.cfi_def_cfa_register 7
 2160 0006 7860     		str	r0, [r7, #4]
 2161 0008 3960     		str	r1, [r7]
 686:Drivers/STM32L4xx_HAL_Driver/Src/stm32l4xx_ll_usb.c ****   uint32_t USBx_BASE = (uint32_t)USBx;
 2162              		.loc 1 686 12
 2163 000a 7B68     		ldr	r3, [r7, #4]
 2164 000c 7B61     		str	r3, [r7, #20]
 687:Drivers/STM32L4xx_HAL_Driver/Src/stm32l4xx_ll_usb.c ****   uint32_t epnum = (uint32_t)ep->num;
 2165              		.loc 1 687 32
 2166 000e 3B68     		ldr	r3, [r7]
 2167 0010 1B78     		ldrb	r3, [r3]	@ zero_extendqisi2
 2168              		.loc 1 687 12
 2169 0012 3B61     		str	r3, [r7, #16]
ARM GAS  /tmp/cc3N4Hnz.s 			page 51


 688:Drivers/STM32L4xx_HAL_Driver/Src/stm32l4xx_ll_usb.c ****   uint16_t pktcnt;
 689:Drivers/STM32L4xx_HAL_Driver/Src/stm32l4xx_ll_usb.c **** 
 690:Drivers/STM32L4xx_HAL_Driver/Src/stm32l4xx_ll_usb.c ****   /* IN endpoint */
 691:Drivers/STM32L4xx_HAL_Driver/Src/stm32l4xx_ll_usb.c ****   if (ep->is_in == 1U)
 2170              		.loc 1 691 9
 2171 0014 3B68     		ldr	r3, [r7]
 2172 0016 5B78     		ldrb	r3, [r3, #1]	@ zero_extendqisi2
 2173              		.loc 1 691 6
 2174 0018 012B     		cmp	r3, #1
 2175 001a 40F02D81 		bne	.L99
 692:Drivers/STM32L4xx_HAL_Driver/Src/stm32l4xx_ll_usb.c ****   {
 693:Drivers/STM32L4xx_HAL_Driver/Src/stm32l4xx_ll_usb.c ****     /* Zero Length Packet? */
 694:Drivers/STM32L4xx_HAL_Driver/Src/stm32l4xx_ll_usb.c ****     if (ep->xfer_len == 0U)
 2176              		.loc 1 694 11
 2177 001e 3B68     		ldr	r3, [r7]
 2178 0020 1B69     		ldr	r3, [r3, #16]
 2179              		.loc 1 694 8
 2180 0022 002B     		cmp	r3, #0
 2181 0024 32D1     		bne	.L100
 695:Drivers/STM32L4xx_HAL_Driver/Src/stm32l4xx_ll_usb.c ****     {
 696:Drivers/STM32L4xx_HAL_Driver/Src/stm32l4xx_ll_usb.c ****       USBx_INEP(epnum)->DIEPTSIZ &= ~(USB_OTG_DIEPTSIZ_PKTCNT);
 2182              		.loc 1 696 23
 2183 0026 3B69     		ldr	r3, [r7, #16]
 2184 0028 5A01     		lsls	r2, r3, #5
 2185 002a 7B69     		ldr	r3, [r7, #20]
 2186 002c 1344     		add	r3, r3, r2
 2187 002e 03F51063 		add	r3, r3, #2304
 2188 0032 1B69     		ldr	r3, [r3, #16]
 2189 0034 3A69     		ldr	r2, [r7, #16]
 2190 0036 5101     		lsls	r1, r2, #5
 2191 0038 7A69     		ldr	r2, [r7, #20]
 2192 003a 0A44     		add	r2, r2, r1
 2193 003c 02F51062 		add	r2, r2, #2304
 2194              		.loc 1 696 34
 2195 0040 23F0FF53 		bic	r3, r3, #534773760
 2196 0044 23F4C013 		bic	r3, r3, #1572864
 2197 0048 1361     		str	r3, [r2, #16]
 697:Drivers/STM32L4xx_HAL_Driver/Src/stm32l4xx_ll_usb.c ****       USBx_INEP(epnum)->DIEPTSIZ |= (USB_OTG_DIEPTSIZ_PKTCNT & (1UL << 19));
 2198              		.loc 1 697 23
 2199 004a 3B69     		ldr	r3, [r7, #16]
 2200 004c 5A01     		lsls	r2, r3, #5
 2201 004e 7B69     		ldr	r3, [r7, #20]
 2202 0050 1344     		add	r3, r3, r2
 2203 0052 03F51063 		add	r3, r3, #2304
 2204 0056 1B69     		ldr	r3, [r3, #16]
 2205 0058 3A69     		ldr	r2, [r7, #16]
 2206 005a 5101     		lsls	r1, r2, #5
 2207 005c 7A69     		ldr	r2, [r7, #20]
 2208 005e 0A44     		add	r2, r2, r1
 2209 0060 02F51062 		add	r2, r2, #2304
 2210              		.loc 1 697 34
 2211 0064 43F40023 		orr	r3, r3, #524288
 2212 0068 1361     		str	r3, [r2, #16]
 698:Drivers/STM32L4xx_HAL_Driver/Src/stm32l4xx_ll_usb.c ****       USBx_INEP(epnum)->DIEPTSIZ &= ~(USB_OTG_DIEPTSIZ_XFRSIZ);
 2213              		.loc 1 698 23
 2214 006a 3B69     		ldr	r3, [r7, #16]
 2215 006c 5A01     		lsls	r2, r3, #5
ARM GAS  /tmp/cc3N4Hnz.s 			page 52


 2216 006e 7B69     		ldr	r3, [r7, #20]
 2217 0070 1344     		add	r3, r3, r2
 2218 0072 03F51063 		add	r3, r3, #2304
 2219 0076 1B69     		ldr	r3, [r3, #16]
 2220 0078 3A69     		ldr	r2, [r7, #16]
 2221 007a 5101     		lsls	r1, r2, #5
 2222 007c 7A69     		ldr	r2, [r7, #20]
 2223 007e 0A44     		add	r2, r2, r1
 2224 0080 02F51062 		add	r2, r2, #2304
 2225              		.loc 1 698 34
 2226 0084 DB0C     		lsrs	r3, r3, #19
 2227 0086 DB04     		lsls	r3, r3, #19
 2228 0088 1361     		str	r3, [r2, #16]
 2229 008a 97E0     		b	.L101
 2230              	.L100:
 699:Drivers/STM32L4xx_HAL_Driver/Src/stm32l4xx_ll_usb.c ****     }
 700:Drivers/STM32L4xx_HAL_Driver/Src/stm32l4xx_ll_usb.c ****     else
 701:Drivers/STM32L4xx_HAL_Driver/Src/stm32l4xx_ll_usb.c ****     {
 702:Drivers/STM32L4xx_HAL_Driver/Src/stm32l4xx_ll_usb.c ****       /* Program the transfer size and packet count
 703:Drivers/STM32L4xx_HAL_Driver/Src/stm32l4xx_ll_usb.c ****       * as follows: xfersize = N * maxpacket +
 704:Drivers/STM32L4xx_HAL_Driver/Src/stm32l4xx_ll_usb.c ****       * short_packet pktcnt = N + (short_packet
 705:Drivers/STM32L4xx_HAL_Driver/Src/stm32l4xx_ll_usb.c ****       * exist ? 1 : 0)
 706:Drivers/STM32L4xx_HAL_Driver/Src/stm32l4xx_ll_usb.c ****       */
 707:Drivers/STM32L4xx_HAL_Driver/Src/stm32l4xx_ll_usb.c ****       USBx_INEP(epnum)->DIEPTSIZ &= ~(USB_OTG_DIEPTSIZ_XFRSIZ);
 2231              		.loc 1 707 23
 2232 008c 3B69     		ldr	r3, [r7, #16]
 2233 008e 5A01     		lsls	r2, r3, #5
 2234 0090 7B69     		ldr	r3, [r7, #20]
 2235 0092 1344     		add	r3, r3, r2
 2236 0094 03F51063 		add	r3, r3, #2304
 2237 0098 1B69     		ldr	r3, [r3, #16]
 2238 009a 3A69     		ldr	r2, [r7, #16]
 2239 009c 5101     		lsls	r1, r2, #5
 2240 009e 7A69     		ldr	r2, [r7, #20]
 2241 00a0 0A44     		add	r2, r2, r1
 2242 00a2 02F51062 		add	r2, r2, #2304
 2243              		.loc 1 707 34
 2244 00a6 DB0C     		lsrs	r3, r3, #19
 2245 00a8 DB04     		lsls	r3, r3, #19
 2246 00aa 1361     		str	r3, [r2, #16]
 708:Drivers/STM32L4xx_HAL_Driver/Src/stm32l4xx_ll_usb.c ****       USBx_INEP(epnum)->DIEPTSIZ &= ~(USB_OTG_DIEPTSIZ_PKTCNT);
 2247              		.loc 1 708 23
 2248 00ac 3B69     		ldr	r3, [r7, #16]
 2249 00ae 5A01     		lsls	r2, r3, #5
 2250 00b0 7B69     		ldr	r3, [r7, #20]
 2251 00b2 1344     		add	r3, r3, r2
 2252 00b4 03F51063 		add	r3, r3, #2304
 2253 00b8 1B69     		ldr	r3, [r3, #16]
 2254 00ba 3A69     		ldr	r2, [r7, #16]
 2255 00bc 5101     		lsls	r1, r2, #5
 2256 00be 7A69     		ldr	r2, [r7, #20]
 2257 00c0 0A44     		add	r2, r2, r1
 2258 00c2 02F51062 		add	r2, r2, #2304
 2259              		.loc 1 708 34
 2260 00c6 23F0FF53 		bic	r3, r3, #534773760
 2261 00ca 23F4C013 		bic	r3, r3, #1572864
 2262 00ce 1361     		str	r3, [r2, #16]
ARM GAS  /tmp/cc3N4Hnz.s 			page 53


 709:Drivers/STM32L4xx_HAL_Driver/Src/stm32l4xx_ll_usb.c **** 
 710:Drivers/STM32L4xx_HAL_Driver/Src/stm32l4xx_ll_usb.c ****       if (epnum == 0U)
 2263              		.loc 1 710 10
 2264 00d0 3B69     		ldr	r3, [r7, #16]
 2265 00d2 002B     		cmp	r3, #0
 2266 00d4 1AD1     		bne	.L102
 711:Drivers/STM32L4xx_HAL_Driver/Src/stm32l4xx_ll_usb.c ****       {
 712:Drivers/STM32L4xx_HAL_Driver/Src/stm32l4xx_ll_usb.c ****         if (ep->xfer_len > ep->maxpacket)
 2267              		.loc 1 712 15
 2268 00d6 3B68     		ldr	r3, [r7]
 2269 00d8 1A69     		ldr	r2, [r3, #16]
 2270              		.loc 1 712 30
 2271 00da 3B68     		ldr	r3, [r7]
 2272 00dc 9B68     		ldr	r3, [r3, #8]
 2273              		.loc 1 712 12
 2274 00de 9A42     		cmp	r2, r3
 2275 00e0 03D9     		bls	.L103
 713:Drivers/STM32L4xx_HAL_Driver/Src/stm32l4xx_ll_usb.c ****         {
 714:Drivers/STM32L4xx_HAL_Driver/Src/stm32l4xx_ll_usb.c ****           ep->xfer_len = ep->maxpacket;
 2276              		.loc 1 714 28
 2277 00e2 3B68     		ldr	r3, [r7]
 2278 00e4 9A68     		ldr	r2, [r3, #8]
 2279              		.loc 1 714 24
 2280 00e6 3B68     		ldr	r3, [r7]
 2281 00e8 1A61     		str	r2, [r3, #16]
 2282              	.L103:
 715:Drivers/STM32L4xx_HAL_Driver/Src/stm32l4xx_ll_usb.c ****         }
 716:Drivers/STM32L4xx_HAL_Driver/Src/stm32l4xx_ll_usb.c **** 
 717:Drivers/STM32L4xx_HAL_Driver/Src/stm32l4xx_ll_usb.c ****         USBx_INEP(epnum)->DIEPTSIZ |= (USB_OTG_DIEPTSIZ_PKTCNT & (1UL << 19));
 2283              		.loc 1 717 25
 2284 00ea 3B69     		ldr	r3, [r7, #16]
 2285 00ec 5A01     		lsls	r2, r3, #5
 2286 00ee 7B69     		ldr	r3, [r7, #20]
 2287 00f0 1344     		add	r3, r3, r2
 2288 00f2 03F51063 		add	r3, r3, #2304
 2289 00f6 1B69     		ldr	r3, [r3, #16]
 2290 00f8 3A69     		ldr	r2, [r7, #16]
 2291 00fa 5101     		lsls	r1, r2, #5
 2292 00fc 7A69     		ldr	r2, [r7, #20]
 2293 00fe 0A44     		add	r2, r2, r1
 2294 0100 02F51062 		add	r2, r2, #2304
 2295              		.loc 1 717 36
 2296 0104 43F40023 		orr	r3, r3, #524288
 2297 0108 1361     		str	r3, [r2, #16]
 2298 010a 44E0     		b	.L104
 2299              	.L102:
 718:Drivers/STM32L4xx_HAL_Driver/Src/stm32l4xx_ll_usb.c ****       }
 719:Drivers/STM32L4xx_HAL_Driver/Src/stm32l4xx_ll_usb.c ****       else
 720:Drivers/STM32L4xx_HAL_Driver/Src/stm32l4xx_ll_usb.c ****       {
 721:Drivers/STM32L4xx_HAL_Driver/Src/stm32l4xx_ll_usb.c ****         pktcnt = (uint16_t)((ep->xfer_len + ep->maxpacket - 1U) / ep->maxpacket);
 2300              		.loc 1 721 32
 2301 010c 3B68     		ldr	r3, [r7]
 2302 010e 1A69     		ldr	r2, [r3, #16]
 2303              		.loc 1 721 47
 2304 0110 3B68     		ldr	r3, [r7]
 2305 0112 9B68     		ldr	r3, [r3, #8]
 2306              		.loc 1 721 43
ARM GAS  /tmp/cc3N4Hnz.s 			page 54


 2307 0114 1344     		add	r3, r3, r2
 2308              		.loc 1 721 59
 2309 0116 5A1E     		subs	r2, r3, #1
 2310              		.loc 1 721 69
 2311 0118 3B68     		ldr	r3, [r7]
 2312 011a 9B68     		ldr	r3, [r3, #8]
 2313              		.loc 1 721 65
 2314 011c B2FBF3F3 		udiv	r3, r2, r3
 2315              		.loc 1 721 16
 2316 0120 FB81     		strh	r3, [r7, #14]	@ movhi
 722:Drivers/STM32L4xx_HAL_Driver/Src/stm32l4xx_ll_usb.c ****         USBx_INEP(epnum)->DIEPTSIZ |= (USB_OTG_DIEPTSIZ_PKTCNT & ((uint32_t)pktcnt << 19));
 2317              		.loc 1 722 25
 2318 0122 3B69     		ldr	r3, [r7, #16]
 2319 0124 5A01     		lsls	r2, r3, #5
 2320 0126 7B69     		ldr	r3, [r7, #20]
 2321 0128 1344     		add	r3, r3, r2
 2322 012a 03F51063 		add	r3, r3, #2304
 2323 012e 1A69     		ldr	r2, [r3, #16]
 2324              		.loc 1 722 67
 2325 0130 FB89     		ldrh	r3, [r7, #14]
 2326              		.loc 1 722 84
 2327 0132 D904     		lsls	r1, r3, #19
 2328              		.loc 1 722 64
 2329 0134 8F4B     		ldr	r3, .L116
 2330 0136 0B40     		ands	r3, r3, r1
 2331              		.loc 1 722 25
 2332 0138 3969     		ldr	r1, [r7, #16]
 2333 013a 4801     		lsls	r0, r1, #5
 2334 013c 7969     		ldr	r1, [r7, #20]
 2335 013e 0144     		add	r1, r1, r0
 2336 0140 01F51061 		add	r1, r1, #2304
 2337              		.loc 1 722 36
 2338 0144 1343     		orrs	r3, r3, r2
 2339 0146 0B61     		str	r3, [r1, #16]
 723:Drivers/STM32L4xx_HAL_Driver/Src/stm32l4xx_ll_usb.c **** 
 724:Drivers/STM32L4xx_HAL_Driver/Src/stm32l4xx_ll_usb.c ****         if (ep->type == EP_TYPE_ISOC)
 2340              		.loc 1 724 15
 2341 0148 3B68     		ldr	r3, [r7]
 2342 014a 1B79     		ldrb	r3, [r3, #4]	@ zero_extendqisi2
 2343              		.loc 1 724 12
 2344 014c 012B     		cmp	r3, #1
 2345 014e 22D1     		bne	.L104
 725:Drivers/STM32L4xx_HAL_Driver/Src/stm32l4xx_ll_usb.c ****         {
 726:Drivers/STM32L4xx_HAL_Driver/Src/stm32l4xx_ll_usb.c ****           USBx_INEP(epnum)->DIEPTSIZ &= ~(USB_OTG_DIEPTSIZ_MULCNT);
 2346              		.loc 1 726 27
 2347 0150 3B69     		ldr	r3, [r7, #16]
 2348 0152 5A01     		lsls	r2, r3, #5
 2349 0154 7B69     		ldr	r3, [r7, #20]
 2350 0156 1344     		add	r3, r3, r2
 2351 0158 03F51063 		add	r3, r3, #2304
 2352 015c 1B69     		ldr	r3, [r3, #16]
 2353 015e 3A69     		ldr	r2, [r7, #16]
 2354 0160 5101     		lsls	r1, r2, #5
 2355 0162 7A69     		ldr	r2, [r7, #20]
 2356 0164 0A44     		add	r2, r2, r1
 2357 0166 02F51062 		add	r2, r2, #2304
 2358              		.loc 1 726 38
ARM GAS  /tmp/cc3N4Hnz.s 			page 55


 2359 016a 23F0C043 		bic	r3, r3, #1610612736
 2360 016e 1361     		str	r3, [r2, #16]
 727:Drivers/STM32L4xx_HAL_Driver/Src/stm32l4xx_ll_usb.c ****           USBx_INEP(epnum)->DIEPTSIZ |= (USB_OTG_DIEPTSIZ_MULCNT & ((uint32_t)pktcnt << 29));
 2361              		.loc 1 727 27
 2362 0170 3B69     		ldr	r3, [r7, #16]
 2363 0172 5A01     		lsls	r2, r3, #5
 2364 0174 7B69     		ldr	r3, [r7, #20]
 2365 0176 1344     		add	r3, r3, r2
 2366 0178 03F51063 		add	r3, r3, #2304
 2367 017c 1A69     		ldr	r2, [r3, #16]
 2368              		.loc 1 727 69
 2369 017e FB89     		ldrh	r3, [r7, #14]
 2370              		.loc 1 727 86
 2371 0180 5B07     		lsls	r3, r3, #29
 2372              		.loc 1 727 66
 2373 0182 03F0C043 		and	r3, r3, #1610612736
 2374              		.loc 1 727 27
 2375 0186 3969     		ldr	r1, [r7, #16]
 2376 0188 4801     		lsls	r0, r1, #5
 2377 018a 7969     		ldr	r1, [r7, #20]
 2378 018c 0144     		add	r1, r1, r0
 2379 018e 01F51061 		add	r1, r1, #2304
 2380              		.loc 1 727 38
 2381 0192 1343     		orrs	r3, r3, r2
 2382 0194 0B61     		str	r3, [r1, #16]
 2383              	.L104:
 728:Drivers/STM32L4xx_HAL_Driver/Src/stm32l4xx_ll_usb.c ****         }
 729:Drivers/STM32L4xx_HAL_Driver/Src/stm32l4xx_ll_usb.c ****       }
 730:Drivers/STM32L4xx_HAL_Driver/Src/stm32l4xx_ll_usb.c **** 
 731:Drivers/STM32L4xx_HAL_Driver/Src/stm32l4xx_ll_usb.c ****       USBx_INEP(epnum)->DIEPTSIZ |= (USB_OTG_DIEPTSIZ_XFRSIZ & ep->xfer_len);
 2384              		.loc 1 731 23
 2385 0196 3B69     		ldr	r3, [r7, #16]
 2386 0198 5A01     		lsls	r2, r3, #5
 2387 019a 7B69     		ldr	r3, [r7, #20]
 2388 019c 1344     		add	r3, r3, r2
 2389 019e 03F51063 		add	r3, r3, #2304
 2390 01a2 1A69     		ldr	r2, [r3, #16]
 2391              		.loc 1 731 66
 2392 01a4 3B68     		ldr	r3, [r7]
 2393 01a6 1B69     		ldr	r3, [r3, #16]
 2394              		.loc 1 731 62
 2395 01a8 C3F31203 		ubfx	r3, r3, #0, #19
 2396              		.loc 1 731 23
 2397 01ac 3969     		ldr	r1, [r7, #16]
 2398 01ae 4801     		lsls	r0, r1, #5
 2399 01b0 7969     		ldr	r1, [r7, #20]
 2400 01b2 0144     		add	r1, r1, r0
 2401 01b4 01F51061 		add	r1, r1, #2304
 2402              		.loc 1 731 34
 2403 01b8 1343     		orrs	r3, r3, r2
 2404 01ba 0B61     		str	r3, [r1, #16]
 2405              	.L101:
 732:Drivers/STM32L4xx_HAL_Driver/Src/stm32l4xx_ll_usb.c ****     }
 733:Drivers/STM32L4xx_HAL_Driver/Src/stm32l4xx_ll_usb.c ****     /* EP enable, IN data in FIFO */
 734:Drivers/STM32L4xx_HAL_Driver/Src/stm32l4xx_ll_usb.c ****     USBx_INEP(epnum)->DIEPCTL |= (USB_OTG_DIEPCTL_CNAK | USB_OTG_DIEPCTL_EPENA);
 2406              		.loc 1 734 21
 2407 01bc 3B69     		ldr	r3, [r7, #16]
ARM GAS  /tmp/cc3N4Hnz.s 			page 56


 2408 01be 5A01     		lsls	r2, r3, #5
 2409 01c0 7B69     		ldr	r3, [r7, #20]
 2410 01c2 1344     		add	r3, r3, r2
 2411 01c4 03F51063 		add	r3, r3, #2304
 2412 01c8 1B68     		ldr	r3, [r3]
 2413 01ca 3A69     		ldr	r2, [r7, #16]
 2414 01cc 5101     		lsls	r1, r2, #5
 2415 01ce 7A69     		ldr	r2, [r7, #20]
 2416 01d0 0A44     		add	r2, r2, r1
 2417 01d2 02F51062 		add	r2, r2, #2304
 2418              		.loc 1 734 31
 2419 01d6 43F00443 		orr	r3, r3, #-2080374784
 2420 01da 1360     		str	r3, [r2]
 735:Drivers/STM32L4xx_HAL_Driver/Src/stm32l4xx_ll_usb.c **** 
 736:Drivers/STM32L4xx_HAL_Driver/Src/stm32l4xx_ll_usb.c ****     if (ep->type != EP_TYPE_ISOC)
 2421              		.loc 1 736 11
 2422 01dc 3B68     		ldr	r3, [r7]
 2423 01de 1B79     		ldrb	r3, [r3, #4]	@ zero_extendqisi2
 2424              		.loc 1 736 8
 2425 01e0 012B     		cmp	r3, #1
 2426 01e2 15D0     		beq	.L105
 737:Drivers/STM32L4xx_HAL_Driver/Src/stm32l4xx_ll_usb.c ****     {
 738:Drivers/STM32L4xx_HAL_Driver/Src/stm32l4xx_ll_usb.c ****       /* Enable the Tx FIFO Empty Interrupt for this EP */
 739:Drivers/STM32L4xx_HAL_Driver/Src/stm32l4xx_ll_usb.c ****       if (ep->xfer_len > 0U)
 2427              		.loc 1 739 13
 2428 01e4 3B68     		ldr	r3, [r7]
 2429 01e6 1B69     		ldr	r3, [r3, #16]
 2430              		.loc 1 739 10
 2431 01e8 002B     		cmp	r3, #0
 2432 01ea 00F03A81 		beq	.L106
 740:Drivers/STM32L4xx_HAL_Driver/Src/stm32l4xx_ll_usb.c ****       {
 741:Drivers/STM32L4xx_HAL_Driver/Src/stm32l4xx_ll_usb.c ****         USBx_DEVICE->DIEPEMPMSK |= 1UL << (ep->num & EP_ADDR_MSK);
 2433              		.loc 1 741 20
 2434 01ee 7B69     		ldr	r3, [r7, #20]
 2435 01f0 03F50063 		add	r3, r3, #2048
 2436 01f4 5A6B     		ldr	r2, [r3, #52]
 2437              		.loc 1 741 46
 2438 01f6 3B68     		ldr	r3, [r7]
 2439 01f8 1B78     		ldrb	r3, [r3]	@ zero_extendqisi2
 2440              		.loc 1 741 52
 2441 01fa 03F00F03 		and	r3, r3, #15
 2442              		.loc 1 741 40
 2443 01fe 0121     		movs	r1, #1
 2444 0200 01FA03F3 		lsl	r3, r1, r3
 2445              		.loc 1 741 20
 2446 0204 7969     		ldr	r1, [r7, #20]
 2447 0206 01F50061 		add	r1, r1, #2048
 2448              		.loc 1 741 33
 2449 020a 1343     		orrs	r3, r3, r2
 2450 020c 4B63     		str	r3, [r1, #52]
 2451 020e 28E1     		b	.L106
 2452              	.L105:
 742:Drivers/STM32L4xx_HAL_Driver/Src/stm32l4xx_ll_usb.c ****       }
 743:Drivers/STM32L4xx_HAL_Driver/Src/stm32l4xx_ll_usb.c ****     }
 744:Drivers/STM32L4xx_HAL_Driver/Src/stm32l4xx_ll_usb.c ****     else
 745:Drivers/STM32L4xx_HAL_Driver/Src/stm32l4xx_ll_usb.c ****     {
 746:Drivers/STM32L4xx_HAL_Driver/Src/stm32l4xx_ll_usb.c ****       if ((USBx_DEVICE->DSTS & (1UL << 8)) == 0U)
ARM GAS  /tmp/cc3N4Hnz.s 			page 57


 2453              		.loc 1 746 12
 2454 0210 7B69     		ldr	r3, [r7, #20]
 2455 0212 03F50063 		add	r3, r3, #2048
 2456              		.loc 1 746 23
 2457 0216 9B68     		ldr	r3, [r3, #8]
 2458              		.loc 1 746 30
 2459 0218 03F48073 		and	r3, r3, #256
 2460              		.loc 1 746 10
 2461 021c 002B     		cmp	r3, #0
 2462 021e 10D1     		bne	.L107
 747:Drivers/STM32L4xx_HAL_Driver/Src/stm32l4xx_ll_usb.c ****       {
 748:Drivers/STM32L4xx_HAL_Driver/Src/stm32l4xx_ll_usb.c ****         USBx_INEP(epnum)->DIEPCTL |= USB_OTG_DIEPCTL_SODDFRM;
 2463              		.loc 1 748 25
 2464 0220 3B69     		ldr	r3, [r7, #16]
 2465 0222 5A01     		lsls	r2, r3, #5
 2466 0224 7B69     		ldr	r3, [r7, #20]
 2467 0226 1344     		add	r3, r3, r2
 2468 0228 03F51063 		add	r3, r3, #2304
 2469 022c 1B68     		ldr	r3, [r3]
 2470 022e 3A69     		ldr	r2, [r7, #16]
 2471 0230 5101     		lsls	r1, r2, #5
 2472 0232 7A69     		ldr	r2, [r7, #20]
 2473 0234 0A44     		add	r2, r2, r1
 2474 0236 02F51062 		add	r2, r2, #2304
 2475              		.loc 1 748 35
 2476 023a 43F00053 		orr	r3, r3, #536870912
 2477 023e 1360     		str	r3, [r2]
 2478 0240 0FE0     		b	.L108
 2479              	.L107:
 749:Drivers/STM32L4xx_HAL_Driver/Src/stm32l4xx_ll_usb.c ****       }
 750:Drivers/STM32L4xx_HAL_Driver/Src/stm32l4xx_ll_usb.c ****       else
 751:Drivers/STM32L4xx_HAL_Driver/Src/stm32l4xx_ll_usb.c ****       {
 752:Drivers/STM32L4xx_HAL_Driver/Src/stm32l4xx_ll_usb.c ****         USBx_INEP(epnum)->DIEPCTL |= USB_OTG_DIEPCTL_SD0PID_SEVNFRM;
 2480              		.loc 1 752 25
 2481 0242 3B69     		ldr	r3, [r7, #16]
 2482 0244 5A01     		lsls	r2, r3, #5
 2483 0246 7B69     		ldr	r3, [r7, #20]
 2484 0248 1344     		add	r3, r3, r2
 2485 024a 03F51063 		add	r3, r3, #2304
 2486 024e 1B68     		ldr	r3, [r3]
 2487 0250 3A69     		ldr	r2, [r7, #16]
 2488 0252 5101     		lsls	r1, r2, #5
 2489 0254 7A69     		ldr	r2, [r7, #20]
 2490 0256 0A44     		add	r2, r2, r1
 2491 0258 02F51062 		add	r2, r2, #2304
 2492              		.loc 1 752 35
 2493 025c 43F08053 		orr	r3, r3, #268435456
 2494 0260 1360     		str	r3, [r2]
 2495              	.L108:
 753:Drivers/STM32L4xx_HAL_Driver/Src/stm32l4xx_ll_usb.c ****       }
 754:Drivers/STM32L4xx_HAL_Driver/Src/stm32l4xx_ll_usb.c **** 
 755:Drivers/STM32L4xx_HAL_Driver/Src/stm32l4xx_ll_usb.c ****       (void)USB_WritePacket(USBx, ep->xfer_buff, ep->num, (uint16_t)ep->xfer_len);
 2496              		.loc 1 755 13
 2497 0262 3B68     		ldr	r3, [r7]
 2498 0264 D968     		ldr	r1, [r3, #12]
 2499 0266 3B68     		ldr	r3, [r7]
 2500 0268 1A78     		ldrb	r2, [r3]	@ zero_extendqisi2
ARM GAS  /tmp/cc3N4Hnz.s 			page 58


 2501              		.loc 1 755 71
 2502 026a 3B68     		ldr	r3, [r7]
 2503 026c 1B69     		ldr	r3, [r3, #16]
 2504              		.loc 1 755 13
 2505 026e 9BB2     		uxth	r3, r3
 2506 0270 7868     		ldr	r0, [r7, #4]
 2507 0272 FFF7FEFF 		bl	USB_WritePacket
 2508 0276 F4E0     		b	.L106
 2509              	.L99:
 756:Drivers/STM32L4xx_HAL_Driver/Src/stm32l4xx_ll_usb.c ****     }
 757:Drivers/STM32L4xx_HAL_Driver/Src/stm32l4xx_ll_usb.c ****   }
 758:Drivers/STM32L4xx_HAL_Driver/Src/stm32l4xx_ll_usb.c ****   else /* OUT endpoint */
 759:Drivers/STM32L4xx_HAL_Driver/Src/stm32l4xx_ll_usb.c ****   {
 760:Drivers/STM32L4xx_HAL_Driver/Src/stm32l4xx_ll_usb.c ****     /* Program the transfer size and packet count as follows:
 761:Drivers/STM32L4xx_HAL_Driver/Src/stm32l4xx_ll_usb.c ****     * pktcnt = N
 762:Drivers/STM32L4xx_HAL_Driver/Src/stm32l4xx_ll_usb.c ****     * xfersize = N * maxpacket
 763:Drivers/STM32L4xx_HAL_Driver/Src/stm32l4xx_ll_usb.c ****     */
 764:Drivers/STM32L4xx_HAL_Driver/Src/stm32l4xx_ll_usb.c ****     USBx_OUTEP(epnum)->DOEPTSIZ &= ~(USB_OTG_DOEPTSIZ_XFRSIZ);
 2510              		.loc 1 764 22
 2511 0278 3B69     		ldr	r3, [r7, #16]
 2512 027a 5A01     		lsls	r2, r3, #5
 2513 027c 7B69     		ldr	r3, [r7, #20]
 2514 027e 1344     		add	r3, r3, r2
 2515 0280 03F53063 		add	r3, r3, #2816
 2516 0284 1B69     		ldr	r3, [r3, #16]
 2517 0286 3A69     		ldr	r2, [r7, #16]
 2518 0288 5101     		lsls	r1, r2, #5
 2519 028a 7A69     		ldr	r2, [r7, #20]
 2520 028c 0A44     		add	r2, r2, r1
 2521 028e 02F53062 		add	r2, r2, #2816
 2522              		.loc 1 764 33
 2523 0292 DB0C     		lsrs	r3, r3, #19
 2524 0294 DB04     		lsls	r3, r3, #19
 2525 0296 1361     		str	r3, [r2, #16]
 765:Drivers/STM32L4xx_HAL_Driver/Src/stm32l4xx_ll_usb.c ****     USBx_OUTEP(epnum)->DOEPTSIZ &= ~(USB_OTG_DOEPTSIZ_PKTCNT);
 2526              		.loc 1 765 22
 2527 0298 3B69     		ldr	r3, [r7, #16]
 2528 029a 5A01     		lsls	r2, r3, #5
 2529 029c 7B69     		ldr	r3, [r7, #20]
 2530 029e 1344     		add	r3, r3, r2
 2531 02a0 03F53063 		add	r3, r3, #2816
 2532 02a4 1B69     		ldr	r3, [r3, #16]
 2533 02a6 3A69     		ldr	r2, [r7, #16]
 2534 02a8 5101     		lsls	r1, r2, #5
 2535 02aa 7A69     		ldr	r2, [r7, #20]
 2536 02ac 0A44     		add	r2, r2, r1
 2537 02ae 02F53062 		add	r2, r2, #2816
 2538              		.loc 1 765 33
 2539 02b2 23F0FF53 		bic	r3, r3, #534773760
 2540 02b6 23F4C013 		bic	r3, r3, #1572864
 2541 02ba 1361     		str	r3, [r2, #16]
 766:Drivers/STM32L4xx_HAL_Driver/Src/stm32l4xx_ll_usb.c **** 
 767:Drivers/STM32L4xx_HAL_Driver/Src/stm32l4xx_ll_usb.c ****     if (epnum == 0U)
 2542              		.loc 1 767 8
 2543 02bc 3B69     		ldr	r3, [r7, #16]
 2544 02be 002B     		cmp	r3, #0
 2545 02c0 2FD1     		bne	.L109
ARM GAS  /tmp/cc3N4Hnz.s 			page 59


 768:Drivers/STM32L4xx_HAL_Driver/Src/stm32l4xx_ll_usb.c ****     {
 769:Drivers/STM32L4xx_HAL_Driver/Src/stm32l4xx_ll_usb.c ****       if (ep->xfer_len > 0U)
 2546              		.loc 1 769 13
 2547 02c2 3B68     		ldr	r3, [r7]
 2548 02c4 1B69     		ldr	r3, [r3, #16]
 2549              		.loc 1 769 10
 2550 02c6 002B     		cmp	r3, #0
 2551 02c8 03D0     		beq	.L110
 770:Drivers/STM32L4xx_HAL_Driver/Src/stm32l4xx_ll_usb.c ****       {
 771:Drivers/STM32L4xx_HAL_Driver/Src/stm32l4xx_ll_usb.c ****         ep->xfer_len = ep->maxpacket;
 2552              		.loc 1 771 26
 2553 02ca 3B68     		ldr	r3, [r7]
 2554 02cc 9A68     		ldr	r2, [r3, #8]
 2555              		.loc 1 771 22
 2556 02ce 3B68     		ldr	r3, [r7]
 2557 02d0 1A61     		str	r2, [r3, #16]
 2558              	.L110:
 772:Drivers/STM32L4xx_HAL_Driver/Src/stm32l4xx_ll_usb.c ****       }
 773:Drivers/STM32L4xx_HAL_Driver/Src/stm32l4xx_ll_usb.c **** 
 774:Drivers/STM32L4xx_HAL_Driver/Src/stm32l4xx_ll_usb.c ****       /* Store transfer size, for EP0 this is equal to endpoint max packet size */
 775:Drivers/STM32L4xx_HAL_Driver/Src/stm32l4xx_ll_usb.c ****       ep->xfer_size = ep->maxpacket;
 2559              		.loc 1 775 25
 2560 02d2 3B68     		ldr	r3, [r7]
 2561 02d4 9A68     		ldr	r2, [r3, #8]
 2562              		.loc 1 775 21
 2563 02d6 3B68     		ldr	r3, [r7]
 2564 02d8 1A62     		str	r2, [r3, #32]
 776:Drivers/STM32L4xx_HAL_Driver/Src/stm32l4xx_ll_usb.c **** 
 777:Drivers/STM32L4xx_HAL_Driver/Src/stm32l4xx_ll_usb.c ****       USBx_OUTEP(epnum)->DOEPTSIZ |= (USB_OTG_DOEPTSIZ_XFRSIZ & ep->xfer_size);
 2565              		.loc 1 777 24
 2566 02da 3B69     		ldr	r3, [r7, #16]
 2567 02dc 5A01     		lsls	r2, r3, #5
 2568 02de 7B69     		ldr	r3, [r7, #20]
 2569 02e0 1344     		add	r3, r3, r2
 2570 02e2 03F53063 		add	r3, r3, #2816
 2571 02e6 1A69     		ldr	r2, [r3, #16]
 2572              		.loc 1 777 67
 2573 02e8 3B68     		ldr	r3, [r7]
 2574 02ea 1B6A     		ldr	r3, [r3, #32]
 2575              		.loc 1 777 63
 2576 02ec C3F31203 		ubfx	r3, r3, #0, #19
 2577              		.loc 1 777 24
 2578 02f0 3969     		ldr	r1, [r7, #16]
 2579 02f2 4801     		lsls	r0, r1, #5
 2580 02f4 7969     		ldr	r1, [r7, #20]
 2581 02f6 0144     		add	r1, r1, r0
 2582 02f8 01F53061 		add	r1, r1, #2816
 2583              		.loc 1 777 35
 2584 02fc 1343     		orrs	r3, r3, r2
 2585 02fe 0B61     		str	r3, [r1, #16]
 778:Drivers/STM32L4xx_HAL_Driver/Src/stm32l4xx_ll_usb.c ****       USBx_OUTEP(epnum)->DOEPTSIZ |= (USB_OTG_DOEPTSIZ_PKTCNT & (1UL << 19));
 2586              		.loc 1 778 24
 2587 0300 3B69     		ldr	r3, [r7, #16]
 2588 0302 5A01     		lsls	r2, r3, #5
 2589 0304 7B69     		ldr	r3, [r7, #20]
 2590 0306 1344     		add	r3, r3, r2
 2591 0308 03F53063 		add	r3, r3, #2816
ARM GAS  /tmp/cc3N4Hnz.s 			page 60


 2592 030c 1B69     		ldr	r3, [r3, #16]
 2593 030e 3A69     		ldr	r2, [r7, #16]
 2594 0310 5101     		lsls	r1, r2, #5
 2595 0312 7A69     		ldr	r2, [r7, #20]
 2596 0314 0A44     		add	r2, r2, r1
 2597 0316 02F53062 		add	r2, r2, #2816
 2598              		.loc 1 778 35
 2599 031a 43F40023 		orr	r3, r3, #524288
 2600 031e 1361     		str	r3, [r2, #16]
 2601 0320 62E0     		b	.L111
 2602              	.L109:
 779:Drivers/STM32L4xx_HAL_Driver/Src/stm32l4xx_ll_usb.c ****     }
 780:Drivers/STM32L4xx_HAL_Driver/Src/stm32l4xx_ll_usb.c ****     else
 781:Drivers/STM32L4xx_HAL_Driver/Src/stm32l4xx_ll_usb.c ****     {
 782:Drivers/STM32L4xx_HAL_Driver/Src/stm32l4xx_ll_usb.c ****       if (ep->xfer_len == 0U)
 2603              		.loc 1 782 13
 2604 0322 3B68     		ldr	r3, [r7]
 2605 0324 1B69     		ldr	r3, [r3, #16]
 2606              		.loc 1 782 10
 2607 0326 002B     		cmp	r3, #0
 2608 0328 26D1     		bne	.L112
 783:Drivers/STM32L4xx_HAL_Driver/Src/stm32l4xx_ll_usb.c ****       {
 784:Drivers/STM32L4xx_HAL_Driver/Src/stm32l4xx_ll_usb.c ****         USBx_OUTEP(epnum)->DOEPTSIZ |= (USB_OTG_DOEPTSIZ_XFRSIZ & ep->maxpacket);
 2609              		.loc 1 784 26
 2610 032a 3B69     		ldr	r3, [r7, #16]
 2611 032c 5A01     		lsls	r2, r3, #5
 2612 032e 7B69     		ldr	r3, [r7, #20]
 2613 0330 1344     		add	r3, r3, r2
 2614 0332 03F53063 		add	r3, r3, #2816
 2615 0336 1A69     		ldr	r2, [r3, #16]
 2616              		.loc 1 784 69
 2617 0338 3B68     		ldr	r3, [r7]
 2618 033a 9B68     		ldr	r3, [r3, #8]
 2619              		.loc 1 784 65
 2620 033c C3F31203 		ubfx	r3, r3, #0, #19
 2621              		.loc 1 784 26
 2622 0340 3969     		ldr	r1, [r7, #16]
 2623 0342 4801     		lsls	r0, r1, #5
 2624 0344 7969     		ldr	r1, [r7, #20]
 2625 0346 0144     		add	r1, r1, r0
 2626 0348 01F53061 		add	r1, r1, #2816
 2627              		.loc 1 784 37
 2628 034c 1343     		orrs	r3, r3, r2
 2629 034e 0B61     		str	r3, [r1, #16]
 785:Drivers/STM32L4xx_HAL_Driver/Src/stm32l4xx_ll_usb.c ****         USBx_OUTEP(epnum)->DOEPTSIZ |= (USB_OTG_DOEPTSIZ_PKTCNT & (1UL << 19));
 2630              		.loc 1 785 26
 2631 0350 3B69     		ldr	r3, [r7, #16]
 2632 0352 5A01     		lsls	r2, r3, #5
 2633 0354 7B69     		ldr	r3, [r7, #20]
 2634 0356 1344     		add	r3, r3, r2
 2635 0358 03F53063 		add	r3, r3, #2816
 2636 035c 1B69     		ldr	r3, [r3, #16]
 2637 035e 3A69     		ldr	r2, [r7, #16]
 2638 0360 5101     		lsls	r1, r2, #5
 2639 0362 7A69     		ldr	r2, [r7, #20]
 2640 0364 0A44     		add	r2, r2, r1
 2641 0366 02F53062 		add	r2, r2, #2816
ARM GAS  /tmp/cc3N4Hnz.s 			page 61


 2642              		.loc 1 785 37
 2643 036a 43F40023 		orr	r3, r3, #524288
 2644 036e 1361     		str	r3, [r2, #16]
 2645 0370 3AE0     		b	.L111
 2646              	.L117:
 2647 0372 00BF     		.align	2
 2648              	.L116:
 2649 0374 0000F81F 		.word	536346624
 2650              	.L112:
 786:Drivers/STM32L4xx_HAL_Driver/Src/stm32l4xx_ll_usb.c ****       }
 787:Drivers/STM32L4xx_HAL_Driver/Src/stm32l4xx_ll_usb.c ****       else
 788:Drivers/STM32L4xx_HAL_Driver/Src/stm32l4xx_ll_usb.c ****       {
 789:Drivers/STM32L4xx_HAL_Driver/Src/stm32l4xx_ll_usb.c ****         pktcnt = (uint16_t)((ep->xfer_len + ep->maxpacket - 1U) / ep->maxpacket);
 2651              		.loc 1 789 32
 2652 0378 3B68     		ldr	r3, [r7]
 2653 037a 1A69     		ldr	r2, [r3, #16]
 2654              		.loc 1 789 47
 2655 037c 3B68     		ldr	r3, [r7]
 2656 037e 9B68     		ldr	r3, [r3, #8]
 2657              		.loc 1 789 43
 2658 0380 1344     		add	r3, r3, r2
 2659              		.loc 1 789 59
 2660 0382 5A1E     		subs	r2, r3, #1
 2661              		.loc 1 789 69
 2662 0384 3B68     		ldr	r3, [r7]
 2663 0386 9B68     		ldr	r3, [r3, #8]
 2664              		.loc 1 789 65
 2665 0388 B2FBF3F3 		udiv	r3, r2, r3
 2666              		.loc 1 789 16
 2667 038c FB81     		strh	r3, [r7, #14]	@ movhi
 790:Drivers/STM32L4xx_HAL_Driver/Src/stm32l4xx_ll_usb.c ****         ep->xfer_size = ep->maxpacket * pktcnt;
 2668              		.loc 1 790 27
 2669 038e 3B68     		ldr	r3, [r7]
 2670 0390 9B68     		ldr	r3, [r3, #8]
 2671              		.loc 1 790 39
 2672 0392 FA89     		ldrh	r2, [r7, #14]
 2673 0394 03FB02F2 		mul	r2, r3, r2
 2674              		.loc 1 790 23
 2675 0398 3B68     		ldr	r3, [r7]
 2676 039a 1A62     		str	r2, [r3, #32]
 791:Drivers/STM32L4xx_HAL_Driver/Src/stm32l4xx_ll_usb.c **** 
 792:Drivers/STM32L4xx_HAL_Driver/Src/stm32l4xx_ll_usb.c ****         USBx_OUTEP(epnum)->DOEPTSIZ |= USB_OTG_DOEPTSIZ_PKTCNT & ((uint32_t)pktcnt << 19);
 2677              		.loc 1 792 26
 2678 039c 3B69     		ldr	r3, [r7, #16]
 2679 039e 5A01     		lsls	r2, r3, #5
 2680 03a0 7B69     		ldr	r3, [r7, #20]
 2681 03a2 1344     		add	r3, r3, r2
 2682 03a4 03F53063 		add	r3, r3, #2816
 2683 03a8 1A69     		ldr	r2, [r3, #16]
 2684              		.loc 1 792 67
 2685 03aa FB89     		ldrh	r3, [r7, #14]
 2686              		.loc 1 792 84
 2687 03ac D904     		lsls	r1, r3, #19
 2688              		.loc 1 792 64
 2689 03ae 2F4B     		ldr	r3, .L118
 2690 03b0 0B40     		ands	r3, r3, r1
 2691              		.loc 1 792 26
ARM GAS  /tmp/cc3N4Hnz.s 			page 62


 2692 03b2 3969     		ldr	r1, [r7, #16]
 2693 03b4 4801     		lsls	r0, r1, #5
 2694 03b6 7969     		ldr	r1, [r7, #20]
 2695 03b8 0144     		add	r1, r1, r0
 2696 03ba 01F53061 		add	r1, r1, #2816
 2697              		.loc 1 792 37
 2698 03be 1343     		orrs	r3, r3, r2
 2699 03c0 0B61     		str	r3, [r1, #16]
 793:Drivers/STM32L4xx_HAL_Driver/Src/stm32l4xx_ll_usb.c ****         USBx_OUTEP(epnum)->DOEPTSIZ |= USB_OTG_DOEPTSIZ_XFRSIZ & ep->xfer_size;
 2700              		.loc 1 793 26
 2701 03c2 3B69     		ldr	r3, [r7, #16]
 2702 03c4 5A01     		lsls	r2, r3, #5
 2703 03c6 7B69     		ldr	r3, [r7, #20]
 2704 03c8 1344     		add	r3, r3, r2
 2705 03ca 03F53063 		add	r3, r3, #2816
 2706 03ce 1A69     		ldr	r2, [r3, #16]
 2707              		.loc 1 793 68
 2708 03d0 3B68     		ldr	r3, [r7]
 2709 03d2 1B6A     		ldr	r3, [r3, #32]
 2710              		.loc 1 793 64
 2711 03d4 C3F31203 		ubfx	r3, r3, #0, #19
 2712              		.loc 1 793 26
 2713 03d8 3969     		ldr	r1, [r7, #16]
 2714 03da 4801     		lsls	r0, r1, #5
 2715 03dc 7969     		ldr	r1, [r7, #20]
 2716 03de 0144     		add	r1, r1, r0
 2717 03e0 01F53061 		add	r1, r1, #2816
 2718              		.loc 1 793 37
 2719 03e4 1343     		orrs	r3, r3, r2
 2720 03e6 0B61     		str	r3, [r1, #16]
 2721              	.L111:
 794:Drivers/STM32L4xx_HAL_Driver/Src/stm32l4xx_ll_usb.c ****       }
 795:Drivers/STM32L4xx_HAL_Driver/Src/stm32l4xx_ll_usb.c ****     }
 796:Drivers/STM32L4xx_HAL_Driver/Src/stm32l4xx_ll_usb.c **** 
 797:Drivers/STM32L4xx_HAL_Driver/Src/stm32l4xx_ll_usb.c ****     if (ep->type == EP_TYPE_ISOC)
 2722              		.loc 1 797 11
 2723 03e8 3B68     		ldr	r3, [r7]
 2724 03ea 1B79     		ldrb	r3, [r3, #4]	@ zero_extendqisi2
 2725              		.loc 1 797 8
 2726 03ec 012B     		cmp	r3, #1
 2727 03ee 28D1     		bne	.L113
 798:Drivers/STM32L4xx_HAL_Driver/Src/stm32l4xx_ll_usb.c ****     {
 799:Drivers/STM32L4xx_HAL_Driver/Src/stm32l4xx_ll_usb.c ****       if ((USBx_DEVICE->DSTS & (1UL << 8)) == 0U)
 2728              		.loc 1 799 12
 2729 03f0 7B69     		ldr	r3, [r7, #20]
 2730 03f2 03F50063 		add	r3, r3, #2048
 2731              		.loc 1 799 23
 2732 03f6 9B68     		ldr	r3, [r3, #8]
 2733              		.loc 1 799 30
 2734 03f8 03F48073 		and	r3, r3, #256
 2735              		.loc 1 799 10
 2736 03fc 002B     		cmp	r3, #0
 2737 03fe 10D1     		bne	.L114
 800:Drivers/STM32L4xx_HAL_Driver/Src/stm32l4xx_ll_usb.c ****       {
 801:Drivers/STM32L4xx_HAL_Driver/Src/stm32l4xx_ll_usb.c ****         USBx_OUTEP(epnum)->DOEPCTL |= USB_OTG_DOEPCTL_SODDFRM;
 2738              		.loc 1 801 26
 2739 0400 3B69     		ldr	r3, [r7, #16]
ARM GAS  /tmp/cc3N4Hnz.s 			page 63


 2740 0402 5A01     		lsls	r2, r3, #5
 2741 0404 7B69     		ldr	r3, [r7, #20]
 2742 0406 1344     		add	r3, r3, r2
 2743 0408 03F53063 		add	r3, r3, #2816
 2744 040c 1B68     		ldr	r3, [r3]
 2745 040e 3A69     		ldr	r2, [r7, #16]
 2746 0410 5101     		lsls	r1, r2, #5
 2747 0412 7A69     		ldr	r2, [r7, #20]
 2748 0414 0A44     		add	r2, r2, r1
 2749 0416 02F53062 		add	r2, r2, #2816
 2750              		.loc 1 801 36
 2751 041a 43F00053 		orr	r3, r3, #536870912
 2752 041e 1360     		str	r3, [r2]
 2753 0420 0FE0     		b	.L113
 2754              	.L114:
 802:Drivers/STM32L4xx_HAL_Driver/Src/stm32l4xx_ll_usb.c ****       }
 803:Drivers/STM32L4xx_HAL_Driver/Src/stm32l4xx_ll_usb.c ****       else
 804:Drivers/STM32L4xx_HAL_Driver/Src/stm32l4xx_ll_usb.c ****       {
 805:Drivers/STM32L4xx_HAL_Driver/Src/stm32l4xx_ll_usb.c ****         USBx_OUTEP(epnum)->DOEPCTL |= USB_OTG_DOEPCTL_SD0PID_SEVNFRM;
 2755              		.loc 1 805 26
 2756 0422 3B69     		ldr	r3, [r7, #16]
 2757 0424 5A01     		lsls	r2, r3, #5
 2758 0426 7B69     		ldr	r3, [r7, #20]
 2759 0428 1344     		add	r3, r3, r2
 2760 042a 03F53063 		add	r3, r3, #2816
 2761 042e 1B68     		ldr	r3, [r3]
 2762 0430 3A69     		ldr	r2, [r7, #16]
 2763 0432 5101     		lsls	r1, r2, #5
 2764 0434 7A69     		ldr	r2, [r7, #20]
 2765 0436 0A44     		add	r2, r2, r1
 2766 0438 02F53062 		add	r2, r2, #2816
 2767              		.loc 1 805 36
 2768 043c 43F08053 		orr	r3, r3, #268435456
 2769 0440 1360     		str	r3, [r2]
 2770              	.L113:
 806:Drivers/STM32L4xx_HAL_Driver/Src/stm32l4xx_ll_usb.c ****       }
 807:Drivers/STM32L4xx_HAL_Driver/Src/stm32l4xx_ll_usb.c ****     }
 808:Drivers/STM32L4xx_HAL_Driver/Src/stm32l4xx_ll_usb.c ****     /* EP enable */
 809:Drivers/STM32L4xx_HAL_Driver/Src/stm32l4xx_ll_usb.c ****     USBx_OUTEP(epnum)->DOEPCTL |= (USB_OTG_DOEPCTL_CNAK | USB_OTG_DOEPCTL_EPENA);
 2771              		.loc 1 809 22
 2772 0442 3B69     		ldr	r3, [r7, #16]
 2773 0444 5A01     		lsls	r2, r3, #5
 2774 0446 7B69     		ldr	r3, [r7, #20]
 2775 0448 1344     		add	r3, r3, r2
 2776 044a 03F53063 		add	r3, r3, #2816
 2777 044e 1B68     		ldr	r3, [r3]
 2778 0450 3A69     		ldr	r2, [r7, #16]
 2779 0452 5101     		lsls	r1, r2, #5
 2780 0454 7A69     		ldr	r2, [r7, #20]
 2781 0456 0A44     		add	r2, r2, r1
 2782 0458 02F53062 		add	r2, r2, #2816
 2783              		.loc 1 809 32
 2784 045c 43F00443 		orr	r3, r3, #-2080374784
 2785 0460 1360     		str	r3, [r2]
 2786              	.L106:
 810:Drivers/STM32L4xx_HAL_Driver/Src/stm32l4xx_ll_usb.c ****   }
 811:Drivers/STM32L4xx_HAL_Driver/Src/stm32l4xx_ll_usb.c **** 
ARM GAS  /tmp/cc3N4Hnz.s 			page 64


 812:Drivers/STM32L4xx_HAL_Driver/Src/stm32l4xx_ll_usb.c ****   return HAL_OK;
 2787              		.loc 1 812 10
 2788 0462 0023     		movs	r3, #0
 813:Drivers/STM32L4xx_HAL_Driver/Src/stm32l4xx_ll_usb.c **** }
 2789              		.loc 1 813 1
 2790 0464 1846     		mov	r0, r3
 2791 0466 1837     		adds	r7, r7, #24
 2792              		.cfi_def_cfa_offset 8
 2793 0468 BD46     		mov	sp, r7
 2794              		.cfi_def_cfa_register 13
 2795              		@ sp needed
 2796 046a 80BD     		pop	{r7, pc}
 2797              	.L119:
 2798              		.align	2
 2799              	.L118:
 2800 046c 0000F81F 		.word	536346624
 2801              		.cfi_endproc
 2802              	.LFE459:
 2804              		.section	.text.USB_EPStopXfer,"ax",%progbits
 2805              		.align	1
 2806              		.global	USB_EPStopXfer
 2807              		.syntax unified
 2808              		.thumb
 2809              		.thumb_func
 2811              	USB_EPStopXfer:
 2812              	.LFB460:
 814:Drivers/STM32L4xx_HAL_Driver/Src/stm32l4xx_ll_usb.c **** 
 815:Drivers/STM32L4xx_HAL_Driver/Src/stm32l4xx_ll_usb.c **** 
 816:Drivers/STM32L4xx_HAL_Driver/Src/stm32l4xx_ll_usb.c **** /**
 817:Drivers/STM32L4xx_HAL_Driver/Src/stm32l4xx_ll_usb.c ****    * @brief  USB_EPStoptXfer  Stop transfer on an EP
 818:Drivers/STM32L4xx_HAL_Driver/Src/stm32l4xx_ll_usb.c ****    * @param  USBx  usb device instance
 819:Drivers/STM32L4xx_HAL_Driver/Src/stm32l4xx_ll_usb.c ****    * @param  ep pointer to endpoint structure
 820:Drivers/STM32L4xx_HAL_Driver/Src/stm32l4xx_ll_usb.c ****    * @retval HAL status
 821:Drivers/STM32L4xx_HAL_Driver/Src/stm32l4xx_ll_usb.c ****    */
 822:Drivers/STM32L4xx_HAL_Driver/Src/stm32l4xx_ll_usb.c **** HAL_StatusTypeDef USB_EPStopXfer(USB_OTG_GlobalTypeDef *USBx, USB_OTG_EPTypeDef *ep)
 823:Drivers/STM32L4xx_HAL_Driver/Src/stm32l4xx_ll_usb.c **** {
 2813              		.loc 1 823 1
 2814              		.cfi_startproc
 2815              		@ args = 0, pretend = 0, frame = 32
 2816              		@ frame_needed = 1, uses_anonymous_args = 0
 2817              		@ link register save eliminated.
 2818 0000 80B4     		push	{r7}
 2819              		.cfi_def_cfa_offset 4
 2820              		.cfi_offset 7, -4
 2821 0002 89B0     		sub	sp, sp, #36
 2822              		.cfi_def_cfa_offset 40
 2823 0004 00AF     		add	r7, sp, #0
 2824              		.cfi_def_cfa_register 7
 2825 0006 7860     		str	r0, [r7, #4]
 2826 0008 3960     		str	r1, [r7]
 824:Drivers/STM32L4xx_HAL_Driver/Src/stm32l4xx_ll_usb.c ****   __IO uint32_t count = 0U;
 2827              		.loc 1 824 17
 2828 000a 0023     		movs	r3, #0
 2829 000c 3B61     		str	r3, [r7, #16]
 825:Drivers/STM32L4xx_HAL_Driver/Src/stm32l4xx_ll_usb.c ****   __IO uint32_t RegVal;
 826:Drivers/STM32L4xx_HAL_Driver/Src/stm32l4xx_ll_usb.c ****   HAL_StatusTypeDef ret = HAL_OK;
 2830              		.loc 1 826 21
ARM GAS  /tmp/cc3N4Hnz.s 			page 65


 2831 000e 0023     		movs	r3, #0
 2832 0010 FB77     		strb	r3, [r7, #31]
 827:Drivers/STM32L4xx_HAL_Driver/Src/stm32l4xx_ll_usb.c ****   uint32_t USBx_BASE = (uint32_t)USBx;
 2833              		.loc 1 827 12
 2834 0012 7B68     		ldr	r3, [r7, #4]
 2835 0014 BB61     		str	r3, [r7, #24]
 828:Drivers/STM32L4xx_HAL_Driver/Src/stm32l4xx_ll_usb.c ****   uint32_t dma_enable = (USBx->GAHBCFG & USB_OTG_GAHBCFG_DMAEN) >> 0x5U;
 2836              		.loc 1 828 30
 2837 0016 7B68     		ldr	r3, [r7, #4]
 2838 0018 9B68     		ldr	r3, [r3, #8]
 2839              		.loc 1 828 65
 2840 001a 5B09     		lsrs	r3, r3, #5
 2841              		.loc 1 828 12
 2842 001c 03F00103 		and	r3, r3, #1
 2843 0020 7B61     		str	r3, [r7, #20]
 829:Drivers/STM32L4xx_HAL_Driver/Src/stm32l4xx_ll_usb.c **** 
 830:Drivers/STM32L4xx_HAL_Driver/Src/stm32l4xx_ll_usb.c ****   /* IN endpoint */
 831:Drivers/STM32L4xx_HAL_Driver/Src/stm32l4xx_ll_usb.c ****   if (ep->is_in == 1U)
 2844              		.loc 1 831 9
 2845 0022 3B68     		ldr	r3, [r7]
 2846 0024 5B78     		ldrb	r3, [r3, #1]	@ zero_extendqisi2
 2847              		.loc 1 831 6
 2848 0026 012B     		cmp	r3, #1
 2849 0028 49D1     		bne	.L121
 832:Drivers/STM32L4xx_HAL_Driver/Src/stm32l4xx_ll_usb.c ****   {
 833:Drivers/STM32L4xx_HAL_Driver/Src/stm32l4xx_ll_usb.c ****     /* EP enable, IN data in FIFO */
 834:Drivers/STM32L4xx_HAL_Driver/Src/stm32l4xx_ll_usb.c ****     if (((USBx_INEP(ep->num)->DIEPCTL) & USB_OTG_DIEPCTL_EPENA) == USB_OTG_DIEPCTL_EPENA)
 2850              		.loc 1 834 11
 2851 002a 3B68     		ldr	r3, [r7]
 2852 002c 1B78     		ldrb	r3, [r3]	@ zero_extendqisi2
 2853 002e 5A01     		lsls	r2, r3, #5
 2854 0030 BB69     		ldr	r3, [r7, #24]
 2855 0032 1344     		add	r3, r3, r2
 2856 0034 03F51063 		add	r3, r3, #2304
 2857              		.loc 1 834 29
 2858 0038 1B68     		ldr	r3, [r3]
 2859              		.loc 1 834 40
 2860 003a 03F00043 		and	r3, r3, #-2147483648
 2861              		.loc 1 834 8
 2862 003e B3F1004F 		cmp	r3, #-2147483648
 2863 0042 40F0D380 		bne	.L125
 835:Drivers/STM32L4xx_HAL_Driver/Src/stm32l4xx_ll_usb.c ****     {
 836:Drivers/STM32L4xx_HAL_Driver/Src/stm32l4xx_ll_usb.c ****       USBx_INEP(ep->num)->DIEPCTL |= (USB_OTG_DIEPCTL_SNAK);
 2864              		.loc 1 836 7
 2865 0046 3B68     		ldr	r3, [r7]
 2866 0048 1B78     		ldrb	r3, [r3]	@ zero_extendqisi2
 2867              		.loc 1 836 25
 2868 004a 5A01     		lsls	r2, r3, #5
 2869 004c BB69     		ldr	r3, [r7, #24]
 2870 004e 1344     		add	r3, r3, r2
 2871 0050 03F51063 		add	r3, r3, #2304
 2872 0054 1B68     		ldr	r3, [r3]
 2873              		.loc 1 836 7
 2874 0056 3A68     		ldr	r2, [r7]
 2875 0058 1278     		ldrb	r2, [r2]	@ zero_extendqisi2
 2876              		.loc 1 836 25
 2877 005a 5101     		lsls	r1, r2, #5
ARM GAS  /tmp/cc3N4Hnz.s 			page 66


 2878 005c BA69     		ldr	r2, [r7, #24]
 2879 005e 0A44     		add	r2, r2, r1
 2880 0060 02F51062 		add	r2, r2, #2304
 2881              		.loc 1 836 35
 2882 0064 43F00063 		orr	r3, r3, #134217728
 2883 0068 1360     		str	r3, [r2]
 837:Drivers/STM32L4xx_HAL_Driver/Src/stm32l4xx_ll_usb.c ****       USBx_INEP(ep->num)->DIEPCTL |= (USB_OTG_DIEPCTL_EPDIS);
 2884              		.loc 1 837 7
 2885 006a 3B68     		ldr	r3, [r7]
 2886 006c 1B78     		ldrb	r3, [r3]	@ zero_extendqisi2
 2887              		.loc 1 837 25
 2888 006e 5A01     		lsls	r2, r3, #5
 2889 0070 BB69     		ldr	r3, [r7, #24]
 2890 0072 1344     		add	r3, r3, r2
 2891 0074 03F51063 		add	r3, r3, #2304
 2892 0078 1B68     		ldr	r3, [r3]
 2893              		.loc 1 837 7
 2894 007a 3A68     		ldr	r2, [r7]
 2895 007c 1278     		ldrb	r2, [r2]	@ zero_extendqisi2
 2896              		.loc 1 837 25
 2897 007e 5101     		lsls	r1, r2, #5
 2898 0080 BA69     		ldr	r2, [r7, #24]
 2899 0082 0A44     		add	r2, r2, r1
 2900 0084 02F51062 		add	r2, r2, #2304
 2901              		.loc 1 837 35
 2902 0088 43F08043 		orr	r3, r3, #1073741824
 2903 008c 1360     		str	r3, [r2]
 2904              	.L124:
 838:Drivers/STM32L4xx_HAL_Driver/Src/stm32l4xx_ll_usb.c **** 
 839:Drivers/STM32L4xx_HAL_Driver/Src/stm32l4xx_ll_usb.c ****       do
 840:Drivers/STM32L4xx_HAL_Driver/Src/stm32l4xx_ll_usb.c ****       {
 841:Drivers/STM32L4xx_HAL_Driver/Src/stm32l4xx_ll_usb.c ****         count++;
 2905              		.loc 1 841 14
 2906 008e 3B69     		ldr	r3, [r7, #16]
 2907 0090 0133     		adds	r3, r3, #1
 2908 0092 3B61     		str	r3, [r7, #16]
 842:Drivers/STM32L4xx_HAL_Driver/Src/stm32l4xx_ll_usb.c **** 
 843:Drivers/STM32L4xx_HAL_Driver/Src/stm32l4xx_ll_usb.c ****         if (count > 0xF0000U)
 2909              		.loc 1 843 19
 2910 0094 3B69     		ldr	r3, [r7, #16]
 2911              		.loc 1 843 12
 2912 0096 B3F5702F 		cmp	r3, #983040
 2913 009a 02D9     		bls	.L123
 844:Drivers/STM32L4xx_HAL_Driver/Src/stm32l4xx_ll_usb.c ****         {
 845:Drivers/STM32L4xx_HAL_Driver/Src/stm32l4xx_ll_usb.c ****           ret = HAL_ERROR;
 2914              		.loc 1 845 15
 2915 009c 0123     		movs	r3, #1
 2916 009e FB77     		strb	r3, [r7, #31]
 846:Drivers/STM32L4xx_HAL_Driver/Src/stm32l4xx_ll_usb.c ****           break;
 2917              		.loc 1 846 11
 2918 00a0 A4E0     		b	.L125
 2919              	.L123:
 847:Drivers/STM32L4xx_HAL_Driver/Src/stm32l4xx_ll_usb.c ****         }
 848:Drivers/STM32L4xx_HAL_Driver/Src/stm32l4xx_ll_usb.c ****       } while (((USBx_INEP(ep->num)->DIEPCTL) & USB_OTG_DIEPCTL_EPENA) == USB_OTG_DIEPCTL_EPENA);
 2920              		.loc 1 848 18
 2921 00a2 3B68     		ldr	r3, [r7]
 2922 00a4 1B78     		ldrb	r3, [r3]	@ zero_extendqisi2
ARM GAS  /tmp/cc3N4Hnz.s 			page 67


 2923 00a6 5A01     		lsls	r2, r3, #5
 2924 00a8 BB69     		ldr	r3, [r7, #24]
 2925 00aa 1344     		add	r3, r3, r2
 2926 00ac 03F51063 		add	r3, r3, #2304
 2927              		.loc 1 848 36
 2928 00b0 1B68     		ldr	r3, [r3]
 2929              		.loc 1 848 47
 2930 00b2 03F00043 		and	r3, r3, #-2147483648
 2931              		.loc 1 848 72
 2932 00b6 B3F1004F 		cmp	r3, #-2147483648
 2933 00ba E8D0     		beq	.L124
 2934 00bc 96E0     		b	.L125
 2935              	.L121:
 849:Drivers/STM32L4xx_HAL_Driver/Src/stm32l4xx_ll_usb.c ****     }
 850:Drivers/STM32L4xx_HAL_Driver/Src/stm32l4xx_ll_usb.c ****   }
 851:Drivers/STM32L4xx_HAL_Driver/Src/stm32l4xx_ll_usb.c ****   else /* OUT endpoint */
 852:Drivers/STM32L4xx_HAL_Driver/Src/stm32l4xx_ll_usb.c ****   {
 853:Drivers/STM32L4xx_HAL_Driver/Src/stm32l4xx_ll_usb.c ****     USBx->GINTMSK &= ~USB_OTG_GINTMSK_GONAKEFFM;
 2936              		.loc 1 853 9
 2937 00be 7B68     		ldr	r3, [r7, #4]
 2938 00c0 9B69     		ldr	r3, [r3, #24]
 2939              		.loc 1 853 19
 2940 00c2 23F08002 		bic	r2, r3, #128
 2941 00c6 7B68     		ldr	r3, [r7, #4]
 2942 00c8 9A61     		str	r2, [r3, #24]
 854:Drivers/STM32L4xx_HAL_Driver/Src/stm32l4xx_ll_usb.c **** 
 855:Drivers/STM32L4xx_HAL_Driver/Src/stm32l4xx_ll_usb.c ****     if ((USBx->GINTSTS & USB_OTG_GINTSTS_BOUTNAKEFF) == 0U)
 2943              		.loc 1 855 14
 2944 00ca 7B68     		ldr	r3, [r7, #4]
 2945 00cc 5B69     		ldr	r3, [r3, #20]
 2946              		.loc 1 855 24
 2947 00ce 03F08003 		and	r3, r3, #128
 2948              		.loc 1 855 8
 2949 00d2 002B     		cmp	r3, #0
 2950 00d4 09D1     		bne	.L126
 856:Drivers/STM32L4xx_HAL_Driver/Src/stm32l4xx_ll_usb.c ****     {
 857:Drivers/STM32L4xx_HAL_Driver/Src/stm32l4xx_ll_usb.c ****       USBx_DEVICE->DCTL |= USB_OTG_DCTL_SGONAK;
 2951              		.loc 1 857 18
 2952 00d6 BB69     		ldr	r3, [r7, #24]
 2953 00d8 03F50063 		add	r3, r3, #2048
 2954 00dc 5B68     		ldr	r3, [r3, #4]
 2955 00de BA69     		ldr	r2, [r7, #24]
 2956 00e0 02F50062 		add	r2, r2, #2048
 2957              		.loc 1 857 25
 2958 00e4 43F40073 		orr	r3, r3, #512
 2959 00e8 5360     		str	r3, [r2, #4]
 2960              	.L126:
 858:Drivers/STM32L4xx_HAL_Driver/Src/stm32l4xx_ll_usb.c ****     }
 859:Drivers/STM32L4xx_HAL_Driver/Src/stm32l4xx_ll_usb.c **** 
 860:Drivers/STM32L4xx_HAL_Driver/Src/stm32l4xx_ll_usb.c ****     if (dma_enable == 0U)
 2961              		.loc 1 860 8
 2962 00ea 7B69     		ldr	r3, [r7, #20]
 2963 00ec 002B     		cmp	r3, #0
 2964 00ee 13D1     		bne	.L127
 2965              	.L130:
 861:Drivers/STM32L4xx_HAL_Driver/Src/stm32l4xx_ll_usb.c ****     {
 862:Drivers/STM32L4xx_HAL_Driver/Src/stm32l4xx_ll_usb.c ****       do
ARM GAS  /tmp/cc3N4Hnz.s 			page 68


 863:Drivers/STM32L4xx_HAL_Driver/Src/stm32l4xx_ll_usb.c ****       {
 864:Drivers/STM32L4xx_HAL_Driver/Src/stm32l4xx_ll_usb.c ****         count++;
 2966              		.loc 1 864 14
 2967 00f0 3B69     		ldr	r3, [r7, #16]
 2968 00f2 0133     		adds	r3, r3, #1
 2969 00f4 3B61     		str	r3, [r7, #16]
 865:Drivers/STM32L4xx_HAL_Driver/Src/stm32l4xx_ll_usb.c **** 
 866:Drivers/STM32L4xx_HAL_Driver/Src/stm32l4xx_ll_usb.c ****         if (count > 0xF0000U)
 2970              		.loc 1 866 19
 2971 00f6 3B69     		ldr	r3, [r7, #16]
 2972              		.loc 1 866 12
 2973 00f8 B3F5702F 		cmp	r3, #983040
 2974 00fc 02D9     		bls	.L128
 867:Drivers/STM32L4xx_HAL_Driver/Src/stm32l4xx_ll_usb.c ****         {
 868:Drivers/STM32L4xx_HAL_Driver/Src/stm32l4xx_ll_usb.c ****           ret = HAL_ERROR;
 2975              		.loc 1 868 15
 2976 00fe 0123     		movs	r3, #1
 2977 0100 FB77     		strb	r3, [r7, #31]
 869:Drivers/STM32L4xx_HAL_Driver/Src/stm32l4xx_ll_usb.c ****           break;
 2978              		.loc 1 869 11
 2979 0102 05E0     		b	.L129
 2980              	.L128:
 870:Drivers/STM32L4xx_HAL_Driver/Src/stm32l4xx_ll_usb.c ****         }
 871:Drivers/STM32L4xx_HAL_Driver/Src/stm32l4xx_ll_usb.c ****       } while (((USBx->GINTSTS & USB_OTG_GINTSTS_RXFLVL) & USB_OTG_GINTSTS_RXFLVL) != USB_OTG_GINTS
 2981              		.loc 1 871 22
 2982 0104 7B68     		ldr	r3, [r7, #4]
 2983 0106 5B69     		ldr	r3, [r3, #20]
 2984              		.loc 1 871 58
 2985 0108 03F01003 		and	r3, r3, #16
 2986              		.loc 1 871 84
 2987 010c 102B     		cmp	r3, #16
 2988 010e EFD1     		bne	.L130
 2989              	.L129:
 872:Drivers/STM32L4xx_HAL_Driver/Src/stm32l4xx_ll_usb.c **** 
 873:Drivers/STM32L4xx_HAL_Driver/Src/stm32l4xx_ll_usb.c ****       /* POP the RX status register to generate the NAK Effective interrupt */
 874:Drivers/STM32L4xx_HAL_Driver/Src/stm32l4xx_ll_usb.c ****       RegVal = USBx->GRXSTSP;
 2990              		.loc 1 874 20
 2991 0110 7B68     		ldr	r3, [r7, #4]
 2992 0112 1B6A     		ldr	r3, [r3, #32]
 2993              		.loc 1 874 14
 2994 0114 FB60     		str	r3, [r7, #12]
 875:Drivers/STM32L4xx_HAL_Driver/Src/stm32l4xx_ll_usb.c ****       UNUSED(RegVal);
 2995              		.loc 1 875 7
 2996 0116 FB68     		ldr	r3, [r7, #12]
 2997              	.L127:
 876:Drivers/STM32L4xx_HAL_Driver/Src/stm32l4xx_ll_usb.c ****     }
 877:Drivers/STM32L4xx_HAL_Driver/Src/stm32l4xx_ll_usb.c **** 
 878:Drivers/STM32L4xx_HAL_Driver/Src/stm32l4xx_ll_usb.c ****     /* Wait for Global NAK effective to be set */
 879:Drivers/STM32L4xx_HAL_Driver/Src/stm32l4xx_ll_usb.c ****     count = 0U;
 2998              		.loc 1 879 11
 2999 0118 0023     		movs	r3, #0
 3000 011a 3B61     		str	r3, [r7, #16]
 3001              	.L133:
 880:Drivers/STM32L4xx_HAL_Driver/Src/stm32l4xx_ll_usb.c **** 
 881:Drivers/STM32L4xx_HAL_Driver/Src/stm32l4xx_ll_usb.c ****     do
 882:Drivers/STM32L4xx_HAL_Driver/Src/stm32l4xx_ll_usb.c ****     {
 883:Drivers/STM32L4xx_HAL_Driver/Src/stm32l4xx_ll_usb.c ****       count++;
ARM GAS  /tmp/cc3N4Hnz.s 			page 69


 3002              		.loc 1 883 12
 3003 011c 3B69     		ldr	r3, [r7, #16]
 3004 011e 0133     		adds	r3, r3, #1
 3005 0120 3B61     		str	r3, [r7, #16]
 884:Drivers/STM32L4xx_HAL_Driver/Src/stm32l4xx_ll_usb.c **** 
 885:Drivers/STM32L4xx_HAL_Driver/Src/stm32l4xx_ll_usb.c ****       if (count > 0xF0000U)
 3006              		.loc 1 885 17
 3007 0122 3B69     		ldr	r3, [r7, #16]
 3008              		.loc 1 885 10
 3009 0124 B3F5702F 		cmp	r3, #983040
 3010 0128 02D9     		bls	.L131
 886:Drivers/STM32L4xx_HAL_Driver/Src/stm32l4xx_ll_usb.c ****       {
 887:Drivers/STM32L4xx_HAL_Driver/Src/stm32l4xx_ll_usb.c ****         ret = HAL_ERROR;
 3011              		.loc 1 887 13
 3012 012a 0123     		movs	r3, #1
 3013 012c FB77     		strb	r3, [r7, #31]
 888:Drivers/STM32L4xx_HAL_Driver/Src/stm32l4xx_ll_usb.c ****         break;
 3014              		.loc 1 888 9
 3015 012e 05E0     		b	.L132
 3016              	.L131:
 889:Drivers/STM32L4xx_HAL_Driver/Src/stm32l4xx_ll_usb.c ****       }
 890:Drivers/STM32L4xx_HAL_Driver/Src/stm32l4xx_ll_usb.c ****     } while (((USBx->GINTSTS & USB_OTG_GINTSTS_BOUTNAKEFF)
 3017              		.loc 1 890 20
 3018 0130 7B68     		ldr	r3, [r7, #4]
 3019 0132 5B69     		ldr	r3, [r3, #20]
 891:Drivers/STM32L4xx_HAL_Driver/Src/stm32l4xx_ll_usb.c ****               & USB_OTG_GINTSTS_BOUTNAKEFF) != USB_OTG_GINTSTS_BOUTNAKEFF);
 3020              		.loc 1 891 15
 3021 0134 03F08003 		and	r3, r3, #128
 3022              		.loc 1 891 45
 3023 0138 802B     		cmp	r3, #128
 3024 013a EFD1     		bne	.L133
 3025              	.L132:
 892:Drivers/STM32L4xx_HAL_Driver/Src/stm32l4xx_ll_usb.c **** 
 893:Drivers/STM32L4xx_HAL_Driver/Src/stm32l4xx_ll_usb.c ****     USBx_OUTEP(ep->num)->DOEPCTL |= (USB_OTG_DOEPCTL_SNAK);
 3026              		.loc 1 893 5
 3027 013c 3B68     		ldr	r3, [r7]
 3028 013e 1B78     		ldrb	r3, [r3]	@ zero_extendqisi2
 3029              		.loc 1 893 24
 3030 0140 5A01     		lsls	r2, r3, #5
 3031 0142 BB69     		ldr	r3, [r7, #24]
 3032 0144 1344     		add	r3, r3, r2
 3033 0146 03F53063 		add	r3, r3, #2816
 3034 014a 1B68     		ldr	r3, [r3]
 3035              		.loc 1 893 5
 3036 014c 3A68     		ldr	r2, [r7]
 3037 014e 1278     		ldrb	r2, [r2]	@ zero_extendqisi2
 3038              		.loc 1 893 24
 3039 0150 5101     		lsls	r1, r2, #5
 3040 0152 BA69     		ldr	r2, [r7, #24]
 3041 0154 0A44     		add	r2, r2, r1
 3042 0156 02F53062 		add	r2, r2, #2816
 3043              		.loc 1 893 34
 3044 015a 43F00063 		orr	r3, r3, #134217728
 3045 015e 1360     		str	r3, [r2]
 894:Drivers/STM32L4xx_HAL_Driver/Src/stm32l4xx_ll_usb.c ****     USBx_OUTEP(ep->num)->DOEPCTL |= (USB_OTG_DOEPCTL_EPDIS);
 3046              		.loc 1 894 5
 3047 0160 3B68     		ldr	r3, [r7]
ARM GAS  /tmp/cc3N4Hnz.s 			page 70


 3048 0162 1B78     		ldrb	r3, [r3]	@ zero_extendqisi2
 3049              		.loc 1 894 24
 3050 0164 5A01     		lsls	r2, r3, #5
 3051 0166 BB69     		ldr	r3, [r7, #24]
 3052 0168 1344     		add	r3, r3, r2
 3053 016a 03F53063 		add	r3, r3, #2816
 3054 016e 1B68     		ldr	r3, [r3]
 3055              		.loc 1 894 5
 3056 0170 3A68     		ldr	r2, [r7]
 3057 0172 1278     		ldrb	r2, [r2]	@ zero_extendqisi2
 3058              		.loc 1 894 24
 3059 0174 5101     		lsls	r1, r2, #5
 3060 0176 BA69     		ldr	r2, [r7, #24]
 3061 0178 0A44     		add	r2, r2, r1
 3062 017a 02F53062 		add	r2, r2, #2816
 3063              		.loc 1 894 34
 3064 017e 43F08043 		orr	r3, r3, #1073741824
 3065 0182 1360     		str	r3, [r2]
 895:Drivers/STM32L4xx_HAL_Driver/Src/stm32l4xx_ll_usb.c **** 
 896:Drivers/STM32L4xx_HAL_Driver/Src/stm32l4xx_ll_usb.c ****     /* Wait for EP disable to take effect */
 897:Drivers/STM32L4xx_HAL_Driver/Src/stm32l4xx_ll_usb.c ****     count = 0U;
 3066              		.loc 1 897 11
 3067 0184 0023     		movs	r3, #0
 3068 0186 3B61     		str	r3, [r7, #16]
 3069              	.L136:
 898:Drivers/STM32L4xx_HAL_Driver/Src/stm32l4xx_ll_usb.c **** 
 899:Drivers/STM32L4xx_HAL_Driver/Src/stm32l4xx_ll_usb.c ****     do
 900:Drivers/STM32L4xx_HAL_Driver/Src/stm32l4xx_ll_usb.c ****     {
 901:Drivers/STM32L4xx_HAL_Driver/Src/stm32l4xx_ll_usb.c ****       count++;
 3070              		.loc 1 901 12
 3071 0188 3B69     		ldr	r3, [r7, #16]
 3072 018a 0133     		adds	r3, r3, #1
 3073 018c 3B61     		str	r3, [r7, #16]
 902:Drivers/STM32L4xx_HAL_Driver/Src/stm32l4xx_ll_usb.c **** 
 903:Drivers/STM32L4xx_HAL_Driver/Src/stm32l4xx_ll_usb.c ****       if (count > 0xF0000U)
 3074              		.loc 1 903 17
 3075 018e 3B69     		ldr	r3, [r7, #16]
 3076              		.loc 1 903 10
 3077 0190 B3F5702F 		cmp	r3, #983040
 3078 0194 02D9     		bls	.L134
 904:Drivers/STM32L4xx_HAL_Driver/Src/stm32l4xx_ll_usb.c ****       {
 905:Drivers/STM32L4xx_HAL_Driver/Src/stm32l4xx_ll_usb.c ****         ret = HAL_ERROR;
 3079              		.loc 1 905 13
 3080 0196 0123     		movs	r3, #1
 3081 0198 FB77     		strb	r3, [r7, #31]
 906:Drivers/STM32L4xx_HAL_Driver/Src/stm32l4xx_ll_usb.c ****         break;
 3082              		.loc 1 906 9
 3083 019a 0BE0     		b	.L135
 3084              	.L134:
 907:Drivers/STM32L4xx_HAL_Driver/Src/stm32l4xx_ll_usb.c ****       }
 908:Drivers/STM32L4xx_HAL_Driver/Src/stm32l4xx_ll_usb.c ****     } while (((USBx_OUTEP(ep->num)->DOEPINT & USB_OTG_DOEPINT_EPDISD)
 3085              		.loc 1 908 16
 3086 019c 3B68     		ldr	r3, [r7]
 3087 019e 1B78     		ldrb	r3, [r3]	@ zero_extendqisi2
 3088 01a0 5A01     		lsls	r2, r3, #5
 3089 01a2 BB69     		ldr	r3, [r7, #24]
 3090 01a4 1344     		add	r3, r3, r2
ARM GAS  /tmp/cc3N4Hnz.s 			page 71


 3091 01a6 03F53063 		add	r3, r3, #2816
 3092              		.loc 1 908 35
 3093 01aa 9B68     		ldr	r3, [r3, #8]
 909:Drivers/STM32L4xx_HAL_Driver/Src/stm32l4xx_ll_usb.c ****               & USB_OTG_DOEPINT_EPDISD) != USB_OTG_DOEPINT_EPDISD);
 3094              		.loc 1 909 15
 3095 01ac 03F00203 		and	r3, r3, #2
 3096              		.loc 1 909 41
 3097 01b0 022B     		cmp	r3, #2
 3098 01b2 E9D1     		bne	.L136
 3099              	.L135:
 910:Drivers/STM32L4xx_HAL_Driver/Src/stm32l4xx_ll_usb.c **** 
 911:Drivers/STM32L4xx_HAL_Driver/Src/stm32l4xx_ll_usb.c ****     /* Clear OUT EP disable interrupt */
 912:Drivers/STM32L4xx_HAL_Driver/Src/stm32l4xx_ll_usb.c ****     USBx_OUTEP(ep->num)->DOEPINT |= USB_OTG_DOEPINT_EPDISD;
 3100              		.loc 1 912 5
 3101 01b4 3B68     		ldr	r3, [r7]
 3102 01b6 1B78     		ldrb	r3, [r3]	@ zero_extendqisi2
 3103              		.loc 1 912 24
 3104 01b8 5A01     		lsls	r2, r3, #5
 3105 01ba BB69     		ldr	r3, [r7, #24]
 3106 01bc 1344     		add	r3, r3, r2
 3107 01be 03F53063 		add	r3, r3, #2816
 3108 01c2 9B68     		ldr	r3, [r3, #8]
 3109              		.loc 1 912 5
 3110 01c4 3A68     		ldr	r2, [r7]
 3111 01c6 1278     		ldrb	r2, [r2]	@ zero_extendqisi2
 3112              		.loc 1 912 24
 3113 01c8 5101     		lsls	r1, r2, #5
 3114 01ca BA69     		ldr	r2, [r7, #24]
 3115 01cc 0A44     		add	r2, r2, r1
 3116 01ce 02F53062 		add	r2, r2, #2816
 3117              		.loc 1 912 34
 3118 01d2 43F00203 		orr	r3, r3, #2
 3119 01d6 9360     		str	r3, [r2, #8]
 913:Drivers/STM32L4xx_HAL_Driver/Src/stm32l4xx_ll_usb.c **** 
 914:Drivers/STM32L4xx_HAL_Driver/Src/stm32l4xx_ll_usb.c ****     /* Clear Global OUT NAK */
 915:Drivers/STM32L4xx_HAL_Driver/Src/stm32l4xx_ll_usb.c ****     USBx_DEVICE->DCTL |= USB_OTG_DCTL_CGONAK;
 3120              		.loc 1 915 16
 3121 01d8 BB69     		ldr	r3, [r7, #24]
 3122 01da 03F50063 		add	r3, r3, #2048
 3123 01de 5B68     		ldr	r3, [r3, #4]
 3124 01e0 BA69     		ldr	r2, [r7, #24]
 3125 01e2 02F50062 		add	r2, r2, #2048
 3126              		.loc 1 915 23
 3127 01e6 43F48063 		orr	r3, r3, #1024
 3128 01ea 5360     		str	r3, [r2, #4]
 3129              	.L125:
 916:Drivers/STM32L4xx_HAL_Driver/Src/stm32l4xx_ll_usb.c ****   }
 917:Drivers/STM32L4xx_HAL_Driver/Src/stm32l4xx_ll_usb.c **** 
 918:Drivers/STM32L4xx_HAL_Driver/Src/stm32l4xx_ll_usb.c ****   return ret;
 3130              		.loc 1 918 10
 3131 01ec FB7F     		ldrb	r3, [r7, #31]	@ zero_extendqisi2
 919:Drivers/STM32L4xx_HAL_Driver/Src/stm32l4xx_ll_usb.c **** }
 3132              		.loc 1 919 1
 3133 01ee 1846     		mov	r0, r3
 3134 01f0 2437     		adds	r7, r7, #36
 3135              		.cfi_def_cfa_offset 4
 3136 01f2 BD46     		mov	sp, r7
ARM GAS  /tmp/cc3N4Hnz.s 			page 72


 3137              		.cfi_def_cfa_register 13
 3138              		@ sp needed
 3139 01f4 5DF8047B 		ldr	r7, [sp], #4
 3140              		.cfi_restore 7
 3141              		.cfi_def_cfa_offset 0
 3142 01f8 7047     		bx	lr
 3143              		.cfi_endproc
 3144              	.LFE460:
 3146              		.section	.text.USB_EPSetStall,"ax",%progbits
 3147              		.align	1
 3148              		.global	USB_EPSetStall
 3149              		.syntax unified
 3150              		.thumb
 3151              		.thumb_func
 3153              	USB_EPSetStall:
 3154              	.LFB461:
 920:Drivers/STM32L4xx_HAL_Driver/Src/stm32l4xx_ll_usb.c **** 
 921:Drivers/STM32L4xx_HAL_Driver/Src/stm32l4xx_ll_usb.c **** /**
 922:Drivers/STM32L4xx_HAL_Driver/Src/stm32l4xx_ll_usb.c ****   * @brief  USB_EPSetStall : set a stall condition over an EP
 923:Drivers/STM32L4xx_HAL_Driver/Src/stm32l4xx_ll_usb.c ****   * @param  USBx  Selected device
 924:Drivers/STM32L4xx_HAL_Driver/Src/stm32l4xx_ll_usb.c ****   * @param  ep pointer to endpoint structure
 925:Drivers/STM32L4xx_HAL_Driver/Src/stm32l4xx_ll_usb.c ****   * @retval HAL status
 926:Drivers/STM32L4xx_HAL_Driver/Src/stm32l4xx_ll_usb.c ****   */
 927:Drivers/STM32L4xx_HAL_Driver/Src/stm32l4xx_ll_usb.c **** HAL_StatusTypeDef USB_EPSetStall(const USB_OTG_GlobalTypeDef *USBx, const USB_OTG_EPTypeDef *ep)
 928:Drivers/STM32L4xx_HAL_Driver/Src/stm32l4xx_ll_usb.c **** {
 3155              		.loc 1 928 1
 3156              		.cfi_startproc
 3157              		@ args = 0, pretend = 0, frame = 16
 3158              		@ frame_needed = 1, uses_anonymous_args = 0
 3159              		@ link register save eliminated.
 3160 0000 80B4     		push	{r7}
 3161              		.cfi_def_cfa_offset 4
 3162              		.cfi_offset 7, -4
 3163 0002 85B0     		sub	sp, sp, #20
 3164              		.cfi_def_cfa_offset 24
 3165 0004 00AF     		add	r7, sp, #0
 3166              		.cfi_def_cfa_register 7
 3167 0006 7860     		str	r0, [r7, #4]
 3168 0008 3960     		str	r1, [r7]
 929:Drivers/STM32L4xx_HAL_Driver/Src/stm32l4xx_ll_usb.c ****   uint32_t USBx_BASE = (uint32_t)USBx;
 3169              		.loc 1 929 12
 3170 000a 7B68     		ldr	r3, [r7, #4]
 3171 000c FB60     		str	r3, [r7, #12]
 930:Drivers/STM32L4xx_HAL_Driver/Src/stm32l4xx_ll_usb.c ****   uint32_t epnum = (uint32_t)ep->num;
 3172              		.loc 1 930 32
 3173 000e 3B68     		ldr	r3, [r7]
 3174 0010 1B78     		ldrb	r3, [r3]	@ zero_extendqisi2
 3175              		.loc 1 930 12
 3176 0012 BB60     		str	r3, [r7, #8]
 931:Drivers/STM32L4xx_HAL_Driver/Src/stm32l4xx_ll_usb.c **** 
 932:Drivers/STM32L4xx_HAL_Driver/Src/stm32l4xx_ll_usb.c ****   if (ep->is_in == 1U)
 3177              		.loc 1 932 9
 3178 0014 3B68     		ldr	r3, [r7]
 3179 0016 5B78     		ldrb	r3, [r3, #1]	@ zero_extendqisi2
 3180              		.loc 1 932 6
 3181 0018 012B     		cmp	r3, #1
 3182 001a 2CD1     		bne	.L139
ARM GAS  /tmp/cc3N4Hnz.s 			page 73


 933:Drivers/STM32L4xx_HAL_Driver/Src/stm32l4xx_ll_usb.c ****   {
 934:Drivers/STM32L4xx_HAL_Driver/Src/stm32l4xx_ll_usb.c ****     if (((USBx_INEP(epnum)->DIEPCTL & USB_OTG_DIEPCTL_EPENA) == 0U) && (epnum != 0U))
 3183              		.loc 1 934 11
 3184 001c BB68     		ldr	r3, [r7, #8]
 3185 001e 5A01     		lsls	r2, r3, #5
 3186 0020 FB68     		ldr	r3, [r7, #12]
 3187 0022 1344     		add	r3, r3, r2
 3188 0024 03F51063 		add	r3, r3, #2304
 3189              		.loc 1 934 27
 3190 0028 1B68     		ldr	r3, [r3]
 3191              		.loc 1 934 8
 3192 002a 002B     		cmp	r3, #0
 3193 002c 12DB     		blt	.L140
 3194              		.loc 1 934 69 discriminator 1
 3195 002e BB68     		ldr	r3, [r7, #8]
 3196 0030 002B     		cmp	r3, #0
 3197 0032 0FD0     		beq	.L140
 935:Drivers/STM32L4xx_HAL_Driver/Src/stm32l4xx_ll_usb.c ****     {
 936:Drivers/STM32L4xx_HAL_Driver/Src/stm32l4xx_ll_usb.c ****       USBx_INEP(epnum)->DIEPCTL &= ~(USB_OTG_DIEPCTL_EPDIS);
 3198              		.loc 1 936 23
 3199 0034 BB68     		ldr	r3, [r7, #8]
 3200 0036 5A01     		lsls	r2, r3, #5
 3201 0038 FB68     		ldr	r3, [r7, #12]
 3202 003a 1344     		add	r3, r3, r2
 3203 003c 03F51063 		add	r3, r3, #2304
 3204 0040 1B68     		ldr	r3, [r3]
 3205 0042 BA68     		ldr	r2, [r7, #8]
 3206 0044 5101     		lsls	r1, r2, #5
 3207 0046 FA68     		ldr	r2, [r7, #12]
 3208 0048 0A44     		add	r2, r2, r1
 3209 004a 02F51062 		add	r2, r2, #2304
 3210              		.loc 1 936 33
 3211 004e 23F08043 		bic	r3, r3, #1073741824
 3212 0052 1360     		str	r3, [r2]
 3213              	.L140:
 937:Drivers/STM32L4xx_HAL_Driver/Src/stm32l4xx_ll_usb.c ****     }
 938:Drivers/STM32L4xx_HAL_Driver/Src/stm32l4xx_ll_usb.c ****     USBx_INEP(epnum)->DIEPCTL |= USB_OTG_DIEPCTL_STALL;
 3214              		.loc 1 938 21
 3215 0054 BB68     		ldr	r3, [r7, #8]
 3216 0056 5A01     		lsls	r2, r3, #5
 3217 0058 FB68     		ldr	r3, [r7, #12]
 3218 005a 1344     		add	r3, r3, r2
 3219 005c 03F51063 		add	r3, r3, #2304
 3220 0060 1B68     		ldr	r3, [r3]
 3221 0062 BA68     		ldr	r2, [r7, #8]
 3222 0064 5101     		lsls	r1, r2, #5
 3223 0066 FA68     		ldr	r2, [r7, #12]
 3224 0068 0A44     		add	r2, r2, r1
 3225 006a 02F51062 		add	r2, r2, #2304
 3226              		.loc 1 938 31
 3227 006e 43F40013 		orr	r3, r3, #2097152
 3228 0072 1360     		str	r3, [r2]
 3229 0074 2BE0     		b	.L141
 3230              	.L139:
 939:Drivers/STM32L4xx_HAL_Driver/Src/stm32l4xx_ll_usb.c ****   }
 940:Drivers/STM32L4xx_HAL_Driver/Src/stm32l4xx_ll_usb.c ****   else
 941:Drivers/STM32L4xx_HAL_Driver/Src/stm32l4xx_ll_usb.c ****   {
ARM GAS  /tmp/cc3N4Hnz.s 			page 74


 942:Drivers/STM32L4xx_HAL_Driver/Src/stm32l4xx_ll_usb.c ****     if (((USBx_OUTEP(epnum)->DOEPCTL & USB_OTG_DOEPCTL_EPENA) == 0U) && (epnum != 0U))
 3231              		.loc 1 942 11
 3232 0076 BB68     		ldr	r3, [r7, #8]
 3233 0078 5A01     		lsls	r2, r3, #5
 3234 007a FB68     		ldr	r3, [r7, #12]
 3235 007c 1344     		add	r3, r3, r2
 3236 007e 03F53063 		add	r3, r3, #2816
 3237              		.loc 1 942 28
 3238 0082 1B68     		ldr	r3, [r3]
 3239              		.loc 1 942 8
 3240 0084 002B     		cmp	r3, #0
 3241 0086 12DB     		blt	.L142
 3242              		.loc 1 942 70 discriminator 1
 3243 0088 BB68     		ldr	r3, [r7, #8]
 3244 008a 002B     		cmp	r3, #0
 3245 008c 0FD0     		beq	.L142
 943:Drivers/STM32L4xx_HAL_Driver/Src/stm32l4xx_ll_usb.c ****     {
 944:Drivers/STM32L4xx_HAL_Driver/Src/stm32l4xx_ll_usb.c ****       USBx_OUTEP(epnum)->DOEPCTL &= ~(USB_OTG_DOEPCTL_EPDIS);
 3246              		.loc 1 944 24
 3247 008e BB68     		ldr	r3, [r7, #8]
 3248 0090 5A01     		lsls	r2, r3, #5
 3249 0092 FB68     		ldr	r3, [r7, #12]
 3250 0094 1344     		add	r3, r3, r2
 3251 0096 03F53063 		add	r3, r3, #2816
 3252 009a 1B68     		ldr	r3, [r3]
 3253 009c BA68     		ldr	r2, [r7, #8]
 3254 009e 5101     		lsls	r1, r2, #5
 3255 00a0 FA68     		ldr	r2, [r7, #12]
 3256 00a2 0A44     		add	r2, r2, r1
 3257 00a4 02F53062 		add	r2, r2, #2816
 3258              		.loc 1 944 34
 3259 00a8 23F08043 		bic	r3, r3, #1073741824
 3260 00ac 1360     		str	r3, [r2]
 3261              	.L142:
 945:Drivers/STM32L4xx_HAL_Driver/Src/stm32l4xx_ll_usb.c ****     }
 946:Drivers/STM32L4xx_HAL_Driver/Src/stm32l4xx_ll_usb.c ****     USBx_OUTEP(epnum)->DOEPCTL |= USB_OTG_DOEPCTL_STALL;
 3262              		.loc 1 946 22
 3263 00ae BB68     		ldr	r3, [r7, #8]
 3264 00b0 5A01     		lsls	r2, r3, #5
 3265 00b2 FB68     		ldr	r3, [r7, #12]
 3266 00b4 1344     		add	r3, r3, r2
 3267 00b6 03F53063 		add	r3, r3, #2816
 3268 00ba 1B68     		ldr	r3, [r3]
 3269 00bc BA68     		ldr	r2, [r7, #8]
 3270 00be 5101     		lsls	r1, r2, #5
 3271 00c0 FA68     		ldr	r2, [r7, #12]
 3272 00c2 0A44     		add	r2, r2, r1
 3273 00c4 02F53062 		add	r2, r2, #2816
 3274              		.loc 1 946 32
 3275 00c8 43F40013 		orr	r3, r3, #2097152
 3276 00cc 1360     		str	r3, [r2]
 3277              	.L141:
 947:Drivers/STM32L4xx_HAL_Driver/Src/stm32l4xx_ll_usb.c ****   }
 948:Drivers/STM32L4xx_HAL_Driver/Src/stm32l4xx_ll_usb.c **** 
 949:Drivers/STM32L4xx_HAL_Driver/Src/stm32l4xx_ll_usb.c ****   return HAL_OK;
 3278              		.loc 1 949 10
 3279 00ce 0023     		movs	r3, #0
ARM GAS  /tmp/cc3N4Hnz.s 			page 75


 950:Drivers/STM32L4xx_HAL_Driver/Src/stm32l4xx_ll_usb.c **** }
 3280              		.loc 1 950 1
 3281 00d0 1846     		mov	r0, r3
 3282 00d2 1437     		adds	r7, r7, #20
 3283              		.cfi_def_cfa_offset 4
 3284 00d4 BD46     		mov	sp, r7
 3285              		.cfi_def_cfa_register 13
 3286              		@ sp needed
 3287 00d6 5DF8047B 		ldr	r7, [sp], #4
 3288              		.cfi_restore 7
 3289              		.cfi_def_cfa_offset 0
 3290 00da 7047     		bx	lr
 3291              		.cfi_endproc
 3292              	.LFE461:
 3294              		.section	.text.USB_EPClearStall,"ax",%progbits
 3295              		.align	1
 3296              		.global	USB_EPClearStall
 3297              		.syntax unified
 3298              		.thumb
 3299              		.thumb_func
 3301              	USB_EPClearStall:
 3302              	.LFB462:
 951:Drivers/STM32L4xx_HAL_Driver/Src/stm32l4xx_ll_usb.c **** 
 952:Drivers/STM32L4xx_HAL_Driver/Src/stm32l4xx_ll_usb.c **** /**
 953:Drivers/STM32L4xx_HAL_Driver/Src/stm32l4xx_ll_usb.c ****   * @brief  USB_EPClearStall : Clear a stall condition over an EP
 954:Drivers/STM32L4xx_HAL_Driver/Src/stm32l4xx_ll_usb.c ****   * @param  USBx  Selected device
 955:Drivers/STM32L4xx_HAL_Driver/Src/stm32l4xx_ll_usb.c ****   * @param  ep pointer to endpoint structure
 956:Drivers/STM32L4xx_HAL_Driver/Src/stm32l4xx_ll_usb.c ****   * @retval HAL status
 957:Drivers/STM32L4xx_HAL_Driver/Src/stm32l4xx_ll_usb.c ****   */
 958:Drivers/STM32L4xx_HAL_Driver/Src/stm32l4xx_ll_usb.c **** HAL_StatusTypeDef USB_EPClearStall(const USB_OTG_GlobalTypeDef *USBx, const USB_OTG_EPTypeDef *ep)
 959:Drivers/STM32L4xx_HAL_Driver/Src/stm32l4xx_ll_usb.c **** {
 3303              		.loc 1 959 1
 3304              		.cfi_startproc
 3305              		@ args = 0, pretend = 0, frame = 16
 3306              		@ frame_needed = 1, uses_anonymous_args = 0
 3307              		@ link register save eliminated.
 3308 0000 80B4     		push	{r7}
 3309              		.cfi_def_cfa_offset 4
 3310              		.cfi_offset 7, -4
 3311 0002 85B0     		sub	sp, sp, #20
 3312              		.cfi_def_cfa_offset 24
 3313 0004 00AF     		add	r7, sp, #0
 3314              		.cfi_def_cfa_register 7
 3315 0006 7860     		str	r0, [r7, #4]
 3316 0008 3960     		str	r1, [r7]
 960:Drivers/STM32L4xx_HAL_Driver/Src/stm32l4xx_ll_usb.c ****   uint32_t USBx_BASE = (uint32_t)USBx;
 3317              		.loc 1 960 12
 3318 000a 7B68     		ldr	r3, [r7, #4]
 3319 000c FB60     		str	r3, [r7, #12]
 961:Drivers/STM32L4xx_HAL_Driver/Src/stm32l4xx_ll_usb.c ****   uint32_t epnum = (uint32_t)ep->num;
 3320              		.loc 1 961 32
 3321 000e 3B68     		ldr	r3, [r7]
 3322 0010 1B78     		ldrb	r3, [r3]	@ zero_extendqisi2
 3323              		.loc 1 961 12
 3324 0012 BB60     		str	r3, [r7, #8]
 962:Drivers/STM32L4xx_HAL_Driver/Src/stm32l4xx_ll_usb.c **** 
 963:Drivers/STM32L4xx_HAL_Driver/Src/stm32l4xx_ll_usb.c ****   if (ep->is_in == 1U)
ARM GAS  /tmp/cc3N4Hnz.s 			page 76


 3325              		.loc 1 963 9
 3326 0014 3B68     		ldr	r3, [r7]
 3327 0016 5B78     		ldrb	r3, [r3, #1]	@ zero_extendqisi2
 3328              		.loc 1 963 6
 3329 0018 012B     		cmp	r3, #1
 3330 001a 28D1     		bne	.L145
 964:Drivers/STM32L4xx_HAL_Driver/Src/stm32l4xx_ll_usb.c ****   {
 965:Drivers/STM32L4xx_HAL_Driver/Src/stm32l4xx_ll_usb.c ****     USBx_INEP(epnum)->DIEPCTL &= ~USB_OTG_DIEPCTL_STALL;
 3331              		.loc 1 965 21
 3332 001c BB68     		ldr	r3, [r7, #8]
 3333 001e 5A01     		lsls	r2, r3, #5
 3334 0020 FB68     		ldr	r3, [r7, #12]
 3335 0022 1344     		add	r3, r3, r2
 3336 0024 03F51063 		add	r3, r3, #2304
 3337 0028 1B68     		ldr	r3, [r3]
 3338 002a BA68     		ldr	r2, [r7, #8]
 3339 002c 5101     		lsls	r1, r2, #5
 3340 002e FA68     		ldr	r2, [r7, #12]
 3341 0030 0A44     		add	r2, r2, r1
 3342 0032 02F51062 		add	r2, r2, #2304
 3343              		.loc 1 965 31
 3344 0036 23F40013 		bic	r3, r3, #2097152
 3345 003a 1360     		str	r3, [r2]
 966:Drivers/STM32L4xx_HAL_Driver/Src/stm32l4xx_ll_usb.c ****     if ((ep->type == EP_TYPE_INTR) || (ep->type == EP_TYPE_BULK))
 3346              		.loc 1 966 12
 3347 003c 3B68     		ldr	r3, [r7]
 3348 003e 1B79     		ldrb	r3, [r3, #4]	@ zero_extendqisi2
 3349              		.loc 1 966 8
 3350 0040 032B     		cmp	r3, #3
 3351 0042 03D0     		beq	.L146
 3352              		.loc 1 966 42 discriminator 1
 3353 0044 3B68     		ldr	r3, [r7]
 3354 0046 1B79     		ldrb	r3, [r3, #4]	@ zero_extendqisi2
 3355              		.loc 1 966 36 discriminator 1
 3356 0048 022B     		cmp	r3, #2
 3357 004a 38D1     		bne	.L147
 3358              	.L146:
 967:Drivers/STM32L4xx_HAL_Driver/Src/stm32l4xx_ll_usb.c ****     {
 968:Drivers/STM32L4xx_HAL_Driver/Src/stm32l4xx_ll_usb.c ****       USBx_INEP(epnum)->DIEPCTL |= USB_OTG_DIEPCTL_SD0PID_SEVNFRM; /* DATA0 */
 3359              		.loc 1 968 23
 3360 004c BB68     		ldr	r3, [r7, #8]
 3361 004e 5A01     		lsls	r2, r3, #5
 3362 0050 FB68     		ldr	r3, [r7, #12]
 3363 0052 1344     		add	r3, r3, r2
 3364 0054 03F51063 		add	r3, r3, #2304
 3365 0058 1B68     		ldr	r3, [r3]
 3366 005a BA68     		ldr	r2, [r7, #8]
 3367 005c 5101     		lsls	r1, r2, #5
 3368 005e FA68     		ldr	r2, [r7, #12]
 3369 0060 0A44     		add	r2, r2, r1
 3370 0062 02F51062 		add	r2, r2, #2304
 3371              		.loc 1 968 33
 3372 0066 43F08053 		orr	r3, r3, #268435456
 3373 006a 1360     		str	r3, [r2]
 3374 006c 27E0     		b	.L147
 3375              	.L145:
 969:Drivers/STM32L4xx_HAL_Driver/Src/stm32l4xx_ll_usb.c ****     }
ARM GAS  /tmp/cc3N4Hnz.s 			page 77


 970:Drivers/STM32L4xx_HAL_Driver/Src/stm32l4xx_ll_usb.c ****   }
 971:Drivers/STM32L4xx_HAL_Driver/Src/stm32l4xx_ll_usb.c ****   else
 972:Drivers/STM32L4xx_HAL_Driver/Src/stm32l4xx_ll_usb.c ****   {
 973:Drivers/STM32L4xx_HAL_Driver/Src/stm32l4xx_ll_usb.c ****     USBx_OUTEP(epnum)->DOEPCTL &= ~USB_OTG_DOEPCTL_STALL;
 3376              		.loc 1 973 22
 3377 006e BB68     		ldr	r3, [r7, #8]
 3378 0070 5A01     		lsls	r2, r3, #5
 3379 0072 FB68     		ldr	r3, [r7, #12]
 3380 0074 1344     		add	r3, r3, r2
 3381 0076 03F53063 		add	r3, r3, #2816
 3382 007a 1B68     		ldr	r3, [r3]
 3383 007c BA68     		ldr	r2, [r7, #8]
 3384 007e 5101     		lsls	r1, r2, #5
 3385 0080 FA68     		ldr	r2, [r7, #12]
 3386 0082 0A44     		add	r2, r2, r1
 3387 0084 02F53062 		add	r2, r2, #2816
 3388              		.loc 1 973 32
 3389 0088 23F40013 		bic	r3, r3, #2097152
 3390 008c 1360     		str	r3, [r2]
 974:Drivers/STM32L4xx_HAL_Driver/Src/stm32l4xx_ll_usb.c ****     if ((ep->type == EP_TYPE_INTR) || (ep->type == EP_TYPE_BULK))
 3391              		.loc 1 974 12
 3392 008e 3B68     		ldr	r3, [r7]
 3393 0090 1B79     		ldrb	r3, [r3, #4]	@ zero_extendqisi2
 3394              		.loc 1 974 8
 3395 0092 032B     		cmp	r3, #3
 3396 0094 03D0     		beq	.L148
 3397              		.loc 1 974 42 discriminator 1
 3398 0096 3B68     		ldr	r3, [r7]
 3399 0098 1B79     		ldrb	r3, [r3, #4]	@ zero_extendqisi2
 3400              		.loc 1 974 36 discriminator 1
 3401 009a 022B     		cmp	r3, #2
 3402 009c 0FD1     		bne	.L147
 3403              	.L148:
 975:Drivers/STM32L4xx_HAL_Driver/Src/stm32l4xx_ll_usb.c ****     {
 976:Drivers/STM32L4xx_HAL_Driver/Src/stm32l4xx_ll_usb.c ****       USBx_OUTEP(epnum)->DOEPCTL |= USB_OTG_DOEPCTL_SD0PID_SEVNFRM; /* DATA0 */
 3404              		.loc 1 976 24
 3405 009e BB68     		ldr	r3, [r7, #8]
 3406 00a0 5A01     		lsls	r2, r3, #5
 3407 00a2 FB68     		ldr	r3, [r7, #12]
 3408 00a4 1344     		add	r3, r3, r2
 3409 00a6 03F53063 		add	r3, r3, #2816
 3410 00aa 1B68     		ldr	r3, [r3]
 3411 00ac BA68     		ldr	r2, [r7, #8]
 3412 00ae 5101     		lsls	r1, r2, #5
 3413 00b0 FA68     		ldr	r2, [r7, #12]
 3414 00b2 0A44     		add	r2, r2, r1
 3415 00b4 02F53062 		add	r2, r2, #2816
 3416              		.loc 1 976 34
 3417 00b8 43F08053 		orr	r3, r3, #268435456
 3418 00bc 1360     		str	r3, [r2]
 3419              	.L147:
 977:Drivers/STM32L4xx_HAL_Driver/Src/stm32l4xx_ll_usb.c ****     }
 978:Drivers/STM32L4xx_HAL_Driver/Src/stm32l4xx_ll_usb.c ****   }
 979:Drivers/STM32L4xx_HAL_Driver/Src/stm32l4xx_ll_usb.c ****   return HAL_OK;
 3420              		.loc 1 979 10
 3421 00be 0023     		movs	r3, #0
 980:Drivers/STM32L4xx_HAL_Driver/Src/stm32l4xx_ll_usb.c **** }
ARM GAS  /tmp/cc3N4Hnz.s 			page 78


 3422              		.loc 1 980 1
 3423 00c0 1846     		mov	r0, r3
 3424 00c2 1437     		adds	r7, r7, #20
 3425              		.cfi_def_cfa_offset 4
 3426 00c4 BD46     		mov	sp, r7
 3427              		.cfi_def_cfa_register 13
 3428              		@ sp needed
 3429 00c6 5DF8047B 		ldr	r7, [sp], #4
 3430              		.cfi_restore 7
 3431              		.cfi_def_cfa_offset 0
 3432 00ca 7047     		bx	lr
 3433              		.cfi_endproc
 3434              	.LFE462:
 3436              		.section	.text.USB_WritePacket,"ax",%progbits
 3437              		.align	1
 3438              		.global	USB_WritePacket
 3439              		.syntax unified
 3440              		.thumb
 3441              		.thumb_func
 3443              	USB_WritePacket:
 3444              	.LFB463:
 981:Drivers/STM32L4xx_HAL_Driver/Src/stm32l4xx_ll_usb.c **** #endif /* defined (HAL_PCD_MODULE_ENABLED) */
 982:Drivers/STM32L4xx_HAL_Driver/Src/stm32l4xx_ll_usb.c **** 
 983:Drivers/STM32L4xx_HAL_Driver/Src/stm32l4xx_ll_usb.c **** /**
 984:Drivers/STM32L4xx_HAL_Driver/Src/stm32l4xx_ll_usb.c ****   * @brief  USB_WritePacket : Writes a packet into the Tx FIFO associated
 985:Drivers/STM32L4xx_HAL_Driver/Src/stm32l4xx_ll_usb.c ****   *         with the EP/channel
 986:Drivers/STM32L4xx_HAL_Driver/Src/stm32l4xx_ll_usb.c ****   * @param  USBx  Selected device
 987:Drivers/STM32L4xx_HAL_Driver/Src/stm32l4xx_ll_usb.c ****   * @param  src   pointer to source buffer
 988:Drivers/STM32L4xx_HAL_Driver/Src/stm32l4xx_ll_usb.c ****   * @param  ch_ep_num  endpoint or host channel number
 989:Drivers/STM32L4xx_HAL_Driver/Src/stm32l4xx_ll_usb.c ****   * @param  len  Number of bytes to write
 990:Drivers/STM32L4xx_HAL_Driver/Src/stm32l4xx_ll_usb.c ****   * @retval HAL status
 991:Drivers/STM32L4xx_HAL_Driver/Src/stm32l4xx_ll_usb.c ****   */
 992:Drivers/STM32L4xx_HAL_Driver/Src/stm32l4xx_ll_usb.c **** HAL_StatusTypeDef USB_WritePacket(const USB_OTG_GlobalTypeDef *USBx, uint8_t *src,
 993:Drivers/STM32L4xx_HAL_Driver/Src/stm32l4xx_ll_usb.c ****                                   uint8_t ch_ep_num, uint16_t len)
 994:Drivers/STM32L4xx_HAL_Driver/Src/stm32l4xx_ll_usb.c **** {
 3445              		.loc 1 994 1
 3446              		.cfi_startproc
 3447              		@ args = 0, pretend = 0, frame = 32
 3448              		@ frame_needed = 1, uses_anonymous_args = 0
 3449              		@ link register save eliminated.
 3450 0000 80B4     		push	{r7}
 3451              		.cfi_def_cfa_offset 4
 3452              		.cfi_offset 7, -4
 3453 0002 89B0     		sub	sp, sp, #36
 3454              		.cfi_def_cfa_offset 40
 3455 0004 00AF     		add	r7, sp, #0
 3456              		.cfi_def_cfa_register 7
 3457 0006 F860     		str	r0, [r7, #12]
 3458 0008 B960     		str	r1, [r7, #8]
 3459 000a 1146     		mov	r1, r2
 3460 000c 1A46     		mov	r2, r3
 3461 000e 0B46     		mov	r3, r1
 3462 0010 FB71     		strb	r3, [r7, #7]
 3463 0012 1346     		mov	r3, r2	@ movhi
 3464 0014 BB80     		strh	r3, [r7, #4]	@ movhi
 995:Drivers/STM32L4xx_HAL_Driver/Src/stm32l4xx_ll_usb.c ****   uint32_t USBx_BASE = (uint32_t)USBx;
 3465              		.loc 1 995 12
ARM GAS  /tmp/cc3N4Hnz.s 			page 79


 3466 0016 FB68     		ldr	r3, [r7, #12]
 3467 0018 7B61     		str	r3, [r7, #20]
 996:Drivers/STM32L4xx_HAL_Driver/Src/stm32l4xx_ll_usb.c ****   uint8_t *pSrc = src;
 3468              		.loc 1 996 12
 3469 001a BB68     		ldr	r3, [r7, #8]
 3470 001c FB61     		str	r3, [r7, #28]
 997:Drivers/STM32L4xx_HAL_Driver/Src/stm32l4xx_ll_usb.c ****   uint32_t count32b;
 998:Drivers/STM32L4xx_HAL_Driver/Src/stm32l4xx_ll_usb.c ****   uint32_t i;
 999:Drivers/STM32L4xx_HAL_Driver/Src/stm32l4xx_ll_usb.c **** 
1000:Drivers/STM32L4xx_HAL_Driver/Src/stm32l4xx_ll_usb.c ****   count32b = ((uint32_t)len + 3U) / 4U;
 3471              		.loc 1 1000 15
 3472 001e BB88     		ldrh	r3, [r7, #4]
 3473              		.loc 1 1000 29
 3474 0020 0333     		adds	r3, r3, #3
 3475              		.loc 1 1000 12
 3476 0022 9B08     		lsrs	r3, r3, #2
 3477 0024 3B61     		str	r3, [r7, #16]
1001:Drivers/STM32L4xx_HAL_Driver/Src/stm32l4xx_ll_usb.c ****   for (i = 0U; i < count32b; i++)
 3478              		.loc 1 1001 10
 3479 0026 0023     		movs	r3, #0
 3480 0028 BB61     		str	r3, [r7, #24]
 3481              		.loc 1 1001 3
 3482 002a 18E0     		b	.L151
 3483              	.L152:
1002:Drivers/STM32L4xx_HAL_Driver/Src/stm32l4xx_ll_usb.c ****   {
1003:Drivers/STM32L4xx_HAL_Driver/Src/stm32l4xx_ll_usb.c ****     USBx_DFIFO((uint32_t)ch_ep_num) = __UNALIGNED_UINT32_READ(pSrc);
 3484              		.loc 1 1003 5
 3485 002c FB79     		ldrb	r3, [r7, #7]	@ zero_extendqisi2
 3486 002e 1A03     		lsls	r2, r3, #12
 3487 0030 7B69     		ldr	r3, [r7, #20]
 3488 0032 1344     		add	r3, r3, r2
 3489 0034 03F58053 		add	r3, r3, #4096
 3490 0038 1A46     		mov	r2, r3
 3491              		.loc 1 1003 39
 3492 003a FB69     		ldr	r3, [r7, #28]
 3493 003c 1B68     		ldr	r3, [r3]	@ unaligned
 3494              		.loc 1 1003 37
 3495 003e 1360     		str	r3, [r2]
1004:Drivers/STM32L4xx_HAL_Driver/Src/stm32l4xx_ll_usb.c ****     pSrc++;
 3496              		.loc 1 1004 9
 3497 0040 FB69     		ldr	r3, [r7, #28]
 3498 0042 0133     		adds	r3, r3, #1
 3499 0044 FB61     		str	r3, [r7, #28]
1005:Drivers/STM32L4xx_HAL_Driver/Src/stm32l4xx_ll_usb.c ****     pSrc++;
 3500              		.loc 1 1005 9
 3501 0046 FB69     		ldr	r3, [r7, #28]
 3502 0048 0133     		adds	r3, r3, #1
 3503 004a FB61     		str	r3, [r7, #28]
1006:Drivers/STM32L4xx_HAL_Driver/Src/stm32l4xx_ll_usb.c ****     pSrc++;
 3504              		.loc 1 1006 9
 3505 004c FB69     		ldr	r3, [r7, #28]
 3506 004e 0133     		adds	r3, r3, #1
 3507 0050 FB61     		str	r3, [r7, #28]
1007:Drivers/STM32L4xx_HAL_Driver/Src/stm32l4xx_ll_usb.c ****     pSrc++;
 3508              		.loc 1 1007 9
 3509 0052 FB69     		ldr	r3, [r7, #28]
 3510 0054 0133     		adds	r3, r3, #1
ARM GAS  /tmp/cc3N4Hnz.s 			page 80


 3511 0056 FB61     		str	r3, [r7, #28]
1001:Drivers/STM32L4xx_HAL_Driver/Src/stm32l4xx_ll_usb.c ****   {
 3512              		.loc 1 1001 31 discriminator 3
 3513 0058 BB69     		ldr	r3, [r7, #24]
 3514 005a 0133     		adds	r3, r3, #1
 3515 005c BB61     		str	r3, [r7, #24]
 3516              	.L151:
1001:Drivers/STM32L4xx_HAL_Driver/Src/stm32l4xx_ll_usb.c ****   {
 3517              		.loc 1 1001 18 discriminator 1
 3518 005e BA69     		ldr	r2, [r7, #24]
 3519 0060 3B69     		ldr	r3, [r7, #16]
 3520 0062 9A42     		cmp	r2, r3
 3521 0064 E2D3     		bcc	.L152
1008:Drivers/STM32L4xx_HAL_Driver/Src/stm32l4xx_ll_usb.c ****   }
1009:Drivers/STM32L4xx_HAL_Driver/Src/stm32l4xx_ll_usb.c **** 
1010:Drivers/STM32L4xx_HAL_Driver/Src/stm32l4xx_ll_usb.c ****   return HAL_OK;
 3522              		.loc 1 1010 10
 3523 0066 0023     		movs	r3, #0
1011:Drivers/STM32L4xx_HAL_Driver/Src/stm32l4xx_ll_usb.c **** }
 3524              		.loc 1 1011 1
 3525 0068 1846     		mov	r0, r3
 3526 006a 2437     		adds	r7, r7, #36
 3527              		.cfi_def_cfa_offset 4
 3528 006c BD46     		mov	sp, r7
 3529              		.cfi_def_cfa_register 13
 3530              		@ sp needed
 3531 006e 5DF8047B 		ldr	r7, [sp], #4
 3532              		.cfi_restore 7
 3533              		.cfi_def_cfa_offset 0
 3534 0072 7047     		bx	lr
 3535              		.cfi_endproc
 3536              	.LFE463:
 3538              		.section	.text.USB_ReadPacket,"ax",%progbits
 3539              		.align	1
 3540              		.global	USB_ReadPacket
 3541              		.syntax unified
 3542              		.thumb
 3543              		.thumb_func
 3545              	USB_ReadPacket:
 3546              	.LFB464:
1012:Drivers/STM32L4xx_HAL_Driver/Src/stm32l4xx_ll_usb.c **** 
1013:Drivers/STM32L4xx_HAL_Driver/Src/stm32l4xx_ll_usb.c **** /**
1014:Drivers/STM32L4xx_HAL_Driver/Src/stm32l4xx_ll_usb.c ****   * @brief  USB_ReadPacket : read a packet from the RX FIFO
1015:Drivers/STM32L4xx_HAL_Driver/Src/stm32l4xx_ll_usb.c ****   * @param  USBx  Selected device
1016:Drivers/STM32L4xx_HAL_Driver/Src/stm32l4xx_ll_usb.c ****   * @param  dest  source pointer
1017:Drivers/STM32L4xx_HAL_Driver/Src/stm32l4xx_ll_usb.c ****   * @param  len  Number of bytes to read
1018:Drivers/STM32L4xx_HAL_Driver/Src/stm32l4xx_ll_usb.c ****   * @retval pointer to destination buffer
1019:Drivers/STM32L4xx_HAL_Driver/Src/stm32l4xx_ll_usb.c ****   */
1020:Drivers/STM32L4xx_HAL_Driver/Src/stm32l4xx_ll_usb.c **** void *USB_ReadPacket(const USB_OTG_GlobalTypeDef *USBx, uint8_t *dest, uint16_t len)
1021:Drivers/STM32L4xx_HAL_Driver/Src/stm32l4xx_ll_usb.c **** {
 3547              		.loc 1 1021 1
 3548              		.cfi_startproc
 3549              		@ args = 0, pretend = 0, frame = 40
 3550              		@ frame_needed = 1, uses_anonymous_args = 0
 3551              		@ link register save eliminated.
 3552 0000 80B4     		push	{r7}
 3553              		.cfi_def_cfa_offset 4
ARM GAS  /tmp/cc3N4Hnz.s 			page 81


 3554              		.cfi_offset 7, -4
 3555 0002 8BB0     		sub	sp, sp, #44
 3556              		.cfi_def_cfa_offset 48
 3557 0004 00AF     		add	r7, sp, #0
 3558              		.cfi_def_cfa_register 7
 3559 0006 F860     		str	r0, [r7, #12]
 3560 0008 B960     		str	r1, [r7, #8]
 3561 000a 1346     		mov	r3, r2
 3562 000c FB80     		strh	r3, [r7, #6]	@ movhi
1022:Drivers/STM32L4xx_HAL_Driver/Src/stm32l4xx_ll_usb.c ****   uint32_t USBx_BASE = (uint32_t)USBx;
 3563              		.loc 1 1022 12
 3564 000e FB68     		ldr	r3, [r7, #12]
 3565 0010 BB61     		str	r3, [r7, #24]
1023:Drivers/STM32L4xx_HAL_Driver/Src/stm32l4xx_ll_usb.c ****   uint8_t *pDest = dest;
 3566              		.loc 1 1023 12
 3567 0012 BB68     		ldr	r3, [r7, #8]
 3568 0014 7B62     		str	r3, [r7, #36]
1024:Drivers/STM32L4xx_HAL_Driver/Src/stm32l4xx_ll_usb.c ****   uint32_t pData;
1025:Drivers/STM32L4xx_HAL_Driver/Src/stm32l4xx_ll_usb.c ****   uint32_t i;
1026:Drivers/STM32L4xx_HAL_Driver/Src/stm32l4xx_ll_usb.c ****   uint32_t count32b = (uint32_t)len >> 2U;
 3569              		.loc 1 1026 37
 3570 0016 FB88     		ldrh	r3, [r7, #6]
 3571 0018 9B08     		lsrs	r3, r3, #2
 3572 001a 9BB2     		uxth	r3, r3
 3573              		.loc 1 1026 12
 3574 001c 7B61     		str	r3, [r7, #20]
1027:Drivers/STM32L4xx_HAL_Driver/Src/stm32l4xx_ll_usb.c ****   uint16_t remaining_bytes = len % 4U;
 3575              		.loc 1 1027 12
 3576 001e FB88     		ldrh	r3, [r7, #6]	@ movhi
 3577 0020 03F00303 		and	r3, r3, #3
 3578 0024 FB83     		strh	r3, [r7, #30]	@ movhi
1028:Drivers/STM32L4xx_HAL_Driver/Src/stm32l4xx_ll_usb.c **** 
1029:Drivers/STM32L4xx_HAL_Driver/Src/stm32l4xx_ll_usb.c ****   for (i = 0U; i < count32b; i++)
 3579              		.loc 1 1029 10
 3580 0026 0023     		movs	r3, #0
 3581 0028 3B62     		str	r3, [r7, #32]
 3582              		.loc 1 1029 3
 3583 002a 14E0     		b	.L155
 3584              	.L156:
1030:Drivers/STM32L4xx_HAL_Driver/Src/stm32l4xx_ll_usb.c ****   {
1031:Drivers/STM32L4xx_HAL_Driver/Src/stm32l4xx_ll_usb.c ****     __UNALIGNED_UINT32_WRITE(pDest, USBx_DFIFO(0U));
 3585              		.loc 1 1031 5
 3586 002c BB69     		ldr	r3, [r7, #24]
 3587 002e 03F58053 		add	r3, r3, #4096
 3588 0032 1A68     		ldr	r2, [r3]
 3589 0034 7B6A     		ldr	r3, [r7, #36]
 3590 0036 1A60     		str	r2, [r3]	@ unaligned
1032:Drivers/STM32L4xx_HAL_Driver/Src/stm32l4xx_ll_usb.c ****     pDest++;
 3591              		.loc 1 1032 10
 3592 0038 7B6A     		ldr	r3, [r7, #36]
 3593 003a 0133     		adds	r3, r3, #1
 3594 003c 7B62     		str	r3, [r7, #36]
1033:Drivers/STM32L4xx_HAL_Driver/Src/stm32l4xx_ll_usb.c ****     pDest++;
 3595              		.loc 1 1033 10
 3596 003e 7B6A     		ldr	r3, [r7, #36]
 3597 0040 0133     		adds	r3, r3, #1
 3598 0042 7B62     		str	r3, [r7, #36]
ARM GAS  /tmp/cc3N4Hnz.s 			page 82


1034:Drivers/STM32L4xx_HAL_Driver/Src/stm32l4xx_ll_usb.c ****     pDest++;
 3599              		.loc 1 1034 10
 3600 0044 7B6A     		ldr	r3, [r7, #36]
 3601 0046 0133     		adds	r3, r3, #1
 3602 0048 7B62     		str	r3, [r7, #36]
1035:Drivers/STM32L4xx_HAL_Driver/Src/stm32l4xx_ll_usb.c ****     pDest++;
 3603              		.loc 1 1035 10
 3604 004a 7B6A     		ldr	r3, [r7, #36]
 3605 004c 0133     		adds	r3, r3, #1
 3606 004e 7B62     		str	r3, [r7, #36]
1029:Drivers/STM32L4xx_HAL_Driver/Src/stm32l4xx_ll_usb.c ****   {
 3607              		.loc 1 1029 31 discriminator 3
 3608 0050 3B6A     		ldr	r3, [r7, #32]
 3609 0052 0133     		adds	r3, r3, #1
 3610 0054 3B62     		str	r3, [r7, #32]
 3611              	.L155:
1029:Drivers/STM32L4xx_HAL_Driver/Src/stm32l4xx_ll_usb.c ****   {
 3612              		.loc 1 1029 18 discriminator 1
 3613 0056 3A6A     		ldr	r2, [r7, #32]
 3614 0058 7B69     		ldr	r3, [r7, #20]
 3615 005a 9A42     		cmp	r2, r3
 3616 005c E6D3     		bcc	.L156
1036:Drivers/STM32L4xx_HAL_Driver/Src/stm32l4xx_ll_usb.c ****   }
1037:Drivers/STM32L4xx_HAL_Driver/Src/stm32l4xx_ll_usb.c **** 
1038:Drivers/STM32L4xx_HAL_Driver/Src/stm32l4xx_ll_usb.c ****   /* When Number of data is not word aligned, read the remaining byte */
1039:Drivers/STM32L4xx_HAL_Driver/Src/stm32l4xx_ll_usb.c ****   if (remaining_bytes != 0U)
 3617              		.loc 1 1039 6
 3618 005e FB8B     		ldrh	r3, [r7, #30]
 3619 0060 002B     		cmp	r3, #0
 3620 0062 1ED0     		beq	.L157
1040:Drivers/STM32L4xx_HAL_Driver/Src/stm32l4xx_ll_usb.c ****   {
1041:Drivers/STM32L4xx_HAL_Driver/Src/stm32l4xx_ll_usb.c ****     i = 0U;
 3621              		.loc 1 1041 7
 3622 0064 0023     		movs	r3, #0
 3623 0066 3B62     		str	r3, [r7, #32]
1042:Drivers/STM32L4xx_HAL_Driver/Src/stm32l4xx_ll_usb.c ****     __UNALIGNED_UINT32_WRITE(&pData, USBx_DFIFO(0U));
 3624              		.loc 1 1042 5
 3625 0068 BB69     		ldr	r3, [r7, #24]
 3626 006a 03F58053 		add	r3, r3, #4096
 3627 006e 1A46     		mov	r2, r3
 3628 0070 07F11003 		add	r3, r7, #16
 3629 0074 1268     		ldr	r2, [r2]
 3630 0076 1A60     		str	r2, [r3]	@ unaligned
 3631              	.L158:
1043:Drivers/STM32L4xx_HAL_Driver/Src/stm32l4xx_ll_usb.c **** 
1044:Drivers/STM32L4xx_HAL_Driver/Src/stm32l4xx_ll_usb.c ****     do
1045:Drivers/STM32L4xx_HAL_Driver/Src/stm32l4xx_ll_usb.c ****     {
1046:Drivers/STM32L4xx_HAL_Driver/Src/stm32l4xx_ll_usb.c ****       *(uint8_t *)pDest = (uint8_t)(pData >> (8U * (uint8_t)(i)));
 3632              		.loc 1 1046 43
 3633 0078 3A69     		ldr	r2, [r7, #16]
 3634              		.loc 1 1046 52
 3635 007a 3B6A     		ldr	r3, [r7, #32]
 3636 007c DBB2     		uxtb	r3, r3
 3637              		.loc 1 1046 50
 3638 007e DB00     		lsls	r3, r3, #3
 3639              		.loc 1 1046 43
 3640 0080 22FA03F3 		lsr	r3, r2, r3
ARM GAS  /tmp/cc3N4Hnz.s 			page 83


 3641              		.loc 1 1046 27
 3642 0084 DAB2     		uxtb	r2, r3
 3643              		.loc 1 1046 25
 3644 0086 7B6A     		ldr	r3, [r7, #36]
 3645 0088 1A70     		strb	r2, [r3]
1047:Drivers/STM32L4xx_HAL_Driver/Src/stm32l4xx_ll_usb.c ****       i++;
 3646              		.loc 1 1047 8
 3647 008a 3B6A     		ldr	r3, [r7, #32]
 3648 008c 0133     		adds	r3, r3, #1
 3649 008e 3B62     		str	r3, [r7, #32]
1048:Drivers/STM32L4xx_HAL_Driver/Src/stm32l4xx_ll_usb.c ****       pDest++;
 3650              		.loc 1 1048 12
 3651 0090 7B6A     		ldr	r3, [r7, #36]
 3652 0092 0133     		adds	r3, r3, #1
 3653 0094 7B62     		str	r3, [r7, #36]
1049:Drivers/STM32L4xx_HAL_Driver/Src/stm32l4xx_ll_usb.c ****       remaining_bytes--;
 3654              		.loc 1 1049 22
 3655 0096 FB8B     		ldrh	r3, [r7, #30]
 3656 0098 013B     		subs	r3, r3, #1
 3657 009a FB83     		strh	r3, [r7, #30]	@ movhi
1050:Drivers/STM32L4xx_HAL_Driver/Src/stm32l4xx_ll_usb.c ****     } while (remaining_bytes != 0U);
 3658              		.loc 1 1050 30 discriminator 1
 3659 009c FB8B     		ldrh	r3, [r7, #30]
 3660 009e 002B     		cmp	r3, #0
 3661 00a0 EAD1     		bne	.L158
 3662              	.L157:
1051:Drivers/STM32L4xx_HAL_Driver/Src/stm32l4xx_ll_usb.c ****   }
1052:Drivers/STM32L4xx_HAL_Driver/Src/stm32l4xx_ll_usb.c **** 
1053:Drivers/STM32L4xx_HAL_Driver/Src/stm32l4xx_ll_usb.c ****   return ((void *)pDest);
 3663              		.loc 1 1053 11
 3664 00a2 7B6A     		ldr	r3, [r7, #36]
1054:Drivers/STM32L4xx_HAL_Driver/Src/stm32l4xx_ll_usb.c **** }
 3665              		.loc 1 1054 1
 3666 00a4 1846     		mov	r0, r3
 3667 00a6 2C37     		adds	r7, r7, #44
 3668              		.cfi_def_cfa_offset 4
 3669 00a8 BD46     		mov	sp, r7
 3670              		.cfi_def_cfa_register 13
 3671              		@ sp needed
 3672 00aa 5DF8047B 		ldr	r7, [sp], #4
 3673              		.cfi_restore 7
 3674              		.cfi_def_cfa_offset 0
 3675 00ae 7047     		bx	lr
 3676              		.cfi_endproc
 3677              	.LFE464:
 3679              		.section	.text.USB_StopDevice,"ax",%progbits
 3680              		.align	1
 3681              		.global	USB_StopDevice
 3682              		.syntax unified
 3683              		.thumb
 3684              		.thumb_func
 3686              	USB_StopDevice:
 3687              	.LFB465:
1055:Drivers/STM32L4xx_HAL_Driver/Src/stm32l4xx_ll_usb.c **** 
1056:Drivers/STM32L4xx_HAL_Driver/Src/stm32l4xx_ll_usb.c **** /**
1057:Drivers/STM32L4xx_HAL_Driver/Src/stm32l4xx_ll_usb.c ****   * @brief  USB_StopDevice : Stop the usb device mode
1058:Drivers/STM32L4xx_HAL_Driver/Src/stm32l4xx_ll_usb.c ****   * @param  USBx  Selected device
ARM GAS  /tmp/cc3N4Hnz.s 			page 84


1059:Drivers/STM32L4xx_HAL_Driver/Src/stm32l4xx_ll_usb.c ****   * @retval HAL status
1060:Drivers/STM32L4xx_HAL_Driver/Src/stm32l4xx_ll_usb.c ****   */
1061:Drivers/STM32L4xx_HAL_Driver/Src/stm32l4xx_ll_usb.c **** HAL_StatusTypeDef USB_StopDevice(USB_OTG_GlobalTypeDef *USBx)
1062:Drivers/STM32L4xx_HAL_Driver/Src/stm32l4xx_ll_usb.c **** {
 3688              		.loc 1 1062 1
 3689              		.cfi_startproc
 3690              		@ args = 0, pretend = 0, frame = 24
 3691              		@ frame_needed = 1, uses_anonymous_args = 0
 3692 0000 80B5     		push	{r7, lr}
 3693              		.cfi_def_cfa_offset 8
 3694              		.cfi_offset 7, -8
 3695              		.cfi_offset 14, -4
 3696 0002 86B0     		sub	sp, sp, #24
 3697              		.cfi_def_cfa_offset 32
 3698 0004 00AF     		add	r7, sp, #0
 3699              		.cfi_def_cfa_register 7
 3700 0006 7860     		str	r0, [r7, #4]
1063:Drivers/STM32L4xx_HAL_Driver/Src/stm32l4xx_ll_usb.c ****   HAL_StatusTypeDef ret;
1064:Drivers/STM32L4xx_HAL_Driver/Src/stm32l4xx_ll_usb.c ****   uint32_t USBx_BASE = (uint32_t)USBx;
 3701              		.loc 1 1064 12
 3702 0008 7B68     		ldr	r3, [r7, #4]
 3703 000a 3B61     		str	r3, [r7, #16]
1065:Drivers/STM32L4xx_HAL_Driver/Src/stm32l4xx_ll_usb.c ****   uint32_t i;
1066:Drivers/STM32L4xx_HAL_Driver/Src/stm32l4xx_ll_usb.c **** 
1067:Drivers/STM32L4xx_HAL_Driver/Src/stm32l4xx_ll_usb.c ****   /* Clear Pending interrupt */
1068:Drivers/STM32L4xx_HAL_Driver/Src/stm32l4xx_ll_usb.c ****   for (i = 0U; i < 15U; i++)
 3704              		.loc 1 1068 10
 3705 000c 0023     		movs	r3, #0
 3706 000e 7B61     		str	r3, [r7, #20]
 3707              		.loc 1 1068 3
 3708 0010 16E0     		b	.L161
 3709              	.L162:
1069:Drivers/STM32L4xx_HAL_Driver/Src/stm32l4xx_ll_usb.c ****   {
1070:Drivers/STM32L4xx_HAL_Driver/Src/stm32l4xx_ll_usb.c ****     USBx_INEP(i)->DIEPINT = 0xFB7FU;
 3710              		.loc 1 1070 5
 3711 0012 7B69     		ldr	r3, [r7, #20]
 3712 0014 5A01     		lsls	r2, r3, #5
 3713 0016 3B69     		ldr	r3, [r7, #16]
 3714 0018 1344     		add	r3, r3, r2
 3715 001a 03F51063 		add	r3, r3, #2304
 3716 001e 1A46     		mov	r2, r3
 3717              		.loc 1 1070 27
 3718 0020 4FF67F33 		movw	r3, #64383
 3719 0024 9360     		str	r3, [r2, #8]
1071:Drivers/STM32L4xx_HAL_Driver/Src/stm32l4xx_ll_usb.c ****     USBx_OUTEP(i)->DOEPINT = 0xFB7FU;
 3720              		.loc 1 1071 5
 3721 0026 7B69     		ldr	r3, [r7, #20]
 3722 0028 5A01     		lsls	r2, r3, #5
 3723 002a 3B69     		ldr	r3, [r7, #16]
 3724 002c 1344     		add	r3, r3, r2
 3725 002e 03F53063 		add	r3, r3, #2816
 3726 0032 1A46     		mov	r2, r3
 3727              		.loc 1 1071 28
 3728 0034 4FF67F33 		movw	r3, #64383
 3729 0038 9360     		str	r3, [r2, #8]
1068:Drivers/STM32L4xx_HAL_Driver/Src/stm32l4xx_ll_usb.c ****   {
 3730              		.loc 1 1068 26 discriminator 3
ARM GAS  /tmp/cc3N4Hnz.s 			page 85


 3731 003a 7B69     		ldr	r3, [r7, #20]
 3732 003c 0133     		adds	r3, r3, #1
 3733 003e 7B61     		str	r3, [r7, #20]
 3734              	.L161:
1068:Drivers/STM32L4xx_HAL_Driver/Src/stm32l4xx_ll_usb.c ****   {
 3735              		.loc 1 1068 18 discriminator 1
 3736 0040 7B69     		ldr	r3, [r7, #20]
 3737 0042 0E2B     		cmp	r3, #14
 3738 0044 E5D9     		bls	.L162
1072:Drivers/STM32L4xx_HAL_Driver/Src/stm32l4xx_ll_usb.c ****   }
1073:Drivers/STM32L4xx_HAL_Driver/Src/stm32l4xx_ll_usb.c **** 
1074:Drivers/STM32L4xx_HAL_Driver/Src/stm32l4xx_ll_usb.c ****   /* Clear interrupt masks */
1075:Drivers/STM32L4xx_HAL_Driver/Src/stm32l4xx_ll_usb.c ****   USBx_DEVICE->DIEPMSK  = 0U;
 3739              		.loc 1 1075 3
 3740 0046 3B69     		ldr	r3, [r7, #16]
 3741 0048 03F50063 		add	r3, r3, #2048
 3742 004c 1A46     		mov	r2, r3
 3743              		.loc 1 1075 25
 3744 004e 0023     		movs	r3, #0
 3745 0050 1361     		str	r3, [r2, #16]
1076:Drivers/STM32L4xx_HAL_Driver/Src/stm32l4xx_ll_usb.c ****   USBx_DEVICE->DOEPMSK  = 0U;
 3746              		.loc 1 1076 3
 3747 0052 3B69     		ldr	r3, [r7, #16]
 3748 0054 03F50063 		add	r3, r3, #2048
 3749 0058 1A46     		mov	r2, r3
 3750              		.loc 1 1076 25
 3751 005a 0023     		movs	r3, #0
 3752 005c 5361     		str	r3, [r2, #20]
1077:Drivers/STM32L4xx_HAL_Driver/Src/stm32l4xx_ll_usb.c ****   USBx_DEVICE->DAINTMSK = 0U;
 3753              		.loc 1 1077 3
 3754 005e 3B69     		ldr	r3, [r7, #16]
 3755 0060 03F50063 		add	r3, r3, #2048
 3756 0064 1A46     		mov	r2, r3
 3757              		.loc 1 1077 25
 3758 0066 0023     		movs	r3, #0
 3759 0068 D361     		str	r3, [r2, #28]
1078:Drivers/STM32L4xx_HAL_Driver/Src/stm32l4xx_ll_usb.c **** 
1079:Drivers/STM32L4xx_HAL_Driver/Src/stm32l4xx_ll_usb.c ****   /* Flush the FIFO */
1080:Drivers/STM32L4xx_HAL_Driver/Src/stm32l4xx_ll_usb.c ****   ret = USB_FlushRxFifo(USBx);
 3760              		.loc 1 1080 9
 3761 006a 7868     		ldr	r0, [r7, #4]
 3762 006c FFF7FEFF 		bl	USB_FlushRxFifo
 3763 0070 0346     		mov	r3, r0
 3764 0072 FB73     		strb	r3, [r7, #15]
1081:Drivers/STM32L4xx_HAL_Driver/Src/stm32l4xx_ll_usb.c ****   if (ret != HAL_OK)
 3765              		.loc 1 1081 6
 3766 0074 FB7B     		ldrb	r3, [r7, #15]	@ zero_extendqisi2
 3767 0076 002B     		cmp	r3, #0
 3768 0078 01D0     		beq	.L163
1082:Drivers/STM32L4xx_HAL_Driver/Src/stm32l4xx_ll_usb.c ****   {
1083:Drivers/STM32L4xx_HAL_Driver/Src/stm32l4xx_ll_usb.c ****     return ret;
 3769              		.loc 1 1083 12
 3770 007a FB7B     		ldrb	r3, [r7, #15]	@ zero_extendqisi2
 3771 007c 0BE0     		b	.L164
 3772              	.L163:
1084:Drivers/STM32L4xx_HAL_Driver/Src/stm32l4xx_ll_usb.c ****   }
1085:Drivers/STM32L4xx_HAL_Driver/Src/stm32l4xx_ll_usb.c **** 
ARM GAS  /tmp/cc3N4Hnz.s 			page 86


1086:Drivers/STM32L4xx_HAL_Driver/Src/stm32l4xx_ll_usb.c ****   ret = USB_FlushTxFifo(USBx,  0x10U);
 3773              		.loc 1 1086 9
 3774 007e 1021     		movs	r1, #16
 3775 0080 7868     		ldr	r0, [r7, #4]
 3776 0082 FFF7FEFF 		bl	USB_FlushTxFifo
 3777 0086 0346     		mov	r3, r0
 3778 0088 FB73     		strb	r3, [r7, #15]
1087:Drivers/STM32L4xx_HAL_Driver/Src/stm32l4xx_ll_usb.c ****   if (ret != HAL_OK)
 3779              		.loc 1 1087 6
 3780 008a FB7B     		ldrb	r3, [r7, #15]	@ zero_extendqisi2
 3781 008c 002B     		cmp	r3, #0
 3782 008e 01D0     		beq	.L165
1088:Drivers/STM32L4xx_HAL_Driver/Src/stm32l4xx_ll_usb.c ****   {
1089:Drivers/STM32L4xx_HAL_Driver/Src/stm32l4xx_ll_usb.c ****     return ret;
 3783              		.loc 1 1089 12
 3784 0090 FB7B     		ldrb	r3, [r7, #15]	@ zero_extendqisi2
 3785 0092 00E0     		b	.L164
 3786              	.L165:
1090:Drivers/STM32L4xx_HAL_Driver/Src/stm32l4xx_ll_usb.c ****   }
1091:Drivers/STM32L4xx_HAL_Driver/Src/stm32l4xx_ll_usb.c **** 
1092:Drivers/STM32L4xx_HAL_Driver/Src/stm32l4xx_ll_usb.c ****   return ret;
 3787              		.loc 1 1092 10
 3788 0094 FB7B     		ldrb	r3, [r7, #15]	@ zero_extendqisi2
 3789              	.L164:
1093:Drivers/STM32L4xx_HAL_Driver/Src/stm32l4xx_ll_usb.c **** }
 3790              		.loc 1 1093 1
 3791 0096 1846     		mov	r0, r3
 3792 0098 1837     		adds	r7, r7, #24
 3793              		.cfi_def_cfa_offset 8
 3794 009a BD46     		mov	sp, r7
 3795              		.cfi_def_cfa_register 13
 3796              		@ sp needed
 3797 009c 80BD     		pop	{r7, pc}
 3798              		.cfi_endproc
 3799              	.LFE465:
 3801              		.section	.text.USB_SetDevAddress,"ax",%progbits
 3802              		.align	1
 3803              		.global	USB_SetDevAddress
 3804              		.syntax unified
 3805              		.thumb
 3806              		.thumb_func
 3808              	USB_SetDevAddress:
 3809              	.LFB466:
1094:Drivers/STM32L4xx_HAL_Driver/Src/stm32l4xx_ll_usb.c **** 
1095:Drivers/STM32L4xx_HAL_Driver/Src/stm32l4xx_ll_usb.c **** /**
1096:Drivers/STM32L4xx_HAL_Driver/Src/stm32l4xx_ll_usb.c ****   * @brief  USB_SetDevAddress : Stop the usb device mode
1097:Drivers/STM32L4xx_HAL_Driver/Src/stm32l4xx_ll_usb.c ****   * @param  USBx  Selected device
1098:Drivers/STM32L4xx_HAL_Driver/Src/stm32l4xx_ll_usb.c ****   * @param  address  new device address to be assigned
1099:Drivers/STM32L4xx_HAL_Driver/Src/stm32l4xx_ll_usb.c ****   *          This parameter can be a value from 0 to 255
1100:Drivers/STM32L4xx_HAL_Driver/Src/stm32l4xx_ll_usb.c ****   * @retval HAL status
1101:Drivers/STM32L4xx_HAL_Driver/Src/stm32l4xx_ll_usb.c ****   */
1102:Drivers/STM32L4xx_HAL_Driver/Src/stm32l4xx_ll_usb.c **** HAL_StatusTypeDef USB_SetDevAddress(const USB_OTG_GlobalTypeDef *USBx, uint8_t address)
1103:Drivers/STM32L4xx_HAL_Driver/Src/stm32l4xx_ll_usb.c **** {
 3810              		.loc 1 1103 1
 3811              		.cfi_startproc
 3812              		@ args = 0, pretend = 0, frame = 16
 3813              		@ frame_needed = 1, uses_anonymous_args = 0
ARM GAS  /tmp/cc3N4Hnz.s 			page 87


 3814              		@ link register save eliminated.
 3815 0000 80B4     		push	{r7}
 3816              		.cfi_def_cfa_offset 4
 3817              		.cfi_offset 7, -4
 3818 0002 85B0     		sub	sp, sp, #20
 3819              		.cfi_def_cfa_offset 24
 3820 0004 00AF     		add	r7, sp, #0
 3821              		.cfi_def_cfa_register 7
 3822 0006 7860     		str	r0, [r7, #4]
 3823 0008 0B46     		mov	r3, r1
 3824 000a FB70     		strb	r3, [r7, #3]
1104:Drivers/STM32L4xx_HAL_Driver/Src/stm32l4xx_ll_usb.c ****   uint32_t USBx_BASE = (uint32_t)USBx;
 3825              		.loc 1 1104 12
 3826 000c 7B68     		ldr	r3, [r7, #4]
 3827 000e FB60     		str	r3, [r7, #12]
1105:Drivers/STM32L4xx_HAL_Driver/Src/stm32l4xx_ll_usb.c **** 
1106:Drivers/STM32L4xx_HAL_Driver/Src/stm32l4xx_ll_usb.c ****   USBx_DEVICE->DCFG &= ~(USB_OTG_DCFG_DAD);
 3828              		.loc 1 1106 14
 3829 0010 FB68     		ldr	r3, [r7, #12]
 3830 0012 03F50063 		add	r3, r3, #2048
 3831 0016 1B68     		ldr	r3, [r3]
 3832 0018 FA68     		ldr	r2, [r7, #12]
 3833 001a 02F50062 		add	r2, r2, #2048
 3834              		.loc 1 1106 21
 3835 001e 23F4FE63 		bic	r3, r3, #2032
 3836 0022 1360     		str	r3, [r2]
1107:Drivers/STM32L4xx_HAL_Driver/Src/stm32l4xx_ll_usb.c ****   USBx_DEVICE->DCFG |= ((uint32_t)address << 4) & USB_OTG_DCFG_DAD;
 3837              		.loc 1 1107 14
 3838 0024 FB68     		ldr	r3, [r7, #12]
 3839 0026 03F50063 		add	r3, r3, #2048
 3840 002a 1A68     		ldr	r2, [r3]
 3841              		.loc 1 1107 25
 3842 002c FB78     		ldrb	r3, [r7, #3]	@ zero_extendqisi2
 3843              		.loc 1 1107 43
 3844 002e 1B01     		lsls	r3, r3, #4
 3845              		.loc 1 1107 49
 3846 0030 03F4FE63 		and	r3, r3, #2032
 3847              		.loc 1 1107 14
 3848 0034 F968     		ldr	r1, [r7, #12]
 3849 0036 01F50061 		add	r1, r1, #2048
 3850              		.loc 1 1107 21
 3851 003a 1343     		orrs	r3, r3, r2
 3852 003c 0B60     		str	r3, [r1]
1108:Drivers/STM32L4xx_HAL_Driver/Src/stm32l4xx_ll_usb.c **** 
1109:Drivers/STM32L4xx_HAL_Driver/Src/stm32l4xx_ll_usb.c ****   return HAL_OK;
 3853              		.loc 1 1109 10
 3854 003e 0023     		movs	r3, #0
1110:Drivers/STM32L4xx_HAL_Driver/Src/stm32l4xx_ll_usb.c **** }
 3855              		.loc 1 1110 1
 3856 0040 1846     		mov	r0, r3
 3857 0042 1437     		adds	r7, r7, #20
 3858              		.cfi_def_cfa_offset 4
 3859 0044 BD46     		mov	sp, r7
 3860              		.cfi_def_cfa_register 13
 3861              		@ sp needed
 3862 0046 5DF8047B 		ldr	r7, [sp], #4
 3863              		.cfi_restore 7
ARM GAS  /tmp/cc3N4Hnz.s 			page 88


 3864              		.cfi_def_cfa_offset 0
 3865 004a 7047     		bx	lr
 3866              		.cfi_endproc
 3867              	.LFE466:
 3869              		.section	.text.USB_DevConnect,"ax",%progbits
 3870              		.align	1
 3871              		.global	USB_DevConnect
 3872              		.syntax unified
 3873              		.thumb
 3874              		.thumb_func
 3876              	USB_DevConnect:
 3877              	.LFB467:
1111:Drivers/STM32L4xx_HAL_Driver/Src/stm32l4xx_ll_usb.c **** 
1112:Drivers/STM32L4xx_HAL_Driver/Src/stm32l4xx_ll_usb.c **** /**
1113:Drivers/STM32L4xx_HAL_Driver/Src/stm32l4xx_ll_usb.c ****   * @brief  USB_DevConnect : Connect the USB device by enabling Rpu
