ARM GAS  /tmp/ccFcOOzb.s 			page 1


   1              		.cpu cortex-m4
   2              		.arch armv7e-m
   3              		.fpu fpv4-sp-d16
   4              		.eabi_attribute 27, 1
   5              		.eabi_attribute 28, 1
   6              		.eabi_attribute 20, 1
   7              		.eabi_attribute 21, 1
   8              		.eabi_attribute 23, 3
   9              		.eabi_attribute 24, 1
  10              		.eabi_attribute 25, 1
  11              		.eabi_attribute 26, 1
  12              		.eabi_attribute 30, 6
  13              		.eabi_attribute 34, 1
  14              		.eabi_attribute 18, 4
  15              		.file	"stm32l4xx_hal_pcd.c"
  16              		.text
  17              	.Ltext0:
  18              		.cfi_sections	.debug_frame
  19              		.file 1 "Drivers/STM32L4xx_HAL_Driver/Src/stm32l4xx_hal_pcd.c"
  20              		.section	.rodata.CHANNEL_OFFSET_TAB,"a"
  21              		.align	2
  24              	CHANNEL_OFFSET_TAB:
  25 0000 081C3044 		.ascii	"\010\0340DXl\200"
  25      586C80
  26              		.section	.text.HAL_PCD_Init,"ax",%progbits
  27              		.align	1
  28              		.global	HAL_PCD_Init
  29              		.syntax unified
  30              		.thumb
  31              		.thumb_func
  33              	HAL_PCD_Init:
  34              	.LFB445:
   1:Drivers/STM32L4xx_HAL_Driver/Src/stm32l4xx_hal_pcd.c **** /**
   2:Drivers/STM32L4xx_HAL_Driver/Src/stm32l4xx_hal_pcd.c ****   ******************************************************************************
   3:Drivers/STM32L4xx_HAL_Driver/Src/stm32l4xx_hal_pcd.c ****   * @file    stm32l4xx_hal_pcd.c
   4:Drivers/STM32L4xx_HAL_Driver/Src/stm32l4xx_hal_pcd.c ****   * @author  MCD Application Team
   5:Drivers/STM32L4xx_HAL_Driver/Src/stm32l4xx_hal_pcd.c ****   * @brief   PCD HAL module driver.
   6:Drivers/STM32L4xx_HAL_Driver/Src/stm32l4xx_hal_pcd.c ****   *          This file provides firmware functions to manage the following
   7:Drivers/STM32L4xx_HAL_Driver/Src/stm32l4xx_hal_pcd.c ****   *          functionalities of the USB Peripheral Controller:
   8:Drivers/STM32L4xx_HAL_Driver/Src/stm32l4xx_hal_pcd.c ****   *           + Initialization and de-initialization functions
   9:Drivers/STM32L4xx_HAL_Driver/Src/stm32l4xx_hal_pcd.c ****   *           + IO operation functions
  10:Drivers/STM32L4xx_HAL_Driver/Src/stm32l4xx_hal_pcd.c ****   *           + Peripheral Control functions
  11:Drivers/STM32L4xx_HAL_Driver/Src/stm32l4xx_hal_pcd.c ****   *           + Peripheral State functions
  12:Drivers/STM32L4xx_HAL_Driver/Src/stm32l4xx_hal_pcd.c ****   *
  13:Drivers/STM32L4xx_HAL_Driver/Src/stm32l4xx_hal_pcd.c ****   ******************************************************************************
  14:Drivers/STM32L4xx_HAL_Driver/Src/stm32l4xx_hal_pcd.c ****   * @attention
  15:Drivers/STM32L4xx_HAL_Driver/Src/stm32l4xx_hal_pcd.c ****   *
  16:Drivers/STM32L4xx_HAL_Driver/Src/stm32l4xx_hal_pcd.c ****   * Copyright (c) 2017 STMicroelectronics.
  17:Drivers/STM32L4xx_HAL_Driver/Src/stm32l4xx_hal_pcd.c ****   * All rights reserved.
  18:Drivers/STM32L4xx_HAL_Driver/Src/stm32l4xx_hal_pcd.c ****   *
  19:Drivers/STM32L4xx_HAL_Driver/Src/stm32l4xx_hal_pcd.c ****   * This software is licensed under terms that can be found in the LICENSE file
  20:Drivers/STM32L4xx_HAL_Driver/Src/stm32l4xx_hal_pcd.c ****   * in the root directory of this software component.
  21:Drivers/STM32L4xx_HAL_Driver/Src/stm32l4xx_hal_pcd.c ****   * If no LICENSE file comes with this software, it is provided AS-IS.
  22:Drivers/STM32L4xx_HAL_Driver/Src/stm32l4xx_hal_pcd.c ****   *
  23:Drivers/STM32L4xx_HAL_Driver/Src/stm32l4xx_hal_pcd.c ****   ******************************************************************************
  24:Drivers/STM32L4xx_HAL_Driver/Src/stm32l4xx_hal_pcd.c ****   @verbatim
  25:Drivers/STM32L4xx_HAL_Driver/Src/stm32l4xx_hal_pcd.c ****   ==============================================================================
ARM GAS  /tmp/ccFcOOzb.s 			page 2


  26:Drivers/STM32L4xx_HAL_Driver/Src/stm32l4xx_hal_pcd.c ****                     ##### How to use this driver #####
  27:Drivers/STM32L4xx_HAL_Driver/Src/stm32l4xx_hal_pcd.c ****   ==============================================================================
  28:Drivers/STM32L4xx_HAL_Driver/Src/stm32l4xx_hal_pcd.c ****     [..]
  29:Drivers/STM32L4xx_HAL_Driver/Src/stm32l4xx_hal_pcd.c ****       The PCD HAL driver can be used as follows:
  30:Drivers/STM32L4xx_HAL_Driver/Src/stm32l4xx_hal_pcd.c **** 
  31:Drivers/STM32L4xx_HAL_Driver/Src/stm32l4xx_hal_pcd.c ****      (#) Declare a PCD_HandleTypeDef handle structure, for example:
  32:Drivers/STM32L4xx_HAL_Driver/Src/stm32l4xx_hal_pcd.c ****          PCD_HandleTypeDef  hpcd;
  33:Drivers/STM32L4xx_HAL_Driver/Src/stm32l4xx_hal_pcd.c **** 
  34:Drivers/STM32L4xx_HAL_Driver/Src/stm32l4xx_hal_pcd.c ****      (#) Fill parameters of Init structure in HCD handle
  35:Drivers/STM32L4xx_HAL_Driver/Src/stm32l4xx_hal_pcd.c **** 
  36:Drivers/STM32L4xx_HAL_Driver/Src/stm32l4xx_hal_pcd.c ****      (#) Call HAL_PCD_Init() API to initialize the PCD peripheral (Core, Device core, ...)
  37:Drivers/STM32L4xx_HAL_Driver/Src/stm32l4xx_hal_pcd.c **** 
  38:Drivers/STM32L4xx_HAL_Driver/Src/stm32l4xx_hal_pcd.c ****      (#) Initialize the PCD low level resources through the HAL_PCD_MspInit() API:
  39:Drivers/STM32L4xx_HAL_Driver/Src/stm32l4xx_hal_pcd.c ****          (##) Enable the PCD/USB Low Level interface clock using
  40:Drivers/STM32L4xx_HAL_Driver/Src/stm32l4xx_hal_pcd.c ****               (+++) __HAL_RCC_USB_CLK_ENABLE(); For USB Device FS peripheral
  41:Drivers/STM32L4xx_HAL_Driver/Src/stm32l4xx_hal_pcd.c ****               (+++) __HAL_RCC_USB_OTG_FS_CLK_ENABLE();
  42:Drivers/STM32L4xx_HAL_Driver/Src/stm32l4xx_hal_pcd.c **** 
  43:Drivers/STM32L4xx_HAL_Driver/Src/stm32l4xx_hal_pcd.c ****          (##) Initialize the related GPIO clocks
  44:Drivers/STM32L4xx_HAL_Driver/Src/stm32l4xx_hal_pcd.c ****          (##) Configure PCD pin-out
  45:Drivers/STM32L4xx_HAL_Driver/Src/stm32l4xx_hal_pcd.c ****          (##) Configure PCD NVIC interrupt
  46:Drivers/STM32L4xx_HAL_Driver/Src/stm32l4xx_hal_pcd.c **** 
  47:Drivers/STM32L4xx_HAL_Driver/Src/stm32l4xx_hal_pcd.c ****      (#)Associate the Upper USB device stack to the HAL PCD Driver:
  48:Drivers/STM32L4xx_HAL_Driver/Src/stm32l4xx_hal_pcd.c ****          (##) hpcd.pData = pdev;
  49:Drivers/STM32L4xx_HAL_Driver/Src/stm32l4xx_hal_pcd.c **** 
  50:Drivers/STM32L4xx_HAL_Driver/Src/stm32l4xx_hal_pcd.c ****      (#)Enable PCD transmission and reception:
  51:Drivers/STM32L4xx_HAL_Driver/Src/stm32l4xx_hal_pcd.c ****          (##) HAL_PCD_Start();
  52:Drivers/STM32L4xx_HAL_Driver/Src/stm32l4xx_hal_pcd.c **** 
  53:Drivers/STM32L4xx_HAL_Driver/Src/stm32l4xx_hal_pcd.c ****      (#)NOTE: For applications not using double buffer mode, define the symbol
  54:Drivers/STM32L4xx_HAL_Driver/Src/stm32l4xx_hal_pcd.c ****                'USE_USB_DOUBLE_BUFFER' as 0 to reduce the driver's memory footprint.
  55:Drivers/STM32L4xx_HAL_Driver/Src/stm32l4xx_hal_pcd.c **** 
  56:Drivers/STM32L4xx_HAL_Driver/Src/stm32l4xx_hal_pcd.c ****   @endverbatim
  57:Drivers/STM32L4xx_HAL_Driver/Src/stm32l4xx_hal_pcd.c ****   ******************************************************************************
  58:Drivers/STM32L4xx_HAL_Driver/Src/stm32l4xx_hal_pcd.c ****   */
  59:Drivers/STM32L4xx_HAL_Driver/Src/stm32l4xx_hal_pcd.c **** 
  60:Drivers/STM32L4xx_HAL_Driver/Src/stm32l4xx_hal_pcd.c **** /* Includes ------------------------------------------------------------------*/
  61:Drivers/STM32L4xx_HAL_Driver/Src/stm32l4xx_hal_pcd.c **** #include "stm32l4xx_hal.h"
  62:Drivers/STM32L4xx_HAL_Driver/Src/stm32l4xx_hal_pcd.c **** 
  63:Drivers/STM32L4xx_HAL_Driver/Src/stm32l4xx_hal_pcd.c **** /** @addtogroup STM32L4xx_HAL_Driver
  64:Drivers/STM32L4xx_HAL_Driver/Src/stm32l4xx_hal_pcd.c ****   * @{
  65:Drivers/STM32L4xx_HAL_Driver/Src/stm32l4xx_hal_pcd.c ****   */
  66:Drivers/STM32L4xx_HAL_Driver/Src/stm32l4xx_hal_pcd.c **** 
  67:Drivers/STM32L4xx_HAL_Driver/Src/stm32l4xx_hal_pcd.c **** /** @defgroup PCD PCD
  68:Drivers/STM32L4xx_HAL_Driver/Src/stm32l4xx_hal_pcd.c ****   * @brief PCD HAL module driver
  69:Drivers/STM32L4xx_HAL_Driver/Src/stm32l4xx_hal_pcd.c ****   * @{
  70:Drivers/STM32L4xx_HAL_Driver/Src/stm32l4xx_hal_pcd.c ****   */
  71:Drivers/STM32L4xx_HAL_Driver/Src/stm32l4xx_hal_pcd.c **** 
  72:Drivers/STM32L4xx_HAL_Driver/Src/stm32l4xx_hal_pcd.c **** #ifdef HAL_PCD_MODULE_ENABLED
  73:Drivers/STM32L4xx_HAL_Driver/Src/stm32l4xx_hal_pcd.c **** 
  74:Drivers/STM32L4xx_HAL_Driver/Src/stm32l4xx_hal_pcd.c **** #if defined (USB) || defined (USB_OTG_FS)
  75:Drivers/STM32L4xx_HAL_Driver/Src/stm32l4xx_hal_pcd.c **** 
  76:Drivers/STM32L4xx_HAL_Driver/Src/stm32l4xx_hal_pcd.c **** /* Private types -------------------------------------------------------------*/
  77:Drivers/STM32L4xx_HAL_Driver/Src/stm32l4xx_hal_pcd.c **** /* Private variables ---------------------------------------------------------*/
  78:Drivers/STM32L4xx_HAL_Driver/Src/stm32l4xx_hal_pcd.c **** /* Private constants ---------------------------------------------------------*/
  79:Drivers/STM32L4xx_HAL_Driver/Src/stm32l4xx_hal_pcd.c **** /* Private macros ------------------------------------------------------------*/
  80:Drivers/STM32L4xx_HAL_Driver/Src/stm32l4xx_hal_pcd.c **** /** @defgroup PCD_Private_Macros PCD Private Macros
  81:Drivers/STM32L4xx_HAL_Driver/Src/stm32l4xx_hal_pcd.c ****   * @{
  82:Drivers/STM32L4xx_HAL_Driver/Src/stm32l4xx_hal_pcd.c ****   */
ARM GAS  /tmp/ccFcOOzb.s 			page 3


  83:Drivers/STM32L4xx_HAL_Driver/Src/stm32l4xx_hal_pcd.c **** #define PCD_MIN(a, b)  (((a) < (b)) ? (a) : (b))
  84:Drivers/STM32L4xx_HAL_Driver/Src/stm32l4xx_hal_pcd.c **** #define PCD_MAX(a, b)  (((a) > (b)) ? (a) : (b))
  85:Drivers/STM32L4xx_HAL_Driver/Src/stm32l4xx_hal_pcd.c **** /**
  86:Drivers/STM32L4xx_HAL_Driver/Src/stm32l4xx_hal_pcd.c ****   * @}
  87:Drivers/STM32L4xx_HAL_Driver/Src/stm32l4xx_hal_pcd.c ****   */
  88:Drivers/STM32L4xx_HAL_Driver/Src/stm32l4xx_hal_pcd.c **** 
  89:Drivers/STM32L4xx_HAL_Driver/Src/stm32l4xx_hal_pcd.c **** /* Private functions prototypes ----------------------------------------------*/
  90:Drivers/STM32L4xx_HAL_Driver/Src/stm32l4xx_hal_pcd.c **** /** @defgroup PCD_Private_Functions PCD Private Functions
  91:Drivers/STM32L4xx_HAL_Driver/Src/stm32l4xx_hal_pcd.c ****   * @{
  92:Drivers/STM32L4xx_HAL_Driver/Src/stm32l4xx_hal_pcd.c ****   */
  93:Drivers/STM32L4xx_HAL_Driver/Src/stm32l4xx_hal_pcd.c **** #if defined (USB_OTG_FS)
  94:Drivers/STM32L4xx_HAL_Driver/Src/stm32l4xx_hal_pcd.c **** static HAL_StatusTypeDef PCD_WriteEmptyTxFifo(PCD_HandleTypeDef *hpcd, uint32_t epnum);
  95:Drivers/STM32L4xx_HAL_Driver/Src/stm32l4xx_hal_pcd.c **** static HAL_StatusTypeDef PCD_EP_OutXfrComplete_int(PCD_HandleTypeDef *hpcd, uint32_t epnum);
  96:Drivers/STM32L4xx_HAL_Driver/Src/stm32l4xx_hal_pcd.c **** static HAL_StatusTypeDef PCD_EP_OutSetupPacket_int(PCD_HandleTypeDef *hpcd, uint32_t epnum);
  97:Drivers/STM32L4xx_HAL_Driver/Src/stm32l4xx_hal_pcd.c **** #endif /* defined (USB_OTG_FS) */
  98:Drivers/STM32L4xx_HAL_Driver/Src/stm32l4xx_hal_pcd.c **** 
  99:Drivers/STM32L4xx_HAL_Driver/Src/stm32l4xx_hal_pcd.c **** #if defined (USB)
 100:Drivers/STM32L4xx_HAL_Driver/Src/stm32l4xx_hal_pcd.c **** static HAL_StatusTypeDef PCD_EP_ISR_Handler(PCD_HandleTypeDef *hpcd);
 101:Drivers/STM32L4xx_HAL_Driver/Src/stm32l4xx_hal_pcd.c **** #if (USE_USB_DOUBLE_BUFFER == 1U)
 102:Drivers/STM32L4xx_HAL_Driver/Src/stm32l4xx_hal_pcd.c **** static HAL_StatusTypeDef HAL_PCD_EP_DB_Transmit(PCD_HandleTypeDef *hpcd, PCD_EPTypeDef *ep, uint16_
 103:Drivers/STM32L4xx_HAL_Driver/Src/stm32l4xx_hal_pcd.c **** static uint16_t HAL_PCD_EP_DB_Receive(PCD_HandleTypeDef *hpcd, PCD_EPTypeDef *ep, uint16_t wEPVal);
 104:Drivers/STM32L4xx_HAL_Driver/Src/stm32l4xx_hal_pcd.c **** #endif /* (USE_USB_DOUBLE_BUFFER == 1U) */
 105:Drivers/STM32L4xx_HAL_Driver/Src/stm32l4xx_hal_pcd.c **** #endif /* defined (USB) */
 106:Drivers/STM32L4xx_HAL_Driver/Src/stm32l4xx_hal_pcd.c **** /**
 107:Drivers/STM32L4xx_HAL_Driver/Src/stm32l4xx_hal_pcd.c ****   * @}
 108:Drivers/STM32L4xx_HAL_Driver/Src/stm32l4xx_hal_pcd.c ****   */
 109:Drivers/STM32L4xx_HAL_Driver/Src/stm32l4xx_hal_pcd.c **** 
 110:Drivers/STM32L4xx_HAL_Driver/Src/stm32l4xx_hal_pcd.c **** /* Exported functions --------------------------------------------------------*/
 111:Drivers/STM32L4xx_HAL_Driver/Src/stm32l4xx_hal_pcd.c **** /** @defgroup PCD_Exported_Functions PCD Exported Functions
 112:Drivers/STM32L4xx_HAL_Driver/Src/stm32l4xx_hal_pcd.c ****   * @{
 113:Drivers/STM32L4xx_HAL_Driver/Src/stm32l4xx_hal_pcd.c ****   */
 114:Drivers/STM32L4xx_HAL_Driver/Src/stm32l4xx_hal_pcd.c **** 
 115:Drivers/STM32L4xx_HAL_Driver/Src/stm32l4xx_hal_pcd.c **** /** @defgroup PCD_Exported_Functions_Group1 Initialization and de-initialization functions
 116:Drivers/STM32L4xx_HAL_Driver/Src/stm32l4xx_hal_pcd.c ****   *  @brief    Initialization and Configuration functions
 117:Drivers/STM32L4xx_HAL_Driver/Src/stm32l4xx_hal_pcd.c ****   *
 118:Drivers/STM32L4xx_HAL_Driver/Src/stm32l4xx_hal_pcd.c **** @verbatim
 119:Drivers/STM32L4xx_HAL_Driver/Src/stm32l4xx_hal_pcd.c ****  ===============================================================================
 120:Drivers/STM32L4xx_HAL_Driver/Src/stm32l4xx_hal_pcd.c ****             ##### Initialization and de-initialization functions #####
 121:Drivers/STM32L4xx_HAL_Driver/Src/stm32l4xx_hal_pcd.c ****  ===============================================================================
 122:Drivers/STM32L4xx_HAL_Driver/Src/stm32l4xx_hal_pcd.c ****     [..]  This section provides functions allowing to:
 123:Drivers/STM32L4xx_HAL_Driver/Src/stm32l4xx_hal_pcd.c **** 
 124:Drivers/STM32L4xx_HAL_Driver/Src/stm32l4xx_hal_pcd.c **** @endverbatim
 125:Drivers/STM32L4xx_HAL_Driver/Src/stm32l4xx_hal_pcd.c ****   * @{
 126:Drivers/STM32L4xx_HAL_Driver/Src/stm32l4xx_hal_pcd.c ****   */
 127:Drivers/STM32L4xx_HAL_Driver/Src/stm32l4xx_hal_pcd.c **** 
 128:Drivers/STM32L4xx_HAL_Driver/Src/stm32l4xx_hal_pcd.c **** /**
 129:Drivers/STM32L4xx_HAL_Driver/Src/stm32l4xx_hal_pcd.c ****   * @brief  Initializes the PCD according to the specified
 130:Drivers/STM32L4xx_HAL_Driver/Src/stm32l4xx_hal_pcd.c ****   *         parameters in the PCD_InitTypeDef and initialize the associated handle.
 131:Drivers/STM32L4xx_HAL_Driver/Src/stm32l4xx_hal_pcd.c ****   * @param  hpcd PCD handle
 132:Drivers/STM32L4xx_HAL_Driver/Src/stm32l4xx_hal_pcd.c ****   * @retval HAL status
 133:Drivers/STM32L4xx_HAL_Driver/Src/stm32l4xx_hal_pcd.c ****   */
 134:Drivers/STM32L4xx_HAL_Driver/Src/stm32l4xx_hal_pcd.c **** HAL_StatusTypeDef HAL_PCD_Init(PCD_HandleTypeDef *hpcd)
 135:Drivers/STM32L4xx_HAL_Driver/Src/stm32l4xx_hal_pcd.c **** {
  35              		.loc 1 135 1
  36              		.cfi_startproc
  37              		@ args = 0, pretend = 0, frame = 16
  38              		@ frame_needed = 1, uses_anonymous_args = 0
ARM GAS  /tmp/ccFcOOzb.s 			page 4


  39 0000 80B5     		push	{r7, lr}
  40              		.cfi_def_cfa_offset 8
  41              		.cfi_offset 7, -8
  42              		.cfi_offset 14, -4
  43 0002 86B0     		sub	sp, sp, #24
  44              		.cfi_def_cfa_offset 32
  45 0004 02AF     		add	r7, sp, #8
  46              		.cfi_def_cfa 7, 24
  47 0006 7860     		str	r0, [r7, #4]
 136:Drivers/STM32L4xx_HAL_Driver/Src/stm32l4xx_hal_pcd.c ****   uint8_t i;
 137:Drivers/STM32L4xx_HAL_Driver/Src/stm32l4xx_hal_pcd.c **** 
 138:Drivers/STM32L4xx_HAL_Driver/Src/stm32l4xx_hal_pcd.c ****   /* Check the PCD handle allocation */
 139:Drivers/STM32L4xx_HAL_Driver/Src/stm32l4xx_hal_pcd.c ****   if (hpcd == NULL)
  48              		.loc 1 139 6
  49 0008 7B68     		ldr	r3, [r7, #4]
  50 000a 002B     		cmp	r3, #0
  51 000c 01D1     		bne	.L2
 140:Drivers/STM32L4xx_HAL_Driver/Src/stm32l4xx_hal_pcd.c ****   {
 141:Drivers/STM32L4xx_HAL_Driver/Src/stm32l4xx_hal_pcd.c ****     return HAL_ERROR;
  52              		.loc 1 141 12
  53 000e 0123     		movs	r3, #1
  54 0010 01E1     		b	.L3
  55              	.L2:
 142:Drivers/STM32L4xx_HAL_Driver/Src/stm32l4xx_hal_pcd.c ****   }
 143:Drivers/STM32L4xx_HAL_Driver/Src/stm32l4xx_hal_pcd.c **** 
 144:Drivers/STM32L4xx_HAL_Driver/Src/stm32l4xx_hal_pcd.c ****   /* Check the parameters */
 145:Drivers/STM32L4xx_HAL_Driver/Src/stm32l4xx_hal_pcd.c ****   assert_param(IS_PCD_ALL_INSTANCE(hpcd->Instance));
 146:Drivers/STM32L4xx_HAL_Driver/Src/stm32l4xx_hal_pcd.c **** 
 147:Drivers/STM32L4xx_HAL_Driver/Src/stm32l4xx_hal_pcd.c ****   if (hpcd->State == HAL_PCD_STATE_RESET)
  56              		.loc 1 147 11
  57 0012 7B68     		ldr	r3, [r7, #4]
  58 0014 93F89534 		ldrb	r3, [r3, #1173]
  59 0018 DBB2     		uxtb	r3, r3
  60              		.loc 1 147 6
  61 001a 002B     		cmp	r3, #0
  62 001c 06D1     		bne	.L4
 148:Drivers/STM32L4xx_HAL_Driver/Src/stm32l4xx_hal_pcd.c ****   {
 149:Drivers/STM32L4xx_HAL_Driver/Src/stm32l4xx_hal_pcd.c ****     /* Allocate lock resource and initialize it */
 150:Drivers/STM32L4xx_HAL_Driver/Src/stm32l4xx_hal_pcd.c ****     hpcd->Lock = HAL_UNLOCKED;
  63              		.loc 1 150 16
  64 001e 7B68     		ldr	r3, [r7, #4]
  65 0020 0022     		movs	r2, #0
  66 0022 83F89424 		strb	r2, [r3, #1172]
 151:Drivers/STM32L4xx_HAL_Driver/Src/stm32l4xx_hal_pcd.c **** 
 152:Drivers/STM32L4xx_HAL_Driver/Src/stm32l4xx_hal_pcd.c **** #if (USE_HAL_PCD_REGISTER_CALLBACKS == 1U)
 153:Drivers/STM32L4xx_HAL_Driver/Src/stm32l4xx_hal_pcd.c ****     hpcd->SOFCallback = HAL_PCD_SOFCallback;
 154:Drivers/STM32L4xx_HAL_Driver/Src/stm32l4xx_hal_pcd.c ****     hpcd->SetupStageCallback = HAL_PCD_SetupStageCallback;
 155:Drivers/STM32L4xx_HAL_Driver/Src/stm32l4xx_hal_pcd.c ****     hpcd->ResetCallback = HAL_PCD_ResetCallback;
 156:Drivers/STM32L4xx_HAL_Driver/Src/stm32l4xx_hal_pcd.c ****     hpcd->SuspendCallback = HAL_PCD_SuspendCallback;
 157:Drivers/STM32L4xx_HAL_Driver/Src/stm32l4xx_hal_pcd.c ****     hpcd->ResumeCallback = HAL_PCD_ResumeCallback;
 158:Drivers/STM32L4xx_HAL_Driver/Src/stm32l4xx_hal_pcd.c ****     hpcd->ConnectCallback = HAL_PCD_ConnectCallback;
 159:Drivers/STM32L4xx_HAL_Driver/Src/stm32l4xx_hal_pcd.c ****     hpcd->DisconnectCallback = HAL_PCD_DisconnectCallback;
 160:Drivers/STM32L4xx_HAL_Driver/Src/stm32l4xx_hal_pcd.c ****     hpcd->DataOutStageCallback = HAL_PCD_DataOutStageCallback;
 161:Drivers/STM32L4xx_HAL_Driver/Src/stm32l4xx_hal_pcd.c ****     hpcd->DataInStageCallback = HAL_PCD_DataInStageCallback;
 162:Drivers/STM32L4xx_HAL_Driver/Src/stm32l4xx_hal_pcd.c ****     hpcd->ISOOUTIncompleteCallback = HAL_PCD_ISOOUTIncompleteCallback;
 163:Drivers/STM32L4xx_HAL_Driver/Src/stm32l4xx_hal_pcd.c ****     hpcd->ISOINIncompleteCallback = HAL_PCD_ISOINIncompleteCallback;
 164:Drivers/STM32L4xx_HAL_Driver/Src/stm32l4xx_hal_pcd.c ****     hpcd->LPMCallback = HAL_PCDEx_LPM_Callback;
ARM GAS  /tmp/ccFcOOzb.s 			page 5


 165:Drivers/STM32L4xx_HAL_Driver/Src/stm32l4xx_hal_pcd.c ****     hpcd->BCDCallback = HAL_PCDEx_BCD_Callback;
 166:Drivers/STM32L4xx_HAL_Driver/Src/stm32l4xx_hal_pcd.c **** 
 167:Drivers/STM32L4xx_HAL_Driver/Src/stm32l4xx_hal_pcd.c ****     if (hpcd->MspInitCallback == NULL)
 168:Drivers/STM32L4xx_HAL_Driver/Src/stm32l4xx_hal_pcd.c ****     {
 169:Drivers/STM32L4xx_HAL_Driver/Src/stm32l4xx_hal_pcd.c ****       hpcd->MspInitCallback = HAL_PCD_MspInit;
 170:Drivers/STM32L4xx_HAL_Driver/Src/stm32l4xx_hal_pcd.c ****     }
 171:Drivers/STM32L4xx_HAL_Driver/Src/stm32l4xx_hal_pcd.c **** 
 172:Drivers/STM32L4xx_HAL_Driver/Src/stm32l4xx_hal_pcd.c ****     /* Init the low level hardware */
 173:Drivers/STM32L4xx_HAL_Driver/Src/stm32l4xx_hal_pcd.c ****     hpcd->MspInitCallback(hpcd);
 174:Drivers/STM32L4xx_HAL_Driver/Src/stm32l4xx_hal_pcd.c **** #else
 175:Drivers/STM32L4xx_HAL_Driver/Src/stm32l4xx_hal_pcd.c ****     /* Init the low level hardware : GPIO, CLOCK, NVIC... */
 176:Drivers/STM32L4xx_HAL_Driver/Src/stm32l4xx_hal_pcd.c ****     HAL_PCD_MspInit(hpcd);
  67              		.loc 1 176 5
  68 0026 7868     		ldr	r0, [r7, #4]
  69 0028 FFF7FEFF 		bl	HAL_PCD_MspInit
  70              	.L4:
 177:Drivers/STM32L4xx_HAL_Driver/Src/stm32l4xx_hal_pcd.c **** #endif /* (USE_HAL_PCD_REGISTER_CALLBACKS) */
 178:Drivers/STM32L4xx_HAL_Driver/Src/stm32l4xx_hal_pcd.c ****   }
 179:Drivers/STM32L4xx_HAL_Driver/Src/stm32l4xx_hal_pcd.c **** 
 180:Drivers/STM32L4xx_HAL_Driver/Src/stm32l4xx_hal_pcd.c ****   hpcd->State = HAL_PCD_STATE_BUSY;
  71              		.loc 1 180 15
  72 002c 7B68     		ldr	r3, [r7, #4]
  73 002e 0322     		movs	r2, #3
  74 0030 83F89524 		strb	r2, [r3, #1173]
 181:Drivers/STM32L4xx_HAL_Driver/Src/stm32l4xx_hal_pcd.c **** 
 182:Drivers/STM32L4xx_HAL_Driver/Src/stm32l4xx_hal_pcd.c ****   /* Disable DMA mode for FS instance */
 183:Drivers/STM32L4xx_HAL_Driver/Src/stm32l4xx_hal_pcd.c ****   hpcd->Init.dma_enable = 0U;
  75              		.loc 1 183 25
  76 0034 7B68     		ldr	r3, [r7, #4]
  77 0036 0022     		movs	r2, #0
  78 0038 9A71     		strb	r2, [r3, #6]
 184:Drivers/STM32L4xx_HAL_Driver/Src/stm32l4xx_hal_pcd.c **** 
 185:Drivers/STM32L4xx_HAL_Driver/Src/stm32l4xx_hal_pcd.c ****   /* Disable the Interrupts */
 186:Drivers/STM32L4xx_HAL_Driver/Src/stm32l4xx_hal_pcd.c ****   __HAL_PCD_DISABLE(hpcd);
  79              		.loc 1 186 3
  80 003a 7B68     		ldr	r3, [r7, #4]
  81 003c 1B68     		ldr	r3, [r3]
  82 003e 1846     		mov	r0, r3
  83 0040 FFF7FEFF 		bl	USB_DisableGlobalInt
 187:Drivers/STM32L4xx_HAL_Driver/Src/stm32l4xx_hal_pcd.c **** 
 188:Drivers/STM32L4xx_HAL_Driver/Src/stm32l4xx_hal_pcd.c ****   /*Init the Core (common init.) */
 189:Drivers/STM32L4xx_HAL_Driver/Src/stm32l4xx_hal_pcd.c ****   if (USB_CoreInit(hpcd->Instance, hpcd->Init) != HAL_OK)
  84              		.loc 1 189 24
  85 0044 7B68     		ldr	r3, [r7, #4]
  86 0046 1868     		ldr	r0, [r3]
  87              		.loc 1 189 7
  88 0048 7B68     		ldr	r3, [r7, #4]
  89 004a 1A7C     		ldrb	r2, [r3, #16]
  90 004c 8DF80020 		strb	r2, [sp]
  91 0050 0433     		adds	r3, r3, #4
  92 0052 0ECB     		ldm	r3, {r1, r2, r3}
  93 0054 FFF7FEFF 		bl	USB_CoreInit
  94 0058 0346     		mov	r3, r0
  95              		.loc 1 189 6 discriminator 1
  96 005a 002B     		cmp	r3, #0
  97 005c 05D0     		beq	.L5
 190:Drivers/STM32L4xx_HAL_Driver/Src/stm32l4xx_hal_pcd.c ****   {
ARM GAS  /tmp/ccFcOOzb.s 			page 6


 191:Drivers/STM32L4xx_HAL_Driver/Src/stm32l4xx_hal_pcd.c ****     hpcd->State = HAL_PCD_STATE_ERROR;
  98              		.loc 1 191 17
  99 005e 7B68     		ldr	r3, [r7, #4]
 100 0060 0222     		movs	r2, #2
 101 0062 83F89524 		strb	r2, [r3, #1173]
 192:Drivers/STM32L4xx_HAL_Driver/Src/stm32l4xx_hal_pcd.c ****     return HAL_ERROR;
 102              		.loc 1 192 12
 103 0066 0123     		movs	r3, #1
 104 0068 D5E0     		b	.L3
 105              	.L5:
 193:Drivers/STM32L4xx_HAL_Driver/Src/stm32l4xx_hal_pcd.c ****   }
 194:Drivers/STM32L4xx_HAL_Driver/Src/stm32l4xx_hal_pcd.c **** 
 195:Drivers/STM32L4xx_HAL_Driver/Src/stm32l4xx_hal_pcd.c ****   /* Force Device Mode */
 196:Drivers/STM32L4xx_HAL_Driver/Src/stm32l4xx_hal_pcd.c ****   if (USB_SetCurrentMode(hpcd->Instance, USB_DEVICE_MODE) != HAL_OK)
 106              		.loc 1 196 30
 107 006a 7B68     		ldr	r3, [r7, #4]
 108 006c 1B68     		ldr	r3, [r3]
 109              		.loc 1 196 7
 110 006e 0021     		movs	r1, #0
 111 0070 1846     		mov	r0, r3
 112 0072 FFF7FEFF 		bl	USB_SetCurrentMode
 113 0076 0346     		mov	r3, r0
 114              		.loc 1 196 6 discriminator 1
 115 0078 002B     		cmp	r3, #0
 116 007a 05D0     		beq	.L6
 197:Drivers/STM32L4xx_HAL_Driver/Src/stm32l4xx_hal_pcd.c ****   {
 198:Drivers/STM32L4xx_HAL_Driver/Src/stm32l4xx_hal_pcd.c ****     hpcd->State = HAL_PCD_STATE_ERROR;
 117              		.loc 1 198 17
 118 007c 7B68     		ldr	r3, [r7, #4]
 119 007e 0222     		movs	r2, #2
 120 0080 83F89524 		strb	r2, [r3, #1173]
 199:Drivers/STM32L4xx_HAL_Driver/Src/stm32l4xx_hal_pcd.c ****     return HAL_ERROR;
 121              		.loc 1 199 12
 122 0084 0123     		movs	r3, #1
 123 0086 C6E0     		b	.L3
 124              	.L6:
 200:Drivers/STM32L4xx_HAL_Driver/Src/stm32l4xx_hal_pcd.c ****   }
 201:Drivers/STM32L4xx_HAL_Driver/Src/stm32l4xx_hal_pcd.c **** 
 202:Drivers/STM32L4xx_HAL_Driver/Src/stm32l4xx_hal_pcd.c ****   /* Init endpoints structures */
 203:Drivers/STM32L4xx_HAL_Driver/Src/stm32l4xx_hal_pcd.c ****   for (i = 0U; i < hpcd->Init.dev_endpoints; i++)
 125              		.loc 1 203 10
 126 0088 0023     		movs	r3, #0
 127 008a FB73     		strb	r3, [r7, #15]
 128              		.loc 1 203 3
 129 008c 4AE0     		b	.L7
 130              	.L8:
 204:Drivers/STM32L4xx_HAL_Driver/Src/stm32l4xx_hal_pcd.c ****   {
 205:Drivers/STM32L4xx_HAL_Driver/Src/stm32l4xx_hal_pcd.c ****     /* Init ep structure */
 206:Drivers/STM32L4xx_HAL_Driver/Src/stm32l4xx_hal_pcd.c ****     hpcd->IN_ep[i].is_in = 1U;
 131              		.loc 1 206 19
 132 008e FA7B     		ldrb	r2, [r7, #15]	@ zero_extendqisi2
 133              		.loc 1 206 26
 134 0090 7968     		ldr	r1, [r7, #4]
 135 0092 1346     		mov	r3, r2
 136 0094 DB00     		lsls	r3, r3, #3
 137 0096 1344     		add	r3, r3, r2
 138 0098 9B00     		lsls	r3, r3, #2
ARM GAS  /tmp/ccFcOOzb.s 			page 7


 139 009a 0B44     		add	r3, r3, r1
 140 009c 1533     		adds	r3, r3, #21
 141 009e 0122     		movs	r2, #1
 142 00a0 1A70     		strb	r2, [r3]
 207:Drivers/STM32L4xx_HAL_Driver/Src/stm32l4xx_hal_pcd.c ****     hpcd->IN_ep[i].num = i;
 143              		.loc 1 207 19
 144 00a2 FA7B     		ldrb	r2, [r7, #15]	@ zero_extendqisi2
 145              		.loc 1 207 24
 146 00a4 7968     		ldr	r1, [r7, #4]
 147 00a6 1346     		mov	r3, r2
 148 00a8 DB00     		lsls	r3, r3, #3
 149 00aa 1344     		add	r3, r3, r2
 150 00ac 9B00     		lsls	r3, r3, #2
 151 00ae 0B44     		add	r3, r3, r1
 152 00b0 1433     		adds	r3, r3, #20
 153 00b2 FA7B     		ldrb	r2, [r7, #15]
 154 00b4 1A70     		strb	r2, [r3]
 208:Drivers/STM32L4xx_HAL_Driver/Src/stm32l4xx_hal_pcd.c **** #if defined (USB_OTG_FS)
 209:Drivers/STM32L4xx_HAL_Driver/Src/stm32l4xx_hal_pcd.c ****     hpcd->IN_ep[i].tx_fifo_num = i;
 155              		.loc 1 209 19
 156 00b6 FA7B     		ldrb	r2, [r7, #15]	@ zero_extendqisi2
 157              		.loc 1 209 32
 158 00b8 FB7B     		ldrb	r3, [r7, #15]	@ zero_extendqisi2
 159 00ba 98B2     		uxth	r0, r3
 160 00bc 7968     		ldr	r1, [r7, #4]
 161 00be 1346     		mov	r3, r2
 162 00c0 DB00     		lsls	r3, r3, #3
 163 00c2 1344     		add	r3, r3, r2
 164 00c4 9B00     		lsls	r3, r3, #2
 165 00c6 0B44     		add	r3, r3, r1
 166 00c8 2E33     		adds	r3, r3, #46
 167 00ca 0246     		mov	r2, r0	@ movhi
 168 00cc 1A80     		strh	r2, [r3]	@ movhi
 210:Drivers/STM32L4xx_HAL_Driver/Src/stm32l4xx_hal_pcd.c **** #endif /* defined (USB_OTG_FS) */
 211:Drivers/STM32L4xx_HAL_Driver/Src/stm32l4xx_hal_pcd.c ****     /* Control until ep is activated */
 212:Drivers/STM32L4xx_HAL_Driver/Src/stm32l4xx_hal_pcd.c ****     hpcd->IN_ep[i].type = EP_TYPE_CTRL;
 169              		.loc 1 212 19
 170 00ce FA7B     		ldrb	r2, [r7, #15]	@ zero_extendqisi2
 171              		.loc 1 212 25
 172 00d0 7968     		ldr	r1, [r7, #4]
 173 00d2 1346     		mov	r3, r2
 174 00d4 DB00     		lsls	r3, r3, #3
 175 00d6 1344     		add	r3, r3, r2
 176 00d8 9B00     		lsls	r3, r3, #2
 177 00da 0B44     		add	r3, r3, r1
 178 00dc 1833     		adds	r3, r3, #24
 179 00de 0022     		movs	r2, #0
 180 00e0 1A70     		strb	r2, [r3]
 213:Drivers/STM32L4xx_HAL_Driver/Src/stm32l4xx_hal_pcd.c ****     hpcd->IN_ep[i].maxpacket = 0U;
 181              		.loc 1 213 19
 182 00e2 FA7B     		ldrb	r2, [r7, #15]	@ zero_extendqisi2
 183              		.loc 1 213 30
 184 00e4 7968     		ldr	r1, [r7, #4]
 185 00e6 1346     		mov	r3, r2
 186 00e8 DB00     		lsls	r3, r3, #3
 187 00ea 1344     		add	r3, r3, r2
 188 00ec 9B00     		lsls	r3, r3, #2
ARM GAS  /tmp/ccFcOOzb.s 			page 8


 189 00ee 0B44     		add	r3, r3, r1
 190 00f0 1C33     		adds	r3, r3, #28
 191 00f2 0022     		movs	r2, #0
 192 00f4 1A60     		str	r2, [r3]
 214:Drivers/STM32L4xx_HAL_Driver/Src/stm32l4xx_hal_pcd.c ****     hpcd->IN_ep[i].xfer_buff = 0U;
 193              		.loc 1 214 19
 194 00f6 FA7B     		ldrb	r2, [r7, #15]	@ zero_extendqisi2
 195              		.loc 1 214 30
 196 00f8 7968     		ldr	r1, [r7, #4]
 197 00fa 1346     		mov	r3, r2
 198 00fc DB00     		lsls	r3, r3, #3
 199 00fe 1344     		add	r3, r3, r2
 200 0100 9B00     		lsls	r3, r3, #2
 201 0102 0B44     		add	r3, r3, r1
 202 0104 2033     		adds	r3, r3, #32
 203 0106 0022     		movs	r2, #0
 204 0108 1A60     		str	r2, [r3]
 215:Drivers/STM32L4xx_HAL_Driver/Src/stm32l4xx_hal_pcd.c ****     hpcd->IN_ep[i].xfer_len = 0U;
 205              		.loc 1 215 19
 206 010a FA7B     		ldrb	r2, [r7, #15]	@ zero_extendqisi2
 207              		.loc 1 215 29
 208 010c 7968     		ldr	r1, [r7, #4]
 209 010e 1346     		mov	r3, r2
 210 0110 DB00     		lsls	r3, r3, #3
 211 0112 1344     		add	r3, r3, r2
 212 0114 9B00     		lsls	r3, r3, #2
 213 0116 0B44     		add	r3, r3, r1
 214 0118 2433     		adds	r3, r3, #36
 215 011a 0022     		movs	r2, #0
 216 011c 1A60     		str	r2, [r3]
 203:Drivers/STM32L4xx_HAL_Driver/Src/stm32l4xx_hal_pcd.c ****   {
 217              		.loc 1 203 47 discriminator 3
 218 011e FB7B     		ldrb	r3, [r7, #15]	@ zero_extendqisi2
 219 0120 0133     		adds	r3, r3, #1
 220 0122 FB73     		strb	r3, [r7, #15]
 221              	.L7:
 203:Drivers/STM32L4xx_HAL_Driver/Src/stm32l4xx_hal_pcd.c ****   {
 222              		.loc 1 203 30 discriminator 1
 223 0124 7B68     		ldr	r3, [r7, #4]
 224 0126 1B79     		ldrb	r3, [r3, #4]	@ zero_extendqisi2
 203:Drivers/STM32L4xx_HAL_Driver/Src/stm32l4xx_hal_pcd.c ****   {
 225              		.loc 1 203 18 discriminator 1
 226 0128 FA7B     		ldrb	r2, [r7, #15]	@ zero_extendqisi2
 227 012a 9A42     		cmp	r2, r3
 228 012c AFD3     		bcc	.L8
 216:Drivers/STM32L4xx_HAL_Driver/Src/stm32l4xx_hal_pcd.c ****   }
 217:Drivers/STM32L4xx_HAL_Driver/Src/stm32l4xx_hal_pcd.c **** 
 218:Drivers/STM32L4xx_HAL_Driver/Src/stm32l4xx_hal_pcd.c ****   for (i = 0U; i < hpcd->Init.dev_endpoints; i++)
 229              		.loc 1 218 10
 230 012e 0023     		movs	r3, #0
 231 0130 FB73     		strb	r3, [r7, #15]
 232              		.loc 1 218 3
 233 0132 44E0     		b	.L9
 234              	.L10:
 219:Drivers/STM32L4xx_HAL_Driver/Src/stm32l4xx_hal_pcd.c ****   {
 220:Drivers/STM32L4xx_HAL_Driver/Src/stm32l4xx_hal_pcd.c ****     hpcd->OUT_ep[i].is_in = 0U;
 235              		.loc 1 220 20
ARM GAS  /tmp/ccFcOOzb.s 			page 9


 236 0134 FA7B     		ldrb	r2, [r7, #15]	@ zero_extendqisi2
 237              		.loc 1 220 27
 238 0136 7968     		ldr	r1, [r7, #4]
 239 0138 1346     		mov	r3, r2
 240 013a DB00     		lsls	r3, r3, #3
 241 013c 1344     		add	r3, r3, r2
 242 013e 9B00     		lsls	r3, r3, #2
 243 0140 0B44     		add	r3, r3, r1
 244 0142 03F25523 		addw	r3, r3, #597
 245 0146 0022     		movs	r2, #0
 246 0148 1A70     		strb	r2, [r3]
 221:Drivers/STM32L4xx_HAL_Driver/Src/stm32l4xx_hal_pcd.c ****     hpcd->OUT_ep[i].num = i;
 247              		.loc 1 221 20
 248 014a FA7B     		ldrb	r2, [r7, #15]	@ zero_extendqisi2
 249              		.loc 1 221 25
 250 014c 7968     		ldr	r1, [r7, #4]
 251 014e 1346     		mov	r3, r2
 252 0150 DB00     		lsls	r3, r3, #3
 253 0152 1344     		add	r3, r3, r2
 254 0154 9B00     		lsls	r3, r3, #2
 255 0156 0B44     		add	r3, r3, r1
 256 0158 03F51573 		add	r3, r3, #596
 257 015c FA7B     		ldrb	r2, [r7, #15]
 258 015e 1A70     		strb	r2, [r3]
 222:Drivers/STM32L4xx_HAL_Driver/Src/stm32l4xx_hal_pcd.c ****     /* Control until ep is activated */
 223:Drivers/STM32L4xx_HAL_Driver/Src/stm32l4xx_hal_pcd.c ****     hpcd->OUT_ep[i].type = EP_TYPE_CTRL;
 259              		.loc 1 223 20
 260 0160 FA7B     		ldrb	r2, [r7, #15]	@ zero_extendqisi2
 261              		.loc 1 223 26
 262 0162 7968     		ldr	r1, [r7, #4]
 263 0164 1346     		mov	r3, r2
 264 0166 DB00     		lsls	r3, r3, #3
 265 0168 1344     		add	r3, r3, r2
 266 016a 9B00     		lsls	r3, r3, #2
 267 016c 0B44     		add	r3, r3, r1
 268 016e 03F51673 		add	r3, r3, #600
 269 0172 0022     		movs	r2, #0
 270 0174 1A70     		strb	r2, [r3]
 224:Drivers/STM32L4xx_HAL_Driver/Src/stm32l4xx_hal_pcd.c ****     hpcd->OUT_ep[i].maxpacket = 0U;
 271              		.loc 1 224 20
 272 0176 FA7B     		ldrb	r2, [r7, #15]	@ zero_extendqisi2
 273              		.loc 1 224 31
 274 0178 7968     		ldr	r1, [r7, #4]
 275 017a 1346     		mov	r3, r2
 276 017c DB00     		lsls	r3, r3, #3
 277 017e 1344     		add	r3, r3, r2
 278 0180 9B00     		lsls	r3, r3, #2
 279 0182 0B44     		add	r3, r3, r1
 280 0184 03F51773 		add	r3, r3, #604
 281 0188 0022     		movs	r2, #0
 282 018a 1A60     		str	r2, [r3]
 225:Drivers/STM32L4xx_HAL_Driver/Src/stm32l4xx_hal_pcd.c ****     hpcd->OUT_ep[i].xfer_buff = 0U;
 283              		.loc 1 225 20
 284 018c FA7B     		ldrb	r2, [r7, #15]	@ zero_extendqisi2
 285              		.loc 1 225 31
 286 018e 7968     		ldr	r1, [r7, #4]
 287 0190 1346     		mov	r3, r2
ARM GAS  /tmp/ccFcOOzb.s 			page 10


 288 0192 DB00     		lsls	r3, r3, #3
 289 0194 1344     		add	r3, r3, r2
 290 0196 9B00     		lsls	r3, r3, #2
 291 0198 0B44     		add	r3, r3, r1
 292 019a 03F51873 		add	r3, r3, #608
 293 019e 0022     		movs	r2, #0
 294 01a0 1A60     		str	r2, [r3]
 226:Drivers/STM32L4xx_HAL_Driver/Src/stm32l4xx_hal_pcd.c ****     hpcd->OUT_ep[i].xfer_len = 0U;
 295              		.loc 1 226 20
 296 01a2 FA7B     		ldrb	r2, [r7, #15]	@ zero_extendqisi2
 297              		.loc 1 226 30
 298 01a4 7968     		ldr	r1, [r7, #4]
 299 01a6 1346     		mov	r3, r2
 300 01a8 DB00     		lsls	r3, r3, #3
 301 01aa 1344     		add	r3, r3, r2
 302 01ac 9B00     		lsls	r3, r3, #2
 303 01ae 0B44     		add	r3, r3, r1
 304 01b0 03F51973 		add	r3, r3, #612
 305 01b4 0022     		movs	r2, #0
 306 01b6 1A60     		str	r2, [r3]
 218:Drivers/STM32L4xx_HAL_Driver/Src/stm32l4xx_hal_pcd.c ****   {
 307              		.loc 1 218 47 discriminator 3
 308 01b8 FB7B     		ldrb	r3, [r7, #15]	@ zero_extendqisi2
 309 01ba 0133     		adds	r3, r3, #1
 310 01bc FB73     		strb	r3, [r7, #15]
 311              	.L9:
 218:Drivers/STM32L4xx_HAL_Driver/Src/stm32l4xx_hal_pcd.c ****   {
 312              		.loc 1 218 30 discriminator 1
 313 01be 7B68     		ldr	r3, [r7, #4]
 314 01c0 1B79     		ldrb	r3, [r3, #4]	@ zero_extendqisi2
 218:Drivers/STM32L4xx_HAL_Driver/Src/stm32l4xx_hal_pcd.c ****   {
 315              		.loc 1 218 18 discriminator 1
 316 01c2 FA7B     		ldrb	r2, [r7, #15]	@ zero_extendqisi2
 317 01c4 9A42     		cmp	r2, r3
 318 01c6 B5D3     		bcc	.L10
 227:Drivers/STM32L4xx_HAL_Driver/Src/stm32l4xx_hal_pcd.c ****   }
 228:Drivers/STM32L4xx_HAL_Driver/Src/stm32l4xx_hal_pcd.c **** 
 229:Drivers/STM32L4xx_HAL_Driver/Src/stm32l4xx_hal_pcd.c ****   /* Init Device */
 230:Drivers/STM32L4xx_HAL_Driver/Src/stm32l4xx_hal_pcd.c ****   if (USB_DevInit(hpcd->Instance, hpcd->Init) != HAL_OK)
 319              		.loc 1 230 23
 320 01c8 7B68     		ldr	r3, [r7, #4]
 321 01ca 1868     		ldr	r0, [r3]
 322              		.loc 1 230 7
 323 01cc 7B68     		ldr	r3, [r7, #4]
 324 01ce 1A7C     		ldrb	r2, [r3, #16]
 325 01d0 8DF80020 		strb	r2, [sp]
 326 01d4 0433     		adds	r3, r3, #4
 327 01d6 0ECB     		ldm	r3, {r1, r2, r3}
 328 01d8 FFF7FEFF 		bl	USB_DevInit
 329 01dc 0346     		mov	r3, r0
 330              		.loc 1 230 6 discriminator 1
 331 01de 002B     		cmp	r3, #0
 332 01e0 05D0     		beq	.L11
 231:Drivers/STM32L4xx_HAL_Driver/Src/stm32l4xx_hal_pcd.c ****   {
 232:Drivers/STM32L4xx_HAL_Driver/Src/stm32l4xx_hal_pcd.c ****     hpcd->State = HAL_PCD_STATE_ERROR;
 333              		.loc 1 232 17
 334 01e2 7B68     		ldr	r3, [r7, #4]
ARM GAS  /tmp/ccFcOOzb.s 			page 11


 335 01e4 0222     		movs	r2, #2
 336 01e6 83F89524 		strb	r2, [r3, #1173]
 233:Drivers/STM32L4xx_HAL_Driver/Src/stm32l4xx_hal_pcd.c ****     return HAL_ERROR;
 337              		.loc 1 233 12
 338 01ea 0123     		movs	r3, #1
 339 01ec 13E0     		b	.L3
 340              	.L11:
 234:Drivers/STM32L4xx_HAL_Driver/Src/stm32l4xx_hal_pcd.c ****   }
 235:Drivers/STM32L4xx_HAL_Driver/Src/stm32l4xx_hal_pcd.c **** 
 236:Drivers/STM32L4xx_HAL_Driver/Src/stm32l4xx_hal_pcd.c ****   hpcd->USB_Address = 0U;
 341              		.loc 1 236 21
 342 01ee 7B68     		ldr	r3, [r7, #4]
 343 01f0 0022     		movs	r2, #0
 344 01f2 5A74     		strb	r2, [r3, #17]
 237:Drivers/STM32L4xx_HAL_Driver/Src/stm32l4xx_hal_pcd.c ****   hpcd->State = HAL_PCD_STATE_READY;
 345              		.loc 1 237 15
 346 01f4 7B68     		ldr	r3, [r7, #4]
 347 01f6 0122     		movs	r2, #1
 348 01f8 83F89524 		strb	r2, [r3, #1173]
 238:Drivers/STM32L4xx_HAL_Driver/Src/stm32l4xx_hal_pcd.c **** 
 239:Drivers/STM32L4xx_HAL_Driver/Src/stm32l4xx_hal_pcd.c ****   /* Activate LPM */
 240:Drivers/STM32L4xx_HAL_Driver/Src/stm32l4xx_hal_pcd.c ****   if (hpcd->Init.lpm_enable == 1U)
 349              		.loc 1 240 17
 350 01fc 7B68     		ldr	r3, [r7, #4]
 351 01fe 1B7B     		ldrb	r3, [r3, #12]	@ zero_extendqisi2
 352              		.loc 1 240 6
 353 0200 012B     		cmp	r3, #1
 354 0202 02D1     		bne	.L12
 241:Drivers/STM32L4xx_HAL_Driver/Src/stm32l4xx_hal_pcd.c ****   {
 242:Drivers/STM32L4xx_HAL_Driver/Src/stm32l4xx_hal_pcd.c ****     (void)HAL_PCDEx_ActivateLPM(hpcd);
 355              		.loc 1 242 11
 356 0204 7868     		ldr	r0, [r7, #4]
 357 0206 FFF7FEFF 		bl	HAL_PCDEx_ActivateLPM
 358              	.L12:
 243:Drivers/STM32L4xx_HAL_Driver/Src/stm32l4xx_hal_pcd.c ****   }
 244:Drivers/STM32L4xx_HAL_Driver/Src/stm32l4xx_hal_pcd.c **** 
 245:Drivers/STM32L4xx_HAL_Driver/Src/stm32l4xx_hal_pcd.c ****   (void)USB_DevDisconnect(hpcd->Instance);
 359              		.loc 1 245 31
 360 020a 7B68     		ldr	r3, [r7, #4]
 361 020c 1B68     		ldr	r3, [r3]
 362              		.loc 1 245 9
 363 020e 1846     		mov	r0, r3
 364 0210 FFF7FEFF 		bl	USB_DevDisconnect
 246:Drivers/STM32L4xx_HAL_Driver/Src/stm32l4xx_hal_pcd.c **** 
 247:Drivers/STM32L4xx_HAL_Driver/Src/stm32l4xx_hal_pcd.c ****   return HAL_OK;
 365              		.loc 1 247 10
 366 0214 0023     		movs	r3, #0
 367              	.L3:
 248:Drivers/STM32L4xx_HAL_Driver/Src/stm32l4xx_hal_pcd.c **** }
 368              		.loc 1 248 1
 369 0216 1846     		mov	r0, r3
 370 0218 1037     		adds	r7, r7, #16
 371              		.cfi_def_cfa_offset 8
 372 021a BD46     		mov	sp, r7
 373              		.cfi_def_cfa_register 13
 374              		@ sp needed
 375 021c 80BD     		pop	{r7, pc}
ARM GAS  /tmp/ccFcOOzb.s 			page 12


 376              		.cfi_endproc
 377              	.LFE445:
 379              		.section	.text.HAL_PCD_DeInit,"ax",%progbits
 380              		.align	1
 381              		.global	HAL_PCD_DeInit
 382              		.syntax unified
 383              		.thumb
 384              		.thumb_func
 386              	HAL_PCD_DeInit:
 387              	.LFB446:
 249:Drivers/STM32L4xx_HAL_Driver/Src/stm32l4xx_hal_pcd.c **** 
 250:Drivers/STM32L4xx_HAL_Driver/Src/stm32l4xx_hal_pcd.c **** /**
 251:Drivers/STM32L4xx_HAL_Driver/Src/stm32l4xx_hal_pcd.c ****   * @brief  DeInitializes the PCD peripheral.
 252:Drivers/STM32L4xx_HAL_Driver/Src/stm32l4xx_hal_pcd.c ****   * @param  hpcd PCD handle
 253:Drivers/STM32L4xx_HAL_Driver/Src/stm32l4xx_hal_pcd.c ****   * @retval HAL status
 254:Drivers/STM32L4xx_HAL_Driver/Src/stm32l4xx_hal_pcd.c ****   */
 255:Drivers/STM32L4xx_HAL_Driver/Src/stm32l4xx_hal_pcd.c **** HAL_StatusTypeDef HAL_PCD_DeInit(PCD_HandleTypeDef *hpcd)
 256:Drivers/STM32L4xx_HAL_Driver/Src/stm32l4xx_hal_pcd.c **** {
 388              		.loc 1 256 1
 389              		.cfi_startproc
 390              		@ args = 0, pretend = 0, frame = 8
 391              		@ frame_needed = 1, uses_anonymous_args = 0
 392 0000 80B5     		push	{r7, lr}
 393              		.cfi_def_cfa_offset 8
 394              		.cfi_offset 7, -8
 395              		.cfi_offset 14, -4
 396 0002 82B0     		sub	sp, sp, #8
 397              		.cfi_def_cfa_offset 16
 398 0004 00AF     		add	r7, sp, #0
 399              		.cfi_def_cfa_register 7
 400 0006 7860     		str	r0, [r7, #4]
 257:Drivers/STM32L4xx_HAL_Driver/Src/stm32l4xx_hal_pcd.c ****   /* Check the PCD handle allocation */
 258:Drivers/STM32L4xx_HAL_Driver/Src/stm32l4xx_hal_pcd.c ****   if (hpcd == NULL)
 401              		.loc 1 258 6
 402 0008 7B68     		ldr	r3, [r7, #4]
 403 000a 002B     		cmp	r3, #0
 404 000c 01D1     		bne	.L14
 259:Drivers/STM32L4xx_HAL_Driver/Src/stm32l4xx_hal_pcd.c ****   {
 260:Drivers/STM32L4xx_HAL_Driver/Src/stm32l4xx_hal_pcd.c ****     return HAL_ERROR;
 405              		.loc 1 260 12
 406 000e 0123     		movs	r3, #1
 407 0010 15E0     		b	.L15
 408              	.L14:
 261:Drivers/STM32L4xx_HAL_Driver/Src/stm32l4xx_hal_pcd.c ****   }
 262:Drivers/STM32L4xx_HAL_Driver/Src/stm32l4xx_hal_pcd.c **** 
 263:Drivers/STM32L4xx_HAL_Driver/Src/stm32l4xx_hal_pcd.c ****   hpcd->State = HAL_PCD_STATE_BUSY;
 409              		.loc 1 263 15
 410 0012 7B68     		ldr	r3, [r7, #4]
 411 0014 0322     		movs	r2, #3
 412 0016 83F89524 		strb	r2, [r3, #1173]
 264:Drivers/STM32L4xx_HAL_Driver/Src/stm32l4xx_hal_pcd.c **** 
 265:Drivers/STM32L4xx_HAL_Driver/Src/stm32l4xx_hal_pcd.c ****   /* Stop Device */
 266:Drivers/STM32L4xx_HAL_Driver/Src/stm32l4xx_hal_pcd.c ****   if (USB_StopDevice(hpcd->Instance) != HAL_OK)
 413              		.loc 1 266 26
 414 001a 7B68     		ldr	r3, [r7, #4]
 415 001c 1B68     		ldr	r3, [r3]
 416              		.loc 1 266 7
ARM GAS  /tmp/ccFcOOzb.s 			page 13


 417 001e 1846     		mov	r0, r3
 418 0020 FFF7FEFF 		bl	USB_StopDevice
 419 0024 0346     		mov	r3, r0
 420              		.loc 1 266 6 discriminator 1
 421 0026 002B     		cmp	r3, #0
 422 0028 01D0     		beq	.L16
 267:Drivers/STM32L4xx_HAL_Driver/Src/stm32l4xx_hal_pcd.c ****   {
 268:Drivers/STM32L4xx_HAL_Driver/Src/stm32l4xx_hal_pcd.c ****     return HAL_ERROR;
 423              		.loc 1 268 12
 424 002a 0123     		movs	r3, #1
 425 002c 07E0     		b	.L15
 426              	.L16:
 269:Drivers/STM32L4xx_HAL_Driver/Src/stm32l4xx_hal_pcd.c ****   }
 270:Drivers/STM32L4xx_HAL_Driver/Src/stm32l4xx_hal_pcd.c **** 
 271:Drivers/STM32L4xx_HAL_Driver/Src/stm32l4xx_hal_pcd.c **** #if (USE_HAL_PCD_REGISTER_CALLBACKS == 1U)
 272:Drivers/STM32L4xx_HAL_Driver/Src/stm32l4xx_hal_pcd.c ****   if (hpcd->MspDeInitCallback == NULL)
 273:Drivers/STM32L4xx_HAL_Driver/Src/stm32l4xx_hal_pcd.c ****   {
 274:Drivers/STM32L4xx_HAL_Driver/Src/stm32l4xx_hal_pcd.c ****     hpcd->MspDeInitCallback = HAL_PCD_MspDeInit; /* Legacy weak MspDeInit  */
 275:Drivers/STM32L4xx_HAL_Driver/Src/stm32l4xx_hal_pcd.c ****   }
 276:Drivers/STM32L4xx_HAL_Driver/Src/stm32l4xx_hal_pcd.c **** 
 277:Drivers/STM32L4xx_HAL_Driver/Src/stm32l4xx_hal_pcd.c ****   /* DeInit the low level hardware */
 278:Drivers/STM32L4xx_HAL_Driver/Src/stm32l4xx_hal_pcd.c ****   hpcd->MspDeInitCallback(hpcd);
 279:Drivers/STM32L4xx_HAL_Driver/Src/stm32l4xx_hal_pcd.c **** #else
 280:Drivers/STM32L4xx_HAL_Driver/Src/stm32l4xx_hal_pcd.c ****   /* DeInit the low level hardware: CLOCK, NVIC.*/
 281:Drivers/STM32L4xx_HAL_Driver/Src/stm32l4xx_hal_pcd.c ****   HAL_PCD_MspDeInit(hpcd);
 427              		.loc 1 281 3
 428 002e 7868     		ldr	r0, [r7, #4]
 429 0030 FFF7FEFF 		bl	HAL_PCD_MspDeInit
 282:Drivers/STM32L4xx_HAL_Driver/Src/stm32l4xx_hal_pcd.c **** #endif /* USE_HAL_PCD_REGISTER_CALLBACKS */
 283:Drivers/STM32L4xx_HAL_Driver/Src/stm32l4xx_hal_pcd.c **** 
 284:Drivers/STM32L4xx_HAL_Driver/Src/stm32l4xx_hal_pcd.c ****   hpcd->State = HAL_PCD_STATE_RESET;
 430              		.loc 1 284 15
 431 0034 7B68     		ldr	r3, [r7, #4]
 432 0036 0022     		movs	r2, #0
 433 0038 83F89524 		strb	r2, [r3, #1173]
 285:Drivers/STM32L4xx_HAL_Driver/Src/stm32l4xx_hal_pcd.c **** 
 286:Drivers/STM32L4xx_HAL_Driver/Src/stm32l4xx_hal_pcd.c ****   return HAL_OK;
 434              		.loc 1 286 10
 435 003c 0023     		movs	r3, #0
 436              	.L15:
 287:Drivers/STM32L4xx_HAL_Driver/Src/stm32l4xx_hal_pcd.c **** }
 437              		.loc 1 287 1
 438 003e 1846     		mov	r0, r3
 439 0040 0837     		adds	r7, r7, #8
 440              		.cfi_def_cfa_offset 8
 441 0042 BD46     		mov	sp, r7
 442              		.cfi_def_cfa_register 13
 443              		@ sp needed
 444 0044 80BD     		pop	{r7, pc}
 445              		.cfi_endproc
 446              	.LFE446:
 448              		.section	.text.HAL_PCD_MspInit,"ax",%progbits
 449              		.align	1
 450              		.weak	HAL_PCD_MspInit
 451              		.syntax unified
 452              		.thumb
 453              		.thumb_func
ARM GAS  /tmp/ccFcOOzb.s 			page 14


 455              	HAL_PCD_MspInit:
 456              	.LFB447:
 288:Drivers/STM32L4xx_HAL_Driver/Src/stm32l4xx_hal_pcd.c **** 
 289:Drivers/STM32L4xx_HAL_Driver/Src/stm32l4xx_hal_pcd.c **** /**
 290:Drivers/STM32L4xx_HAL_Driver/Src/stm32l4xx_hal_pcd.c ****   * @brief  Initializes the PCD MSP.
 291:Drivers/STM32L4xx_HAL_Driver/Src/stm32l4xx_hal_pcd.c ****   * @param  hpcd PCD handle
 292:Drivers/STM32L4xx_HAL_Driver/Src/stm32l4xx_hal_pcd.c ****   * @retval None
 293:Drivers/STM32L4xx_HAL_Driver/Src/stm32l4xx_hal_pcd.c ****   */
 294:Drivers/STM32L4xx_HAL_Driver/Src/stm32l4xx_hal_pcd.c **** __weak void HAL_PCD_MspInit(PCD_HandleTypeDef *hpcd)
 295:Drivers/STM32L4xx_HAL_Driver/Src/stm32l4xx_hal_pcd.c **** {
 457              		.loc 1 295 1
 458              		.cfi_startproc
 459              		@ args = 0, pretend = 0, frame = 8
 460              		@ frame_needed = 1, uses_anonymous_args = 0
 461              		@ link register save eliminated.
 462 0000 80B4     		push	{r7}
 463              		.cfi_def_cfa_offset 4
 464              		.cfi_offset 7, -4
 465 0002 83B0     		sub	sp, sp, #12
 466              		.cfi_def_cfa_offset 16
 467 0004 00AF     		add	r7, sp, #0
 468              		.cfi_def_cfa_register 7
 469 0006 7860     		str	r0, [r7, #4]
 296:Drivers/STM32L4xx_HAL_Driver/Src/stm32l4xx_hal_pcd.c ****   /* Prevent unused argument(s) compilation warning */
 297:Drivers/STM32L4xx_HAL_Driver/Src/stm32l4xx_hal_pcd.c ****   UNUSED(hpcd);
 298:Drivers/STM32L4xx_HAL_Driver/Src/stm32l4xx_hal_pcd.c **** 
 299:Drivers/STM32L4xx_HAL_Driver/Src/stm32l4xx_hal_pcd.c ****   /* NOTE : This function should not be modified, when the callback is needed,
 300:Drivers/STM32L4xx_HAL_Driver/Src/stm32l4xx_hal_pcd.c ****             the HAL_PCD_MspInit could be implemented in the user file
 301:Drivers/STM32L4xx_HAL_Driver/Src/stm32l4xx_hal_pcd.c ****    */
 302:Drivers/STM32L4xx_HAL_Driver/Src/stm32l4xx_hal_pcd.c **** }
 470              		.loc 1 302 1
 471 0008 00BF     		nop
 472 000a 0C37     		adds	r7, r7, #12
 473              		.cfi_def_cfa_offset 4
 474 000c BD46     		mov	sp, r7
 475              		.cfi_def_cfa_register 13
 476              		@ sp needed
 477 000e 5DF8047B 		ldr	r7, [sp], #4
 478              		.cfi_restore 7
 479              		.cfi_def_cfa_offset 0
 480 0012 7047     		bx	lr
 481              		.cfi_endproc
 482              	.LFE447:
 484              		.section	.text.HAL_PCD_MspDeInit,"ax",%progbits
 485              		.align	1
 486              		.weak	HAL_PCD_MspDeInit
 487              		.syntax unified
 488              		.thumb
 489              		.thumb_func
 491              	HAL_PCD_MspDeInit:
 492              	.LFB448:
 303:Drivers/STM32L4xx_HAL_Driver/Src/stm32l4xx_hal_pcd.c **** 
 304:Drivers/STM32L4xx_HAL_Driver/Src/stm32l4xx_hal_pcd.c **** /**
 305:Drivers/STM32L4xx_HAL_Driver/Src/stm32l4xx_hal_pcd.c ****   * @brief  DeInitializes PCD MSP.
 306:Drivers/STM32L4xx_HAL_Driver/Src/stm32l4xx_hal_pcd.c ****   * @param  hpcd PCD handle
 307:Drivers/STM32L4xx_HAL_Driver/Src/stm32l4xx_hal_pcd.c ****   * @retval None
 308:Drivers/STM32L4xx_HAL_Driver/Src/stm32l4xx_hal_pcd.c ****   */
ARM GAS  /tmp/ccFcOOzb.s 			page 15


 309:Drivers/STM32L4xx_HAL_Driver/Src/stm32l4xx_hal_pcd.c **** __weak void HAL_PCD_MspDeInit(PCD_HandleTypeDef *hpcd)
 310:Drivers/STM32L4xx_HAL_Driver/Src/stm32l4xx_hal_pcd.c **** {
 493              		.loc 1 310 1
 494              		.cfi_startproc
 495              		@ args = 0, pretend = 0, frame = 8
 496              		@ frame_needed = 1, uses_anonymous_args = 0
 497              		@ link register save eliminated.
 498 0000 80B4     		push	{r7}
 499              		.cfi_def_cfa_offset 4
 500              		.cfi_offset 7, -4
 501 0002 83B0     		sub	sp, sp, #12
 502              		.cfi_def_cfa_offset 16
 503 0004 00AF     		add	r7, sp, #0
 504              		.cfi_def_cfa_register 7
 505 0006 7860     		str	r0, [r7, #4]
 311:Drivers/STM32L4xx_HAL_Driver/Src/stm32l4xx_hal_pcd.c ****   /* Prevent unused argument(s) compilation warning */
 312:Drivers/STM32L4xx_HAL_Driver/Src/stm32l4xx_hal_pcd.c ****   UNUSED(hpcd);
 313:Drivers/STM32L4xx_HAL_Driver/Src/stm32l4xx_hal_pcd.c **** 
 314:Drivers/STM32L4xx_HAL_Driver/Src/stm32l4xx_hal_pcd.c ****   /* NOTE : This function should not be modified, when the callback is needed,
 315:Drivers/STM32L4xx_HAL_Driver/Src/stm32l4xx_hal_pcd.c ****             the HAL_PCD_MspDeInit could be implemented in the user file
 316:Drivers/STM32L4xx_HAL_Driver/Src/stm32l4xx_hal_pcd.c ****    */
 317:Drivers/STM32L4xx_HAL_Driver/Src/stm32l4xx_hal_pcd.c **** }
 506              		.loc 1 317 1
 507 0008 00BF     		nop
 508 000a 0C37     		adds	r7, r7, #12
 509              		.cfi_def_cfa_offset 4
 510 000c BD46     		mov	sp, r7
 511              		.cfi_def_cfa_register 13
 512              		@ sp needed
 513 000e 5DF8047B 		ldr	r7, [sp], #4
 514              		.cfi_restore 7
 515              		.cfi_def_cfa_offset 0
 516 0012 7047     		bx	lr
 517              		.cfi_endproc
 518              	.LFE448:
 520              		.section	.text.HAL_PCD_Start,"ax",%progbits
 521              		.align	1
 522              		.global	HAL_PCD_Start
 523              		.syntax unified
 524              		.thumb
 525              		.thumb_func
 527              	HAL_PCD_Start:
 528              	.LFB449:
 318:Drivers/STM32L4xx_HAL_Driver/Src/stm32l4xx_hal_pcd.c **** 
 319:Drivers/STM32L4xx_HAL_Driver/Src/stm32l4xx_hal_pcd.c **** #if (USE_HAL_PCD_REGISTER_CALLBACKS == 1U)
 320:Drivers/STM32L4xx_HAL_Driver/Src/stm32l4xx_hal_pcd.c **** /**
 321:Drivers/STM32L4xx_HAL_Driver/Src/stm32l4xx_hal_pcd.c ****   * @brief  Register a User USB PCD Callback
 322:Drivers/STM32L4xx_HAL_Driver/Src/stm32l4xx_hal_pcd.c ****   *         To be used instead of the weak predefined callback
 323:Drivers/STM32L4xx_HAL_Driver/Src/stm32l4xx_hal_pcd.c ****   * @param  hpcd USB PCD handle
 324:Drivers/STM32L4xx_HAL_Driver/Src/stm32l4xx_hal_pcd.c ****   * @param  CallbackID ID of the callback to be registered
 325:Drivers/STM32L4xx_HAL_Driver/Src/stm32l4xx_hal_pcd.c ****   *         This parameter can be one of the following values:
 326:Drivers/STM32L4xx_HAL_Driver/Src/stm32l4xx_hal_pcd.c ****   *          @arg @ref HAL_PCD_SOF_CB_ID USB PCD SOF callback ID
 327:Drivers/STM32L4xx_HAL_Driver/Src/stm32l4xx_hal_pcd.c ****   *          @arg @ref HAL_PCD_SETUPSTAGE_CB_ID USB PCD Setup callback ID
 328:Drivers/STM32L4xx_HAL_Driver/Src/stm32l4xx_hal_pcd.c ****   *          @arg @ref HAL_PCD_RESET_CB_ID USB PCD Reset callback ID
 329:Drivers/STM32L4xx_HAL_Driver/Src/stm32l4xx_hal_pcd.c ****   *          @arg @ref HAL_PCD_SUSPEND_CB_ID USB PCD Suspend callback ID
 330:Drivers/STM32L4xx_HAL_Driver/Src/stm32l4xx_hal_pcd.c ****   *          @arg @ref HAL_PCD_RESUME_CB_ID USB PCD Resume callback ID
 331:Drivers/STM32L4xx_HAL_Driver/Src/stm32l4xx_hal_pcd.c ****   *          @arg @ref HAL_PCD_CONNECT_CB_ID USB PCD Connect callback ID
ARM GAS  /tmp/ccFcOOzb.s 			page 16


 332:Drivers/STM32L4xx_HAL_Driver/Src/stm32l4xx_hal_pcd.c ****   *          @arg @ref HAL_PCD_DISCONNECT_CB_ID USB PCD Disconnect callback ID
 333:Drivers/STM32L4xx_HAL_Driver/Src/stm32l4xx_hal_pcd.c ****   *          @arg @ref HAL_PCD_MSPINIT_CB_ID MspDeInit callback ID
 334:Drivers/STM32L4xx_HAL_Driver/Src/stm32l4xx_hal_pcd.c ****   *          @arg @ref HAL_PCD_MSPDEINIT_CB_ID MspDeInit callback ID
 335:Drivers/STM32L4xx_HAL_Driver/Src/stm32l4xx_hal_pcd.c ****   * @param  pCallback pointer to the Callback function
 336:Drivers/STM32L4xx_HAL_Driver/Src/stm32l4xx_hal_pcd.c ****   * @retval HAL status
 337:Drivers/STM32L4xx_HAL_Driver/Src/stm32l4xx_hal_pcd.c ****   */
 338:Drivers/STM32L4xx_HAL_Driver/Src/stm32l4xx_hal_pcd.c **** HAL_StatusTypeDef HAL_PCD_RegisterCallback(PCD_HandleTypeDef *hpcd,
 339:Drivers/STM32L4xx_HAL_Driver/Src/stm32l4xx_hal_pcd.c ****                                            HAL_PCD_CallbackIDTypeDef CallbackID,
 340:Drivers/STM32L4xx_HAL_Driver/Src/stm32l4xx_hal_pcd.c ****                                            pPCD_CallbackTypeDef pCallback)
 341:Drivers/STM32L4xx_HAL_Driver/Src/stm32l4xx_hal_pcd.c **** {
 342:Drivers/STM32L4xx_HAL_Driver/Src/stm32l4xx_hal_pcd.c ****   HAL_StatusTypeDef status = HAL_OK;
 343:Drivers/STM32L4xx_HAL_Driver/Src/stm32l4xx_hal_pcd.c **** 
 344:Drivers/STM32L4xx_HAL_Driver/Src/stm32l4xx_hal_pcd.c ****   if (pCallback == NULL)
 345:Drivers/STM32L4xx_HAL_Driver/Src/stm32l4xx_hal_pcd.c ****   {
 346:Drivers/STM32L4xx_HAL_Driver/Src/stm32l4xx_hal_pcd.c ****     /* Update the error code */
 347:Drivers/STM32L4xx_HAL_Driver/Src/stm32l4xx_hal_pcd.c ****     hpcd->ErrorCode |= HAL_PCD_ERROR_INVALID_CALLBACK;
 348:Drivers/STM32L4xx_HAL_Driver/Src/stm32l4xx_hal_pcd.c ****     return HAL_ERROR;
 349:Drivers/STM32L4xx_HAL_Driver/Src/stm32l4xx_hal_pcd.c ****   }
 350:Drivers/STM32L4xx_HAL_Driver/Src/stm32l4xx_hal_pcd.c ****   /* Process locked */
 351:Drivers/STM32L4xx_HAL_Driver/Src/stm32l4xx_hal_pcd.c ****   __HAL_LOCK(hpcd);
 352:Drivers/STM32L4xx_HAL_Driver/Src/stm32l4xx_hal_pcd.c **** 
 353:Drivers/STM32L4xx_HAL_Driver/Src/stm32l4xx_hal_pcd.c ****   if (hpcd->State == HAL_PCD_STATE_READY)
 354:Drivers/STM32L4xx_HAL_Driver/Src/stm32l4xx_hal_pcd.c ****   {
 355:Drivers/STM32L4xx_HAL_Driver/Src/stm32l4xx_hal_pcd.c ****     switch (CallbackID)
 356:Drivers/STM32L4xx_HAL_Driver/Src/stm32l4xx_hal_pcd.c ****     {
 357:Drivers/STM32L4xx_HAL_Driver/Src/stm32l4xx_hal_pcd.c ****       case HAL_PCD_SOF_CB_ID :
 358:Drivers/STM32L4xx_HAL_Driver/Src/stm32l4xx_hal_pcd.c ****         hpcd->SOFCallback = pCallback;
 359:Drivers/STM32L4xx_HAL_Driver/Src/stm32l4xx_hal_pcd.c ****         break;
 360:Drivers/STM32L4xx_HAL_Driver/Src/stm32l4xx_hal_pcd.c **** 
 361:Drivers/STM32L4xx_HAL_Driver/Src/stm32l4xx_hal_pcd.c ****       case HAL_PCD_SETUPSTAGE_CB_ID :
 362:Drivers/STM32L4xx_HAL_Driver/Src/stm32l4xx_hal_pcd.c ****         hpcd->SetupStageCallback = pCallback;
 363:Drivers/STM32L4xx_HAL_Driver/Src/stm32l4xx_hal_pcd.c ****         break;
 364:Drivers/STM32L4xx_HAL_Driver/Src/stm32l4xx_hal_pcd.c **** 
 365:Drivers/STM32L4xx_HAL_Driver/Src/stm32l4xx_hal_pcd.c ****       case HAL_PCD_RESET_CB_ID :
 366:Drivers/STM32L4xx_HAL_Driver/Src/stm32l4xx_hal_pcd.c ****         hpcd->ResetCallback = pCallback;
 367:Drivers/STM32L4xx_HAL_Driver/Src/stm32l4xx_hal_pcd.c ****         break;
 368:Drivers/STM32L4xx_HAL_Driver/Src/stm32l4xx_hal_pcd.c **** 
 369:Drivers/STM32L4xx_HAL_Driver/Src/stm32l4xx_hal_pcd.c ****       case HAL_PCD_SUSPEND_CB_ID :
 370:Drivers/STM32L4xx_HAL_Driver/Src/stm32l4xx_hal_pcd.c ****         hpcd->SuspendCallback = pCallback;
 371:Drivers/STM32L4xx_HAL_Driver/Src/stm32l4xx_hal_pcd.c ****         break;
 372:Drivers/STM32L4xx_HAL_Driver/Src/stm32l4xx_hal_pcd.c **** 
 373:Drivers/STM32L4xx_HAL_Driver/Src/stm32l4xx_hal_pcd.c ****       case HAL_PCD_RESUME_CB_ID :
 374:Drivers/STM32L4xx_HAL_Driver/Src/stm32l4xx_hal_pcd.c ****         hpcd->ResumeCallback = pCallback;
 375:Drivers/STM32L4xx_HAL_Driver/Src/stm32l4xx_hal_pcd.c ****         break;
 376:Drivers/STM32L4xx_HAL_Driver/Src/stm32l4xx_hal_pcd.c **** 
 377:Drivers/STM32L4xx_HAL_Driver/Src/stm32l4xx_hal_pcd.c ****       case HAL_PCD_CONNECT_CB_ID :
 378:Drivers/STM32L4xx_HAL_Driver/Src/stm32l4xx_hal_pcd.c ****         hpcd->ConnectCallback = pCallback;
 379:Drivers/STM32L4xx_HAL_Driver/Src/stm32l4xx_hal_pcd.c ****         break;
 380:Drivers/STM32L4xx_HAL_Driver/Src/stm32l4xx_hal_pcd.c **** 
 381:Drivers/STM32L4xx_HAL_Driver/Src/stm32l4xx_hal_pcd.c ****       case HAL_PCD_DISCONNECT_CB_ID :
 382:Drivers/STM32L4xx_HAL_Driver/Src/stm32l4xx_hal_pcd.c ****         hpcd->DisconnectCallback = pCallback;
 383:Drivers/STM32L4xx_HAL_Driver/Src/stm32l4xx_hal_pcd.c ****         break;
 384:Drivers/STM32L4xx_HAL_Driver/Src/stm32l4xx_hal_pcd.c **** 
 385:Drivers/STM32L4xx_HAL_Driver/Src/stm32l4xx_hal_pcd.c ****       case HAL_PCD_MSPINIT_CB_ID :
 386:Drivers/STM32L4xx_HAL_Driver/Src/stm32l4xx_hal_pcd.c ****         hpcd->MspInitCallback = pCallback;
 387:Drivers/STM32L4xx_HAL_Driver/Src/stm32l4xx_hal_pcd.c ****         break;
 388:Drivers/STM32L4xx_HAL_Driver/Src/stm32l4xx_hal_pcd.c **** 
ARM GAS  /tmp/ccFcOOzb.s 			page 17


 389:Drivers/STM32L4xx_HAL_Driver/Src/stm32l4xx_hal_pcd.c ****       case HAL_PCD_MSPDEINIT_CB_ID :
 390:Drivers/STM32L4xx_HAL_Driver/Src/stm32l4xx_hal_pcd.c ****         hpcd->MspDeInitCallback = pCallback;
 391:Drivers/STM32L4xx_HAL_Driver/Src/stm32l4xx_hal_pcd.c ****         break;
 392:Drivers/STM32L4xx_HAL_Driver/Src/stm32l4xx_hal_pcd.c **** 
 393:Drivers/STM32L4xx_HAL_Driver/Src/stm32l4xx_hal_pcd.c ****       default :
 394:Drivers/STM32L4xx_HAL_Driver/Src/stm32l4xx_hal_pcd.c ****         /* Update the error code */
 395:Drivers/STM32L4xx_HAL_Driver/Src/stm32l4xx_hal_pcd.c ****         hpcd->ErrorCode |= HAL_PCD_ERROR_INVALID_CALLBACK;
 396:Drivers/STM32L4xx_HAL_Driver/Src/stm32l4xx_hal_pcd.c ****         /* Return error status */
 397:Drivers/STM32L4xx_HAL_Driver/Src/stm32l4xx_hal_pcd.c ****         status =  HAL_ERROR;
 398:Drivers/STM32L4xx_HAL_Driver/Src/stm32l4xx_hal_pcd.c ****         break;
 399:Drivers/STM32L4xx_HAL_Driver/Src/stm32l4xx_hal_pcd.c ****     }
 400:Drivers/STM32L4xx_HAL_Driver/Src/stm32l4xx_hal_pcd.c ****   }
 401:Drivers/STM32L4xx_HAL_Driver/Src/stm32l4xx_hal_pcd.c ****   else if (hpcd->State == HAL_PCD_STATE_RESET)
 402:Drivers/STM32L4xx_HAL_Driver/Src/stm32l4xx_hal_pcd.c ****   {
 403:Drivers/STM32L4xx_HAL_Driver/Src/stm32l4xx_hal_pcd.c ****     switch (CallbackID)
 404:Drivers/STM32L4xx_HAL_Driver/Src/stm32l4xx_hal_pcd.c ****     {
 405:Drivers/STM32L4xx_HAL_Driver/Src/stm32l4xx_hal_pcd.c ****       case HAL_PCD_MSPINIT_CB_ID :
 406:Drivers/STM32L4xx_HAL_Driver/Src/stm32l4xx_hal_pcd.c ****         hpcd->MspInitCallback = pCallback;
 407:Drivers/STM32L4xx_HAL_Driver/Src/stm32l4xx_hal_pcd.c ****         break;
 408:Drivers/STM32L4xx_HAL_Driver/Src/stm32l4xx_hal_pcd.c **** 
 409:Drivers/STM32L4xx_HAL_Driver/Src/stm32l4xx_hal_pcd.c ****       case HAL_PCD_MSPDEINIT_CB_ID :
 410:Drivers/STM32L4xx_HAL_Driver/Src/stm32l4xx_hal_pcd.c ****         hpcd->MspDeInitCallback = pCallback;
 411:Drivers/STM32L4xx_HAL_Driver/Src/stm32l4xx_hal_pcd.c ****         break;
 412:Drivers/STM32L4xx_HAL_Driver/Src/stm32l4xx_hal_pcd.c **** 
 413:Drivers/STM32L4xx_HAL_Driver/Src/stm32l4xx_hal_pcd.c ****       default :
 414:Drivers/STM32L4xx_HAL_Driver/Src/stm32l4xx_hal_pcd.c ****         /* Update the error code */
 415:Drivers/STM32L4xx_HAL_Driver/Src/stm32l4xx_hal_pcd.c ****         hpcd->ErrorCode |= HAL_PCD_ERROR_INVALID_CALLBACK;
 416:Drivers/STM32L4xx_HAL_Driver/Src/stm32l4xx_hal_pcd.c ****         /* Return error status */
 417:Drivers/STM32L4xx_HAL_Driver/Src/stm32l4xx_hal_pcd.c ****         status =  HAL_ERROR;
 418:Drivers/STM32L4xx_HAL_Driver/Src/stm32l4xx_hal_pcd.c ****         break;
 419:Drivers/STM32L4xx_HAL_Driver/Src/stm32l4xx_hal_pcd.c ****     }
 420:Drivers/STM32L4xx_HAL_Driver/Src/stm32l4xx_hal_pcd.c ****   }
 421:Drivers/STM32L4xx_HAL_Driver/Src/stm32l4xx_hal_pcd.c ****   else
 422:Drivers/STM32L4xx_HAL_Driver/Src/stm32l4xx_hal_pcd.c ****   {
 423:Drivers/STM32L4xx_HAL_Driver/Src/stm32l4xx_hal_pcd.c ****     /* Update the error code */
 424:Drivers/STM32L4xx_HAL_Driver/Src/stm32l4xx_hal_pcd.c ****     hpcd->ErrorCode |= HAL_PCD_ERROR_INVALID_CALLBACK;
 425:Drivers/STM32L4xx_HAL_Driver/Src/stm32l4xx_hal_pcd.c ****     /* Return error status */
 426:Drivers/STM32L4xx_HAL_Driver/Src/stm32l4xx_hal_pcd.c ****     status =  HAL_ERROR;
 427:Drivers/STM32L4xx_HAL_Driver/Src/stm32l4xx_hal_pcd.c ****   }
 428:Drivers/STM32L4xx_HAL_Driver/Src/stm32l4xx_hal_pcd.c **** 
 429:Drivers/STM32L4xx_HAL_Driver/Src/stm32l4xx_hal_pcd.c ****   /* Release Lock */
 430:Drivers/STM32L4xx_HAL_Driver/Src/stm32l4xx_hal_pcd.c ****   __HAL_UNLOCK(hpcd);
 431:Drivers/STM32L4xx_HAL_Driver/Src/stm32l4xx_hal_pcd.c ****   return status;
 432:Drivers/STM32L4xx_HAL_Driver/Src/stm32l4xx_hal_pcd.c **** }
 433:Drivers/STM32L4xx_HAL_Driver/Src/stm32l4xx_hal_pcd.c **** 
 434:Drivers/STM32L4xx_HAL_Driver/Src/stm32l4xx_hal_pcd.c **** /**
 435:Drivers/STM32L4xx_HAL_Driver/Src/stm32l4xx_hal_pcd.c ****   * @brief  Unregister an USB PCD Callback
 436:Drivers/STM32L4xx_HAL_Driver/Src/stm32l4xx_hal_pcd.c ****   *         USB PCD callback is redirected to the weak predefined callback
 437:Drivers/STM32L4xx_HAL_Driver/Src/stm32l4xx_hal_pcd.c ****   * @param  hpcd USB PCD handle
 438:Drivers/STM32L4xx_HAL_Driver/Src/stm32l4xx_hal_pcd.c ****   * @param  CallbackID ID of the callback to be unregistered
 439:Drivers/STM32L4xx_HAL_Driver/Src/stm32l4xx_hal_pcd.c ****   *         This parameter can be one of the following values:
 440:Drivers/STM32L4xx_HAL_Driver/Src/stm32l4xx_hal_pcd.c ****   *          @arg @ref HAL_PCD_SOF_CB_ID USB PCD SOF callback ID
 441:Drivers/STM32L4xx_HAL_Driver/Src/stm32l4xx_hal_pcd.c ****   *          @arg @ref HAL_PCD_SETUPSTAGE_CB_ID USB PCD Setup callback ID
 442:Drivers/STM32L4xx_HAL_Driver/Src/stm32l4xx_hal_pcd.c ****   *          @arg @ref HAL_PCD_RESET_CB_ID USB PCD Reset callback ID
 443:Drivers/STM32L4xx_HAL_Driver/Src/stm32l4xx_hal_pcd.c ****   *          @arg @ref HAL_PCD_SUSPEND_CB_ID USB PCD Suspend callback ID
 444:Drivers/STM32L4xx_HAL_Driver/Src/stm32l4xx_hal_pcd.c ****   *          @arg @ref HAL_PCD_RESUME_CB_ID USB PCD Resume callback ID
 445:Drivers/STM32L4xx_HAL_Driver/Src/stm32l4xx_hal_pcd.c ****   *          @arg @ref HAL_PCD_CONNECT_CB_ID USB PCD Connect callback ID
ARM GAS  /tmp/ccFcOOzb.s 			page 18


 446:Drivers/STM32L4xx_HAL_Driver/Src/stm32l4xx_hal_pcd.c ****   *          @arg @ref HAL_PCD_DISCONNECT_CB_ID USB PCD Disconnect callback ID
 447:Drivers/STM32L4xx_HAL_Driver/Src/stm32l4xx_hal_pcd.c ****   *          @arg @ref HAL_PCD_MSPINIT_CB_ID MspDeInit callback ID
 448:Drivers/STM32L4xx_HAL_Driver/Src/stm32l4xx_hal_pcd.c ****   *          @arg @ref HAL_PCD_MSPDEINIT_CB_ID MspDeInit callback ID
 449:Drivers/STM32L4xx_HAL_Driver/Src/stm32l4xx_hal_pcd.c ****   * @retval HAL status
 450:Drivers/STM32L4xx_HAL_Driver/Src/stm32l4xx_hal_pcd.c ****   */
 451:Drivers/STM32L4xx_HAL_Driver/Src/stm32l4xx_hal_pcd.c **** HAL_StatusTypeDef HAL_PCD_UnRegisterCallback(PCD_HandleTypeDef *hpcd, HAL_PCD_CallbackIDTypeDef Cal
 452:Drivers/STM32L4xx_HAL_Driver/Src/stm32l4xx_hal_pcd.c **** {
 453:Drivers/STM32L4xx_HAL_Driver/Src/stm32l4xx_hal_pcd.c ****   HAL_StatusTypeDef status = HAL_OK;
 454:Drivers/STM32L4xx_HAL_Driver/Src/stm32l4xx_hal_pcd.c **** 
 455:Drivers/STM32L4xx_HAL_Driver/Src/stm32l4xx_hal_pcd.c ****   /* Process locked */
 456:Drivers/STM32L4xx_HAL_Driver/Src/stm32l4xx_hal_pcd.c ****   __HAL_LOCK(hpcd);
 457:Drivers/STM32L4xx_HAL_Driver/Src/stm32l4xx_hal_pcd.c **** 
 458:Drivers/STM32L4xx_HAL_Driver/Src/stm32l4xx_hal_pcd.c ****   /* Setup Legacy weak Callbacks  */
 459:Drivers/STM32L4xx_HAL_Driver/Src/stm32l4xx_hal_pcd.c ****   if (hpcd->State == HAL_PCD_STATE_READY)
 460:Drivers/STM32L4xx_HAL_Driver/Src/stm32l4xx_hal_pcd.c ****   {
 461:Drivers/STM32L4xx_HAL_Driver/Src/stm32l4xx_hal_pcd.c ****     switch (CallbackID)
 462:Drivers/STM32L4xx_HAL_Driver/Src/stm32l4xx_hal_pcd.c ****     {
 463:Drivers/STM32L4xx_HAL_Driver/Src/stm32l4xx_hal_pcd.c ****       case HAL_PCD_SOF_CB_ID :
 464:Drivers/STM32L4xx_HAL_Driver/Src/stm32l4xx_hal_pcd.c ****         hpcd->SOFCallback = HAL_PCD_SOFCallback;
 465:Drivers/STM32L4xx_HAL_Driver/Src/stm32l4xx_hal_pcd.c ****         break;
 466:Drivers/STM32L4xx_HAL_Driver/Src/stm32l4xx_hal_pcd.c **** 
 467:Drivers/STM32L4xx_HAL_Driver/Src/stm32l4xx_hal_pcd.c ****       case HAL_PCD_SETUPSTAGE_CB_ID :
 468:Drivers/STM32L4xx_HAL_Driver/Src/stm32l4xx_hal_pcd.c ****         hpcd->SetupStageCallback = HAL_PCD_SetupStageCallback;
 469:Drivers/STM32L4xx_HAL_Driver/Src/stm32l4xx_hal_pcd.c ****         break;
 470:Drivers/STM32L4xx_HAL_Driver/Src/stm32l4xx_hal_pcd.c **** 
 471:Drivers/STM32L4xx_HAL_Driver/Src/stm32l4xx_hal_pcd.c ****       case HAL_PCD_RESET_CB_ID :
 472:Drivers/STM32L4xx_HAL_Driver/Src/stm32l4xx_hal_pcd.c ****         hpcd->ResetCallback = HAL_PCD_ResetCallback;
 473:Drivers/STM32L4xx_HAL_Driver/Src/stm32l4xx_hal_pcd.c ****         break;
 474:Drivers/STM32L4xx_HAL_Driver/Src/stm32l4xx_hal_pcd.c **** 
 475:Drivers/STM32L4xx_HAL_Driver/Src/stm32l4xx_hal_pcd.c ****       case HAL_PCD_SUSPEND_CB_ID :
 476:Drivers/STM32L4xx_HAL_Driver/Src/stm32l4xx_hal_pcd.c ****         hpcd->SuspendCallback = HAL_PCD_SuspendCallback;
 477:Drivers/STM32L4xx_HAL_Driver/Src/stm32l4xx_hal_pcd.c ****         break;
 478:Drivers/STM32L4xx_HAL_Driver/Src/stm32l4xx_hal_pcd.c **** 
 479:Drivers/STM32L4xx_HAL_Driver/Src/stm32l4xx_hal_pcd.c ****       case HAL_PCD_RESUME_CB_ID :
 480:Drivers/STM32L4xx_HAL_Driver/Src/stm32l4xx_hal_pcd.c ****         hpcd->ResumeCallback = HAL_PCD_ResumeCallback;
 481:Drivers/STM32L4xx_HAL_Driver/Src/stm32l4xx_hal_pcd.c ****         break;
 482:Drivers/STM32L4xx_HAL_Driver/Src/stm32l4xx_hal_pcd.c **** 
 483:Drivers/STM32L4xx_HAL_Driver/Src/stm32l4xx_hal_pcd.c ****       case HAL_PCD_CONNECT_CB_ID :
 484:Drivers/STM32L4xx_HAL_Driver/Src/stm32l4xx_hal_pcd.c ****         hpcd->ConnectCallback = HAL_PCD_ConnectCallback;
 485:Drivers/STM32L4xx_HAL_Driver/Src/stm32l4xx_hal_pcd.c ****         break;
 486:Drivers/STM32L4xx_HAL_Driver/Src/stm32l4xx_hal_pcd.c **** 
 487:Drivers/STM32L4xx_HAL_Driver/Src/stm32l4xx_hal_pcd.c ****       case HAL_PCD_DISCONNECT_CB_ID :
 488:Drivers/STM32L4xx_HAL_Driver/Src/stm32l4xx_hal_pcd.c ****         hpcd->DisconnectCallback = HAL_PCD_DisconnectCallback;
 489:Drivers/STM32L4xx_HAL_Driver/Src/stm32l4xx_hal_pcd.c ****         break;
 490:Drivers/STM32L4xx_HAL_Driver/Src/stm32l4xx_hal_pcd.c **** 
 491:Drivers/STM32L4xx_HAL_Driver/Src/stm32l4xx_hal_pcd.c ****       case HAL_PCD_MSPINIT_CB_ID :
 492:Drivers/STM32L4xx_HAL_Driver/Src/stm32l4xx_hal_pcd.c ****         hpcd->MspInitCallback = HAL_PCD_MspInit;
 493:Drivers/STM32L4xx_HAL_Driver/Src/stm32l4xx_hal_pcd.c ****         break;
 494:Drivers/STM32L4xx_HAL_Driver/Src/stm32l4xx_hal_pcd.c **** 
 495:Drivers/STM32L4xx_HAL_Driver/Src/stm32l4xx_hal_pcd.c ****       case HAL_PCD_MSPDEINIT_CB_ID :
 496:Drivers/STM32L4xx_HAL_Driver/Src/stm32l4xx_hal_pcd.c ****         hpcd->MspDeInitCallback = HAL_PCD_MspDeInit;
 497:Drivers/STM32L4xx_HAL_Driver/Src/stm32l4xx_hal_pcd.c ****         break;
 498:Drivers/STM32L4xx_HAL_Driver/Src/stm32l4xx_hal_pcd.c **** 
 499:Drivers/STM32L4xx_HAL_Driver/Src/stm32l4xx_hal_pcd.c ****       default :
 500:Drivers/STM32L4xx_HAL_Driver/Src/stm32l4xx_hal_pcd.c ****         /* Update the error code */
 501:Drivers/STM32L4xx_HAL_Driver/Src/stm32l4xx_hal_pcd.c ****         hpcd->ErrorCode |= HAL_PCD_ERROR_INVALID_CALLBACK;
 502:Drivers/STM32L4xx_HAL_Driver/Src/stm32l4xx_hal_pcd.c **** 
ARM GAS  /tmp/ccFcOOzb.s 			page 19


 503:Drivers/STM32L4xx_HAL_Driver/Src/stm32l4xx_hal_pcd.c ****         /* Return error status */
 504:Drivers/STM32L4xx_HAL_Driver/Src/stm32l4xx_hal_pcd.c ****         status =  HAL_ERROR;
 505:Drivers/STM32L4xx_HAL_Driver/Src/stm32l4xx_hal_pcd.c ****         break;
 506:Drivers/STM32L4xx_HAL_Driver/Src/stm32l4xx_hal_pcd.c ****     }
 507:Drivers/STM32L4xx_HAL_Driver/Src/stm32l4xx_hal_pcd.c ****   }
 508:Drivers/STM32L4xx_HAL_Driver/Src/stm32l4xx_hal_pcd.c ****   else if (hpcd->State == HAL_PCD_STATE_RESET)
 509:Drivers/STM32L4xx_HAL_Driver/Src/stm32l4xx_hal_pcd.c ****   {
 510:Drivers/STM32L4xx_HAL_Driver/Src/stm32l4xx_hal_pcd.c ****     switch (CallbackID)
 511:Drivers/STM32L4xx_HAL_Driver/Src/stm32l4xx_hal_pcd.c ****     {
 512:Drivers/STM32L4xx_HAL_Driver/Src/stm32l4xx_hal_pcd.c ****       case HAL_PCD_MSPINIT_CB_ID :
 513:Drivers/STM32L4xx_HAL_Driver/Src/stm32l4xx_hal_pcd.c ****         hpcd->MspInitCallback = HAL_PCD_MspInit;
 514:Drivers/STM32L4xx_HAL_Driver/Src/stm32l4xx_hal_pcd.c ****         break;
 515:Drivers/STM32L4xx_HAL_Driver/Src/stm32l4xx_hal_pcd.c **** 
 516:Drivers/STM32L4xx_HAL_Driver/Src/stm32l4xx_hal_pcd.c ****       case HAL_PCD_MSPDEINIT_CB_ID :
 517:Drivers/STM32L4xx_HAL_Driver/Src/stm32l4xx_hal_pcd.c ****         hpcd->MspDeInitCallback = HAL_PCD_MspDeInit;
 518:Drivers/STM32L4xx_HAL_Driver/Src/stm32l4xx_hal_pcd.c ****         break;
 519:Drivers/STM32L4xx_HAL_Driver/Src/stm32l4xx_hal_pcd.c **** 
 520:Drivers/STM32L4xx_HAL_Driver/Src/stm32l4xx_hal_pcd.c ****       default :
 521:Drivers/STM32L4xx_HAL_Driver/Src/stm32l4xx_hal_pcd.c ****         /* Update the error code */
 522:Drivers/STM32L4xx_HAL_Driver/Src/stm32l4xx_hal_pcd.c ****         hpcd->ErrorCode |= HAL_PCD_ERROR_INVALID_CALLBACK;
 523:Drivers/STM32L4xx_HAL_Driver/Src/stm32l4xx_hal_pcd.c **** 
 524:Drivers/STM32L4xx_HAL_Driver/Src/stm32l4xx_hal_pcd.c ****         /* Return error status */
 525:Drivers/STM32L4xx_HAL_Driver/Src/stm32l4xx_hal_pcd.c ****         status =  HAL_ERROR;
 526:Drivers/STM32L4xx_HAL_Driver/Src/stm32l4xx_hal_pcd.c ****         break;
 527:Drivers/STM32L4xx_HAL_Driver/Src/stm32l4xx_hal_pcd.c ****     }
 528:Drivers/STM32L4xx_HAL_Driver/Src/stm32l4xx_hal_pcd.c ****   }
 529:Drivers/STM32L4xx_HAL_Driver/Src/stm32l4xx_hal_pcd.c ****   else
 530:Drivers/STM32L4xx_HAL_Driver/Src/stm32l4xx_hal_pcd.c ****   {
 531:Drivers/STM32L4xx_HAL_Driver/Src/stm32l4xx_hal_pcd.c ****     /* Update the error code */
 532:Drivers/STM32L4xx_HAL_Driver/Src/stm32l4xx_hal_pcd.c ****     hpcd->ErrorCode |= HAL_PCD_ERROR_INVALID_CALLBACK;
 533:Drivers/STM32L4xx_HAL_Driver/Src/stm32l4xx_hal_pcd.c **** 
 534:Drivers/STM32L4xx_HAL_Driver/Src/stm32l4xx_hal_pcd.c ****     /* Return error status */
 535:Drivers/STM32L4xx_HAL_Driver/Src/stm32l4xx_hal_pcd.c ****     status =  HAL_ERROR;
 536:Drivers/STM32L4xx_HAL_Driver/Src/stm32l4xx_hal_pcd.c ****   }
 537:Drivers/STM32L4xx_HAL_Driver/Src/stm32l4xx_hal_pcd.c **** 
 538:Drivers/STM32L4xx_HAL_Driver/Src/stm32l4xx_hal_pcd.c ****   /* Release Lock */
 539:Drivers/STM32L4xx_HAL_Driver/Src/stm32l4xx_hal_pcd.c ****   __HAL_UNLOCK(hpcd);
 540:Drivers/STM32L4xx_HAL_Driver/Src/stm32l4xx_hal_pcd.c ****   return status;
 541:Drivers/STM32L4xx_HAL_Driver/Src/stm32l4xx_hal_pcd.c **** }
 542:Drivers/STM32L4xx_HAL_Driver/Src/stm32l4xx_hal_pcd.c **** 
 543:Drivers/STM32L4xx_HAL_Driver/Src/stm32l4xx_hal_pcd.c **** /**
 544:Drivers/STM32L4xx_HAL_Driver/Src/stm32l4xx_hal_pcd.c ****   * @brief  Register USB PCD Data OUT Stage Callback
 545:Drivers/STM32L4xx_HAL_Driver/Src/stm32l4xx_hal_pcd.c ****   *         To be used instead of the weak HAL_PCD_DataOutStageCallback() predefined callback
 546:Drivers/STM32L4xx_HAL_Driver/Src/stm32l4xx_hal_pcd.c ****   * @param  hpcd PCD handle
 547:Drivers/STM32L4xx_HAL_Driver/Src/stm32l4xx_hal_pcd.c ****   * @param  pCallback pointer to the USB PCD Data OUT Stage Callback function
 548:Drivers/STM32L4xx_HAL_Driver/Src/stm32l4xx_hal_pcd.c ****   * @retval HAL status
 549:Drivers/STM32L4xx_HAL_Driver/Src/stm32l4xx_hal_pcd.c ****   */
 550:Drivers/STM32L4xx_HAL_Driver/Src/stm32l4xx_hal_pcd.c **** HAL_StatusTypeDef HAL_PCD_RegisterDataOutStageCallback(PCD_HandleTypeDef *hpcd,
 551:Drivers/STM32L4xx_HAL_Driver/Src/stm32l4xx_hal_pcd.c ****                                                        pPCD_DataOutStageCallbackTypeDef pCallback)
 552:Drivers/STM32L4xx_HAL_Driver/Src/stm32l4xx_hal_pcd.c **** {
 553:Drivers/STM32L4xx_HAL_Driver/Src/stm32l4xx_hal_pcd.c ****   HAL_StatusTypeDef status = HAL_OK;
 554:Drivers/STM32L4xx_HAL_Driver/Src/stm32l4xx_hal_pcd.c **** 
 555:Drivers/STM32L4xx_HAL_Driver/Src/stm32l4xx_hal_pcd.c ****   if (pCallback == NULL)
 556:Drivers/STM32L4xx_HAL_Driver/Src/stm32l4xx_hal_pcd.c ****   {
 557:Drivers/STM32L4xx_HAL_Driver/Src/stm32l4xx_hal_pcd.c ****     /* Update the error code */
 558:Drivers/STM32L4xx_HAL_Driver/Src/stm32l4xx_hal_pcd.c ****     hpcd->ErrorCode |= HAL_PCD_ERROR_INVALID_CALLBACK;
 559:Drivers/STM32L4xx_HAL_Driver/Src/stm32l4xx_hal_pcd.c **** 
ARM GAS  /tmp/ccFcOOzb.s 			page 20


 560:Drivers/STM32L4xx_HAL_Driver/Src/stm32l4xx_hal_pcd.c ****     return HAL_ERROR;
 561:Drivers/STM32L4xx_HAL_Driver/Src/stm32l4xx_hal_pcd.c ****   }
 562:Drivers/STM32L4xx_HAL_Driver/Src/stm32l4xx_hal_pcd.c **** 
 563:Drivers/STM32L4xx_HAL_Driver/Src/stm32l4xx_hal_pcd.c ****   /* Process locked */
 564:Drivers/STM32L4xx_HAL_Driver/Src/stm32l4xx_hal_pcd.c ****   __HAL_LOCK(hpcd);
 565:Drivers/STM32L4xx_HAL_Driver/Src/stm32l4xx_hal_pcd.c **** 
 566:Drivers/STM32L4xx_HAL_Driver/Src/stm32l4xx_hal_pcd.c ****   if (hpcd->State == HAL_PCD_STATE_READY)
 567:Drivers/STM32L4xx_HAL_Driver/Src/stm32l4xx_hal_pcd.c ****   {
 568:Drivers/STM32L4xx_HAL_Driver/Src/stm32l4xx_hal_pcd.c ****     hpcd->DataOutStageCallback = pCallback;
 569:Drivers/STM32L4xx_HAL_Driver/Src/stm32l4xx_hal_pcd.c ****   }
 570:Drivers/STM32L4xx_HAL_Driver/Src/stm32l4xx_hal_pcd.c ****   else
 571:Drivers/STM32L4xx_HAL_Driver/Src/stm32l4xx_hal_pcd.c ****   {
 572:Drivers/STM32L4xx_HAL_Driver/Src/stm32l4xx_hal_pcd.c ****     /* Update the error code */
 573:Drivers/STM32L4xx_HAL_Driver/Src/stm32l4xx_hal_pcd.c ****     hpcd->ErrorCode |= HAL_PCD_ERROR_INVALID_CALLBACK;
 574:Drivers/STM32L4xx_HAL_Driver/Src/stm32l4xx_hal_pcd.c **** 
 575:Drivers/STM32L4xx_HAL_Driver/Src/stm32l4xx_hal_pcd.c ****     /* Return error status */
 576:Drivers/STM32L4xx_HAL_Driver/Src/stm32l4xx_hal_pcd.c ****     status =  HAL_ERROR;
 577:Drivers/STM32L4xx_HAL_Driver/Src/stm32l4xx_hal_pcd.c ****   }
 578:Drivers/STM32L4xx_HAL_Driver/Src/stm32l4xx_hal_pcd.c **** 
 579:Drivers/STM32L4xx_HAL_Driver/Src/stm32l4xx_hal_pcd.c ****   /* Release Lock */
 580:Drivers/STM32L4xx_HAL_Driver/Src/stm32l4xx_hal_pcd.c ****   __HAL_UNLOCK(hpcd);
 581:Drivers/STM32L4xx_HAL_Driver/Src/stm32l4xx_hal_pcd.c **** 
 582:Drivers/STM32L4xx_HAL_Driver/Src/stm32l4xx_hal_pcd.c ****   return status;
 583:Drivers/STM32L4xx_HAL_Driver/Src/stm32l4xx_hal_pcd.c **** }
 584:Drivers/STM32L4xx_HAL_Driver/Src/stm32l4xx_hal_pcd.c **** 
 585:Drivers/STM32L4xx_HAL_Driver/Src/stm32l4xx_hal_pcd.c **** /**
 586:Drivers/STM32L4xx_HAL_Driver/Src/stm32l4xx_hal_pcd.c ****   * @brief  Unregister the USB PCD Data OUT Stage Callback
 587:Drivers/STM32L4xx_HAL_Driver/Src/stm32l4xx_hal_pcd.c ****   *         USB PCD Data OUT Stage Callback is redirected to the weak HAL_PCD_DataOutStageCallback(
 588:Drivers/STM32L4xx_HAL_Driver/Src/stm32l4xx_hal_pcd.c ****   * @param  hpcd PCD handle
 589:Drivers/STM32L4xx_HAL_Driver/Src/stm32l4xx_hal_pcd.c ****   * @retval HAL status
 590:Drivers/STM32L4xx_HAL_Driver/Src/stm32l4xx_hal_pcd.c ****   */
 591:Drivers/STM32L4xx_HAL_Driver/Src/stm32l4xx_hal_pcd.c **** HAL_StatusTypeDef HAL_PCD_UnRegisterDataOutStageCallback(PCD_HandleTypeDef *hpcd)
 592:Drivers/STM32L4xx_HAL_Driver/Src/stm32l4xx_hal_pcd.c **** {
 593:Drivers/STM32L4xx_HAL_Driver/Src/stm32l4xx_hal_pcd.c ****   HAL_StatusTypeDef status = HAL_OK;
 594:Drivers/STM32L4xx_HAL_Driver/Src/stm32l4xx_hal_pcd.c **** 
 595:Drivers/STM32L4xx_HAL_Driver/Src/stm32l4xx_hal_pcd.c ****   /* Process locked */
 596:Drivers/STM32L4xx_HAL_Driver/Src/stm32l4xx_hal_pcd.c ****   __HAL_LOCK(hpcd);
 597:Drivers/STM32L4xx_HAL_Driver/Src/stm32l4xx_hal_pcd.c **** 
 598:Drivers/STM32L4xx_HAL_Driver/Src/stm32l4xx_hal_pcd.c ****   if (hpcd->State == HAL_PCD_STATE_READY)
 599:Drivers/STM32L4xx_HAL_Driver/Src/stm32l4xx_hal_pcd.c ****   {
 600:Drivers/STM32L4xx_HAL_Driver/Src/stm32l4xx_hal_pcd.c ****     hpcd->DataOutStageCallback = HAL_PCD_DataOutStageCallback; /* Legacy weak DataOutStageCallback 
 601:Drivers/STM32L4xx_HAL_Driver/Src/stm32l4xx_hal_pcd.c ****   }
 602:Drivers/STM32L4xx_HAL_Driver/Src/stm32l4xx_hal_pcd.c ****   else
 603:Drivers/STM32L4xx_HAL_Driver/Src/stm32l4xx_hal_pcd.c ****   {
 604:Drivers/STM32L4xx_HAL_Driver/Src/stm32l4xx_hal_pcd.c ****     /* Update the error code */
 605:Drivers/STM32L4xx_HAL_Driver/Src/stm32l4xx_hal_pcd.c ****     hpcd->ErrorCode |= HAL_PCD_ERROR_INVALID_CALLBACK;
 606:Drivers/STM32L4xx_HAL_Driver/Src/stm32l4xx_hal_pcd.c **** 
 607:Drivers/STM32L4xx_HAL_Driver/Src/stm32l4xx_hal_pcd.c ****     /* Return error status */
 608:Drivers/STM32L4xx_HAL_Driver/Src/stm32l4xx_hal_pcd.c ****     status =  HAL_ERROR;
 609:Drivers/STM32L4xx_HAL_Driver/Src/stm32l4xx_hal_pcd.c ****   }
 610:Drivers/STM32L4xx_HAL_Driver/Src/stm32l4xx_hal_pcd.c **** 
 611:Drivers/STM32L4xx_HAL_Driver/Src/stm32l4xx_hal_pcd.c ****   /* Release Lock */
 612:Drivers/STM32L4xx_HAL_Driver/Src/stm32l4xx_hal_pcd.c ****   __HAL_UNLOCK(hpcd);
 613:Drivers/STM32L4xx_HAL_Driver/Src/stm32l4xx_hal_pcd.c **** 
 614:Drivers/STM32L4xx_HAL_Driver/Src/stm32l4xx_hal_pcd.c ****   return status;
 615:Drivers/STM32L4xx_HAL_Driver/Src/stm32l4xx_hal_pcd.c **** }
 616:Drivers/STM32L4xx_HAL_Driver/Src/stm32l4xx_hal_pcd.c **** 
ARM GAS  /tmp/ccFcOOzb.s 			page 21


 617:Drivers/STM32L4xx_HAL_Driver/Src/stm32l4xx_hal_pcd.c **** /**
 618:Drivers/STM32L4xx_HAL_Driver/Src/stm32l4xx_hal_pcd.c ****   * @brief  Register USB PCD Data IN Stage Callback
 619:Drivers/STM32L4xx_HAL_Driver/Src/stm32l4xx_hal_pcd.c ****   *         To be used instead of the weak HAL_PCD_DataInStageCallback() predefined callback
 620:Drivers/STM32L4xx_HAL_Driver/Src/stm32l4xx_hal_pcd.c ****   * @param  hpcd PCD handle
 621:Drivers/STM32L4xx_HAL_Driver/Src/stm32l4xx_hal_pcd.c ****   * @param  pCallback pointer to the USB PCD Data IN Stage Callback function
 622:Drivers/STM32L4xx_HAL_Driver/Src/stm32l4xx_hal_pcd.c ****   * @retval HAL status
 623:Drivers/STM32L4xx_HAL_Driver/Src/stm32l4xx_hal_pcd.c ****   */
 624:Drivers/STM32L4xx_HAL_Driver/Src/stm32l4xx_hal_pcd.c **** HAL_StatusTypeDef HAL_PCD_RegisterDataInStageCallback(PCD_HandleTypeDef *hpcd,
 625:Drivers/STM32L4xx_HAL_Driver/Src/stm32l4xx_hal_pcd.c ****                                                       pPCD_DataInStageCallbackTypeDef pCallback)
 626:Drivers/STM32L4xx_HAL_Driver/Src/stm32l4xx_hal_pcd.c **** {
 627:Drivers/STM32L4xx_HAL_Driver/Src/stm32l4xx_hal_pcd.c ****   HAL_StatusTypeDef status = HAL_OK;
 628:Drivers/STM32L4xx_HAL_Driver/Src/stm32l4xx_hal_pcd.c **** 
 629:Drivers/STM32L4xx_HAL_Driver/Src/stm32l4xx_hal_pcd.c ****   if (pCallback == NULL)
 630:Drivers/STM32L4xx_HAL_Driver/Src/stm32l4xx_hal_pcd.c ****   {
 631:Drivers/STM32L4xx_HAL_Driver/Src/stm32l4xx_hal_pcd.c ****     /* Update the error code */
 632:Drivers/STM32L4xx_HAL_Driver/Src/stm32l4xx_hal_pcd.c ****     hpcd->ErrorCode |= HAL_PCD_ERROR_INVALID_CALLBACK;
 633:Drivers/STM32L4xx_HAL_Driver/Src/stm32l4xx_hal_pcd.c **** 
 634:Drivers/STM32L4xx_HAL_Driver/Src/stm32l4xx_hal_pcd.c ****     return HAL_ERROR;
 635:Drivers/STM32L4xx_HAL_Driver/Src/stm32l4xx_hal_pcd.c ****   }
 636:Drivers/STM32L4xx_HAL_Driver/Src/stm32l4xx_hal_pcd.c **** 
 637:Drivers/STM32L4xx_HAL_Driver/Src/stm32l4xx_hal_pcd.c ****   /* Process locked */
 638:Drivers/STM32L4xx_HAL_Driver/Src/stm32l4xx_hal_pcd.c ****   __HAL_LOCK(hpcd);
 639:Drivers/STM32L4xx_HAL_Driver/Src/stm32l4xx_hal_pcd.c **** 
 640:Drivers/STM32L4xx_HAL_Driver/Src/stm32l4xx_hal_pcd.c ****   if (hpcd->State == HAL_PCD_STATE_READY)
 641:Drivers/STM32L4xx_HAL_Driver/Src/stm32l4xx_hal_pcd.c ****   {
 642:Drivers/STM32L4xx_HAL_Driver/Src/stm32l4xx_hal_pcd.c ****     hpcd->DataInStageCallback = pCallback;
 643:Drivers/STM32L4xx_HAL_Driver/Src/stm32l4xx_hal_pcd.c ****   }
 644:Drivers/STM32L4xx_HAL_Driver/Src/stm32l4xx_hal_pcd.c ****   else
 645:Drivers/STM32L4xx_HAL_Driver/Src/stm32l4xx_hal_pcd.c ****   {
 646:Drivers/STM32L4xx_HAL_Driver/Src/stm32l4xx_hal_pcd.c ****     /* Update the error code */
 647:Drivers/STM32L4xx_HAL_Driver/Src/stm32l4xx_hal_pcd.c ****     hpcd->ErrorCode |= HAL_PCD_ERROR_INVALID_CALLBACK;
 648:Drivers/STM32L4xx_HAL_Driver/Src/stm32l4xx_hal_pcd.c **** 
 649:Drivers/STM32L4xx_HAL_Driver/Src/stm32l4xx_hal_pcd.c ****     /* Return error status */
 650:Drivers/STM32L4xx_HAL_Driver/Src/stm32l4xx_hal_pcd.c ****     status =  HAL_ERROR;
 651:Drivers/STM32L4xx_HAL_Driver/Src/stm32l4xx_hal_pcd.c ****   }
 652:Drivers/STM32L4xx_HAL_Driver/Src/stm32l4xx_hal_pcd.c **** 
 653:Drivers/STM32L4xx_HAL_Driver/Src/stm32l4xx_hal_pcd.c ****   /* Release Lock */
 654:Drivers/STM32L4xx_HAL_Driver/Src/stm32l4xx_hal_pcd.c ****   __HAL_UNLOCK(hpcd);
 655:Drivers/STM32L4xx_HAL_Driver/Src/stm32l4xx_hal_pcd.c **** 
 656:Drivers/STM32L4xx_HAL_Driver/Src/stm32l4xx_hal_pcd.c ****   return status;
 657:Drivers/STM32L4xx_HAL_Driver/Src/stm32l4xx_hal_pcd.c **** }
 658:Drivers/STM32L4xx_HAL_Driver/Src/stm32l4xx_hal_pcd.c **** 
 659:Drivers/STM32L4xx_HAL_Driver/Src/stm32l4xx_hal_pcd.c **** /**
 660:Drivers/STM32L4xx_HAL_Driver/Src/stm32l4xx_hal_pcd.c ****   * @brief  Unregister the USB PCD Data IN Stage Callback
 661:Drivers/STM32L4xx_HAL_Driver/Src/stm32l4xx_hal_pcd.c ****   *         USB PCD Data OUT Stage Callback is redirected to the weak HAL_PCD_DataInStageCallback()
 662:Drivers/STM32L4xx_HAL_Driver/Src/stm32l4xx_hal_pcd.c ****   * @param  hpcd PCD handle
 663:Drivers/STM32L4xx_HAL_Driver/Src/stm32l4xx_hal_pcd.c ****   * @retval HAL status
 664:Drivers/STM32L4xx_HAL_Driver/Src/stm32l4xx_hal_pcd.c ****   */
 665:Drivers/STM32L4xx_HAL_Driver/Src/stm32l4xx_hal_pcd.c **** HAL_StatusTypeDef HAL_PCD_UnRegisterDataInStageCallback(PCD_HandleTypeDef *hpcd)
 666:Drivers/STM32L4xx_HAL_Driver/Src/stm32l4xx_hal_pcd.c **** {
 667:Drivers/STM32L4xx_HAL_Driver/Src/stm32l4xx_hal_pcd.c ****   HAL_StatusTypeDef status = HAL_OK;
 668:Drivers/STM32L4xx_HAL_Driver/Src/stm32l4xx_hal_pcd.c **** 
 669:Drivers/STM32L4xx_HAL_Driver/Src/stm32l4xx_hal_pcd.c ****   /* Process locked */
 670:Drivers/STM32L4xx_HAL_Driver/Src/stm32l4xx_hal_pcd.c ****   __HAL_LOCK(hpcd);
 671:Drivers/STM32L4xx_HAL_Driver/Src/stm32l4xx_hal_pcd.c **** 
 672:Drivers/STM32L4xx_HAL_Driver/Src/stm32l4xx_hal_pcd.c ****   if (hpcd->State == HAL_PCD_STATE_READY)
 673:Drivers/STM32L4xx_HAL_Driver/Src/stm32l4xx_hal_pcd.c ****   {
ARM GAS  /tmp/ccFcOOzb.s 			page 22


 674:Drivers/STM32L4xx_HAL_Driver/Src/stm32l4xx_hal_pcd.c ****     hpcd->DataInStageCallback = HAL_PCD_DataInStageCallback; /* Legacy weak DataInStageCallback  */
 675:Drivers/STM32L4xx_HAL_Driver/Src/stm32l4xx_hal_pcd.c ****   }
 676:Drivers/STM32L4xx_HAL_Driver/Src/stm32l4xx_hal_pcd.c ****   else
 677:Drivers/STM32L4xx_HAL_Driver/Src/stm32l4xx_hal_pcd.c ****   {
 678:Drivers/STM32L4xx_HAL_Driver/Src/stm32l4xx_hal_pcd.c ****     /* Update the error code */
 679:Drivers/STM32L4xx_HAL_Driver/Src/stm32l4xx_hal_pcd.c ****     hpcd->ErrorCode |= HAL_PCD_ERROR_INVALID_CALLBACK;
 680:Drivers/STM32L4xx_HAL_Driver/Src/stm32l4xx_hal_pcd.c **** 
 681:Drivers/STM32L4xx_HAL_Driver/Src/stm32l4xx_hal_pcd.c ****     /* Return error status */
 682:Drivers/STM32L4xx_HAL_Driver/Src/stm32l4xx_hal_pcd.c ****     status =  HAL_ERROR;
 683:Drivers/STM32L4xx_HAL_Driver/Src/stm32l4xx_hal_pcd.c ****   }
 684:Drivers/STM32L4xx_HAL_Driver/Src/stm32l4xx_hal_pcd.c **** 
 685:Drivers/STM32L4xx_HAL_Driver/Src/stm32l4xx_hal_pcd.c ****   /* Release Lock */
 686:Drivers/STM32L4xx_HAL_Driver/Src/stm32l4xx_hal_pcd.c ****   __HAL_UNLOCK(hpcd);
 687:Drivers/STM32L4xx_HAL_Driver/Src/stm32l4xx_hal_pcd.c **** 
 688:Drivers/STM32L4xx_HAL_Driver/Src/stm32l4xx_hal_pcd.c ****   return status;
 689:Drivers/STM32L4xx_HAL_Driver/Src/stm32l4xx_hal_pcd.c **** }
 690:Drivers/STM32L4xx_HAL_Driver/Src/stm32l4xx_hal_pcd.c **** 
 691:Drivers/STM32L4xx_HAL_Driver/Src/stm32l4xx_hal_pcd.c **** /**
 692:Drivers/STM32L4xx_HAL_Driver/Src/stm32l4xx_hal_pcd.c ****   * @brief  Register USB PCD Iso OUT incomplete Callback
 693:Drivers/STM32L4xx_HAL_Driver/Src/stm32l4xx_hal_pcd.c ****   *         To be used instead of the weak HAL_PCD_ISOOUTIncompleteCallback() predefined callback
 694:Drivers/STM32L4xx_HAL_Driver/Src/stm32l4xx_hal_pcd.c ****   * @param  hpcd PCD handle
 695:Drivers/STM32L4xx_HAL_Driver/Src/stm32l4xx_hal_pcd.c ****   * @param  pCallback pointer to the USB PCD Iso OUT incomplete Callback function
 696:Drivers/STM32L4xx_HAL_Driver/Src/stm32l4xx_hal_pcd.c ****   * @retval HAL status
 697:Drivers/STM32L4xx_HAL_Driver/Src/stm32l4xx_hal_pcd.c ****   */
 698:Drivers/STM32L4xx_HAL_Driver/Src/stm32l4xx_hal_pcd.c **** HAL_StatusTypeDef HAL_PCD_RegisterIsoOutIncpltCallback(PCD_HandleTypeDef *hpcd,
 699:Drivers/STM32L4xx_HAL_Driver/Src/stm32l4xx_hal_pcd.c ****                                                        pPCD_IsoOutIncpltCallbackTypeDef pCallback)
 700:Drivers/STM32L4xx_HAL_Driver/Src/stm32l4xx_hal_pcd.c **** {
 701:Drivers/STM32L4xx_HAL_Driver/Src/stm32l4xx_hal_pcd.c ****   HAL_StatusTypeDef status = HAL_OK;
 702:Drivers/STM32L4xx_HAL_Driver/Src/stm32l4xx_hal_pcd.c **** 
 703:Drivers/STM32L4xx_HAL_Driver/Src/stm32l4xx_hal_pcd.c ****   if (pCallback == NULL)
 704:Drivers/STM32L4xx_HAL_Driver/Src/stm32l4xx_hal_pcd.c ****   {
 705:Drivers/STM32L4xx_HAL_Driver/Src/stm32l4xx_hal_pcd.c ****     /* Update the error code */
 706:Drivers/STM32L4xx_HAL_Driver/Src/stm32l4xx_hal_pcd.c ****     hpcd->ErrorCode |= HAL_PCD_ERROR_INVALID_CALLBACK;
 707:Drivers/STM32L4xx_HAL_Driver/Src/stm32l4xx_hal_pcd.c **** 
 708:Drivers/STM32L4xx_HAL_Driver/Src/stm32l4xx_hal_pcd.c ****     return HAL_ERROR;
 709:Drivers/STM32L4xx_HAL_Driver/Src/stm32l4xx_hal_pcd.c ****   }
 710:Drivers/STM32L4xx_HAL_Driver/Src/stm32l4xx_hal_pcd.c **** 
 711:Drivers/STM32L4xx_HAL_Driver/Src/stm32l4xx_hal_pcd.c ****   /* Process locked */
 712:Drivers/STM32L4xx_HAL_Driver/Src/stm32l4xx_hal_pcd.c ****   __HAL_LOCK(hpcd);
 713:Drivers/STM32L4xx_HAL_Driver/Src/stm32l4xx_hal_pcd.c **** 
 714:Drivers/STM32L4xx_HAL_Driver/Src/stm32l4xx_hal_pcd.c ****   if (hpcd->State == HAL_PCD_STATE_READY)
 715:Drivers/STM32L4xx_HAL_Driver/Src/stm32l4xx_hal_pcd.c ****   {
 716:Drivers/STM32L4xx_HAL_Driver/Src/stm32l4xx_hal_pcd.c ****     hpcd->ISOOUTIncompleteCallback = pCallback;
 717:Drivers/STM32L4xx_HAL_Driver/Src/stm32l4xx_hal_pcd.c ****   }
 718:Drivers/STM32L4xx_HAL_Driver/Src/stm32l4xx_hal_pcd.c ****   else
 719:Drivers/STM32L4xx_HAL_Driver/Src/stm32l4xx_hal_pcd.c ****   {
 720:Drivers/STM32L4xx_HAL_Driver/Src/stm32l4xx_hal_pcd.c ****     /* Update the error code */
 721:Drivers/STM32L4xx_HAL_Driver/Src/stm32l4xx_hal_pcd.c ****     hpcd->ErrorCode |= HAL_PCD_ERROR_INVALID_CALLBACK;
 722:Drivers/STM32L4xx_HAL_Driver/Src/stm32l4xx_hal_pcd.c **** 
 723:Drivers/STM32L4xx_HAL_Driver/Src/stm32l4xx_hal_pcd.c ****     /* Return error status */
 724:Drivers/STM32L4xx_HAL_Driver/Src/stm32l4xx_hal_pcd.c ****     status =  HAL_ERROR;
 725:Drivers/STM32L4xx_HAL_Driver/Src/stm32l4xx_hal_pcd.c ****   }
 726:Drivers/STM32L4xx_HAL_Driver/Src/stm32l4xx_hal_pcd.c **** 
 727:Drivers/STM32L4xx_HAL_Driver/Src/stm32l4xx_hal_pcd.c ****   /* Release Lock */
 728:Drivers/STM32L4xx_HAL_Driver/Src/stm32l4xx_hal_pcd.c ****   __HAL_UNLOCK(hpcd);
 729:Drivers/STM32L4xx_HAL_Driver/Src/stm32l4xx_hal_pcd.c **** 
 730:Drivers/STM32L4xx_HAL_Driver/Src/stm32l4xx_hal_pcd.c ****   return status;
ARM GAS  /tmp/ccFcOOzb.s 			page 23


 731:Drivers/STM32L4xx_HAL_Driver/Src/stm32l4xx_hal_pcd.c **** }
 732:Drivers/STM32L4xx_HAL_Driver/Src/stm32l4xx_hal_pcd.c **** 
 733:Drivers/STM32L4xx_HAL_Driver/Src/stm32l4xx_hal_pcd.c **** /**
 734:Drivers/STM32L4xx_HAL_Driver/Src/stm32l4xx_hal_pcd.c ****   * @brief  Unregister the USB PCD Iso OUT incomplete Callback
 735:Drivers/STM32L4xx_HAL_Driver/Src/stm32l4xx_hal_pcd.c ****   *         USB PCD Iso OUT incomplete Callback is redirected
 736:Drivers/STM32L4xx_HAL_Driver/Src/stm32l4xx_hal_pcd.c ****   *         to the weak HAL_PCD_ISOOUTIncompleteCallback() predefined callback
 737:Drivers/STM32L4xx_HAL_Driver/Src/stm32l4xx_hal_pcd.c ****   * @param  hpcd PCD handle
 738:Drivers/STM32L4xx_HAL_Driver/Src/stm32l4xx_hal_pcd.c ****   * @retval HAL status
 739:Drivers/STM32L4xx_HAL_Driver/Src/stm32l4xx_hal_pcd.c ****   */
 740:Drivers/STM32L4xx_HAL_Driver/Src/stm32l4xx_hal_pcd.c **** HAL_StatusTypeDef HAL_PCD_UnRegisterIsoOutIncpltCallback(PCD_HandleTypeDef *hpcd)
 741:Drivers/STM32L4xx_HAL_Driver/Src/stm32l4xx_hal_pcd.c **** {
 742:Drivers/STM32L4xx_HAL_Driver/Src/stm32l4xx_hal_pcd.c ****   HAL_StatusTypeDef status = HAL_OK;
 743:Drivers/STM32L4xx_HAL_Driver/Src/stm32l4xx_hal_pcd.c **** 
 744:Drivers/STM32L4xx_HAL_Driver/Src/stm32l4xx_hal_pcd.c ****   /* Process locked */
 745:Drivers/STM32L4xx_HAL_Driver/Src/stm32l4xx_hal_pcd.c ****   __HAL_LOCK(hpcd);
 746:Drivers/STM32L4xx_HAL_Driver/Src/stm32l4xx_hal_pcd.c **** 
 747:Drivers/STM32L4xx_HAL_Driver/Src/stm32l4xx_hal_pcd.c ****   if (hpcd->State == HAL_PCD_STATE_READY)
 748:Drivers/STM32L4xx_HAL_Driver/Src/stm32l4xx_hal_pcd.c ****   {
 749:Drivers/STM32L4xx_HAL_Driver/Src/stm32l4xx_hal_pcd.c ****     hpcd->ISOOUTIncompleteCallback = HAL_PCD_ISOOUTIncompleteCallback; /* Legacy weak ISOOUTIncompl
 750:Drivers/STM32L4xx_HAL_Driver/Src/stm32l4xx_hal_pcd.c ****   }
 751:Drivers/STM32L4xx_HAL_Driver/Src/stm32l4xx_hal_pcd.c ****   else
 752:Drivers/STM32L4xx_HAL_Driver/Src/stm32l4xx_hal_pcd.c ****   {
 753:Drivers/STM32L4xx_HAL_Driver/Src/stm32l4xx_hal_pcd.c ****     /* Update the error code */
 754:Drivers/STM32L4xx_HAL_Driver/Src/stm32l4xx_hal_pcd.c ****     hpcd->ErrorCode |= HAL_PCD_ERROR_INVALID_CALLBACK;
 755:Drivers/STM32L4xx_HAL_Driver/Src/stm32l4xx_hal_pcd.c **** 
 756:Drivers/STM32L4xx_HAL_Driver/Src/stm32l4xx_hal_pcd.c ****     /* Return error status */
 757:Drivers/STM32L4xx_HAL_Driver/Src/stm32l4xx_hal_pcd.c ****     status =  HAL_ERROR;
 758:Drivers/STM32L4xx_HAL_Driver/Src/stm32l4xx_hal_pcd.c ****   }
 759:Drivers/STM32L4xx_HAL_Driver/Src/stm32l4xx_hal_pcd.c **** 
 760:Drivers/STM32L4xx_HAL_Driver/Src/stm32l4xx_hal_pcd.c ****   /* Release Lock */
 761:Drivers/STM32L4xx_HAL_Driver/Src/stm32l4xx_hal_pcd.c ****   __HAL_UNLOCK(hpcd);
 762:Drivers/STM32L4xx_HAL_Driver/Src/stm32l4xx_hal_pcd.c **** 
 763:Drivers/STM32L4xx_HAL_Driver/Src/stm32l4xx_hal_pcd.c ****   return status;
 764:Drivers/STM32L4xx_HAL_Driver/Src/stm32l4xx_hal_pcd.c **** }
 765:Drivers/STM32L4xx_HAL_Driver/Src/stm32l4xx_hal_pcd.c **** 
 766:Drivers/STM32L4xx_HAL_Driver/Src/stm32l4xx_hal_pcd.c **** /**
 767:Drivers/STM32L4xx_HAL_Driver/Src/stm32l4xx_hal_pcd.c ****   * @brief  Register USB PCD Iso IN incomplete Callback
 768:Drivers/STM32L4xx_HAL_Driver/Src/stm32l4xx_hal_pcd.c ****   *         To be used instead of the weak HAL_PCD_ISOINIncompleteCallback() predefined callback
 769:Drivers/STM32L4xx_HAL_Driver/Src/stm32l4xx_hal_pcd.c ****   * @param  hpcd PCD handle
 770:Drivers/STM32L4xx_HAL_Driver/Src/stm32l4xx_hal_pcd.c ****   * @param  pCallback pointer to the USB PCD Iso IN incomplete Callback function
 771:Drivers/STM32L4xx_HAL_Driver/Src/stm32l4xx_hal_pcd.c ****   * @retval HAL status
 772:Drivers/STM32L4xx_HAL_Driver/Src/stm32l4xx_hal_pcd.c ****   */
 773:Drivers/STM32L4xx_HAL_Driver/Src/stm32l4xx_hal_pcd.c **** HAL_StatusTypeDef HAL_PCD_RegisterIsoInIncpltCallback(PCD_HandleTypeDef *hpcd,
 774:Drivers/STM32L4xx_HAL_Driver/Src/stm32l4xx_hal_pcd.c ****                                                       pPCD_IsoInIncpltCallbackTypeDef pCallback)
 775:Drivers/STM32L4xx_HAL_Driver/Src/stm32l4xx_hal_pcd.c **** {
 776:Drivers/STM32L4xx_HAL_Driver/Src/stm32l4xx_hal_pcd.c ****   HAL_StatusTypeDef status = HAL_OK;
 777:Drivers/STM32L4xx_HAL_Driver/Src/stm32l4xx_hal_pcd.c **** 
 778:Drivers/STM32L4xx_HAL_Driver/Src/stm32l4xx_hal_pcd.c ****   if (pCallback == NULL)
 779:Drivers/STM32L4xx_HAL_Driver/Src/stm32l4xx_hal_pcd.c ****   {
 780:Drivers/STM32L4xx_HAL_Driver/Src/stm32l4xx_hal_pcd.c ****     /* Update the error code */
 781:Drivers/STM32L4xx_HAL_Driver/Src/stm32l4xx_hal_pcd.c ****     hpcd->ErrorCode |= HAL_PCD_ERROR_INVALID_CALLBACK;
 782:Drivers/STM32L4xx_HAL_Driver/Src/stm32l4xx_hal_pcd.c **** 
 783:Drivers/STM32L4xx_HAL_Driver/Src/stm32l4xx_hal_pcd.c ****     return HAL_ERROR;
 784:Drivers/STM32L4xx_HAL_Driver/Src/stm32l4xx_hal_pcd.c ****   }
 785:Drivers/STM32L4xx_HAL_Driver/Src/stm32l4xx_hal_pcd.c **** 
 786:Drivers/STM32L4xx_HAL_Driver/Src/stm32l4xx_hal_pcd.c ****   /* Process locked */
 787:Drivers/STM32L4xx_HAL_Driver/Src/stm32l4xx_hal_pcd.c ****   __HAL_LOCK(hpcd);
ARM GAS  /tmp/ccFcOOzb.s 			page 24


 788:Drivers/STM32L4xx_HAL_Driver/Src/stm32l4xx_hal_pcd.c **** 
 789:Drivers/STM32L4xx_HAL_Driver/Src/stm32l4xx_hal_pcd.c ****   if (hpcd->State == HAL_PCD_STATE_READY)
 790:Drivers/STM32L4xx_HAL_Driver/Src/stm32l4xx_hal_pcd.c ****   {
 791:Drivers/STM32L4xx_HAL_Driver/Src/stm32l4xx_hal_pcd.c ****     hpcd->ISOINIncompleteCallback = pCallback;
 792:Drivers/STM32L4xx_HAL_Driver/Src/stm32l4xx_hal_pcd.c ****   }
 793:Drivers/STM32L4xx_HAL_Driver/Src/stm32l4xx_hal_pcd.c ****   else
 794:Drivers/STM32L4xx_HAL_Driver/Src/stm32l4xx_hal_pcd.c ****   {
 795:Drivers/STM32L4xx_HAL_Driver/Src/stm32l4xx_hal_pcd.c ****     /* Update the error code */
 796:Drivers/STM32L4xx_HAL_Driver/Src/stm32l4xx_hal_pcd.c ****     hpcd->ErrorCode |= HAL_PCD_ERROR_INVALID_CALLBACK;
 797:Drivers/STM32L4xx_HAL_Driver/Src/stm32l4xx_hal_pcd.c **** 
 798:Drivers/STM32L4xx_HAL_Driver/Src/stm32l4xx_hal_pcd.c ****     /* Return error status */
 799:Drivers/STM32L4xx_HAL_Driver/Src/stm32l4xx_hal_pcd.c ****     status =  HAL_ERROR;
 800:Drivers/STM32L4xx_HAL_Driver/Src/stm32l4xx_hal_pcd.c ****   }
 801:Drivers/STM32L4xx_HAL_Driver/Src/stm32l4xx_hal_pcd.c **** 
 802:Drivers/STM32L4xx_HAL_Driver/Src/stm32l4xx_hal_pcd.c ****   /* Release Lock */
 803:Drivers/STM32L4xx_HAL_Driver/Src/stm32l4xx_hal_pcd.c ****   __HAL_UNLOCK(hpcd);
 804:Drivers/STM32L4xx_HAL_Driver/Src/stm32l4xx_hal_pcd.c **** 
 805:Drivers/STM32L4xx_HAL_Driver/Src/stm32l4xx_hal_pcd.c ****   return status;
 806:Drivers/STM32L4xx_HAL_Driver/Src/stm32l4xx_hal_pcd.c **** }
 807:Drivers/STM32L4xx_HAL_Driver/Src/stm32l4xx_hal_pcd.c **** 
 808:Drivers/STM32L4xx_HAL_Driver/Src/stm32l4xx_hal_pcd.c **** /**
 809:Drivers/STM32L4xx_HAL_Driver/Src/stm32l4xx_hal_pcd.c ****   * @brief  Unregister the USB PCD Iso IN incomplete Callback
 810:Drivers/STM32L4xx_HAL_Driver/Src/stm32l4xx_hal_pcd.c ****   *         USB PCD Iso IN incomplete Callback is redirected
 811:Drivers/STM32L4xx_HAL_Driver/Src/stm32l4xx_hal_pcd.c ****   *         to the weak HAL_PCD_ISOINIncompleteCallback() predefined callback
 812:Drivers/STM32L4xx_HAL_Driver/Src/stm32l4xx_hal_pcd.c ****   * @param  hpcd PCD handle
 813:Drivers/STM32L4xx_HAL_Driver/Src/stm32l4xx_hal_pcd.c ****   * @retval HAL status
 814:Drivers/STM32L4xx_HAL_Driver/Src/stm32l4xx_hal_pcd.c ****   */
 815:Drivers/STM32L4xx_HAL_Driver/Src/stm32l4xx_hal_pcd.c **** HAL_StatusTypeDef HAL_PCD_UnRegisterIsoInIncpltCallback(PCD_HandleTypeDef *hpcd)
 816:Drivers/STM32L4xx_HAL_Driver/Src/stm32l4xx_hal_pcd.c **** {
 817:Drivers/STM32L4xx_HAL_Driver/Src/stm32l4xx_hal_pcd.c ****   HAL_StatusTypeDef status = HAL_OK;
 818:Drivers/STM32L4xx_HAL_Driver/Src/stm32l4xx_hal_pcd.c **** 
 819:Drivers/STM32L4xx_HAL_Driver/Src/stm32l4xx_hal_pcd.c ****   /* Process locked */
 820:Drivers/STM32L4xx_HAL_Driver/Src/stm32l4xx_hal_pcd.c ****   __HAL_LOCK(hpcd);
 821:Drivers/STM32L4xx_HAL_Driver/Src/stm32l4xx_hal_pcd.c **** 
 822:Drivers/STM32L4xx_HAL_Driver/Src/stm32l4xx_hal_pcd.c ****   if (hpcd->State == HAL_PCD_STATE_READY)
 823:Drivers/STM32L4xx_HAL_Driver/Src/stm32l4xx_hal_pcd.c ****   {
 824:Drivers/STM32L4xx_HAL_Driver/Src/stm32l4xx_hal_pcd.c ****     hpcd->ISOINIncompleteCallback = HAL_PCD_ISOINIncompleteCallback; /* Legacy weak ISOINIncomplete
 825:Drivers/STM32L4xx_HAL_Driver/Src/stm32l4xx_hal_pcd.c ****   }
 826:Drivers/STM32L4xx_HAL_Driver/Src/stm32l4xx_hal_pcd.c ****   else
 827:Drivers/STM32L4xx_HAL_Driver/Src/stm32l4xx_hal_pcd.c ****   {
 828:Drivers/STM32L4xx_HAL_Driver/Src/stm32l4xx_hal_pcd.c ****     /* Update the error code */
 829:Drivers/STM32L4xx_HAL_Driver/Src/stm32l4xx_hal_pcd.c ****     hpcd->ErrorCode |= HAL_PCD_ERROR_INVALID_CALLBACK;
 830:Drivers/STM32L4xx_HAL_Driver/Src/stm32l4xx_hal_pcd.c **** 
 831:Drivers/STM32L4xx_HAL_Driver/Src/stm32l4xx_hal_pcd.c ****     /* Return error status */
 832:Drivers/STM32L4xx_HAL_Driver/Src/stm32l4xx_hal_pcd.c ****     status =  HAL_ERROR;
 833:Drivers/STM32L4xx_HAL_Driver/Src/stm32l4xx_hal_pcd.c ****   }
 834:Drivers/STM32L4xx_HAL_Driver/Src/stm32l4xx_hal_pcd.c **** 
 835:Drivers/STM32L4xx_HAL_Driver/Src/stm32l4xx_hal_pcd.c ****   /* Release Lock */
 836:Drivers/STM32L4xx_HAL_Driver/Src/stm32l4xx_hal_pcd.c ****   __HAL_UNLOCK(hpcd);
 837:Drivers/STM32L4xx_HAL_Driver/Src/stm32l4xx_hal_pcd.c **** 
 838:Drivers/STM32L4xx_HAL_Driver/Src/stm32l4xx_hal_pcd.c ****   return status;
 839:Drivers/STM32L4xx_HAL_Driver/Src/stm32l4xx_hal_pcd.c **** }
 840:Drivers/STM32L4xx_HAL_Driver/Src/stm32l4xx_hal_pcd.c **** 
 841:Drivers/STM32L4xx_HAL_Driver/Src/stm32l4xx_hal_pcd.c **** /**
 842:Drivers/STM32L4xx_HAL_Driver/Src/stm32l4xx_hal_pcd.c ****   * @brief  Register USB PCD BCD Callback
 843:Drivers/STM32L4xx_HAL_Driver/Src/stm32l4xx_hal_pcd.c ****   *         To be used instead of the weak HAL_PCDEx_BCD_Callback() predefined callback
 844:Drivers/STM32L4xx_HAL_Driver/Src/stm32l4xx_hal_pcd.c ****   * @param  hpcd PCD handle
ARM GAS  /tmp/ccFcOOzb.s 			page 25


 845:Drivers/STM32L4xx_HAL_Driver/Src/stm32l4xx_hal_pcd.c ****   * @param  pCallback pointer to the USB PCD BCD Callback function
 846:Drivers/STM32L4xx_HAL_Driver/Src/stm32l4xx_hal_pcd.c ****   * @retval HAL status
 847:Drivers/STM32L4xx_HAL_Driver/Src/stm32l4xx_hal_pcd.c ****   */
 848:Drivers/STM32L4xx_HAL_Driver/Src/stm32l4xx_hal_pcd.c **** HAL_StatusTypeDef HAL_PCD_RegisterBcdCallback(PCD_HandleTypeDef *hpcd, pPCD_BcdCallbackTypeDef pCal
 849:Drivers/STM32L4xx_HAL_Driver/Src/stm32l4xx_hal_pcd.c **** {
 850:Drivers/STM32L4xx_HAL_Driver/Src/stm32l4xx_hal_pcd.c ****   HAL_StatusTypeDef status = HAL_OK;
 851:Drivers/STM32L4xx_HAL_Driver/Src/stm32l4xx_hal_pcd.c **** 
 852:Drivers/STM32L4xx_HAL_Driver/Src/stm32l4xx_hal_pcd.c ****   if (pCallback == NULL)
 853:Drivers/STM32L4xx_HAL_Driver/Src/stm32l4xx_hal_pcd.c ****   {
 854:Drivers/STM32L4xx_HAL_Driver/Src/stm32l4xx_hal_pcd.c ****     /* Update the error code */
 855:Drivers/STM32L4xx_HAL_Driver/Src/stm32l4xx_hal_pcd.c ****     hpcd->ErrorCode |= HAL_PCD_ERROR_INVALID_CALLBACK;
 856:Drivers/STM32L4xx_HAL_Driver/Src/stm32l4xx_hal_pcd.c **** 
 857:Drivers/STM32L4xx_HAL_Driver/Src/stm32l4xx_hal_pcd.c ****     return HAL_ERROR;
 858:Drivers/STM32L4xx_HAL_Driver/Src/stm32l4xx_hal_pcd.c ****   }
 859:Drivers/STM32L4xx_HAL_Driver/Src/stm32l4xx_hal_pcd.c **** 
 860:Drivers/STM32L4xx_HAL_Driver/Src/stm32l4xx_hal_pcd.c ****   /* Process locked */
 861:Drivers/STM32L4xx_HAL_Driver/Src/stm32l4xx_hal_pcd.c ****   __HAL_LOCK(hpcd);
 862:Drivers/STM32L4xx_HAL_Driver/Src/stm32l4xx_hal_pcd.c **** 
 863:Drivers/STM32L4xx_HAL_Driver/Src/stm32l4xx_hal_pcd.c ****   if (hpcd->State == HAL_PCD_STATE_READY)
 864:Drivers/STM32L4xx_HAL_Driver/Src/stm32l4xx_hal_pcd.c ****   {
 865:Drivers/STM32L4xx_HAL_Driver/Src/stm32l4xx_hal_pcd.c ****     hpcd->BCDCallback = pCallback;
 866:Drivers/STM32L4xx_HAL_Driver/Src/stm32l4xx_hal_pcd.c ****   }
 867:Drivers/STM32L4xx_HAL_Driver/Src/stm32l4xx_hal_pcd.c ****   else
 868:Drivers/STM32L4xx_HAL_Driver/Src/stm32l4xx_hal_pcd.c ****   {
 869:Drivers/STM32L4xx_HAL_Driver/Src/stm32l4xx_hal_pcd.c ****     /* Update the error code */
 870:Drivers/STM32L4xx_HAL_Driver/Src/stm32l4xx_hal_pcd.c ****     hpcd->ErrorCode |= HAL_PCD_ERROR_INVALID_CALLBACK;
 871:Drivers/STM32L4xx_HAL_Driver/Src/stm32l4xx_hal_pcd.c **** 
 872:Drivers/STM32L4xx_HAL_Driver/Src/stm32l4xx_hal_pcd.c ****     /* Return error status */
 873:Drivers/STM32L4xx_HAL_Driver/Src/stm32l4xx_hal_pcd.c ****     status =  HAL_ERROR;
 874:Drivers/STM32L4xx_HAL_Driver/Src/stm32l4xx_hal_pcd.c ****   }
 875:Drivers/STM32L4xx_HAL_Driver/Src/stm32l4xx_hal_pcd.c **** 
 876:Drivers/STM32L4xx_HAL_Driver/Src/stm32l4xx_hal_pcd.c ****   /* Release Lock */
 877:Drivers/STM32L4xx_HAL_Driver/Src/stm32l4xx_hal_pcd.c ****   __HAL_UNLOCK(hpcd);
 878:Drivers/STM32L4xx_HAL_Driver/Src/stm32l4xx_hal_pcd.c **** 
 879:Drivers/STM32L4xx_HAL_Driver/Src/stm32l4xx_hal_pcd.c ****   return status;
 880:Drivers/STM32L4xx_HAL_Driver/Src/stm32l4xx_hal_pcd.c **** }
 881:Drivers/STM32L4xx_HAL_Driver/Src/stm32l4xx_hal_pcd.c **** 
 882:Drivers/STM32L4xx_HAL_Driver/Src/stm32l4xx_hal_pcd.c **** /**
 883:Drivers/STM32L4xx_HAL_Driver/Src/stm32l4xx_hal_pcd.c ****   * @brief  Unregister the USB PCD BCD Callback
 884:Drivers/STM32L4xx_HAL_Driver/Src/stm32l4xx_hal_pcd.c ****   *         USB BCD Callback is redirected to the weak HAL_PCDEx_BCD_Callback() predefined callback
 885:Drivers/STM32L4xx_HAL_Driver/Src/stm32l4xx_hal_pcd.c ****   * @param  hpcd PCD handle
 886:Drivers/STM32L4xx_HAL_Driver/Src/stm32l4xx_hal_pcd.c ****   * @retval HAL status
 887:Drivers/STM32L4xx_HAL_Driver/Src/stm32l4xx_hal_pcd.c ****   */
 888:Drivers/STM32L4xx_HAL_Driver/Src/stm32l4xx_hal_pcd.c **** HAL_StatusTypeDef HAL_PCD_UnRegisterBcdCallback(PCD_HandleTypeDef *hpcd)
 889:Drivers/STM32L4xx_HAL_Driver/Src/stm32l4xx_hal_pcd.c **** {
 890:Drivers/STM32L4xx_HAL_Driver/Src/stm32l4xx_hal_pcd.c ****   HAL_StatusTypeDef status = HAL_OK;
 891:Drivers/STM32L4xx_HAL_Driver/Src/stm32l4xx_hal_pcd.c **** 
 892:Drivers/STM32L4xx_HAL_Driver/Src/stm32l4xx_hal_pcd.c ****   /* Process locked */
 893:Drivers/STM32L4xx_HAL_Driver/Src/stm32l4xx_hal_pcd.c ****   __HAL_LOCK(hpcd);
 894:Drivers/STM32L4xx_HAL_Driver/Src/stm32l4xx_hal_pcd.c **** 
 895:Drivers/STM32L4xx_HAL_Driver/Src/stm32l4xx_hal_pcd.c ****   if (hpcd->State == HAL_PCD_STATE_READY)
 896:Drivers/STM32L4xx_HAL_Driver/Src/stm32l4xx_hal_pcd.c ****   {
 897:Drivers/STM32L4xx_HAL_Driver/Src/stm32l4xx_hal_pcd.c ****     hpcd->BCDCallback = HAL_PCDEx_BCD_Callback; /* Legacy weak HAL_PCDEx_BCD_Callback  */
 898:Drivers/STM32L4xx_HAL_Driver/Src/stm32l4xx_hal_pcd.c ****   }
 899:Drivers/STM32L4xx_HAL_Driver/Src/stm32l4xx_hal_pcd.c ****   else
 900:Drivers/STM32L4xx_HAL_Driver/Src/stm32l4xx_hal_pcd.c ****   {
 901:Drivers/STM32L4xx_HAL_Driver/Src/stm32l4xx_hal_pcd.c ****     /* Update the error code */
ARM GAS  /tmp/ccFcOOzb.s 			page 26


 902:Drivers/STM32L4xx_HAL_Driver/Src/stm32l4xx_hal_pcd.c ****     hpcd->ErrorCode |= HAL_PCD_ERROR_INVALID_CALLBACK;
 903:Drivers/STM32L4xx_HAL_Driver/Src/stm32l4xx_hal_pcd.c **** 
 904:Drivers/STM32L4xx_HAL_Driver/Src/stm32l4xx_hal_pcd.c ****     /* Return error status */
 905:Drivers/STM32L4xx_HAL_Driver/Src/stm32l4xx_hal_pcd.c ****     status =  HAL_ERROR;
 906:Drivers/STM32L4xx_HAL_Driver/Src/stm32l4xx_hal_pcd.c ****   }
 907:Drivers/STM32L4xx_HAL_Driver/Src/stm32l4xx_hal_pcd.c **** 
 908:Drivers/STM32L4xx_HAL_Driver/Src/stm32l4xx_hal_pcd.c ****   /* Release Lock */
 909:Drivers/STM32L4xx_HAL_Driver/Src/stm32l4xx_hal_pcd.c ****   __HAL_UNLOCK(hpcd);
 910:Drivers/STM32L4xx_HAL_Driver/Src/stm32l4xx_hal_pcd.c **** 
 911:Drivers/STM32L4xx_HAL_Driver/Src/stm32l4xx_hal_pcd.c ****   return status;
 912:Drivers/STM32L4xx_HAL_Driver/Src/stm32l4xx_hal_pcd.c **** }
 913:Drivers/STM32L4xx_HAL_Driver/Src/stm32l4xx_hal_pcd.c **** 
 914:Drivers/STM32L4xx_HAL_Driver/Src/stm32l4xx_hal_pcd.c **** /**
 915:Drivers/STM32L4xx_HAL_Driver/Src/stm32l4xx_hal_pcd.c ****   * @brief  Register USB PCD LPM Callback
 916:Drivers/STM32L4xx_HAL_Driver/Src/stm32l4xx_hal_pcd.c ****   *         To be used instead of the weak HAL_PCDEx_LPM_Callback() predefined callback
 917:Drivers/STM32L4xx_HAL_Driver/Src/stm32l4xx_hal_pcd.c ****   * @param  hpcd PCD handle
 918:Drivers/STM32L4xx_HAL_Driver/Src/stm32l4xx_hal_pcd.c ****   * @param  pCallback pointer to the USB PCD LPM Callback function
 919:Drivers/STM32L4xx_HAL_Driver/Src/stm32l4xx_hal_pcd.c ****   * @retval HAL status
 920:Drivers/STM32L4xx_HAL_Driver/Src/stm32l4xx_hal_pcd.c ****   */
 921:Drivers/STM32L4xx_HAL_Driver/Src/stm32l4xx_hal_pcd.c **** HAL_StatusTypeDef HAL_PCD_RegisterLpmCallback(PCD_HandleTypeDef *hpcd, pPCD_LpmCallbackTypeDef pCal
 922:Drivers/STM32L4xx_HAL_Driver/Src/stm32l4xx_hal_pcd.c **** {
 923:Drivers/STM32L4xx_HAL_Driver/Src/stm32l4xx_hal_pcd.c ****   HAL_StatusTypeDef status = HAL_OK;
 924:Drivers/STM32L4xx_HAL_Driver/Src/stm32l4xx_hal_pcd.c **** 
 925:Drivers/STM32L4xx_HAL_Driver/Src/stm32l4xx_hal_pcd.c ****   if (pCallback == NULL)
 926:Drivers/STM32L4xx_HAL_Driver/Src/stm32l4xx_hal_pcd.c ****   {
 927:Drivers/STM32L4xx_HAL_Driver/Src/stm32l4xx_hal_pcd.c ****     /* Update the error code */
 928:Drivers/STM32L4xx_HAL_Driver/Src/stm32l4xx_hal_pcd.c ****     hpcd->ErrorCode |= HAL_PCD_ERROR_INVALID_CALLBACK;
 929:Drivers/STM32L4xx_HAL_Driver/Src/stm32l4xx_hal_pcd.c **** 
 930:Drivers/STM32L4xx_HAL_Driver/Src/stm32l4xx_hal_pcd.c ****     return HAL_ERROR;
 931:Drivers/STM32L4xx_HAL_Driver/Src/stm32l4xx_hal_pcd.c ****   }
 932:Drivers/STM32L4xx_HAL_Driver/Src/stm32l4xx_hal_pcd.c **** 
 933:Drivers/STM32L4xx_HAL_Driver/Src/stm32l4xx_hal_pcd.c ****   /* Process locked */
 934:Drivers/STM32L4xx_HAL_Driver/Src/stm32l4xx_hal_pcd.c ****   __HAL_LOCK(hpcd);
 935:Drivers/STM32L4xx_HAL_Driver/Src/stm32l4xx_hal_pcd.c **** 
 936:Drivers/STM32L4xx_HAL_Driver/Src/stm32l4xx_hal_pcd.c ****   if (hpcd->State == HAL_PCD_STATE_READY)
 937:Drivers/STM32L4xx_HAL_Driver/Src/stm32l4xx_hal_pcd.c ****   {
 938:Drivers/STM32L4xx_HAL_Driver/Src/stm32l4xx_hal_pcd.c ****     hpcd->LPMCallback = pCallback;
 939:Drivers/STM32L4xx_HAL_Driver/Src/stm32l4xx_hal_pcd.c ****   }
 940:Drivers/STM32L4xx_HAL_Driver/Src/stm32l4xx_hal_pcd.c ****   else
 941:Drivers/STM32L4xx_HAL_Driver/Src/stm32l4xx_hal_pcd.c ****   {
 942:Drivers/STM32L4xx_HAL_Driver/Src/stm32l4xx_hal_pcd.c ****     /* Update the error code */
 943:Drivers/STM32L4xx_HAL_Driver/Src/stm32l4xx_hal_pcd.c ****     hpcd->ErrorCode |= HAL_PCD_ERROR_INVALID_CALLBACK;
 944:Drivers/STM32L4xx_HAL_Driver/Src/stm32l4xx_hal_pcd.c **** 
 945:Drivers/STM32L4xx_HAL_Driver/Src/stm32l4xx_hal_pcd.c ****     /* Return error status */
 946:Drivers/STM32L4xx_HAL_Driver/Src/stm32l4xx_hal_pcd.c ****     status =  HAL_ERROR;
 947:Drivers/STM32L4xx_HAL_Driver/Src/stm32l4xx_hal_pcd.c ****   }
 948:Drivers/STM32L4xx_HAL_Driver/Src/stm32l4xx_hal_pcd.c **** 
 949:Drivers/STM32L4xx_HAL_Driver/Src/stm32l4xx_hal_pcd.c ****   /* Release Lock */
 950:Drivers/STM32L4xx_HAL_Driver/Src/stm32l4xx_hal_pcd.c ****   __HAL_UNLOCK(hpcd);
 951:Drivers/STM32L4xx_HAL_Driver/Src/stm32l4xx_hal_pcd.c **** 
 952:Drivers/STM32L4xx_HAL_Driver/Src/stm32l4xx_hal_pcd.c ****   return status;
 953:Drivers/STM32L4xx_HAL_Driver/Src/stm32l4xx_hal_pcd.c **** }
 954:Drivers/STM32L4xx_HAL_Driver/Src/stm32l4xx_hal_pcd.c **** 
 955:Drivers/STM32L4xx_HAL_Driver/Src/stm32l4xx_hal_pcd.c **** /**
 956:Drivers/STM32L4xx_HAL_Driver/Src/stm32l4xx_hal_pcd.c ****   * @brief  Unregister the USB PCD LPM Callback
 957:Drivers/STM32L4xx_HAL_Driver/Src/stm32l4xx_hal_pcd.c ****   *         USB LPM Callback is redirected to the weak HAL_PCDEx_LPM_Callback() predefined callback
 958:Drivers/STM32L4xx_HAL_Driver/Src/stm32l4xx_hal_pcd.c ****   * @param  hpcd PCD handle
ARM GAS  /tmp/ccFcOOzb.s 			page 27


 959:Drivers/STM32L4xx_HAL_Driver/Src/stm32l4xx_hal_pcd.c ****   * @retval HAL status
 960:Drivers/STM32L4xx_HAL_Driver/Src/stm32l4xx_hal_pcd.c ****   */
 961:Drivers/STM32L4xx_HAL_Driver/Src/stm32l4xx_hal_pcd.c **** HAL_StatusTypeDef HAL_PCD_UnRegisterLpmCallback(PCD_HandleTypeDef *hpcd)
 962:Drivers/STM32L4xx_HAL_Driver/Src/stm32l4xx_hal_pcd.c **** {
 963:Drivers/STM32L4xx_HAL_Driver/Src/stm32l4xx_hal_pcd.c ****   HAL_StatusTypeDef status = HAL_OK;
 964:Drivers/STM32L4xx_HAL_Driver/Src/stm32l4xx_hal_pcd.c **** 
 965:Drivers/STM32L4xx_HAL_Driver/Src/stm32l4xx_hal_pcd.c ****   /* Process locked */
 966:Drivers/STM32L4xx_HAL_Driver/Src/stm32l4xx_hal_pcd.c ****   __HAL_LOCK(hpcd);
 967:Drivers/STM32L4xx_HAL_Driver/Src/stm32l4xx_hal_pcd.c **** 
 968:Drivers/STM32L4xx_HAL_Driver/Src/stm32l4xx_hal_pcd.c ****   if (hpcd->State == HAL_PCD_STATE_READY)
 969:Drivers/STM32L4xx_HAL_Driver/Src/stm32l4xx_hal_pcd.c ****   {
 970:Drivers/STM32L4xx_HAL_Driver/Src/stm32l4xx_hal_pcd.c ****     hpcd->LPMCallback = HAL_PCDEx_LPM_Callback; /* Legacy weak HAL_PCDEx_LPM_Callback  */
 971:Drivers/STM32L4xx_HAL_Driver/Src/stm32l4xx_hal_pcd.c ****   }
 972:Drivers/STM32L4xx_HAL_Driver/Src/stm32l4xx_hal_pcd.c ****   else
 973:Drivers/STM32L4xx_HAL_Driver/Src/stm32l4xx_hal_pcd.c ****   {
 974:Drivers/STM32L4xx_HAL_Driver/Src/stm32l4xx_hal_pcd.c ****     /* Update the error code */
 975:Drivers/STM32L4xx_HAL_Driver/Src/stm32l4xx_hal_pcd.c ****     hpcd->ErrorCode |= HAL_PCD_ERROR_INVALID_CALLBACK;
 976:Drivers/STM32L4xx_HAL_Driver/Src/stm32l4xx_hal_pcd.c **** 
 977:Drivers/STM32L4xx_HAL_Driver/Src/stm32l4xx_hal_pcd.c ****     /* Return error status */
 978:Drivers/STM32L4xx_HAL_Driver/Src/stm32l4xx_hal_pcd.c ****     status =  HAL_ERROR;
 979:Drivers/STM32L4xx_HAL_Driver/Src/stm32l4xx_hal_pcd.c ****   }
 980:Drivers/STM32L4xx_HAL_Driver/Src/stm32l4xx_hal_pcd.c **** 
 981:Drivers/STM32L4xx_HAL_Driver/Src/stm32l4xx_hal_pcd.c ****   /* Release Lock */
 982:Drivers/STM32L4xx_HAL_Driver/Src/stm32l4xx_hal_pcd.c ****   __HAL_UNLOCK(hpcd);
 983:Drivers/STM32L4xx_HAL_Driver/Src/stm32l4xx_hal_pcd.c **** 
 984:Drivers/STM32L4xx_HAL_Driver/Src/stm32l4xx_hal_pcd.c ****   return status;
 985:Drivers/STM32L4xx_HAL_Driver/Src/stm32l4xx_hal_pcd.c **** }
 986:Drivers/STM32L4xx_HAL_Driver/Src/stm32l4xx_hal_pcd.c **** #endif /* USE_HAL_PCD_REGISTER_CALLBACKS */
 987:Drivers/STM32L4xx_HAL_Driver/Src/stm32l4xx_hal_pcd.c **** 
 988:Drivers/STM32L4xx_HAL_Driver/Src/stm32l4xx_hal_pcd.c **** /**
 989:Drivers/STM32L4xx_HAL_Driver/Src/stm32l4xx_hal_pcd.c ****   * @}
 990:Drivers/STM32L4xx_HAL_Driver/Src/stm32l4xx_hal_pcd.c ****   */
 991:Drivers/STM32L4xx_HAL_Driver/Src/stm32l4xx_hal_pcd.c **** 
 992:Drivers/STM32L4xx_HAL_Driver/Src/stm32l4xx_hal_pcd.c **** /** @defgroup PCD_Exported_Functions_Group2 Input and Output operation functions
 993:Drivers/STM32L4xx_HAL_Driver/Src/stm32l4xx_hal_pcd.c ****   *  @brief   Data transfers functions
 994:Drivers/STM32L4xx_HAL_Driver/Src/stm32l4xx_hal_pcd.c ****   *
 995:Drivers/STM32L4xx_HAL_Driver/Src/stm32l4xx_hal_pcd.c **** @verbatim
 996:Drivers/STM32L4xx_HAL_Driver/Src/stm32l4xx_hal_pcd.c ****  ===============================================================================
 997:Drivers/STM32L4xx_HAL_Driver/Src/stm32l4xx_hal_pcd.c ****                       ##### IO operation functions #####
 998:Drivers/STM32L4xx_HAL_Driver/Src/stm32l4xx_hal_pcd.c ****  ===============================================================================
 999:Drivers/STM32L4xx_HAL_Driver/Src/stm32l4xx_hal_pcd.c ****     [..]
1000:Drivers/STM32L4xx_HAL_Driver/Src/stm32l4xx_hal_pcd.c ****     This subsection provides a set of functions allowing to manage the PCD data
1001:Drivers/STM32L4xx_HAL_Driver/Src/stm32l4xx_hal_pcd.c ****     transfers.
1002:Drivers/STM32L4xx_HAL_Driver/Src/stm32l4xx_hal_pcd.c **** 
1003:Drivers/STM32L4xx_HAL_Driver/Src/stm32l4xx_hal_pcd.c **** @endverbatim
1004:Drivers/STM32L4xx_HAL_Driver/Src/stm32l4xx_hal_pcd.c ****   * @{
1005:Drivers/STM32L4xx_HAL_Driver/Src/stm32l4xx_hal_pcd.c ****   */
1006:Drivers/STM32L4xx_HAL_Driver/Src/stm32l4xx_hal_pcd.c **** 
1007:Drivers/STM32L4xx_HAL_Driver/Src/stm32l4xx_hal_pcd.c **** /**
1008:Drivers/STM32L4xx_HAL_Driver/Src/stm32l4xx_hal_pcd.c ****   * @brief  Start the USB device
1009:Drivers/STM32L4xx_HAL_Driver/Src/stm32l4xx_hal_pcd.c ****   * @param  hpcd PCD handle
1010:Drivers/STM32L4xx_HAL_Driver/Src/stm32l4xx_hal_pcd.c ****   * @retval HAL status
1011:Drivers/STM32L4xx_HAL_Driver/Src/stm32l4xx_hal_pcd.c ****   */
1012:Drivers/STM32L4xx_HAL_Driver/Src/stm32l4xx_hal_pcd.c **** HAL_StatusTypeDef HAL_PCD_Start(PCD_HandleTypeDef *hpcd)
1013:Drivers/STM32L4xx_HAL_Driver/Src/stm32l4xx_hal_pcd.c **** {
 529              		.loc 1 1013 1
 530              		.cfi_startproc
ARM GAS  /tmp/ccFcOOzb.s 			page 28


 531              		@ args = 0, pretend = 0, frame = 16
 532              		@ frame_needed = 1, uses_anonymous_args = 0
 533 0000 80B5     		push	{r7, lr}
 534              		.cfi_def_cfa_offset 8
 535              		.cfi_offset 7, -8
 536              		.cfi_offset 14, -4
 537 0002 84B0     		sub	sp, sp, #16
 538              		.cfi_def_cfa_offset 24
 539 0004 00AF     		add	r7, sp, #0
 540              		.cfi_def_cfa_register 7
 541 0006 7860     		str	r0, [r7, #4]
1014:Drivers/STM32L4xx_HAL_Driver/Src/stm32l4xx_hal_pcd.c **** #if defined (USB_OTG_FS)
1015:Drivers/STM32L4xx_HAL_Driver/Src/stm32l4xx_hal_pcd.c ****   USB_OTG_GlobalTypeDef *USBx = hpcd->Instance;
 542              		.loc 1 1015 26
 543 0008 7B68     		ldr	r3, [r7, #4]
 544 000a 1B68     		ldr	r3, [r3]
 545 000c FB60     		str	r3, [r7, #12]
1016:Drivers/STM32L4xx_HAL_Driver/Src/stm32l4xx_hal_pcd.c **** #endif /* defined (USB_OTG_FS) */
1017:Drivers/STM32L4xx_HAL_Driver/Src/stm32l4xx_hal_pcd.c **** 
1018:Drivers/STM32L4xx_HAL_Driver/Src/stm32l4xx_hal_pcd.c ****   __HAL_LOCK(hpcd);
 546              		.loc 1 1018 3
 547 000e 7B68     		ldr	r3, [r7, #4]
 548 0010 93F89434 		ldrb	r3, [r3, #1172]	@ zero_extendqisi2
 549 0014 012B     		cmp	r3, #1
 550 0016 01D1     		bne	.L20
 551              		.loc 1 1018 3 is_stmt 0 discriminator 1
 552 0018 0223     		movs	r3, #2
 553              		.loc 1 1018 3
 554 001a 1CE0     		b	.L21
 555              	.L20:
 556              		.loc 1 1018 3 discriminator 2
 557 001c 7B68     		ldr	r3, [r7, #4]
 558 001e 0122     		movs	r2, #1
 559 0020 83F89424 		strb	r2, [r3, #1172]
1019:Drivers/STM32L4xx_HAL_Driver/Src/stm32l4xx_hal_pcd.c **** #if defined (USB_OTG_FS)
1020:Drivers/STM32L4xx_HAL_Driver/Src/stm32l4xx_hal_pcd.c ****   if (hpcd->Init.battery_charging_enable == 1U)
 560              		.loc 1 1020 17 is_stmt 1
 561 0024 7B68     		ldr	r3, [r7, #4]
 562 0026 5B7B     		ldrb	r3, [r3, #13]	@ zero_extendqisi2
 563              		.loc 1 1020 6
 564 0028 012B     		cmp	r3, #1
 565 002a 05D1     		bne	.L22
1021:Drivers/STM32L4xx_HAL_Driver/Src/stm32l4xx_hal_pcd.c ****   {
1022:Drivers/STM32L4xx_HAL_Driver/Src/stm32l4xx_hal_pcd.c ****     /* Enable USB Transceiver */
1023:Drivers/STM32L4xx_HAL_Driver/Src/stm32l4xx_hal_pcd.c ****     USBx->GCCFG |= USB_OTG_GCCFG_PWRDWN;
 566              		.loc 1 1023 9
 567 002c FB68     		ldr	r3, [r7, #12]
 568 002e 9B6B     		ldr	r3, [r3, #56]
 569              		.loc 1 1023 17
 570 0030 43F48032 		orr	r2, r3, #65536
 571 0034 FB68     		ldr	r3, [r7, #12]
 572 0036 9A63     		str	r2, [r3, #56]
 573              	.L22:
1024:Drivers/STM32L4xx_HAL_Driver/Src/stm32l4xx_hal_pcd.c ****   }
1025:Drivers/STM32L4xx_HAL_Driver/Src/stm32l4xx_hal_pcd.c **** #endif /* defined (USB_OTG_FS) */
1026:Drivers/STM32L4xx_HAL_Driver/Src/stm32l4xx_hal_pcd.c ****   __HAL_PCD_ENABLE(hpcd);
 574              		.loc 1 1026 3
ARM GAS  /tmp/ccFcOOzb.s 			page 29


 575 0038 7B68     		ldr	r3, [r7, #4]
 576 003a 1B68     		ldr	r3, [r3]
 577 003c 1846     		mov	r0, r3
 578 003e FFF7FEFF 		bl	USB_EnableGlobalInt
1027:Drivers/STM32L4xx_HAL_Driver/Src/stm32l4xx_hal_pcd.c ****   (void)USB_DevConnect(hpcd->Instance);
 579              		.loc 1 1027 28
 580 0042 7B68     		ldr	r3, [r7, #4]
 581 0044 1B68     		ldr	r3, [r3]
 582              		.loc 1 1027 9
 583 0046 1846     		mov	r0, r3
 584 0048 FFF7FEFF 		bl	USB_DevConnect
1028:Drivers/STM32L4xx_HAL_Driver/Src/stm32l4xx_hal_pcd.c ****   __HAL_UNLOCK(hpcd);
 585              		.loc 1 1028 3
 586 004c 7B68     		ldr	r3, [r7, #4]
 587 004e 0022     		movs	r2, #0
 588 0050 83F89424 		strb	r2, [r3, #1172]
1029:Drivers/STM32L4xx_HAL_Driver/Src/stm32l4xx_hal_pcd.c **** 
1030:Drivers/STM32L4xx_HAL_Driver/Src/stm32l4xx_hal_pcd.c ****   return HAL_OK;
 589              		.loc 1 1030 10
 590 0054 0023     		movs	r3, #0
 591              	.L21:
1031:Drivers/STM32L4xx_HAL_Driver/Src/stm32l4xx_hal_pcd.c **** }
 592              		.loc 1 1031 1
 593 0056 1846     		mov	r0, r3
 594 0058 1037     		adds	r7, r7, #16
 595              		.cfi_def_cfa_offset 8
 596 005a BD46     		mov	sp, r7
 597              		.cfi_def_cfa_register 13
 598              		@ sp needed
 599 005c 80BD     		pop	{r7, pc}
 600              		.cfi_endproc
 601              	.LFE449:
 603              		.section	.text.HAL_PCD_Stop,"ax",%progbits
 604              		.align	1
 605              		.global	HAL_PCD_Stop
 606              		.syntax unified
 607              		.thumb
 608              		.thumb_func
 610              	HAL_PCD_Stop:
 611              	.LFB450:
1032:Drivers/STM32L4xx_HAL_Driver/Src/stm32l4xx_hal_pcd.c **** 
1033:Drivers/STM32L4xx_HAL_Driver/Src/stm32l4xx_hal_pcd.c **** /**
1034:Drivers/STM32L4xx_HAL_Driver/Src/stm32l4xx_hal_pcd.c ****   * @brief  Stop the USB device.
1035:Drivers/STM32L4xx_HAL_Driver/Src/stm32l4xx_hal_pcd.c ****   * @param  hpcd PCD handle
1036:Drivers/STM32L4xx_HAL_Driver/Src/stm32l4xx_hal_pcd.c ****   * @retval HAL status
1037:Drivers/STM32L4xx_HAL_Driver/Src/stm32l4xx_hal_pcd.c ****   */
1038:Drivers/STM32L4xx_HAL_Driver/Src/stm32l4xx_hal_pcd.c **** HAL_StatusTypeDef HAL_PCD_Stop(PCD_HandleTypeDef *hpcd)
1039:Drivers/STM32L4xx_HAL_Driver/Src/stm32l4xx_hal_pcd.c **** {
 612              		.loc 1 1039 1
 613              		.cfi_startproc
 614              		@ args = 0, pretend = 0, frame = 16
 615              		@ frame_needed = 1, uses_anonymous_args = 0
 616 0000 80B5     		push	{r7, lr}
 617              		.cfi_def_cfa_offset 8
 618              		.cfi_offset 7, -8
 619              		.cfi_offset 14, -4
 620 0002 84B0     		sub	sp, sp, #16
ARM GAS  /tmp/ccFcOOzb.s 			page 30


 621              		.cfi_def_cfa_offset 24
 622 0004 00AF     		add	r7, sp, #0
 623              		.cfi_def_cfa_register 7
 624 0006 7860     		str	r0, [r7, #4]
1040:Drivers/STM32L4xx_HAL_Driver/Src/stm32l4xx_hal_pcd.c **** #if defined (USB_OTG_FS)
1041:Drivers/STM32L4xx_HAL_Driver/Src/stm32l4xx_hal_pcd.c ****   USB_OTG_GlobalTypeDef *USBx = hpcd->Instance;
 625              		.loc 1 1041 26
 626 0008 7B68     		ldr	r3, [r7, #4]
 627 000a 1B68     		ldr	r3, [r3]
 628 000c FB60     		str	r3, [r7, #12]
1042:Drivers/STM32L4xx_HAL_Driver/Src/stm32l4xx_hal_pcd.c **** #endif /* defined (USB_OTG_FS) */
1043:Drivers/STM32L4xx_HAL_Driver/Src/stm32l4xx_hal_pcd.c **** 
1044:Drivers/STM32L4xx_HAL_Driver/Src/stm32l4xx_hal_pcd.c ****   __HAL_LOCK(hpcd);
 629              		.loc 1 1044 3
 630 000e 7B68     		ldr	r3, [r7, #4]
 631 0010 93F89434 		ldrb	r3, [r3, #1172]	@ zero_extendqisi2
 632 0014 012B     		cmp	r3, #1
 633 0016 01D1     		bne	.L24
 634              		.loc 1 1044 3 is_stmt 0 discriminator 1
 635 0018 0223     		movs	r3, #2
 636              		.loc 1 1044 3
 637 001a 22E0     		b	.L25
 638              	.L24:
 639              		.loc 1 1044 3 discriminator 2
 640 001c 7B68     		ldr	r3, [r7, #4]
 641 001e 0122     		movs	r2, #1
 642 0020 83F89424 		strb	r2, [r3, #1172]
1045:Drivers/STM32L4xx_HAL_Driver/Src/stm32l4xx_hal_pcd.c ****   __HAL_PCD_DISABLE(hpcd);
 643              		.loc 1 1045 3 is_stmt 1
 644 0024 7B68     		ldr	r3, [r7, #4]
 645 0026 1B68     		ldr	r3, [r3]
 646 0028 1846     		mov	r0, r3
 647 002a FFF7FEFF 		bl	USB_DisableGlobalInt
1046:Drivers/STM32L4xx_HAL_Driver/Src/stm32l4xx_hal_pcd.c ****   (void)USB_DevDisconnect(hpcd->Instance);
 648              		.loc 1 1046 31
 649 002e 7B68     		ldr	r3, [r7, #4]
 650 0030 1B68     		ldr	r3, [r3]
 651              		.loc 1 1046 9
 652 0032 1846     		mov	r0, r3
 653 0034 FFF7FEFF 		bl	USB_DevDisconnect
1047:Drivers/STM32L4xx_HAL_Driver/Src/stm32l4xx_hal_pcd.c **** 
1048:Drivers/STM32L4xx_HAL_Driver/Src/stm32l4xx_hal_pcd.c **** #if defined (USB_OTG_FS)
1049:Drivers/STM32L4xx_HAL_Driver/Src/stm32l4xx_hal_pcd.c ****   (void)USB_FlushTxFifo(hpcd->Instance, 0x10U);
 654              		.loc 1 1049 29
 655 0038 7B68     		ldr	r3, [r7, #4]
 656 003a 1B68     		ldr	r3, [r3]
 657              		.loc 1 1049 9
 658 003c 1021     		movs	r1, #16
 659 003e 1846     		mov	r0, r3
 660 0040 FFF7FEFF 		bl	USB_FlushTxFifo
1050:Drivers/STM32L4xx_HAL_Driver/Src/stm32l4xx_hal_pcd.c **** 
1051:Drivers/STM32L4xx_HAL_Driver/Src/stm32l4xx_hal_pcd.c ****   if (hpcd->Init.battery_charging_enable == 1U)
 661              		.loc 1 1051 17
 662 0044 7B68     		ldr	r3, [r7, #4]
 663 0046 5B7B     		ldrb	r3, [r3, #13]	@ zero_extendqisi2
 664              		.loc 1 1051 6
 665 0048 012B     		cmp	r3, #1
ARM GAS  /tmp/ccFcOOzb.s 			page 31


 666 004a 05D1     		bne	.L26
1052:Drivers/STM32L4xx_HAL_Driver/Src/stm32l4xx_hal_pcd.c ****   {
1053:Drivers/STM32L4xx_HAL_Driver/Src/stm32l4xx_hal_pcd.c ****     /* Disable USB Transceiver */
1054:Drivers/STM32L4xx_HAL_Driver/Src/stm32l4xx_hal_pcd.c ****     USBx->GCCFG &= ~(USB_OTG_GCCFG_PWRDWN);
 667              		.loc 1 1054 9
 668 004c FB68     		ldr	r3, [r7, #12]
 669 004e 9B6B     		ldr	r3, [r3, #56]
 670              		.loc 1 1054 17
 671 0050 23F48032 		bic	r2, r3, #65536
 672 0054 FB68     		ldr	r3, [r7, #12]
 673 0056 9A63     		str	r2, [r3, #56]
 674              	.L26:
1055:Drivers/STM32L4xx_HAL_Driver/Src/stm32l4xx_hal_pcd.c ****   }
1056:Drivers/STM32L4xx_HAL_Driver/Src/stm32l4xx_hal_pcd.c **** #endif /* defined (USB_OTG_FS) */
1057:Drivers/STM32L4xx_HAL_Driver/Src/stm32l4xx_hal_pcd.c **** 
1058:Drivers/STM32L4xx_HAL_Driver/Src/stm32l4xx_hal_pcd.c ****   __HAL_UNLOCK(hpcd);
 675              		.loc 1 1058 3
 676 0058 7B68     		ldr	r3, [r7, #4]
 677 005a 0022     		movs	r2, #0
 678 005c 83F89424 		strb	r2, [r3, #1172]
1059:Drivers/STM32L4xx_HAL_Driver/Src/stm32l4xx_hal_pcd.c **** 
1060:Drivers/STM32L4xx_HAL_Driver/Src/stm32l4xx_hal_pcd.c ****   return HAL_OK;
 679              		.loc 1 1060 10
 680 0060 0023     		movs	r3, #0
 681              	.L25:
1061:Drivers/STM32L4xx_HAL_Driver/Src/stm32l4xx_hal_pcd.c **** }
 682              		.loc 1 1061 1
 683 0062 1846     		mov	r0, r3
 684 0064 1037     		adds	r7, r7, #16
 685              		.cfi_def_cfa_offset 8
 686 0066 BD46     		mov	sp, r7
 687              		.cfi_def_cfa_register 13
 688              		@ sp needed
 689 0068 80BD     		pop	{r7, pc}
 690              		.cfi_endproc
 691              	.LFE450:
 693              		.section	.text.HAL_PCD_IRQHandler,"ax",%progbits
 694              		.align	1
 695              		.global	HAL_PCD_IRQHandler
 696              		.syntax unified
 697              		.thumb
 698              		.thumb_func
 700              	HAL_PCD_IRQHandler:
 701              	.LFB451:
1062:Drivers/STM32L4xx_HAL_Driver/Src/stm32l4xx_hal_pcd.c **** 
1063:Drivers/STM32L4xx_HAL_Driver/Src/stm32l4xx_hal_pcd.c **** #if defined (USB_OTG_FS)
1064:Drivers/STM32L4xx_HAL_Driver/Src/stm32l4xx_hal_pcd.c **** /**
1065:Drivers/STM32L4xx_HAL_Driver/Src/stm32l4xx_hal_pcd.c ****   * @brief  Handles PCD interrupt request.
1066:Drivers/STM32L4xx_HAL_Driver/Src/stm32l4xx_hal_pcd.c ****   * @param  hpcd PCD handle
1067:Drivers/STM32L4xx_HAL_Driver/Src/stm32l4xx_hal_pcd.c ****   * @retval HAL status
1068:Drivers/STM32L4xx_HAL_Driver/Src/stm32l4xx_hal_pcd.c ****   */
1069:Drivers/STM32L4xx_HAL_Driver/Src/stm32l4xx_hal_pcd.c **** void HAL_PCD_IRQHandler(PCD_HandleTypeDef *hpcd)
1070:Drivers/STM32L4xx_HAL_Driver/Src/stm32l4xx_hal_pcd.c **** {
 702              		.loc 1 1070 1
 703              		.cfi_startproc
 704              		@ args = 0, pretend = 0, frame = 48
 705              		@ frame_needed = 1, uses_anonymous_args = 0
ARM GAS  /tmp/ccFcOOzb.s 			page 32


 706 0000 90B5     		push	{r4, r7, lr}
 707              		.cfi_def_cfa_offset 12
 708              		.cfi_offset 4, -12
 709              		.cfi_offset 7, -8
 710              		.cfi_offset 14, -4
 711 0002 8DB0     		sub	sp, sp, #52
 712              		.cfi_def_cfa_offset 64
 713 0004 00AF     		add	r7, sp, #0
 714              		.cfi_def_cfa_register 7
 715 0006 7860     		str	r0, [r7, #4]
1071:Drivers/STM32L4xx_HAL_Driver/Src/stm32l4xx_hal_pcd.c ****   USB_OTG_GlobalTypeDef *USBx = hpcd->Instance;
 716              		.loc 1 1071 26
 717 0008 7B68     		ldr	r3, [r7, #4]
 718 000a 1B68     		ldr	r3, [r3]
 719 000c 3B62     		str	r3, [r7, #32]
1072:Drivers/STM32L4xx_HAL_Driver/Src/stm32l4xx_hal_pcd.c ****   uint32_t USBx_BASE = (uint32_t)USBx;
 720              		.loc 1 1072 12
 721 000e 3B6A     		ldr	r3, [r7, #32]
 722 0010 FB61     		str	r3, [r7, #28]
1073:Drivers/STM32L4xx_HAL_Driver/Src/stm32l4xx_hal_pcd.c ****   USB_OTG_EPTypeDef *ep;
1074:Drivers/STM32L4xx_HAL_Driver/Src/stm32l4xx_hal_pcd.c ****   uint32_t i;
1075:Drivers/STM32L4xx_HAL_Driver/Src/stm32l4xx_hal_pcd.c ****   uint32_t ep_intr;
1076:Drivers/STM32L4xx_HAL_Driver/Src/stm32l4xx_hal_pcd.c ****   uint32_t epint;
1077:Drivers/STM32L4xx_HAL_Driver/Src/stm32l4xx_hal_pcd.c ****   uint32_t epnum;
1078:Drivers/STM32L4xx_HAL_Driver/Src/stm32l4xx_hal_pcd.c ****   uint32_t fifoemptymsk;
1079:Drivers/STM32L4xx_HAL_Driver/Src/stm32l4xx_hal_pcd.c ****   uint32_t RegVal;
1080:Drivers/STM32L4xx_HAL_Driver/Src/stm32l4xx_hal_pcd.c **** 
1081:Drivers/STM32L4xx_HAL_Driver/Src/stm32l4xx_hal_pcd.c ****   /* ensure that we are in device mode */
1082:Drivers/STM32L4xx_HAL_Driver/Src/stm32l4xx_hal_pcd.c ****   if (USB_GetMode(hpcd->Instance) == USB_OTG_MODE_DEVICE)
 723              		.loc 1 1082 23
 724 0012 7B68     		ldr	r3, [r7, #4]
 725 0014 1B68     		ldr	r3, [r3]
 726              		.loc 1 1082 7
 727 0016 1846     		mov	r0, r3
 728 0018 FFF7FEFF 		bl	USB_GetMode
 729 001c 0346     		mov	r3, r0
 730              		.loc 1 1082 6 discriminator 1
 731 001e 002B     		cmp	r3, #0
 732 0020 40F09B84 		bne	.L27
1083:Drivers/STM32L4xx_HAL_Driver/Src/stm32l4xx_hal_pcd.c ****   {
1084:Drivers/STM32L4xx_HAL_Driver/Src/stm32l4xx_hal_pcd.c ****     /* avoid spurious interrupt */
1085:Drivers/STM32L4xx_HAL_Driver/Src/stm32l4xx_hal_pcd.c ****     if (__HAL_PCD_IS_INVALID_INTERRUPT(hpcd))
 733              		.loc 1 1085 9
 734 0024 7B68     		ldr	r3, [r7, #4]
 735 0026 1B68     		ldr	r3, [r3]
 736 0028 1846     		mov	r0, r3
 737 002a FFF7FEFF 		bl	USB_ReadInterrupts
 738 002e 0346     		mov	r3, r0
 739              		.loc 1 1085 8 discriminator 1
 740 0030 002B     		cmp	r3, #0
 741 0032 00F09184 		beq	.L84
1086:Drivers/STM32L4xx_HAL_Driver/Src/stm32l4xx_hal_pcd.c ****     {
1087:Drivers/STM32L4xx_HAL_Driver/Src/stm32l4xx_hal_pcd.c ****       return;
1088:Drivers/STM32L4xx_HAL_Driver/Src/stm32l4xx_hal_pcd.c ****     }
1089:Drivers/STM32L4xx_HAL_Driver/Src/stm32l4xx_hal_pcd.c **** 
1090:Drivers/STM32L4xx_HAL_Driver/Src/stm32l4xx_hal_pcd.c ****     /* store current frame number */
1091:Drivers/STM32L4xx_HAL_Driver/Src/stm32l4xx_hal_pcd.c ****     hpcd->FrameNumber = (USBx_DEVICE->DSTS & USB_OTG_DSTS_FNSOF_Msk) >> USB_OTG_DSTS_FNSOF_Pos;
ARM GAS  /tmp/ccFcOOzb.s 			page 33


 742              		.loc 1 1091 26
 743 0036 FB69     		ldr	r3, [r7, #28]
 744 0038 03F50063 		add	r3, r3, #2048
 745              		.loc 1 1091 37
 746 003c 9B68     		ldr	r3, [r3, #8]
 747              		.loc 1 1091 70
 748 003e 1B0A     		lsrs	r3, r3, #8
 749 0040 C3F30D02 		ubfx	r2, r3, #0, #14
 750              		.loc 1 1091 23
 751 0044 7B68     		ldr	r3, [r7, #4]
 752 0046 C3F8D424 		str	r2, [r3, #1236]
1092:Drivers/STM32L4xx_HAL_Driver/Src/stm32l4xx_hal_pcd.c **** 
1093:Drivers/STM32L4xx_HAL_Driver/Src/stm32l4xx_hal_pcd.c ****     if (__HAL_PCD_GET_FLAG(hpcd, USB_OTG_GINTSTS_MMIS))
 753              		.loc 1 1093 9
 754 004a 7B68     		ldr	r3, [r7, #4]
 755 004c 1B68     		ldr	r3, [r3]
 756 004e 1846     		mov	r0, r3
 757 0050 FFF7FEFF 		bl	USB_ReadInterrupts
 758 0054 0346     		mov	r3, r0
 759              		.loc 1 1093 9 is_stmt 0 discriminator 1
 760 0056 03F00203 		and	r3, r3, #2
 761              		.loc 1 1093 8 is_stmt 1 discriminator 1
 762 005a 022B     		cmp	r3, #2
 763 005c 07D1     		bne	.L30
1094:Drivers/STM32L4xx_HAL_Driver/Src/stm32l4xx_hal_pcd.c ****     {
1095:Drivers/STM32L4xx_HAL_Driver/Src/stm32l4xx_hal_pcd.c ****       /* incorrect mode, acknowledge the interrupt */
1096:Drivers/STM32L4xx_HAL_Driver/Src/stm32l4xx_hal_pcd.c ****       __HAL_PCD_CLEAR_FLAG(hpcd, USB_OTG_GINTSTS_MMIS);
 764              		.loc 1 1096 7
 765 005e 7B68     		ldr	r3, [r7, #4]
 766 0060 1B68     		ldr	r3, [r3]
 767 0062 5A69     		ldr	r2, [r3, #20]
 768 0064 7B68     		ldr	r3, [r7, #4]
 769 0066 1B68     		ldr	r3, [r3]
 770 0068 02F00202 		and	r2, r2, #2
 771 006c 5A61     		str	r2, [r3, #20]
 772              	.L30:
1097:Drivers/STM32L4xx_HAL_Driver/Src/stm32l4xx_hal_pcd.c ****     }
1098:Drivers/STM32L4xx_HAL_Driver/Src/stm32l4xx_hal_pcd.c **** 
1099:Drivers/STM32L4xx_HAL_Driver/Src/stm32l4xx_hal_pcd.c ****     /* Handle RxQLevel Interrupt */
1100:Drivers/STM32L4xx_HAL_Driver/Src/stm32l4xx_hal_pcd.c ****     if (__HAL_PCD_GET_FLAG(hpcd, USB_OTG_GINTSTS_RXFLVL))
 773              		.loc 1 1100 9
 774 006e 7B68     		ldr	r3, [r7, #4]
 775 0070 1B68     		ldr	r3, [r3]
 776 0072 1846     		mov	r0, r3
 777 0074 FFF7FEFF 		bl	USB_ReadInterrupts
 778 0078 0346     		mov	r3, r0
 779              		.loc 1 1100 9 is_stmt 0 discriminator 1
 780 007a 03F01003 		and	r3, r3, #16
 781              		.loc 1 1100 8 is_stmt 1 discriminator 1
 782 007e 102B     		cmp	r3, #16
 783 0080 61D1     		bne	.L31
1101:Drivers/STM32L4xx_HAL_Driver/Src/stm32l4xx_hal_pcd.c ****     {
1102:Drivers/STM32L4xx_HAL_Driver/Src/stm32l4xx_hal_pcd.c ****       USB_MASK_INTERRUPT(hpcd->Instance, USB_OTG_GINTSTS_RXFLVL);
 784              		.loc 1 1102 7
 785 0082 7B68     		ldr	r3, [r7, #4]
 786 0084 1B68     		ldr	r3, [r3]
 787 0086 9A69     		ldr	r2, [r3, #24]
ARM GAS  /tmp/ccFcOOzb.s 			page 34


 788 0088 7B68     		ldr	r3, [r7, #4]
 789 008a 1B68     		ldr	r3, [r3]
 790 008c 22F01002 		bic	r2, r2, #16
 791 0090 9A61     		str	r2, [r3, #24]
1103:Drivers/STM32L4xx_HAL_Driver/Src/stm32l4xx_hal_pcd.c **** 
1104:Drivers/STM32L4xx_HAL_Driver/Src/stm32l4xx_hal_pcd.c ****       RegVal = USBx->GRXSTSP;
 792              		.loc 1 1104 14
 793 0092 3B6A     		ldr	r3, [r7, #32]
 794 0094 1B6A     		ldr	r3, [r3, #32]
 795 0096 BB61     		str	r3, [r7, #24]
1105:Drivers/STM32L4xx_HAL_Driver/Src/stm32l4xx_hal_pcd.c **** 
1106:Drivers/STM32L4xx_HAL_Driver/Src/stm32l4xx_hal_pcd.c ****       ep = &hpcd->OUT_ep[RegVal & USB_OTG_GRXSTSP_EPNUM];
 796              		.loc 1 1106 33
 797 0098 BB69     		ldr	r3, [r7, #24]
 798 009a 03F00F02 		and	r2, r3, #15
 799              		.loc 1 1106 10
 800 009e 1346     		mov	r3, r2
 801 00a0 DB00     		lsls	r3, r3, #3
 802 00a2 1344     		add	r3, r3, r2
 803 00a4 9B00     		lsls	r3, r3, #2
 804 00a6 03F51473 		add	r3, r3, #592
 805 00aa 7A68     		ldr	r2, [r7, #4]
 806 00ac 1344     		add	r3, r3, r2
 807 00ae 0433     		adds	r3, r3, #4
 808 00b0 7B61     		str	r3, [r7, #20]
1107:Drivers/STM32L4xx_HAL_Driver/Src/stm32l4xx_hal_pcd.c **** 
1108:Drivers/STM32L4xx_HAL_Driver/Src/stm32l4xx_hal_pcd.c ****       if (((RegVal & USB_OTG_GRXSTSP_PKTSTS) >> 17) ==  STS_DATA_UPDT)
 809              		.loc 1 1108 53
 810 00b2 BB69     		ldr	r3, [r7, #24]
 811 00b4 03F4F013 		and	r3, r3, #1966080
 812              		.loc 1 1108 10
 813 00b8 B3F5802F 		cmp	r3, #262144
 814 00bc 24D1     		bne	.L32
1109:Drivers/STM32L4xx_HAL_Driver/Src/stm32l4xx_hal_pcd.c ****       {
1110:Drivers/STM32L4xx_HAL_Driver/Src/stm32l4xx_hal_pcd.c ****         if ((RegVal & USB_OTG_GRXSTSP_BCNT) != 0U)
 815              		.loc 1 1110 21
 816 00be BA69     		ldr	r2, [r7, #24]
 817 00c0 47F6F073 		movw	r3, #32752
 818 00c4 1340     		ands	r3, r3, r2
 819              		.loc 1 1110 12
 820 00c6 002B     		cmp	r3, #0
 821 00c8 35D0     		beq	.L33
1111:Drivers/STM32L4xx_HAL_Driver/Src/stm32l4xx_hal_pcd.c ****         {
1112:Drivers/STM32L4xx_HAL_Driver/Src/stm32l4xx_hal_pcd.c ****           (void)USB_ReadPacket(USBx, ep->xfer_buff,
 822              		.loc 1 1112 17
 823 00ca 7B69     		ldr	r3, [r7, #20]
 824 00cc D968     		ldr	r1, [r3, #12]
1113:Drivers/STM32L4xx_HAL_Driver/Src/stm32l4xx_hal_pcd.c ****                                (uint16_t)((RegVal & USB_OTG_GRXSTSP_BCNT) >> 4));
 825              		.loc 1 1113 75
 826 00ce BB69     		ldr	r3, [r7, #24]
 827 00d0 1B09     		lsrs	r3, r3, #4
 828              		.loc 1 1113 32
 829 00d2 9BB2     		uxth	r3, r3
1112:Drivers/STM32L4xx_HAL_Driver/Src/stm32l4xx_hal_pcd.c ****                                (uint16_t)((RegVal & USB_OTG_GRXSTSP_BCNT) >> 4));
 830              		.loc 1 1112 17
 831 00d4 C3F30A03 		ubfx	r3, r3, #0, #11
 832 00d8 9BB2     		uxth	r3, r3
ARM GAS  /tmp/ccFcOOzb.s 			page 35


 833 00da 1A46     		mov	r2, r3
 834 00dc 386A     		ldr	r0, [r7, #32]
 835 00de FFF7FEFF 		bl	USB_ReadPacket
1114:Drivers/STM32L4xx_HAL_Driver/Src/stm32l4xx_hal_pcd.c **** 
1115:Drivers/STM32L4xx_HAL_Driver/Src/stm32l4xx_hal_pcd.c ****           ep->xfer_buff += (RegVal & USB_OTG_GRXSTSP_BCNT) >> 4;
 836              		.loc 1 1115 13
 837 00e2 7B69     		ldr	r3, [r7, #20]
 838 00e4 DA68     		ldr	r2, [r3, #12]
 839              		.loc 1 1115 60
 840 00e6 BB69     		ldr	r3, [r7, #24]
 841 00e8 1B09     		lsrs	r3, r3, #4
 842 00ea C3F30A03 		ubfx	r3, r3, #0, #11
 843              		.loc 1 1115 25
 844 00ee 1A44     		add	r2, r2, r3
 845 00f0 7B69     		ldr	r3, [r7, #20]
 846 00f2 DA60     		str	r2, [r3, #12]
1116:Drivers/STM32L4xx_HAL_Driver/Src/stm32l4xx_hal_pcd.c ****           ep->xfer_count += (RegVal & USB_OTG_GRXSTSP_BCNT) >> 4;
 847              		.loc 1 1116 13
 848 00f4 7B69     		ldr	r3, [r7, #20]
 849 00f6 5A69     		ldr	r2, [r3, #20]
 850              		.loc 1 1116 61
 851 00f8 BB69     		ldr	r3, [r7, #24]
 852 00fa 1B09     		lsrs	r3, r3, #4
 853 00fc C3F30A03 		ubfx	r3, r3, #0, #11
 854              		.loc 1 1116 26
 855 0100 1A44     		add	r2, r2, r3
 856 0102 7B69     		ldr	r3, [r7, #20]
 857 0104 5A61     		str	r2, [r3, #20]
 858 0106 16E0     		b	.L33
 859              	.L32:
1117:Drivers/STM32L4xx_HAL_Driver/Src/stm32l4xx_hal_pcd.c ****         }
1118:Drivers/STM32L4xx_HAL_Driver/Src/stm32l4xx_hal_pcd.c ****       }
1119:Drivers/STM32L4xx_HAL_Driver/Src/stm32l4xx_hal_pcd.c ****       else if (((RegVal & USB_OTG_GRXSTSP_PKTSTS) >> 17) == STS_SETUP_UPDT)
 860              		.loc 1 1119 58
 861 0108 BB69     		ldr	r3, [r7, #24]
 862 010a 03F4F013 		and	r3, r3, #1966080
 863              		.loc 1 1119 15
 864 010e B3F5402F 		cmp	r3, #786432
 865 0112 10D1     		bne	.L33
1120:Drivers/STM32L4xx_HAL_Driver/Src/stm32l4xx_hal_pcd.c ****       {
1121:Drivers/STM32L4xx_HAL_Driver/Src/stm32l4xx_hal_pcd.c ****         (void)USB_ReadPacket(USBx, (uint8_t *)hpcd->Setup, 8U);
 866              		.loc 1 1121 47
 867 0114 7B68     		ldr	r3, [r7, #4]
 868 0116 03F29C43 		addw	r3, r3, #1180
 869              		.loc 1 1121 15
 870 011a 0822     		movs	r2, #8
 871 011c 1946     		mov	r1, r3
 872 011e 386A     		ldr	r0, [r7, #32]
 873 0120 FFF7FEFF 		bl	USB_ReadPacket
1122:Drivers/STM32L4xx_HAL_Driver/Src/stm32l4xx_hal_pcd.c ****         ep->xfer_count += (RegVal & USB_OTG_GRXSTSP_BCNT) >> 4;
 874              		.loc 1 1122 11
 875 0124 7B69     		ldr	r3, [r7, #20]
 876 0126 5A69     		ldr	r2, [r3, #20]
 877              		.loc 1 1122 59
 878 0128 BB69     		ldr	r3, [r7, #24]
 879 012a 1B09     		lsrs	r3, r3, #4
 880 012c C3F30A03 		ubfx	r3, r3, #0, #11
ARM GAS  /tmp/ccFcOOzb.s 			page 36


 881              		.loc 1 1122 24
 882 0130 1A44     		add	r2, r2, r3
 883 0132 7B69     		ldr	r3, [r7, #20]
 884 0134 5A61     		str	r2, [r3, #20]
 885              	.L33:
1123:Drivers/STM32L4xx_HAL_Driver/Src/stm32l4xx_hal_pcd.c ****       }
1124:Drivers/STM32L4xx_HAL_Driver/Src/stm32l4xx_hal_pcd.c ****       else
1125:Drivers/STM32L4xx_HAL_Driver/Src/stm32l4xx_hal_pcd.c ****       {
1126:Drivers/STM32L4xx_HAL_Driver/Src/stm32l4xx_hal_pcd.c ****         /* ... */
1127:Drivers/STM32L4xx_HAL_Driver/Src/stm32l4xx_hal_pcd.c ****       }
1128:Drivers/STM32L4xx_HAL_Driver/Src/stm32l4xx_hal_pcd.c **** 
1129:Drivers/STM32L4xx_HAL_Driver/Src/stm32l4xx_hal_pcd.c ****       USB_UNMASK_INTERRUPT(hpcd->Instance, USB_OTG_GINTSTS_RXFLVL);
 886              		.loc 1 1129 7
 887 0136 7B68     		ldr	r3, [r7, #4]
 888 0138 1B68     		ldr	r3, [r3]
 889 013a 9A69     		ldr	r2, [r3, #24]
 890 013c 7B68     		ldr	r3, [r7, #4]
 891 013e 1B68     		ldr	r3, [r3]
 892 0140 42F01002 		orr	r2, r2, #16
 893 0144 9A61     		str	r2, [r3, #24]
 894              	.L31:
1130:Drivers/STM32L4xx_HAL_Driver/Src/stm32l4xx_hal_pcd.c ****     }
1131:Drivers/STM32L4xx_HAL_Driver/Src/stm32l4xx_hal_pcd.c **** 
1132:Drivers/STM32L4xx_HAL_Driver/Src/stm32l4xx_hal_pcd.c ****     if (__HAL_PCD_GET_FLAG(hpcd, USB_OTG_GINTSTS_OEPINT))
 895              		.loc 1 1132 9
 896 0146 7B68     		ldr	r3, [r7, #4]
 897 0148 1B68     		ldr	r3, [r3]
 898 014a 1846     		mov	r0, r3
 899 014c FFF7FEFF 		bl	USB_ReadInterrupts
 900 0150 0346     		mov	r3, r0
 901              		.loc 1 1132 9 is_stmt 0 discriminator 1
 902 0152 03F40023 		and	r3, r3, #524288
 903              		.loc 1 1132 8 is_stmt 1 discriminator 1
 904 0156 B3F5002F 		cmp	r3, #524288
 905 015a 40F0A780 		bne	.L34
1133:Drivers/STM32L4xx_HAL_Driver/Src/stm32l4xx_hal_pcd.c ****     {
1134:Drivers/STM32L4xx_HAL_Driver/Src/stm32l4xx_hal_pcd.c ****       epnum = 0U;
 906              		.loc 1 1134 13
 907 015e 0023     		movs	r3, #0
 908 0160 7B62     		str	r3, [r7, #36]
1135:Drivers/STM32L4xx_HAL_Driver/Src/stm32l4xx_hal_pcd.c **** 
1136:Drivers/STM32L4xx_HAL_Driver/Src/stm32l4xx_hal_pcd.c ****       /* Read in the device interrupt bits */
1137:Drivers/STM32L4xx_HAL_Driver/Src/stm32l4xx_hal_pcd.c ****       ep_intr = USB_ReadDevAllOutEpInterrupt(hpcd->Instance);
 909              		.loc 1 1137 50
 910 0162 7B68     		ldr	r3, [r7, #4]
 911 0164 1B68     		ldr	r3, [r3]
 912              		.loc 1 1137 17
 913 0166 1846     		mov	r0, r3
 914 0168 FFF7FEFF 		bl	USB_ReadDevAllOutEpInterrupt
 915 016c B862     		str	r0, [r7, #40]
1138:Drivers/STM32L4xx_HAL_Driver/Src/stm32l4xx_hal_pcd.c **** 
1139:Drivers/STM32L4xx_HAL_Driver/Src/stm32l4xx_hal_pcd.c ****       while (ep_intr != 0U)
 916              		.loc 1 1139 13
 917 016e 99E0     		b	.L35
 918              	.L44:
1140:Drivers/STM32L4xx_HAL_Driver/Src/stm32l4xx_hal_pcd.c ****       {
1141:Drivers/STM32L4xx_HAL_Driver/Src/stm32l4xx_hal_pcd.c ****         if ((ep_intr & 0x1U) != 0U)
ARM GAS  /tmp/ccFcOOzb.s 			page 37


 919              		.loc 1 1141 22
 920 0170 BB6A     		ldr	r3, [r7, #40]
 921 0172 03F00103 		and	r3, r3, #1
 922              		.loc 1 1141 12
 923 0176 002B     		cmp	r3, #0
 924 0178 00F08E80 		beq	.L36
1142:Drivers/STM32L4xx_HAL_Driver/Src/stm32l4xx_hal_pcd.c ****         {
1143:Drivers/STM32L4xx_HAL_Driver/Src/stm32l4xx_hal_pcd.c ****           epint = USB_ReadDevOutEPInterrupt(hpcd->Instance, (uint8_t)epnum);
 925              		.loc 1 1143 49
 926 017c 7B68     		ldr	r3, [r7, #4]
 927 017e 1B68     		ldr	r3, [r3]
 928              		.loc 1 1143 19
 929 0180 7A6A     		ldr	r2, [r7, #36]
 930 0182 D2B2     		uxtb	r2, r2
 931 0184 1146     		mov	r1, r2
 932 0186 1846     		mov	r0, r3
 933 0188 FFF7FEFF 		bl	USB_ReadDevOutEPInterrupt
 934 018c 3861     		str	r0, [r7, #16]
1144:Drivers/STM32L4xx_HAL_Driver/Src/stm32l4xx_hal_pcd.c **** 
1145:Drivers/STM32L4xx_HAL_Driver/Src/stm32l4xx_hal_pcd.c ****           if ((epint & USB_OTG_DOEPINT_XFRC) == USB_OTG_DOEPINT_XFRC)
 935              		.loc 1 1145 22
 936 018e 3B69     		ldr	r3, [r7, #16]
 937 0190 03F00103 		and	r3, r3, #1
 938              		.loc 1 1145 14
 939 0194 002B     		cmp	r3, #0
 940 0196 0CD0     		beq	.L37
1146:Drivers/STM32L4xx_HAL_Driver/Src/stm32l4xx_hal_pcd.c ****           {
1147:Drivers/STM32L4xx_HAL_Driver/Src/stm32l4xx_hal_pcd.c ****             CLEAR_OUT_EP_INTR(epnum, USB_OTG_DOEPINT_XFRC);
 941              		.loc 1 1147 13
 942 0198 7B6A     		ldr	r3, [r7, #36]
 943 019a 5A01     		lsls	r2, r3, #5
 944 019c FB69     		ldr	r3, [r7, #28]
 945 019e 1344     		add	r3, r3, r2
 946 01a0 03F53063 		add	r3, r3, #2816
 947 01a4 1A46     		mov	r2, r3
 948 01a6 0123     		movs	r3, #1
 949 01a8 9360     		str	r3, [r2, #8]
1148:Drivers/STM32L4xx_HAL_Driver/Src/stm32l4xx_hal_pcd.c ****             (void)PCD_EP_OutXfrComplete_int(hpcd, epnum);
 950              		.loc 1 1148 19
 951 01aa 796A     		ldr	r1, [r7, #36]
 952 01ac 7868     		ldr	r0, [r7, #4]
 953 01ae FFF7FEFF 		bl	PCD_EP_OutXfrComplete_int
 954              	.L37:
1149:Drivers/STM32L4xx_HAL_Driver/Src/stm32l4xx_hal_pcd.c ****           }
1150:Drivers/STM32L4xx_HAL_Driver/Src/stm32l4xx_hal_pcd.c **** 
1151:Drivers/STM32L4xx_HAL_Driver/Src/stm32l4xx_hal_pcd.c ****           if ((epint & USB_OTG_DOEPINT_STUP) == USB_OTG_DOEPINT_STUP)
 955              		.loc 1 1151 22
 956 01b2 3B69     		ldr	r3, [r7, #16]
 957 01b4 03F00803 		and	r3, r3, #8
 958              		.loc 1 1151 14
 959 01b8 002B     		cmp	r3, #0
 960 01ba 0CD0     		beq	.L38
1152:Drivers/STM32L4xx_HAL_Driver/Src/stm32l4xx_hal_pcd.c ****           {
1153:Drivers/STM32L4xx_HAL_Driver/Src/stm32l4xx_hal_pcd.c ****             CLEAR_OUT_EP_INTR(epnum, USB_OTG_DOEPINT_STUP);
 961              		.loc 1 1153 13
 962 01bc 7B6A     		ldr	r3, [r7, #36]
 963 01be 5A01     		lsls	r2, r3, #5
ARM GAS  /tmp/ccFcOOzb.s 			page 38


 964 01c0 FB69     		ldr	r3, [r7, #28]
 965 01c2 1344     		add	r3, r3, r2
 966 01c4 03F53063 		add	r3, r3, #2816
 967 01c8 1A46     		mov	r2, r3
 968 01ca 0823     		movs	r3, #8
 969 01cc 9360     		str	r3, [r2, #8]
1154:Drivers/STM32L4xx_HAL_Driver/Src/stm32l4xx_hal_pcd.c ****             /* Class B setup phase done for previous decoded setup */
1155:Drivers/STM32L4xx_HAL_Driver/Src/stm32l4xx_hal_pcd.c ****             (void)PCD_EP_OutSetupPacket_int(hpcd, epnum);
 970              		.loc 1 1155 19
 971 01ce 796A     		ldr	r1, [r7, #36]
 972 01d0 7868     		ldr	r0, [r7, #4]
 973 01d2 FFF7FEFF 		bl	PCD_EP_OutSetupPacket_int
 974              	.L38:
1156:Drivers/STM32L4xx_HAL_Driver/Src/stm32l4xx_hal_pcd.c ****           }
1157:Drivers/STM32L4xx_HAL_Driver/Src/stm32l4xx_hal_pcd.c **** 
1158:Drivers/STM32L4xx_HAL_Driver/Src/stm32l4xx_hal_pcd.c ****           if ((epint & USB_OTG_DOEPINT_OTEPDIS) == USB_OTG_DOEPINT_OTEPDIS)
 975              		.loc 1 1158 22
 976 01d6 3B69     		ldr	r3, [r7, #16]
 977 01d8 03F01003 		and	r3, r3, #16
 978              		.loc 1 1158 14
 979 01dc 002B     		cmp	r3, #0
 980 01de 08D0     		beq	.L39
1159:Drivers/STM32L4xx_HAL_Driver/Src/stm32l4xx_hal_pcd.c ****           {
1160:Drivers/STM32L4xx_HAL_Driver/Src/stm32l4xx_hal_pcd.c ****             CLEAR_OUT_EP_INTR(epnum, USB_OTG_DOEPINT_OTEPDIS);
 981              		.loc 1 1160 13
 982 01e0 7B6A     		ldr	r3, [r7, #36]
 983 01e2 5A01     		lsls	r2, r3, #5
 984 01e4 FB69     		ldr	r3, [r7, #28]
 985 01e6 1344     		add	r3, r3, r2
 986 01e8 03F53063 		add	r3, r3, #2816
 987 01ec 1A46     		mov	r2, r3
 988 01ee 1023     		movs	r3, #16
 989 01f0 9360     		str	r3, [r2, #8]
 990              	.L39:
1161:Drivers/STM32L4xx_HAL_Driver/Src/stm32l4xx_hal_pcd.c ****           }
1162:Drivers/STM32L4xx_HAL_Driver/Src/stm32l4xx_hal_pcd.c **** 
1163:Drivers/STM32L4xx_HAL_Driver/Src/stm32l4xx_hal_pcd.c ****           /* Clear OUT Endpoint disable interrupt */
1164:Drivers/STM32L4xx_HAL_Driver/Src/stm32l4xx_hal_pcd.c ****           if ((epint & USB_OTG_DOEPINT_EPDISD) == USB_OTG_DOEPINT_EPDISD)
 991              		.loc 1 1164 22
 992 01f2 3B69     		ldr	r3, [r7, #16]
 993 01f4 03F00203 		and	r3, r3, #2
 994              		.loc 1 1164 14
 995 01f8 002B     		cmp	r3, #0
 996 01fa 30D0     		beq	.L40
1165:Drivers/STM32L4xx_HAL_Driver/Src/stm32l4xx_hal_pcd.c ****           {
1166:Drivers/STM32L4xx_HAL_Driver/Src/stm32l4xx_hal_pcd.c ****             if ((USBx->GINTSTS & USB_OTG_GINTSTS_BOUTNAKEFF) == USB_OTG_GINTSTS_BOUTNAKEFF)
 997              		.loc 1 1166 22
 998 01fc 3B6A     		ldr	r3, [r7, #32]
 999 01fe 5B69     		ldr	r3, [r3, #20]
 1000              		.loc 1 1166 32
 1001 0200 03F08003 		and	r3, r3, #128
 1002              		.loc 1 1166 16
 1003 0204 802B     		cmp	r3, #128
 1004 0206 09D1     		bne	.L41
1167:Drivers/STM32L4xx_HAL_Driver/Src/stm32l4xx_hal_pcd.c ****             {
1168:Drivers/STM32L4xx_HAL_Driver/Src/stm32l4xx_hal_pcd.c ****               USBx_DEVICE->DCTL |= USB_OTG_DCTL_CGONAK;
 1005              		.loc 1 1168 26
ARM GAS  /tmp/ccFcOOzb.s 			page 39


 1006 0208 FB69     		ldr	r3, [r7, #28]
 1007 020a 03F50063 		add	r3, r3, #2048
 1008 020e 5B68     		ldr	r3, [r3, #4]
 1009 0210 FA69     		ldr	r2, [r7, #28]
 1010 0212 02F50062 		add	r2, r2, #2048
 1011              		.loc 1 1168 33
 1012 0216 43F48063 		orr	r3, r3, #1024
 1013 021a 5360     		str	r3, [r2, #4]
 1014              	.L41:
1169:Drivers/STM32L4xx_HAL_Driver/Src/stm32l4xx_hal_pcd.c ****             }
1170:Drivers/STM32L4xx_HAL_Driver/Src/stm32l4xx_hal_pcd.c **** 
1171:Drivers/STM32L4xx_HAL_Driver/Src/stm32l4xx_hal_pcd.c ****             ep = &hpcd->OUT_ep[epnum];
 1015              		.loc 1 1171 16
 1016 021c 7A6A     		ldr	r2, [r7, #36]
 1017 021e 1346     		mov	r3, r2
 1018 0220 DB00     		lsls	r3, r3, #3
 1019 0222 1344     		add	r3, r3, r2
 1020 0224 9B00     		lsls	r3, r3, #2
 1021 0226 03F51473 		add	r3, r3, #592
 1022 022a 7A68     		ldr	r2, [r7, #4]
 1023 022c 1344     		add	r3, r3, r2
 1024 022e 0433     		adds	r3, r3, #4
 1025 0230 7B61     		str	r3, [r7, #20]
1172:Drivers/STM32L4xx_HAL_Driver/Src/stm32l4xx_hal_pcd.c **** 
1173:Drivers/STM32L4xx_HAL_Driver/Src/stm32l4xx_hal_pcd.c ****             if (ep->is_iso_incomplete == 1U)
 1026              		.loc 1 1173 19
 1027 0232 7B69     		ldr	r3, [r7, #20]
 1028 0234 DB78     		ldrb	r3, [r3, #3]	@ zero_extendqisi2
 1029              		.loc 1 1173 16
 1030 0236 012B     		cmp	r3, #1
 1031 0238 08D1     		bne	.L42
1174:Drivers/STM32L4xx_HAL_Driver/Src/stm32l4xx_hal_pcd.c ****             {
1175:Drivers/STM32L4xx_HAL_Driver/Src/stm32l4xx_hal_pcd.c ****               ep->is_iso_incomplete = 0U;
 1032              		.loc 1 1175 37
 1033 023a 7B69     		ldr	r3, [r7, #20]
 1034 023c 0022     		movs	r2, #0
 1035 023e DA70     		strb	r2, [r3, #3]
1176:Drivers/STM32L4xx_HAL_Driver/Src/stm32l4xx_hal_pcd.c **** 
1177:Drivers/STM32L4xx_HAL_Driver/Src/stm32l4xx_hal_pcd.c **** #if (USE_HAL_PCD_REGISTER_CALLBACKS == 1U)
1178:Drivers/STM32L4xx_HAL_Driver/Src/stm32l4xx_hal_pcd.c ****               hpcd->ISOOUTIncompleteCallback(hpcd, (uint8_t)epnum);
1179:Drivers/STM32L4xx_HAL_Driver/Src/stm32l4xx_hal_pcd.c **** #else
1180:Drivers/STM32L4xx_HAL_Driver/Src/stm32l4xx_hal_pcd.c ****               HAL_PCD_ISOOUTIncompleteCallback(hpcd, (uint8_t)epnum);
 1036              		.loc 1 1180 15
 1037 0240 7B6A     		ldr	r3, [r7, #36]
 1038 0242 DBB2     		uxtb	r3, r3
 1039 0244 1946     		mov	r1, r3
 1040 0246 7868     		ldr	r0, [r7, #4]
 1041 0248 FFF7FEFF 		bl	HAL_PCD_ISOOUTIncompleteCallback
 1042              	.L42:
1181:Drivers/STM32L4xx_HAL_Driver/Src/stm32l4xx_hal_pcd.c **** #endif /* USE_HAL_PCD_REGISTER_CALLBACKS */
1182:Drivers/STM32L4xx_HAL_Driver/Src/stm32l4xx_hal_pcd.c ****             }
1183:Drivers/STM32L4xx_HAL_Driver/Src/stm32l4xx_hal_pcd.c **** 
1184:Drivers/STM32L4xx_HAL_Driver/Src/stm32l4xx_hal_pcd.c ****             CLEAR_OUT_EP_INTR(epnum, USB_OTG_DOEPINT_EPDISD);
 1043              		.loc 1 1184 13
 1044 024c 7B6A     		ldr	r3, [r7, #36]
 1045 024e 5A01     		lsls	r2, r3, #5
 1046 0250 FB69     		ldr	r3, [r7, #28]
ARM GAS  /tmp/ccFcOOzb.s 			page 40


 1047 0252 1344     		add	r3, r3, r2
 1048 0254 03F53063 		add	r3, r3, #2816
 1049 0258 1A46     		mov	r2, r3
 1050 025a 0223     		movs	r3, #2
 1051 025c 9360     		str	r3, [r2, #8]
 1052              	.L40:
1185:Drivers/STM32L4xx_HAL_Driver/Src/stm32l4xx_hal_pcd.c ****           }
1186:Drivers/STM32L4xx_HAL_Driver/Src/stm32l4xx_hal_pcd.c **** 
1187:Drivers/STM32L4xx_HAL_Driver/Src/stm32l4xx_hal_pcd.c ****           /* Clear Status Phase Received interrupt */
1188:Drivers/STM32L4xx_HAL_Driver/Src/stm32l4xx_hal_pcd.c ****           if ((epint & USB_OTG_DOEPINT_OTEPSPR) == USB_OTG_DOEPINT_OTEPSPR)
 1053              		.loc 1 1188 22
 1054 025e 3B69     		ldr	r3, [r7, #16]
 1055 0260 03F02003 		and	r3, r3, #32
 1056              		.loc 1 1188 14
 1057 0264 002B     		cmp	r3, #0
 1058 0266 08D0     		beq	.L43
1189:Drivers/STM32L4xx_HAL_Driver/Src/stm32l4xx_hal_pcd.c ****           {
1190:Drivers/STM32L4xx_HAL_Driver/Src/stm32l4xx_hal_pcd.c ****             CLEAR_OUT_EP_INTR(epnum, USB_OTG_DOEPINT_OTEPSPR);
 1059              		.loc 1 1190 13
 1060 0268 7B6A     		ldr	r3, [r7, #36]
 1061 026a 5A01     		lsls	r2, r3, #5
 1062 026c FB69     		ldr	r3, [r7, #28]
 1063 026e 1344     		add	r3, r3, r2
 1064 0270 03F53063 		add	r3, r3, #2816
 1065 0274 1A46     		mov	r2, r3
 1066 0276 2023     		movs	r3, #32
 1067 0278 9360     		str	r3, [r2, #8]
 1068              	.L43:
1191:Drivers/STM32L4xx_HAL_Driver/Src/stm32l4xx_hal_pcd.c ****           }
1192:Drivers/STM32L4xx_HAL_Driver/Src/stm32l4xx_hal_pcd.c **** 
1193:Drivers/STM32L4xx_HAL_Driver/Src/stm32l4xx_hal_pcd.c ****           /* Clear OUT NAK interrupt */
1194:Drivers/STM32L4xx_HAL_Driver/Src/stm32l4xx_hal_pcd.c ****           if ((epint & USB_OTG_DOEPINT_NAK) == USB_OTG_DOEPINT_NAK)
 1069              		.loc 1 1194 22
 1070 027a 3B69     		ldr	r3, [r7, #16]
 1071 027c 03F40053 		and	r3, r3, #8192
 1072              		.loc 1 1194 14
 1073 0280 002B     		cmp	r3, #0
 1074 0282 09D0     		beq	.L36
1195:Drivers/STM32L4xx_HAL_Driver/Src/stm32l4xx_hal_pcd.c ****           {
1196:Drivers/STM32L4xx_HAL_Driver/Src/stm32l4xx_hal_pcd.c ****             CLEAR_OUT_EP_INTR(epnum, USB_OTG_DOEPINT_NAK);
 1075              		.loc 1 1196 13
 1076 0284 7B6A     		ldr	r3, [r7, #36]
 1077 0286 5A01     		lsls	r2, r3, #5
 1078 0288 FB69     		ldr	r3, [r7, #28]
 1079 028a 1344     		add	r3, r3, r2
 1080 028c 03F53063 		add	r3, r3, #2816
 1081 0290 1A46     		mov	r2, r3
 1082 0292 4FF40053 		mov	r3, #8192
 1083 0296 9360     		str	r3, [r2, #8]
 1084              	.L36:
1197:Drivers/STM32L4xx_HAL_Driver/Src/stm32l4xx_hal_pcd.c ****           }
1198:Drivers/STM32L4xx_HAL_Driver/Src/stm32l4xx_hal_pcd.c ****         }
1199:Drivers/STM32L4xx_HAL_Driver/Src/stm32l4xx_hal_pcd.c ****         epnum++;
 1085              		.loc 1 1199 14
 1086 0298 7B6A     		ldr	r3, [r7, #36]
 1087 029a 0133     		adds	r3, r3, #1
 1088 029c 7B62     		str	r3, [r7, #36]
ARM GAS  /tmp/ccFcOOzb.s 			page 41


1200:Drivers/STM32L4xx_HAL_Driver/Src/stm32l4xx_hal_pcd.c ****         ep_intr >>= 1U;
 1089              		.loc 1 1200 17
 1090 029e BB6A     		ldr	r3, [r7, #40]
 1091 02a0 5B08     		lsrs	r3, r3, #1
 1092 02a2 BB62     		str	r3, [r7, #40]
 1093              	.L35:
1139:Drivers/STM32L4xx_HAL_Driver/Src/stm32l4xx_hal_pcd.c ****       {
 1094              		.loc 1 1139 22
 1095 02a4 BB6A     		ldr	r3, [r7, #40]
 1096 02a6 002B     		cmp	r3, #0
 1097 02a8 7FF462AF 		bne	.L44
 1098              	.L34:
1201:Drivers/STM32L4xx_HAL_Driver/Src/stm32l4xx_hal_pcd.c ****       }
1202:Drivers/STM32L4xx_HAL_Driver/Src/stm32l4xx_hal_pcd.c ****     }
1203:Drivers/STM32L4xx_HAL_Driver/Src/stm32l4xx_hal_pcd.c **** 
1204:Drivers/STM32L4xx_HAL_Driver/Src/stm32l4xx_hal_pcd.c ****     if (__HAL_PCD_GET_FLAG(hpcd, USB_OTG_GINTSTS_IEPINT))
 1099              		.loc 1 1204 9
 1100 02ac 7B68     		ldr	r3, [r7, #4]
 1101 02ae 1B68     		ldr	r3, [r3]
 1102 02b0 1846     		mov	r0, r3
 1103 02b2 FFF7FEFF 		bl	USB_ReadInterrupts
 1104 02b6 0346     		mov	r3, r0
 1105              		.loc 1 1204 9 is_stmt 0 discriminator 1
 1106 02b8 03F48023 		and	r3, r3, #262144
 1107              		.loc 1 1204 8 is_stmt 1 discriminator 1
 1108 02bc B3F5802F 		cmp	r3, #262144
 1109 02c0 40F0A480 		bne	.L45
1205:Drivers/STM32L4xx_HAL_Driver/Src/stm32l4xx_hal_pcd.c ****     {
1206:Drivers/STM32L4xx_HAL_Driver/Src/stm32l4xx_hal_pcd.c ****       /* Read in the device interrupt bits */
1207:Drivers/STM32L4xx_HAL_Driver/Src/stm32l4xx_hal_pcd.c ****       ep_intr = USB_ReadDevAllInEpInterrupt(hpcd->Instance);
 1110              		.loc 1 1207 49
 1111 02c4 7B68     		ldr	r3, [r7, #4]
 1112 02c6 1B68     		ldr	r3, [r3]
 1113              		.loc 1 1207 17
 1114 02c8 1846     		mov	r0, r3
 1115 02ca FFF7FEFF 		bl	USB_ReadDevAllInEpInterrupt
 1116 02ce B862     		str	r0, [r7, #40]
1208:Drivers/STM32L4xx_HAL_Driver/Src/stm32l4xx_hal_pcd.c **** 
1209:Drivers/STM32L4xx_HAL_Driver/Src/stm32l4xx_hal_pcd.c ****       epnum = 0U;
 1117              		.loc 1 1209 13
 1118 02d0 0023     		movs	r3, #0
 1119 02d2 7B62     		str	r3, [r7, #36]
1210:Drivers/STM32L4xx_HAL_Driver/Src/stm32l4xx_hal_pcd.c **** 
1211:Drivers/STM32L4xx_HAL_Driver/Src/stm32l4xx_hal_pcd.c ****       while (ep_intr != 0U)
 1120              		.loc 1 1211 13
 1121 02d4 96E0     		b	.L46
 1122              	.L54:
1212:Drivers/STM32L4xx_HAL_Driver/Src/stm32l4xx_hal_pcd.c ****       {
1213:Drivers/STM32L4xx_HAL_Driver/Src/stm32l4xx_hal_pcd.c ****         if ((ep_intr & 0x1U) != 0U) /* In ITR */
 1123              		.loc 1 1213 22
 1124 02d6 BB6A     		ldr	r3, [r7, #40]
 1125 02d8 03F00103 		and	r3, r3, #1
 1126              		.loc 1 1213 12
 1127 02dc 002B     		cmp	r3, #0
 1128 02de 00F08B80 		beq	.L47
1214:Drivers/STM32L4xx_HAL_Driver/Src/stm32l4xx_hal_pcd.c ****         {
1215:Drivers/STM32L4xx_HAL_Driver/Src/stm32l4xx_hal_pcd.c ****           epint = USB_ReadDevInEPInterrupt(hpcd->Instance, (uint8_t)epnum);
ARM GAS  /tmp/ccFcOOzb.s 			page 42


 1129              		.loc 1 1215 48
 1130 02e2 7B68     		ldr	r3, [r7, #4]
 1131 02e4 1B68     		ldr	r3, [r3]
 1132              		.loc 1 1215 19
 1133 02e6 7A6A     		ldr	r2, [r7, #36]
 1134 02e8 D2B2     		uxtb	r2, r2
 1135 02ea 1146     		mov	r1, r2
 1136 02ec 1846     		mov	r0, r3
 1137 02ee FFF7FEFF 		bl	USB_ReadDevInEPInterrupt
 1138 02f2 3861     		str	r0, [r7, #16]
1216:Drivers/STM32L4xx_HAL_Driver/Src/stm32l4xx_hal_pcd.c **** 
1217:Drivers/STM32L4xx_HAL_Driver/Src/stm32l4xx_hal_pcd.c ****           if ((epint & USB_OTG_DIEPINT_XFRC) == USB_OTG_DIEPINT_XFRC)
 1139              		.loc 1 1217 22
 1140 02f4 3B69     		ldr	r3, [r7, #16]
 1141 02f6 03F00103 		and	r3, r3, #1
 1142              		.loc 1 1217 14
 1143 02fa 002B     		cmp	r3, #0
 1144 02fc 20D0     		beq	.L48
1218:Drivers/STM32L4xx_HAL_Driver/Src/stm32l4xx_hal_pcd.c ****           {
1219:Drivers/STM32L4xx_HAL_Driver/Src/stm32l4xx_hal_pcd.c ****             fifoemptymsk = (uint32_t)(0x1UL << (epnum & EP_ADDR_MSK));
 1145              		.loc 1 1219 55
 1146 02fe 7B6A     		ldr	r3, [r7, #36]
 1147 0300 03F00F03 		and	r3, r3, #15
 1148              		.loc 1 1219 26
 1149 0304 0122     		movs	r2, #1
 1150 0306 02FA03F3 		lsl	r3, r2, r3
 1151 030a FB60     		str	r3, [r7, #12]
1220:Drivers/STM32L4xx_HAL_Driver/Src/stm32l4xx_hal_pcd.c ****             USBx_DEVICE->DIEPEMPMSK &= ~fifoemptymsk;
 1152              		.loc 1 1220 24
 1153 030c FB69     		ldr	r3, [r7, #28]
 1154 030e 03F50063 		add	r3, r3, #2048
 1155 0312 5A6B     		ldr	r2, [r3, #52]
 1156              		.loc 1 1220 40
 1157 0314 FB68     		ldr	r3, [r7, #12]
 1158 0316 DB43     		mvns	r3, r3
 1159              		.loc 1 1220 24
 1160 0318 F969     		ldr	r1, [r7, #28]
 1161 031a 01F50061 		add	r1, r1, #2048
 1162              		.loc 1 1220 37
 1163 031e 1340     		ands	r3, r3, r2
 1164 0320 4B63     		str	r3, [r1, #52]
1221:Drivers/STM32L4xx_HAL_Driver/Src/stm32l4xx_hal_pcd.c **** 
1222:Drivers/STM32L4xx_HAL_Driver/Src/stm32l4xx_hal_pcd.c ****             CLEAR_IN_EP_INTR(epnum, USB_OTG_DIEPINT_XFRC);
 1165              		.loc 1 1222 13
 1166 0322 7B6A     		ldr	r3, [r7, #36]
 1167 0324 5A01     		lsls	r2, r3, #5
 1168 0326 FB69     		ldr	r3, [r7, #28]
 1169 0328 1344     		add	r3, r3, r2
 1170 032a 03F51063 		add	r3, r3, #2304
 1171 032e 1A46     		mov	r2, r3
 1172 0330 0123     		movs	r3, #1
 1173 0332 9360     		str	r3, [r2, #8]
1223:Drivers/STM32L4xx_HAL_Driver/Src/stm32l4xx_hal_pcd.c **** 
1224:Drivers/STM32L4xx_HAL_Driver/Src/stm32l4xx_hal_pcd.c **** #if (USE_HAL_PCD_REGISTER_CALLBACKS == 1U)
1225:Drivers/STM32L4xx_HAL_Driver/Src/stm32l4xx_hal_pcd.c ****             hpcd->DataInStageCallback(hpcd, (uint8_t)epnum);
1226:Drivers/STM32L4xx_HAL_Driver/Src/stm32l4xx_hal_pcd.c **** #else
1227:Drivers/STM32L4xx_HAL_Driver/Src/stm32l4xx_hal_pcd.c ****             HAL_PCD_DataInStageCallback(hpcd, (uint8_t)epnum);
ARM GAS  /tmp/ccFcOOzb.s 			page 43


 1174              		.loc 1 1227 13
 1175 0334 7B6A     		ldr	r3, [r7, #36]
 1176 0336 DBB2     		uxtb	r3, r3
 1177 0338 1946     		mov	r1, r3
 1178 033a 7868     		ldr	r0, [r7, #4]
 1179 033c FFF7FEFF 		bl	HAL_PCD_DataInStageCallback
 1180              	.L48:
1228:Drivers/STM32L4xx_HAL_Driver/Src/stm32l4xx_hal_pcd.c **** #endif /* USE_HAL_PCD_REGISTER_CALLBACKS */
1229:Drivers/STM32L4xx_HAL_Driver/Src/stm32l4xx_hal_pcd.c ****           }
1230:Drivers/STM32L4xx_HAL_Driver/Src/stm32l4xx_hal_pcd.c ****           if ((epint & USB_OTG_DIEPINT_TOC) == USB_OTG_DIEPINT_TOC)
 1181              		.loc 1 1230 22
 1182 0340 3B69     		ldr	r3, [r7, #16]
 1183 0342 03F00803 		and	r3, r3, #8
 1184              		.loc 1 1230 14
 1185 0346 002B     		cmp	r3, #0
 1186 0348 08D0     		beq	.L49
1231:Drivers/STM32L4xx_HAL_Driver/Src/stm32l4xx_hal_pcd.c ****           {
1232:Drivers/STM32L4xx_HAL_Driver/Src/stm32l4xx_hal_pcd.c ****             CLEAR_IN_EP_INTR(epnum, USB_OTG_DIEPINT_TOC);
 1187              		.loc 1 1232 13
 1188 034a 7B6A     		ldr	r3, [r7, #36]
 1189 034c 5A01     		lsls	r2, r3, #5
 1190 034e FB69     		ldr	r3, [r7, #28]
 1191 0350 1344     		add	r3, r3, r2
 1192 0352 03F51063 		add	r3, r3, #2304
 1193 0356 1A46     		mov	r2, r3
 1194 0358 0823     		movs	r3, #8
 1195 035a 9360     		str	r3, [r2, #8]
 1196              	.L49:
1233:Drivers/STM32L4xx_HAL_Driver/Src/stm32l4xx_hal_pcd.c ****           }
1234:Drivers/STM32L4xx_HAL_Driver/Src/stm32l4xx_hal_pcd.c ****           if ((epint & USB_OTG_DIEPINT_ITTXFE) == USB_OTG_DIEPINT_ITTXFE)
 1197              		.loc 1 1234 22
 1198 035c 3B69     		ldr	r3, [r7, #16]
 1199 035e 03F01003 		and	r3, r3, #16
 1200              		.loc 1 1234 14
 1201 0362 002B     		cmp	r3, #0
 1202 0364 08D0     		beq	.L50
1235:Drivers/STM32L4xx_HAL_Driver/Src/stm32l4xx_hal_pcd.c ****           {
1236:Drivers/STM32L4xx_HAL_Driver/Src/stm32l4xx_hal_pcd.c ****             CLEAR_IN_EP_INTR(epnum, USB_OTG_DIEPINT_ITTXFE);
 1203              		.loc 1 1236 13
 1204 0366 7B6A     		ldr	r3, [r7, #36]
 1205 0368 5A01     		lsls	r2, r3, #5
 1206 036a FB69     		ldr	r3, [r7, #28]
 1207 036c 1344     		add	r3, r3, r2
 1208 036e 03F51063 		add	r3, r3, #2304
 1209 0372 1A46     		mov	r2, r3
 1210 0374 1023     		movs	r3, #16
 1211 0376 9360     		str	r3, [r2, #8]
 1212              	.L50:
1237:Drivers/STM32L4xx_HAL_Driver/Src/stm32l4xx_hal_pcd.c ****           }
1238:Drivers/STM32L4xx_HAL_Driver/Src/stm32l4xx_hal_pcd.c ****           if ((epint & USB_OTG_DIEPINT_INEPNE) == USB_OTG_DIEPINT_INEPNE)
 1213              		.loc 1 1238 22
 1214 0378 3B69     		ldr	r3, [r7, #16]
 1215 037a 03F04003 		and	r3, r3, #64
 1216              		.loc 1 1238 14
 1217 037e 002B     		cmp	r3, #0
 1218 0380 08D0     		beq	.L51
1239:Drivers/STM32L4xx_HAL_Driver/Src/stm32l4xx_hal_pcd.c ****           {
ARM GAS  /tmp/ccFcOOzb.s 			page 44


1240:Drivers/STM32L4xx_HAL_Driver/Src/stm32l4xx_hal_pcd.c ****             CLEAR_IN_EP_INTR(epnum, USB_OTG_DIEPINT_INEPNE);
 1219              		.loc 1 1240 13
 1220 0382 7B6A     		ldr	r3, [r7, #36]
 1221 0384 5A01     		lsls	r2, r3, #5
 1222 0386 FB69     		ldr	r3, [r7, #28]
 1223 0388 1344     		add	r3, r3, r2
 1224 038a 03F51063 		add	r3, r3, #2304
 1225 038e 1A46     		mov	r2, r3
 1226 0390 4023     		movs	r3, #64
 1227 0392 9360     		str	r3, [r2, #8]
 1228              	.L51:
1241:Drivers/STM32L4xx_HAL_Driver/Src/stm32l4xx_hal_pcd.c ****           }
1242:Drivers/STM32L4xx_HAL_Driver/Src/stm32l4xx_hal_pcd.c ****           if ((epint & USB_OTG_DIEPINT_EPDISD) == USB_OTG_DIEPINT_EPDISD)
 1229              		.loc 1 1242 22
 1230 0394 3B69     		ldr	r3, [r7, #16]
 1231 0396 03F00203 		and	r3, r3, #2
 1232              		.loc 1 1242 14
 1233 039a 002B     		cmp	r3, #0
 1234 039c 23D0     		beq	.L52
1243:Drivers/STM32L4xx_HAL_Driver/Src/stm32l4xx_hal_pcd.c ****           {
1244:Drivers/STM32L4xx_HAL_Driver/Src/stm32l4xx_hal_pcd.c ****             (void)USB_FlushTxFifo(USBx, epnum);
 1235              		.loc 1 1244 19
 1236 039e 796A     		ldr	r1, [r7, #36]
 1237 03a0 386A     		ldr	r0, [r7, #32]
 1238 03a2 FFF7FEFF 		bl	USB_FlushTxFifo
1245:Drivers/STM32L4xx_HAL_Driver/Src/stm32l4xx_hal_pcd.c **** 
1246:Drivers/STM32L4xx_HAL_Driver/Src/stm32l4xx_hal_pcd.c ****             ep = &hpcd->IN_ep[epnum];
 1239              		.loc 1 1246 16
 1240 03a6 7A6A     		ldr	r2, [r7, #36]
 1241 03a8 1346     		mov	r3, r2
 1242 03aa DB00     		lsls	r3, r3, #3
 1243 03ac 1344     		add	r3, r3, r2
 1244 03ae 9B00     		lsls	r3, r3, #2
 1245 03b0 1033     		adds	r3, r3, #16
 1246 03b2 7A68     		ldr	r2, [r7, #4]
 1247 03b4 1344     		add	r3, r3, r2
 1248 03b6 0433     		adds	r3, r3, #4
 1249 03b8 7B61     		str	r3, [r7, #20]
1247:Drivers/STM32L4xx_HAL_Driver/Src/stm32l4xx_hal_pcd.c **** 
1248:Drivers/STM32L4xx_HAL_Driver/Src/stm32l4xx_hal_pcd.c ****             if (ep->is_iso_incomplete == 1U)
 1250              		.loc 1 1248 19
 1251 03ba 7B69     		ldr	r3, [r7, #20]
 1252 03bc DB78     		ldrb	r3, [r3, #3]	@ zero_extendqisi2
 1253              		.loc 1 1248 16
 1254 03be 012B     		cmp	r3, #1
 1255 03c0 08D1     		bne	.L53
1249:Drivers/STM32L4xx_HAL_Driver/Src/stm32l4xx_hal_pcd.c ****             {
1250:Drivers/STM32L4xx_HAL_Driver/Src/stm32l4xx_hal_pcd.c ****               ep->is_iso_incomplete = 0U;
 1256              		.loc 1 1250 37
 1257 03c2 7B69     		ldr	r3, [r7, #20]
 1258 03c4 0022     		movs	r2, #0
 1259 03c6 DA70     		strb	r2, [r3, #3]
1251:Drivers/STM32L4xx_HAL_Driver/Src/stm32l4xx_hal_pcd.c **** 
1252:Drivers/STM32L4xx_HAL_Driver/Src/stm32l4xx_hal_pcd.c **** #if (USE_HAL_PCD_REGISTER_CALLBACKS == 1U)
1253:Drivers/STM32L4xx_HAL_Driver/Src/stm32l4xx_hal_pcd.c ****               hpcd->ISOINIncompleteCallback(hpcd, (uint8_t)epnum);
1254:Drivers/STM32L4xx_HAL_Driver/Src/stm32l4xx_hal_pcd.c **** #else
1255:Drivers/STM32L4xx_HAL_Driver/Src/stm32l4xx_hal_pcd.c ****               HAL_PCD_ISOINIncompleteCallback(hpcd, (uint8_t)epnum);
ARM GAS  /tmp/ccFcOOzb.s 			page 45


 1260              		.loc 1 1255 15
 1261 03c8 7B6A     		ldr	r3, [r7, #36]
 1262 03ca DBB2     		uxtb	r3, r3
 1263 03cc 1946     		mov	r1, r3
 1264 03ce 7868     		ldr	r0, [r7, #4]
 1265 03d0 FFF7FEFF 		bl	HAL_PCD_ISOINIncompleteCallback
 1266              	.L53:
1256:Drivers/STM32L4xx_HAL_Driver/Src/stm32l4xx_hal_pcd.c **** #endif /* USE_HAL_PCD_REGISTER_CALLBACKS */
1257:Drivers/STM32L4xx_HAL_Driver/Src/stm32l4xx_hal_pcd.c ****             }
1258:Drivers/STM32L4xx_HAL_Driver/Src/stm32l4xx_hal_pcd.c **** 
1259:Drivers/STM32L4xx_HAL_Driver/Src/stm32l4xx_hal_pcd.c ****             CLEAR_IN_EP_INTR(epnum, USB_OTG_DIEPINT_EPDISD);
 1267              		.loc 1 1259 13
 1268 03d4 7B6A     		ldr	r3, [r7, #36]
 1269 03d6 5A01     		lsls	r2, r3, #5
 1270 03d8 FB69     		ldr	r3, [r7, #28]
 1271 03da 1344     		add	r3, r3, r2
 1272 03dc 03F51063 		add	r3, r3, #2304
 1273 03e0 1A46     		mov	r2, r3
 1274 03e2 0223     		movs	r3, #2
 1275 03e4 9360     		str	r3, [r2, #8]
 1276              	.L52:
1260:Drivers/STM32L4xx_HAL_Driver/Src/stm32l4xx_hal_pcd.c ****           }
1261:Drivers/STM32L4xx_HAL_Driver/Src/stm32l4xx_hal_pcd.c ****           if ((epint & USB_OTG_DIEPINT_TXFE) == USB_OTG_DIEPINT_TXFE)
 1277              		.loc 1 1261 22
 1278 03e6 3B69     		ldr	r3, [r7, #16]
 1279 03e8 03F08003 		and	r3, r3, #128
 1280              		.loc 1 1261 14
 1281 03ec 002B     		cmp	r3, #0
 1282 03ee 03D0     		beq	.L47
1262:Drivers/STM32L4xx_HAL_Driver/Src/stm32l4xx_hal_pcd.c ****           {
1263:Drivers/STM32L4xx_HAL_Driver/Src/stm32l4xx_hal_pcd.c ****             (void)PCD_WriteEmptyTxFifo(hpcd, epnum);
 1283              		.loc 1 1263 19
 1284 03f0 796A     		ldr	r1, [r7, #36]
 1285 03f2 7868     		ldr	r0, [r7, #4]
 1286 03f4 FFF7FEFF 		bl	PCD_WriteEmptyTxFifo
 1287              	.L47:
1264:Drivers/STM32L4xx_HAL_Driver/Src/stm32l4xx_hal_pcd.c ****           }
1265:Drivers/STM32L4xx_HAL_Driver/Src/stm32l4xx_hal_pcd.c ****         }
1266:Drivers/STM32L4xx_HAL_Driver/Src/stm32l4xx_hal_pcd.c ****         epnum++;
 1288              		.loc 1 1266 14
 1289 03f8 7B6A     		ldr	r3, [r7, #36]
 1290 03fa 0133     		adds	r3, r3, #1
 1291 03fc 7B62     		str	r3, [r7, #36]
1267:Drivers/STM32L4xx_HAL_Driver/Src/stm32l4xx_hal_pcd.c ****         ep_intr >>= 1U;
 1292              		.loc 1 1267 17
 1293 03fe BB6A     		ldr	r3, [r7, #40]
 1294 0400 5B08     		lsrs	r3, r3, #1
 1295 0402 BB62     		str	r3, [r7, #40]
 1296              	.L46:
1211:Drivers/STM32L4xx_HAL_Driver/Src/stm32l4xx_hal_pcd.c ****       {
 1297              		.loc 1 1211 22
 1298 0404 BB6A     		ldr	r3, [r7, #40]
 1299 0406 002B     		cmp	r3, #0
 1300 0408 7FF465AF 		bne	.L54
 1301              	.L45:
1268:Drivers/STM32L4xx_HAL_Driver/Src/stm32l4xx_hal_pcd.c ****       }
1269:Drivers/STM32L4xx_HAL_Driver/Src/stm32l4xx_hal_pcd.c ****     }
ARM GAS  /tmp/ccFcOOzb.s 			page 46


1270:Drivers/STM32L4xx_HAL_Driver/Src/stm32l4xx_hal_pcd.c **** 
1271:Drivers/STM32L4xx_HAL_Driver/Src/stm32l4xx_hal_pcd.c ****     /* Handle Resume Interrupt */
1272:Drivers/STM32L4xx_HAL_Driver/Src/stm32l4xx_hal_pcd.c ****     if (__HAL_PCD_GET_FLAG(hpcd, USB_OTG_GINTSTS_WKUINT))
 1302              		.loc 1 1272 9
 1303 040c 7B68     		ldr	r3, [r7, #4]
 1304 040e 1B68     		ldr	r3, [r3]
 1305 0410 1846     		mov	r0, r3
 1306 0412 FFF7FEFF 		bl	USB_ReadInterrupts
 1307 0416 0346     		mov	r3, r0
 1308              		.loc 1 1272 9 is_stmt 0 discriminator 1
 1309 0418 03F00043 		and	r3, r3, #-2147483648
 1310              		.loc 1 1272 8 is_stmt 1 discriminator 1
 1311 041c B3F1004F 		cmp	r3, #-2147483648
 1312 0420 22D1     		bne	.L55
1273:Drivers/STM32L4xx_HAL_Driver/Src/stm32l4xx_hal_pcd.c ****     {
1274:Drivers/STM32L4xx_HAL_Driver/Src/stm32l4xx_hal_pcd.c ****       /* Clear the Remote Wake-up Signaling */
1275:Drivers/STM32L4xx_HAL_Driver/Src/stm32l4xx_hal_pcd.c ****       USBx_DEVICE->DCTL &= ~USB_OTG_DCTL_RWUSIG;
 1313              		.loc 1 1275 18
 1314 0422 FB69     		ldr	r3, [r7, #28]
 1315 0424 03F50063 		add	r3, r3, #2048
 1316 0428 5B68     		ldr	r3, [r3, #4]
 1317 042a FA69     		ldr	r2, [r7, #28]
 1318 042c 02F50062 		add	r2, r2, #2048
 1319              		.loc 1 1275 25
 1320 0430 23F00103 		bic	r3, r3, #1
 1321 0434 5360     		str	r3, [r2, #4]
1276:Drivers/STM32L4xx_HAL_Driver/Src/stm32l4xx_hal_pcd.c **** 
1277:Drivers/STM32L4xx_HAL_Driver/Src/stm32l4xx_hal_pcd.c ****       if (hpcd->LPM_State == LPM_L1)
 1322              		.loc 1 1277 15
 1323 0436 7B68     		ldr	r3, [r7, #4]
 1324 0438 93F8CC34 		ldrb	r3, [r3, #1228]	@ zero_extendqisi2
 1325              		.loc 1 1277 10
 1326 043c 012B     		cmp	r3, #1
 1327 043e 08D1     		bne	.L56
1278:Drivers/STM32L4xx_HAL_Driver/Src/stm32l4xx_hal_pcd.c ****       {
1279:Drivers/STM32L4xx_HAL_Driver/Src/stm32l4xx_hal_pcd.c ****         hpcd->LPM_State = LPM_L0;
 1328              		.loc 1 1279 25
 1329 0440 7B68     		ldr	r3, [r7, #4]
 1330 0442 0022     		movs	r2, #0
 1331 0444 83F8CC24 		strb	r2, [r3, #1228]
1280:Drivers/STM32L4xx_HAL_Driver/Src/stm32l4xx_hal_pcd.c **** 
1281:Drivers/STM32L4xx_HAL_Driver/Src/stm32l4xx_hal_pcd.c **** #if (USE_HAL_PCD_REGISTER_CALLBACKS == 1U)
1282:Drivers/STM32L4xx_HAL_Driver/Src/stm32l4xx_hal_pcd.c ****         hpcd->LPMCallback(hpcd, PCD_LPM_L0_ACTIVE);
1283:Drivers/STM32L4xx_HAL_Driver/Src/stm32l4xx_hal_pcd.c **** #else
1284:Drivers/STM32L4xx_HAL_Driver/Src/stm32l4xx_hal_pcd.c ****         HAL_PCDEx_LPM_Callback(hpcd, PCD_LPM_L0_ACTIVE);
 1332              		.loc 1 1284 9
 1333 0448 0021     		movs	r1, #0
 1334 044a 7868     		ldr	r0, [r7, #4]
 1335 044c FFF7FEFF 		bl	HAL_PCDEx_LPM_Callback
 1336 0450 02E0     		b	.L57
 1337              	.L56:
1285:Drivers/STM32L4xx_HAL_Driver/Src/stm32l4xx_hal_pcd.c **** #endif /* USE_HAL_PCD_REGISTER_CALLBACKS */
1286:Drivers/STM32L4xx_HAL_Driver/Src/stm32l4xx_hal_pcd.c ****       }
1287:Drivers/STM32L4xx_HAL_Driver/Src/stm32l4xx_hal_pcd.c ****       else
1288:Drivers/STM32L4xx_HAL_Driver/Src/stm32l4xx_hal_pcd.c ****       {
1289:Drivers/STM32L4xx_HAL_Driver/Src/stm32l4xx_hal_pcd.c **** #if (USE_HAL_PCD_REGISTER_CALLBACKS == 1U)
1290:Drivers/STM32L4xx_HAL_Driver/Src/stm32l4xx_hal_pcd.c ****         hpcd->ResumeCallback(hpcd);
ARM GAS  /tmp/ccFcOOzb.s 			page 47


1291:Drivers/STM32L4xx_HAL_Driver/Src/stm32l4xx_hal_pcd.c **** #else
1292:Drivers/STM32L4xx_HAL_Driver/Src/stm32l4xx_hal_pcd.c ****         HAL_PCD_ResumeCallback(hpcd);
 1338              		.loc 1 1292 9
 1339 0452 7868     		ldr	r0, [r7, #4]
 1340 0454 FFF7FEFF 		bl	HAL_PCD_ResumeCallback
 1341              	.L57:
1293:Drivers/STM32L4xx_HAL_Driver/Src/stm32l4xx_hal_pcd.c **** #endif /* USE_HAL_PCD_REGISTER_CALLBACKS */
1294:Drivers/STM32L4xx_HAL_Driver/Src/stm32l4xx_hal_pcd.c ****       }
1295:Drivers/STM32L4xx_HAL_Driver/Src/stm32l4xx_hal_pcd.c **** 
1296:Drivers/STM32L4xx_HAL_Driver/Src/stm32l4xx_hal_pcd.c ****       __HAL_PCD_CLEAR_FLAG(hpcd, USB_OTG_GINTSTS_WKUINT);
 1342              		.loc 1 1296 7
 1343 0458 7B68     		ldr	r3, [r7, #4]
 1344 045a 1B68     		ldr	r3, [r3]
 1345 045c 5A69     		ldr	r2, [r3, #20]
 1346 045e 7B68     		ldr	r3, [r7, #4]
 1347 0460 1B68     		ldr	r3, [r3]
 1348 0462 02F00042 		and	r2, r2, #-2147483648
 1349 0466 5A61     		str	r2, [r3, #20]
 1350              	.L55:
1297:Drivers/STM32L4xx_HAL_Driver/Src/stm32l4xx_hal_pcd.c ****     }
1298:Drivers/STM32L4xx_HAL_Driver/Src/stm32l4xx_hal_pcd.c **** 
1299:Drivers/STM32L4xx_HAL_Driver/Src/stm32l4xx_hal_pcd.c ****     /* Handle Suspend Interrupt */
1300:Drivers/STM32L4xx_HAL_Driver/Src/stm32l4xx_hal_pcd.c ****     if (__HAL_PCD_GET_FLAG(hpcd, USB_OTG_GINTSTS_USBSUSP))
 1351              		.loc 1 1300 9
 1352 0468 7B68     		ldr	r3, [r7, #4]
 1353 046a 1B68     		ldr	r3, [r3]
 1354 046c 1846     		mov	r0, r3
 1355 046e FFF7FEFF 		bl	USB_ReadInterrupts
 1356 0472 0346     		mov	r3, r0
 1357              		.loc 1 1300 9 is_stmt 0 discriminator 1
 1358 0474 03F40063 		and	r3, r3, #2048
 1359              		.loc 1 1300 8 is_stmt 1 discriminator 1
 1360 0478 B3F5006F 		cmp	r3, #2048
 1361 047c 12D1     		bne	.L58
1301:Drivers/STM32L4xx_HAL_Driver/Src/stm32l4xx_hal_pcd.c ****     {
1302:Drivers/STM32L4xx_HAL_Driver/Src/stm32l4xx_hal_pcd.c ****       if ((USBx_DEVICE->DSTS & USB_OTG_DSTS_SUSPSTS) == USB_OTG_DSTS_SUSPSTS)
 1362              		.loc 1 1302 12
 1363 047e FB69     		ldr	r3, [r7, #28]
 1364 0480 03F50063 		add	r3, r3, #2048
 1365              		.loc 1 1302 23
 1366 0484 9B68     		ldr	r3, [r3, #8]
 1367              		.loc 1 1302 30
 1368 0486 03F00103 		and	r3, r3, #1
 1369              		.loc 1 1302 10
 1370 048a 012B     		cmp	r3, #1
 1371 048c 02D1     		bne	.L59
1303:Drivers/STM32L4xx_HAL_Driver/Src/stm32l4xx_hal_pcd.c ****       {
1304:Drivers/STM32L4xx_HAL_Driver/Src/stm32l4xx_hal_pcd.c **** #if (USE_HAL_PCD_REGISTER_CALLBACKS == 1U)
1305:Drivers/STM32L4xx_HAL_Driver/Src/stm32l4xx_hal_pcd.c ****         hpcd->SuspendCallback(hpcd);
1306:Drivers/STM32L4xx_HAL_Driver/Src/stm32l4xx_hal_pcd.c **** #else
1307:Drivers/STM32L4xx_HAL_Driver/Src/stm32l4xx_hal_pcd.c ****         HAL_PCD_SuspendCallback(hpcd);
 1372              		.loc 1 1307 9
 1373 048e 7868     		ldr	r0, [r7, #4]
 1374 0490 FFF7FEFF 		bl	HAL_PCD_SuspendCallback
 1375              	.L59:
1308:Drivers/STM32L4xx_HAL_Driver/Src/stm32l4xx_hal_pcd.c **** #endif /* USE_HAL_PCD_REGISTER_CALLBACKS */
1309:Drivers/STM32L4xx_HAL_Driver/Src/stm32l4xx_hal_pcd.c ****       }
ARM GAS  /tmp/ccFcOOzb.s 			page 48


1310:Drivers/STM32L4xx_HAL_Driver/Src/stm32l4xx_hal_pcd.c ****       __HAL_PCD_CLEAR_FLAG(hpcd, USB_OTG_GINTSTS_USBSUSP);
 1376              		.loc 1 1310 7
 1377 0494 7B68     		ldr	r3, [r7, #4]
 1378 0496 1B68     		ldr	r3, [r3]
 1379 0498 5A69     		ldr	r2, [r3, #20]
 1380 049a 7B68     		ldr	r3, [r7, #4]
 1381 049c 1B68     		ldr	r3, [r3]
 1382 049e 02F40062 		and	r2, r2, #2048
 1383 04a2 5A61     		str	r2, [r3, #20]
 1384              	.L58:
1311:Drivers/STM32L4xx_HAL_Driver/Src/stm32l4xx_hal_pcd.c ****     }
1312:Drivers/STM32L4xx_HAL_Driver/Src/stm32l4xx_hal_pcd.c **** 
1313:Drivers/STM32L4xx_HAL_Driver/Src/stm32l4xx_hal_pcd.c ****     /* Handle LPM Interrupt */
1314:Drivers/STM32L4xx_HAL_Driver/Src/stm32l4xx_hal_pcd.c ****     if (__HAL_PCD_GET_FLAG(hpcd, USB_OTG_GINTSTS_LPMINT))
 1385              		.loc 1 1314 9
 1386 04a4 7B68     		ldr	r3, [r7, #4]
 1387 04a6 1B68     		ldr	r3, [r3]
 1388 04a8 1846     		mov	r0, r3
 1389 04aa FFF7FEFF 		bl	USB_ReadInterrupts
 1390 04ae 0346     		mov	r3, r0
 1391              		.loc 1 1314 9 is_stmt 0 discriminator 1
 1392 04b0 03F00063 		and	r3, r3, #134217728
 1393              		.loc 1 1314 8 is_stmt 1 discriminator 1
 1394 04b4 B3F1006F 		cmp	r3, #134217728
 1395 04b8 21D1     		bne	.L60
1315:Drivers/STM32L4xx_HAL_Driver/Src/stm32l4xx_hal_pcd.c ****     {
1316:Drivers/STM32L4xx_HAL_Driver/Src/stm32l4xx_hal_pcd.c ****       __HAL_PCD_CLEAR_FLAG(hpcd, USB_OTG_GINTSTS_LPMINT);
 1396              		.loc 1 1316 7
 1397 04ba 7B68     		ldr	r3, [r7, #4]
 1398 04bc 1B68     		ldr	r3, [r3]
 1399 04be 5A69     		ldr	r2, [r3, #20]
 1400 04c0 7B68     		ldr	r3, [r7, #4]
 1401 04c2 1B68     		ldr	r3, [r3]
 1402 04c4 02F00062 		and	r2, r2, #134217728
 1403 04c8 5A61     		str	r2, [r3, #20]
1317:Drivers/STM32L4xx_HAL_Driver/Src/stm32l4xx_hal_pcd.c **** 
1318:Drivers/STM32L4xx_HAL_Driver/Src/stm32l4xx_hal_pcd.c ****       if (hpcd->LPM_State == LPM_L0)
 1404              		.loc 1 1318 15
 1405 04ca 7B68     		ldr	r3, [r7, #4]
 1406 04cc 93F8CC34 		ldrb	r3, [r3, #1228]	@ zero_extendqisi2
 1407              		.loc 1 1318 10
 1408 04d0 002B     		cmp	r3, #0
 1409 04d2 11D1     		bne	.L61
1319:Drivers/STM32L4xx_HAL_Driver/Src/stm32l4xx_hal_pcd.c ****       {
1320:Drivers/STM32L4xx_HAL_Driver/Src/stm32l4xx_hal_pcd.c ****         hpcd->LPM_State = LPM_L1;
 1410              		.loc 1 1320 25
 1411 04d4 7B68     		ldr	r3, [r7, #4]
 1412 04d6 0122     		movs	r2, #1
 1413 04d8 83F8CC24 		strb	r2, [r3, #1228]
1321:Drivers/STM32L4xx_HAL_Driver/Src/stm32l4xx_hal_pcd.c ****         hpcd->BESL = (hpcd->Instance->GLPMCFG & USB_OTG_GLPMCFG_BESL) >> 2U;
 1414              		.loc 1 1321 27
 1415 04dc 7B68     		ldr	r3, [r7, #4]
 1416 04de 1B68     		ldr	r3, [r3]
 1417              		.loc 1 1321 37
 1418 04e0 5B6D     		ldr	r3, [r3, #84]
 1419              		.loc 1 1321 71
 1420 04e2 9B08     		lsrs	r3, r3, #2
ARM GAS  /tmp/ccFcOOzb.s 			page 49


 1421 04e4 03F00F02 		and	r2, r3, #15
 1422              		.loc 1 1321 20
 1423 04e8 7B68     		ldr	r3, [r7, #4]
 1424 04ea C3F8D024 		str	r2, [r3, #1232]
1322:Drivers/STM32L4xx_HAL_Driver/Src/stm32l4xx_hal_pcd.c **** 
1323:Drivers/STM32L4xx_HAL_Driver/Src/stm32l4xx_hal_pcd.c **** #if (USE_HAL_PCD_REGISTER_CALLBACKS == 1U)
1324:Drivers/STM32L4xx_HAL_Driver/Src/stm32l4xx_hal_pcd.c ****         hpcd->LPMCallback(hpcd, PCD_LPM_L1_ACTIVE);
1325:Drivers/STM32L4xx_HAL_Driver/Src/stm32l4xx_hal_pcd.c **** #else
1326:Drivers/STM32L4xx_HAL_Driver/Src/stm32l4xx_hal_pcd.c ****         HAL_PCDEx_LPM_Callback(hpcd, PCD_LPM_L1_ACTIVE);
 1425              		.loc 1 1326 9
 1426 04ee 0121     		movs	r1, #1
 1427 04f0 7868     		ldr	r0, [r7, #4]
 1428 04f2 FFF7FEFF 		bl	HAL_PCDEx_LPM_Callback
 1429 04f6 02E0     		b	.L60
 1430              	.L61:
1327:Drivers/STM32L4xx_HAL_Driver/Src/stm32l4xx_hal_pcd.c **** #endif /* USE_HAL_PCD_REGISTER_CALLBACKS */
1328:Drivers/STM32L4xx_HAL_Driver/Src/stm32l4xx_hal_pcd.c ****       }
1329:Drivers/STM32L4xx_HAL_Driver/Src/stm32l4xx_hal_pcd.c ****       else
1330:Drivers/STM32L4xx_HAL_Driver/Src/stm32l4xx_hal_pcd.c ****       {
1331:Drivers/STM32L4xx_HAL_Driver/Src/stm32l4xx_hal_pcd.c **** #if (USE_HAL_PCD_REGISTER_CALLBACKS == 1U)
1332:Drivers/STM32L4xx_HAL_Driver/Src/stm32l4xx_hal_pcd.c ****         hpcd->SuspendCallback(hpcd);
1333:Drivers/STM32L4xx_HAL_Driver/Src/stm32l4xx_hal_pcd.c **** #else
1334:Drivers/STM32L4xx_HAL_Driver/Src/stm32l4xx_hal_pcd.c ****         HAL_PCD_SuspendCallback(hpcd);
 1431              		.loc 1 1334 9
 1432 04f8 7868     		ldr	r0, [r7, #4]
 1433 04fa FFF7FEFF 		bl	HAL_PCD_SuspendCallback
 1434              	.L60:
1335:Drivers/STM32L4xx_HAL_Driver/Src/stm32l4xx_hal_pcd.c **** #endif /* USE_HAL_PCD_REGISTER_CALLBACKS */
1336:Drivers/STM32L4xx_HAL_Driver/Src/stm32l4xx_hal_pcd.c ****       }
1337:Drivers/STM32L4xx_HAL_Driver/Src/stm32l4xx_hal_pcd.c ****     }
1338:Drivers/STM32L4xx_HAL_Driver/Src/stm32l4xx_hal_pcd.c **** 
1339:Drivers/STM32L4xx_HAL_Driver/Src/stm32l4xx_hal_pcd.c ****     /* Handle Reset Interrupt */
1340:Drivers/STM32L4xx_HAL_Driver/Src/stm32l4xx_hal_pcd.c ****     if (__HAL_PCD_GET_FLAG(hpcd, USB_OTG_GINTSTS_USBRST))
 1435              		.loc 1 1340 9
 1436 04fe 7B68     		ldr	r3, [r7, #4]
 1437 0500 1B68     		ldr	r3, [r3]
 1438 0502 1846     		mov	r0, r3
 1439 0504 FFF7FEFF 		bl	USB_ReadInterrupts
 1440 0508 0346     		mov	r3, r0
 1441              		.loc 1 1340 9 is_stmt 0 discriminator 1
 1442 050a 03F48053 		and	r3, r3, #4096
 1443              		.loc 1 1340 8 is_stmt 1 discriminator 1
 1444 050e B3F5805F 		cmp	r3, #4096
 1445 0512 40F0B680 		bne	.L62
1341:Drivers/STM32L4xx_HAL_Driver/Src/stm32l4xx_hal_pcd.c ****     {
1342:Drivers/STM32L4xx_HAL_Driver/Src/stm32l4xx_hal_pcd.c ****       USBx_DEVICE->DCTL &= ~USB_OTG_DCTL_RWUSIG;
 1446              		.loc 1 1342 18
 1447 0516 FB69     		ldr	r3, [r7, #28]
 1448 0518 03F50063 		add	r3, r3, #2048
 1449 051c 5B68     		ldr	r3, [r3, #4]
 1450 051e FA69     		ldr	r2, [r7, #28]
 1451 0520 02F50062 		add	r2, r2, #2048
 1452              		.loc 1 1342 25
 1453 0524 23F00103 		bic	r3, r3, #1
 1454 0528 5360     		str	r3, [r2, #4]
1343:Drivers/STM32L4xx_HAL_Driver/Src/stm32l4xx_hal_pcd.c ****       (void)USB_FlushTxFifo(hpcd->Instance, 0x10U);
 1455              		.loc 1 1343 33
ARM GAS  /tmp/ccFcOOzb.s 			page 50


 1456 052a 7B68     		ldr	r3, [r7, #4]
 1457 052c 1B68     		ldr	r3, [r3]
 1458              		.loc 1 1343 13
 1459 052e 1021     		movs	r1, #16
 1460 0530 1846     		mov	r0, r3
 1461 0532 FFF7FEFF 		bl	USB_FlushTxFifo
1344:Drivers/STM32L4xx_HAL_Driver/Src/stm32l4xx_hal_pcd.c **** 
1345:Drivers/STM32L4xx_HAL_Driver/Src/stm32l4xx_hal_pcd.c ****       for (i = 0U; i < hpcd->Init.dev_endpoints; i++)
 1462              		.loc 1 1345 14
 1463 0536 0023     		movs	r3, #0
 1464 0538 FB62     		str	r3, [r7, #44]
 1465              		.loc 1 1345 7
 1466 053a 46E0     		b	.L63
 1467              	.L64:
1346:Drivers/STM32L4xx_HAL_Driver/Src/stm32l4xx_hal_pcd.c ****       {
1347:Drivers/STM32L4xx_HAL_Driver/Src/stm32l4xx_hal_pcd.c ****         USBx_INEP(i)->DIEPINT = 0xFB7FU;
 1468              		.loc 1 1347 9
 1469 053c FB6A     		ldr	r3, [r7, #44]
 1470 053e 5A01     		lsls	r2, r3, #5
 1471 0540 FB69     		ldr	r3, [r7, #28]
 1472 0542 1344     		add	r3, r3, r2
 1473 0544 03F51063 		add	r3, r3, #2304
 1474 0548 1A46     		mov	r2, r3
 1475              		.loc 1 1347 31
 1476 054a 4FF67F33 		movw	r3, #64383
 1477 054e 9360     		str	r3, [r2, #8]
1348:Drivers/STM32L4xx_HAL_Driver/Src/stm32l4xx_hal_pcd.c ****         USBx_INEP(i)->DIEPCTL &= ~USB_OTG_DIEPCTL_STALL;
 1478              		.loc 1 1348 21
 1479 0550 FB6A     		ldr	r3, [r7, #44]
 1480 0552 5A01     		lsls	r2, r3, #5
 1481 0554 FB69     		ldr	r3, [r7, #28]
 1482 0556 1344     		add	r3, r3, r2
 1483 0558 03F51063 		add	r3, r3, #2304
 1484 055c 1B68     		ldr	r3, [r3]
 1485 055e FA6A     		ldr	r2, [r7, #44]
 1486 0560 5101     		lsls	r1, r2, #5
 1487 0562 FA69     		ldr	r2, [r7, #28]
 1488 0564 0A44     		add	r2, r2, r1
 1489 0566 02F51062 		add	r2, r2, #2304
 1490              		.loc 1 1348 31
 1491 056a 23F40013 		bic	r3, r3, #2097152
 1492 056e 1360     		str	r3, [r2]
1349:Drivers/STM32L4xx_HAL_Driver/Src/stm32l4xx_hal_pcd.c ****         USBx_OUTEP(i)->DOEPINT = 0xFB7FU;
 1493              		.loc 1 1349 9
 1494 0570 FB6A     		ldr	r3, [r7, #44]
 1495 0572 5A01     		lsls	r2, r3, #5
 1496 0574 FB69     		ldr	r3, [r7, #28]
 1497 0576 1344     		add	r3, r3, r2
 1498 0578 03F53063 		add	r3, r3, #2816
 1499 057c 1A46     		mov	r2, r3
 1500              		.loc 1 1349 32
 1501 057e 4FF67F33 		movw	r3, #64383
 1502 0582 9360     		str	r3, [r2, #8]
1350:Drivers/STM32L4xx_HAL_Driver/Src/stm32l4xx_hal_pcd.c ****         USBx_OUTEP(i)->DOEPCTL &= ~USB_OTG_DOEPCTL_STALL;
 1503              		.loc 1 1350 22
 1504 0584 FB6A     		ldr	r3, [r7, #44]
 1505 0586 5A01     		lsls	r2, r3, #5
ARM GAS  /tmp/ccFcOOzb.s 			page 51


 1506 0588 FB69     		ldr	r3, [r7, #28]
 1507 058a 1344     		add	r3, r3, r2
 1508 058c 03F53063 		add	r3, r3, #2816
 1509 0590 1B68     		ldr	r3, [r3]
 1510 0592 FA6A     		ldr	r2, [r7, #44]
 1511 0594 5101     		lsls	r1, r2, #5
 1512 0596 FA69     		ldr	r2, [r7, #28]
 1513 0598 0A44     		add	r2, r2, r1
 1514 059a 02F53062 		add	r2, r2, #2816
 1515              		.loc 1 1350 32
 1516 059e 23F40013 		bic	r3, r3, #2097152
 1517 05a2 1360     		str	r3, [r2]
1351:Drivers/STM32L4xx_HAL_Driver/Src/stm32l4xx_hal_pcd.c ****         USBx_OUTEP(i)->DOEPCTL |= USB_OTG_DOEPCTL_SNAK;
 1518              		.loc 1 1351 22
 1519 05a4 FB6A     		ldr	r3, [r7, #44]
 1520 05a6 5A01     		lsls	r2, r3, #5
 1521 05a8 FB69     		ldr	r3, [r7, #28]
 1522 05aa 1344     		add	r3, r3, r2
 1523 05ac 03F53063 		add	r3, r3, #2816
 1524 05b0 1B68     		ldr	r3, [r3]
 1525 05b2 FA6A     		ldr	r2, [r7, #44]
 1526 05b4 5101     		lsls	r1, r2, #5
 1527 05b6 FA69     		ldr	r2, [r7, #28]
 1528 05b8 0A44     		add	r2, r2, r1
 1529 05ba 02F53062 		add	r2, r2, #2816
 1530              		.loc 1 1351 32
 1531 05be 43F00063 		orr	r3, r3, #134217728
 1532 05c2 1360     		str	r3, [r2]
1345:Drivers/STM32L4xx_HAL_Driver/Src/stm32l4xx_hal_pcd.c ****       {
 1533              		.loc 1 1345 51 discriminator 3
 1534 05c4 FB6A     		ldr	r3, [r7, #44]
 1535 05c6 0133     		adds	r3, r3, #1
 1536 05c8 FB62     		str	r3, [r7, #44]
 1537              	.L63:
1345:Drivers/STM32L4xx_HAL_Driver/Src/stm32l4xx_hal_pcd.c ****       {
 1538              		.loc 1 1345 34 discriminator 1
 1539 05ca 7B68     		ldr	r3, [r7, #4]
 1540 05cc 1B79     		ldrb	r3, [r3, #4]	@ zero_extendqisi2
 1541 05ce 1A46     		mov	r2, r3
1345:Drivers/STM32L4xx_HAL_Driver/Src/stm32l4xx_hal_pcd.c ****       {
 1542              		.loc 1 1345 22 discriminator 1
 1543 05d0 FB6A     		ldr	r3, [r7, #44]
 1544 05d2 9342     		cmp	r3, r2
 1545 05d4 B2D3     		bcc	.L64
1352:Drivers/STM32L4xx_HAL_Driver/Src/stm32l4xx_hal_pcd.c ****       }
1353:Drivers/STM32L4xx_HAL_Driver/Src/stm32l4xx_hal_pcd.c ****       USBx_DEVICE->DAINTMSK |= 0x10001U;
 1546              		.loc 1 1353 18
 1547 05d6 FB69     		ldr	r3, [r7, #28]
 1548 05d8 03F50063 		add	r3, r3, #2048
 1549 05dc DB69     		ldr	r3, [r3, #28]
 1550 05de FA69     		ldr	r2, [r7, #28]
 1551 05e0 02F50062 		add	r2, r2, #2048
 1552              		.loc 1 1353 29
 1553 05e4 43F00113 		orr	r3, r3, #65537
 1554 05e8 D361     		str	r3, [r2, #28]
1354:Drivers/STM32L4xx_HAL_Driver/Src/stm32l4xx_hal_pcd.c **** 
1355:Drivers/STM32L4xx_HAL_Driver/Src/stm32l4xx_hal_pcd.c ****       if (hpcd->Init.use_dedicated_ep1 != 0U)
ARM GAS  /tmp/ccFcOOzb.s 			page 52


 1555              		.loc 1 1355 21
 1556 05ea 7B68     		ldr	r3, [r7, #4]
 1557 05ec DB7B     		ldrb	r3, [r3, #15]	@ zero_extendqisi2
 1558              		.loc 1 1355 10
 1559 05ee 002B     		cmp	r3, #0
 1560 05f0 16D0     		beq	.L65
1356:Drivers/STM32L4xx_HAL_Driver/Src/stm32l4xx_hal_pcd.c ****       {
1357:Drivers/STM32L4xx_HAL_Driver/Src/stm32l4xx_hal_pcd.c ****         USBx_DEVICE->DOUTEP1MSK |= USB_OTG_DOEPMSK_STUPM |
 1561              		.loc 1 1357 20
 1562 05f2 FB69     		ldr	r3, [r7, #28]
 1563 05f4 03F50063 		add	r3, r3, #2048
 1564 05f8 D3F88430 		ldr	r3, [r3, #132]
 1565 05fc FA69     		ldr	r2, [r7, #28]
 1566 05fe 02F50062 		add	r2, r2, #2048
 1567              		.loc 1 1357 33
 1568 0602 43F00B03 		orr	r3, r3, #11
 1569 0606 C2F88430 		str	r3, [r2, #132]
1358:Drivers/STM32L4xx_HAL_Driver/Src/stm32l4xx_hal_pcd.c ****                                    USB_OTG_DOEPMSK_XFRCM |
1359:Drivers/STM32L4xx_HAL_Driver/Src/stm32l4xx_hal_pcd.c ****                                    USB_OTG_DOEPMSK_EPDM;
1360:Drivers/STM32L4xx_HAL_Driver/Src/stm32l4xx_hal_pcd.c **** 
1361:Drivers/STM32L4xx_HAL_Driver/Src/stm32l4xx_hal_pcd.c ****         USBx_DEVICE->DINEP1MSK |= USB_OTG_DIEPMSK_TOM |
 1570              		.loc 1 1361 20
 1571 060a FB69     		ldr	r3, [r7, #28]
 1572 060c 03F50063 		add	r3, r3, #2048
 1573 0610 5B6C     		ldr	r3, [r3, #68]
 1574 0612 FA69     		ldr	r2, [r7, #28]
 1575 0614 02F50062 		add	r2, r2, #2048
 1576              		.loc 1 1361 32
 1577 0618 43F00B03 		orr	r3, r3, #11
 1578 061c 5364     		str	r3, [r2, #68]
 1579 061e 15E0     		b	.L66
 1580              	.L65:
1362:Drivers/STM32L4xx_HAL_Driver/Src/stm32l4xx_hal_pcd.c ****                                   USB_OTG_DIEPMSK_XFRCM |
1363:Drivers/STM32L4xx_HAL_Driver/Src/stm32l4xx_hal_pcd.c ****                                   USB_OTG_DIEPMSK_EPDM;
1364:Drivers/STM32L4xx_HAL_Driver/Src/stm32l4xx_hal_pcd.c ****       }
1365:Drivers/STM32L4xx_HAL_Driver/Src/stm32l4xx_hal_pcd.c ****       else
1366:Drivers/STM32L4xx_HAL_Driver/Src/stm32l4xx_hal_pcd.c ****       {
1367:Drivers/STM32L4xx_HAL_Driver/Src/stm32l4xx_hal_pcd.c ****         USBx_DEVICE->DOEPMSK |= USB_OTG_DOEPMSK_STUPM |
 1581              		.loc 1 1367 20
 1582 0620 FB69     		ldr	r3, [r7, #28]
 1583 0622 03F50063 		add	r3, r3, #2048
 1584 0626 5B69     		ldr	r3, [r3, #20]
 1585 0628 FA69     		ldr	r2, [r7, #28]
 1586 062a 02F50062 		add	r2, r2, #2048
 1587              		.loc 1 1367 30
 1588 062e 43F40053 		orr	r3, r3, #8192
 1589 0632 43F02B03 		orr	r3, r3, #43
 1590 0636 5361     		str	r3, [r2, #20]
1368:Drivers/STM32L4xx_HAL_Driver/Src/stm32l4xx_hal_pcd.c ****                                 USB_OTG_DOEPMSK_XFRCM |
1369:Drivers/STM32L4xx_HAL_Driver/Src/stm32l4xx_hal_pcd.c ****                                 USB_OTG_DOEPMSK_EPDM |
1370:Drivers/STM32L4xx_HAL_Driver/Src/stm32l4xx_hal_pcd.c ****                                 USB_OTG_DOEPMSK_OTEPSPRM |
1371:Drivers/STM32L4xx_HAL_Driver/Src/stm32l4xx_hal_pcd.c ****                                 USB_OTG_DOEPMSK_NAKM;
1372:Drivers/STM32L4xx_HAL_Driver/Src/stm32l4xx_hal_pcd.c **** 
1373:Drivers/STM32L4xx_HAL_Driver/Src/stm32l4xx_hal_pcd.c ****         USBx_DEVICE->DIEPMSK |= USB_OTG_DIEPMSK_TOM |
 1591              		.loc 1 1373 20
 1592 0638 FB69     		ldr	r3, [r7, #28]
 1593 063a 03F50063 		add	r3, r3, #2048
ARM GAS  /tmp/ccFcOOzb.s 			page 53


 1594 063e 1B69     		ldr	r3, [r3, #16]
 1595 0640 FA69     		ldr	r2, [r7, #28]
 1596 0642 02F50062 		add	r2, r2, #2048
 1597              		.loc 1 1373 30
 1598 0646 43F00B03 		orr	r3, r3, #11
 1599 064a 1361     		str	r3, [r2, #16]
 1600              	.L66:
1374:Drivers/STM32L4xx_HAL_Driver/Src/stm32l4xx_hal_pcd.c ****                                 USB_OTG_DIEPMSK_XFRCM |
1375:Drivers/STM32L4xx_HAL_Driver/Src/stm32l4xx_hal_pcd.c ****                                 USB_OTG_DIEPMSK_EPDM;
1376:Drivers/STM32L4xx_HAL_Driver/Src/stm32l4xx_hal_pcd.c ****       }
1377:Drivers/STM32L4xx_HAL_Driver/Src/stm32l4xx_hal_pcd.c **** 
1378:Drivers/STM32L4xx_HAL_Driver/Src/stm32l4xx_hal_pcd.c ****       /* Set Default Address to 0 */
1379:Drivers/STM32L4xx_HAL_Driver/Src/stm32l4xx_hal_pcd.c ****       USBx_DEVICE->DCFG &= ~USB_OTG_DCFG_DAD;
 1601              		.loc 1 1379 18
 1602 064c FB69     		ldr	r3, [r7, #28]
 1603 064e 03F50063 		add	r3, r3, #2048
 1604 0652 1B68     		ldr	r3, [r3]
 1605 0654 FA69     		ldr	r2, [r7, #28]
 1606 0656 02F50062 		add	r2, r2, #2048
 1607              		.loc 1 1379 25
 1608 065a 23F4FE63 		bic	r3, r3, #2032
 1609 065e 1360     		str	r3, [r2]
1380:Drivers/STM32L4xx_HAL_Driver/Src/stm32l4xx_hal_pcd.c **** 
1381:Drivers/STM32L4xx_HAL_Driver/Src/stm32l4xx_hal_pcd.c ****       /* setup EP0 to receive SETUP packets */
1382:Drivers/STM32L4xx_HAL_Driver/Src/stm32l4xx_hal_pcd.c ****       (void)USB_EP0_OutStart(hpcd->Instance, (uint8_t *)hpcd->Setup);
 1610              		.loc 1 1382 34
 1611 0660 7B68     		ldr	r3, [r7, #4]
 1612 0662 1A68     		ldr	r2, [r3]
 1613              		.loc 1 1382 57
 1614 0664 7B68     		ldr	r3, [r7, #4]
 1615 0666 03F29C43 		addw	r3, r3, #1180
 1616              		.loc 1 1382 13
 1617 066a 1946     		mov	r1, r3
 1618 066c 1046     		mov	r0, r2
 1619 066e FFF7FEFF 		bl	USB_EP0_OutStart
1383:Drivers/STM32L4xx_HAL_Driver/Src/stm32l4xx_hal_pcd.c **** 
1384:Drivers/STM32L4xx_HAL_Driver/Src/stm32l4xx_hal_pcd.c ****       __HAL_PCD_CLEAR_FLAG(hpcd, USB_OTG_GINTSTS_USBRST);
 1620              		.loc 1 1384 7
 1621 0672 7B68     		ldr	r3, [r7, #4]
 1622 0674 1B68     		ldr	r3, [r3]
 1623 0676 5A69     		ldr	r2, [r3, #20]
 1624 0678 7B68     		ldr	r3, [r7, #4]
 1625 067a 1B68     		ldr	r3, [r3]
 1626 067c 02F48052 		and	r2, r2, #4096
 1627 0680 5A61     		str	r2, [r3, #20]
 1628              	.L62:
1385:Drivers/STM32L4xx_HAL_Driver/Src/stm32l4xx_hal_pcd.c ****     }
1386:Drivers/STM32L4xx_HAL_Driver/Src/stm32l4xx_hal_pcd.c **** 
1387:Drivers/STM32L4xx_HAL_Driver/Src/stm32l4xx_hal_pcd.c ****     /* Handle Enumeration done Interrupt */
1388:Drivers/STM32L4xx_HAL_Driver/Src/stm32l4xx_hal_pcd.c ****     if (__HAL_PCD_GET_FLAG(hpcd, USB_OTG_GINTSTS_ENUMDNE))
 1629              		.loc 1 1388 9
 1630 0682 7B68     		ldr	r3, [r7, #4]
 1631 0684 1B68     		ldr	r3, [r3]
 1632 0686 1846     		mov	r0, r3
 1633 0688 FFF7FEFF 		bl	USB_ReadInterrupts
 1634 068c 0346     		mov	r3, r0
 1635              		.loc 1 1388 9 is_stmt 0 discriminator 1
ARM GAS  /tmp/ccFcOOzb.s 			page 54


 1636 068e 03F40053 		and	r3, r3, #8192
 1637              		.loc 1 1388 8 is_stmt 1 discriminator 1
 1638 0692 B3F5005F 		cmp	r3, #8192
 1639 0696 23D1     		bne	.L67
1389:Drivers/STM32L4xx_HAL_Driver/Src/stm32l4xx_hal_pcd.c ****     {
1390:Drivers/STM32L4xx_HAL_Driver/Src/stm32l4xx_hal_pcd.c ****       (void)USB_ActivateSetup(hpcd->Instance);
 1640              		.loc 1 1390 35
 1641 0698 7B68     		ldr	r3, [r7, #4]
 1642 069a 1B68     		ldr	r3, [r3]
 1643              		.loc 1 1390 13
 1644 069c 1846     		mov	r0, r3
 1645 069e FFF7FEFF 		bl	USB_ActivateSetup
1391:Drivers/STM32L4xx_HAL_Driver/Src/stm32l4xx_hal_pcd.c ****       hpcd->Init.speed = USB_GetDevSpeed(hpcd->Instance);
 1646              		.loc 1 1391 46
 1647 06a2 7B68     		ldr	r3, [r7, #4]
 1648 06a4 1B68     		ldr	r3, [r3]
 1649              		.loc 1 1391 26
 1650 06a6 1846     		mov	r0, r3
 1651 06a8 FFF7FEFF 		bl	USB_GetDevSpeed
 1652 06ac 0346     		mov	r3, r0
 1653 06ae 1A46     		mov	r2, r3
 1654              		.loc 1 1391 24 discriminator 1
 1655 06b0 7B68     		ldr	r3, [r7, #4]
 1656 06b2 DA71     		strb	r2, [r3, #7]
1392:Drivers/STM32L4xx_HAL_Driver/Src/stm32l4xx_hal_pcd.c **** 
1393:Drivers/STM32L4xx_HAL_Driver/Src/stm32l4xx_hal_pcd.c ****       /* Set USB Turnaround time */
1394:Drivers/STM32L4xx_HAL_Driver/Src/stm32l4xx_hal_pcd.c ****       (void)USB_SetTurnaroundTime(hpcd->Instance,
 1657              		.loc 1 1394 39
 1658 06b4 7B68     		ldr	r3, [r7, #4]
 1659 06b6 1C68     		ldr	r4, [r3]
 1660              		.loc 1 1394 13
 1661 06b8 FFF7FEFF 		bl	HAL_RCC_GetHCLKFreq
 1662 06bc 0146     		mov	r1, r0
1395:Drivers/STM32L4xx_HAL_Driver/Src/stm32l4xx_hal_pcd.c ****                                   HAL_RCC_GetHCLKFreq(),
1396:Drivers/STM32L4xx_HAL_Driver/Src/stm32l4xx_hal_pcd.c ****                                   (uint8_t)hpcd->Init.speed);
 1663              		.loc 1 1396 54
 1664 06be 7B68     		ldr	r3, [r7, #4]
 1665 06c0 DB79     		ldrb	r3, [r3, #7]	@ zero_extendqisi2
1394:Drivers/STM32L4xx_HAL_Driver/Src/stm32l4xx_hal_pcd.c ****                                   HAL_RCC_GetHCLKFreq(),
 1666              		.loc 1 1394 13
 1667 06c2 1A46     		mov	r2, r3
 1668 06c4 2046     		mov	r0, r4
 1669 06c6 FFF7FEFF 		bl	USB_SetTurnaroundTime
1397:Drivers/STM32L4xx_HAL_Driver/Src/stm32l4xx_hal_pcd.c **** 
1398:Drivers/STM32L4xx_HAL_Driver/Src/stm32l4xx_hal_pcd.c **** #if (USE_HAL_PCD_REGISTER_CALLBACKS == 1U)
1399:Drivers/STM32L4xx_HAL_Driver/Src/stm32l4xx_hal_pcd.c ****       hpcd->ResetCallback(hpcd);
1400:Drivers/STM32L4xx_HAL_Driver/Src/stm32l4xx_hal_pcd.c **** #else
1401:Drivers/STM32L4xx_HAL_Driver/Src/stm32l4xx_hal_pcd.c ****       HAL_PCD_ResetCallback(hpcd);
 1670              		.loc 1 1401 7
 1671 06ca 7868     		ldr	r0, [r7, #4]
 1672 06cc FFF7FEFF 		bl	HAL_PCD_ResetCallback
1402:Drivers/STM32L4xx_HAL_Driver/Src/stm32l4xx_hal_pcd.c **** #endif /* USE_HAL_PCD_REGISTER_CALLBACKS */
1403:Drivers/STM32L4xx_HAL_Driver/Src/stm32l4xx_hal_pcd.c **** 
1404:Drivers/STM32L4xx_HAL_Driver/Src/stm32l4xx_hal_pcd.c ****       __HAL_PCD_CLEAR_FLAG(hpcd, USB_OTG_GINTSTS_ENUMDNE);
 1673              		.loc 1 1404 7
 1674 06d0 7B68     		ldr	r3, [r7, #4]
 1675 06d2 1B68     		ldr	r3, [r3]
ARM GAS  /tmp/ccFcOOzb.s 			page 55


 1676 06d4 5A69     		ldr	r2, [r3, #20]
 1677 06d6 7B68     		ldr	r3, [r7, #4]
 1678 06d8 1B68     		ldr	r3, [r3]
 1679 06da 02F40052 		and	r2, r2, #8192
 1680 06de 5A61     		str	r2, [r3, #20]
 1681              	.L67:
1405:Drivers/STM32L4xx_HAL_Driver/Src/stm32l4xx_hal_pcd.c ****     }
1406:Drivers/STM32L4xx_HAL_Driver/Src/stm32l4xx_hal_pcd.c **** 
1407:Drivers/STM32L4xx_HAL_Driver/Src/stm32l4xx_hal_pcd.c ****     /* Handle SOF Interrupt */
1408:Drivers/STM32L4xx_HAL_Driver/Src/stm32l4xx_hal_pcd.c ****     if (__HAL_PCD_GET_FLAG(hpcd, USB_OTG_GINTSTS_SOF))
 1682              		.loc 1 1408 9
 1683 06e0 7B68     		ldr	r3, [r7, #4]
 1684 06e2 1B68     		ldr	r3, [r3]
 1685 06e4 1846     		mov	r0, r3
 1686 06e6 FFF7FEFF 		bl	USB_ReadInterrupts
 1687 06ea 0346     		mov	r3, r0
 1688              		.loc 1 1408 9 is_stmt 0 discriminator 1
 1689 06ec 03F00803 		and	r3, r3, #8
 1690              		.loc 1 1408 8 is_stmt 1 discriminator 1
 1691 06f0 082B     		cmp	r3, #8
 1692 06f2 0AD1     		bne	.L68
1409:Drivers/STM32L4xx_HAL_Driver/Src/stm32l4xx_hal_pcd.c ****     {
1410:Drivers/STM32L4xx_HAL_Driver/Src/stm32l4xx_hal_pcd.c **** #if (USE_HAL_PCD_REGISTER_CALLBACKS == 1U)
1411:Drivers/STM32L4xx_HAL_Driver/Src/stm32l4xx_hal_pcd.c ****       hpcd->SOFCallback(hpcd);
1412:Drivers/STM32L4xx_HAL_Driver/Src/stm32l4xx_hal_pcd.c **** #else
1413:Drivers/STM32L4xx_HAL_Driver/Src/stm32l4xx_hal_pcd.c ****       HAL_PCD_SOFCallback(hpcd);
 1693              		.loc 1 1413 7
 1694 06f4 7868     		ldr	r0, [r7, #4]
 1695 06f6 FFF7FEFF 		bl	HAL_PCD_SOFCallback
1414:Drivers/STM32L4xx_HAL_Driver/Src/stm32l4xx_hal_pcd.c **** #endif /* USE_HAL_PCD_REGISTER_CALLBACKS */
1415:Drivers/STM32L4xx_HAL_Driver/Src/stm32l4xx_hal_pcd.c **** 
1416:Drivers/STM32L4xx_HAL_Driver/Src/stm32l4xx_hal_pcd.c ****       __HAL_PCD_CLEAR_FLAG(hpcd, USB_OTG_GINTSTS_SOF);
 1696              		.loc 1 1416 7
 1697 06fa 7B68     		ldr	r3, [r7, #4]
 1698 06fc 1B68     		ldr	r3, [r3]
 1699 06fe 5A69     		ldr	r2, [r3, #20]
 1700 0700 7B68     		ldr	r3, [r7, #4]
 1701 0702 1B68     		ldr	r3, [r3]
 1702 0704 02F00802 		and	r2, r2, #8
 1703 0708 5A61     		str	r2, [r3, #20]
 1704              	.L68:
1417:Drivers/STM32L4xx_HAL_Driver/Src/stm32l4xx_hal_pcd.c ****     }
1418:Drivers/STM32L4xx_HAL_Driver/Src/stm32l4xx_hal_pcd.c **** 
1419:Drivers/STM32L4xx_HAL_Driver/Src/stm32l4xx_hal_pcd.c ****     /* Handle Global OUT NAK effective Interrupt */
1420:Drivers/STM32L4xx_HAL_Driver/Src/stm32l4xx_hal_pcd.c ****     if (__HAL_PCD_GET_FLAG(hpcd, USB_OTG_GINTSTS_BOUTNAKEFF))
 1705              		.loc 1 1420 9
 1706 070a 7B68     		ldr	r3, [r7, #4]
 1707 070c 1B68     		ldr	r3, [r3]
 1708 070e 1846     		mov	r0, r3
 1709 0710 FFF7FEFF 		bl	USB_ReadInterrupts
 1710 0714 0346     		mov	r3, r0
 1711              		.loc 1 1420 9 is_stmt 0 discriminator 1
 1712 0716 03F08003 		and	r3, r3, #128
 1713              		.loc 1 1420 8 is_stmt 1 discriminator 1
 1714 071a 802B     		cmp	r3, #128
 1715 071c 3DD1     		bne	.L69
1421:Drivers/STM32L4xx_HAL_Driver/Src/stm32l4xx_hal_pcd.c ****     {
ARM GAS  /tmp/ccFcOOzb.s 			page 56


1422:Drivers/STM32L4xx_HAL_Driver/Src/stm32l4xx_hal_pcd.c ****       USBx->GINTMSK &= ~USB_OTG_GINTMSK_GONAKEFFM;
 1716              		.loc 1 1422 11
 1717 071e 3B6A     		ldr	r3, [r7, #32]
 1718 0720 9B69     		ldr	r3, [r3, #24]
 1719              		.loc 1 1422 21
 1720 0722 23F08002 		bic	r2, r3, #128
 1721 0726 3B6A     		ldr	r3, [r7, #32]
 1722 0728 9A61     		str	r2, [r3, #24]
1423:Drivers/STM32L4xx_HAL_Driver/Src/stm32l4xx_hal_pcd.c **** 
1424:Drivers/STM32L4xx_HAL_Driver/Src/stm32l4xx_hal_pcd.c ****       for (epnum = 1U; epnum < hpcd->Init.dev_endpoints; epnum++)
 1723              		.loc 1 1424 18
 1724 072a 0123     		movs	r3, #1
 1725 072c 7B62     		str	r3, [r7, #36]
 1726              		.loc 1 1424 7
 1727 072e 2EE0     		b	.L70
 1728              	.L72:
1425:Drivers/STM32L4xx_HAL_Driver/Src/stm32l4xx_hal_pcd.c ****       {
1426:Drivers/STM32L4xx_HAL_Driver/Src/stm32l4xx_hal_pcd.c ****         if (hpcd->OUT_ep[epnum].is_iso_incomplete == 1U)
 1729              		.loc 1 1426 32
 1730 0730 7968     		ldr	r1, [r7, #4]
 1731 0732 7A6A     		ldr	r2, [r7, #36]
 1732 0734 1346     		mov	r3, r2
 1733 0736 DB00     		lsls	r3, r3, #3
 1734 0738 1344     		add	r3, r3, r2
 1735 073a 9B00     		lsls	r3, r3, #2
 1736 073c 0B44     		add	r3, r3, r1
 1737 073e 03F25723 		addw	r3, r3, #599
 1738 0742 1B78     		ldrb	r3, [r3]	@ zero_extendqisi2
 1739              		.loc 1 1426 12
 1740 0744 012B     		cmp	r3, #1
 1741 0746 1FD1     		bne	.L71
1427:Drivers/STM32L4xx_HAL_Driver/Src/stm32l4xx_hal_pcd.c ****         {
1428:Drivers/STM32L4xx_HAL_Driver/Src/stm32l4xx_hal_pcd.c ****           /* disable the EP */
1429:Drivers/STM32L4xx_HAL_Driver/Src/stm32l4xx_hal_pcd.c ****           USBx_OUTEP(epnum)->DOEPCTL |= (USB_OTG_DOEPCTL_SNAK);
 1742              		.loc 1 1429 28
 1743 0748 7B6A     		ldr	r3, [r7, #36]
 1744 074a 5A01     		lsls	r2, r3, #5
 1745 074c FB69     		ldr	r3, [r7, #28]
 1746 074e 1344     		add	r3, r3, r2
 1747 0750 03F53063 		add	r3, r3, #2816
 1748 0754 1B68     		ldr	r3, [r3]
 1749 0756 7A6A     		ldr	r2, [r7, #36]
 1750 0758 5101     		lsls	r1, r2, #5
 1751 075a FA69     		ldr	r2, [r7, #28]
 1752 075c 0A44     		add	r2, r2, r1
 1753 075e 02F53062 		add	r2, r2, #2816
 1754              		.loc 1 1429 38
 1755 0762 43F00063 		orr	r3, r3, #134217728
 1756 0766 1360     		str	r3, [r2]
1430:Drivers/STM32L4xx_HAL_Driver/Src/stm32l4xx_hal_pcd.c ****           USBx_OUTEP(epnum)->DOEPCTL |= (USB_OTG_DOEPCTL_EPDIS);
 1757              		.loc 1 1430 28
 1758 0768 7B6A     		ldr	r3, [r7, #36]
 1759 076a 5A01     		lsls	r2, r3, #5
 1760 076c FB69     		ldr	r3, [r7, #28]
 1761 076e 1344     		add	r3, r3, r2
 1762 0770 03F53063 		add	r3, r3, #2816
 1763 0774 1B68     		ldr	r3, [r3]
ARM GAS  /tmp/ccFcOOzb.s 			page 57


 1764 0776 7A6A     		ldr	r2, [r7, #36]
 1765 0778 5101     		lsls	r1, r2, #5
 1766 077a FA69     		ldr	r2, [r7, #28]
 1767 077c 0A44     		add	r2, r2, r1
 1768 077e 02F53062 		add	r2, r2, #2816
 1769              		.loc 1 1430 38
 1770 0782 43F08043 		orr	r3, r3, #1073741824
 1771 0786 1360     		str	r3, [r2]
 1772              	.L71:
1424:Drivers/STM32L4xx_HAL_Driver/Src/stm32l4xx_hal_pcd.c ****       {
 1773              		.loc 1 1424 63 discriminator 2
 1774 0788 7B6A     		ldr	r3, [r7, #36]
 1775 078a 0133     		adds	r3, r3, #1
 1776 078c 7B62     		str	r3, [r7, #36]
 1777              	.L70:
1424:Drivers/STM32L4xx_HAL_Driver/Src/stm32l4xx_hal_pcd.c ****       {
 1778              		.loc 1 1424 42 discriminator 1
 1779 078e 7B68     		ldr	r3, [r7, #4]
 1780 0790 1B79     		ldrb	r3, [r3, #4]	@ zero_extendqisi2
 1781 0792 1A46     		mov	r2, r3
1424:Drivers/STM32L4xx_HAL_Driver/Src/stm32l4xx_hal_pcd.c ****       {
 1782              		.loc 1 1424 30 discriminator 1
 1783 0794 7B6A     		ldr	r3, [r7, #36]
 1784 0796 9342     		cmp	r3, r2
 1785 0798 CAD3     		bcc	.L72
 1786              	.L69:
1431:Drivers/STM32L4xx_HAL_Driver/Src/stm32l4xx_hal_pcd.c ****         }
1432:Drivers/STM32L4xx_HAL_Driver/Src/stm32l4xx_hal_pcd.c ****       }
1433:Drivers/STM32L4xx_HAL_Driver/Src/stm32l4xx_hal_pcd.c ****     }
1434:Drivers/STM32L4xx_HAL_Driver/Src/stm32l4xx_hal_pcd.c **** 
1435:Drivers/STM32L4xx_HAL_Driver/Src/stm32l4xx_hal_pcd.c ****     /* Handle Incomplete ISO IN Interrupt */
1436:Drivers/STM32L4xx_HAL_Driver/Src/stm32l4xx_hal_pcd.c ****     if (__HAL_PCD_GET_FLAG(hpcd, USB_OTG_GINTSTS_IISOIXFR))
 1787              		.loc 1 1436 9
 1788 079a 7B68     		ldr	r3, [r7, #4]
 1789 079c 1B68     		ldr	r3, [r3]
 1790 079e 1846     		mov	r0, r3
 1791 07a0 FFF7FEFF 		bl	USB_ReadInterrupts
 1792 07a4 0346     		mov	r3, r0
 1793              		.loc 1 1436 9 is_stmt 0 discriminator 1
 1794 07a6 03F48013 		and	r3, r3, #1048576
 1795              		.loc 1 1436 8 is_stmt 1 discriminator 1
 1796 07aa B3F5801F 		cmp	r3, #1048576
 1797 07ae 3CD1     		bne	.L73
1437:Drivers/STM32L4xx_HAL_Driver/Src/stm32l4xx_hal_pcd.c ****     {
1438:Drivers/STM32L4xx_HAL_Driver/Src/stm32l4xx_hal_pcd.c ****       for (epnum = 1U; epnum < hpcd->Init.dev_endpoints; epnum++)
 1798              		.loc 1 1438 18
 1799 07b0 0123     		movs	r3, #1
 1800 07b2 7B62     		str	r3, [r7, #36]
 1801              		.loc 1 1438 7
 1802 07b4 2BE0     		b	.L74
 1803              	.L76:
1439:Drivers/STM32L4xx_HAL_Driver/Src/stm32l4xx_hal_pcd.c ****       {
1440:Drivers/STM32L4xx_HAL_Driver/Src/stm32l4xx_hal_pcd.c ****         RegVal = USBx_INEP(epnum)->DIEPCTL;
 1804              		.loc 1 1440 18
 1805 07b6 7B6A     		ldr	r3, [r7, #36]
 1806 07b8 5A01     		lsls	r2, r3, #5
 1807 07ba FB69     		ldr	r3, [r7, #28]
ARM GAS  /tmp/ccFcOOzb.s 			page 58


 1808 07bc 1344     		add	r3, r3, r2
 1809 07be 03F51063 		add	r3, r3, #2304
 1810              		.loc 1 1440 16
 1811 07c2 1B68     		ldr	r3, [r3]
 1812 07c4 BB61     		str	r3, [r7, #24]
1441:Drivers/STM32L4xx_HAL_Driver/Src/stm32l4xx_hal_pcd.c **** 
1442:Drivers/STM32L4xx_HAL_Driver/Src/stm32l4xx_hal_pcd.c ****         if ((hpcd->IN_ep[epnum].type == EP_TYPE_ISOC) &&
 1813              		.loc 1 1442 32
 1814 07c6 7968     		ldr	r1, [r7, #4]
 1815 07c8 7A6A     		ldr	r2, [r7, #36]
 1816 07ca 1346     		mov	r3, r2
 1817 07cc DB00     		lsls	r3, r3, #3
 1818 07ce 1344     		add	r3, r3, r2
 1819 07d0 9B00     		lsls	r3, r3, #2
 1820 07d2 0B44     		add	r3, r3, r1
 1821 07d4 1833     		adds	r3, r3, #24
 1822 07d6 1B78     		ldrb	r3, [r3]	@ zero_extendqisi2
 1823              		.loc 1 1442 12
 1824 07d8 012B     		cmp	r3, #1
 1825 07da 15D1     		bne	.L75
1443:Drivers/STM32L4xx_HAL_Driver/Src/stm32l4xx_hal_pcd.c ****             ((RegVal & USB_OTG_DIEPCTL_EPENA) == USB_OTG_DIEPCTL_EPENA))
 1826              		.loc 1 1443 47
 1827 07dc BB69     		ldr	r3, [r7, #24]
1442:Drivers/STM32L4xx_HAL_Driver/Src/stm32l4xx_hal_pcd.c ****             ((RegVal & USB_OTG_DIEPCTL_EPENA) == USB_OTG_DIEPCTL_EPENA))
 1828              		.loc 1 1442 55 discriminator 1
 1829 07de 002B     		cmp	r3, #0
 1830 07e0 12DA     		bge	.L75
1444:Drivers/STM32L4xx_HAL_Driver/Src/stm32l4xx_hal_pcd.c ****         {
1445:Drivers/STM32L4xx_HAL_Driver/Src/stm32l4xx_hal_pcd.c ****           hpcd->IN_ep[epnum].is_iso_incomplete = 1U;
 1831              		.loc 1 1445 48
 1832 07e2 7968     		ldr	r1, [r7, #4]
 1833 07e4 7A6A     		ldr	r2, [r7, #36]
 1834 07e6 1346     		mov	r3, r2
 1835 07e8 DB00     		lsls	r3, r3, #3
 1836 07ea 1344     		add	r3, r3, r2
 1837 07ec 9B00     		lsls	r3, r3, #2
 1838 07ee 0B44     		add	r3, r3, r1
 1839 07f0 1733     		adds	r3, r3, #23
 1840 07f2 0122     		movs	r2, #1
 1841 07f4 1A70     		strb	r2, [r3]
1446:Drivers/STM32L4xx_HAL_Driver/Src/stm32l4xx_hal_pcd.c **** 
1447:Drivers/STM32L4xx_HAL_Driver/Src/stm32l4xx_hal_pcd.c ****           /* Abort current transaction and disable the EP */
1448:Drivers/STM32L4xx_HAL_Driver/Src/stm32l4xx_hal_pcd.c ****           (void)HAL_PCD_EP_Abort(hpcd, (uint8_t)(epnum | 0x80U));
 1842              		.loc 1 1448 17
 1843 07f6 7B6A     		ldr	r3, [r7, #36]
 1844 07f8 DBB2     		uxtb	r3, r3
 1845 07fa 63F07F03 		orn	r3, r3, #127
 1846 07fe DBB2     		uxtb	r3, r3
 1847 0800 1946     		mov	r1, r3
 1848 0802 7868     		ldr	r0, [r7, #4]
 1849 0804 FFF7FEFF 		bl	HAL_PCD_EP_Abort
 1850              	.L75:
1438:Drivers/STM32L4xx_HAL_Driver/Src/stm32l4xx_hal_pcd.c ****       {
 1851              		.loc 1 1438 63 discriminator 2
 1852 0808 7B6A     		ldr	r3, [r7, #36]
 1853 080a 0133     		adds	r3, r3, #1
 1854 080c 7B62     		str	r3, [r7, #36]
ARM GAS  /tmp/ccFcOOzb.s 			page 59


 1855              	.L74:
1438:Drivers/STM32L4xx_HAL_Driver/Src/stm32l4xx_hal_pcd.c ****       {
 1856              		.loc 1 1438 42 discriminator 1
 1857 080e 7B68     		ldr	r3, [r7, #4]
 1858 0810 1B79     		ldrb	r3, [r3, #4]	@ zero_extendqisi2
 1859 0812 1A46     		mov	r2, r3
1438:Drivers/STM32L4xx_HAL_Driver/Src/stm32l4xx_hal_pcd.c ****       {
 1860              		.loc 1 1438 30 discriminator 1
 1861 0814 7B6A     		ldr	r3, [r7, #36]
 1862 0816 9342     		cmp	r3, r2
 1863 0818 CDD3     		bcc	.L76
1449:Drivers/STM32L4xx_HAL_Driver/Src/stm32l4xx_hal_pcd.c ****         }
1450:Drivers/STM32L4xx_HAL_Driver/Src/stm32l4xx_hal_pcd.c ****       }
1451:Drivers/STM32L4xx_HAL_Driver/Src/stm32l4xx_hal_pcd.c **** 
1452:Drivers/STM32L4xx_HAL_Driver/Src/stm32l4xx_hal_pcd.c ****       __HAL_PCD_CLEAR_FLAG(hpcd, USB_OTG_GINTSTS_IISOIXFR);
 1864              		.loc 1 1452 7
 1865 081a 7B68     		ldr	r3, [r7, #4]
 1866 081c 1B68     		ldr	r3, [r3]
 1867 081e 5A69     		ldr	r2, [r3, #20]
 1868 0820 7B68     		ldr	r3, [r7, #4]
 1869 0822 1B68     		ldr	r3, [r3]
 1870 0824 02F48012 		and	r2, r2, #1048576
 1871 0828 5A61     		str	r2, [r3, #20]
 1872              	.L73:
1453:Drivers/STM32L4xx_HAL_Driver/Src/stm32l4xx_hal_pcd.c ****     }
1454:Drivers/STM32L4xx_HAL_Driver/Src/stm32l4xx_hal_pcd.c **** 
1455:Drivers/STM32L4xx_HAL_Driver/Src/stm32l4xx_hal_pcd.c ****     /* Handle Incomplete ISO OUT Interrupt */
1456:Drivers/STM32L4xx_HAL_Driver/Src/stm32l4xx_hal_pcd.c ****     if (__HAL_PCD_GET_FLAG(hpcd, USB_OTG_GINTSTS_PXFR_INCOMPISOOUT))
 1873              		.loc 1 1456 9
 1874 082a 7B68     		ldr	r3, [r7, #4]
 1875 082c 1B68     		ldr	r3, [r3]
 1876 082e 1846     		mov	r0, r3
 1877 0830 FFF7FEFF 		bl	USB_ReadInterrupts
 1878 0834 0346     		mov	r3, r0
 1879              		.loc 1 1456 9 is_stmt 0 discriminator 1
 1880 0836 03F40013 		and	r3, r3, #2097152
 1881              		.loc 1 1456 8 is_stmt 1 discriminator 1
 1882 083a B3F5001F 		cmp	r3, #2097152
 1883 083e 56D1     		bne	.L77
1457:Drivers/STM32L4xx_HAL_Driver/Src/stm32l4xx_hal_pcd.c ****     {
1458:Drivers/STM32L4xx_HAL_Driver/Src/stm32l4xx_hal_pcd.c ****       for (epnum = 1U; epnum < hpcd->Init.dev_endpoints; epnum++)
 1884              		.loc 1 1458 18
 1885 0840 0123     		movs	r3, #1
 1886 0842 7B62     		str	r3, [r7, #36]
 1887              		.loc 1 1458 7
 1888 0844 45E0     		b	.L78
 1889              	.L81:
1459:Drivers/STM32L4xx_HAL_Driver/Src/stm32l4xx_hal_pcd.c ****       {
1460:Drivers/STM32L4xx_HAL_Driver/Src/stm32l4xx_hal_pcd.c ****         RegVal = USBx_OUTEP(epnum)->DOEPCTL;
 1890              		.loc 1 1460 18
 1891 0846 7B6A     		ldr	r3, [r7, #36]
 1892 0848 5A01     		lsls	r2, r3, #5
 1893 084a FB69     		ldr	r3, [r7, #28]
 1894 084c 1344     		add	r3, r3, r2
 1895 084e 03F53063 		add	r3, r3, #2816
 1896              		.loc 1 1460 16
 1897 0852 1B68     		ldr	r3, [r3]
ARM GAS  /tmp/ccFcOOzb.s 			page 60


 1898 0854 BB61     		str	r3, [r7, #24]
1461:Drivers/STM32L4xx_HAL_Driver/Src/stm32l4xx_hal_pcd.c **** 
1462:Drivers/STM32L4xx_HAL_Driver/Src/stm32l4xx_hal_pcd.c ****         if ((hpcd->OUT_ep[epnum].type == EP_TYPE_ISOC) &&
 1899              		.loc 1 1462 33
 1900 0856 7968     		ldr	r1, [r7, #4]
 1901 0858 7A6A     		ldr	r2, [r7, #36]
 1902 085a 1346     		mov	r3, r2
 1903 085c DB00     		lsls	r3, r3, #3
 1904 085e 1344     		add	r3, r3, r2
 1905 0860 9B00     		lsls	r3, r3, #2
 1906 0862 0B44     		add	r3, r3, r1
 1907 0864 03F51673 		add	r3, r3, #600
 1908 0868 1B78     		ldrb	r3, [r3]	@ zero_extendqisi2
 1909              		.loc 1 1462 12
 1910 086a 012B     		cmp	r3, #1
 1911 086c 2ED1     		bne	.L79
1463:Drivers/STM32L4xx_HAL_Driver/Src/stm32l4xx_hal_pcd.c ****             ((RegVal & USB_OTG_DOEPCTL_EPENA) == USB_OTG_DOEPCTL_EPENA) &&
 1912              		.loc 1 1463 47
 1913 086e BB69     		ldr	r3, [r7, #24]
1462:Drivers/STM32L4xx_HAL_Driver/Src/stm32l4xx_hal_pcd.c ****             ((RegVal & USB_OTG_DOEPCTL_EPENA) == USB_OTG_DOEPCTL_EPENA) &&
 1914              		.loc 1 1462 56 discriminator 1
 1915 0870 002B     		cmp	r3, #0
 1916 0872 2BDA     		bge	.L79
1464:Drivers/STM32L4xx_HAL_Driver/Src/stm32l4xx_hal_pcd.c ****             (((RegVal & (0x1UL << 16)) >> 16U) == (hpcd->FrameNumber & 0x1U)))
 1917              		.loc 1 1464 40
 1918 0874 BB69     		ldr	r3, [r7, #24]
 1919 0876 1A0C     		lsrs	r2, r3, #16
 1920              		.loc 1 1464 56
 1921 0878 7B68     		ldr	r3, [r7, #4]
 1922 087a D3F8D434 		ldr	r3, [r3, #1236]
 1923              		.loc 1 1464 48
 1924 087e 5340     		eors	r3, r3, r2
 1925 0880 03F00103 		and	r3, r3, #1
1463:Drivers/STM32L4xx_HAL_Driver/Src/stm32l4xx_hal_pcd.c ****             ((RegVal & USB_OTG_DOEPCTL_EPENA) == USB_OTG_DOEPCTL_EPENA) &&
 1926              		.loc 1 1463 73
 1927 0884 002B     		cmp	r3, #0
 1928 0886 21D1     		bne	.L79
1465:Drivers/STM32L4xx_HAL_Driver/Src/stm32l4xx_hal_pcd.c ****         {
1466:Drivers/STM32L4xx_HAL_Driver/Src/stm32l4xx_hal_pcd.c ****           hpcd->OUT_ep[epnum].is_iso_incomplete = 1U;
 1929              		.loc 1 1466 49
 1930 0888 7968     		ldr	r1, [r7, #4]
 1931 088a 7A6A     		ldr	r2, [r7, #36]
 1932 088c 1346     		mov	r3, r2
 1933 088e DB00     		lsls	r3, r3, #3
 1934 0890 1344     		add	r3, r3, r2
 1935 0892 9B00     		lsls	r3, r3, #2
 1936 0894 0B44     		add	r3, r3, r1
 1937 0896 03F25723 		addw	r3, r3, #599
 1938 089a 0122     		movs	r2, #1
 1939 089c 1A70     		strb	r2, [r3]
1467:Drivers/STM32L4xx_HAL_Driver/Src/stm32l4xx_hal_pcd.c **** 
1468:Drivers/STM32L4xx_HAL_Driver/Src/stm32l4xx_hal_pcd.c ****           USBx->GINTMSK |= USB_OTG_GINTMSK_GONAKEFFM;
 1940              		.loc 1 1468 15
 1941 089e 3B6A     		ldr	r3, [r7, #32]
 1942 08a0 9B69     		ldr	r3, [r3, #24]
 1943              		.loc 1 1468 25
 1944 08a2 43F08002 		orr	r2, r3, #128
ARM GAS  /tmp/ccFcOOzb.s 			page 61


 1945 08a6 3B6A     		ldr	r3, [r7, #32]
 1946 08a8 9A61     		str	r2, [r3, #24]
1469:Drivers/STM32L4xx_HAL_Driver/Src/stm32l4xx_hal_pcd.c **** 
1470:Drivers/STM32L4xx_HAL_Driver/Src/stm32l4xx_hal_pcd.c ****           if ((USBx->GINTSTS & USB_OTG_GINTSTS_BOUTNAKEFF) == 0U)
 1947              		.loc 1 1470 20
 1948 08aa 3B6A     		ldr	r3, [r7, #32]
 1949 08ac 5B69     		ldr	r3, [r3, #20]
 1950              		.loc 1 1470 30
 1951 08ae 03F08003 		and	r3, r3, #128
 1952              		.loc 1 1470 14
 1953 08b2 002B     		cmp	r3, #0
 1954 08b4 0AD1     		bne	.L79
1471:Drivers/STM32L4xx_HAL_Driver/Src/stm32l4xx_hal_pcd.c ****           {
1472:Drivers/STM32L4xx_HAL_Driver/Src/stm32l4xx_hal_pcd.c ****             USBx_DEVICE->DCTL |= USB_OTG_DCTL_SGONAK;
 1955              		.loc 1 1472 24
 1956 08b6 FB69     		ldr	r3, [r7, #28]
 1957 08b8 03F50063 		add	r3, r3, #2048
 1958 08bc 5B68     		ldr	r3, [r3, #4]
 1959 08be FA69     		ldr	r2, [r7, #28]
 1960 08c0 02F50062 		add	r2, r2, #2048
 1961              		.loc 1 1472 31
 1962 08c4 43F40073 		orr	r3, r3, #512
 1963 08c8 5360     		str	r3, [r2, #4]
1473:Drivers/STM32L4xx_HAL_Driver/Src/stm32l4xx_hal_pcd.c ****             break;
 1964              		.loc 1 1473 13
 1965 08ca 08E0     		b	.L80
 1966              	.L79:
1458:Drivers/STM32L4xx_HAL_Driver/Src/stm32l4xx_hal_pcd.c ****       {
 1967              		.loc 1 1458 63 discriminator 2
 1968 08cc 7B6A     		ldr	r3, [r7, #36]
 1969 08ce 0133     		adds	r3, r3, #1
 1970 08d0 7B62     		str	r3, [r7, #36]
 1971              	.L78:
1458:Drivers/STM32L4xx_HAL_Driver/Src/stm32l4xx_hal_pcd.c ****       {
 1972              		.loc 1 1458 42 discriminator 1
 1973 08d2 7B68     		ldr	r3, [r7, #4]
 1974 08d4 1B79     		ldrb	r3, [r3, #4]	@ zero_extendqisi2
 1975 08d6 1A46     		mov	r2, r3
1458:Drivers/STM32L4xx_HAL_Driver/Src/stm32l4xx_hal_pcd.c ****       {
 1976              		.loc 1 1458 30 discriminator 1
 1977 08d8 7B6A     		ldr	r3, [r7, #36]
 1978 08da 9342     		cmp	r3, r2
 1979 08dc B3D3     		bcc	.L81
 1980              	.L80:
1474:Drivers/STM32L4xx_HAL_Driver/Src/stm32l4xx_hal_pcd.c ****           }
1475:Drivers/STM32L4xx_HAL_Driver/Src/stm32l4xx_hal_pcd.c ****         }
1476:Drivers/STM32L4xx_HAL_Driver/Src/stm32l4xx_hal_pcd.c ****       }
1477:Drivers/STM32L4xx_HAL_Driver/Src/stm32l4xx_hal_pcd.c **** 
1478:Drivers/STM32L4xx_HAL_Driver/Src/stm32l4xx_hal_pcd.c ****       __HAL_PCD_CLEAR_FLAG(hpcd, USB_OTG_GINTSTS_PXFR_INCOMPISOOUT);
 1981              		.loc 1 1478 7
 1982 08de 7B68     		ldr	r3, [r7, #4]
 1983 08e0 1B68     		ldr	r3, [r3]
 1984 08e2 5A69     		ldr	r2, [r3, #20]
 1985 08e4 7B68     		ldr	r3, [r7, #4]
 1986 08e6 1B68     		ldr	r3, [r3]
 1987 08e8 02F40012 		and	r2, r2, #2097152
 1988 08ec 5A61     		str	r2, [r3, #20]
ARM GAS  /tmp/ccFcOOzb.s 			page 62


 1989              	.L77:
1479:Drivers/STM32L4xx_HAL_Driver/Src/stm32l4xx_hal_pcd.c ****     }
1480:Drivers/STM32L4xx_HAL_Driver/Src/stm32l4xx_hal_pcd.c **** 
1481:Drivers/STM32L4xx_HAL_Driver/Src/stm32l4xx_hal_pcd.c ****     /* Handle Connection event Interrupt */
1482:Drivers/STM32L4xx_HAL_Driver/Src/stm32l4xx_hal_pcd.c ****     if (__HAL_PCD_GET_FLAG(hpcd, USB_OTG_GINTSTS_SRQINT))
 1990              		.loc 1 1482 9
 1991 08ee 7B68     		ldr	r3, [r7, #4]
 1992 08f0 1B68     		ldr	r3, [r3]
 1993 08f2 1846     		mov	r0, r3
 1994 08f4 FFF7FEFF 		bl	USB_ReadInterrupts
 1995 08f8 0346     		mov	r3, r0
 1996              		.loc 1 1482 9 is_stmt 0 discriminator 1
 1997 08fa 03F08043 		and	r3, r3, #1073741824
 1998              		.loc 1 1482 8 is_stmt 1 discriminator 1
 1999 08fe B3F1804F 		cmp	r3, #1073741824
 2000 0902 0AD1     		bne	.L82
1483:Drivers/STM32L4xx_HAL_Driver/Src/stm32l4xx_hal_pcd.c ****     {
1484:Drivers/STM32L4xx_HAL_Driver/Src/stm32l4xx_hal_pcd.c **** #if (USE_HAL_PCD_REGISTER_CALLBACKS == 1U)
1485:Drivers/STM32L4xx_HAL_Driver/Src/stm32l4xx_hal_pcd.c ****       hpcd->ConnectCallback(hpcd);
1486:Drivers/STM32L4xx_HAL_Driver/Src/stm32l4xx_hal_pcd.c **** #else
1487:Drivers/STM32L4xx_HAL_Driver/Src/stm32l4xx_hal_pcd.c ****       HAL_PCD_ConnectCallback(hpcd);
 2001              		.loc 1 1487 7
 2002 0904 7868     		ldr	r0, [r7, #4]
 2003 0906 FFF7FEFF 		bl	HAL_PCD_ConnectCallback
1488:Drivers/STM32L4xx_HAL_Driver/Src/stm32l4xx_hal_pcd.c **** #endif /* USE_HAL_PCD_REGISTER_CALLBACKS */
1489:Drivers/STM32L4xx_HAL_Driver/Src/stm32l4xx_hal_pcd.c **** 
1490:Drivers/STM32L4xx_HAL_Driver/Src/stm32l4xx_hal_pcd.c ****       __HAL_PCD_CLEAR_FLAG(hpcd, USB_OTG_GINTSTS_SRQINT);
 2004              		.loc 1 1490 7
 2005 090a 7B68     		ldr	r3, [r7, #4]
 2006 090c 1B68     		ldr	r3, [r3]
 2007 090e 5A69     		ldr	r2, [r3, #20]
 2008 0910 7B68     		ldr	r3, [r7, #4]
 2009 0912 1B68     		ldr	r3, [r3]
 2010 0914 02F08042 		and	r2, r2, #1073741824
 2011 0918 5A61     		str	r2, [r3, #20]
 2012              	.L82:
1491:Drivers/STM32L4xx_HAL_Driver/Src/stm32l4xx_hal_pcd.c ****     }
1492:Drivers/STM32L4xx_HAL_Driver/Src/stm32l4xx_hal_pcd.c **** 
1493:Drivers/STM32L4xx_HAL_Driver/Src/stm32l4xx_hal_pcd.c ****     /* Handle Disconnection event Interrupt */
1494:Drivers/STM32L4xx_HAL_Driver/Src/stm32l4xx_hal_pcd.c ****     if (__HAL_PCD_GET_FLAG(hpcd, USB_OTG_GINTSTS_OTGINT))
 2013              		.loc 1 1494 9
 2014 091a 7B68     		ldr	r3, [r7, #4]
 2015 091c 1B68     		ldr	r3, [r3]
 2016 091e 1846     		mov	r0, r3
 2017 0920 FFF7FEFF 		bl	USB_ReadInterrupts
 2018 0924 0346     		mov	r3, r0
 2019              		.loc 1 1494 9 is_stmt 0 discriminator 1
 2020 0926 03F00403 		and	r3, r3, #4
 2021              		.loc 1 1494 8 is_stmt 1 discriminator 1
 2022 092a 042B     		cmp	r3, #4
 2023 092c 15D1     		bne	.L27
1495:Drivers/STM32L4xx_HAL_Driver/Src/stm32l4xx_hal_pcd.c ****     {
1496:Drivers/STM32L4xx_HAL_Driver/Src/stm32l4xx_hal_pcd.c ****       RegVal = hpcd->Instance->GOTGINT;
 2024              		.loc 1 1496 20
 2025 092e 7B68     		ldr	r3, [r7, #4]
 2026 0930 1B68     		ldr	r3, [r3]
 2027              		.loc 1 1496 14
ARM GAS  /tmp/ccFcOOzb.s 			page 63


 2028 0932 5B68     		ldr	r3, [r3, #4]
 2029 0934 BB61     		str	r3, [r7, #24]
1497:Drivers/STM32L4xx_HAL_Driver/Src/stm32l4xx_hal_pcd.c **** 
1498:Drivers/STM32L4xx_HAL_Driver/Src/stm32l4xx_hal_pcd.c ****       if ((RegVal & USB_OTG_GOTGINT_SEDET) == USB_OTG_GOTGINT_SEDET)
 2030              		.loc 1 1498 19
 2031 0936 BB69     		ldr	r3, [r7, #24]
 2032 0938 03F00403 		and	r3, r3, #4
 2033              		.loc 1 1498 10
 2034 093c 002B     		cmp	r3, #0
 2035 093e 02D0     		beq	.L83
1499:Drivers/STM32L4xx_HAL_Driver/Src/stm32l4xx_hal_pcd.c ****       {
1500:Drivers/STM32L4xx_HAL_Driver/Src/stm32l4xx_hal_pcd.c **** #if (USE_HAL_PCD_REGISTER_CALLBACKS == 1U)
1501:Drivers/STM32L4xx_HAL_Driver/Src/stm32l4xx_hal_pcd.c ****         hpcd->DisconnectCallback(hpcd);
1502:Drivers/STM32L4xx_HAL_Driver/Src/stm32l4xx_hal_pcd.c **** #else
1503:Drivers/STM32L4xx_HAL_Driver/Src/stm32l4xx_hal_pcd.c ****         HAL_PCD_DisconnectCallback(hpcd);
 2036              		.loc 1 1503 9
 2037 0940 7868     		ldr	r0, [r7, #4]
 2038 0942 FFF7FEFF 		bl	HAL_PCD_DisconnectCallback
 2039              	.L83:
1504:Drivers/STM32L4xx_HAL_Driver/Src/stm32l4xx_hal_pcd.c **** #endif /* USE_HAL_PCD_REGISTER_CALLBACKS */
1505:Drivers/STM32L4xx_HAL_Driver/Src/stm32l4xx_hal_pcd.c ****       }
1506:Drivers/STM32L4xx_HAL_Driver/Src/stm32l4xx_hal_pcd.c ****       hpcd->Instance->GOTGINT |= RegVal;
 2040              		.loc 1 1506 11
 2041 0946 7B68     		ldr	r3, [r7, #4]
 2042 0948 1B68     		ldr	r3, [r3]
 2043              		.loc 1 1506 21
 2044 094a 5968     		ldr	r1, [r3, #4]
 2045              		.loc 1 1506 11
 2046 094c 7B68     		ldr	r3, [r7, #4]
 2047 094e 1B68     		ldr	r3, [r3]
 2048              		.loc 1 1506 31
 2049 0950 BA69     		ldr	r2, [r7, #24]
 2050 0952 0A43     		orrs	r2, r2, r1
 2051 0954 5A60     		str	r2, [r3, #4]
 2052 0956 00E0     		b	.L27
 2053              	.L84:
1087:Drivers/STM32L4xx_HAL_Driver/Src/stm32l4xx_hal_pcd.c ****     }
 2054              		.loc 1 1087 7
 2055 0958 00BF     		nop
 2056              	.L27:
1507:Drivers/STM32L4xx_HAL_Driver/Src/stm32l4xx_hal_pcd.c ****     }
1508:Drivers/STM32L4xx_HAL_Driver/Src/stm32l4xx_hal_pcd.c ****   }
1509:Drivers/STM32L4xx_HAL_Driver/Src/stm32l4xx_hal_pcd.c **** }
 2057              		.loc 1 1509 1
 2058 095a 3437     		adds	r7, r7, #52
 2059              		.cfi_def_cfa_offset 12
 2060 095c BD46     		mov	sp, r7
 2061              		.cfi_def_cfa_register 13
 2062              		@ sp needed
 2063 095e 90BD     		pop	{r4, r7, pc}
 2064              		.cfi_endproc
 2065              	.LFE451:
 2067              		.section	.text.HAL_PCD_DataOutStageCallback,"ax",%progbits
 2068              		.align	1
 2069              		.weak	HAL_PCD_DataOutStageCallback
 2070              		.syntax unified
 2071              		.thumb
ARM GAS  /tmp/ccFcOOzb.s 			page 64


 2072              		.thumb_func
 2074              	HAL_PCD_DataOutStageCallback:
 2075              	.LFB452:
1510:Drivers/STM32L4xx_HAL_Driver/Src/stm32l4xx_hal_pcd.c **** #endif /* defined (USB_OTG_FS) */
1511:Drivers/STM32L4xx_HAL_Driver/Src/stm32l4xx_hal_pcd.c **** 
1512:Drivers/STM32L4xx_HAL_Driver/Src/stm32l4xx_hal_pcd.c **** #if defined (USB)
1513:Drivers/STM32L4xx_HAL_Driver/Src/stm32l4xx_hal_pcd.c **** /**
1514:Drivers/STM32L4xx_HAL_Driver/Src/stm32l4xx_hal_pcd.c ****   * @brief  This function handles PCD interrupt request.
1515:Drivers/STM32L4xx_HAL_Driver/Src/stm32l4xx_hal_pcd.c ****   * @param  hpcd PCD handle
1516:Drivers/STM32L4xx_HAL_Driver/Src/stm32l4xx_hal_pcd.c ****   * @retval HAL status
1517:Drivers/STM32L4xx_HAL_Driver/Src/stm32l4xx_hal_pcd.c ****   */
1518:Drivers/STM32L4xx_HAL_Driver/Src/stm32l4xx_hal_pcd.c **** void HAL_PCD_IRQHandler(PCD_HandleTypeDef *hpcd)
1519:Drivers/STM32L4xx_HAL_Driver/Src/stm32l4xx_hal_pcd.c **** {
1520:Drivers/STM32L4xx_HAL_Driver/Src/stm32l4xx_hal_pcd.c ****   uint32_t wIstr = USB_ReadInterrupts(hpcd->Instance);
1521:Drivers/STM32L4xx_HAL_Driver/Src/stm32l4xx_hal_pcd.c **** 
1522:Drivers/STM32L4xx_HAL_Driver/Src/stm32l4xx_hal_pcd.c ****   if ((wIstr & USB_ISTR_CTR) == USB_ISTR_CTR)
1523:Drivers/STM32L4xx_HAL_Driver/Src/stm32l4xx_hal_pcd.c ****   {
1524:Drivers/STM32L4xx_HAL_Driver/Src/stm32l4xx_hal_pcd.c ****     /* servicing of the endpoint correct transfer interrupt */
1525:Drivers/STM32L4xx_HAL_Driver/Src/stm32l4xx_hal_pcd.c ****     /* clear of the CTR flag into the sub */
1526:Drivers/STM32L4xx_HAL_Driver/Src/stm32l4xx_hal_pcd.c ****     (void)PCD_EP_ISR_Handler(hpcd);
1527:Drivers/STM32L4xx_HAL_Driver/Src/stm32l4xx_hal_pcd.c **** 
1528:Drivers/STM32L4xx_HAL_Driver/Src/stm32l4xx_hal_pcd.c ****     return;
1529:Drivers/STM32L4xx_HAL_Driver/Src/stm32l4xx_hal_pcd.c ****   }
1530:Drivers/STM32L4xx_HAL_Driver/Src/stm32l4xx_hal_pcd.c **** 
1531:Drivers/STM32L4xx_HAL_Driver/Src/stm32l4xx_hal_pcd.c ****   if ((wIstr & USB_ISTR_RESET) == USB_ISTR_RESET)
1532:Drivers/STM32L4xx_HAL_Driver/Src/stm32l4xx_hal_pcd.c ****   {
1533:Drivers/STM32L4xx_HAL_Driver/Src/stm32l4xx_hal_pcd.c ****     __HAL_PCD_CLEAR_FLAG(hpcd, USB_ISTR_RESET);
1534:Drivers/STM32L4xx_HAL_Driver/Src/stm32l4xx_hal_pcd.c **** 
1535:Drivers/STM32L4xx_HAL_Driver/Src/stm32l4xx_hal_pcd.c **** #if (USE_HAL_PCD_REGISTER_CALLBACKS == 1U)
1536:Drivers/STM32L4xx_HAL_Driver/Src/stm32l4xx_hal_pcd.c ****     hpcd->ResetCallback(hpcd);
1537:Drivers/STM32L4xx_HAL_Driver/Src/stm32l4xx_hal_pcd.c **** #else
1538:Drivers/STM32L4xx_HAL_Driver/Src/stm32l4xx_hal_pcd.c ****     HAL_PCD_ResetCallback(hpcd);
1539:Drivers/STM32L4xx_HAL_Driver/Src/stm32l4xx_hal_pcd.c **** #endif /* USE_HAL_PCD_REGISTER_CALLBACKS */
1540:Drivers/STM32L4xx_HAL_Driver/Src/stm32l4xx_hal_pcd.c **** 
1541:Drivers/STM32L4xx_HAL_Driver/Src/stm32l4xx_hal_pcd.c ****     (void)HAL_PCD_SetAddress(hpcd, 0U);
1542:Drivers/STM32L4xx_HAL_Driver/Src/stm32l4xx_hal_pcd.c **** 
1543:Drivers/STM32L4xx_HAL_Driver/Src/stm32l4xx_hal_pcd.c ****     return;
1544:Drivers/STM32L4xx_HAL_Driver/Src/stm32l4xx_hal_pcd.c ****   }
1545:Drivers/STM32L4xx_HAL_Driver/Src/stm32l4xx_hal_pcd.c **** 
1546:Drivers/STM32L4xx_HAL_Driver/Src/stm32l4xx_hal_pcd.c ****   if ((wIstr & USB_ISTR_PMAOVR) == USB_ISTR_PMAOVR)
1547:Drivers/STM32L4xx_HAL_Driver/Src/stm32l4xx_hal_pcd.c ****   {
1548:Drivers/STM32L4xx_HAL_Driver/Src/stm32l4xx_hal_pcd.c ****     __HAL_PCD_CLEAR_FLAG(hpcd, USB_ISTR_PMAOVR);
1549:Drivers/STM32L4xx_HAL_Driver/Src/stm32l4xx_hal_pcd.c **** 
1550:Drivers/STM32L4xx_HAL_Driver/Src/stm32l4xx_hal_pcd.c ****     return;
1551:Drivers/STM32L4xx_HAL_Driver/Src/stm32l4xx_hal_pcd.c ****   }
1552:Drivers/STM32L4xx_HAL_Driver/Src/stm32l4xx_hal_pcd.c **** 
1553:Drivers/STM32L4xx_HAL_Driver/Src/stm32l4xx_hal_pcd.c ****   if ((wIstr & USB_ISTR_ERR) == USB_ISTR_ERR)
1554:Drivers/STM32L4xx_HAL_Driver/Src/stm32l4xx_hal_pcd.c ****   {
1555:Drivers/STM32L4xx_HAL_Driver/Src/stm32l4xx_hal_pcd.c ****     __HAL_PCD_CLEAR_FLAG(hpcd, USB_ISTR_ERR);
1556:Drivers/STM32L4xx_HAL_Driver/Src/stm32l4xx_hal_pcd.c **** 
1557:Drivers/STM32L4xx_HAL_Driver/Src/stm32l4xx_hal_pcd.c ****     return;
1558:Drivers/STM32L4xx_HAL_Driver/Src/stm32l4xx_hal_pcd.c ****   }
1559:Drivers/STM32L4xx_HAL_Driver/Src/stm32l4xx_hal_pcd.c **** 
1560:Drivers/STM32L4xx_HAL_Driver/Src/stm32l4xx_hal_pcd.c ****   if ((wIstr & USB_ISTR_WKUP) == USB_ISTR_WKUP)
1561:Drivers/STM32L4xx_HAL_Driver/Src/stm32l4xx_hal_pcd.c ****   {
1562:Drivers/STM32L4xx_HAL_Driver/Src/stm32l4xx_hal_pcd.c ****     hpcd->Instance->CNTR &= (uint16_t) ~(USB_CNTR_LPMODE);
1563:Drivers/STM32L4xx_HAL_Driver/Src/stm32l4xx_hal_pcd.c ****     hpcd->Instance->CNTR &= (uint16_t) ~(USB_CNTR_FSUSP);
ARM GAS  /tmp/ccFcOOzb.s 			page 65


1564:Drivers/STM32L4xx_HAL_Driver/Src/stm32l4xx_hal_pcd.c **** 
1565:Drivers/STM32L4xx_HAL_Driver/Src/stm32l4xx_hal_pcd.c ****     if (hpcd->LPM_State == LPM_L1)
1566:Drivers/STM32L4xx_HAL_Driver/Src/stm32l4xx_hal_pcd.c ****     {
1567:Drivers/STM32L4xx_HAL_Driver/Src/stm32l4xx_hal_pcd.c ****       hpcd->LPM_State = LPM_L0;
1568:Drivers/STM32L4xx_HAL_Driver/Src/stm32l4xx_hal_pcd.c **** #if (USE_HAL_PCD_REGISTER_CALLBACKS == 1U)
1569:Drivers/STM32L4xx_HAL_Driver/Src/stm32l4xx_hal_pcd.c ****       hpcd->LPMCallback(hpcd, PCD_LPM_L0_ACTIVE);
1570:Drivers/STM32L4xx_HAL_Driver/Src/stm32l4xx_hal_pcd.c **** #else
1571:Drivers/STM32L4xx_HAL_Driver/Src/stm32l4xx_hal_pcd.c ****       HAL_PCDEx_LPM_Callback(hpcd, PCD_LPM_L0_ACTIVE);
1572:Drivers/STM32L4xx_HAL_Driver/Src/stm32l4xx_hal_pcd.c **** #endif /* USE_HAL_PCD_REGISTER_CALLBACKS */
1573:Drivers/STM32L4xx_HAL_Driver/Src/stm32l4xx_hal_pcd.c ****     }
1574:Drivers/STM32L4xx_HAL_Driver/Src/stm32l4xx_hal_pcd.c **** 
1575:Drivers/STM32L4xx_HAL_Driver/Src/stm32l4xx_hal_pcd.c **** #if (USE_HAL_PCD_REGISTER_CALLBACKS == 1U)
1576:Drivers/STM32L4xx_HAL_Driver/Src/stm32l4xx_hal_pcd.c ****     hpcd->ResumeCallback(hpcd);
1577:Drivers/STM32L4xx_HAL_Driver/Src/stm32l4xx_hal_pcd.c **** #else
1578:Drivers/STM32L4xx_HAL_Driver/Src/stm32l4xx_hal_pcd.c ****     HAL_PCD_ResumeCallback(hpcd);
1579:Drivers/STM32L4xx_HAL_Driver/Src/stm32l4xx_hal_pcd.c **** #endif /* USE_HAL_PCD_REGISTER_CALLBACKS */
1580:Drivers/STM32L4xx_HAL_Driver/Src/stm32l4xx_hal_pcd.c **** 
1581:Drivers/STM32L4xx_HAL_Driver/Src/stm32l4xx_hal_pcd.c ****     __HAL_PCD_CLEAR_FLAG(hpcd, USB_ISTR_WKUP);
1582:Drivers/STM32L4xx_HAL_Driver/Src/stm32l4xx_hal_pcd.c **** 
1583:Drivers/STM32L4xx_HAL_Driver/Src/stm32l4xx_hal_pcd.c ****     return;
1584:Drivers/STM32L4xx_HAL_Driver/Src/stm32l4xx_hal_pcd.c ****   }
1585:Drivers/STM32L4xx_HAL_Driver/Src/stm32l4xx_hal_pcd.c **** 
1586:Drivers/STM32L4xx_HAL_Driver/Src/stm32l4xx_hal_pcd.c ****   if ((wIstr & USB_ISTR_SUSP) == USB_ISTR_SUSP)
1587:Drivers/STM32L4xx_HAL_Driver/Src/stm32l4xx_hal_pcd.c ****   {
1588:Drivers/STM32L4xx_HAL_Driver/Src/stm32l4xx_hal_pcd.c ****     /* Force low-power mode in the macrocell */
1589:Drivers/STM32L4xx_HAL_Driver/Src/stm32l4xx_hal_pcd.c ****     hpcd->Instance->CNTR |= (uint16_t)USB_CNTR_FSUSP;
1590:Drivers/STM32L4xx_HAL_Driver/Src/stm32l4xx_hal_pcd.c **** 
1591:Drivers/STM32L4xx_HAL_Driver/Src/stm32l4xx_hal_pcd.c ****     /* clear of the ISTR bit must be done after setting of CNTR_FSUSP */
1592:Drivers/STM32L4xx_HAL_Driver/Src/stm32l4xx_hal_pcd.c ****     __HAL_PCD_CLEAR_FLAG(hpcd, USB_ISTR_SUSP);
1593:Drivers/STM32L4xx_HAL_Driver/Src/stm32l4xx_hal_pcd.c **** 
1594:Drivers/STM32L4xx_HAL_Driver/Src/stm32l4xx_hal_pcd.c ****     hpcd->Instance->CNTR |= (uint16_t)USB_CNTR_LPMODE;
1595:Drivers/STM32L4xx_HAL_Driver/Src/stm32l4xx_hal_pcd.c **** 
1596:Drivers/STM32L4xx_HAL_Driver/Src/stm32l4xx_hal_pcd.c **** #if (USE_HAL_PCD_REGISTER_CALLBACKS == 1U)
1597:Drivers/STM32L4xx_HAL_Driver/Src/stm32l4xx_hal_pcd.c ****     hpcd->SuspendCallback(hpcd);
1598:Drivers/STM32L4xx_HAL_Driver/Src/stm32l4xx_hal_pcd.c **** #else
1599:Drivers/STM32L4xx_HAL_Driver/Src/stm32l4xx_hal_pcd.c ****     HAL_PCD_SuspendCallback(hpcd);
1600:Drivers/STM32L4xx_HAL_Driver/Src/stm32l4xx_hal_pcd.c **** #endif /* USE_HAL_PCD_REGISTER_CALLBACKS */
1601:Drivers/STM32L4xx_HAL_Driver/Src/stm32l4xx_hal_pcd.c **** 
1602:Drivers/STM32L4xx_HAL_Driver/Src/stm32l4xx_hal_pcd.c ****     return;
1603:Drivers/STM32L4xx_HAL_Driver/Src/stm32l4xx_hal_pcd.c ****   }
1604:Drivers/STM32L4xx_HAL_Driver/Src/stm32l4xx_hal_pcd.c **** 
1605:Drivers/STM32L4xx_HAL_Driver/Src/stm32l4xx_hal_pcd.c ****   /* Handle LPM Interrupt */
1606:Drivers/STM32L4xx_HAL_Driver/Src/stm32l4xx_hal_pcd.c ****   if ((wIstr & USB_ISTR_L1REQ) == USB_ISTR_L1REQ)
1607:Drivers/STM32L4xx_HAL_Driver/Src/stm32l4xx_hal_pcd.c ****   {
1608:Drivers/STM32L4xx_HAL_Driver/Src/stm32l4xx_hal_pcd.c ****     __HAL_PCD_CLEAR_FLAG(hpcd, USB_ISTR_L1REQ);
1609:Drivers/STM32L4xx_HAL_Driver/Src/stm32l4xx_hal_pcd.c ****     if (hpcd->LPM_State == LPM_L0)
1610:Drivers/STM32L4xx_HAL_Driver/Src/stm32l4xx_hal_pcd.c ****     {
1611:Drivers/STM32L4xx_HAL_Driver/Src/stm32l4xx_hal_pcd.c ****       /* Force suspend and low-power mode before going to L1 state*/
1612:Drivers/STM32L4xx_HAL_Driver/Src/stm32l4xx_hal_pcd.c ****       hpcd->Instance->CNTR |= (uint16_t)USB_CNTR_LPMODE;
1613:Drivers/STM32L4xx_HAL_Driver/Src/stm32l4xx_hal_pcd.c ****       hpcd->Instance->CNTR |= (uint16_t)USB_CNTR_FSUSP;
1614:Drivers/STM32L4xx_HAL_Driver/Src/stm32l4xx_hal_pcd.c **** 
1615:Drivers/STM32L4xx_HAL_Driver/Src/stm32l4xx_hal_pcd.c ****       hpcd->LPM_State = LPM_L1;
1616:Drivers/STM32L4xx_HAL_Driver/Src/stm32l4xx_hal_pcd.c ****       hpcd->BESL = ((uint32_t)hpcd->Instance->LPMCSR & USB_LPMCSR_BESL) >> 2;
1617:Drivers/STM32L4xx_HAL_Driver/Src/stm32l4xx_hal_pcd.c **** #if (USE_HAL_PCD_REGISTER_CALLBACKS == 1U)
1618:Drivers/STM32L4xx_HAL_Driver/Src/stm32l4xx_hal_pcd.c ****       hpcd->LPMCallback(hpcd, PCD_LPM_L1_ACTIVE);
1619:Drivers/STM32L4xx_HAL_Driver/Src/stm32l4xx_hal_pcd.c **** #else
1620:Drivers/STM32L4xx_HAL_Driver/Src/stm32l4xx_hal_pcd.c ****       HAL_PCDEx_LPM_Callback(hpcd, PCD_LPM_L1_ACTIVE);
ARM GAS  /tmp/ccFcOOzb.s 			page 66


1621:Drivers/STM32L4xx_HAL_Driver/Src/stm32l4xx_hal_pcd.c **** #endif /* USE_HAL_PCD_REGISTER_CALLBACKS */
1622:Drivers/STM32L4xx_HAL_Driver/Src/stm32l4xx_hal_pcd.c ****     }
1623:Drivers/STM32L4xx_HAL_Driver/Src/stm32l4xx_hal_pcd.c ****     else
1624:Drivers/STM32L4xx_HAL_Driver/Src/stm32l4xx_hal_pcd.c ****     {
1625:Drivers/STM32L4xx_HAL_Driver/Src/stm32l4xx_hal_pcd.c **** #if (USE_HAL_PCD_REGISTER_CALLBACKS == 1U)
1626:Drivers/STM32L4xx_HAL_Driver/Src/stm32l4xx_hal_pcd.c ****       hpcd->SuspendCallback(hpcd);
1627:Drivers/STM32L4xx_HAL_Driver/Src/stm32l4xx_hal_pcd.c **** #else
1628:Drivers/STM32L4xx_HAL_Driver/Src/stm32l4xx_hal_pcd.c ****       HAL_PCD_SuspendCallback(hpcd);
1629:Drivers/STM32L4xx_HAL_Driver/Src/stm32l4xx_hal_pcd.c **** #endif /* USE_HAL_PCD_REGISTER_CALLBACKS */
1630:Drivers/STM32L4xx_HAL_Driver/Src/stm32l4xx_hal_pcd.c ****     }
1631:Drivers/STM32L4xx_HAL_Driver/Src/stm32l4xx_hal_pcd.c **** 
1632:Drivers/STM32L4xx_HAL_Driver/Src/stm32l4xx_hal_pcd.c ****     return;
1633:Drivers/STM32L4xx_HAL_Driver/Src/stm32l4xx_hal_pcd.c ****   }
1634:Drivers/STM32L4xx_HAL_Driver/Src/stm32l4xx_hal_pcd.c **** 
1635:Drivers/STM32L4xx_HAL_Driver/Src/stm32l4xx_hal_pcd.c ****   if ((wIstr & USB_ISTR_SOF) == USB_ISTR_SOF)
1636:Drivers/STM32L4xx_HAL_Driver/Src/stm32l4xx_hal_pcd.c ****   {
1637:Drivers/STM32L4xx_HAL_Driver/Src/stm32l4xx_hal_pcd.c ****     __HAL_PCD_CLEAR_FLAG(hpcd, USB_ISTR_SOF);
1638:Drivers/STM32L4xx_HAL_Driver/Src/stm32l4xx_hal_pcd.c **** 
1639:Drivers/STM32L4xx_HAL_Driver/Src/stm32l4xx_hal_pcd.c **** #if (USE_HAL_PCD_REGISTER_CALLBACKS == 1U)
1640:Drivers/STM32L4xx_HAL_Driver/Src/stm32l4xx_hal_pcd.c ****     hpcd->SOFCallback(hpcd);
1641:Drivers/STM32L4xx_HAL_Driver/Src/stm32l4xx_hal_pcd.c **** #else
1642:Drivers/STM32L4xx_HAL_Driver/Src/stm32l4xx_hal_pcd.c ****     HAL_PCD_SOFCallback(hpcd);
1643:Drivers/STM32L4xx_HAL_Driver/Src/stm32l4xx_hal_pcd.c **** #endif /* USE_HAL_PCD_REGISTER_CALLBACKS */
1644:Drivers/STM32L4xx_HAL_Driver/Src/stm32l4xx_hal_pcd.c **** 
1645:Drivers/STM32L4xx_HAL_Driver/Src/stm32l4xx_hal_pcd.c ****     return;
1646:Drivers/STM32L4xx_HAL_Driver/Src/stm32l4xx_hal_pcd.c ****   }
1647:Drivers/STM32L4xx_HAL_Driver/Src/stm32l4xx_hal_pcd.c **** 
1648:Drivers/STM32L4xx_HAL_Driver/Src/stm32l4xx_hal_pcd.c ****   if ((wIstr & USB_ISTR_ESOF) == USB_ISTR_ESOF)
1649:Drivers/STM32L4xx_HAL_Driver/Src/stm32l4xx_hal_pcd.c ****   {
1650:Drivers/STM32L4xx_HAL_Driver/Src/stm32l4xx_hal_pcd.c ****     /* clear ESOF flag in ISTR */
1651:Drivers/STM32L4xx_HAL_Driver/Src/stm32l4xx_hal_pcd.c ****     __HAL_PCD_CLEAR_FLAG(hpcd, USB_ISTR_ESOF);
1652:Drivers/STM32L4xx_HAL_Driver/Src/stm32l4xx_hal_pcd.c **** 
1653:Drivers/STM32L4xx_HAL_Driver/Src/stm32l4xx_hal_pcd.c ****     return;
1654:Drivers/STM32L4xx_HAL_Driver/Src/stm32l4xx_hal_pcd.c ****   }
1655:Drivers/STM32L4xx_HAL_Driver/Src/stm32l4xx_hal_pcd.c **** }
1656:Drivers/STM32L4xx_HAL_Driver/Src/stm32l4xx_hal_pcd.c **** #endif /* defined (USB) */
1657:Drivers/STM32L4xx_HAL_Driver/Src/stm32l4xx_hal_pcd.c **** 
1658:Drivers/STM32L4xx_HAL_Driver/Src/stm32l4xx_hal_pcd.c **** /**
1659:Drivers/STM32L4xx_HAL_Driver/Src/stm32l4xx_hal_pcd.c ****   * @brief  Data OUT stage callback.
1660:Drivers/STM32L4xx_HAL_Driver/Src/stm32l4xx_hal_pcd.c ****   * @param  hpcd PCD handle
1661:Drivers/STM32L4xx_HAL_Driver/Src/stm32l4xx_hal_pcd.c ****   * @param  epnum endpoint number
1662:Drivers/STM32L4xx_HAL_Driver/Src/stm32l4xx_hal_pcd.c ****   * @retval None
1663:Drivers/STM32L4xx_HAL_Driver/Src/stm32l4xx_hal_pcd.c ****   */
1664:Drivers/STM32L4xx_HAL_Driver/Src/stm32l4xx_hal_pcd.c **** __weak void HAL_PCD_DataOutStageCallback(PCD_HandleTypeDef *hpcd, uint8_t epnum)
1665:Drivers/STM32L4xx_HAL_Driver/Src/stm32l4xx_hal_pcd.c **** {
 2076              		.loc 1 1665 1
 2077              		.cfi_startproc
 2078              		@ args = 0, pretend = 0, frame = 8
 2079              		@ frame_needed = 1, uses_anonymous_args = 0
 2080              		@ link register save eliminated.
 2081 0000 80B4     		push	{r7}
 2082              		.cfi_def_cfa_offset 4
 2083              		.cfi_offset 7, -4
 2084 0002 83B0     		sub	sp, sp, #12
 2085              		.cfi_def_cfa_offset 16
 2086 0004 00AF     		add	r7, sp, #0
 2087              		.cfi_def_cfa_register 7
ARM GAS  /tmp/ccFcOOzb.s 			page 67


 2088 0006 7860     		str	r0, [r7, #4]
 2089 0008 0B46     		mov	r3, r1
 2090 000a FB70     		strb	r3, [r7, #3]
1666:Drivers/STM32L4xx_HAL_Driver/Src/stm32l4xx_hal_pcd.c ****   /* Prevent unused argument(s) compilation warning */
1667:Drivers/STM32L4xx_HAL_Driver/Src/stm32l4xx_hal_pcd.c ****   UNUSED(hpcd);
1668:Drivers/STM32L4xx_HAL_Driver/Src/stm32l4xx_hal_pcd.c ****   UNUSED(epnum);
1669:Drivers/STM32L4xx_HAL_Driver/Src/stm32l4xx_hal_pcd.c **** 
1670:Drivers/STM32L4xx_HAL_Driver/Src/stm32l4xx_hal_pcd.c ****   /* NOTE : This function should not be modified, when the callback is needed,
1671:Drivers/STM32L4xx_HAL_Driver/Src/stm32l4xx_hal_pcd.c ****             the HAL_PCD_DataOutStageCallback could be implemented in the user file
1672:Drivers/STM32L4xx_HAL_Driver/Src/stm32l4xx_hal_pcd.c ****    */
1673:Drivers/STM32L4xx_HAL_Driver/Src/stm32l4xx_hal_pcd.c **** }
 2091              		.loc 1 1673 1
 2092 000c 00BF     		nop
 2093 000e 0C37     		adds	r7, r7, #12
 2094              		.cfi_def_cfa_offset 4
 2095 0010 BD46     		mov	sp, r7
 2096              		.cfi_def_cfa_register 13
 2097              		@ sp needed
 2098 0012 5DF8047B 		ldr	r7, [sp], #4
 2099              		.cfi_restore 7
 2100              		.cfi_def_cfa_offset 0
 2101 0016 7047     		bx	lr
 2102              		.cfi_endproc
 2103              	.LFE452:
 2105              		.section	.text.HAL_PCD_DataInStageCallback,"ax",%progbits
 2106              		.align	1
 2107              		.weak	HAL_PCD_DataInStageCallback
 2108              		.syntax unified
 2109              		.thumb
 2110              		.thumb_func
 2112              	HAL_PCD_DataInStageCallback:
 2113              	.LFB453:
1674:Drivers/STM32L4xx_HAL_Driver/Src/stm32l4xx_hal_pcd.c **** 
1675:Drivers/STM32L4xx_HAL_Driver/Src/stm32l4xx_hal_pcd.c **** /**
1676:Drivers/STM32L4xx_HAL_Driver/Src/stm32l4xx_hal_pcd.c ****   * @brief  Data IN stage callback
1677:Drivers/STM32L4xx_HAL_Driver/Src/stm32l4xx_hal_pcd.c ****   * @param  hpcd PCD handle
1678:Drivers/STM32L4xx_HAL_Driver/Src/stm32l4xx_hal_pcd.c ****   * @param  epnum endpoint number
1679:Drivers/STM32L4xx_HAL_Driver/Src/stm32l4xx_hal_pcd.c ****   * @retval None
1680:Drivers/STM32L4xx_HAL_Driver/Src/stm32l4xx_hal_pcd.c ****   */
1681:Drivers/STM32L4xx_HAL_Driver/Src/stm32l4xx_hal_pcd.c **** __weak void HAL_PCD_DataInStageCallback(PCD_HandleTypeDef *hpcd, uint8_t epnum)
1682:Drivers/STM32L4xx_HAL_Driver/Src/stm32l4xx_hal_pcd.c **** {
 2114              		.loc 1 1682 1
 2115              		.cfi_startproc
 2116              		@ args = 0, pretend = 0, frame = 8
 2117              		@ frame_needed = 1, uses_anonymous_args = 0
 2118              		@ link register save eliminated.
 2119 0000 80B4     		push	{r7}
 2120              		.cfi_def_cfa_offset 4
 2121              		.cfi_offset 7, -4
 2122 0002 83B0     		sub	sp, sp, #12
 2123              		.cfi_def_cfa_offset 16
 2124 0004 00AF     		add	r7, sp, #0
 2125              		.cfi_def_cfa_register 7
 2126 0006 7860     		str	r0, [r7, #4]
 2127 0008 0B46     		mov	r3, r1
 2128 000a FB70     		strb	r3, [r7, #3]
1683:Drivers/STM32L4xx_HAL_Driver/Src/stm32l4xx_hal_pcd.c ****   /* Prevent unused argument(s) compilation warning */
ARM GAS  /tmp/ccFcOOzb.s 			page 68


1684:Drivers/STM32L4xx_HAL_Driver/Src/stm32l4xx_hal_pcd.c ****   UNUSED(hpcd);
1685:Drivers/STM32L4xx_HAL_Driver/Src/stm32l4xx_hal_pcd.c ****   UNUSED(epnum);
1686:Drivers/STM32L4xx_HAL_Driver/Src/stm32l4xx_hal_pcd.c **** 
1687:Drivers/STM32L4xx_HAL_Driver/Src/stm32l4xx_hal_pcd.c ****   /* NOTE : This function should not be modified, when the callback is needed,
1688:Drivers/STM32L4xx_HAL_Driver/Src/stm32l4xx_hal_pcd.c ****             the HAL_PCD_DataInStageCallback could be implemented in the user file
1689:Drivers/STM32L4xx_HAL_Driver/Src/stm32l4xx_hal_pcd.c ****    */
1690:Drivers/STM32L4xx_HAL_Driver/Src/stm32l4xx_hal_pcd.c **** }
 2129              		.loc 1 1690 1
 2130 000c 00BF     		nop
 2131 000e 0C37     		adds	r7, r7, #12
 2132              		.cfi_def_cfa_offset 4
 2133 0010 BD46     		mov	sp, r7
 2134              		.cfi_def_cfa_register 13
 2135              		@ sp needed
 2136 0012 5DF8047B 		ldr	r7, [sp], #4
 2137              		.cfi_restore 7
 2138              		.cfi_def_cfa_offset 0
 2139 0016 7047     		bx	lr
 2140              		.cfi_endproc
 2141              	.LFE453:
 2143              		.section	.text.HAL_PCD_SetupStageCallback,"ax",%progbits
 2144              		.align	1
 2145              		.weak	HAL_PCD_SetupStageCallback
 2146              		.syntax unified
 2147              		.thumb
 2148              		.thumb_func
 2150              	HAL_PCD_SetupStageCallback:
 2151              	.LFB454:
1691:Drivers/STM32L4xx_HAL_Driver/Src/stm32l4xx_hal_pcd.c **** /**
1692:Drivers/STM32L4xx_HAL_Driver/Src/stm32l4xx_hal_pcd.c ****   * @brief  Setup stage callback
1693:Drivers/STM32L4xx_HAL_Driver/Src/stm32l4xx_hal_pcd.c ****   * @param  hpcd PCD handle
1694:Drivers/STM32L4xx_HAL_Driver/Src/stm32l4xx_hal_pcd.c ****   * @retval None
1695:Drivers/STM32L4xx_HAL_Driver/Src/stm32l4xx_hal_pcd.c ****   */
1696:Drivers/STM32L4xx_HAL_Driver/Src/stm32l4xx_hal_pcd.c **** __weak void HAL_PCD_SetupStageCallback(PCD_HandleTypeDef *hpcd)
1697:Drivers/STM32L4xx_HAL_Driver/Src/stm32l4xx_hal_pcd.c **** {
 2152              		.loc 1 1697 1
 2153              		.cfi_startproc
 2154              		@ args = 0, pretend = 0, frame = 8
 2155              		@ frame_needed = 1, uses_anonymous_args = 0
 2156              		@ link register save eliminated.
 2157 0000 80B4     		push	{r7}
 2158              		.cfi_def_cfa_offset 4
 2159              		.cfi_offset 7, -4
 2160 0002 83B0     		sub	sp, sp, #12
 2161              		.cfi_def_cfa_offset 16
 2162 0004 00AF     		add	r7, sp, #0
 2163              		.cfi_def_cfa_register 7
 2164 0006 7860     		str	r0, [r7, #4]
1698:Drivers/STM32L4xx_HAL_Driver/Src/stm32l4xx_hal_pcd.c ****   /* Prevent unused argument(s) compilation warning */
1699:Drivers/STM32L4xx_HAL_Driver/Src/stm32l4xx_hal_pcd.c ****   UNUSED(hpcd);
1700:Drivers/STM32L4xx_HAL_Driver/Src/stm32l4xx_hal_pcd.c **** 
1701:Drivers/STM32L4xx_HAL_Driver/Src/stm32l4xx_hal_pcd.c ****   /* NOTE : This function should not be modified, when the callback is needed,
1702:Drivers/STM32L4xx_HAL_Driver/Src/stm32l4xx_hal_pcd.c ****             the HAL_PCD_SetupStageCallback could be implemented in the user file
1703:Drivers/STM32L4xx_HAL_Driver/Src/stm32l4xx_hal_pcd.c ****    */
1704:Drivers/STM32L4xx_HAL_Driver/Src/stm32l4xx_hal_pcd.c **** }
 2165              		.loc 1 1704 1
 2166 0008 00BF     		nop
ARM GAS  /tmp/ccFcOOzb.s 			page 69


 2167 000a 0C37     		adds	r7, r7, #12
 2168              		.cfi_def_cfa_offset 4
 2169 000c BD46     		mov	sp, r7
 2170              		.cfi_def_cfa_register 13
 2171              		@ sp needed
 2172 000e 5DF8047B 		ldr	r7, [sp], #4
 2173              		.cfi_restore 7
 2174              		.cfi_def_cfa_offset 0
 2175 0012 7047     		bx	lr
 2176              		.cfi_endproc
 2177              	.LFE454:
 2179              		.section	.text.HAL_PCD_SOFCallback,"ax",%progbits
 2180              		.align	1
 2181              		.weak	HAL_PCD_SOFCallback
 2182              		.syntax unified
 2183              		.thumb
 2184              		.thumb_func
 2186              	HAL_PCD_SOFCallback:
 2187              	.LFB455:
1705:Drivers/STM32L4xx_HAL_Driver/Src/stm32l4xx_hal_pcd.c **** 
1706:Drivers/STM32L4xx_HAL_Driver/Src/stm32l4xx_hal_pcd.c **** /**
1707:Drivers/STM32L4xx_HAL_Driver/Src/stm32l4xx_hal_pcd.c ****   * @brief  USB Start Of Frame callback.
1708:Drivers/STM32L4xx_HAL_Driver/Src/stm32l4xx_hal_pcd.c ****   * @param  hpcd PCD handle
1709:Drivers/STM32L4xx_HAL_Driver/Src/stm32l4xx_hal_pcd.c ****   * @retval None
1710:Drivers/STM32L4xx_HAL_Driver/Src/stm32l4xx_hal_pcd.c ****   */
1711:Drivers/STM32L4xx_HAL_Driver/Src/stm32l4xx_hal_pcd.c **** __weak void HAL_PCD_SOFCallback(PCD_HandleTypeDef *hpcd)
1712:Drivers/STM32L4xx_HAL_Driver/Src/stm32l4xx_hal_pcd.c **** {
 2188              		.loc 1 1712 1
 2189              		.cfi_startproc
 2190              		@ args = 0, pretend = 0, frame = 8
 2191              		@ frame_needed = 1, uses_anonymous_args = 0
 2192              		@ link register save eliminated.
 2193 0000 80B4     		push	{r7}
 2194              		.cfi_def_cfa_offset 4
 2195              		.cfi_offset 7, -4
 2196 0002 83B0     		sub	sp, sp, #12
 2197              		.cfi_def_cfa_offset 16
 2198 0004 00AF     		add	r7, sp, #0
 2199              		.cfi_def_cfa_register 7
 2200 0006 7860     		str	r0, [r7, #4]
1713:Drivers/STM32L4xx_HAL_Driver/Src/stm32l4xx_hal_pcd.c ****   /* Prevent unused argument(s) compilation warning */
1714:Drivers/STM32L4xx_HAL_Driver/Src/stm32l4xx_hal_pcd.c ****   UNUSED(hpcd);
1715:Drivers/STM32L4xx_HAL_Driver/Src/stm32l4xx_hal_pcd.c **** 
1716:Drivers/STM32L4xx_HAL_Driver/Src/stm32l4xx_hal_pcd.c ****   /* NOTE : This function should not be modified, when the callback is needed,
1717:Drivers/STM32L4xx_HAL_Driver/Src/stm32l4xx_hal_pcd.c ****             the HAL_PCD_SOFCallback could be implemented in the user file
1718:Drivers/STM32L4xx_HAL_Driver/Src/stm32l4xx_hal_pcd.c ****    */
1719:Drivers/STM32L4xx_HAL_Driver/Src/stm32l4xx_hal_pcd.c **** }
 2201              		.loc 1 1719 1
 2202 0008 00BF     		nop
 2203 000a 0C37     		adds	r7, r7, #12
 2204              		.cfi_def_cfa_offset 4
 2205 000c BD46     		mov	sp, r7
 2206              		.cfi_def_cfa_register 13
 2207              		@ sp needed
 2208 000e 5DF8047B 		ldr	r7, [sp], #4
 2209              		.cfi_restore 7
 2210              		.cfi_def_cfa_offset 0
ARM GAS  /tmp/ccFcOOzb.s 			page 70


 2211 0012 7047     		bx	lr
 2212              		.cfi_endproc
 2213              	.LFE455:
 2215              		.section	.text.HAL_PCD_ResetCallback,"ax",%progbits
 2216              		.align	1
 2217              		.weak	HAL_PCD_ResetCallback
 2218              		.syntax unified
 2219              		.thumb
 2220              		.thumb_func
 2222              	HAL_PCD_ResetCallback:
 2223              	.LFB456:
1720:Drivers/STM32L4xx_HAL_Driver/Src/stm32l4xx_hal_pcd.c **** 
1721:Drivers/STM32L4xx_HAL_Driver/Src/stm32l4xx_hal_pcd.c **** /**
1722:Drivers/STM32L4xx_HAL_Driver/Src/stm32l4xx_hal_pcd.c ****   * @brief  USB Reset callback.
1723:Drivers/STM32L4xx_HAL_Driver/Src/stm32l4xx_hal_pcd.c ****   * @param  hpcd PCD handle
1724:Drivers/STM32L4xx_HAL_Driver/Src/stm32l4xx_hal_pcd.c ****   * @retval None
1725:Drivers/STM32L4xx_HAL_Driver/Src/stm32l4xx_hal_pcd.c ****   */
1726:Drivers/STM32L4xx_HAL_Driver/Src/stm32l4xx_hal_pcd.c **** __weak void HAL_PCD_ResetCallback(PCD_HandleTypeDef *hpcd)
1727:Drivers/STM32L4xx_HAL_Driver/Src/stm32l4xx_hal_pcd.c **** {
 2224              		.loc 1 1727 1
 2225              		.cfi_startproc
 2226              		@ args = 0, pretend = 0, frame = 8
 2227              		@ frame_needed = 1, uses_anonymous_args = 0
 2228              		@ link register save eliminated.
 2229 0000 80B4     		push	{r7}
 2230              		.cfi_def_cfa_offset 4
 2231              		.cfi_offset 7, -4
 2232 0002 83B0     		sub	sp, sp, #12
 2233              		.cfi_def_cfa_offset 16
 2234 0004 00AF     		add	r7, sp, #0
 2235              		.cfi_def_cfa_register 7
 2236 0006 7860     		str	r0, [r7, #4]
1728:Drivers/STM32L4xx_HAL_Driver/Src/stm32l4xx_hal_pcd.c ****   /* Prevent unused argument(s) compilation warning */
1729:Drivers/STM32L4xx_HAL_Driver/Src/stm32l4xx_hal_pcd.c ****   UNUSED(hpcd);
1730:Drivers/STM32L4xx_HAL_Driver/Src/stm32l4xx_hal_pcd.c **** 
1731:Drivers/STM32L4xx_HAL_Driver/Src/stm32l4xx_hal_pcd.c ****   /* NOTE : This function should not be modified, when the callback is needed,
1732:Drivers/STM32L4xx_HAL_Driver/Src/stm32l4xx_hal_pcd.c ****             the HAL_PCD_ResetCallback could be implemented in the user file
1733:Drivers/STM32L4xx_HAL_Driver/Src/stm32l4xx_hal_pcd.c ****    */
1734:Drivers/STM32L4xx_HAL_Driver/Src/stm32l4xx_hal_pcd.c **** }
 2237              		.loc 1 1734 1
 2238 0008 00BF     		nop
 2239 000a 0C37     		adds	r7, r7, #12
 2240              		.cfi_def_cfa_offset 4
 2241 000c BD46     		mov	sp, r7
 2242              		.cfi_def_cfa_register 13
 2243              		@ sp needed
 2244 000e 5DF8047B 		ldr	r7, [sp], #4
 2245              		.cfi_restore 7
 2246              		.cfi_def_cfa_offset 0
 2247 0012 7047     		bx	lr
 2248              		.cfi_endproc
 2249              	.LFE456:
 2251              		.section	.text.HAL_PCD_SuspendCallback,"ax",%progbits
 2252              		.align	1
 2253              		.weak	HAL_PCD_SuspendCallback
 2254              		.syntax unified
 2255              		.thumb
ARM GAS  /tmp/ccFcOOzb.s 			page 71


 2256              		.thumb_func
 2258              	HAL_PCD_SuspendCallback:
 2259              	.LFB457:
1735:Drivers/STM32L4xx_HAL_Driver/Src/stm32l4xx_hal_pcd.c **** 
1736:Drivers/STM32L4xx_HAL_Driver/Src/stm32l4xx_hal_pcd.c **** /**
1737:Drivers/STM32L4xx_HAL_Driver/Src/stm32l4xx_hal_pcd.c ****   * @brief  Suspend event callback.
1738:Drivers/STM32L4xx_HAL_Driver/Src/stm32l4xx_hal_pcd.c ****   * @param  hpcd PCD handle
1739:Drivers/STM32L4xx_HAL_Driver/Src/stm32l4xx_hal_pcd.c ****   * @retval None
1740:Drivers/STM32L4xx_HAL_Driver/Src/stm32l4xx_hal_pcd.c ****   */
1741:Drivers/STM32L4xx_HAL_Driver/Src/stm32l4xx_hal_pcd.c **** __weak void HAL_PCD_SuspendCallback(PCD_HandleTypeDef *hpcd)
1742:Drivers/STM32L4xx_HAL_Driver/Src/stm32l4xx_hal_pcd.c **** {
 2260              		.loc 1 1742 1
 2261              		.cfi_startproc
 2262              		@ args = 0, pretend = 0, frame = 8
 2263              		@ frame_needed = 1, uses_anonymous_args = 0
 2264              		@ link register save eliminated.
 2265 0000 80B4     		push	{r7}
 2266              		.cfi_def_cfa_offset 4
 2267              		.cfi_offset 7, -4
 2268 0002 83B0     		sub	sp, sp, #12
 2269              		.cfi_def_cfa_offset 16
 2270 0004 00AF     		add	r7, sp, #0
 2271              		.cfi_def_cfa_register 7
 2272 0006 7860     		str	r0, [r7, #4]
1743:Drivers/STM32L4xx_HAL_Driver/Src/stm32l4xx_hal_pcd.c ****   /* Prevent unused argument(s) compilation warning */
1744:Drivers/STM32L4xx_HAL_Driver/Src/stm32l4xx_hal_pcd.c ****   UNUSED(hpcd);
1745:Drivers/STM32L4xx_HAL_Driver/Src/stm32l4xx_hal_pcd.c **** 
1746:Drivers/STM32L4xx_HAL_Driver/Src/stm32l4xx_hal_pcd.c ****   /* NOTE : This function should not be modified, when the callback is needed,
1747:Drivers/STM32L4xx_HAL_Driver/Src/stm32l4xx_hal_pcd.c ****             the HAL_PCD_SuspendCallback could be implemented in the user file
1748:Drivers/STM32L4xx_HAL_Driver/Src/stm32l4xx_hal_pcd.c ****    */
1749:Drivers/STM32L4xx_HAL_Driver/Src/stm32l4xx_hal_pcd.c **** }
 2273              		.loc 1 1749 1
 2274 0008 00BF     		nop
 2275 000a 0C37     		adds	r7, r7, #12
 2276              		.cfi_def_cfa_offset 4
 2277 000c BD46     		mov	sp, r7
 2278              		.cfi_def_cfa_register 13
 2279              		@ sp needed
 2280 000e 5DF8047B 		ldr	r7, [sp], #4
 2281              		.cfi_restore 7
 2282              		.cfi_def_cfa_offset 0
 2283 0012 7047     		bx	lr
 2284              		.cfi_endproc
 2285              	.LFE457:
 2287              		.section	.text.HAL_PCD_ResumeCallback,"ax",%progbits
 2288              		.align	1
 2289              		.weak	HAL_PCD_ResumeCallback
 2290              		.syntax unified
 2291              		.thumb
 2292              		.thumb_func
 2294              	HAL_PCD_ResumeCallback:
 2295              	.LFB458:
1750:Drivers/STM32L4xx_HAL_Driver/Src/stm32l4xx_hal_pcd.c **** 
1751:Drivers/STM32L4xx_HAL_Driver/Src/stm32l4xx_hal_pcd.c **** /**
1752:Drivers/STM32L4xx_HAL_Driver/Src/stm32l4xx_hal_pcd.c ****   * @brief  Resume event callback.
1753:Drivers/STM32L4xx_HAL_Driver/Src/stm32l4xx_hal_pcd.c ****   * @param  hpcd PCD handle
1754:Drivers/STM32L4xx_HAL_Driver/Src/stm32l4xx_hal_pcd.c ****   * @retval None
ARM GAS  /tmp/ccFcOOzb.s 			page 72


1755:Drivers/STM32L4xx_HAL_Driver/Src/stm32l4xx_hal_pcd.c ****   */
1756:Drivers/STM32L4xx_HAL_Driver/Src/stm32l4xx_hal_pcd.c **** __weak void HAL_PCD_ResumeCallback(PCD_HandleTypeDef *hpcd)
1757:Drivers/STM32L4xx_HAL_Driver/Src/stm32l4xx_hal_pcd.c **** {
 2296              		.loc 1 1757 1
 2297              		.cfi_startproc
 2298              		@ args = 0, pretend = 0, frame = 8
 2299              		@ frame_needed = 1, uses_anonymous_args = 0
 2300              		@ link register save eliminated.
 2301 0000 80B4     		push	{r7}
 2302              		.cfi_def_cfa_offset 4
 2303              		.cfi_offset 7, -4
 2304 0002 83B0     		sub	sp, sp, #12
 2305              		.cfi_def_cfa_offset 16
 2306 0004 00AF     		add	r7, sp, #0
 2307              		.cfi_def_cfa_register 7
 2308 0006 7860     		str	r0, [r7, #4]
1758:Drivers/STM32L4xx_HAL_Driver/Src/stm32l4xx_hal_pcd.c ****   /* Prevent unused argument(s) compilation warning */
1759:Drivers/STM32L4xx_HAL_Driver/Src/stm32l4xx_hal_pcd.c ****   UNUSED(hpcd);
