ARM GAS  /tmp/ccOrMXd6.s 			page 1


   1              		.cpu cortex-m4
   2              		.arch armv7e-m
   3              		.fpu fpv4-sp-d16
   4              		.eabi_attribute 27, 1
   5              		.eabi_attribute 28, 1
   6              		.eabi_attribute 20, 1
   7              		.eabi_attribute 21, 1
   8              		.eabi_attribute 23, 3
   9              		.eabi_attribute 24, 1
  10              		.eabi_attribute 25, 1
  11              		.eabi_attribute 26, 1
  12              		.eabi_attribute 30, 6
  13              		.eabi_attribute 34, 1
  14              		.eabi_attribute 18, 4
  15              		.file	"stm32l4xx_hal_wwdg.c"
  16              		.text
  17              	.Ltext0:
  18              		.cfi_sections	.debug_frame
  19              		.file 1 "Drivers/STM32L4xx_HAL_Driver/Src/stm32l4xx_hal_wwdg.c"
  20              		.section	.rodata.CHANNEL_OFFSET_TAB,"a"
  21              		.align	2
  24              	CHANNEL_OFFSET_TAB:
  25 0000 081C3044 		.ascii	"\010\0340DXl\200"
  25      586C80
  26              		.section	.text.HAL_WWDG_Init,"ax",%progbits
  27              		.align	1
  28              		.global	HAL_WWDG_Init
  29              		.syntax unified
  30              		.thumb
  31              		.thumb_func
  33              	HAL_WWDG_Init:
  34              	.LFB445:
   1:Drivers/STM32L4xx_HAL_Driver/Src/stm32l4xx_hal_wwdg.c **** /**
   2:Drivers/STM32L4xx_HAL_Driver/Src/stm32l4xx_hal_wwdg.c ****   ******************************************************************************
   3:Drivers/STM32L4xx_HAL_Driver/Src/stm32l4xx_hal_wwdg.c ****   * @file    stm32l4xx_hal_wwdg.c
   4:Drivers/STM32L4xx_HAL_Driver/Src/stm32l4xx_hal_wwdg.c ****   * @author  MCD Application Team
   5:Drivers/STM32L4xx_HAL_Driver/Src/stm32l4xx_hal_wwdg.c ****   * @brief   WWDG HAL module driver.
   6:Drivers/STM32L4xx_HAL_Driver/Src/stm32l4xx_hal_wwdg.c ****   *          This file provides firmware functions to manage the following
   7:Drivers/STM32L4xx_HAL_Driver/Src/stm32l4xx_hal_wwdg.c ****   *          functionalities of the Window Watchdog (WWDG) peripheral:
   8:Drivers/STM32L4xx_HAL_Driver/Src/stm32l4xx_hal_wwdg.c ****   *           + Initialization and Configuration functions
   9:Drivers/STM32L4xx_HAL_Driver/Src/stm32l4xx_hal_wwdg.c ****   *           + IO operation functions
  10:Drivers/STM32L4xx_HAL_Driver/Src/stm32l4xx_hal_wwdg.c ****   ******************************************************************************
  11:Drivers/STM32L4xx_HAL_Driver/Src/stm32l4xx_hal_wwdg.c ****   * @attention
  12:Drivers/STM32L4xx_HAL_Driver/Src/stm32l4xx_hal_wwdg.c ****   *
  13:Drivers/STM32L4xx_HAL_Driver/Src/stm32l4xx_hal_wwdg.c ****   * Copyright (c) 2017 STMicroelectronics.
  14:Drivers/STM32L4xx_HAL_Driver/Src/stm32l4xx_hal_wwdg.c ****   * All rights reserved.
  15:Drivers/STM32L4xx_HAL_Driver/Src/stm32l4xx_hal_wwdg.c ****   *
  16:Drivers/STM32L4xx_HAL_Driver/Src/stm32l4xx_hal_wwdg.c ****   * This software is licensed under terms that can be found in the LICENSE file
  17:Drivers/STM32L4xx_HAL_Driver/Src/stm32l4xx_hal_wwdg.c ****   * in the root directory of this software component.
  18:Drivers/STM32L4xx_HAL_Driver/Src/stm32l4xx_hal_wwdg.c ****   * If no LICENSE file comes with this software, it is provided AS-IS.
  19:Drivers/STM32L4xx_HAL_Driver/Src/stm32l4xx_hal_wwdg.c ****   *
  20:Drivers/STM32L4xx_HAL_Driver/Src/stm32l4xx_hal_wwdg.c ****   ******************************************************************************
  21:Drivers/STM32L4xx_HAL_Driver/Src/stm32l4xx_hal_wwdg.c ****   @verbatim
  22:Drivers/STM32L4xx_HAL_Driver/Src/stm32l4xx_hal_wwdg.c ****   ==============================================================================
  23:Drivers/STM32L4xx_HAL_Driver/Src/stm32l4xx_hal_wwdg.c ****                       ##### WWDG Specific features #####
  24:Drivers/STM32L4xx_HAL_Driver/Src/stm32l4xx_hal_wwdg.c ****   ==============================================================================
  25:Drivers/STM32L4xx_HAL_Driver/Src/stm32l4xx_hal_wwdg.c ****   [..]
ARM GAS  /tmp/ccOrMXd6.s 			page 2


  26:Drivers/STM32L4xx_HAL_Driver/Src/stm32l4xx_hal_wwdg.c ****     Once enabled the WWDG generates a system reset on expiry of a programmed
  27:Drivers/STM32L4xx_HAL_Driver/Src/stm32l4xx_hal_wwdg.c ****     time period, unless the program refreshes the counter (T[6;0] downcounter)
  28:Drivers/STM32L4xx_HAL_Driver/Src/stm32l4xx_hal_wwdg.c ****     before reaching 0x3F value (i.e. a reset is generated when the counter
  29:Drivers/STM32L4xx_HAL_Driver/Src/stm32l4xx_hal_wwdg.c ****     value rolls down from 0x40 to 0x3F).
  30:Drivers/STM32L4xx_HAL_Driver/Src/stm32l4xx_hal_wwdg.c **** 
  31:Drivers/STM32L4xx_HAL_Driver/Src/stm32l4xx_hal_wwdg.c ****     (+) An MCU reset is also generated if the counter value is refreshed
  32:Drivers/STM32L4xx_HAL_Driver/Src/stm32l4xx_hal_wwdg.c ****         before the counter has reached the refresh window value. This
  33:Drivers/STM32L4xx_HAL_Driver/Src/stm32l4xx_hal_wwdg.c ****         implies that the counter must be refreshed in a limited window.
  34:Drivers/STM32L4xx_HAL_Driver/Src/stm32l4xx_hal_wwdg.c ****     (+) Once enabled the WWDG cannot be disabled except by a system reset.
  35:Drivers/STM32L4xx_HAL_Driver/Src/stm32l4xx_hal_wwdg.c ****     (+) If required by application, an Early Wakeup Interrupt can be triggered
  36:Drivers/STM32L4xx_HAL_Driver/Src/stm32l4xx_hal_wwdg.c ****         in order to be warned before WWDG expiration. The Early Wakeup Interrupt
  37:Drivers/STM32L4xx_HAL_Driver/Src/stm32l4xx_hal_wwdg.c ****         (EWI) can be used if specific safety operations or data logging must
  38:Drivers/STM32L4xx_HAL_Driver/Src/stm32l4xx_hal_wwdg.c ****         be performed before the actual reset is generated. When the downcounter
  39:Drivers/STM32L4xx_HAL_Driver/Src/stm32l4xx_hal_wwdg.c ****         reaches 0x40, interrupt occurs. This mechanism requires WWDG interrupt
  40:Drivers/STM32L4xx_HAL_Driver/Src/stm32l4xx_hal_wwdg.c ****         line to be enabled in NVIC. Once enabled, EWI interrupt cannot be
  41:Drivers/STM32L4xx_HAL_Driver/Src/stm32l4xx_hal_wwdg.c ****         disabled except by a system reset.
  42:Drivers/STM32L4xx_HAL_Driver/Src/stm32l4xx_hal_wwdg.c ****     (+) WWDGRST flag in RCC CSR register can be used to inform when a WWDG
  43:Drivers/STM32L4xx_HAL_Driver/Src/stm32l4xx_hal_wwdg.c ****         reset occurs.
  44:Drivers/STM32L4xx_HAL_Driver/Src/stm32l4xx_hal_wwdg.c ****     (+) The WWDG counter input clock is derived from the APB clock divided
  45:Drivers/STM32L4xx_HAL_Driver/Src/stm32l4xx_hal_wwdg.c ****         by a programmable prescaler.
  46:Drivers/STM32L4xx_HAL_Driver/Src/stm32l4xx_hal_wwdg.c ****     (+) WWDG clock (Hz) = PCLK1 / (4096 * Prescaler)
  47:Drivers/STM32L4xx_HAL_Driver/Src/stm32l4xx_hal_wwdg.c ****     (+) WWDG timeout (mS) = 1000 * (T[5;0] + 1) / WWDG clock (Hz)
  48:Drivers/STM32L4xx_HAL_Driver/Src/stm32l4xx_hal_wwdg.c ****         where T[5;0] are the lowest 6 bits of Counter.
  49:Drivers/STM32L4xx_HAL_Driver/Src/stm32l4xx_hal_wwdg.c ****     (+) WWDG Counter refresh is allowed between the following limits :
  50:Drivers/STM32L4xx_HAL_Driver/Src/stm32l4xx_hal_wwdg.c ****         (++) min time (mS) = 1000 * (Counter - Window) / WWDG clock
  51:Drivers/STM32L4xx_HAL_Driver/Src/stm32l4xx_hal_wwdg.c ****         (++) max time (mS) = 1000 * (Counter - 0x40) / WWDG clock
  52:Drivers/STM32L4xx_HAL_Driver/Src/stm32l4xx_hal_wwdg.c ****     (+) Typical values:
  53:Drivers/STM32L4xx_HAL_Driver/Src/stm32l4xx_hal_wwdg.c ****         (++) Counter min (T[5;0] = 0x00) at 56MHz (PCLK1) with zero prescaler:
  54:Drivers/STM32L4xx_HAL_Driver/Src/stm32l4xx_hal_wwdg.c ****              max timeout before reset: approximately 73.14us
  55:Drivers/STM32L4xx_HAL_Driver/Src/stm32l4xx_hal_wwdg.c ****         (++) Counter max (T[5;0] = 0x3F) at 56MHz (PCLK1) with prescaler
  56:Drivers/STM32L4xx_HAL_Driver/Src/stm32l4xx_hal_wwdg.c ****              dividing by 8:
  57:Drivers/STM32L4xx_HAL_Driver/Src/stm32l4xx_hal_wwdg.c ****              max timeout before reset: approximately 599.18ms
  58:Drivers/STM32L4xx_HAL_Driver/Src/stm32l4xx_hal_wwdg.c **** 
  59:Drivers/STM32L4xx_HAL_Driver/Src/stm32l4xx_hal_wwdg.c ****                      ##### How to use this driver #####
  60:Drivers/STM32L4xx_HAL_Driver/Src/stm32l4xx_hal_wwdg.c ****   ==============================================================================
  61:Drivers/STM32L4xx_HAL_Driver/Src/stm32l4xx_hal_wwdg.c **** 
  62:Drivers/STM32L4xx_HAL_Driver/Src/stm32l4xx_hal_wwdg.c ****     *** Common driver usage ***
  63:Drivers/STM32L4xx_HAL_Driver/Src/stm32l4xx_hal_wwdg.c ****     ===========================
  64:Drivers/STM32L4xx_HAL_Driver/Src/stm32l4xx_hal_wwdg.c **** 
  65:Drivers/STM32L4xx_HAL_Driver/Src/stm32l4xx_hal_wwdg.c ****   [..]
  66:Drivers/STM32L4xx_HAL_Driver/Src/stm32l4xx_hal_wwdg.c ****     (+) Enable WWDG APB1 clock using __HAL_RCC_WWDG_CLK_ENABLE().
  67:Drivers/STM32L4xx_HAL_Driver/Src/stm32l4xx_hal_wwdg.c ****     (+) Configure the WWDG prescaler, refresh window value, counter value and early
  68:Drivers/STM32L4xx_HAL_Driver/Src/stm32l4xx_hal_wwdg.c ****         interrupt status using HAL_WWDG_Init() function. This will automatically
  69:Drivers/STM32L4xx_HAL_Driver/Src/stm32l4xx_hal_wwdg.c ****         enable WWDG and start its downcounter. Time reference can be taken from
  70:Drivers/STM32L4xx_HAL_Driver/Src/stm32l4xx_hal_wwdg.c ****         function exit. Care must be taken to provide a counter value
  71:Drivers/STM32L4xx_HAL_Driver/Src/stm32l4xx_hal_wwdg.c ****         greater than 0x40 to prevent generation of immediate reset.
  72:Drivers/STM32L4xx_HAL_Driver/Src/stm32l4xx_hal_wwdg.c ****     (+) If the Early Wakeup Interrupt (EWI) feature is enabled, an interrupt is
  73:Drivers/STM32L4xx_HAL_Driver/Src/stm32l4xx_hal_wwdg.c ****         generated when the counter reaches 0x40. When HAL_WWDG_IRQHandler is
  74:Drivers/STM32L4xx_HAL_Driver/Src/stm32l4xx_hal_wwdg.c ****         triggered by the interrupt service routine, flag will be automatically
  75:Drivers/STM32L4xx_HAL_Driver/Src/stm32l4xx_hal_wwdg.c ****         cleared and HAL_WWDG_WakeupCallback user callback will be executed. User
  76:Drivers/STM32L4xx_HAL_Driver/Src/stm32l4xx_hal_wwdg.c ****         can add his own code by customization of callback HAL_WWDG_WakeupCallback.
  77:Drivers/STM32L4xx_HAL_Driver/Src/stm32l4xx_hal_wwdg.c ****     (+) Then the application program must refresh the WWDG counter at regular
  78:Drivers/STM32L4xx_HAL_Driver/Src/stm32l4xx_hal_wwdg.c ****         intervals during normal operation to prevent an MCU reset, using
  79:Drivers/STM32L4xx_HAL_Driver/Src/stm32l4xx_hal_wwdg.c ****         HAL_WWDG_Refresh() function. This operation must occur only when
  80:Drivers/STM32L4xx_HAL_Driver/Src/stm32l4xx_hal_wwdg.c ****         the counter is lower than the refresh window value already programmed.
  81:Drivers/STM32L4xx_HAL_Driver/Src/stm32l4xx_hal_wwdg.c **** 
  82:Drivers/STM32L4xx_HAL_Driver/Src/stm32l4xx_hal_wwdg.c ****     *** Callback registration ***
ARM GAS  /tmp/ccOrMXd6.s 			page 3


  83:Drivers/STM32L4xx_HAL_Driver/Src/stm32l4xx_hal_wwdg.c ****     =============================
  84:Drivers/STM32L4xx_HAL_Driver/Src/stm32l4xx_hal_wwdg.c **** 
  85:Drivers/STM32L4xx_HAL_Driver/Src/stm32l4xx_hal_wwdg.c ****   [..]
  86:Drivers/STM32L4xx_HAL_Driver/Src/stm32l4xx_hal_wwdg.c ****     The compilation define USE_HAL_WWDG_REGISTER_CALLBACKS when set to 1 allows
  87:Drivers/STM32L4xx_HAL_Driver/Src/stm32l4xx_hal_wwdg.c ****     the user to configure dynamically the driver callbacks. Use Functions
  88:Drivers/STM32L4xx_HAL_Driver/Src/stm32l4xx_hal_wwdg.c ****     HAL_WWDG_RegisterCallback() to register a user callback.
  89:Drivers/STM32L4xx_HAL_Driver/Src/stm32l4xx_hal_wwdg.c **** 
  90:Drivers/STM32L4xx_HAL_Driver/Src/stm32l4xx_hal_wwdg.c ****     (+) Function HAL_WWDG_RegisterCallback() allows to register following
  91:Drivers/STM32L4xx_HAL_Driver/Src/stm32l4xx_hal_wwdg.c ****         callbacks:
  92:Drivers/STM32L4xx_HAL_Driver/Src/stm32l4xx_hal_wwdg.c ****         (++) EwiCallback : callback for Early WakeUp Interrupt.
  93:Drivers/STM32L4xx_HAL_Driver/Src/stm32l4xx_hal_wwdg.c ****         (++) MspInitCallback : WWDG MspInit.
  94:Drivers/STM32L4xx_HAL_Driver/Src/stm32l4xx_hal_wwdg.c ****     This function takes as parameters the HAL peripheral handle, the Callback ID
  95:Drivers/STM32L4xx_HAL_Driver/Src/stm32l4xx_hal_wwdg.c ****     and a pointer to the user callback function.
  96:Drivers/STM32L4xx_HAL_Driver/Src/stm32l4xx_hal_wwdg.c **** 
  97:Drivers/STM32L4xx_HAL_Driver/Src/stm32l4xx_hal_wwdg.c ****     (+) Use function HAL_WWDG_UnRegisterCallback() to reset a callback to
  98:Drivers/STM32L4xx_HAL_Driver/Src/stm32l4xx_hal_wwdg.c ****     the default weak (surcharged) function. HAL_WWDG_UnRegisterCallback()
  99:Drivers/STM32L4xx_HAL_Driver/Src/stm32l4xx_hal_wwdg.c ****     takes as parameters the HAL peripheral handle and the Callback ID.
 100:Drivers/STM32L4xx_HAL_Driver/Src/stm32l4xx_hal_wwdg.c ****     This function allows to reset following callbacks:
 101:Drivers/STM32L4xx_HAL_Driver/Src/stm32l4xx_hal_wwdg.c ****         (++) EwiCallback : callback for  Early WakeUp Interrupt.
 102:Drivers/STM32L4xx_HAL_Driver/Src/stm32l4xx_hal_wwdg.c ****         (++) MspInitCallback : WWDG MspInit.
 103:Drivers/STM32L4xx_HAL_Driver/Src/stm32l4xx_hal_wwdg.c **** 
 104:Drivers/STM32L4xx_HAL_Driver/Src/stm32l4xx_hal_wwdg.c ****     [..]
 105:Drivers/STM32L4xx_HAL_Driver/Src/stm32l4xx_hal_wwdg.c ****     When calling HAL_WWDG_Init function, callbacks are reset to the
 106:Drivers/STM32L4xx_HAL_Driver/Src/stm32l4xx_hal_wwdg.c ****     corresponding legacy weak (surcharged) functions:
 107:Drivers/STM32L4xx_HAL_Driver/Src/stm32l4xx_hal_wwdg.c ****     HAL_WWDG_EarlyWakeupCallback() and HAL_WWDG_MspInit() only if they have
 108:Drivers/STM32L4xx_HAL_Driver/Src/stm32l4xx_hal_wwdg.c ****     not been registered before.
 109:Drivers/STM32L4xx_HAL_Driver/Src/stm32l4xx_hal_wwdg.c **** 
 110:Drivers/STM32L4xx_HAL_Driver/Src/stm32l4xx_hal_wwdg.c ****     [..]
 111:Drivers/STM32L4xx_HAL_Driver/Src/stm32l4xx_hal_wwdg.c ****     When compilation define USE_HAL_WWDG_REGISTER_CALLBACKS is set to 0 or
 112:Drivers/STM32L4xx_HAL_Driver/Src/stm32l4xx_hal_wwdg.c ****     not defined, the callback registering feature is not available
 113:Drivers/STM32L4xx_HAL_Driver/Src/stm32l4xx_hal_wwdg.c ****     and weak (surcharged) callbacks are used.
 114:Drivers/STM32L4xx_HAL_Driver/Src/stm32l4xx_hal_wwdg.c **** 
 115:Drivers/STM32L4xx_HAL_Driver/Src/stm32l4xx_hal_wwdg.c ****     *** WWDG HAL driver macros list ***
 116:Drivers/STM32L4xx_HAL_Driver/Src/stm32l4xx_hal_wwdg.c ****     ===================================
 117:Drivers/STM32L4xx_HAL_Driver/Src/stm32l4xx_hal_wwdg.c ****     [..]
 118:Drivers/STM32L4xx_HAL_Driver/Src/stm32l4xx_hal_wwdg.c ****       Below the list of available macros in WWDG HAL driver.
 119:Drivers/STM32L4xx_HAL_Driver/Src/stm32l4xx_hal_wwdg.c ****       (+) __HAL_WWDG_ENABLE: Enable the WWDG peripheral
 120:Drivers/STM32L4xx_HAL_Driver/Src/stm32l4xx_hal_wwdg.c ****       (+) __HAL_WWDG_GET_FLAG: Get the selected WWDG's flag status
 121:Drivers/STM32L4xx_HAL_Driver/Src/stm32l4xx_hal_wwdg.c ****       (+) __HAL_WWDG_CLEAR_FLAG: Clear the WWDG's pending flags
 122:Drivers/STM32L4xx_HAL_Driver/Src/stm32l4xx_hal_wwdg.c ****       (+) __HAL_WWDG_ENABLE_IT: Enable the WWDG early wakeup interrupt
 123:Drivers/STM32L4xx_HAL_Driver/Src/stm32l4xx_hal_wwdg.c **** 
 124:Drivers/STM32L4xx_HAL_Driver/Src/stm32l4xx_hal_wwdg.c ****   @endverbatim
 125:Drivers/STM32L4xx_HAL_Driver/Src/stm32l4xx_hal_wwdg.c ****   ******************************************************************************
 126:Drivers/STM32L4xx_HAL_Driver/Src/stm32l4xx_hal_wwdg.c ****   */
 127:Drivers/STM32L4xx_HAL_Driver/Src/stm32l4xx_hal_wwdg.c **** 
 128:Drivers/STM32L4xx_HAL_Driver/Src/stm32l4xx_hal_wwdg.c **** /* Includes ------------------------------------------------------------------*/
 129:Drivers/STM32L4xx_HAL_Driver/Src/stm32l4xx_hal_wwdg.c **** #include "stm32l4xx_hal.h"
 130:Drivers/STM32L4xx_HAL_Driver/Src/stm32l4xx_hal_wwdg.c **** 
 131:Drivers/STM32L4xx_HAL_Driver/Src/stm32l4xx_hal_wwdg.c **** /** @addtogroup STM32L4xx_HAL_Driver
 132:Drivers/STM32L4xx_HAL_Driver/Src/stm32l4xx_hal_wwdg.c ****   * @{
 133:Drivers/STM32L4xx_HAL_Driver/Src/stm32l4xx_hal_wwdg.c ****   */
 134:Drivers/STM32L4xx_HAL_Driver/Src/stm32l4xx_hal_wwdg.c **** 
 135:Drivers/STM32L4xx_HAL_Driver/Src/stm32l4xx_hal_wwdg.c **** #ifdef HAL_WWDG_MODULE_ENABLED
 136:Drivers/STM32L4xx_HAL_Driver/Src/stm32l4xx_hal_wwdg.c **** /** @defgroup WWDG WWDG
 137:Drivers/STM32L4xx_HAL_Driver/Src/stm32l4xx_hal_wwdg.c ****   * @brief WWDG HAL module driver.
 138:Drivers/STM32L4xx_HAL_Driver/Src/stm32l4xx_hal_wwdg.c ****   * @{
 139:Drivers/STM32L4xx_HAL_Driver/Src/stm32l4xx_hal_wwdg.c ****   */
ARM GAS  /tmp/ccOrMXd6.s 			page 4


 140:Drivers/STM32L4xx_HAL_Driver/Src/stm32l4xx_hal_wwdg.c **** 
 141:Drivers/STM32L4xx_HAL_Driver/Src/stm32l4xx_hal_wwdg.c **** /* Private typedef -----------------------------------------------------------*/
 142:Drivers/STM32L4xx_HAL_Driver/Src/stm32l4xx_hal_wwdg.c **** /* Private define ------------------------------------------------------------*/
 143:Drivers/STM32L4xx_HAL_Driver/Src/stm32l4xx_hal_wwdg.c **** /* Private macro -------------------------------------------------------------*/
 144:Drivers/STM32L4xx_HAL_Driver/Src/stm32l4xx_hal_wwdg.c **** /* Private variables ---------------------------------------------------------*/
 145:Drivers/STM32L4xx_HAL_Driver/Src/stm32l4xx_hal_wwdg.c **** /* Private function prototypes -----------------------------------------------*/
 146:Drivers/STM32L4xx_HAL_Driver/Src/stm32l4xx_hal_wwdg.c **** /* Exported functions --------------------------------------------------------*/
 147:Drivers/STM32L4xx_HAL_Driver/Src/stm32l4xx_hal_wwdg.c **** 
 148:Drivers/STM32L4xx_HAL_Driver/Src/stm32l4xx_hal_wwdg.c **** /** @defgroup WWDG_Exported_Functions WWDG Exported Functions
 149:Drivers/STM32L4xx_HAL_Driver/Src/stm32l4xx_hal_wwdg.c ****   * @{
 150:Drivers/STM32L4xx_HAL_Driver/Src/stm32l4xx_hal_wwdg.c ****   */
 151:Drivers/STM32L4xx_HAL_Driver/Src/stm32l4xx_hal_wwdg.c **** 
 152:Drivers/STM32L4xx_HAL_Driver/Src/stm32l4xx_hal_wwdg.c **** /** @defgroup WWDG_Exported_Functions_Group1 Initialization and Configuration functions
 153:Drivers/STM32L4xx_HAL_Driver/Src/stm32l4xx_hal_wwdg.c ****   *  @brief    Initialization and Configuration functions.
 154:Drivers/STM32L4xx_HAL_Driver/Src/stm32l4xx_hal_wwdg.c ****   *
 155:Drivers/STM32L4xx_HAL_Driver/Src/stm32l4xx_hal_wwdg.c **** @verbatim
 156:Drivers/STM32L4xx_HAL_Driver/Src/stm32l4xx_hal_wwdg.c ****   ==============================================================================
 157:Drivers/STM32L4xx_HAL_Driver/Src/stm32l4xx_hal_wwdg.c ****           ##### Initialization and Configuration functions #####
 158:Drivers/STM32L4xx_HAL_Driver/Src/stm32l4xx_hal_wwdg.c ****   ==============================================================================
 159:Drivers/STM32L4xx_HAL_Driver/Src/stm32l4xx_hal_wwdg.c ****   [..]
 160:Drivers/STM32L4xx_HAL_Driver/Src/stm32l4xx_hal_wwdg.c ****     This section provides functions allowing to:
 161:Drivers/STM32L4xx_HAL_Driver/Src/stm32l4xx_hal_wwdg.c ****       (+) Initialize and start the WWDG according to the specified parameters
 162:Drivers/STM32L4xx_HAL_Driver/Src/stm32l4xx_hal_wwdg.c ****           in the WWDG_InitTypeDef of associated handle.
 163:Drivers/STM32L4xx_HAL_Driver/Src/stm32l4xx_hal_wwdg.c ****       (+) Initialize the WWDG MSP.
 164:Drivers/STM32L4xx_HAL_Driver/Src/stm32l4xx_hal_wwdg.c **** 
 165:Drivers/STM32L4xx_HAL_Driver/Src/stm32l4xx_hal_wwdg.c **** @endverbatim
 166:Drivers/STM32L4xx_HAL_Driver/Src/stm32l4xx_hal_wwdg.c ****   * @{
 167:Drivers/STM32L4xx_HAL_Driver/Src/stm32l4xx_hal_wwdg.c ****   */
 168:Drivers/STM32L4xx_HAL_Driver/Src/stm32l4xx_hal_wwdg.c **** 
 169:Drivers/STM32L4xx_HAL_Driver/Src/stm32l4xx_hal_wwdg.c **** /**
 170:Drivers/STM32L4xx_HAL_Driver/Src/stm32l4xx_hal_wwdg.c ****   * @brief  Initialize the WWDG according to the specified.
 171:Drivers/STM32L4xx_HAL_Driver/Src/stm32l4xx_hal_wwdg.c ****   *         parameters in the WWDG_InitTypeDef of  associated handle.
 172:Drivers/STM32L4xx_HAL_Driver/Src/stm32l4xx_hal_wwdg.c ****   * @param  hwwdg  pointer to a WWDG_HandleTypeDef structure that contains
 173:Drivers/STM32L4xx_HAL_Driver/Src/stm32l4xx_hal_wwdg.c ****   *                the configuration information for the specified WWDG module.
 174:Drivers/STM32L4xx_HAL_Driver/Src/stm32l4xx_hal_wwdg.c ****   * @retval HAL status
 175:Drivers/STM32L4xx_HAL_Driver/Src/stm32l4xx_hal_wwdg.c ****   */
 176:Drivers/STM32L4xx_HAL_Driver/Src/stm32l4xx_hal_wwdg.c **** HAL_StatusTypeDef HAL_WWDG_Init(WWDG_HandleTypeDef *hwwdg)
 177:Drivers/STM32L4xx_HAL_Driver/Src/stm32l4xx_hal_wwdg.c **** {
  35              		.loc 1 177 1
  36              		.cfi_startproc
  37              		@ args = 0, pretend = 0, frame = 8
  38              		@ frame_needed = 1, uses_anonymous_args = 0
  39 0000 80B5     		push	{r7, lr}
  40              		.cfi_def_cfa_offset 8
  41              		.cfi_offset 7, -8
  42              		.cfi_offset 14, -4
  43 0002 82B0     		sub	sp, sp, #8
  44              		.cfi_def_cfa_offset 16
  45 0004 00AF     		add	r7, sp, #0
  46              		.cfi_def_cfa_register 7
  47 0006 7860     		str	r0, [r7, #4]
 178:Drivers/STM32L4xx_HAL_Driver/Src/stm32l4xx_hal_wwdg.c ****   /* Check the WWDG handle allocation */
 179:Drivers/STM32L4xx_HAL_Driver/Src/stm32l4xx_hal_wwdg.c ****   if (hwwdg == NULL)
  48              		.loc 1 179 6
  49 0008 7B68     		ldr	r3, [r7, #4]
  50 000a 002B     		cmp	r3, #0
  51 000c 01D1     		bne	.L2
ARM GAS  /tmp/ccOrMXd6.s 			page 5


 180:Drivers/STM32L4xx_HAL_Driver/Src/stm32l4xx_hal_wwdg.c ****   {
 181:Drivers/STM32L4xx_HAL_Driver/Src/stm32l4xx_hal_wwdg.c ****     return HAL_ERROR;
  52              		.loc 1 181 12
  53 000e 0123     		movs	r3, #1
  54 0010 16E0     		b	.L3
  55              	.L2:
 182:Drivers/STM32L4xx_HAL_Driver/Src/stm32l4xx_hal_wwdg.c ****   }
 183:Drivers/STM32L4xx_HAL_Driver/Src/stm32l4xx_hal_wwdg.c **** 
 184:Drivers/STM32L4xx_HAL_Driver/Src/stm32l4xx_hal_wwdg.c ****   /* Check the parameters */
 185:Drivers/STM32L4xx_HAL_Driver/Src/stm32l4xx_hal_wwdg.c ****   assert_param(IS_WWDG_ALL_INSTANCE(hwwdg->Instance));
 186:Drivers/STM32L4xx_HAL_Driver/Src/stm32l4xx_hal_wwdg.c ****   assert_param(IS_WWDG_PRESCALER(hwwdg->Init.Prescaler));
 187:Drivers/STM32L4xx_HAL_Driver/Src/stm32l4xx_hal_wwdg.c ****   assert_param(IS_WWDG_WINDOW(hwwdg->Init.Window));
 188:Drivers/STM32L4xx_HAL_Driver/Src/stm32l4xx_hal_wwdg.c ****   assert_param(IS_WWDG_COUNTER(hwwdg->Init.Counter));
 189:Drivers/STM32L4xx_HAL_Driver/Src/stm32l4xx_hal_wwdg.c ****   assert_param(IS_WWDG_EWI_MODE(hwwdg->Init.EWIMode));
 190:Drivers/STM32L4xx_HAL_Driver/Src/stm32l4xx_hal_wwdg.c **** 
 191:Drivers/STM32L4xx_HAL_Driver/Src/stm32l4xx_hal_wwdg.c **** #if (USE_HAL_WWDG_REGISTER_CALLBACKS == 1)
 192:Drivers/STM32L4xx_HAL_Driver/Src/stm32l4xx_hal_wwdg.c ****   /* Reset Callback pointers */
 193:Drivers/STM32L4xx_HAL_Driver/Src/stm32l4xx_hal_wwdg.c ****   if (hwwdg->EwiCallback == NULL)
 194:Drivers/STM32L4xx_HAL_Driver/Src/stm32l4xx_hal_wwdg.c ****   {
 195:Drivers/STM32L4xx_HAL_Driver/Src/stm32l4xx_hal_wwdg.c ****     hwwdg->EwiCallback = HAL_WWDG_EarlyWakeupCallback;
 196:Drivers/STM32L4xx_HAL_Driver/Src/stm32l4xx_hal_wwdg.c ****   }
 197:Drivers/STM32L4xx_HAL_Driver/Src/stm32l4xx_hal_wwdg.c **** 
 198:Drivers/STM32L4xx_HAL_Driver/Src/stm32l4xx_hal_wwdg.c ****   if (hwwdg->MspInitCallback == NULL)
 199:Drivers/STM32L4xx_HAL_Driver/Src/stm32l4xx_hal_wwdg.c ****   {
 200:Drivers/STM32L4xx_HAL_Driver/Src/stm32l4xx_hal_wwdg.c ****     hwwdg->MspInitCallback = HAL_WWDG_MspInit;
 201:Drivers/STM32L4xx_HAL_Driver/Src/stm32l4xx_hal_wwdg.c ****   }
 202:Drivers/STM32L4xx_HAL_Driver/Src/stm32l4xx_hal_wwdg.c **** 
 203:Drivers/STM32L4xx_HAL_Driver/Src/stm32l4xx_hal_wwdg.c ****   /* Init the low level hardware */
 204:Drivers/STM32L4xx_HAL_Driver/Src/stm32l4xx_hal_wwdg.c ****   hwwdg->MspInitCallback(hwwdg);
 205:Drivers/STM32L4xx_HAL_Driver/Src/stm32l4xx_hal_wwdg.c **** #else
 206:Drivers/STM32L4xx_HAL_Driver/Src/stm32l4xx_hal_wwdg.c ****   /* Init the low level hardware */
 207:Drivers/STM32L4xx_HAL_Driver/Src/stm32l4xx_hal_wwdg.c ****   HAL_WWDG_MspInit(hwwdg);
  56              		.loc 1 207 3
  57 0012 7868     		ldr	r0, [r7, #4]
  58 0014 FFF7FEFF 		bl	HAL_WWDG_MspInit
 208:Drivers/STM32L4xx_HAL_Driver/Src/stm32l4xx_hal_wwdg.c **** #endif /* USE_HAL_WWDG_REGISTER_CALLBACKS */
 209:Drivers/STM32L4xx_HAL_Driver/Src/stm32l4xx_hal_wwdg.c **** 
 210:Drivers/STM32L4xx_HAL_Driver/Src/stm32l4xx_hal_wwdg.c ****   /* Set WWDG Counter */
 211:Drivers/STM32L4xx_HAL_Driver/Src/stm32l4xx_hal_wwdg.c ****   WRITE_REG(hwwdg->Instance->CR, (WWDG_CR_WDGA | hwwdg->Init.Counter));
  59              		.loc 1 211 3
  60 0018 7B68     		ldr	r3, [r7, #4]
  61 001a DA68     		ldr	r2, [r3, #12]
  62 001c 7B68     		ldr	r3, [r7, #4]
  63 001e 1B68     		ldr	r3, [r3]
  64 0020 42F08002 		orr	r2, r2, #128
  65 0024 1A60     		str	r2, [r3]
 212:Drivers/STM32L4xx_HAL_Driver/Src/stm32l4xx_hal_wwdg.c **** 
 213:Drivers/STM32L4xx_HAL_Driver/Src/stm32l4xx_hal_wwdg.c ****   /* Set WWDG Prescaler and Window */
 214:Drivers/STM32L4xx_HAL_Driver/Src/stm32l4xx_hal_wwdg.c ****   WRITE_REG(hwwdg->Instance->CFR, (hwwdg->Init.EWIMode | hwwdg->Init.Prescaler | hwwdg->Init.Window
  66              		.loc 1 214 3
  67 0026 7B68     		ldr	r3, [r7, #4]
  68 0028 1A69     		ldr	r2, [r3, #16]
  69 002a 7B68     		ldr	r3, [r7, #4]
  70 002c 5B68     		ldr	r3, [r3, #4]
  71 002e 42EA0301 		orr	r1, r2, r3
  72 0032 7B68     		ldr	r3, [r7, #4]
  73 0034 9A68     		ldr	r2, [r3, #8]
ARM GAS  /tmp/ccOrMXd6.s 			page 6


  74 0036 7B68     		ldr	r3, [r7, #4]
  75 0038 1B68     		ldr	r3, [r3]
  76 003a 0A43     		orrs	r2, r2, r1
  77 003c 5A60     		str	r2, [r3, #4]
 215:Drivers/STM32L4xx_HAL_Driver/Src/stm32l4xx_hal_wwdg.c **** 
 216:Drivers/STM32L4xx_HAL_Driver/Src/stm32l4xx_hal_wwdg.c ****   /* Return function status */
 217:Drivers/STM32L4xx_HAL_Driver/Src/stm32l4xx_hal_wwdg.c ****   return HAL_OK;
  78              		.loc 1 217 10
  79 003e 0023     		movs	r3, #0
  80              	.L3:
 218:Drivers/STM32L4xx_HAL_Driver/Src/stm32l4xx_hal_wwdg.c **** }
  81              		.loc 1 218 1
  82 0040 1846     		mov	r0, r3
  83 0042 0837     		adds	r7, r7, #8
  84              		.cfi_def_cfa_offset 8
  85 0044 BD46     		mov	sp, r7
  86              		.cfi_def_cfa_register 13
  87              		@ sp needed
  88 0046 80BD     		pop	{r7, pc}
  89              		.cfi_endproc
  90              	.LFE445:
  92              		.section	.text.HAL_WWDG_MspInit,"ax",%progbits
  93              		.align	1
  94              		.weak	HAL_WWDG_MspInit
  95              		.syntax unified
  96              		.thumb
  97              		.thumb_func
  99              	HAL_WWDG_MspInit:
 100              	.LFB446:
 219:Drivers/STM32L4xx_HAL_Driver/Src/stm32l4xx_hal_wwdg.c **** 
 220:Drivers/STM32L4xx_HAL_Driver/Src/stm32l4xx_hal_wwdg.c **** 
 221:Drivers/STM32L4xx_HAL_Driver/Src/stm32l4xx_hal_wwdg.c **** /**
 222:Drivers/STM32L4xx_HAL_Driver/Src/stm32l4xx_hal_wwdg.c ****   * @brief  Initialize the WWDG MSP.
 223:Drivers/STM32L4xx_HAL_Driver/Src/stm32l4xx_hal_wwdg.c ****   * @param  hwwdg  pointer to a WWDG_HandleTypeDef structure that contains
 224:Drivers/STM32L4xx_HAL_Driver/Src/stm32l4xx_hal_wwdg.c ****   *                the configuration information for the specified WWDG module.
 225:Drivers/STM32L4xx_HAL_Driver/Src/stm32l4xx_hal_wwdg.c ****   * @note   When rewriting this function in user file, mechanism may be added
 226:Drivers/STM32L4xx_HAL_Driver/Src/stm32l4xx_hal_wwdg.c ****   *         to avoid multiple initialize when HAL_WWDG_Init function is called
 227:Drivers/STM32L4xx_HAL_Driver/Src/stm32l4xx_hal_wwdg.c ****   *         again to change parameters.
 228:Drivers/STM32L4xx_HAL_Driver/Src/stm32l4xx_hal_wwdg.c ****   * @retval None
 229:Drivers/STM32L4xx_HAL_Driver/Src/stm32l4xx_hal_wwdg.c ****   */
 230:Drivers/STM32L4xx_HAL_Driver/Src/stm32l4xx_hal_wwdg.c **** __weak void HAL_WWDG_MspInit(WWDG_HandleTypeDef *hwwdg)
 231:Drivers/STM32L4xx_HAL_Driver/Src/stm32l4xx_hal_wwdg.c **** {
 101              		.loc 1 231 1
 102              		.cfi_startproc
 103              		@ args = 0, pretend = 0, frame = 8
 104              		@ frame_needed = 1, uses_anonymous_args = 0
 105              		@ link register save eliminated.
 106 0000 80B4     		push	{r7}
 107              		.cfi_def_cfa_offset 4
 108              		.cfi_offset 7, -4
 109 0002 83B0     		sub	sp, sp, #12
 110              		.cfi_def_cfa_offset 16
 111 0004 00AF     		add	r7, sp, #0
 112              		.cfi_def_cfa_register 7
 113 0006 7860     		str	r0, [r7, #4]
 232:Drivers/STM32L4xx_HAL_Driver/Src/stm32l4xx_hal_wwdg.c ****   /* Prevent unused argument(s) compilation warning */
 233:Drivers/STM32L4xx_HAL_Driver/Src/stm32l4xx_hal_wwdg.c ****   UNUSED(hwwdg);
ARM GAS  /tmp/ccOrMXd6.s 			page 7


 234:Drivers/STM32L4xx_HAL_Driver/Src/stm32l4xx_hal_wwdg.c **** 
 235:Drivers/STM32L4xx_HAL_Driver/Src/stm32l4xx_hal_wwdg.c ****   /* NOTE: This function should not be modified, when the callback is needed,
 236:Drivers/STM32L4xx_HAL_Driver/Src/stm32l4xx_hal_wwdg.c ****            the HAL_WWDG_MspInit could be implemented in the user file
 237:Drivers/STM32L4xx_HAL_Driver/Src/stm32l4xx_hal_wwdg.c ****    */
 238:Drivers/STM32L4xx_HAL_Driver/Src/stm32l4xx_hal_wwdg.c **** }
 114              		.loc 1 238 1
 115 0008 00BF     		nop
 116 000a 0C37     		adds	r7, r7, #12
 117              		.cfi_def_cfa_offset 4
 118 000c BD46     		mov	sp, r7
 119              		.cfi_def_cfa_register 13
 120              		@ sp needed
 121 000e 5DF8047B 		ldr	r7, [sp], #4
 122              		.cfi_restore 7
 123              		.cfi_def_cfa_offset 0
 124 0012 7047     		bx	lr
 125              		.cfi_endproc
 126              	.LFE446:
 128              		.section	.text.HAL_WWDG_Refresh,"ax",%progbits
 129              		.align	1
 130              		.global	HAL_WWDG_Refresh
 131              		.syntax unified
 132              		.thumb
 133              		.thumb_func
 135              	HAL_WWDG_Refresh:
 136              	.LFB447:
 239:Drivers/STM32L4xx_HAL_Driver/Src/stm32l4xx_hal_wwdg.c **** 
 240:Drivers/STM32L4xx_HAL_Driver/Src/stm32l4xx_hal_wwdg.c **** 
 241:Drivers/STM32L4xx_HAL_Driver/Src/stm32l4xx_hal_wwdg.c **** #if (USE_HAL_WWDG_REGISTER_CALLBACKS == 1)
 242:Drivers/STM32L4xx_HAL_Driver/Src/stm32l4xx_hal_wwdg.c **** /**
 243:Drivers/STM32L4xx_HAL_Driver/Src/stm32l4xx_hal_wwdg.c ****   * @brief  Register a User WWDG Callback
 244:Drivers/STM32L4xx_HAL_Driver/Src/stm32l4xx_hal_wwdg.c ****   *         To be used instead of the weak (surcharged) predefined callback
 245:Drivers/STM32L4xx_HAL_Driver/Src/stm32l4xx_hal_wwdg.c ****   * @param  hwwdg WWDG handle
 246:Drivers/STM32L4xx_HAL_Driver/Src/stm32l4xx_hal_wwdg.c ****   * @param  CallbackID ID of the callback to be registered
 247:Drivers/STM32L4xx_HAL_Driver/Src/stm32l4xx_hal_wwdg.c ****   *         This parameter can be one of the following values:
 248:Drivers/STM32L4xx_HAL_Driver/Src/stm32l4xx_hal_wwdg.c ****   *           @arg @ref HAL_WWDG_EWI_CB_ID Early WakeUp Interrupt Callback ID
 249:Drivers/STM32L4xx_HAL_Driver/Src/stm32l4xx_hal_wwdg.c ****   *           @arg @ref HAL_WWDG_MSPINIT_CB_ID MspInit callback ID
 250:Drivers/STM32L4xx_HAL_Driver/Src/stm32l4xx_hal_wwdg.c ****   * @param  pCallback pointer to the Callback function
 251:Drivers/STM32L4xx_HAL_Driver/Src/stm32l4xx_hal_wwdg.c ****   * @retval status
 252:Drivers/STM32L4xx_HAL_Driver/Src/stm32l4xx_hal_wwdg.c ****   */
 253:Drivers/STM32L4xx_HAL_Driver/Src/stm32l4xx_hal_wwdg.c **** HAL_StatusTypeDef HAL_WWDG_RegisterCallback(WWDG_HandleTypeDef *hwwdg, HAL_WWDG_CallbackIDTypeDef C
 254:Drivers/STM32L4xx_HAL_Driver/Src/stm32l4xx_hal_wwdg.c ****                                             pWWDG_CallbackTypeDef pCallback)
 255:Drivers/STM32L4xx_HAL_Driver/Src/stm32l4xx_hal_wwdg.c **** {
 256:Drivers/STM32L4xx_HAL_Driver/Src/stm32l4xx_hal_wwdg.c ****   HAL_StatusTypeDef status = HAL_OK;
 257:Drivers/STM32L4xx_HAL_Driver/Src/stm32l4xx_hal_wwdg.c **** 
 258:Drivers/STM32L4xx_HAL_Driver/Src/stm32l4xx_hal_wwdg.c ****   if (pCallback == NULL)
 259:Drivers/STM32L4xx_HAL_Driver/Src/stm32l4xx_hal_wwdg.c ****   {
 260:Drivers/STM32L4xx_HAL_Driver/Src/stm32l4xx_hal_wwdg.c ****     status = HAL_ERROR;
 261:Drivers/STM32L4xx_HAL_Driver/Src/stm32l4xx_hal_wwdg.c ****   }
 262:Drivers/STM32L4xx_HAL_Driver/Src/stm32l4xx_hal_wwdg.c ****   else
 263:Drivers/STM32L4xx_HAL_Driver/Src/stm32l4xx_hal_wwdg.c ****   {
 264:Drivers/STM32L4xx_HAL_Driver/Src/stm32l4xx_hal_wwdg.c ****     switch (CallbackID)
 265:Drivers/STM32L4xx_HAL_Driver/Src/stm32l4xx_hal_wwdg.c ****     {
 266:Drivers/STM32L4xx_HAL_Driver/Src/stm32l4xx_hal_wwdg.c ****       case HAL_WWDG_EWI_CB_ID:
 267:Drivers/STM32L4xx_HAL_Driver/Src/stm32l4xx_hal_wwdg.c ****         hwwdg->EwiCallback = pCallback;
 268:Drivers/STM32L4xx_HAL_Driver/Src/stm32l4xx_hal_wwdg.c ****         break;
 269:Drivers/STM32L4xx_HAL_Driver/Src/stm32l4xx_hal_wwdg.c **** 
ARM GAS  /tmp/ccOrMXd6.s 			page 8


 270:Drivers/STM32L4xx_HAL_Driver/Src/stm32l4xx_hal_wwdg.c ****       case HAL_WWDG_MSPINIT_CB_ID:
 271:Drivers/STM32L4xx_HAL_Driver/Src/stm32l4xx_hal_wwdg.c ****         hwwdg->MspInitCallback = pCallback;
 272:Drivers/STM32L4xx_HAL_Driver/Src/stm32l4xx_hal_wwdg.c ****         break;
 273:Drivers/STM32L4xx_HAL_Driver/Src/stm32l4xx_hal_wwdg.c **** 
 274:Drivers/STM32L4xx_HAL_Driver/Src/stm32l4xx_hal_wwdg.c ****       default:
 275:Drivers/STM32L4xx_HAL_Driver/Src/stm32l4xx_hal_wwdg.c ****         status = HAL_ERROR;
 276:Drivers/STM32L4xx_HAL_Driver/Src/stm32l4xx_hal_wwdg.c ****         break;
 277:Drivers/STM32L4xx_HAL_Driver/Src/stm32l4xx_hal_wwdg.c ****     }
 278:Drivers/STM32L4xx_HAL_Driver/Src/stm32l4xx_hal_wwdg.c ****   }
 279:Drivers/STM32L4xx_HAL_Driver/Src/stm32l4xx_hal_wwdg.c **** 
 280:Drivers/STM32L4xx_HAL_Driver/Src/stm32l4xx_hal_wwdg.c ****   return status;
 281:Drivers/STM32L4xx_HAL_Driver/Src/stm32l4xx_hal_wwdg.c **** }
 282:Drivers/STM32L4xx_HAL_Driver/Src/stm32l4xx_hal_wwdg.c **** 
 283:Drivers/STM32L4xx_HAL_Driver/Src/stm32l4xx_hal_wwdg.c **** 
 284:Drivers/STM32L4xx_HAL_Driver/Src/stm32l4xx_hal_wwdg.c **** /**
 285:Drivers/STM32L4xx_HAL_Driver/Src/stm32l4xx_hal_wwdg.c ****   * @brief  Unregister a WWDG Callback
 286:Drivers/STM32L4xx_HAL_Driver/Src/stm32l4xx_hal_wwdg.c ****   *         WWDG Callback is redirected to the weak (surcharged) predefined callback
 287:Drivers/STM32L4xx_HAL_Driver/Src/stm32l4xx_hal_wwdg.c ****   * @param  hwwdg WWDG handle
 288:Drivers/STM32L4xx_HAL_Driver/Src/stm32l4xx_hal_wwdg.c ****   * @param  CallbackID ID of the callback to be registered
 289:Drivers/STM32L4xx_HAL_Driver/Src/stm32l4xx_hal_wwdg.c ****   *         This parameter can be one of the following values:
 290:Drivers/STM32L4xx_HAL_Driver/Src/stm32l4xx_hal_wwdg.c ****   *           @arg @ref HAL_WWDG_EWI_CB_ID Early WakeUp Interrupt Callback ID
 291:Drivers/STM32L4xx_HAL_Driver/Src/stm32l4xx_hal_wwdg.c ****   *           @arg @ref HAL_WWDG_MSPINIT_CB_ID MspInit callback ID
 292:Drivers/STM32L4xx_HAL_Driver/Src/stm32l4xx_hal_wwdg.c ****   * @retval status
 293:Drivers/STM32L4xx_HAL_Driver/Src/stm32l4xx_hal_wwdg.c ****   */
 294:Drivers/STM32L4xx_HAL_Driver/Src/stm32l4xx_hal_wwdg.c **** HAL_StatusTypeDef HAL_WWDG_UnRegisterCallback(WWDG_HandleTypeDef *hwwdg, HAL_WWDG_CallbackIDTypeDef
 295:Drivers/STM32L4xx_HAL_Driver/Src/stm32l4xx_hal_wwdg.c **** {
 296:Drivers/STM32L4xx_HAL_Driver/Src/stm32l4xx_hal_wwdg.c ****   HAL_StatusTypeDef status = HAL_OK;
 297:Drivers/STM32L4xx_HAL_Driver/Src/stm32l4xx_hal_wwdg.c **** 
 298:Drivers/STM32L4xx_HAL_Driver/Src/stm32l4xx_hal_wwdg.c ****   switch (CallbackID)
 299:Drivers/STM32L4xx_HAL_Driver/Src/stm32l4xx_hal_wwdg.c ****   {
 300:Drivers/STM32L4xx_HAL_Driver/Src/stm32l4xx_hal_wwdg.c ****     case HAL_WWDG_EWI_CB_ID:
 301:Drivers/STM32L4xx_HAL_Driver/Src/stm32l4xx_hal_wwdg.c ****       hwwdg->EwiCallback = HAL_WWDG_EarlyWakeupCallback;
 302:Drivers/STM32L4xx_HAL_Driver/Src/stm32l4xx_hal_wwdg.c ****       break;
 303:Drivers/STM32L4xx_HAL_Driver/Src/stm32l4xx_hal_wwdg.c **** 
 304:Drivers/STM32L4xx_HAL_Driver/Src/stm32l4xx_hal_wwdg.c ****     case HAL_WWDG_MSPINIT_CB_ID:
 305:Drivers/STM32L4xx_HAL_Driver/Src/stm32l4xx_hal_wwdg.c ****       hwwdg->MspInitCallback = HAL_WWDG_MspInit;
 306:Drivers/STM32L4xx_HAL_Driver/Src/stm32l4xx_hal_wwdg.c ****       break;
 307:Drivers/STM32L4xx_HAL_Driver/Src/stm32l4xx_hal_wwdg.c **** 
 308:Drivers/STM32L4xx_HAL_Driver/Src/stm32l4xx_hal_wwdg.c ****     default:
 309:Drivers/STM32L4xx_HAL_Driver/Src/stm32l4xx_hal_wwdg.c ****       status = HAL_ERROR;
 310:Drivers/STM32L4xx_HAL_Driver/Src/stm32l4xx_hal_wwdg.c ****       break;
 311:Drivers/STM32L4xx_HAL_Driver/Src/stm32l4xx_hal_wwdg.c ****   }
 312:Drivers/STM32L4xx_HAL_Driver/Src/stm32l4xx_hal_wwdg.c **** 
 313:Drivers/STM32L4xx_HAL_Driver/Src/stm32l4xx_hal_wwdg.c ****   return status;
 314:Drivers/STM32L4xx_HAL_Driver/Src/stm32l4xx_hal_wwdg.c **** }
 315:Drivers/STM32L4xx_HAL_Driver/Src/stm32l4xx_hal_wwdg.c **** #endif /* USE_HAL_WWDG_REGISTER_CALLBACKS */
 316:Drivers/STM32L4xx_HAL_Driver/Src/stm32l4xx_hal_wwdg.c **** 
 317:Drivers/STM32L4xx_HAL_Driver/Src/stm32l4xx_hal_wwdg.c **** /**
 318:Drivers/STM32L4xx_HAL_Driver/Src/stm32l4xx_hal_wwdg.c ****   * @}
 319:Drivers/STM32L4xx_HAL_Driver/Src/stm32l4xx_hal_wwdg.c ****   */
 320:Drivers/STM32L4xx_HAL_Driver/Src/stm32l4xx_hal_wwdg.c **** 
 321:Drivers/STM32L4xx_HAL_Driver/Src/stm32l4xx_hal_wwdg.c **** /** @defgroup WWDG_Exported_Functions_Group2 IO operation functions
 322:Drivers/STM32L4xx_HAL_Driver/Src/stm32l4xx_hal_wwdg.c ****   *  @brief    IO operation functions
 323:Drivers/STM32L4xx_HAL_Driver/Src/stm32l4xx_hal_wwdg.c ****   *
 324:Drivers/STM32L4xx_HAL_Driver/Src/stm32l4xx_hal_wwdg.c **** @verbatim
 325:Drivers/STM32L4xx_HAL_Driver/Src/stm32l4xx_hal_wwdg.c ****   ==============================================================================
 326:Drivers/STM32L4xx_HAL_Driver/Src/stm32l4xx_hal_wwdg.c ****                       ##### IO operation functions #####
ARM GAS  /tmp/ccOrMXd6.s 			page 9


 327:Drivers/STM32L4xx_HAL_Driver/Src/stm32l4xx_hal_wwdg.c ****   ==============================================================================
 328:Drivers/STM32L4xx_HAL_Driver/Src/stm32l4xx_hal_wwdg.c ****   [..]
 329:Drivers/STM32L4xx_HAL_Driver/Src/stm32l4xx_hal_wwdg.c ****     This section provides functions allowing to:
 330:Drivers/STM32L4xx_HAL_Driver/Src/stm32l4xx_hal_wwdg.c ****     (+) Refresh the WWDG.
 331:Drivers/STM32L4xx_HAL_Driver/Src/stm32l4xx_hal_wwdg.c ****     (+) Handle WWDG interrupt request and associated function callback.
 332:Drivers/STM32L4xx_HAL_Driver/Src/stm32l4xx_hal_wwdg.c **** 
 333:Drivers/STM32L4xx_HAL_Driver/Src/stm32l4xx_hal_wwdg.c **** @endverbatim
 334:Drivers/STM32L4xx_HAL_Driver/Src/stm32l4xx_hal_wwdg.c ****   * @{
 335:Drivers/STM32L4xx_HAL_Driver/Src/stm32l4xx_hal_wwdg.c ****   */
 336:Drivers/STM32L4xx_HAL_Driver/Src/stm32l4xx_hal_wwdg.c **** 
 337:Drivers/STM32L4xx_HAL_Driver/Src/stm32l4xx_hal_wwdg.c **** /**
 338:Drivers/STM32L4xx_HAL_Driver/Src/stm32l4xx_hal_wwdg.c ****   * @brief  Refresh the WWDG.
 339:Drivers/STM32L4xx_HAL_Driver/Src/stm32l4xx_hal_wwdg.c ****   * @param  hwwdg  pointer to a WWDG_HandleTypeDef structure that contains
 340:Drivers/STM32L4xx_HAL_Driver/Src/stm32l4xx_hal_wwdg.c ****   *                the configuration information for the specified WWDG module.
 341:Drivers/STM32L4xx_HAL_Driver/Src/stm32l4xx_hal_wwdg.c ****   * @retval HAL status
 342:Drivers/STM32L4xx_HAL_Driver/Src/stm32l4xx_hal_wwdg.c ****   */
 343:Drivers/STM32L4xx_HAL_Driver/Src/stm32l4xx_hal_wwdg.c **** HAL_StatusTypeDef HAL_WWDG_Refresh(WWDG_HandleTypeDef *hwwdg)
 344:Drivers/STM32L4xx_HAL_Driver/Src/stm32l4xx_hal_wwdg.c **** {
 137              		.loc 1 344 1
 138              		.cfi_startproc
 139              		@ args = 0, pretend = 0, frame = 8
 140              		@ frame_needed = 1, uses_anonymous_args = 0
 141              		@ link register save eliminated.
 142 0000 80B4     		push	{r7}
 143              		.cfi_def_cfa_offset 4
 144              		.cfi_offset 7, -4
 145 0002 83B0     		sub	sp, sp, #12
 146              		.cfi_def_cfa_offset 16
 147 0004 00AF     		add	r7, sp, #0
 148              		.cfi_def_cfa_register 7
 149 0006 7860     		str	r0, [r7, #4]
 345:Drivers/STM32L4xx_HAL_Driver/Src/stm32l4xx_hal_wwdg.c ****   /* Write to WWDG CR the WWDG Counter value to refresh with */
 346:Drivers/STM32L4xx_HAL_Driver/Src/stm32l4xx_hal_wwdg.c ****   WRITE_REG(hwwdg->Instance->CR, (hwwdg->Init.Counter));
 150              		.loc 1 346 3
 151 0008 7B68     		ldr	r3, [r7, #4]
 152 000a 1B68     		ldr	r3, [r3]
 153 000c 7A68     		ldr	r2, [r7, #4]
 154 000e D268     		ldr	r2, [r2, #12]
 155 0010 1A60     		str	r2, [r3]
 347:Drivers/STM32L4xx_HAL_Driver/Src/stm32l4xx_hal_wwdg.c **** 
 348:Drivers/STM32L4xx_HAL_Driver/Src/stm32l4xx_hal_wwdg.c ****   /* Return function status */
 349:Drivers/STM32L4xx_HAL_Driver/Src/stm32l4xx_hal_wwdg.c ****   return HAL_OK;
 156              		.loc 1 349 10
 157 0012 0023     		movs	r3, #0
 350:Drivers/STM32L4xx_HAL_Driver/Src/stm32l4xx_hal_wwdg.c **** }
 158              		.loc 1 350 1
 159 0014 1846     		mov	r0, r3
 160 0016 0C37     		adds	r7, r7, #12
 161              		.cfi_def_cfa_offset 4
 162 0018 BD46     		mov	sp, r7
 163              		.cfi_def_cfa_register 13
 164              		@ sp needed
 165 001a 5DF8047B 		ldr	r7, [sp], #4
 166              		.cfi_restore 7
 167              		.cfi_def_cfa_offset 0
 168 001e 7047     		bx	lr
 169              		.cfi_endproc
ARM GAS  /tmp/ccOrMXd6.s 			page 10


 170              	.LFE447:
 172              		.section	.text.HAL_WWDG_IRQHandler,"ax",%progbits
 173              		.align	1
 174              		.global	HAL_WWDG_IRQHandler
 175              		.syntax unified
 176              		.thumb
 177              		.thumb_func
 179              	HAL_WWDG_IRQHandler:
 180              	.LFB448:
 351:Drivers/STM32L4xx_HAL_Driver/Src/stm32l4xx_hal_wwdg.c **** 
 352:Drivers/STM32L4xx_HAL_Driver/Src/stm32l4xx_hal_wwdg.c **** /**
 353:Drivers/STM32L4xx_HAL_Driver/Src/stm32l4xx_hal_wwdg.c ****   * @brief  Handle WWDG interrupt request.
 354:Drivers/STM32L4xx_HAL_Driver/Src/stm32l4xx_hal_wwdg.c ****   * @note   The Early Wakeup Interrupt (EWI) can be used if specific safety operations
 355:Drivers/STM32L4xx_HAL_Driver/Src/stm32l4xx_hal_wwdg.c ****   *         or data logging must be performed before the actual reset is generated.
 356:Drivers/STM32L4xx_HAL_Driver/Src/stm32l4xx_hal_wwdg.c ****   *         The EWI interrupt is enabled by calling HAL_WWDG_Init function with
 357:Drivers/STM32L4xx_HAL_Driver/Src/stm32l4xx_hal_wwdg.c ****   *         EWIMode set to WWDG_EWI_ENABLE.
 358:Drivers/STM32L4xx_HAL_Driver/Src/stm32l4xx_hal_wwdg.c ****   *         When the downcounter reaches the value 0x40, and EWI interrupt is
 359:Drivers/STM32L4xx_HAL_Driver/Src/stm32l4xx_hal_wwdg.c ****   *         generated and the corresponding Interrupt Service Routine (ISR) can
 360:Drivers/STM32L4xx_HAL_Driver/Src/stm32l4xx_hal_wwdg.c ****   *         be used to trigger specific actions (such as communications or data
 361:Drivers/STM32L4xx_HAL_Driver/Src/stm32l4xx_hal_wwdg.c ****   *         logging), before resetting the device.
 362:Drivers/STM32L4xx_HAL_Driver/Src/stm32l4xx_hal_wwdg.c ****   * @param  hwwdg  pointer to a WWDG_HandleTypeDef structure that contains
 363:Drivers/STM32L4xx_HAL_Driver/Src/stm32l4xx_hal_wwdg.c ****   *                the configuration information for the specified WWDG module.
 364:Drivers/STM32L4xx_HAL_Driver/Src/stm32l4xx_hal_wwdg.c ****   * @retval None
 365:Drivers/STM32L4xx_HAL_Driver/Src/stm32l4xx_hal_wwdg.c ****   */
 366:Drivers/STM32L4xx_HAL_Driver/Src/stm32l4xx_hal_wwdg.c **** void HAL_WWDG_IRQHandler(WWDG_HandleTypeDef *hwwdg)
 367:Drivers/STM32L4xx_HAL_Driver/Src/stm32l4xx_hal_wwdg.c **** {
 181              		.loc 1 367 1
 182              		.cfi_startproc
 183              		@ args = 0, pretend = 0, frame = 8
 184              		@ frame_needed = 1, uses_anonymous_args = 0
 185 0000 80B5     		push	{r7, lr}
 186              		.cfi_def_cfa_offset 8
 187              		.cfi_offset 7, -8
 188              		.cfi_offset 14, -4
 189 0002 82B0     		sub	sp, sp, #8
 190              		.cfi_def_cfa_offset 16
 191 0004 00AF     		add	r7, sp, #0
 192              		.cfi_def_cfa_register 7
 193 0006 7860     		str	r0, [r7, #4]
 368:Drivers/STM32L4xx_HAL_Driver/Src/stm32l4xx_hal_wwdg.c ****   /* Check if Early Wakeup Interrupt is enable */
 369:Drivers/STM32L4xx_HAL_Driver/Src/stm32l4xx_hal_wwdg.c ****   if (__HAL_WWDG_GET_IT_SOURCE(hwwdg, WWDG_IT_EWI) != RESET)
 194              		.loc 1 369 7
 195 0008 7B68     		ldr	r3, [r7, #4]
 196 000a 1B68     		ldr	r3, [r3]
 197 000c 5B68     		ldr	r3, [r3, #4]
 198 000e 03F40073 		and	r3, r3, #512
 199              		.loc 1 369 6
 200 0012 B3F5007F 		cmp	r3, #512
 201 0016 0ED1     		bne	.L9
 370:Drivers/STM32L4xx_HAL_Driver/Src/stm32l4xx_hal_wwdg.c ****   {
 371:Drivers/STM32L4xx_HAL_Driver/Src/stm32l4xx_hal_wwdg.c ****     /* Check if WWDG Early Wakeup Interrupt occurred */
 372:Drivers/STM32L4xx_HAL_Driver/Src/stm32l4xx_hal_wwdg.c ****     if (__HAL_WWDG_GET_FLAG(hwwdg, WWDG_FLAG_EWIF) != RESET)
 202              		.loc 1 372 9
 203 0018 7B68     		ldr	r3, [r7, #4]
 204 001a 1B68     		ldr	r3, [r3]
 205 001c 9B68     		ldr	r3, [r3, #8]
 206 001e 03F00103 		and	r3, r3, #1
ARM GAS  /tmp/ccOrMXd6.s 			page 11


 207              		.loc 1 372 8
 208 0022 012B     		cmp	r3, #1
 209 0024 07D1     		bne	.L9
 373:Drivers/STM32L4xx_HAL_Driver/Src/stm32l4xx_hal_wwdg.c ****     {
 374:Drivers/STM32L4xx_HAL_Driver/Src/stm32l4xx_hal_wwdg.c ****       /* Clear the WWDG Early Wakeup flag */
 375:Drivers/STM32L4xx_HAL_Driver/Src/stm32l4xx_hal_wwdg.c ****       __HAL_WWDG_CLEAR_FLAG(hwwdg, WWDG_FLAG_EWIF);
 210              		.loc 1 375 7
 211 0026 7B68     		ldr	r3, [r7, #4]
 212 0028 1B68     		ldr	r3, [r3]
 213 002a 6FF00102 		mvn	r2, #1
 214 002e 9A60     		str	r2, [r3, #8]
 376:Drivers/STM32L4xx_HAL_Driver/Src/stm32l4xx_hal_wwdg.c **** 
 377:Drivers/STM32L4xx_HAL_Driver/Src/stm32l4xx_hal_wwdg.c **** #if (USE_HAL_WWDG_REGISTER_CALLBACKS == 1)
 378:Drivers/STM32L4xx_HAL_Driver/Src/stm32l4xx_hal_wwdg.c ****       /* Early Wakeup registered callback */
 379:Drivers/STM32L4xx_HAL_Driver/Src/stm32l4xx_hal_wwdg.c ****       hwwdg->EwiCallback(hwwdg);
 380:Drivers/STM32L4xx_HAL_Driver/Src/stm32l4xx_hal_wwdg.c **** #else
 381:Drivers/STM32L4xx_HAL_Driver/Src/stm32l4xx_hal_wwdg.c ****       /* Early Wakeup callback */
 382:Drivers/STM32L4xx_HAL_Driver/Src/stm32l4xx_hal_wwdg.c ****       HAL_WWDG_EarlyWakeupCallback(hwwdg);
 215              		.loc 1 382 7
 216 0030 7868     		ldr	r0, [r7, #4]
 217 0032 FFF7FEFF 		bl	HAL_WWDG_EarlyWakeupCallback
 218              	.L9:
 383:Drivers/STM32L4xx_HAL_Driver/Src/stm32l4xx_hal_wwdg.c **** #endif /* USE_HAL_WWDG_REGISTER_CALLBACKS */
 384:Drivers/STM32L4xx_HAL_Driver/Src/stm32l4xx_hal_wwdg.c ****     }
 385:Drivers/STM32L4xx_HAL_Driver/Src/stm32l4xx_hal_wwdg.c ****   }
 386:Drivers/STM32L4xx_HAL_Driver/Src/stm32l4xx_hal_wwdg.c **** }
 219              		.loc 1 386 1
 220 0036 00BF     		nop
 221 0038 0837     		adds	r7, r7, #8
 222              		.cfi_def_cfa_offset 8
 223 003a BD46     		mov	sp, r7
 224              		.cfi_def_cfa_register 13
 225              		@ sp needed
 226 003c 80BD     		pop	{r7, pc}
 227              		.cfi_endproc
 228              	.LFE448:
 230              		.section	.text.HAL_WWDG_EarlyWakeupCallback,"ax",%progbits
 231              		.align	1
 232              		.weak	HAL_WWDG_EarlyWakeupCallback
 233              		.syntax unified
 234              		.thumb
 235              		.thumb_func
 237              	HAL_WWDG_EarlyWakeupCallback:
 238              	.LFB449:
 387:Drivers/STM32L4xx_HAL_Driver/Src/stm32l4xx_hal_wwdg.c **** 
 388:Drivers/STM32L4xx_HAL_Driver/Src/stm32l4xx_hal_wwdg.c **** 
 389:Drivers/STM32L4xx_HAL_Driver/Src/stm32l4xx_hal_wwdg.c **** /**
 390:Drivers/STM32L4xx_HAL_Driver/Src/stm32l4xx_hal_wwdg.c ****   * @brief  WWDG Early Wakeup callback.
 391:Drivers/STM32L4xx_HAL_Driver/Src/stm32l4xx_hal_wwdg.c ****   * @param  hwwdg  pointer to a WWDG_HandleTypeDef structure that contains
 392:Drivers/STM32L4xx_HAL_Driver/Src/stm32l4xx_hal_wwdg.c ****   *                the configuration information for the specified WWDG module.
 393:Drivers/STM32L4xx_HAL_Driver/Src/stm32l4xx_hal_wwdg.c ****   * @retval None
 394:Drivers/STM32L4xx_HAL_Driver/Src/stm32l4xx_hal_wwdg.c ****   */
 395:Drivers/STM32L4xx_HAL_Driver/Src/stm32l4xx_hal_wwdg.c **** __weak void HAL_WWDG_EarlyWakeupCallback(WWDG_HandleTypeDef *hwwdg)
 396:Drivers/STM32L4xx_HAL_Driver/Src/stm32l4xx_hal_wwdg.c **** {
 239              		.loc 1 396 1
 240              		.cfi_startproc
 241              		@ args = 0, pretend = 0, frame = 8
ARM GAS  /tmp/ccOrMXd6.s 			page 12


 242              		@ frame_needed = 1, uses_anonymous_args = 0
 243              		@ link register save eliminated.
 244 0000 80B4     		push	{r7}
 245              		.cfi_def_cfa_offset 4
 246              		.cfi_offset 7, -4
 247 0002 83B0     		sub	sp, sp, #12
 248              		.cfi_def_cfa_offset 16
 249 0004 00AF     		add	r7, sp, #0
 250              		.cfi_def_cfa_register 7
 251 0006 7860     		str	r0, [r7, #4]
 397:Drivers/STM32L4xx_HAL_Driver/Src/stm32l4xx_hal_wwdg.c ****   /* Prevent unused argument(s) compilation warning */
 398:Drivers/STM32L4xx_HAL_Driver/Src/stm32l4xx_hal_wwdg.c ****   UNUSED(hwwdg);
 399:Drivers/STM32L4xx_HAL_Driver/Src/stm32l4xx_hal_wwdg.c **** 
 400:Drivers/STM32L4xx_HAL_Driver/Src/stm32l4xx_hal_wwdg.c ****   /* NOTE: This function should not be modified, when the callback is needed,
 401:Drivers/STM32L4xx_HAL_Driver/Src/stm32l4xx_hal_wwdg.c ****            the HAL_WWDG_EarlyWakeupCallback could be implemented in the user file
 402:Drivers/STM32L4xx_HAL_Driver/Src/stm32l4xx_hal_wwdg.c ****    */
 403:Drivers/STM32L4xx_HAL_Driver/Src/stm32l4xx_hal_wwdg.c **** }
 252              		.loc 1 403 1
 253 0008 00BF     		nop
 254 000a 0C37     		adds	r7, r7, #12
 255              		.cfi_def_cfa_offset 4
 256 000c BD46     		mov	sp, r7
 257              		.cfi_def_cfa_register 13
 258              		@ sp needed
 259 000e 5DF8047B 		ldr	r7, [sp], #4
 260              		.cfi_restore 7
 261              		.cfi_def_cfa_offset 0
 262 0012 7047     		bx	lr
 263              		.cfi_endproc
 264              	.LFE449:
 266              		.text
 267              	.Letext0:
 268              		.file 2 "/usr/lib/gcc/arm-none-eabi/13.2.1/include/stdint.h"
 269              		.file 3 "Drivers/CMSIS/Device/ST/STM32L4xx/Include/stm32l475xx.h"
 270              		.file 4 "Drivers/CMSIS/Device/ST/STM32L4xx/Include/stm32l4xx.h"
 271              		.file 5 "Drivers/STM32L4xx_HAL_Driver/Inc/stm32l4xx_hal_def.h"
 272              		.file 6 "Drivers/STM32L4xx_HAL_Driver/Inc/stm32l4xx_hal_wwdg.h"
 273              		.file 7 "Drivers/STM32L4xx_HAL_Driver/Inc/stm32l4xx_ll_dma.h"
ARM GAS  /tmp/ccOrMXd6.s 			page 13

