ARM GAS  /tmp/ccxDtYCK.s 			page 1


   1              		.cpu cortex-m4
   2              		.arch armv7e-m
   3              		.fpu fpv4-sp-d16
   4              		.eabi_attribute 27, 1
   5              		.eabi_attribute 28, 1
   6              		.eabi_attribute 20, 1
   7              		.eabi_attribute 21, 1
   8              		.eabi_attribute 23, 3
   9              		.eabi_attribute 24, 1
  10              		.eabi_attribute 25, 1
  11              		.eabi_attribute 26, 1
  12              		.eabi_attribute 30, 6
  13              		.eabi_attribute 34, 1
  14              		.eabi_attribute 18, 4
  15              		.file	"stm32l475e_iot01_psensor.c"
  16              		.text
  17              	.Ltext0:
  18              		.cfi_sections	.debug_frame
  19              		.file 1 "Drivers/BSP/B-L475E-IOT01/stm32l475e_iot01_psensor.c"
  20              		.section	.rodata.CHANNEL_OFFSET_TAB,"a"
  21              		.align	2
  24              	CHANNEL_OFFSET_TAB:
  25 0000 081C3044 		.ascii	"\010\0340DXl\200"
  25      586C80
  26              		.section	.bss.Psensor_drv,"aw",%nobits
  27              		.align	2
  30              	Psensor_drv:
  31 0000 00000000 		.space	4
  32              		.section	.text.BSP_PSENSOR_Init,"ax",%progbits
  33              		.align	1
  34              		.global	BSP_PSENSOR_Init
  35              		.syntax unified
  36              		.thumb
  37              		.thumb_func
  39              	BSP_PSENSOR_Init:
  40              	.LFB445:
   1:Drivers/BSP/B-L475E-IOT01/stm32l475e_iot01_psensor.c **** /**
   2:Drivers/BSP/B-L475E-IOT01/stm32l475e_iot01_psensor.c ****   ******************************************************************************
   3:Drivers/BSP/B-L475E-IOT01/stm32l475e_iot01_psensor.c ****   * @file    stm32l475e_iot01_psensor.c
   4:Drivers/BSP/B-L475E-IOT01/stm32l475e_iot01_psensor.c ****   * @author  MCD Application Team
   5:Drivers/BSP/B-L475E-IOT01/stm32l475e_iot01_psensor.c ****   * @brief   This file provides a set of functions needed to manage the pressure sensor
   6:Drivers/BSP/B-L475E-IOT01/stm32l475e_iot01_psensor.c ****   ******************************************************************************
   7:Drivers/BSP/B-L475E-IOT01/stm32l475e_iot01_psensor.c ****   * @attention
   8:Drivers/BSP/B-L475E-IOT01/stm32l475e_iot01_psensor.c ****   *
   9:Drivers/BSP/B-L475E-IOT01/stm32l475e_iot01_psensor.c ****   * Copyright (c) 2017 STMicroelectronics.
  10:Drivers/BSP/B-L475E-IOT01/stm32l475e_iot01_psensor.c ****   * All rights reserved.
  11:Drivers/BSP/B-L475E-IOT01/stm32l475e_iot01_psensor.c ****   *
  12:Drivers/BSP/B-L475E-IOT01/stm32l475e_iot01_psensor.c ****   * This software is licensed under terms that can be found in the LICENSE file
  13:Drivers/BSP/B-L475E-IOT01/stm32l475e_iot01_psensor.c ****   * in the root directory of this software component.
  14:Drivers/BSP/B-L475E-IOT01/stm32l475e_iot01_psensor.c ****   * If no LICENSE file comes with this software, it is provided AS-IS.
  15:Drivers/BSP/B-L475E-IOT01/stm32l475e_iot01_psensor.c ****   *
  16:Drivers/BSP/B-L475E-IOT01/stm32l475e_iot01_psensor.c ****   ******************************************************************************
  17:Drivers/BSP/B-L475E-IOT01/stm32l475e_iot01_psensor.c ****   */
  18:Drivers/BSP/B-L475E-IOT01/stm32l475e_iot01_psensor.c **** 
  19:Drivers/BSP/B-L475E-IOT01/stm32l475e_iot01_psensor.c **** /* Includes ------------------------------------------------------------------*/
  20:Drivers/BSP/B-L475E-IOT01/stm32l475e_iot01_psensor.c **** #include "stm32l475e_iot01_psensor.h"
  21:Drivers/BSP/B-L475E-IOT01/stm32l475e_iot01_psensor.c **** 
ARM GAS  /tmp/ccxDtYCK.s 			page 2


  22:Drivers/BSP/B-L475E-IOT01/stm32l475e_iot01_psensor.c **** /** @addtogroup BSP
  23:Drivers/BSP/B-L475E-IOT01/stm32l475e_iot01_psensor.c ****   * @{
  24:Drivers/BSP/B-L475E-IOT01/stm32l475e_iot01_psensor.c ****   */ 
  25:Drivers/BSP/B-L475E-IOT01/stm32l475e_iot01_psensor.c **** 
  26:Drivers/BSP/B-L475E-IOT01/stm32l475e_iot01_psensor.c **** /** @addtogroup STM32L475E_IOT01
  27:Drivers/BSP/B-L475E-IOT01/stm32l475e_iot01_psensor.c ****   * @{
  28:Drivers/BSP/B-L475E-IOT01/stm32l475e_iot01_psensor.c ****   */
  29:Drivers/BSP/B-L475E-IOT01/stm32l475e_iot01_psensor.c **** 
  30:Drivers/BSP/B-L475E-IOT01/stm32l475e_iot01_psensor.c **** /** @defgroup STM32L475E_IOT01_PRESSURE PRESSURE
  31:Drivers/BSP/B-L475E-IOT01/stm32l475e_iot01_psensor.c ****   * @{
  32:Drivers/BSP/B-L475E-IOT01/stm32l475e_iot01_psensor.c ****   */
  33:Drivers/BSP/B-L475E-IOT01/stm32l475e_iot01_psensor.c **** 
  34:Drivers/BSP/B-L475E-IOT01/stm32l475e_iot01_psensor.c **** /** @defgroup STM32L475E_IOT01_PRESSURE_Private_Variables PRESSURE Private Variables 
  35:Drivers/BSP/B-L475E-IOT01/stm32l475e_iot01_psensor.c ****   * @{
  36:Drivers/BSP/B-L475E-IOT01/stm32l475e_iot01_psensor.c ****   */ 
  37:Drivers/BSP/B-L475E-IOT01/stm32l475e_iot01_psensor.c **** static PSENSOR_DrvTypeDef *Psensor_drv;  
  38:Drivers/BSP/B-L475E-IOT01/stm32l475e_iot01_psensor.c **** /**
  39:Drivers/BSP/B-L475E-IOT01/stm32l475e_iot01_psensor.c ****   * @}
  40:Drivers/BSP/B-L475E-IOT01/stm32l475e_iot01_psensor.c ****   */
  41:Drivers/BSP/B-L475E-IOT01/stm32l475e_iot01_psensor.c **** 
  42:Drivers/BSP/B-L475E-IOT01/stm32l475e_iot01_psensor.c **** /** @defgroup STM32L475E_IOT01_PRESSURE_Private_Functions PRESSURE Private Functions
  43:Drivers/BSP/B-L475E-IOT01/stm32l475e_iot01_psensor.c ****   * @{
  44:Drivers/BSP/B-L475E-IOT01/stm32l475e_iot01_psensor.c ****   */ 
  45:Drivers/BSP/B-L475E-IOT01/stm32l475e_iot01_psensor.c **** 
  46:Drivers/BSP/B-L475E-IOT01/stm32l475e_iot01_psensor.c **** /**
  47:Drivers/BSP/B-L475E-IOT01/stm32l475e_iot01_psensor.c ****   * @brief  Initializes peripherals used by the I2C Pressure Sensor driver.
  48:Drivers/BSP/B-L475E-IOT01/stm32l475e_iot01_psensor.c ****   * @retval PSENSOR status
  49:Drivers/BSP/B-L475E-IOT01/stm32l475e_iot01_psensor.c ****   */
  50:Drivers/BSP/B-L475E-IOT01/stm32l475e_iot01_psensor.c **** uint32_t BSP_PSENSOR_Init(void)
  51:Drivers/BSP/B-L475E-IOT01/stm32l475e_iot01_psensor.c **** {
  41              		.loc 1 51 1
  42              		.cfi_startproc
  43              		@ args = 0, pretend = 0, frame = 8
  44              		@ frame_needed = 1, uses_anonymous_args = 0
  45 0000 80B5     		push	{r7, lr}
  46              		.cfi_def_cfa_offset 8
  47              		.cfi_offset 7, -8
  48              		.cfi_offset 14, -4
  49 0002 82B0     		sub	sp, sp, #8
  50              		.cfi_def_cfa_offset 16
  51 0004 00AF     		add	r7, sp, #0
  52              		.cfi_def_cfa_register 7
  52:Drivers/BSP/B-L475E-IOT01/stm32l475e_iot01_psensor.c ****   uint32_t ret;
  53:Drivers/BSP/B-L475E-IOT01/stm32l475e_iot01_psensor.c ****    
  54:Drivers/BSP/B-L475E-IOT01/stm32l475e_iot01_psensor.c ****   if(LPS22HB_P_Drv.ReadID(LPS22HB_I2C_ADDRESS) != LPS22HB_WHO_AM_I_VAL)
  53              		.loc 1 54 19
  54 0006 0C4B     		ldr	r3, .L5
  55 0008 5B68     		ldr	r3, [r3, #4]
  56              		.loc 1 54 6
  57 000a BA20     		movs	r0, #186
  58 000c 9847     		blx	r3
  59              	.LVL0:
  60 000e 0346     		mov	r3, r0
  61              		.loc 1 54 5 discriminator 1
  62 0010 B12B     		cmp	r3, #177
  63 0012 02D0     		beq	.L2
  55:Drivers/BSP/B-L475E-IOT01/stm32l475e_iot01_psensor.c ****   {
ARM GAS  /tmp/ccxDtYCK.s 			page 3


  56:Drivers/BSP/B-L475E-IOT01/stm32l475e_iot01_psensor.c ****     ret = PSENSOR_ERROR;
  64              		.loc 1 56 9
  65 0014 0123     		movs	r3, #1
  66 0016 7B60     		str	r3, [r7, #4]
  67 0018 09E0     		b	.L3
  68              	.L2:
  57:Drivers/BSP/B-L475E-IOT01/stm32l475e_iot01_psensor.c ****   }
  58:Drivers/BSP/B-L475E-IOT01/stm32l475e_iot01_psensor.c ****   else
  59:Drivers/BSP/B-L475E-IOT01/stm32l475e_iot01_psensor.c ****   {
  60:Drivers/BSP/B-L475E-IOT01/stm32l475e_iot01_psensor.c ****      Psensor_drv = &LPS22HB_P_Drv;
  69              		.loc 1 60 18
  70 001a 084B     		ldr	r3, .L5+4
  71 001c 064A     		ldr	r2, .L5
  72 001e 1A60     		str	r2, [r3]
  61:Drivers/BSP/B-L475E-IOT01/stm32l475e_iot01_psensor.c ****      
  62:Drivers/BSP/B-L475E-IOT01/stm32l475e_iot01_psensor.c ****     /* PSENSOR Init */   
  63:Drivers/BSP/B-L475E-IOT01/stm32l475e_iot01_psensor.c ****     Psensor_drv->Init(LPS22HB_I2C_ADDRESS);
  73              		.loc 1 63 16
  74 0020 064B     		ldr	r3, .L5+4
  75 0022 1B68     		ldr	r3, [r3]
  76 0024 1B68     		ldr	r3, [r3]
  77              		.loc 1 63 5
  78 0026 BA20     		movs	r0, #186
  79 0028 9847     		blx	r3
  80              	.LVL1:
  64:Drivers/BSP/B-L475E-IOT01/stm32l475e_iot01_psensor.c ****     ret = PSENSOR_OK;
  81              		.loc 1 64 9
  82 002a 0023     		movs	r3, #0
  83 002c 7B60     		str	r3, [r7, #4]
  84              	.L3:
  65:Drivers/BSP/B-L475E-IOT01/stm32l475e_iot01_psensor.c ****   }
  66:Drivers/BSP/B-L475E-IOT01/stm32l475e_iot01_psensor.c ****   
  67:Drivers/BSP/B-L475E-IOT01/stm32l475e_iot01_psensor.c ****   return ret;
  85              		.loc 1 67 10
  86 002e 7B68     		ldr	r3, [r7, #4]
  68:Drivers/BSP/B-L475E-IOT01/stm32l475e_iot01_psensor.c **** }
  87              		.loc 1 68 1
  88 0030 1846     		mov	r0, r3
  89 0032 0837     		adds	r7, r7, #8
  90              		.cfi_def_cfa_offset 8
  91 0034 BD46     		mov	sp, r7
  92              		.cfi_def_cfa_register 13
  93              		@ sp needed
  94 0036 80BD     		pop	{r7, pc}
  95              	.L6:
  96              		.align	2
  97              	.L5:
  98 0038 00000000 		.word	LPS22HB_P_Drv
  99 003c 00000000 		.word	Psensor_drv
 100              		.cfi_endproc
 101              	.LFE445:
 103              		.section	.text.BSP_PSENSOR_ReadID,"ax",%progbits
 104              		.align	1
 105              		.global	BSP_PSENSOR_ReadID
 106              		.syntax unified
 107              		.thumb
 108              		.thumb_func
ARM GAS  /tmp/ccxDtYCK.s 			page 4


 110              	BSP_PSENSOR_ReadID:
 111              	.LFB446:
  69:Drivers/BSP/B-L475E-IOT01/stm32l475e_iot01_psensor.c **** 
  70:Drivers/BSP/B-L475E-IOT01/stm32l475e_iot01_psensor.c **** /**
  71:Drivers/BSP/B-L475E-IOT01/stm32l475e_iot01_psensor.c ****   * @brief  Read ID of LPS22HB.
  72:Drivers/BSP/B-L475E-IOT01/stm32l475e_iot01_psensor.c ****   * @retval LPS22HB ID value.
  73:Drivers/BSP/B-L475E-IOT01/stm32l475e_iot01_psensor.c ****   */
  74:Drivers/BSP/B-L475E-IOT01/stm32l475e_iot01_psensor.c **** uint8_t BSP_PSENSOR_ReadID(void)
  75:Drivers/BSP/B-L475E-IOT01/stm32l475e_iot01_psensor.c **** { 
 112              		.loc 1 75 1
 113              		.cfi_startproc
 114              		@ args = 0, pretend = 0, frame = 0
 115              		@ frame_needed = 1, uses_anonymous_args = 0
 116 0000 80B5     		push	{r7, lr}
 117              		.cfi_def_cfa_offset 8
 118              		.cfi_offset 7, -8
 119              		.cfi_offset 14, -4
 120 0002 00AF     		add	r7, sp, #0
 121              		.cfi_def_cfa_register 7
  76:Drivers/BSP/B-L475E-IOT01/stm32l475e_iot01_psensor.c ****   return Psensor_drv->ReadID(LPS22HB_I2C_ADDRESS);
 122              		.loc 1 76 21
 123 0004 034B     		ldr	r3, .L9
 124 0006 1B68     		ldr	r3, [r3]
 125 0008 5B68     		ldr	r3, [r3, #4]
 126              		.loc 1 76 10
 127 000a BA20     		movs	r0, #186
 128 000c 9847     		blx	r3
 129              	.LVL2:
 130 000e 0346     		mov	r3, r0
  77:Drivers/BSP/B-L475E-IOT01/stm32l475e_iot01_psensor.c **** }
 131              		.loc 1 77 1
 132 0010 1846     		mov	r0, r3
 133 0012 80BD     		pop	{r7, pc}
 134              	.L10:
 135              		.align	2
 136              	.L9:
 137 0014 00000000 		.word	Psensor_drv
 138              		.cfi_endproc
 139              	.LFE446:
 141              		.section	.text.BSP_PSENSOR_ReadPressure,"ax",%progbits
 142              		.align	1
 143              		.global	BSP_PSENSOR_ReadPressure
 144              		.syntax unified
 145              		.thumb
 146              		.thumb_func
 148              	BSP_PSENSOR_ReadPressure:
 149              	.LFB447:
  78:Drivers/BSP/B-L475E-IOT01/stm32l475e_iot01_psensor.c **** 
  79:Drivers/BSP/B-L475E-IOT01/stm32l475e_iot01_psensor.c **** /**
  80:Drivers/BSP/B-L475E-IOT01/stm32l475e_iot01_psensor.c ****   * @brief  Read Pressure register of LPS22HB.
  81:Drivers/BSP/B-L475E-IOT01/stm32l475e_iot01_psensor.c ****   * @retval LPS22HB measured pressure value.
  82:Drivers/BSP/B-L475E-IOT01/stm32l475e_iot01_psensor.c ****   */
  83:Drivers/BSP/B-L475E-IOT01/stm32l475e_iot01_psensor.c **** float BSP_PSENSOR_ReadPressure(void)
  84:Drivers/BSP/B-L475E-IOT01/stm32l475e_iot01_psensor.c **** { 
 150              		.loc 1 84 1
 151              		.cfi_startproc
 152              		@ args = 0, pretend = 0, frame = 0
ARM GAS  /tmp/ccxDtYCK.s 			page 5


 153              		@ frame_needed = 1, uses_anonymous_args = 0
 154 0000 80B5     		push	{r7, lr}
 155              		.cfi_def_cfa_offset 8
 156              		.cfi_offset 7, -8
 157              		.cfi_offset 14, -4
 158 0002 00AF     		add	r7, sp, #0
 159              		.cfi_def_cfa_register 7
  85:Drivers/BSP/B-L475E-IOT01/stm32l475e_iot01_psensor.c ****   return Psensor_drv->ReadPressure(LPS22HB_I2C_ADDRESS);
 160              		.loc 1 85 21
 161 0004 044B     		ldr	r3, .L13
 162 0006 1B68     		ldr	r3, [r3]
 163 0008 9B68     		ldr	r3, [r3, #8]
 164              		.loc 1 85 10
 165 000a BA20     		movs	r0, #186
 166 000c 9847     		blx	r3
 167              	.LVL3:
 168 000e F0EE407A 		vmov.f32	s15, s0
  86:Drivers/BSP/B-L475E-IOT01/stm32l475e_iot01_psensor.c **** }
 169              		.loc 1 86 1
 170 0012 B0EE670A 		vmov.f32	s0, s15
 171 0016 80BD     		pop	{r7, pc}
 172              	.L14:
 173              		.align	2
 174              	.L13:
 175 0018 00000000 		.word	Psensor_drv
 176              		.cfi_endproc
 177              	.LFE447:
 179              		.text
 180              	.Letext0:
 181              		.file 2 "/usr/lib/gcc/arm-none-eabi/13.2.1/include/stdint.h"
 182              		.file 3 "Drivers/BSP/B-L475E-IOT01/../Components/lps22hb/../Common/psensor.h"
 183              		.file 4 "Drivers/STM32L4xx_HAL_Driver/Inc/stm32l4xx_ll_dma.h"
 184              		.file 5 "Drivers/BSP/B-L475E-IOT01/../Components/lps22hb/lps22hb.h"
 185              		.file 6 "Drivers/BSP/B-L475E-IOT01/stm32l475e_iot01_psensor.h"
ARM GAS  /tmp/ccxDtYCK.s 			page 6

