ARM GAS  /tmp/ccDAjxq4.s 			page 1


   1              		.cpu cortex-m4
   2              		.arch armv7e-m
   3              		.fpu fpv4-sp-d16
   4              		.eabi_attribute 27, 1
   5              		.eabi_attribute 28, 1
   6              		.eabi_attribute 20, 1
   7              		.eabi_attribute 21, 1
   8              		.eabi_attribute 23, 3
   9              		.eabi_attribute 24, 1
  10              		.eabi_attribute 25, 1
  11              		.eabi_attribute 26, 1
  12              		.eabi_attribute 30, 6
  13              		.eabi_attribute 34, 1
  14              		.eabi_attribute 18, 4
  15              		.file	"stm32l4xx_hal_smartcard.c"
  16              		.text
  17              	.Ltext0:
  18              		.cfi_sections	.debug_frame
  19              		.file 1 "Drivers/STM32L4xx_HAL_Driver/Src/stm32l4xx_hal_smartcard.c"
  20              		.section	.rodata.CHANNEL_OFFSET_TAB,"a"
  21              		.align	2
  24              	CHANNEL_OFFSET_TAB:
  25 0000 081C3044 		.ascii	"\010\0340DXl\200"
  25      586C80
  26              		.section	.text.HAL_SMARTCARD_Init,"ax",%progbits
  27              		.align	1
  28              		.global	HAL_SMARTCARD_Init
  29              		.syntax unified
  30              		.thumb
  31              		.thumb_func
  33              	HAL_SMARTCARD_Init:
  34              	.LFB445:
   1:Drivers/STM32L4xx_HAL_Driver/Src/stm32l4xx_hal_smartcard.c **** /**
   2:Drivers/STM32L4xx_HAL_Driver/Src/stm32l4xx_hal_smartcard.c ****   ******************************************************************************
   3:Drivers/STM32L4xx_HAL_Driver/Src/stm32l4xx_hal_smartcard.c ****   * @file    stm32l4xx_hal_smartcard.c
   4:Drivers/STM32L4xx_HAL_Driver/Src/stm32l4xx_hal_smartcard.c ****   * @author  MCD Application Team
   5:Drivers/STM32L4xx_HAL_Driver/Src/stm32l4xx_hal_smartcard.c ****   * @brief   SMARTCARD HAL module driver.
   6:Drivers/STM32L4xx_HAL_Driver/Src/stm32l4xx_hal_smartcard.c ****   *          This file provides firmware functions to manage the following
   7:Drivers/STM32L4xx_HAL_Driver/Src/stm32l4xx_hal_smartcard.c ****   *          functionalities of the SMARTCARD peripheral:
   8:Drivers/STM32L4xx_HAL_Driver/Src/stm32l4xx_hal_smartcard.c ****   *           + Initialization and de-initialization functions
   9:Drivers/STM32L4xx_HAL_Driver/Src/stm32l4xx_hal_smartcard.c ****   *           + IO operation functions
  10:Drivers/STM32L4xx_HAL_Driver/Src/stm32l4xx_hal_smartcard.c ****   *           + Peripheral Control functions
  11:Drivers/STM32L4xx_HAL_Driver/Src/stm32l4xx_hal_smartcard.c ****   *           + Peripheral State and Error functions
  12:Drivers/STM32L4xx_HAL_Driver/Src/stm32l4xx_hal_smartcard.c ****   *
  13:Drivers/STM32L4xx_HAL_Driver/Src/stm32l4xx_hal_smartcard.c ****   ******************************************************************************
  14:Drivers/STM32L4xx_HAL_Driver/Src/stm32l4xx_hal_smartcard.c ****   * @attention
  15:Drivers/STM32L4xx_HAL_Driver/Src/stm32l4xx_hal_smartcard.c ****   *
  16:Drivers/STM32L4xx_HAL_Driver/Src/stm32l4xx_hal_smartcard.c ****   * Copyright (c) 2017 STMicroelectronics.
  17:Drivers/STM32L4xx_HAL_Driver/Src/stm32l4xx_hal_smartcard.c ****   * All rights reserved.
  18:Drivers/STM32L4xx_HAL_Driver/Src/stm32l4xx_hal_smartcard.c ****   *
  19:Drivers/STM32L4xx_HAL_Driver/Src/stm32l4xx_hal_smartcard.c ****   * This software is licensed under terms that can be found in the LICENSE file
  20:Drivers/STM32L4xx_HAL_Driver/Src/stm32l4xx_hal_smartcard.c ****   * in the root directory of this software component.
  21:Drivers/STM32L4xx_HAL_Driver/Src/stm32l4xx_hal_smartcard.c ****   * If no LICENSE file comes with this software, it is provided AS-IS.
  22:Drivers/STM32L4xx_HAL_Driver/Src/stm32l4xx_hal_smartcard.c ****   *
  23:Drivers/STM32L4xx_HAL_Driver/Src/stm32l4xx_hal_smartcard.c ****   ******************************************************************************
  24:Drivers/STM32L4xx_HAL_Driver/Src/stm32l4xx_hal_smartcard.c ****   @verbatim
  25:Drivers/STM32L4xx_HAL_Driver/Src/stm32l4xx_hal_smartcard.c ****   ==============================================================================
ARM GAS  /tmp/ccDAjxq4.s 			page 2


  26:Drivers/STM32L4xx_HAL_Driver/Src/stm32l4xx_hal_smartcard.c ****                         ##### How to use this driver #####
  27:Drivers/STM32L4xx_HAL_Driver/Src/stm32l4xx_hal_smartcard.c ****   ==============================================================================
  28:Drivers/STM32L4xx_HAL_Driver/Src/stm32l4xx_hal_smartcard.c ****   [..]
  29:Drivers/STM32L4xx_HAL_Driver/Src/stm32l4xx_hal_smartcard.c ****     The SMARTCARD HAL driver can be used as follows:
  30:Drivers/STM32L4xx_HAL_Driver/Src/stm32l4xx_hal_smartcard.c **** 
  31:Drivers/STM32L4xx_HAL_Driver/Src/stm32l4xx_hal_smartcard.c ****     (#) Declare a SMARTCARD_HandleTypeDef handle structure (eg. SMARTCARD_HandleTypeDef hsmartcard)
  32:Drivers/STM32L4xx_HAL_Driver/Src/stm32l4xx_hal_smartcard.c ****     (#) Associate a USART to the SMARTCARD handle hsmartcard.
  33:Drivers/STM32L4xx_HAL_Driver/Src/stm32l4xx_hal_smartcard.c ****     (#) Initialize the SMARTCARD low level resources by implementing the HAL_SMARTCARD_MspInit() AP
  34:Drivers/STM32L4xx_HAL_Driver/Src/stm32l4xx_hal_smartcard.c ****         (++) Enable the USARTx interface clock.
  35:Drivers/STM32L4xx_HAL_Driver/Src/stm32l4xx_hal_smartcard.c ****         (++) USART pins configuration:
  36:Drivers/STM32L4xx_HAL_Driver/Src/stm32l4xx_hal_smartcard.c ****              (+++) Enable the clock for the USART GPIOs.
  37:Drivers/STM32L4xx_HAL_Driver/Src/stm32l4xx_hal_smartcard.c ****              (+++) Configure the USART pins (TX as alternate function pull-up, RX as alternate func
  38:Drivers/STM32L4xx_HAL_Driver/Src/stm32l4xx_hal_smartcard.c ****         (++) NVIC configuration if you need to use interrupt process (HAL_SMARTCARD_Transmit_IT()
  39:Drivers/STM32L4xx_HAL_Driver/Src/stm32l4xx_hal_smartcard.c ****              and HAL_SMARTCARD_Receive_IT() APIs):
  40:Drivers/STM32L4xx_HAL_Driver/Src/stm32l4xx_hal_smartcard.c ****              (+++) Configure the USARTx interrupt priority.
  41:Drivers/STM32L4xx_HAL_Driver/Src/stm32l4xx_hal_smartcard.c ****              (+++) Enable the NVIC USART IRQ handle.
  42:Drivers/STM32L4xx_HAL_Driver/Src/stm32l4xx_hal_smartcard.c ****         (++) DMA Configuration if you need to use DMA process (HAL_SMARTCARD_Transmit_DMA()
  43:Drivers/STM32L4xx_HAL_Driver/Src/stm32l4xx_hal_smartcard.c ****              and HAL_SMARTCARD_Receive_DMA() APIs):
  44:Drivers/STM32L4xx_HAL_Driver/Src/stm32l4xx_hal_smartcard.c ****              (+++) Declare a DMA handle structure for the Tx/Rx channel.
  45:Drivers/STM32L4xx_HAL_Driver/Src/stm32l4xx_hal_smartcard.c ****              (+++) Enable the DMAx interface clock.
  46:Drivers/STM32L4xx_HAL_Driver/Src/stm32l4xx_hal_smartcard.c ****              (+++) Configure the declared DMA handle structure with the required Tx/Rx parameters.
  47:Drivers/STM32L4xx_HAL_Driver/Src/stm32l4xx_hal_smartcard.c ****              (+++) Configure the DMA Tx/Rx channel.
  48:Drivers/STM32L4xx_HAL_Driver/Src/stm32l4xx_hal_smartcard.c ****              (+++) Associate the initialized DMA handle to the SMARTCARD DMA Tx/Rx handle.
  49:Drivers/STM32L4xx_HAL_Driver/Src/stm32l4xx_hal_smartcard.c ****              (+++) Configure the priority and enable the NVIC for the transfer complete
  50:Drivers/STM32L4xx_HAL_Driver/Src/stm32l4xx_hal_smartcard.c ****                    interrupt on the DMA Tx/Rx channel.
  51:Drivers/STM32L4xx_HAL_Driver/Src/stm32l4xx_hal_smartcard.c **** 
  52:Drivers/STM32L4xx_HAL_Driver/Src/stm32l4xx_hal_smartcard.c ****     (#) Program the Baud Rate, Parity, Mode(Receiver/Transmitter), clock enabling/disabling and acc
  53:Drivers/STM32L4xx_HAL_Driver/Src/stm32l4xx_hal_smartcard.c ****         the clock parameters (parity, phase, last bit), prescaler value, guard time and NACK on tra
  54:Drivers/STM32L4xx_HAL_Driver/Src/stm32l4xx_hal_smartcard.c ****         error enabling or disabling in the hsmartcard handle Init structure.
  55:Drivers/STM32L4xx_HAL_Driver/Src/stm32l4xx_hal_smartcard.c **** 
  56:Drivers/STM32L4xx_HAL_Driver/Src/stm32l4xx_hal_smartcard.c ****     (#) If required, program SMARTCARD advanced features (TX/RX pins swap, TimeOut, auto-retry coun
  57:Drivers/STM32L4xx_HAL_Driver/Src/stm32l4xx_hal_smartcard.c ****         in the hsmartcard handle AdvancedInit structure.
  58:Drivers/STM32L4xx_HAL_Driver/Src/stm32l4xx_hal_smartcard.c **** 
  59:Drivers/STM32L4xx_HAL_Driver/Src/stm32l4xx_hal_smartcard.c ****     (#) Initialize the SMARTCARD registers by calling the HAL_SMARTCARD_Init() API:
  60:Drivers/STM32L4xx_HAL_Driver/Src/stm32l4xx_hal_smartcard.c ****         (++) This API configures also the low level Hardware GPIO, CLOCK, CORTEX...etc)
  61:Drivers/STM32L4xx_HAL_Driver/Src/stm32l4xx_hal_smartcard.c ****              by calling the customized HAL_SMARTCARD_MspInit() API.
  62:Drivers/STM32L4xx_HAL_Driver/Src/stm32l4xx_hal_smartcard.c ****         [..]
  63:Drivers/STM32L4xx_HAL_Driver/Src/stm32l4xx_hal_smartcard.c ****         (@) The specific SMARTCARD interrupts (Transmission complete interrupt,
  64:Drivers/STM32L4xx_HAL_Driver/Src/stm32l4xx_hal_smartcard.c ****              RXNE interrupt and Error Interrupts) will be managed using the macros
  65:Drivers/STM32L4xx_HAL_Driver/Src/stm32l4xx_hal_smartcard.c ****              __HAL_SMARTCARD_ENABLE_IT() and __HAL_SMARTCARD_DISABLE_IT() inside the transmit and r
  66:Drivers/STM32L4xx_HAL_Driver/Src/stm32l4xx_hal_smartcard.c **** 
  67:Drivers/STM32L4xx_HAL_Driver/Src/stm32l4xx_hal_smartcard.c ****     [..]
  68:Drivers/STM32L4xx_HAL_Driver/Src/stm32l4xx_hal_smartcard.c ****     [..] Three operation modes are available within this driver :
  69:Drivers/STM32L4xx_HAL_Driver/Src/stm32l4xx_hal_smartcard.c **** 
  70:Drivers/STM32L4xx_HAL_Driver/Src/stm32l4xx_hal_smartcard.c ****      *** Polling mode IO operation ***
  71:Drivers/STM32L4xx_HAL_Driver/Src/stm32l4xx_hal_smartcard.c ****      =================================
  72:Drivers/STM32L4xx_HAL_Driver/Src/stm32l4xx_hal_smartcard.c ****      [..]
  73:Drivers/STM32L4xx_HAL_Driver/Src/stm32l4xx_hal_smartcard.c ****        (+) Send an amount of data in blocking mode using HAL_SMARTCARD_Transmit()
  74:Drivers/STM32L4xx_HAL_Driver/Src/stm32l4xx_hal_smartcard.c ****        (+) Receive an amount of data in blocking mode using HAL_SMARTCARD_Receive()
  75:Drivers/STM32L4xx_HAL_Driver/Src/stm32l4xx_hal_smartcard.c **** 
  76:Drivers/STM32L4xx_HAL_Driver/Src/stm32l4xx_hal_smartcard.c ****      *** Interrupt mode IO operation ***
  77:Drivers/STM32L4xx_HAL_Driver/Src/stm32l4xx_hal_smartcard.c ****      ===================================
  78:Drivers/STM32L4xx_HAL_Driver/Src/stm32l4xx_hal_smartcard.c ****      [..]
  79:Drivers/STM32L4xx_HAL_Driver/Src/stm32l4xx_hal_smartcard.c ****        (+) Send an amount of data in non-blocking mode using HAL_SMARTCARD_Transmit_IT()
  80:Drivers/STM32L4xx_HAL_Driver/Src/stm32l4xx_hal_smartcard.c ****        (+) At transmission end of transfer HAL_SMARTCARD_TxCpltCallback() is executed and user can
  81:Drivers/STM32L4xx_HAL_Driver/Src/stm32l4xx_hal_smartcard.c ****             add his own code by customization of function pointer HAL_SMARTCARD_TxCpltCallback()
  82:Drivers/STM32L4xx_HAL_Driver/Src/stm32l4xx_hal_smartcard.c ****        (+) Receive an amount of data in non-blocking mode using HAL_SMARTCARD_Receive_IT()
ARM GAS  /tmp/ccDAjxq4.s 			page 3


  83:Drivers/STM32L4xx_HAL_Driver/Src/stm32l4xx_hal_smartcard.c ****        (+) At reception end of transfer HAL_SMARTCARD_RxCpltCallback() is executed and user can
  84:Drivers/STM32L4xx_HAL_Driver/Src/stm32l4xx_hal_smartcard.c ****             add his own code by customization of function pointer HAL_SMARTCARD_RxCpltCallback()
  85:Drivers/STM32L4xx_HAL_Driver/Src/stm32l4xx_hal_smartcard.c ****        (+) In case of transfer Error, HAL_SMARTCARD_ErrorCallback() function is executed and user c
  86:Drivers/STM32L4xx_HAL_Driver/Src/stm32l4xx_hal_smartcard.c ****             add his own code by customization of function pointer HAL_SMARTCARD_ErrorCallback()
  87:Drivers/STM32L4xx_HAL_Driver/Src/stm32l4xx_hal_smartcard.c **** 
  88:Drivers/STM32L4xx_HAL_Driver/Src/stm32l4xx_hal_smartcard.c ****      *** DMA mode IO operation ***
  89:Drivers/STM32L4xx_HAL_Driver/Src/stm32l4xx_hal_smartcard.c ****      ==============================
  90:Drivers/STM32L4xx_HAL_Driver/Src/stm32l4xx_hal_smartcard.c ****      [..]
  91:Drivers/STM32L4xx_HAL_Driver/Src/stm32l4xx_hal_smartcard.c ****        (+) Send an amount of data in non-blocking mode (DMA) using HAL_SMARTCARD_Transmit_DMA()
  92:Drivers/STM32L4xx_HAL_Driver/Src/stm32l4xx_hal_smartcard.c ****        (+) At transmission end of transfer HAL_SMARTCARD_TxCpltCallback() is executed and user can
  93:Drivers/STM32L4xx_HAL_Driver/Src/stm32l4xx_hal_smartcard.c ****             add his own code by customization of function pointer HAL_SMARTCARD_TxCpltCallback()
  94:Drivers/STM32L4xx_HAL_Driver/Src/stm32l4xx_hal_smartcard.c ****        (+) Receive an amount of data in non-blocking mode (DMA) using HAL_SMARTCARD_Receive_DMA()
  95:Drivers/STM32L4xx_HAL_Driver/Src/stm32l4xx_hal_smartcard.c ****        (+) At reception end of transfer HAL_SMARTCARD_RxCpltCallback() is executed and user can
  96:Drivers/STM32L4xx_HAL_Driver/Src/stm32l4xx_hal_smartcard.c ****             add his own code by customization of function pointer HAL_SMARTCARD_RxCpltCallback()
  97:Drivers/STM32L4xx_HAL_Driver/Src/stm32l4xx_hal_smartcard.c ****        (+) In case of transfer Error, HAL_SMARTCARD_ErrorCallback() function is executed and user c
  98:Drivers/STM32L4xx_HAL_Driver/Src/stm32l4xx_hal_smartcard.c ****             add his own code by customization of function pointer HAL_SMARTCARD_ErrorCallback()
  99:Drivers/STM32L4xx_HAL_Driver/Src/stm32l4xx_hal_smartcard.c **** 
 100:Drivers/STM32L4xx_HAL_Driver/Src/stm32l4xx_hal_smartcard.c ****      *** SMARTCARD HAL driver macros list ***
 101:Drivers/STM32L4xx_HAL_Driver/Src/stm32l4xx_hal_smartcard.c ****      ========================================
 102:Drivers/STM32L4xx_HAL_Driver/Src/stm32l4xx_hal_smartcard.c ****      [..]
 103:Drivers/STM32L4xx_HAL_Driver/Src/stm32l4xx_hal_smartcard.c ****        Below the list of most used macros in SMARTCARD HAL driver.
 104:Drivers/STM32L4xx_HAL_Driver/Src/stm32l4xx_hal_smartcard.c **** 
 105:Drivers/STM32L4xx_HAL_Driver/Src/stm32l4xx_hal_smartcard.c ****        (+) __HAL_SMARTCARD_GET_FLAG : Check whether or not the specified SMARTCARD flag is set
 106:Drivers/STM32L4xx_HAL_Driver/Src/stm32l4xx_hal_smartcard.c ****        (+) __HAL_SMARTCARD_CLEAR_FLAG : Clear the specified SMARTCARD pending flag
 107:Drivers/STM32L4xx_HAL_Driver/Src/stm32l4xx_hal_smartcard.c ****        (+) __HAL_SMARTCARD_ENABLE_IT: Enable the specified SMARTCARD interrupt
 108:Drivers/STM32L4xx_HAL_Driver/Src/stm32l4xx_hal_smartcard.c ****        (+) __HAL_SMARTCARD_DISABLE_IT: Disable the specified SMARTCARD interrupt
 109:Drivers/STM32L4xx_HAL_Driver/Src/stm32l4xx_hal_smartcard.c ****        (+) __HAL_SMARTCARD_GET_IT_SOURCE: Check whether or not the specified SMARTCARD interrupt is
 110:Drivers/STM32L4xx_HAL_Driver/Src/stm32l4xx_hal_smartcard.c **** 
 111:Drivers/STM32L4xx_HAL_Driver/Src/stm32l4xx_hal_smartcard.c ****      [..]
 112:Drivers/STM32L4xx_HAL_Driver/Src/stm32l4xx_hal_smartcard.c ****        (@) You can refer to the SMARTCARD HAL driver header file for more useful macros
 113:Drivers/STM32L4xx_HAL_Driver/Src/stm32l4xx_hal_smartcard.c **** 
 114:Drivers/STM32L4xx_HAL_Driver/Src/stm32l4xx_hal_smartcard.c ****     ##### Callback registration #####
 115:Drivers/STM32L4xx_HAL_Driver/Src/stm32l4xx_hal_smartcard.c ****     ==================================
 116:Drivers/STM32L4xx_HAL_Driver/Src/stm32l4xx_hal_smartcard.c **** 
 117:Drivers/STM32L4xx_HAL_Driver/Src/stm32l4xx_hal_smartcard.c ****     [..]
 118:Drivers/STM32L4xx_HAL_Driver/Src/stm32l4xx_hal_smartcard.c ****     The compilation define USE_HAL_SMARTCARD_REGISTER_CALLBACKS when set to 1
 119:Drivers/STM32L4xx_HAL_Driver/Src/stm32l4xx_hal_smartcard.c ****     allows the user to configure dynamically the driver callbacks.
 120:Drivers/STM32L4xx_HAL_Driver/Src/stm32l4xx_hal_smartcard.c **** 
 121:Drivers/STM32L4xx_HAL_Driver/Src/stm32l4xx_hal_smartcard.c ****     [..]
 122:Drivers/STM32L4xx_HAL_Driver/Src/stm32l4xx_hal_smartcard.c ****     Use Function HAL_SMARTCARD_RegisterCallback() to register a user callback.
 123:Drivers/STM32L4xx_HAL_Driver/Src/stm32l4xx_hal_smartcard.c ****     Function HAL_SMARTCARD_RegisterCallback() allows to register following callbacks:
 124:Drivers/STM32L4xx_HAL_Driver/Src/stm32l4xx_hal_smartcard.c ****     (+) TxCpltCallback            : Tx Complete Callback.
 125:Drivers/STM32L4xx_HAL_Driver/Src/stm32l4xx_hal_smartcard.c ****     (+) RxCpltCallback            : Rx Complete Callback.
 126:Drivers/STM32L4xx_HAL_Driver/Src/stm32l4xx_hal_smartcard.c ****     (+) ErrorCallback             : Error Callback.
 127:Drivers/STM32L4xx_HAL_Driver/Src/stm32l4xx_hal_smartcard.c ****     (+) AbortCpltCallback         : Abort Complete Callback.
 128:Drivers/STM32L4xx_HAL_Driver/Src/stm32l4xx_hal_smartcard.c ****     (+) AbortTransmitCpltCallback : Abort Transmit Complete Callback.
 129:Drivers/STM32L4xx_HAL_Driver/Src/stm32l4xx_hal_smartcard.c ****     (+) AbortReceiveCpltCallback  : Abort Receive Complete Callback.
 130:Drivers/STM32L4xx_HAL_Driver/Src/stm32l4xx_hal_smartcard.c ****     (+) RxFifoFullCallback        : Rx Fifo Full Callback.
 131:Drivers/STM32L4xx_HAL_Driver/Src/stm32l4xx_hal_smartcard.c ****     (+) TxFifoEmptyCallback       : Tx Fifo Empty Callback.
 132:Drivers/STM32L4xx_HAL_Driver/Src/stm32l4xx_hal_smartcard.c ****     (+) MspInitCallback           : SMARTCARD MspInit.
 133:Drivers/STM32L4xx_HAL_Driver/Src/stm32l4xx_hal_smartcard.c ****     (+) MspDeInitCallback         : SMARTCARD MspDeInit.
 134:Drivers/STM32L4xx_HAL_Driver/Src/stm32l4xx_hal_smartcard.c ****     This function takes as parameters the HAL peripheral handle, the Callback ID
 135:Drivers/STM32L4xx_HAL_Driver/Src/stm32l4xx_hal_smartcard.c ****     and a pointer to the user callback function.
 136:Drivers/STM32L4xx_HAL_Driver/Src/stm32l4xx_hal_smartcard.c **** 
 137:Drivers/STM32L4xx_HAL_Driver/Src/stm32l4xx_hal_smartcard.c ****     [..]
 138:Drivers/STM32L4xx_HAL_Driver/Src/stm32l4xx_hal_smartcard.c ****     Use function HAL_SMARTCARD_UnRegisterCallback() to reset a callback to the default
 139:Drivers/STM32L4xx_HAL_Driver/Src/stm32l4xx_hal_smartcard.c ****     weak function.
ARM GAS  /tmp/ccDAjxq4.s 			page 4


 140:Drivers/STM32L4xx_HAL_Driver/Src/stm32l4xx_hal_smartcard.c ****     HAL_SMARTCARD_UnRegisterCallback() takes as parameters the HAL peripheral handle,
 141:Drivers/STM32L4xx_HAL_Driver/Src/stm32l4xx_hal_smartcard.c ****     and the Callback ID.
 142:Drivers/STM32L4xx_HAL_Driver/Src/stm32l4xx_hal_smartcard.c ****     This function allows to reset following callbacks:
 143:Drivers/STM32L4xx_HAL_Driver/Src/stm32l4xx_hal_smartcard.c ****     (+) TxCpltCallback            : Tx Complete Callback.
 144:Drivers/STM32L4xx_HAL_Driver/Src/stm32l4xx_hal_smartcard.c ****     (+) RxCpltCallback            : Rx Complete Callback.
 145:Drivers/STM32L4xx_HAL_Driver/Src/stm32l4xx_hal_smartcard.c ****     (+) ErrorCallback             : Error Callback.
 146:Drivers/STM32L4xx_HAL_Driver/Src/stm32l4xx_hal_smartcard.c ****     (+) AbortCpltCallback         : Abort Complete Callback.
 147:Drivers/STM32L4xx_HAL_Driver/Src/stm32l4xx_hal_smartcard.c ****     (+) AbortTransmitCpltCallback : Abort Transmit Complete Callback.
 148:Drivers/STM32L4xx_HAL_Driver/Src/stm32l4xx_hal_smartcard.c ****     (+) AbortReceiveCpltCallback  : Abort Receive Complete Callback.
 149:Drivers/STM32L4xx_HAL_Driver/Src/stm32l4xx_hal_smartcard.c ****     (+) RxFifoFullCallback        : Rx Fifo Full Callback.
 150:Drivers/STM32L4xx_HAL_Driver/Src/stm32l4xx_hal_smartcard.c ****     (+) TxFifoEmptyCallback       : Tx Fifo Empty Callback.
 151:Drivers/STM32L4xx_HAL_Driver/Src/stm32l4xx_hal_smartcard.c ****     (+) MspInitCallback           : SMARTCARD MspInit.
 152:Drivers/STM32L4xx_HAL_Driver/Src/stm32l4xx_hal_smartcard.c ****     (+) MspDeInitCallback         : SMARTCARD MspDeInit.
 153:Drivers/STM32L4xx_HAL_Driver/Src/stm32l4xx_hal_smartcard.c **** 
 154:Drivers/STM32L4xx_HAL_Driver/Src/stm32l4xx_hal_smartcard.c ****     [..]
 155:Drivers/STM32L4xx_HAL_Driver/Src/stm32l4xx_hal_smartcard.c ****     By default, after the HAL_SMARTCARD_Init() and when the state is HAL_SMARTCARD_STATE_RESET
 156:Drivers/STM32L4xx_HAL_Driver/Src/stm32l4xx_hal_smartcard.c ****     all callbacks are set to the corresponding weak functions:
 157:Drivers/STM32L4xx_HAL_Driver/Src/stm32l4xx_hal_smartcard.c ****     examples HAL_SMARTCARD_TxCpltCallback(), HAL_SMARTCARD_RxCpltCallback().
 158:Drivers/STM32L4xx_HAL_Driver/Src/stm32l4xx_hal_smartcard.c ****     Exception done for MspInit and MspDeInit functions that are respectively
 159:Drivers/STM32L4xx_HAL_Driver/Src/stm32l4xx_hal_smartcard.c ****     reset to the legacy weak functions in the HAL_SMARTCARD_Init()
 160:Drivers/STM32L4xx_HAL_Driver/Src/stm32l4xx_hal_smartcard.c ****     and HAL_SMARTCARD_DeInit() only when these callbacks are null (not registered beforehand).
 161:Drivers/STM32L4xx_HAL_Driver/Src/stm32l4xx_hal_smartcard.c ****     If not, MspInit or MspDeInit are not null, the HAL_SMARTCARD_Init() and HAL_SMARTCARD_DeInit()
 162:Drivers/STM32L4xx_HAL_Driver/Src/stm32l4xx_hal_smartcard.c ****     keep and use the user MspInit/MspDeInit callbacks (registered beforehand).
 163:Drivers/STM32L4xx_HAL_Driver/Src/stm32l4xx_hal_smartcard.c **** 
 164:Drivers/STM32L4xx_HAL_Driver/Src/stm32l4xx_hal_smartcard.c ****     [..]
 165:Drivers/STM32L4xx_HAL_Driver/Src/stm32l4xx_hal_smartcard.c ****     Callbacks can be registered/unregistered in HAL_SMARTCARD_STATE_READY state only.
 166:Drivers/STM32L4xx_HAL_Driver/Src/stm32l4xx_hal_smartcard.c ****     Exception done MspInit/MspDeInit that can be registered/unregistered
 167:Drivers/STM32L4xx_HAL_Driver/Src/stm32l4xx_hal_smartcard.c ****     in HAL_SMARTCARD_STATE_READY or HAL_SMARTCARD_STATE_RESET state, thus registered (user)
 168:Drivers/STM32L4xx_HAL_Driver/Src/stm32l4xx_hal_smartcard.c ****     MspInit/DeInit callbacks can be used during the Init/DeInit.
 169:Drivers/STM32L4xx_HAL_Driver/Src/stm32l4xx_hal_smartcard.c ****     In that case first register the MspInit/MspDeInit user callbacks
 170:Drivers/STM32L4xx_HAL_Driver/Src/stm32l4xx_hal_smartcard.c ****     using HAL_SMARTCARD_RegisterCallback() before calling HAL_SMARTCARD_DeInit()
 171:Drivers/STM32L4xx_HAL_Driver/Src/stm32l4xx_hal_smartcard.c ****     or HAL_SMARTCARD_Init() function.
 172:Drivers/STM32L4xx_HAL_Driver/Src/stm32l4xx_hal_smartcard.c **** 
 173:Drivers/STM32L4xx_HAL_Driver/Src/stm32l4xx_hal_smartcard.c ****     [..]
 174:Drivers/STM32L4xx_HAL_Driver/Src/stm32l4xx_hal_smartcard.c ****     When The compilation define USE_HAL_SMARTCARD_REGISTER_CALLBACKS is set to 0 or
 175:Drivers/STM32L4xx_HAL_Driver/Src/stm32l4xx_hal_smartcard.c ****     not defined, the callback registration feature is not available
 176:Drivers/STM32L4xx_HAL_Driver/Src/stm32l4xx_hal_smartcard.c ****     and weak callbacks are used.
 177:Drivers/STM32L4xx_HAL_Driver/Src/stm32l4xx_hal_smartcard.c **** 
 178:Drivers/STM32L4xx_HAL_Driver/Src/stm32l4xx_hal_smartcard.c **** 
 179:Drivers/STM32L4xx_HAL_Driver/Src/stm32l4xx_hal_smartcard.c ****   @endverbatim
 180:Drivers/STM32L4xx_HAL_Driver/Src/stm32l4xx_hal_smartcard.c ****   ******************************************************************************
 181:Drivers/STM32L4xx_HAL_Driver/Src/stm32l4xx_hal_smartcard.c ****   */
 182:Drivers/STM32L4xx_HAL_Driver/Src/stm32l4xx_hal_smartcard.c **** 
 183:Drivers/STM32L4xx_HAL_Driver/Src/stm32l4xx_hal_smartcard.c **** /* Includes ------------------------------------------------------------------*/
 184:Drivers/STM32L4xx_HAL_Driver/Src/stm32l4xx_hal_smartcard.c **** #include "stm32l4xx_hal.h"
 185:Drivers/STM32L4xx_HAL_Driver/Src/stm32l4xx_hal_smartcard.c **** 
 186:Drivers/STM32L4xx_HAL_Driver/Src/stm32l4xx_hal_smartcard.c **** /** @addtogroup STM32L4xx_HAL_Driver
 187:Drivers/STM32L4xx_HAL_Driver/Src/stm32l4xx_hal_smartcard.c ****   * @{
 188:Drivers/STM32L4xx_HAL_Driver/Src/stm32l4xx_hal_smartcard.c ****   */
 189:Drivers/STM32L4xx_HAL_Driver/Src/stm32l4xx_hal_smartcard.c **** 
 190:Drivers/STM32L4xx_HAL_Driver/Src/stm32l4xx_hal_smartcard.c **** /** @defgroup SMARTCARD SMARTCARD
 191:Drivers/STM32L4xx_HAL_Driver/Src/stm32l4xx_hal_smartcard.c ****   * @brief HAL SMARTCARD module driver
 192:Drivers/STM32L4xx_HAL_Driver/Src/stm32l4xx_hal_smartcard.c ****   * @{
 193:Drivers/STM32L4xx_HAL_Driver/Src/stm32l4xx_hal_smartcard.c ****   */
 194:Drivers/STM32L4xx_HAL_Driver/Src/stm32l4xx_hal_smartcard.c **** 
 195:Drivers/STM32L4xx_HAL_Driver/Src/stm32l4xx_hal_smartcard.c **** #ifdef HAL_SMARTCARD_MODULE_ENABLED
 196:Drivers/STM32L4xx_HAL_Driver/Src/stm32l4xx_hal_smartcard.c **** 
ARM GAS  /tmp/ccDAjxq4.s 			page 5


 197:Drivers/STM32L4xx_HAL_Driver/Src/stm32l4xx_hal_smartcard.c **** /* Private typedef -----------------------------------------------------------*/
 198:Drivers/STM32L4xx_HAL_Driver/Src/stm32l4xx_hal_smartcard.c **** /* Private define ------------------------------------------------------------*/
 199:Drivers/STM32L4xx_HAL_Driver/Src/stm32l4xx_hal_smartcard.c **** /** @defgroup SMARTCARD_Private_Constants SMARTCARD Private Constants
 200:Drivers/STM32L4xx_HAL_Driver/Src/stm32l4xx_hal_smartcard.c ****   * @{
 201:Drivers/STM32L4xx_HAL_Driver/Src/stm32l4xx_hal_smartcard.c ****   */
 202:Drivers/STM32L4xx_HAL_Driver/Src/stm32l4xx_hal_smartcard.c **** #define SMARTCARD_TEACK_REACK_TIMEOUT  1000U       /*!< SMARTCARD TX or RX enable acknowledge time-
 203:Drivers/STM32L4xx_HAL_Driver/Src/stm32l4xx_hal_smartcard.c **** 
 204:Drivers/STM32L4xx_HAL_Driver/Src/stm32l4xx_hal_smartcard.c **** #if defined(USART_CR1_FIFOEN)
 205:Drivers/STM32L4xx_HAL_Driver/Src/stm32l4xx_hal_smartcard.c **** #define USART_CR1_FIELDS  ((uint32_t)(USART_CR1_M | USART_CR1_PCE | USART_CR1_PS | USART_CR1_TE | \
 206:Drivers/STM32L4xx_HAL_Driver/Src/stm32l4xx_hal_smartcard.c ****                                       USART_CR1_RE | USART_CR1_OVER8| \
 207:Drivers/STM32L4xx_HAL_Driver/Src/stm32l4xx_hal_smartcard.c ****                                       USART_CR1_FIFOEN))  /*!< USART CR1 fields of parameters set b
 208:Drivers/STM32L4xx_HAL_Driver/Src/stm32l4xx_hal_smartcard.c **** #else
 209:Drivers/STM32L4xx_HAL_Driver/Src/stm32l4xx_hal_smartcard.c **** #define USART_CR1_FIELDS  ((uint32_t)(USART_CR1_M | USART_CR1_PCE | USART_CR1_PS | USART_CR1_TE | \
 210:Drivers/STM32L4xx_HAL_Driver/Src/stm32l4xx_hal_smartcard.c ****                                       USART_CR1_RE | USART_CR1_OVER8)) /*!< USART CR1 fields of par
 211:Drivers/STM32L4xx_HAL_Driver/Src/stm32l4xx_hal_smartcard.c **** #endif /* USART_CR1_FIFOEN */
 212:Drivers/STM32L4xx_HAL_Driver/Src/stm32l4xx_hal_smartcard.c **** 
 213:Drivers/STM32L4xx_HAL_Driver/Src/stm32l4xx_hal_smartcard.c **** #define USART_CR2_CLK_FIELDS  ((uint32_t)(USART_CR2_CLKEN | USART_CR2_CPOL | \
 214:Drivers/STM32L4xx_HAL_Driver/Src/stm32l4xx_hal_smartcard.c ****                                           USART_CR2_CPHA | USART_CR2_LBCL)) /*!< SMARTCARD clock-re
 215:Drivers/STM32L4xx_HAL_Driver/Src/stm32l4xx_hal_smartcard.c **** 
 216:Drivers/STM32L4xx_HAL_Driver/Src/stm32l4xx_hal_smartcard.c **** #define USART_CR2_FIELDS  ((uint32_t)(USART_CR2_RTOEN | USART_CR2_CLK_FIELDS | \
 217:Drivers/STM32L4xx_HAL_Driver/Src/stm32l4xx_hal_smartcard.c ****                                       USART_CR2_STOP)) /*!< USART CR2 fields of parameters set by S
 218:Drivers/STM32L4xx_HAL_Driver/Src/stm32l4xx_hal_smartcard.c **** 
 219:Drivers/STM32L4xx_HAL_Driver/Src/stm32l4xx_hal_smartcard.c **** #if defined(USART_CR1_FIFOEN)
 220:Drivers/STM32L4xx_HAL_Driver/Src/stm32l4xx_hal_smartcard.c **** #define USART_CR3_FIELDS  ((uint32_t)(USART_CR3_ONEBIT | USART_CR3_NACK | USART_CR3_SCARCNT | \
 221:Drivers/STM32L4xx_HAL_Driver/Src/stm32l4xx_hal_smartcard.c ****                                       USART_CR3_TXFTCFG | USART_CR3_RXFTCFG )) /*!< USART CR3 field
 222:Drivers/STM32L4xx_HAL_Driver/Src/stm32l4xx_hal_smartcard.c **** #else
 223:Drivers/STM32L4xx_HAL_Driver/Src/stm32l4xx_hal_smartcard.c **** #define USART_CR3_FIELDS  ((uint32_t)(USART_CR3_ONEBIT | USART_CR3_NACK | \
 224:Drivers/STM32L4xx_HAL_Driver/Src/stm32l4xx_hal_smartcard.c ****                                       USART_CR3_SCARCNT)) /*!< USART CR3 fields of parameters set b
 225:Drivers/STM32L4xx_HAL_Driver/Src/stm32l4xx_hal_smartcard.c **** #endif /* USART_CR1_FIFOEN */
 226:Drivers/STM32L4xx_HAL_Driver/Src/stm32l4xx_hal_smartcard.c **** 
 227:Drivers/STM32L4xx_HAL_Driver/Src/stm32l4xx_hal_smartcard.c **** #define USART_BRR_MIN  0x10U        /*!< USART BRR minimum authorized value */
 228:Drivers/STM32L4xx_HAL_Driver/Src/stm32l4xx_hal_smartcard.c **** 
 229:Drivers/STM32L4xx_HAL_Driver/Src/stm32l4xx_hal_smartcard.c **** #define USART_BRR_MAX  0x0000FFFFU  /*!< USART BRR maximum authorized value */
 230:Drivers/STM32L4xx_HAL_Driver/Src/stm32l4xx_hal_smartcard.c **** /**
 231:Drivers/STM32L4xx_HAL_Driver/Src/stm32l4xx_hal_smartcard.c ****   * @}
 232:Drivers/STM32L4xx_HAL_Driver/Src/stm32l4xx_hal_smartcard.c ****   */
 233:Drivers/STM32L4xx_HAL_Driver/Src/stm32l4xx_hal_smartcard.c **** 
 234:Drivers/STM32L4xx_HAL_Driver/Src/stm32l4xx_hal_smartcard.c **** /* Private macros ------------------------------------------------------------*/
 235:Drivers/STM32L4xx_HAL_Driver/Src/stm32l4xx_hal_smartcard.c **** /* Private variables ---------------------------------------------------------*/
 236:Drivers/STM32L4xx_HAL_Driver/Src/stm32l4xx_hal_smartcard.c **** /* Private function prototypes -----------------------------------------------*/
 237:Drivers/STM32L4xx_HAL_Driver/Src/stm32l4xx_hal_smartcard.c **** /** @addtogroup SMARTCARD_Private_Functions
 238:Drivers/STM32L4xx_HAL_Driver/Src/stm32l4xx_hal_smartcard.c ****   * @{
 239:Drivers/STM32L4xx_HAL_Driver/Src/stm32l4xx_hal_smartcard.c ****   */
 240:Drivers/STM32L4xx_HAL_Driver/Src/stm32l4xx_hal_smartcard.c **** #if (USE_HAL_SMARTCARD_REGISTER_CALLBACKS == 1)
 241:Drivers/STM32L4xx_HAL_Driver/Src/stm32l4xx_hal_smartcard.c **** void SMARTCARD_InitCallbacksToDefault(SMARTCARD_HandleTypeDef *hsmartcard);
 242:Drivers/STM32L4xx_HAL_Driver/Src/stm32l4xx_hal_smartcard.c **** #endif /* USE_HAL_SMARTCARD_REGISTER_CALLBACKS */
 243:Drivers/STM32L4xx_HAL_Driver/Src/stm32l4xx_hal_smartcard.c **** static HAL_StatusTypeDef SMARTCARD_SetConfig(SMARTCARD_HandleTypeDef *hsmartcard);
 244:Drivers/STM32L4xx_HAL_Driver/Src/stm32l4xx_hal_smartcard.c **** static void SMARTCARD_AdvFeatureConfig(SMARTCARD_HandleTypeDef *hsmartcard);
 245:Drivers/STM32L4xx_HAL_Driver/Src/stm32l4xx_hal_smartcard.c **** static HAL_StatusTypeDef SMARTCARD_CheckIdleState(SMARTCARD_HandleTypeDef *hsmartcard);
 246:Drivers/STM32L4xx_HAL_Driver/Src/stm32l4xx_hal_smartcard.c **** static HAL_StatusTypeDef SMARTCARD_WaitOnFlagUntilTimeout(SMARTCARD_HandleTypeDef *hsmartcard, uint
 247:Drivers/STM32L4xx_HAL_Driver/Src/stm32l4xx_hal_smartcard.c ****                                                           FlagStatus Status, uint32_t Tickstart, ui
 248:Drivers/STM32L4xx_HAL_Driver/Src/stm32l4xx_hal_smartcard.c **** static void SMARTCARD_EndTxTransfer(SMARTCARD_HandleTypeDef *hsmartcard);
 249:Drivers/STM32L4xx_HAL_Driver/Src/stm32l4xx_hal_smartcard.c **** static void SMARTCARD_EndRxTransfer(SMARTCARD_HandleTypeDef *hsmartcard);
 250:Drivers/STM32L4xx_HAL_Driver/Src/stm32l4xx_hal_smartcard.c **** static void SMARTCARD_DMATransmitCplt(DMA_HandleTypeDef *hdma);
 251:Drivers/STM32L4xx_HAL_Driver/Src/stm32l4xx_hal_smartcard.c **** static void SMARTCARD_DMAReceiveCplt(DMA_HandleTypeDef *hdma);
 252:Drivers/STM32L4xx_HAL_Driver/Src/stm32l4xx_hal_smartcard.c **** static void SMARTCARD_DMAError(DMA_HandleTypeDef *hdma);
 253:Drivers/STM32L4xx_HAL_Driver/Src/stm32l4xx_hal_smartcard.c **** static void SMARTCARD_DMAAbortOnError(DMA_HandleTypeDef *hdma);
ARM GAS  /tmp/ccDAjxq4.s 			page 6


 254:Drivers/STM32L4xx_HAL_Driver/Src/stm32l4xx_hal_smartcard.c **** static void SMARTCARD_DMATxAbortCallback(DMA_HandleTypeDef *hdma);
 255:Drivers/STM32L4xx_HAL_Driver/Src/stm32l4xx_hal_smartcard.c **** static void SMARTCARD_DMARxAbortCallback(DMA_HandleTypeDef *hdma);
 256:Drivers/STM32L4xx_HAL_Driver/Src/stm32l4xx_hal_smartcard.c **** static void SMARTCARD_DMATxOnlyAbortCallback(DMA_HandleTypeDef *hdma);
 257:Drivers/STM32L4xx_HAL_Driver/Src/stm32l4xx_hal_smartcard.c **** static void SMARTCARD_DMARxOnlyAbortCallback(DMA_HandleTypeDef *hdma);
 258:Drivers/STM32L4xx_HAL_Driver/Src/stm32l4xx_hal_smartcard.c **** static void SMARTCARD_TxISR(SMARTCARD_HandleTypeDef *hsmartcard);
 259:Drivers/STM32L4xx_HAL_Driver/Src/stm32l4xx_hal_smartcard.c **** #if defined(USART_CR1_FIFOEN)
 260:Drivers/STM32L4xx_HAL_Driver/Src/stm32l4xx_hal_smartcard.c **** static void SMARTCARD_TxISR_FIFOEN(SMARTCARD_HandleTypeDef *hsmartcard);
 261:Drivers/STM32L4xx_HAL_Driver/Src/stm32l4xx_hal_smartcard.c **** #endif /* USART_CR1_FIFOEN */
 262:Drivers/STM32L4xx_HAL_Driver/Src/stm32l4xx_hal_smartcard.c **** static void SMARTCARD_EndTransmit_IT(SMARTCARD_HandleTypeDef *hsmartcard);
 263:Drivers/STM32L4xx_HAL_Driver/Src/stm32l4xx_hal_smartcard.c **** static void SMARTCARD_RxISR(SMARTCARD_HandleTypeDef *hsmartcard);
 264:Drivers/STM32L4xx_HAL_Driver/Src/stm32l4xx_hal_smartcard.c **** #if defined(USART_CR1_FIFOEN)
 265:Drivers/STM32L4xx_HAL_Driver/Src/stm32l4xx_hal_smartcard.c **** static void SMARTCARD_RxISR_FIFOEN(SMARTCARD_HandleTypeDef *hsmartcard);
 266:Drivers/STM32L4xx_HAL_Driver/Src/stm32l4xx_hal_smartcard.c **** #endif /* USART_CR1_FIFOEN */
 267:Drivers/STM32L4xx_HAL_Driver/Src/stm32l4xx_hal_smartcard.c **** /**
 268:Drivers/STM32L4xx_HAL_Driver/Src/stm32l4xx_hal_smartcard.c ****   * @}
 269:Drivers/STM32L4xx_HAL_Driver/Src/stm32l4xx_hal_smartcard.c ****   */
 270:Drivers/STM32L4xx_HAL_Driver/Src/stm32l4xx_hal_smartcard.c **** 
 271:Drivers/STM32L4xx_HAL_Driver/Src/stm32l4xx_hal_smartcard.c **** /* Exported functions --------------------------------------------------------*/
 272:Drivers/STM32L4xx_HAL_Driver/Src/stm32l4xx_hal_smartcard.c **** 
 273:Drivers/STM32L4xx_HAL_Driver/Src/stm32l4xx_hal_smartcard.c **** /** @defgroup SMARTCARD_Exported_Functions SMARTCARD Exported Functions
 274:Drivers/STM32L4xx_HAL_Driver/Src/stm32l4xx_hal_smartcard.c ****   * @{
 275:Drivers/STM32L4xx_HAL_Driver/Src/stm32l4xx_hal_smartcard.c ****   */
 276:Drivers/STM32L4xx_HAL_Driver/Src/stm32l4xx_hal_smartcard.c **** 
 277:Drivers/STM32L4xx_HAL_Driver/Src/stm32l4xx_hal_smartcard.c **** /** @defgroup SMARTCARD_Exported_Functions_Group1 Initialization and de-initialization functions
 278:Drivers/STM32L4xx_HAL_Driver/Src/stm32l4xx_hal_smartcard.c ****   * @brief    Initialization and Configuration functions
 279:Drivers/STM32L4xx_HAL_Driver/Src/stm32l4xx_hal_smartcard.c ****   *
 280:Drivers/STM32L4xx_HAL_Driver/Src/stm32l4xx_hal_smartcard.c **** @verbatim
 281:Drivers/STM32L4xx_HAL_Driver/Src/stm32l4xx_hal_smartcard.c ****   ==============================================================================
 282:Drivers/STM32L4xx_HAL_Driver/Src/stm32l4xx_hal_smartcard.c ****               ##### Initialization and Configuration functions #####
 283:Drivers/STM32L4xx_HAL_Driver/Src/stm32l4xx_hal_smartcard.c ****   ==============================================================================
 284:Drivers/STM32L4xx_HAL_Driver/Src/stm32l4xx_hal_smartcard.c ****   [..]
 285:Drivers/STM32L4xx_HAL_Driver/Src/stm32l4xx_hal_smartcard.c ****   This subsection provides a set of functions allowing to initialize the USARTx
 286:Drivers/STM32L4xx_HAL_Driver/Src/stm32l4xx_hal_smartcard.c ****   associated to the SmartCard.
 287:Drivers/STM32L4xx_HAL_Driver/Src/stm32l4xx_hal_smartcard.c ****   (+) These parameters can be configured:
 288:Drivers/STM32L4xx_HAL_Driver/Src/stm32l4xx_hal_smartcard.c ****       (++) Baud Rate
 289:Drivers/STM32L4xx_HAL_Driver/Src/stm32l4xx_hal_smartcard.c ****       (++) Parity: parity should be enabled, frame Length is fixed to 8 bits plus parity
 290:Drivers/STM32L4xx_HAL_Driver/Src/stm32l4xx_hal_smartcard.c ****       (++) Receiver/transmitter modes
 291:Drivers/STM32L4xx_HAL_Driver/Src/stm32l4xx_hal_smartcard.c ****       (++) Synchronous mode (and if enabled, phase, polarity and last bit parameters)
 292:Drivers/STM32L4xx_HAL_Driver/Src/stm32l4xx_hal_smartcard.c ****       (++) Prescaler value
 293:Drivers/STM32L4xx_HAL_Driver/Src/stm32l4xx_hal_smartcard.c ****       (++) Guard bit time
 294:Drivers/STM32L4xx_HAL_Driver/Src/stm32l4xx_hal_smartcard.c ****       (++) NACK enabling or disabling on transmission error
 295:Drivers/STM32L4xx_HAL_Driver/Src/stm32l4xx_hal_smartcard.c **** 
 296:Drivers/STM32L4xx_HAL_Driver/Src/stm32l4xx_hal_smartcard.c ****   (+) The following advanced features can be configured as well:
 297:Drivers/STM32L4xx_HAL_Driver/Src/stm32l4xx_hal_smartcard.c ****       (++) TX and/or RX pin level inversion
 298:Drivers/STM32L4xx_HAL_Driver/Src/stm32l4xx_hal_smartcard.c ****       (++) data logical level inversion
 299:Drivers/STM32L4xx_HAL_Driver/Src/stm32l4xx_hal_smartcard.c ****       (++) RX and TX pins swap
 300:Drivers/STM32L4xx_HAL_Driver/Src/stm32l4xx_hal_smartcard.c ****       (++) RX overrun detection disabling
 301:Drivers/STM32L4xx_HAL_Driver/Src/stm32l4xx_hal_smartcard.c ****       (++) DMA disabling on RX error
 302:Drivers/STM32L4xx_HAL_Driver/Src/stm32l4xx_hal_smartcard.c ****       (++) MSB first on communication line
 303:Drivers/STM32L4xx_HAL_Driver/Src/stm32l4xx_hal_smartcard.c ****       (++) Time out enabling (and if activated, timeout value)
 304:Drivers/STM32L4xx_HAL_Driver/Src/stm32l4xx_hal_smartcard.c ****       (++) Block length
 305:Drivers/STM32L4xx_HAL_Driver/Src/stm32l4xx_hal_smartcard.c ****       (++) Auto-retry counter
 306:Drivers/STM32L4xx_HAL_Driver/Src/stm32l4xx_hal_smartcard.c ****   [..]
 307:Drivers/STM32L4xx_HAL_Driver/Src/stm32l4xx_hal_smartcard.c ****   The HAL_SMARTCARD_Init() API follows the USART synchronous configuration procedures
 308:Drivers/STM32L4xx_HAL_Driver/Src/stm32l4xx_hal_smartcard.c ****   (details for the procedures are available in reference manual).
 309:Drivers/STM32L4xx_HAL_Driver/Src/stm32l4xx_hal_smartcard.c **** 
 310:Drivers/STM32L4xx_HAL_Driver/Src/stm32l4xx_hal_smartcard.c **** @endverbatim
ARM GAS  /tmp/ccDAjxq4.s 			page 7


 311:Drivers/STM32L4xx_HAL_Driver/Src/stm32l4xx_hal_smartcard.c **** 
 312:Drivers/STM32L4xx_HAL_Driver/Src/stm32l4xx_hal_smartcard.c ****   The USART frame format is given in the following table:
 313:Drivers/STM32L4xx_HAL_Driver/Src/stm32l4xx_hal_smartcard.c **** 
 314:Drivers/STM32L4xx_HAL_Driver/Src/stm32l4xx_hal_smartcard.c ****     Table 1. USART frame format.
 315:Drivers/STM32L4xx_HAL_Driver/Src/stm32l4xx_hal_smartcard.c ****     +---------------------------------------------------------------+
 316:Drivers/STM32L4xx_HAL_Driver/Src/stm32l4xx_hal_smartcard.c ****     | M1M0 bits |  PCE bit  |            USART frame                |
 317:Drivers/STM32L4xx_HAL_Driver/Src/stm32l4xx_hal_smartcard.c ****     |-----------------------|---------------------------------------|
 318:Drivers/STM32L4xx_HAL_Driver/Src/stm32l4xx_hal_smartcard.c ****     |     01    |    1      |    | SB | 8 bit data | PB | STB |     |
 319:Drivers/STM32L4xx_HAL_Driver/Src/stm32l4xx_hal_smartcard.c ****     +---------------------------------------------------------------+
 320:Drivers/STM32L4xx_HAL_Driver/Src/stm32l4xx_hal_smartcard.c **** 
 321:Drivers/STM32L4xx_HAL_Driver/Src/stm32l4xx_hal_smartcard.c **** 
 322:Drivers/STM32L4xx_HAL_Driver/Src/stm32l4xx_hal_smartcard.c ****   * @{
 323:Drivers/STM32L4xx_HAL_Driver/Src/stm32l4xx_hal_smartcard.c ****   */
 324:Drivers/STM32L4xx_HAL_Driver/Src/stm32l4xx_hal_smartcard.c **** 
 325:Drivers/STM32L4xx_HAL_Driver/Src/stm32l4xx_hal_smartcard.c **** /**
 326:Drivers/STM32L4xx_HAL_Driver/Src/stm32l4xx_hal_smartcard.c ****   * @brief  Initialize the SMARTCARD mode according to the specified
 327:Drivers/STM32L4xx_HAL_Driver/Src/stm32l4xx_hal_smartcard.c ****   *         parameters in the SMARTCARD_HandleTypeDef and initialize the associated handle.
 328:Drivers/STM32L4xx_HAL_Driver/Src/stm32l4xx_hal_smartcard.c ****   * @param  hsmartcard Pointer to a SMARTCARD_HandleTypeDef structure that contains
 329:Drivers/STM32L4xx_HAL_Driver/Src/stm32l4xx_hal_smartcard.c ****   *                    the configuration information for the specified SMARTCARD module.
 330:Drivers/STM32L4xx_HAL_Driver/Src/stm32l4xx_hal_smartcard.c ****   * @retval HAL status
 331:Drivers/STM32L4xx_HAL_Driver/Src/stm32l4xx_hal_smartcard.c ****   */
 332:Drivers/STM32L4xx_HAL_Driver/Src/stm32l4xx_hal_smartcard.c **** HAL_StatusTypeDef HAL_SMARTCARD_Init(SMARTCARD_HandleTypeDef *hsmartcard)
 333:Drivers/STM32L4xx_HAL_Driver/Src/stm32l4xx_hal_smartcard.c **** {
  35              		.loc 1 333 1
  36              		.cfi_startproc
  37              		@ args = 0, pretend = 0, frame = 8
  38              		@ frame_needed = 1, uses_anonymous_args = 0
  39 0000 80B5     		push	{r7, lr}
  40              		.cfi_def_cfa_offset 8
  41              		.cfi_offset 7, -8
  42              		.cfi_offset 14, -4
  43 0002 82B0     		sub	sp, sp, #8
  44              		.cfi_def_cfa_offset 16
  45 0004 00AF     		add	r7, sp, #0
  46              		.cfi_def_cfa_register 7
  47 0006 7860     		str	r0, [r7, #4]
 334:Drivers/STM32L4xx_HAL_Driver/Src/stm32l4xx_hal_smartcard.c ****   /* Check the SMARTCARD handle allocation */
 335:Drivers/STM32L4xx_HAL_Driver/Src/stm32l4xx_hal_smartcard.c ****   if (hsmartcard == NULL)
  48              		.loc 1 335 6
  49 0008 7B68     		ldr	r3, [r7, #4]
  50 000a 002B     		cmp	r3, #0
  51 000c 01D1     		bne	.L2
 336:Drivers/STM32L4xx_HAL_Driver/Src/stm32l4xx_hal_smartcard.c ****   {
 337:Drivers/STM32L4xx_HAL_Driver/Src/stm32l4xx_hal_smartcard.c ****     return HAL_ERROR;
  52              		.loc 1 337 12
  53 000e 0123     		movs	r3, #1
  54 0010 4DE0     		b	.L3
  55              	.L2:
 338:Drivers/STM32L4xx_HAL_Driver/Src/stm32l4xx_hal_smartcard.c ****   }
 339:Drivers/STM32L4xx_HAL_Driver/Src/stm32l4xx_hal_smartcard.c **** 
 340:Drivers/STM32L4xx_HAL_Driver/Src/stm32l4xx_hal_smartcard.c ****   /* Check the USART associated to the SMARTCARD handle */
 341:Drivers/STM32L4xx_HAL_Driver/Src/stm32l4xx_hal_smartcard.c ****   assert_param(IS_SMARTCARD_INSTANCE(hsmartcard->Instance));
 342:Drivers/STM32L4xx_HAL_Driver/Src/stm32l4xx_hal_smartcard.c **** 
 343:Drivers/STM32L4xx_HAL_Driver/Src/stm32l4xx_hal_smartcard.c ****   if (hsmartcard->gState == HAL_SMARTCARD_STATE_RESET)
  56              		.loc 1 343 17
  57 0012 7B68     		ldr	r3, [r7, #4]
  58 0014 5B6F     		ldr	r3, [r3, #116]
ARM GAS  /tmp/ccDAjxq4.s 			page 8


  59              		.loc 1 343 6
  60 0016 002B     		cmp	r3, #0
  61 0018 06D1     		bne	.L4
 344:Drivers/STM32L4xx_HAL_Driver/Src/stm32l4xx_hal_smartcard.c ****   {
 345:Drivers/STM32L4xx_HAL_Driver/Src/stm32l4xx_hal_smartcard.c ****     /* Allocate lock resource and initialize it */
 346:Drivers/STM32L4xx_HAL_Driver/Src/stm32l4xx_hal_smartcard.c ****     hsmartcard->Lock = HAL_UNLOCKED;
  62              		.loc 1 346 22
  63 001a 7B68     		ldr	r3, [r7, #4]
  64 001c 0022     		movs	r2, #0
  65 001e 83F87020 		strb	r2, [r3, #112]
 347:Drivers/STM32L4xx_HAL_Driver/Src/stm32l4xx_hal_smartcard.c **** 
 348:Drivers/STM32L4xx_HAL_Driver/Src/stm32l4xx_hal_smartcard.c **** #if USE_HAL_SMARTCARD_REGISTER_CALLBACKS == 1
 349:Drivers/STM32L4xx_HAL_Driver/Src/stm32l4xx_hal_smartcard.c ****     SMARTCARD_InitCallbacksToDefault(hsmartcard);
 350:Drivers/STM32L4xx_HAL_Driver/Src/stm32l4xx_hal_smartcard.c **** 
 351:Drivers/STM32L4xx_HAL_Driver/Src/stm32l4xx_hal_smartcard.c ****     if (hsmartcard->MspInitCallback == NULL)
 352:Drivers/STM32L4xx_HAL_Driver/Src/stm32l4xx_hal_smartcard.c ****     {
 353:Drivers/STM32L4xx_HAL_Driver/Src/stm32l4xx_hal_smartcard.c ****       hsmartcard->MspInitCallback = HAL_SMARTCARD_MspInit;
 354:Drivers/STM32L4xx_HAL_Driver/Src/stm32l4xx_hal_smartcard.c ****     }
 355:Drivers/STM32L4xx_HAL_Driver/Src/stm32l4xx_hal_smartcard.c **** 
 356:Drivers/STM32L4xx_HAL_Driver/Src/stm32l4xx_hal_smartcard.c ****     /* Init the low level hardware */
 357:Drivers/STM32L4xx_HAL_Driver/Src/stm32l4xx_hal_smartcard.c ****     hsmartcard->MspInitCallback(hsmartcard);
 358:Drivers/STM32L4xx_HAL_Driver/Src/stm32l4xx_hal_smartcard.c **** #else
 359:Drivers/STM32L4xx_HAL_Driver/Src/stm32l4xx_hal_smartcard.c ****     /* Init the low level hardware : GPIO, CLOCK */
 360:Drivers/STM32L4xx_HAL_Driver/Src/stm32l4xx_hal_smartcard.c ****     HAL_SMARTCARD_MspInit(hsmartcard);
  66              		.loc 1 360 5
  67 0022 7868     		ldr	r0, [r7, #4]
  68 0024 FFF7FEFF 		bl	HAL_SMARTCARD_MspInit
  69              	.L4:
 361:Drivers/STM32L4xx_HAL_Driver/Src/stm32l4xx_hal_smartcard.c **** #endif /* USE_HAL_SMARTCARD_REGISTER_CALLBACKS */
 362:Drivers/STM32L4xx_HAL_Driver/Src/stm32l4xx_hal_smartcard.c ****   }
 363:Drivers/STM32L4xx_HAL_Driver/Src/stm32l4xx_hal_smartcard.c **** 
 364:Drivers/STM32L4xx_HAL_Driver/Src/stm32l4xx_hal_smartcard.c ****   hsmartcard->gState = HAL_SMARTCARD_STATE_BUSY;
  70              		.loc 1 364 22
  71 0028 7B68     		ldr	r3, [r7, #4]
  72 002a 2422     		movs	r2, #36
  73 002c 5A67     		str	r2, [r3, #116]
 365:Drivers/STM32L4xx_HAL_Driver/Src/stm32l4xx_hal_smartcard.c **** 
 366:Drivers/STM32L4xx_HAL_Driver/Src/stm32l4xx_hal_smartcard.c ****   /* Disable the Peripheral to set smartcard mode */
 367:Drivers/STM32L4xx_HAL_Driver/Src/stm32l4xx_hal_smartcard.c ****   CLEAR_BIT(hsmartcard->Instance->CR1, USART_CR1_UE);
  74              		.loc 1 367 3
  75 002e 7B68     		ldr	r3, [r7, #4]
  76 0030 1B68     		ldr	r3, [r3]
  77 0032 1A68     		ldr	r2, [r3]
  78 0034 7B68     		ldr	r3, [r7, #4]
  79 0036 1B68     		ldr	r3, [r3]
  80 0038 22F00102 		bic	r2, r2, #1
  81 003c 1A60     		str	r2, [r3]
 368:Drivers/STM32L4xx_HAL_Driver/Src/stm32l4xx_hal_smartcard.c **** 
 369:Drivers/STM32L4xx_HAL_Driver/Src/stm32l4xx_hal_smartcard.c ****   /* In SmartCard mode, the following bits must be kept cleared:
 370:Drivers/STM32L4xx_HAL_Driver/Src/stm32l4xx_hal_smartcard.c ****   - LINEN in the USART_CR2 register,
 371:Drivers/STM32L4xx_HAL_Driver/Src/stm32l4xx_hal_smartcard.c ****   - HDSEL and IREN  bits in the USART_CR3 register.*/
 372:Drivers/STM32L4xx_HAL_Driver/Src/stm32l4xx_hal_smartcard.c ****   CLEAR_BIT(hsmartcard->Instance->CR2, USART_CR2_LINEN);
  82              		.loc 1 372 3
  83 003e 7B68     		ldr	r3, [r7, #4]
  84 0040 1B68     		ldr	r3, [r3]
  85 0042 5A68     		ldr	r2, [r3, #4]
  86 0044 7B68     		ldr	r3, [r7, #4]
ARM GAS  /tmp/ccDAjxq4.s 			page 9


  87 0046 1B68     		ldr	r3, [r3]
  88 0048 22F48042 		bic	r2, r2, #16384
  89 004c 5A60     		str	r2, [r3, #4]
 373:Drivers/STM32L4xx_HAL_Driver/Src/stm32l4xx_hal_smartcard.c ****   CLEAR_BIT(hsmartcard->Instance->CR3, (USART_CR3_HDSEL | USART_CR3_IREN));
  90              		.loc 1 373 3
  91 004e 7B68     		ldr	r3, [r7, #4]
  92 0050 1B68     		ldr	r3, [r3]
  93 0052 9A68     		ldr	r2, [r3, #8]
  94 0054 7B68     		ldr	r3, [r7, #4]
  95 0056 1B68     		ldr	r3, [r3]
  96 0058 22F00A02 		bic	r2, r2, #10
  97 005c 9A60     		str	r2, [r3, #8]
 374:Drivers/STM32L4xx_HAL_Driver/Src/stm32l4xx_hal_smartcard.c **** 
 375:Drivers/STM32L4xx_HAL_Driver/Src/stm32l4xx_hal_smartcard.c ****   /* set the USART in SMARTCARD mode */
 376:Drivers/STM32L4xx_HAL_Driver/Src/stm32l4xx_hal_smartcard.c ****   SET_BIT(hsmartcard->Instance->CR3, USART_CR3_SCEN);
  98              		.loc 1 376 3
  99 005e 7B68     		ldr	r3, [r7, #4]
 100 0060 1B68     		ldr	r3, [r3]
 101 0062 9A68     		ldr	r2, [r3, #8]
 102 0064 7B68     		ldr	r3, [r7, #4]
 103 0066 1B68     		ldr	r3, [r3]
 104 0068 42F02002 		orr	r2, r2, #32
 105 006c 9A60     		str	r2, [r3, #8]
 377:Drivers/STM32L4xx_HAL_Driver/Src/stm32l4xx_hal_smartcard.c **** 
 378:Drivers/STM32L4xx_HAL_Driver/Src/stm32l4xx_hal_smartcard.c ****   /* Set the SMARTCARD Communication parameters */
 379:Drivers/STM32L4xx_HAL_Driver/Src/stm32l4xx_hal_smartcard.c ****   if (SMARTCARD_SetConfig(hsmartcard) == HAL_ERROR)
 106              		.loc 1 379 7
 107 006e 7868     		ldr	r0, [r7, #4]
 108 0070 FFF7FEFF 		bl	SMARTCARD_SetConfig
 109 0074 0346     		mov	r3, r0
 110              		.loc 1 379 6 discriminator 1
 111 0076 012B     		cmp	r3, #1
 112 0078 01D1     		bne	.L5
 380:Drivers/STM32L4xx_HAL_Driver/Src/stm32l4xx_hal_smartcard.c ****   {
 381:Drivers/STM32L4xx_HAL_Driver/Src/stm32l4xx_hal_smartcard.c ****     return HAL_ERROR;
 113              		.loc 1 381 12
 114 007a 0123     		movs	r3, #1
 115 007c 17E0     		b	.L3
 116              	.L5:
 382:Drivers/STM32L4xx_HAL_Driver/Src/stm32l4xx_hal_smartcard.c ****   }
 383:Drivers/STM32L4xx_HAL_Driver/Src/stm32l4xx_hal_smartcard.c **** 
 384:Drivers/STM32L4xx_HAL_Driver/Src/stm32l4xx_hal_smartcard.c ****   /* Set the SMARTCARD transmission completion indication */
 385:Drivers/STM32L4xx_HAL_Driver/Src/stm32l4xx_hal_smartcard.c ****   SMARTCARD_TRANSMISSION_COMPLETION_SETTING(hsmartcard);
 117              		.loc 1 385 3
 118 007e 7B68     		ldr	r3, [r7, #4]
 119 0080 40F22662 		movw	r2, #1574
 120 0084 A3F84C20 		strh	r2, [r3, #76]	@ movhi
 386:Drivers/STM32L4xx_HAL_Driver/Src/stm32l4xx_hal_smartcard.c **** 
 387:Drivers/STM32L4xx_HAL_Driver/Src/stm32l4xx_hal_smartcard.c ****   if (hsmartcard->AdvancedInit.AdvFeatureInit != SMARTCARD_ADVFEATURE_NO_INIT)
 121              		.loc 1 387 31
 122 0088 7B68     		ldr	r3, [r7, #4]
 123 008a DB6A     		ldr	r3, [r3, #44]
 124              		.loc 1 387 6
 125 008c 002B     		cmp	r3, #0
 126 008e 02D0     		beq	.L6
 388:Drivers/STM32L4xx_HAL_Driver/Src/stm32l4xx_hal_smartcard.c ****   {
 389:Drivers/STM32L4xx_HAL_Driver/Src/stm32l4xx_hal_smartcard.c ****     SMARTCARD_AdvFeatureConfig(hsmartcard);
ARM GAS  /tmp/ccDAjxq4.s 			page 10


 127              		.loc 1 389 5
 128 0090 7868     		ldr	r0, [r7, #4]
 129 0092 FFF7FEFF 		bl	SMARTCARD_AdvFeatureConfig
 130              	.L6:
 390:Drivers/STM32L4xx_HAL_Driver/Src/stm32l4xx_hal_smartcard.c ****   }
 391:Drivers/STM32L4xx_HAL_Driver/Src/stm32l4xx_hal_smartcard.c **** 
 392:Drivers/STM32L4xx_HAL_Driver/Src/stm32l4xx_hal_smartcard.c ****   /* Enable the Peripheral */
 393:Drivers/STM32L4xx_HAL_Driver/Src/stm32l4xx_hal_smartcard.c ****   SET_BIT(hsmartcard->Instance->CR1, USART_CR1_UE);
 131              		.loc 1 393 3
 132 0096 7B68     		ldr	r3, [r7, #4]
 133 0098 1B68     		ldr	r3, [r3]
 134 009a 1A68     		ldr	r2, [r3]
 135 009c 7B68     		ldr	r3, [r7, #4]
 136 009e 1B68     		ldr	r3, [r3]
 137 00a0 42F00102 		orr	r2, r2, #1
 138 00a4 1A60     		str	r2, [r3]
 394:Drivers/STM32L4xx_HAL_Driver/Src/stm32l4xx_hal_smartcard.c **** 
 395:Drivers/STM32L4xx_HAL_Driver/Src/stm32l4xx_hal_smartcard.c ****   /* TEACK and/or REACK to check before moving hsmartcard->gState and hsmartcard->RxState to Ready 
 396:Drivers/STM32L4xx_HAL_Driver/Src/stm32l4xx_hal_smartcard.c ****   return (SMARTCARD_CheckIdleState(hsmartcard));
 139              		.loc 1 396 11
 140 00a6 7868     		ldr	r0, [r7, #4]
 141 00a8 FFF7FEFF 		bl	SMARTCARD_CheckIdleState
 142 00ac 0346     		mov	r3, r0
 143              	.L3:
 397:Drivers/STM32L4xx_HAL_Driver/Src/stm32l4xx_hal_smartcard.c **** }
 144              		.loc 1 397 1
 145 00ae 1846     		mov	r0, r3
 146 00b0 0837     		adds	r7, r7, #8
 147              		.cfi_def_cfa_offset 8
 148 00b2 BD46     		mov	sp, r7
 149              		.cfi_def_cfa_register 13
 150              		@ sp needed
 151 00b4 80BD     		pop	{r7, pc}
 152              		.cfi_endproc
 153              	.LFE445:
 155              		.section	.text.HAL_SMARTCARD_DeInit,"ax",%progbits
 156              		.align	1
 157              		.global	HAL_SMARTCARD_DeInit
 158              		.syntax unified
 159              		.thumb
 160              		.thumb_func
 162              	HAL_SMARTCARD_DeInit:
 163              	.LFB446:
 398:Drivers/STM32L4xx_HAL_Driver/Src/stm32l4xx_hal_smartcard.c **** 
 399:Drivers/STM32L4xx_HAL_Driver/Src/stm32l4xx_hal_smartcard.c **** /**
 400:Drivers/STM32L4xx_HAL_Driver/Src/stm32l4xx_hal_smartcard.c ****   * @brief  DeInitialize the SMARTCARD peripheral.
 401:Drivers/STM32L4xx_HAL_Driver/Src/stm32l4xx_hal_smartcard.c ****   * @param  hsmartcard Pointer to a SMARTCARD_HandleTypeDef structure that contains
 402:Drivers/STM32L4xx_HAL_Driver/Src/stm32l4xx_hal_smartcard.c ****   *                    the configuration information for the specified SMARTCARD module.
 403:Drivers/STM32L4xx_HAL_Driver/Src/stm32l4xx_hal_smartcard.c ****   * @retval HAL status
 404:Drivers/STM32L4xx_HAL_Driver/Src/stm32l4xx_hal_smartcard.c ****   */
 405:Drivers/STM32L4xx_HAL_Driver/Src/stm32l4xx_hal_smartcard.c **** HAL_StatusTypeDef HAL_SMARTCARD_DeInit(SMARTCARD_HandleTypeDef *hsmartcard)
 406:Drivers/STM32L4xx_HAL_Driver/Src/stm32l4xx_hal_smartcard.c **** {
 164              		.loc 1 406 1
 165              		.cfi_startproc
 166              		@ args = 0, pretend = 0, frame = 8
 167              		@ frame_needed = 1, uses_anonymous_args = 0
 168 0000 80B5     		push	{r7, lr}
ARM GAS  /tmp/ccDAjxq4.s 			page 11


 169              		.cfi_def_cfa_offset 8
 170              		.cfi_offset 7, -8
 171              		.cfi_offset 14, -4
 172 0002 82B0     		sub	sp, sp, #8
 173              		.cfi_def_cfa_offset 16
 174 0004 00AF     		add	r7, sp, #0
 175              		.cfi_def_cfa_register 7
 176 0006 7860     		str	r0, [r7, #4]
 407:Drivers/STM32L4xx_HAL_Driver/Src/stm32l4xx_hal_smartcard.c ****   /* Check the SMARTCARD handle allocation */
 408:Drivers/STM32L4xx_HAL_Driver/Src/stm32l4xx_hal_smartcard.c ****   if (hsmartcard == NULL)
 177              		.loc 1 408 6
 178 0008 7B68     		ldr	r3, [r7, #4]
 179 000a 002B     		cmp	r3, #0
 180 000c 01D1     		bne	.L8
 409:Drivers/STM32L4xx_HAL_Driver/Src/stm32l4xx_hal_smartcard.c ****   {
 410:Drivers/STM32L4xx_HAL_Driver/Src/stm32l4xx_hal_smartcard.c ****     return HAL_ERROR;
 181              		.loc 1 410 12
 182 000e 0123     		movs	r3, #1
 183 0010 2FE0     		b	.L9
 184              	.L8:
 411:Drivers/STM32L4xx_HAL_Driver/Src/stm32l4xx_hal_smartcard.c ****   }
 412:Drivers/STM32L4xx_HAL_Driver/Src/stm32l4xx_hal_smartcard.c **** 
 413:Drivers/STM32L4xx_HAL_Driver/Src/stm32l4xx_hal_smartcard.c ****   /* Check the USART/UART associated to the SMARTCARD handle */
 414:Drivers/STM32L4xx_HAL_Driver/Src/stm32l4xx_hal_smartcard.c ****   assert_param(IS_SMARTCARD_INSTANCE(hsmartcard->Instance));
 415:Drivers/STM32L4xx_HAL_Driver/Src/stm32l4xx_hal_smartcard.c **** 
 416:Drivers/STM32L4xx_HAL_Driver/Src/stm32l4xx_hal_smartcard.c ****   hsmartcard->gState = HAL_SMARTCARD_STATE_BUSY;
 185              		.loc 1 416 22
 186 0012 7B68     		ldr	r3, [r7, #4]
 187 0014 2422     		movs	r2, #36
 188 0016 5A67     		str	r2, [r3, #116]
 417:Drivers/STM32L4xx_HAL_Driver/Src/stm32l4xx_hal_smartcard.c **** 
 418:Drivers/STM32L4xx_HAL_Driver/Src/stm32l4xx_hal_smartcard.c ****   /* Disable the Peripheral */
 419:Drivers/STM32L4xx_HAL_Driver/Src/stm32l4xx_hal_smartcard.c ****   CLEAR_BIT(hsmartcard->Instance->CR1, USART_CR1_UE);
 189              		.loc 1 419 3
 190 0018 7B68     		ldr	r3, [r7, #4]
 191 001a 1B68     		ldr	r3, [r3]
 192 001c 1A68     		ldr	r2, [r3]
 193 001e 7B68     		ldr	r3, [r7, #4]
 194 0020 1B68     		ldr	r3, [r3]
 195 0022 22F00102 		bic	r2, r2, #1
 196 0026 1A60     		str	r2, [r3]
 420:Drivers/STM32L4xx_HAL_Driver/Src/stm32l4xx_hal_smartcard.c **** 
 421:Drivers/STM32L4xx_HAL_Driver/Src/stm32l4xx_hal_smartcard.c ****   WRITE_REG(hsmartcard->Instance->CR1, 0x0U);
 197              		.loc 1 421 3
 198 0028 7B68     		ldr	r3, [r7, #4]
 199 002a 1B68     		ldr	r3, [r3]
 200 002c 0022     		movs	r2, #0
 201 002e 1A60     		str	r2, [r3]
 422:Drivers/STM32L4xx_HAL_Driver/Src/stm32l4xx_hal_smartcard.c ****   WRITE_REG(hsmartcard->Instance->CR2, 0x0U);
 202              		.loc 1 422 3
 203 0030 7B68     		ldr	r3, [r7, #4]
 204 0032 1B68     		ldr	r3, [r3]
 205 0034 0022     		movs	r2, #0
 206 0036 5A60     		str	r2, [r3, #4]
 423:Drivers/STM32L4xx_HAL_Driver/Src/stm32l4xx_hal_smartcard.c ****   WRITE_REG(hsmartcard->Instance->CR3, 0x0U);
 207              		.loc 1 423 3
 208 0038 7B68     		ldr	r3, [r7, #4]
ARM GAS  /tmp/ccDAjxq4.s 			page 12


 209 003a 1B68     		ldr	r3, [r3]
 210 003c 0022     		movs	r2, #0
 211 003e 9A60     		str	r2, [r3, #8]
 424:Drivers/STM32L4xx_HAL_Driver/Src/stm32l4xx_hal_smartcard.c ****   WRITE_REG(hsmartcard->Instance->RTOR, 0x0U);
 212              		.loc 1 424 3
 213 0040 7B68     		ldr	r3, [r7, #4]
 214 0042 1B68     		ldr	r3, [r3]
 215 0044 0022     		movs	r2, #0
 216 0046 5A61     		str	r2, [r3, #20]
 425:Drivers/STM32L4xx_HAL_Driver/Src/stm32l4xx_hal_smartcard.c ****   WRITE_REG(hsmartcard->Instance->GTPR, 0x0U);
 217              		.loc 1 425 3
 218 0048 7B68     		ldr	r3, [r7, #4]
 219 004a 1B68     		ldr	r3, [r3]
 220 004c 0022     		movs	r2, #0
 221 004e 1A61     		str	r2, [r3, #16]
 426:Drivers/STM32L4xx_HAL_Driver/Src/stm32l4xx_hal_smartcard.c **** 
 427:Drivers/STM32L4xx_HAL_Driver/Src/stm32l4xx_hal_smartcard.c ****   /* DeInit the low level hardware */
 428:Drivers/STM32L4xx_HAL_Driver/Src/stm32l4xx_hal_smartcard.c **** #if USE_HAL_SMARTCARD_REGISTER_CALLBACKS == 1
 429:Drivers/STM32L4xx_HAL_Driver/Src/stm32l4xx_hal_smartcard.c ****   if (hsmartcard->MspDeInitCallback == NULL)
 430:Drivers/STM32L4xx_HAL_Driver/Src/stm32l4xx_hal_smartcard.c ****   {
 431:Drivers/STM32L4xx_HAL_Driver/Src/stm32l4xx_hal_smartcard.c ****     hsmartcard->MspDeInitCallback = HAL_SMARTCARD_MspDeInit;
 432:Drivers/STM32L4xx_HAL_Driver/Src/stm32l4xx_hal_smartcard.c ****   }
 433:Drivers/STM32L4xx_HAL_Driver/Src/stm32l4xx_hal_smartcard.c ****   /* DeInit the low level hardware */
 434:Drivers/STM32L4xx_HAL_Driver/Src/stm32l4xx_hal_smartcard.c ****   hsmartcard->MspDeInitCallback(hsmartcard);
 435:Drivers/STM32L4xx_HAL_Driver/Src/stm32l4xx_hal_smartcard.c **** #else
 436:Drivers/STM32L4xx_HAL_Driver/Src/stm32l4xx_hal_smartcard.c ****   HAL_SMARTCARD_MspDeInit(hsmartcard);
 222              		.loc 1 436 3
 223 0050 7868     		ldr	r0, [r7, #4]
 224 0052 FFF7FEFF 		bl	HAL_SMARTCARD_MspDeInit
 437:Drivers/STM32L4xx_HAL_Driver/Src/stm32l4xx_hal_smartcard.c **** #endif /* USE_HAL_SMARTCARD_REGISTER_CALLBACKS */
 438:Drivers/STM32L4xx_HAL_Driver/Src/stm32l4xx_hal_smartcard.c **** 
 439:Drivers/STM32L4xx_HAL_Driver/Src/stm32l4xx_hal_smartcard.c ****   hsmartcard->ErrorCode = HAL_SMARTCARD_ERROR_NONE;
 225              		.loc 1 439 25
 226 0056 7B68     		ldr	r3, [r7, #4]
 227 0058 0022     		movs	r2, #0
 228 005a DA67     		str	r2, [r3, #124]
 440:Drivers/STM32L4xx_HAL_Driver/Src/stm32l4xx_hal_smartcard.c ****   hsmartcard->gState    = HAL_SMARTCARD_STATE_RESET;
 229              		.loc 1 440 25
 230 005c 7B68     		ldr	r3, [r7, #4]
 231 005e 0022     		movs	r2, #0
 232 0060 5A67     		str	r2, [r3, #116]
 441:Drivers/STM32L4xx_HAL_Driver/Src/stm32l4xx_hal_smartcard.c ****   hsmartcard->RxState   = HAL_SMARTCARD_STATE_RESET;
 233              		.loc 1 441 25
 234 0062 7B68     		ldr	r3, [r7, #4]
 235 0064 0022     		movs	r2, #0
 236 0066 9A67     		str	r2, [r3, #120]
 442:Drivers/STM32L4xx_HAL_Driver/Src/stm32l4xx_hal_smartcard.c **** 
 443:Drivers/STM32L4xx_HAL_Driver/Src/stm32l4xx_hal_smartcard.c ****   /* Process Unlock */
 444:Drivers/STM32L4xx_HAL_Driver/Src/stm32l4xx_hal_smartcard.c ****   __HAL_UNLOCK(hsmartcard);
 237              		.loc 1 444 3
 238 0068 7B68     		ldr	r3, [r7, #4]
 239 006a 0022     		movs	r2, #0
 240 006c 83F87020 		strb	r2, [r3, #112]
 445:Drivers/STM32L4xx_HAL_Driver/Src/stm32l4xx_hal_smartcard.c **** 
 446:Drivers/STM32L4xx_HAL_Driver/Src/stm32l4xx_hal_smartcard.c ****   return HAL_OK;
 241              		.loc 1 446 10
 242 0070 0023     		movs	r3, #0
ARM GAS  /tmp/ccDAjxq4.s 			page 13


 243              	.L9:
 447:Drivers/STM32L4xx_HAL_Driver/Src/stm32l4xx_hal_smartcard.c **** }
 244              		.loc 1 447 1
 245 0072 1846     		mov	r0, r3
 246 0074 0837     		adds	r7, r7, #8
 247              		.cfi_def_cfa_offset 8
 248 0076 BD46     		mov	sp, r7
 249              		.cfi_def_cfa_register 13
 250              		@ sp needed
 251 0078 80BD     		pop	{r7, pc}
 252              		.cfi_endproc
 253              	.LFE446:
 255              		.section	.text.HAL_SMARTCARD_MspInit,"ax",%progbits
 256              		.align	1
 257              		.weak	HAL_SMARTCARD_MspInit
 258              		.syntax unified
 259              		.thumb
 260              		.thumb_func
 262              	HAL_SMARTCARD_MspInit:
 263              	.LFB447:
 448:Drivers/STM32L4xx_HAL_Driver/Src/stm32l4xx_hal_smartcard.c **** 
 449:Drivers/STM32L4xx_HAL_Driver/Src/stm32l4xx_hal_smartcard.c **** /**
 450:Drivers/STM32L4xx_HAL_Driver/Src/stm32l4xx_hal_smartcard.c ****   * @brief  Initialize the SMARTCARD MSP.
 451:Drivers/STM32L4xx_HAL_Driver/Src/stm32l4xx_hal_smartcard.c ****   * @param  hsmartcard Pointer to a SMARTCARD_HandleTypeDef structure that contains
 452:Drivers/STM32L4xx_HAL_Driver/Src/stm32l4xx_hal_smartcard.c ****   *                    the configuration information for the specified SMARTCARD module.
 453:Drivers/STM32L4xx_HAL_Driver/Src/stm32l4xx_hal_smartcard.c ****   * @retval None
 454:Drivers/STM32L4xx_HAL_Driver/Src/stm32l4xx_hal_smartcard.c ****   */
 455:Drivers/STM32L4xx_HAL_Driver/Src/stm32l4xx_hal_smartcard.c **** __weak void HAL_SMARTCARD_MspInit(SMARTCARD_HandleTypeDef *hsmartcard)
 456:Drivers/STM32L4xx_HAL_Driver/Src/stm32l4xx_hal_smartcard.c **** {
 264              		.loc 1 456 1
 265              		.cfi_startproc
 266              		@ args = 0, pretend = 0, frame = 8
 267              		@ frame_needed = 1, uses_anonymous_args = 0
 268              		@ link register save eliminated.
 269 0000 80B4     		push	{r7}
 270              		.cfi_def_cfa_offset 4
 271              		.cfi_offset 7, -4
 272 0002 83B0     		sub	sp, sp, #12
 273              		.cfi_def_cfa_offset 16
 274 0004 00AF     		add	r7, sp, #0
 275              		.cfi_def_cfa_register 7
 276 0006 7860     		str	r0, [r7, #4]
 457:Drivers/STM32L4xx_HAL_Driver/Src/stm32l4xx_hal_smartcard.c ****   /* Prevent unused argument(s) compilation warning */
 458:Drivers/STM32L4xx_HAL_Driver/Src/stm32l4xx_hal_smartcard.c ****   UNUSED(hsmartcard);
 459:Drivers/STM32L4xx_HAL_Driver/Src/stm32l4xx_hal_smartcard.c **** 
 460:Drivers/STM32L4xx_HAL_Driver/Src/stm32l4xx_hal_smartcard.c ****   /* NOTE : This function should not be modified, when the callback is needed,
 461:Drivers/STM32L4xx_HAL_Driver/Src/stm32l4xx_hal_smartcard.c ****             the HAL_SMARTCARD_MspInit can be implemented in the user file
 462:Drivers/STM32L4xx_HAL_Driver/Src/stm32l4xx_hal_smartcard.c ****    */
 463:Drivers/STM32L4xx_HAL_Driver/Src/stm32l4xx_hal_smartcard.c **** }
 277              		.loc 1 463 1
 278 0008 00BF     		nop
 279 000a 0C37     		adds	r7, r7, #12
 280              		.cfi_def_cfa_offset 4
 281 000c BD46     		mov	sp, r7
 282              		.cfi_def_cfa_register 13
 283              		@ sp needed
 284 000e 5DF8047B 		ldr	r7, [sp], #4
ARM GAS  /tmp/ccDAjxq4.s 			page 14


 285              		.cfi_restore 7
 286              		.cfi_def_cfa_offset 0
 287 0012 7047     		bx	lr
 288              		.cfi_endproc
 289              	.LFE447:
 291              		.section	.text.HAL_SMARTCARD_MspDeInit,"ax",%progbits
 292              		.align	1
 293              		.weak	HAL_SMARTCARD_MspDeInit
 294              		.syntax unified
 295              		.thumb
 296              		.thumb_func
 298              	HAL_SMARTCARD_MspDeInit:
 299              	.LFB448:
 464:Drivers/STM32L4xx_HAL_Driver/Src/stm32l4xx_hal_smartcard.c **** 
 465:Drivers/STM32L4xx_HAL_Driver/Src/stm32l4xx_hal_smartcard.c **** /**
 466:Drivers/STM32L4xx_HAL_Driver/Src/stm32l4xx_hal_smartcard.c ****   * @brief  DeInitialize the SMARTCARD MSP.
 467:Drivers/STM32L4xx_HAL_Driver/Src/stm32l4xx_hal_smartcard.c ****   * @param  hsmartcard Pointer to a SMARTCARD_HandleTypeDef structure that contains
 468:Drivers/STM32L4xx_HAL_Driver/Src/stm32l4xx_hal_smartcard.c ****   *                    the configuration information for the specified SMARTCARD module.
 469:Drivers/STM32L4xx_HAL_Driver/Src/stm32l4xx_hal_smartcard.c ****   * @retval None
 470:Drivers/STM32L4xx_HAL_Driver/Src/stm32l4xx_hal_smartcard.c ****   */
 471:Drivers/STM32L4xx_HAL_Driver/Src/stm32l4xx_hal_smartcard.c **** __weak void HAL_SMARTCARD_MspDeInit(SMARTCARD_HandleTypeDef *hsmartcard)
 472:Drivers/STM32L4xx_HAL_Driver/Src/stm32l4xx_hal_smartcard.c **** {
 300              		.loc 1 472 1
 301              		.cfi_startproc
 302              		@ args = 0, pretend = 0, frame = 8
 303              		@ frame_needed = 1, uses_anonymous_args = 0
 304              		@ link register save eliminated.
 305 0000 80B4     		push	{r7}
 306              		.cfi_def_cfa_offset 4
 307              		.cfi_offset 7, -4
 308 0002 83B0     		sub	sp, sp, #12
 309              		.cfi_def_cfa_offset 16
 310 0004 00AF     		add	r7, sp, #0
 311              		.cfi_def_cfa_register 7
 312 0006 7860     		str	r0, [r7, #4]
 473:Drivers/STM32L4xx_HAL_Driver/Src/stm32l4xx_hal_smartcard.c ****   /* Prevent unused argument(s) compilation warning */
 474:Drivers/STM32L4xx_HAL_Driver/Src/stm32l4xx_hal_smartcard.c ****   UNUSED(hsmartcard);
 475:Drivers/STM32L4xx_HAL_Driver/Src/stm32l4xx_hal_smartcard.c **** 
 476:Drivers/STM32L4xx_HAL_Driver/Src/stm32l4xx_hal_smartcard.c ****   /* NOTE : This function should not be modified, when the callback is needed,
 477:Drivers/STM32L4xx_HAL_Driver/Src/stm32l4xx_hal_smartcard.c ****             the HAL_SMARTCARD_MspDeInit can be implemented in the user file
 478:Drivers/STM32L4xx_HAL_Driver/Src/stm32l4xx_hal_smartcard.c ****    */
 479:Drivers/STM32L4xx_HAL_Driver/Src/stm32l4xx_hal_smartcard.c **** }
 313              		.loc 1 479 1
 314 0008 00BF     		nop
 315 000a 0C37     		adds	r7, r7, #12
 316              		.cfi_def_cfa_offset 4
 317 000c BD46     		mov	sp, r7
 318              		.cfi_def_cfa_register 13
 319              		@ sp needed
 320 000e 5DF8047B 		ldr	r7, [sp], #4
 321              		.cfi_restore 7
 322              		.cfi_def_cfa_offset 0
 323 0012 7047     		bx	lr
 324              		.cfi_endproc
 325              	.LFE448:
 327              		.section	.text.HAL_SMARTCARD_Transmit,"ax",%progbits
 328              		.align	1
ARM GAS  /tmp/ccDAjxq4.s 			page 15


 329              		.global	HAL_SMARTCARD_Transmit
 330              		.syntax unified
 331              		.thumb
 332              		.thumb_func
 334              	HAL_SMARTCARD_Transmit:
 335              	.LFB449:
 480:Drivers/STM32L4xx_HAL_Driver/Src/stm32l4xx_hal_smartcard.c **** 
 481:Drivers/STM32L4xx_HAL_Driver/Src/stm32l4xx_hal_smartcard.c **** #if (USE_HAL_SMARTCARD_REGISTER_CALLBACKS == 1)
 482:Drivers/STM32L4xx_HAL_Driver/Src/stm32l4xx_hal_smartcard.c **** /**
 483:Drivers/STM32L4xx_HAL_Driver/Src/stm32l4xx_hal_smartcard.c ****   * @brief  Register a User SMARTCARD Callback
 484:Drivers/STM32L4xx_HAL_Driver/Src/stm32l4xx_hal_smartcard.c ****   *         To be used to override the weak predefined callback
 485:Drivers/STM32L4xx_HAL_Driver/Src/stm32l4xx_hal_smartcard.c ****   * @note   The HAL_SMARTCARD_RegisterCallback() may be called before HAL_SMARTCARD_Init()
 486:Drivers/STM32L4xx_HAL_Driver/Src/stm32l4xx_hal_smartcard.c ****   *         in HAL_SMARTCARD_STATE_RESET to register callbacks for HAL_SMARTCARD_MSPINIT_CB_ID
 487:Drivers/STM32L4xx_HAL_Driver/Src/stm32l4xx_hal_smartcard.c ****   *         and HAL_SMARTCARD_MSPDEINIT_CB_ID
 488:Drivers/STM32L4xx_HAL_Driver/Src/stm32l4xx_hal_smartcard.c ****   * @param  hsmartcard smartcard handle
 489:Drivers/STM32L4xx_HAL_Driver/Src/stm32l4xx_hal_smartcard.c ****   * @param  CallbackID ID of the callback to be registered
 490:Drivers/STM32L4xx_HAL_Driver/Src/stm32l4xx_hal_smartcard.c ****   *         This parameter can be one of the following values:
 491:Drivers/STM32L4xx_HAL_Driver/Src/stm32l4xx_hal_smartcard.c ****   *           @arg @ref HAL_SMARTCARD_TX_COMPLETE_CB_ID Tx Complete Callback ID
 492:Drivers/STM32L4xx_HAL_Driver/Src/stm32l4xx_hal_smartcard.c ****   *           @arg @ref HAL_SMARTCARD_RX_COMPLETE_CB_ID Rx Complete Callback ID
 493:Drivers/STM32L4xx_HAL_Driver/Src/stm32l4xx_hal_smartcard.c ****   *           @arg @ref HAL_SMARTCARD_ERROR_CB_ID Error Callback ID
 494:Drivers/STM32L4xx_HAL_Driver/Src/stm32l4xx_hal_smartcard.c ****   *           @arg @ref HAL_SMARTCARD_ABORT_COMPLETE_CB_ID Abort Complete Callback ID
 495:Drivers/STM32L4xx_HAL_Driver/Src/stm32l4xx_hal_smartcard.c ****   *           @arg @ref HAL_SMARTCARD_ABORT_TRANSMIT_COMPLETE_CB_ID Abort Transmit Complete Callbac
 496:Drivers/STM32L4xx_HAL_Driver/Src/stm32l4xx_hal_smartcard.c ****   *           @arg @ref HAL_SMARTCARD_ABORT_RECEIVE_COMPLETE_CB_ID Abort Receive Complete Callback 
 497:Drivers/STM32L4xx_HAL_Driver/Src/stm32l4xx_hal_smartcard.c ****   *           @arg @ref HAL_SMARTCARD_RX_FIFO_FULL_CB_ID Rx Fifo Full Callback ID
 498:Drivers/STM32L4xx_HAL_Driver/Src/stm32l4xx_hal_smartcard.c ****   *           @arg @ref HAL_SMARTCARD_TX_FIFO_EMPTY_CB_ID Tx Fifo Empty Callback ID
 499:Drivers/STM32L4xx_HAL_Driver/Src/stm32l4xx_hal_smartcard.c ****   *           @arg @ref HAL_SMARTCARD_MSPINIT_CB_ID MspInit Callback ID
 500:Drivers/STM32L4xx_HAL_Driver/Src/stm32l4xx_hal_smartcard.c ****   *           @arg @ref HAL_SMARTCARD_MSPDEINIT_CB_ID MspDeInit Callback ID
 501:Drivers/STM32L4xx_HAL_Driver/Src/stm32l4xx_hal_smartcard.c ****   * @param  pCallback pointer to the Callback function
 502:Drivers/STM32L4xx_HAL_Driver/Src/stm32l4xx_hal_smartcard.c ****   * @retval HAL status
 503:Drivers/STM32L4xx_HAL_Driver/Src/stm32l4xx_hal_smartcard.c ****   */
 504:Drivers/STM32L4xx_HAL_Driver/Src/stm32l4xx_hal_smartcard.c **** HAL_StatusTypeDef HAL_SMARTCARD_RegisterCallback(SMARTCARD_HandleTypeDef *hsmartcard,
 505:Drivers/STM32L4xx_HAL_Driver/Src/stm32l4xx_hal_smartcard.c ****                                                  HAL_SMARTCARD_CallbackIDTypeDef CallbackID,
 506:Drivers/STM32L4xx_HAL_Driver/Src/stm32l4xx_hal_smartcard.c ****                                                  pSMARTCARD_CallbackTypeDef pCallback)
 507:Drivers/STM32L4xx_HAL_Driver/Src/stm32l4xx_hal_smartcard.c **** {
 508:Drivers/STM32L4xx_HAL_Driver/Src/stm32l4xx_hal_smartcard.c ****   HAL_StatusTypeDef status = HAL_OK;
 509:Drivers/STM32L4xx_HAL_Driver/Src/stm32l4xx_hal_smartcard.c **** 
 510:Drivers/STM32L4xx_HAL_Driver/Src/stm32l4xx_hal_smartcard.c ****   if (pCallback == NULL)
 511:Drivers/STM32L4xx_HAL_Driver/Src/stm32l4xx_hal_smartcard.c ****   {
 512:Drivers/STM32L4xx_HAL_Driver/Src/stm32l4xx_hal_smartcard.c ****     /* Update the error code */
 513:Drivers/STM32L4xx_HAL_Driver/Src/stm32l4xx_hal_smartcard.c ****     hsmartcard->ErrorCode |= HAL_SMARTCARD_ERROR_INVALID_CALLBACK;
 514:Drivers/STM32L4xx_HAL_Driver/Src/stm32l4xx_hal_smartcard.c **** 
 515:Drivers/STM32L4xx_HAL_Driver/Src/stm32l4xx_hal_smartcard.c ****     return HAL_ERROR;
 516:Drivers/STM32L4xx_HAL_Driver/Src/stm32l4xx_hal_smartcard.c ****   }
 517:Drivers/STM32L4xx_HAL_Driver/Src/stm32l4xx_hal_smartcard.c **** 
 518:Drivers/STM32L4xx_HAL_Driver/Src/stm32l4xx_hal_smartcard.c ****   if (hsmartcard->gState == HAL_SMARTCARD_STATE_READY)
 519:Drivers/STM32L4xx_HAL_Driver/Src/stm32l4xx_hal_smartcard.c ****   {
 520:Drivers/STM32L4xx_HAL_Driver/Src/stm32l4xx_hal_smartcard.c ****     switch (CallbackID)
 521:Drivers/STM32L4xx_HAL_Driver/Src/stm32l4xx_hal_smartcard.c ****     {
 522:Drivers/STM32L4xx_HAL_Driver/Src/stm32l4xx_hal_smartcard.c **** 
 523:Drivers/STM32L4xx_HAL_Driver/Src/stm32l4xx_hal_smartcard.c ****       case HAL_SMARTCARD_TX_COMPLETE_CB_ID :
 524:Drivers/STM32L4xx_HAL_Driver/Src/stm32l4xx_hal_smartcard.c ****         hsmartcard->TxCpltCallback = pCallback;
 525:Drivers/STM32L4xx_HAL_Driver/Src/stm32l4xx_hal_smartcard.c ****         break;
 526:Drivers/STM32L4xx_HAL_Driver/Src/stm32l4xx_hal_smartcard.c **** 
 527:Drivers/STM32L4xx_HAL_Driver/Src/stm32l4xx_hal_smartcard.c ****       case HAL_SMARTCARD_RX_COMPLETE_CB_ID :
 528:Drivers/STM32L4xx_HAL_Driver/Src/stm32l4xx_hal_smartcard.c ****         hsmartcard->RxCpltCallback = pCallback;
 529:Drivers/STM32L4xx_HAL_Driver/Src/stm32l4xx_hal_smartcard.c ****         break;
 530:Drivers/STM32L4xx_HAL_Driver/Src/stm32l4xx_hal_smartcard.c **** 
ARM GAS  /tmp/ccDAjxq4.s 			page 16


 531:Drivers/STM32L4xx_HAL_Driver/Src/stm32l4xx_hal_smartcard.c ****       case HAL_SMARTCARD_ERROR_CB_ID :
 532:Drivers/STM32L4xx_HAL_Driver/Src/stm32l4xx_hal_smartcard.c ****         hsmartcard->ErrorCallback = pCallback;
 533:Drivers/STM32L4xx_HAL_Driver/Src/stm32l4xx_hal_smartcard.c ****         break;
 534:Drivers/STM32L4xx_HAL_Driver/Src/stm32l4xx_hal_smartcard.c **** 
 535:Drivers/STM32L4xx_HAL_Driver/Src/stm32l4xx_hal_smartcard.c ****       case HAL_SMARTCARD_ABORT_COMPLETE_CB_ID :
 536:Drivers/STM32L4xx_HAL_Driver/Src/stm32l4xx_hal_smartcard.c ****         hsmartcard->AbortCpltCallback = pCallback;
 537:Drivers/STM32L4xx_HAL_Driver/Src/stm32l4xx_hal_smartcard.c ****         break;
 538:Drivers/STM32L4xx_HAL_Driver/Src/stm32l4xx_hal_smartcard.c **** 
 539:Drivers/STM32L4xx_HAL_Driver/Src/stm32l4xx_hal_smartcard.c ****       case HAL_SMARTCARD_ABORT_TRANSMIT_COMPLETE_CB_ID :
 540:Drivers/STM32L4xx_HAL_Driver/Src/stm32l4xx_hal_smartcard.c ****         hsmartcard->AbortTransmitCpltCallback = pCallback;
 541:Drivers/STM32L4xx_HAL_Driver/Src/stm32l4xx_hal_smartcard.c ****         break;
 542:Drivers/STM32L4xx_HAL_Driver/Src/stm32l4xx_hal_smartcard.c **** 
 543:Drivers/STM32L4xx_HAL_Driver/Src/stm32l4xx_hal_smartcard.c ****       case HAL_SMARTCARD_ABORT_RECEIVE_COMPLETE_CB_ID :
 544:Drivers/STM32L4xx_HAL_Driver/Src/stm32l4xx_hal_smartcard.c ****         hsmartcard->AbortReceiveCpltCallback = pCallback;
 545:Drivers/STM32L4xx_HAL_Driver/Src/stm32l4xx_hal_smartcard.c ****         break;
 546:Drivers/STM32L4xx_HAL_Driver/Src/stm32l4xx_hal_smartcard.c **** 
 547:Drivers/STM32L4xx_HAL_Driver/Src/stm32l4xx_hal_smartcard.c **** #if defined(USART_CR1_FIFOEN)
 548:Drivers/STM32L4xx_HAL_Driver/Src/stm32l4xx_hal_smartcard.c ****       case HAL_SMARTCARD_RX_FIFO_FULL_CB_ID :
 549:Drivers/STM32L4xx_HAL_Driver/Src/stm32l4xx_hal_smartcard.c ****         hsmartcard->RxFifoFullCallback = pCallback;
 550:Drivers/STM32L4xx_HAL_Driver/Src/stm32l4xx_hal_smartcard.c ****         break;
 551:Drivers/STM32L4xx_HAL_Driver/Src/stm32l4xx_hal_smartcard.c **** 
 552:Drivers/STM32L4xx_HAL_Driver/Src/stm32l4xx_hal_smartcard.c ****       case HAL_SMARTCARD_TX_FIFO_EMPTY_CB_ID :
 553:Drivers/STM32L4xx_HAL_Driver/Src/stm32l4xx_hal_smartcard.c ****         hsmartcard->TxFifoEmptyCallback = pCallback;
 554:Drivers/STM32L4xx_HAL_Driver/Src/stm32l4xx_hal_smartcard.c ****         break;
 555:Drivers/STM32L4xx_HAL_Driver/Src/stm32l4xx_hal_smartcard.c **** #endif /* USART_CR1_FIFOEN */
 556:Drivers/STM32L4xx_HAL_Driver/Src/stm32l4xx_hal_smartcard.c **** 
 557:Drivers/STM32L4xx_HAL_Driver/Src/stm32l4xx_hal_smartcard.c ****       case HAL_SMARTCARD_MSPINIT_CB_ID :
 558:Drivers/STM32L4xx_HAL_Driver/Src/stm32l4xx_hal_smartcard.c ****         hsmartcard->MspInitCallback = pCallback;
 559:Drivers/STM32L4xx_HAL_Driver/Src/stm32l4xx_hal_smartcard.c ****         break;
 560:Drivers/STM32L4xx_HAL_Driver/Src/stm32l4xx_hal_smartcard.c **** 
 561:Drivers/STM32L4xx_HAL_Driver/Src/stm32l4xx_hal_smartcard.c ****       case HAL_SMARTCARD_MSPDEINIT_CB_ID :
 562:Drivers/STM32L4xx_HAL_Driver/Src/stm32l4xx_hal_smartcard.c ****         hsmartcard->MspDeInitCallback = pCallback;
 563:Drivers/STM32L4xx_HAL_Driver/Src/stm32l4xx_hal_smartcard.c ****         break;
 564:Drivers/STM32L4xx_HAL_Driver/Src/stm32l4xx_hal_smartcard.c **** 
 565:Drivers/STM32L4xx_HAL_Driver/Src/stm32l4xx_hal_smartcard.c ****       default :
 566:Drivers/STM32L4xx_HAL_Driver/Src/stm32l4xx_hal_smartcard.c ****         /* Update the error code */
 567:Drivers/STM32L4xx_HAL_Driver/Src/stm32l4xx_hal_smartcard.c ****         hsmartcard->ErrorCode |= HAL_SMARTCARD_ERROR_INVALID_CALLBACK;
 568:Drivers/STM32L4xx_HAL_Driver/Src/stm32l4xx_hal_smartcard.c **** 
 569:Drivers/STM32L4xx_HAL_Driver/Src/stm32l4xx_hal_smartcard.c ****         /* Return error status */
 570:Drivers/STM32L4xx_HAL_Driver/Src/stm32l4xx_hal_smartcard.c ****         status =  HAL_ERROR;
 571:Drivers/STM32L4xx_HAL_Driver/Src/stm32l4xx_hal_smartcard.c ****         break;
 572:Drivers/STM32L4xx_HAL_Driver/Src/stm32l4xx_hal_smartcard.c ****     }
 573:Drivers/STM32L4xx_HAL_Driver/Src/stm32l4xx_hal_smartcard.c ****   }
 574:Drivers/STM32L4xx_HAL_Driver/Src/stm32l4xx_hal_smartcard.c ****   else if (hsmartcard->gState == HAL_SMARTCARD_STATE_RESET)
 575:Drivers/STM32L4xx_HAL_Driver/Src/stm32l4xx_hal_smartcard.c ****   {
 576:Drivers/STM32L4xx_HAL_Driver/Src/stm32l4xx_hal_smartcard.c ****     switch (CallbackID)
 577:Drivers/STM32L4xx_HAL_Driver/Src/stm32l4xx_hal_smartcard.c ****     {
 578:Drivers/STM32L4xx_HAL_Driver/Src/stm32l4xx_hal_smartcard.c ****       case HAL_SMARTCARD_MSPINIT_CB_ID :
 579:Drivers/STM32L4xx_HAL_Driver/Src/stm32l4xx_hal_smartcard.c ****         hsmartcard->MspInitCallback = pCallback;
 580:Drivers/STM32L4xx_HAL_Driver/Src/stm32l4xx_hal_smartcard.c ****         break;
 581:Drivers/STM32L4xx_HAL_Driver/Src/stm32l4xx_hal_smartcard.c **** 
 582:Drivers/STM32L4xx_HAL_Driver/Src/stm32l4xx_hal_smartcard.c ****       case HAL_SMARTCARD_MSPDEINIT_CB_ID :
 583:Drivers/STM32L4xx_HAL_Driver/Src/stm32l4xx_hal_smartcard.c ****         hsmartcard->MspDeInitCallback = pCallback;
 584:Drivers/STM32L4xx_HAL_Driver/Src/stm32l4xx_hal_smartcard.c ****         break;
 585:Drivers/STM32L4xx_HAL_Driver/Src/stm32l4xx_hal_smartcard.c **** 
 586:Drivers/STM32L4xx_HAL_Driver/Src/stm32l4xx_hal_smartcard.c ****       default :
 587:Drivers/STM32L4xx_HAL_Driver/Src/stm32l4xx_hal_smartcard.c ****         /* Update the error code */
ARM GAS  /tmp/ccDAjxq4.s 			page 17


 588:Drivers/STM32L4xx_HAL_Driver/Src/stm32l4xx_hal_smartcard.c ****         hsmartcard->ErrorCode |= HAL_SMARTCARD_ERROR_INVALID_CALLBACK;
 589:Drivers/STM32L4xx_HAL_Driver/Src/stm32l4xx_hal_smartcard.c **** 
 590:Drivers/STM32L4xx_HAL_Driver/Src/stm32l4xx_hal_smartcard.c ****         /* Return error status */
 591:Drivers/STM32L4xx_HAL_Driver/Src/stm32l4xx_hal_smartcard.c ****         status =  HAL_ERROR;
 592:Drivers/STM32L4xx_HAL_Driver/Src/stm32l4xx_hal_smartcard.c ****         break;
 593:Drivers/STM32L4xx_HAL_Driver/Src/stm32l4xx_hal_smartcard.c ****     }
 594:Drivers/STM32L4xx_HAL_Driver/Src/stm32l4xx_hal_smartcard.c ****   }
 595:Drivers/STM32L4xx_HAL_Driver/Src/stm32l4xx_hal_smartcard.c ****   else
 596:Drivers/STM32L4xx_HAL_Driver/Src/stm32l4xx_hal_smartcard.c ****   {
 597:Drivers/STM32L4xx_HAL_Driver/Src/stm32l4xx_hal_smartcard.c ****     /* Update the error code */
 598:Drivers/STM32L4xx_HAL_Driver/Src/stm32l4xx_hal_smartcard.c ****     hsmartcard->ErrorCode |= HAL_SMARTCARD_ERROR_INVALID_CALLBACK;
 599:Drivers/STM32L4xx_HAL_Driver/Src/stm32l4xx_hal_smartcard.c **** 
 600:Drivers/STM32L4xx_HAL_Driver/Src/stm32l4xx_hal_smartcard.c ****     /* Return error status */
 601:Drivers/STM32L4xx_HAL_Driver/Src/stm32l4xx_hal_smartcard.c ****     status =  HAL_ERROR;
 602:Drivers/STM32L4xx_HAL_Driver/Src/stm32l4xx_hal_smartcard.c ****   }
 603:Drivers/STM32L4xx_HAL_Driver/Src/stm32l4xx_hal_smartcard.c **** 
 604:Drivers/STM32L4xx_HAL_Driver/Src/stm32l4xx_hal_smartcard.c ****   return status;
 605:Drivers/STM32L4xx_HAL_Driver/Src/stm32l4xx_hal_smartcard.c **** }
 606:Drivers/STM32L4xx_HAL_Driver/Src/stm32l4xx_hal_smartcard.c **** 
 607:Drivers/STM32L4xx_HAL_Driver/Src/stm32l4xx_hal_smartcard.c **** /**
 608:Drivers/STM32L4xx_HAL_Driver/Src/stm32l4xx_hal_smartcard.c ****   * @brief  Unregister an SMARTCARD callback
 609:Drivers/STM32L4xx_HAL_Driver/Src/stm32l4xx_hal_smartcard.c ****   *         SMARTCARD callback is redirected to the weak predefined callback
 610:Drivers/STM32L4xx_HAL_Driver/Src/stm32l4xx_hal_smartcard.c ****   * @note   The HAL_SMARTCARD_UnRegisterCallback() may be called before HAL_SMARTCARD_Init()
 611:Drivers/STM32L4xx_HAL_Driver/Src/stm32l4xx_hal_smartcard.c ****   *         in HAL_SMARTCARD_STATE_RESET to un-register callbacks for HAL_SMARTCARD_MSPINIT_CB_ID
 612:Drivers/STM32L4xx_HAL_Driver/Src/stm32l4xx_hal_smartcard.c ****   *         and HAL_SMARTCARD_MSPDEINIT_CB_ID
 613:Drivers/STM32L4xx_HAL_Driver/Src/stm32l4xx_hal_smartcard.c ****   * @param  hsmartcard smartcard handle
 614:Drivers/STM32L4xx_HAL_Driver/Src/stm32l4xx_hal_smartcard.c ****   * @param  CallbackID ID of the callback to be unregistered
 615:Drivers/STM32L4xx_HAL_Driver/Src/stm32l4xx_hal_smartcard.c ****   *         This parameter can be one of the following values:
 616:Drivers/STM32L4xx_HAL_Driver/Src/stm32l4xx_hal_smartcard.c ****   *           @arg @ref HAL_SMARTCARD_TX_COMPLETE_CB_ID Tx Complete Callback ID
 617:Drivers/STM32L4xx_HAL_Driver/Src/stm32l4xx_hal_smartcard.c ****   *           @arg @ref HAL_SMARTCARD_RX_COMPLETE_CB_ID Rx Complete Callback ID
 618:Drivers/STM32L4xx_HAL_Driver/Src/stm32l4xx_hal_smartcard.c ****   *           @arg @ref HAL_SMARTCARD_ERROR_CB_ID Error Callback ID
 619:Drivers/STM32L4xx_HAL_Driver/Src/stm32l4xx_hal_smartcard.c ****   *           @arg @ref HAL_SMARTCARD_ABORT_COMPLETE_CB_ID Abort Complete Callback ID
 620:Drivers/STM32L4xx_HAL_Driver/Src/stm32l4xx_hal_smartcard.c ****   *           @arg @ref HAL_SMARTCARD_ABORT_TRANSMIT_COMPLETE_CB_ID Abort Transmit Complete Callbac
 621:Drivers/STM32L4xx_HAL_Driver/Src/stm32l4xx_hal_smartcard.c ****   *           @arg @ref HAL_SMARTCARD_ABORT_RECEIVE_COMPLETE_CB_ID Abort Receive Complete Callback 
 622:Drivers/STM32L4xx_HAL_Driver/Src/stm32l4xx_hal_smartcard.c ****   *           @arg @ref HAL_SMARTCARD_RX_FIFO_FULL_CB_ID Rx Fifo Full Callback ID
 623:Drivers/STM32L4xx_HAL_Driver/Src/stm32l4xx_hal_smartcard.c ****   *           @arg @ref HAL_SMARTCARD_TX_FIFO_EMPTY_CB_ID Tx Fifo Empty Callback ID
 624:Drivers/STM32L4xx_HAL_Driver/Src/stm32l4xx_hal_smartcard.c ****   *           @arg @ref HAL_SMARTCARD_MSPINIT_CB_ID MspInit Callback ID
 625:Drivers/STM32L4xx_HAL_Driver/Src/stm32l4xx_hal_smartcard.c ****   *           @arg @ref HAL_SMARTCARD_MSPDEINIT_CB_ID MspDeInit Callback ID
 626:Drivers/STM32L4xx_HAL_Driver/Src/stm32l4xx_hal_smartcard.c ****   * @retval HAL status
 627:Drivers/STM32L4xx_HAL_Driver/Src/stm32l4xx_hal_smartcard.c ****   */
 628:Drivers/STM32L4xx_HAL_Driver/Src/stm32l4xx_hal_smartcard.c **** HAL_StatusTypeDef HAL_SMARTCARD_UnRegisterCallback(SMARTCARD_HandleTypeDef *hsmartcard,
 629:Drivers/STM32L4xx_HAL_Driver/Src/stm32l4xx_hal_smartcard.c ****                                                    HAL_SMARTCARD_CallbackIDTypeDef CallbackID)
 630:Drivers/STM32L4xx_HAL_Driver/Src/stm32l4xx_hal_smartcard.c **** {
 631:Drivers/STM32L4xx_HAL_Driver/Src/stm32l4xx_hal_smartcard.c ****   HAL_StatusTypeDef status = HAL_OK;
 632:Drivers/STM32L4xx_HAL_Driver/Src/stm32l4xx_hal_smartcard.c **** 
 633:Drivers/STM32L4xx_HAL_Driver/Src/stm32l4xx_hal_smartcard.c ****   if (HAL_SMARTCARD_STATE_READY == hsmartcard->gState)
 634:Drivers/STM32L4xx_HAL_Driver/Src/stm32l4xx_hal_smartcard.c ****   {
 635:Drivers/STM32L4xx_HAL_Driver/Src/stm32l4xx_hal_smartcard.c ****     switch (CallbackID)
 636:Drivers/STM32L4xx_HAL_Driver/Src/stm32l4xx_hal_smartcard.c ****     {
 637:Drivers/STM32L4xx_HAL_Driver/Src/stm32l4xx_hal_smartcard.c ****       case HAL_SMARTCARD_TX_COMPLETE_CB_ID :
 638:Drivers/STM32L4xx_HAL_Driver/Src/stm32l4xx_hal_smartcard.c ****         hsmartcard->TxCpltCallback = HAL_SMARTCARD_TxCpltCallback;                 /* Legacy weak T
 639:Drivers/STM32L4xx_HAL_Driver/Src/stm32l4xx_hal_smartcard.c ****         break;
 640:Drivers/STM32L4xx_HAL_Driver/Src/stm32l4xx_hal_smartcard.c **** 
 641:Drivers/STM32L4xx_HAL_Driver/Src/stm32l4xx_hal_smartcard.c ****       case HAL_SMARTCARD_RX_COMPLETE_CB_ID :
 642:Drivers/STM32L4xx_HAL_Driver/Src/stm32l4xx_hal_smartcard.c ****         hsmartcard->RxCpltCallback = HAL_SMARTCARD_RxCpltCallback;                 /* Legacy weak R
 643:Drivers/STM32L4xx_HAL_Driver/Src/stm32l4xx_hal_smartcard.c ****         break;
 644:Drivers/STM32L4xx_HAL_Driver/Src/stm32l4xx_hal_smartcard.c **** 
ARM GAS  /tmp/ccDAjxq4.s 			page 18


 645:Drivers/STM32L4xx_HAL_Driver/Src/stm32l4xx_hal_smartcard.c ****       case HAL_SMARTCARD_ERROR_CB_ID :
 646:Drivers/STM32L4xx_HAL_Driver/Src/stm32l4xx_hal_smartcard.c ****         hsmartcard->ErrorCallback = HAL_SMARTCARD_ErrorCallback;                   /* Legacy weak E
 647:Drivers/STM32L4xx_HAL_Driver/Src/stm32l4xx_hal_smartcard.c ****         break;
 648:Drivers/STM32L4xx_HAL_Driver/Src/stm32l4xx_hal_smartcard.c **** 
 649:Drivers/STM32L4xx_HAL_Driver/Src/stm32l4xx_hal_smartcard.c ****       case HAL_SMARTCARD_ABORT_COMPLETE_CB_ID :
 650:Drivers/STM32L4xx_HAL_Driver/Src/stm32l4xx_hal_smartcard.c ****         hsmartcard->AbortCpltCallback = HAL_SMARTCARD_AbortCpltCallback;           /* Legacy weak A
 651:Drivers/STM32L4xx_HAL_Driver/Src/stm32l4xx_hal_smartcard.c ****         break;
 652:Drivers/STM32L4xx_HAL_Driver/Src/stm32l4xx_hal_smartcard.c **** 
 653:Drivers/STM32L4xx_HAL_Driver/Src/stm32l4xx_hal_smartcard.c ****       case HAL_SMARTCARD_ABORT_TRANSMIT_COMPLETE_CB_ID :
 654:Drivers/STM32L4xx_HAL_Driver/Src/stm32l4xx_hal_smartcard.c ****         hsmartcard->AbortTransmitCpltCallback = HAL_SMARTCARD_AbortTransmitCpltCallback; /* Legacy 
 655:Drivers/STM32L4xx_HAL_Driver/Src/stm32l4xx_hal_smartcard.c ****                                                                                             AbortTr
 656:Drivers/STM32L4xx_HAL_Driver/Src/stm32l4xx_hal_smartcard.c ****         break;
 657:Drivers/STM32L4xx_HAL_Driver/Src/stm32l4xx_hal_smartcard.c **** 
 658:Drivers/STM32L4xx_HAL_Driver/Src/stm32l4xx_hal_smartcard.c ****       case HAL_SMARTCARD_ABORT_RECEIVE_COMPLETE_CB_ID :
 659:Drivers/STM32L4xx_HAL_Driver/Src/stm32l4xx_hal_smartcard.c ****         hsmartcard->AbortReceiveCpltCallback = HAL_SMARTCARD_AbortReceiveCpltCallback;  /* Legacy w
 660:Drivers/STM32L4xx_HAL_Driver/Src/stm32l4xx_hal_smartcard.c ****                                                                                            AbortRec
 661:Drivers/STM32L4xx_HAL_Driver/Src/stm32l4xx_hal_smartcard.c ****         break;
 662:Drivers/STM32L4xx_HAL_Driver/Src/stm32l4xx_hal_smartcard.c **** 
 663:Drivers/STM32L4xx_HAL_Driver/Src/stm32l4xx_hal_smartcard.c **** #if defined(USART_CR1_FIFOEN)
 664:Drivers/STM32L4xx_HAL_Driver/Src/stm32l4xx_hal_smartcard.c ****       case HAL_SMARTCARD_RX_FIFO_FULL_CB_ID :
 665:Drivers/STM32L4xx_HAL_Driver/Src/stm32l4xx_hal_smartcard.c ****         hsmartcard->RxFifoFullCallback = HAL_SMARTCARDEx_RxFifoFullCallback;      /* Legacy weak Rx
 666:Drivers/STM32L4xx_HAL_Driver/Src/stm32l4xx_hal_smartcard.c ****         break;
 667:Drivers/STM32L4xx_HAL_Driver/Src/stm32l4xx_hal_smartcard.c **** 
 668:Drivers/STM32L4xx_HAL_Driver/Src/stm32l4xx_hal_smartcard.c ****       case HAL_SMARTCARD_TX_FIFO_EMPTY_CB_ID :
 669:Drivers/STM32L4xx_HAL_Driver/Src/stm32l4xx_hal_smartcard.c ****         hsmartcard->TxFifoEmptyCallback = HAL_SMARTCARDEx_TxFifoEmptyCallback;    /* Legacy weak Tx
 670:Drivers/STM32L4xx_HAL_Driver/Src/stm32l4xx_hal_smartcard.c ****         break;
 671:Drivers/STM32L4xx_HAL_Driver/Src/stm32l4xx_hal_smartcard.c **** #endif /* USART_CR1_FIFOEN */
 672:Drivers/STM32L4xx_HAL_Driver/Src/stm32l4xx_hal_smartcard.c **** 
 673:Drivers/STM32L4xx_HAL_Driver/Src/stm32l4xx_hal_smartcard.c ****       case HAL_SMARTCARD_MSPINIT_CB_ID :
 674:Drivers/STM32L4xx_HAL_Driver/Src/stm32l4xx_hal_smartcard.c ****         hsmartcard->MspInitCallback = HAL_SMARTCARD_MspInit;                       /* Legacy weak M
 675:Drivers/STM32L4xx_HAL_Driver/Src/stm32l4xx_hal_smartcard.c ****         break;
 676:Drivers/STM32L4xx_HAL_Driver/Src/stm32l4xx_hal_smartcard.c **** 
 677:Drivers/STM32L4xx_HAL_Driver/Src/stm32l4xx_hal_smartcard.c ****       case HAL_SMARTCARD_MSPDEINIT_CB_ID :
 678:Drivers/STM32L4xx_HAL_Driver/Src/stm32l4xx_hal_smartcard.c ****         hsmartcard->MspDeInitCallback = HAL_SMARTCARD_MspDeInit;                   /* Legacy weak M
 679:Drivers/STM32L4xx_HAL_Driver/Src/stm32l4xx_hal_smartcard.c ****         break;
 680:Drivers/STM32L4xx_HAL_Driver/Src/stm32l4xx_hal_smartcard.c **** 
 681:Drivers/STM32L4xx_HAL_Driver/Src/stm32l4xx_hal_smartcard.c ****       default :
 682:Drivers/STM32L4xx_HAL_Driver/Src/stm32l4xx_hal_smartcard.c ****         /* Update the error code */
 683:Drivers/STM32L4xx_HAL_Driver/Src/stm32l4xx_hal_smartcard.c ****         hsmartcard->ErrorCode |= HAL_SMARTCARD_ERROR_INVALID_CALLBACK;
 684:Drivers/STM32L4xx_HAL_Driver/Src/stm32l4xx_hal_smartcard.c **** 
 685:Drivers/STM32L4xx_HAL_Driver/Src/stm32l4xx_hal_smartcard.c ****         /* Return error status */
 686:Drivers/STM32L4xx_HAL_Driver/Src/stm32l4xx_hal_smartcard.c ****         status =  HAL_ERROR;
 687:Drivers/STM32L4xx_HAL_Driver/Src/stm32l4xx_hal_smartcard.c ****         break;
 688:Drivers/STM32L4xx_HAL_Driver/Src/stm32l4xx_hal_smartcard.c ****     }
 689:Drivers/STM32L4xx_HAL_Driver/Src/stm32l4xx_hal_smartcard.c ****   }
 690:Drivers/STM32L4xx_HAL_Driver/Src/stm32l4xx_hal_smartcard.c ****   else if (HAL_SMARTCARD_STATE_RESET == hsmartcard->gState)
 691:Drivers/STM32L4xx_HAL_Driver/Src/stm32l4xx_hal_smartcard.c ****   {
 692:Drivers/STM32L4xx_HAL_Driver/Src/stm32l4xx_hal_smartcard.c ****     switch (CallbackID)
 693:Drivers/STM32L4xx_HAL_Driver/Src/stm32l4xx_hal_smartcard.c ****     {
 694:Drivers/STM32L4xx_HAL_Driver/Src/stm32l4xx_hal_smartcard.c ****       case HAL_SMARTCARD_MSPINIT_CB_ID :
 695:Drivers/STM32L4xx_HAL_Driver/Src/stm32l4xx_hal_smartcard.c ****         hsmartcard->MspInitCallback = HAL_SMARTCARD_MspInit;
 696:Drivers/STM32L4xx_HAL_Driver/Src/stm32l4xx_hal_smartcard.c ****         break;
 697:Drivers/STM32L4xx_HAL_Driver/Src/stm32l4xx_hal_smartcard.c **** 
 698:Drivers/STM32L4xx_HAL_Driver/Src/stm32l4xx_hal_smartcard.c ****       case HAL_SMARTCARD_MSPDEINIT_CB_ID :
 699:Drivers/STM32L4xx_HAL_Driver/Src/stm32l4xx_hal_smartcard.c ****         hsmartcard->MspDeInitCallback = HAL_SMARTCARD_MspDeInit;
 700:Drivers/STM32L4xx_HAL_Driver/Src/stm32l4xx_hal_smartcard.c ****         break;
 701:Drivers/STM32L4xx_HAL_Driver/Src/stm32l4xx_hal_smartcard.c **** 
ARM GAS  /tmp/ccDAjxq4.s 			page 19


 702:Drivers/STM32L4xx_HAL_Driver/Src/stm32l4xx_hal_smartcard.c ****       default :
 703:Drivers/STM32L4xx_HAL_Driver/Src/stm32l4xx_hal_smartcard.c ****         /* Update the error code */
 704:Drivers/STM32L4xx_HAL_Driver/Src/stm32l4xx_hal_smartcard.c ****         hsmartcard->ErrorCode |= HAL_SMARTCARD_ERROR_INVALID_CALLBACK;
 705:Drivers/STM32L4xx_HAL_Driver/Src/stm32l4xx_hal_smartcard.c **** 
 706:Drivers/STM32L4xx_HAL_Driver/Src/stm32l4xx_hal_smartcard.c ****         /* Return error status */
 707:Drivers/STM32L4xx_HAL_Driver/Src/stm32l4xx_hal_smartcard.c ****         status =  HAL_ERROR;
 708:Drivers/STM32L4xx_HAL_Driver/Src/stm32l4xx_hal_smartcard.c ****         break;
 709:Drivers/STM32L4xx_HAL_Driver/Src/stm32l4xx_hal_smartcard.c ****     }
 710:Drivers/STM32L4xx_HAL_Driver/Src/stm32l4xx_hal_smartcard.c ****   }
 711:Drivers/STM32L4xx_HAL_Driver/Src/stm32l4xx_hal_smartcard.c ****   else
 712:Drivers/STM32L4xx_HAL_Driver/Src/stm32l4xx_hal_smartcard.c ****   {
 713:Drivers/STM32L4xx_HAL_Driver/Src/stm32l4xx_hal_smartcard.c ****     /* Update the error code */
 714:Drivers/STM32L4xx_HAL_Driver/Src/stm32l4xx_hal_smartcard.c ****     hsmartcard->ErrorCode |= HAL_SMARTCARD_ERROR_INVALID_CALLBACK;
 715:Drivers/STM32L4xx_HAL_Driver/Src/stm32l4xx_hal_smartcard.c **** 
 716:Drivers/STM32L4xx_HAL_Driver/Src/stm32l4xx_hal_smartcard.c ****     /* Return error status */
 717:Drivers/STM32L4xx_HAL_Driver/Src/stm32l4xx_hal_smartcard.c ****     status =  HAL_ERROR;
 718:Drivers/STM32L4xx_HAL_Driver/Src/stm32l4xx_hal_smartcard.c ****   }
 719:Drivers/STM32L4xx_HAL_Driver/Src/stm32l4xx_hal_smartcard.c **** 
 720:Drivers/STM32L4xx_HAL_Driver/Src/stm32l4xx_hal_smartcard.c ****   return status;
 721:Drivers/STM32L4xx_HAL_Driver/Src/stm32l4xx_hal_smartcard.c **** }
 722:Drivers/STM32L4xx_HAL_Driver/Src/stm32l4xx_hal_smartcard.c **** #endif /* USE_HAL_SMARTCARD_REGISTER_CALLBACKS */
 723:Drivers/STM32L4xx_HAL_Driver/Src/stm32l4xx_hal_smartcard.c **** 
 724:Drivers/STM32L4xx_HAL_Driver/Src/stm32l4xx_hal_smartcard.c **** /**
 725:Drivers/STM32L4xx_HAL_Driver/Src/stm32l4xx_hal_smartcard.c ****   * @}
 726:Drivers/STM32L4xx_HAL_Driver/Src/stm32l4xx_hal_smartcard.c ****   */
 727:Drivers/STM32L4xx_HAL_Driver/Src/stm32l4xx_hal_smartcard.c **** 
 728:Drivers/STM32L4xx_HAL_Driver/Src/stm32l4xx_hal_smartcard.c **** /** @defgroup SMARTCARD_Exported_Functions_Group2 IO operation functions
 729:Drivers/STM32L4xx_HAL_Driver/Src/stm32l4xx_hal_smartcard.c ****   * @brief    SMARTCARD Transmit and Receive functions
 730:Drivers/STM32L4xx_HAL_Driver/Src/stm32l4xx_hal_smartcard.c ****   *
 731:Drivers/STM32L4xx_HAL_Driver/Src/stm32l4xx_hal_smartcard.c **** @verbatim
 732:Drivers/STM32L4xx_HAL_Driver/Src/stm32l4xx_hal_smartcard.c ****   ==============================================================================
 733:Drivers/STM32L4xx_HAL_Driver/Src/stm32l4xx_hal_smartcard.c ****                          ##### IO operation functions #####
 734:Drivers/STM32L4xx_HAL_Driver/Src/stm32l4xx_hal_smartcard.c ****   ==============================================================================
 735:Drivers/STM32L4xx_HAL_Driver/Src/stm32l4xx_hal_smartcard.c ****   [..]
 736:Drivers/STM32L4xx_HAL_Driver/Src/stm32l4xx_hal_smartcard.c ****     This subsection provides a set of functions allowing to manage the SMARTCARD data transfers.
 737:Drivers/STM32L4xx_HAL_Driver/Src/stm32l4xx_hal_smartcard.c **** 
 738:Drivers/STM32L4xx_HAL_Driver/Src/stm32l4xx_hal_smartcard.c ****   [..]
 739:Drivers/STM32L4xx_HAL_Driver/Src/stm32l4xx_hal_smartcard.c ****     Smartcard is a single wire half duplex communication protocol.
 740:Drivers/STM32L4xx_HAL_Driver/Src/stm32l4xx_hal_smartcard.c ****     The Smartcard interface is designed to support asynchronous protocol Smartcards as
 741:Drivers/STM32L4xx_HAL_Driver/Src/stm32l4xx_hal_smartcard.c ****     defined in the ISO 7816-3 standard. The USART should be configured as:
 742:Drivers/STM32L4xx_HAL_Driver/Src/stm32l4xx_hal_smartcard.c ****     (+) 8 bits plus parity: where M=1 and PCE=1 in the USART_CR1 register
 743:Drivers/STM32L4xx_HAL_Driver/Src/stm32l4xx_hal_smartcard.c ****     (+) 1.5 stop bits when transmitting and receiving: where STOP=11 in the USART_CR2 register.
 744:Drivers/STM32L4xx_HAL_Driver/Src/stm32l4xx_hal_smartcard.c **** 
 745:Drivers/STM32L4xx_HAL_Driver/Src/stm32l4xx_hal_smartcard.c ****   [..]
 746:Drivers/STM32L4xx_HAL_Driver/Src/stm32l4xx_hal_smartcard.c ****     (#) There are two modes of transfer:
 747:Drivers/STM32L4xx_HAL_Driver/Src/stm32l4xx_hal_smartcard.c ****         (##) Blocking mode: The communication is performed in polling mode.
 748:Drivers/STM32L4xx_HAL_Driver/Src/stm32l4xx_hal_smartcard.c ****              The HAL status of all data processing is returned by the same function
 749:Drivers/STM32L4xx_HAL_Driver/Src/stm32l4xx_hal_smartcard.c ****              after finishing transfer.
 750:Drivers/STM32L4xx_HAL_Driver/Src/stm32l4xx_hal_smartcard.c ****         (##) Non-Blocking mode: The communication is performed using Interrupts
 751:Drivers/STM32L4xx_HAL_Driver/Src/stm32l4xx_hal_smartcard.c ****              or DMA, the relevant API's return the HAL status.
 752:Drivers/STM32L4xx_HAL_Driver/Src/stm32l4xx_hal_smartcard.c ****              The end of the data processing will be indicated through the
 753:Drivers/STM32L4xx_HAL_Driver/Src/stm32l4xx_hal_smartcard.c ****              dedicated SMARTCARD IRQ when using Interrupt mode or the DMA IRQ when
 754:Drivers/STM32L4xx_HAL_Driver/Src/stm32l4xx_hal_smartcard.c ****              using DMA mode.
 755:Drivers/STM32L4xx_HAL_Driver/Src/stm32l4xx_hal_smartcard.c ****         (##) The HAL_SMARTCARD_TxCpltCallback(), HAL_SMARTCARD_RxCpltCallback() user callbacks
 756:Drivers/STM32L4xx_HAL_Driver/Src/stm32l4xx_hal_smartcard.c ****              will be executed respectively at the end of the Transmit or Receive process
 757:Drivers/STM32L4xx_HAL_Driver/Src/stm32l4xx_hal_smartcard.c ****              The HAL_SMARTCARD_ErrorCallback() user callback will be executed when a communication
 758:Drivers/STM32L4xx_HAL_Driver/Src/stm32l4xx_hal_smartcard.c ****              error is detected.
ARM GAS  /tmp/ccDAjxq4.s 			page 20


 759:Drivers/STM32L4xx_HAL_Driver/Src/stm32l4xx_hal_smartcard.c **** 
 760:Drivers/STM32L4xx_HAL_Driver/Src/stm32l4xx_hal_smartcard.c ****     (#) Blocking mode APIs are :
 761:Drivers/STM32L4xx_HAL_Driver/Src/stm32l4xx_hal_smartcard.c ****         (##) HAL_SMARTCARD_Transmit()
 762:Drivers/STM32L4xx_HAL_Driver/Src/stm32l4xx_hal_smartcard.c ****         (##) HAL_SMARTCARD_Receive()
 763:Drivers/STM32L4xx_HAL_Driver/Src/stm32l4xx_hal_smartcard.c **** 
 764:Drivers/STM32L4xx_HAL_Driver/Src/stm32l4xx_hal_smartcard.c ****     (#) Non Blocking mode APIs with Interrupt are :
 765:Drivers/STM32L4xx_HAL_Driver/Src/stm32l4xx_hal_smartcard.c ****         (##) HAL_SMARTCARD_Transmit_IT()
 766:Drivers/STM32L4xx_HAL_Driver/Src/stm32l4xx_hal_smartcard.c ****         (##) HAL_SMARTCARD_Receive_IT()
 767:Drivers/STM32L4xx_HAL_Driver/Src/stm32l4xx_hal_smartcard.c ****         (##) HAL_SMARTCARD_IRQHandler()
 768:Drivers/STM32L4xx_HAL_Driver/Src/stm32l4xx_hal_smartcard.c **** 
 769:Drivers/STM32L4xx_HAL_Driver/Src/stm32l4xx_hal_smartcard.c ****     (#) Non Blocking mode functions with DMA are :
 770:Drivers/STM32L4xx_HAL_Driver/Src/stm32l4xx_hal_smartcard.c ****         (##) HAL_SMARTCARD_Transmit_DMA()
 771:Drivers/STM32L4xx_HAL_Driver/Src/stm32l4xx_hal_smartcard.c ****         (##) HAL_SMARTCARD_Receive_DMA()
 772:Drivers/STM32L4xx_HAL_Driver/Src/stm32l4xx_hal_smartcard.c **** 
 773:Drivers/STM32L4xx_HAL_Driver/Src/stm32l4xx_hal_smartcard.c ****     (#) A set of Transfer Complete Callbacks are provided in non Blocking mode:
 774:Drivers/STM32L4xx_HAL_Driver/Src/stm32l4xx_hal_smartcard.c ****         (##) HAL_SMARTCARD_TxCpltCallback()
 775:Drivers/STM32L4xx_HAL_Driver/Src/stm32l4xx_hal_smartcard.c ****         (##) HAL_SMARTCARD_RxCpltCallback()
 776:Drivers/STM32L4xx_HAL_Driver/Src/stm32l4xx_hal_smartcard.c ****         (##) HAL_SMARTCARD_ErrorCallback()
 777:Drivers/STM32L4xx_HAL_Driver/Src/stm32l4xx_hal_smartcard.c **** 
 778:Drivers/STM32L4xx_HAL_Driver/Src/stm32l4xx_hal_smartcard.c ****   [..]
 779:Drivers/STM32L4xx_HAL_Driver/Src/stm32l4xx_hal_smartcard.c ****     (#) Non-Blocking mode transfers could be aborted using Abort API's :
 780:Drivers/STM32L4xx_HAL_Driver/Src/stm32l4xx_hal_smartcard.c ****         (##) HAL_SMARTCARD_Abort()
 781:Drivers/STM32L4xx_HAL_Driver/Src/stm32l4xx_hal_smartcard.c ****         (##) HAL_SMARTCARD_AbortTransmit()
 782:Drivers/STM32L4xx_HAL_Driver/Src/stm32l4xx_hal_smartcard.c ****         (##) HAL_SMARTCARD_AbortReceive()
 783:Drivers/STM32L4xx_HAL_Driver/Src/stm32l4xx_hal_smartcard.c ****         (##) HAL_SMARTCARD_Abort_IT()
 784:Drivers/STM32L4xx_HAL_Driver/Src/stm32l4xx_hal_smartcard.c ****         (##) HAL_SMARTCARD_AbortTransmit_IT()
 785:Drivers/STM32L4xx_HAL_Driver/Src/stm32l4xx_hal_smartcard.c ****         (##) HAL_SMARTCARD_AbortReceive_IT()
 786:Drivers/STM32L4xx_HAL_Driver/Src/stm32l4xx_hal_smartcard.c **** 
 787:Drivers/STM32L4xx_HAL_Driver/Src/stm32l4xx_hal_smartcard.c ****     (#) For Abort services based on interrupts (HAL_SMARTCARD_Abortxxx_IT),
 788:Drivers/STM32L4xx_HAL_Driver/Src/stm32l4xx_hal_smartcard.c ****         a set of Abort Complete Callbacks are provided:
 789:Drivers/STM32L4xx_HAL_Driver/Src/stm32l4xx_hal_smartcard.c ****         (##) HAL_SMARTCARD_AbortCpltCallback()
 790:Drivers/STM32L4xx_HAL_Driver/Src/stm32l4xx_hal_smartcard.c ****         (##) HAL_SMARTCARD_AbortTransmitCpltCallback()
 791:Drivers/STM32L4xx_HAL_Driver/Src/stm32l4xx_hal_smartcard.c ****         (##) HAL_SMARTCARD_AbortReceiveCpltCallback()
 792:Drivers/STM32L4xx_HAL_Driver/Src/stm32l4xx_hal_smartcard.c **** 
 793:Drivers/STM32L4xx_HAL_Driver/Src/stm32l4xx_hal_smartcard.c ****     (#) In Non-Blocking mode transfers, possible errors are split into 2 categories.
 794:Drivers/STM32L4xx_HAL_Driver/Src/stm32l4xx_hal_smartcard.c ****         Errors are handled as follows :
 795:Drivers/STM32L4xx_HAL_Driver/Src/stm32l4xx_hal_smartcard.c ****        (##) Error is considered as Recoverable and non blocking : Transfer could go till end, but e
 796:Drivers/STM32L4xx_HAL_Driver/Src/stm32l4xx_hal_smartcard.c ****            to be evaluated by user : this concerns Frame Error,
 797:Drivers/STM32L4xx_HAL_Driver/Src/stm32l4xx_hal_smartcard.c ****            Parity Error or Noise Error in Interrupt mode reception .
 798:Drivers/STM32L4xx_HAL_Driver/Src/stm32l4xx_hal_smartcard.c ****            Received character is then retrieved and stored in Rx buffer,
 799:Drivers/STM32L4xx_HAL_Driver/Src/stm32l4xx_hal_smartcard.c ****            Error code is set to allow user to identify error type,
 800:Drivers/STM32L4xx_HAL_Driver/Src/stm32l4xx_hal_smartcard.c ****            and HAL_SMARTCARD_ErrorCallback() user callback is executed. Transfer is kept ongoing on
 801:Drivers/STM32L4xx_HAL_Driver/Src/stm32l4xx_hal_smartcard.c ****            If user wants to abort it, Abort services should be called by user.
 802:Drivers/STM32L4xx_HAL_Driver/Src/stm32l4xx_hal_smartcard.c ****        (##) Error is considered as Blocking : Transfer could not be completed properly and is abort
 803:Drivers/STM32L4xx_HAL_Driver/Src/stm32l4xx_hal_smartcard.c ****            This concerns Frame Error in Interrupt mode transmission, Overrun Error in Interrupt
 804:Drivers/STM32L4xx_HAL_Driver/Src/stm32l4xx_hal_smartcard.c ****            mode reception and all errors in DMA mode.
 805:Drivers/STM32L4xx_HAL_Driver/Src/stm32l4xx_hal_smartcard.c ****            Error code is set to allow user to identify error type,
 806:Drivers/STM32L4xx_HAL_Driver/Src/stm32l4xx_hal_smartcard.c ****            and HAL_SMARTCARD_ErrorCallback() user callback is executed.
 807:Drivers/STM32L4xx_HAL_Driver/Src/stm32l4xx_hal_smartcard.c **** 
 808:Drivers/STM32L4xx_HAL_Driver/Src/stm32l4xx_hal_smartcard.c **** @endverbatim
 809:Drivers/STM32L4xx_HAL_Driver/Src/stm32l4xx_hal_smartcard.c ****   * @{
 810:Drivers/STM32L4xx_HAL_Driver/Src/stm32l4xx_hal_smartcard.c ****   */
 811:Drivers/STM32L4xx_HAL_Driver/Src/stm32l4xx_hal_smartcard.c **** 
 812:Drivers/STM32L4xx_HAL_Driver/Src/stm32l4xx_hal_smartcard.c **** /**
 813:Drivers/STM32L4xx_HAL_Driver/Src/stm32l4xx_hal_smartcard.c ****   * @brief  Send an amount of data in blocking mode.
 814:Drivers/STM32L4xx_HAL_Driver/Src/stm32l4xx_hal_smartcard.c ****   * @note   When FIFO mode is enabled, writing a data in the TDR register adds one
 815:Drivers/STM32L4xx_HAL_Driver/Src/stm32l4xx_hal_smartcard.c ****   *         data to the TXFIFO. Write operations to the TDR register are performed
ARM GAS  /tmp/ccDAjxq4.s 			page 21


 816:Drivers/STM32L4xx_HAL_Driver/Src/stm32l4xx_hal_smartcard.c ****   *         when TXFNF flag is set. From hardware perspective, TXFNF flag and
 817:Drivers/STM32L4xx_HAL_Driver/Src/stm32l4xx_hal_smartcard.c ****   *         TXE are mapped on the same bit-field.
 818:Drivers/STM32L4xx_HAL_Driver/Src/stm32l4xx_hal_smartcard.c ****   * @param  hsmartcard Pointer to a SMARTCARD_HandleTypeDef structure that contains
 819:Drivers/STM32L4xx_HAL_Driver/Src/stm32l4xx_hal_smartcard.c ****   *                    the configuration information for the specified SMARTCARD module.
 820:Drivers/STM32L4xx_HAL_Driver/Src/stm32l4xx_hal_smartcard.c ****   * @param  pData pointer to data buffer.
 821:Drivers/STM32L4xx_HAL_Driver/Src/stm32l4xx_hal_smartcard.c ****   * @param  Size amount of data to be sent.
 822:Drivers/STM32L4xx_HAL_Driver/Src/stm32l4xx_hal_smartcard.c ****   * @param  Timeout  Timeout duration.
 823:Drivers/STM32L4xx_HAL_Driver/Src/stm32l4xx_hal_smartcard.c ****   * @retval HAL status
 824:Drivers/STM32L4xx_HAL_Driver/Src/stm32l4xx_hal_smartcard.c ****   */
 825:Drivers/STM32L4xx_HAL_Driver/Src/stm32l4xx_hal_smartcard.c **** HAL_StatusTypeDef HAL_SMARTCARD_Transmit(SMARTCARD_HandleTypeDef *hsmartcard, const uint8_t *pData,
 826:Drivers/STM32L4xx_HAL_Driver/Src/stm32l4xx_hal_smartcard.c ****                                          uint32_t Timeout)
 827:Drivers/STM32L4xx_HAL_Driver/Src/stm32l4xx_hal_smartcard.c **** {
 336              		.loc 1 827 1
 337              		.cfi_startproc
 338              		@ args = 0, pretend = 0, frame = 24
 339              		@ frame_needed = 1, uses_anonymous_args = 0
 340 0000 80B5     		push	{r7, lr}
 341              		.cfi_def_cfa_offset 8
 342              		.cfi_offset 7, -8
 343              		.cfi_offset 14, -4
 344 0002 88B0     		sub	sp, sp, #32
 345              		.cfi_def_cfa_offset 40
 346 0004 02AF     		add	r7, sp, #8
 347              		.cfi_def_cfa 7, 32
 348 0006 F860     		str	r0, [r7, #12]
 349 0008 B960     		str	r1, [r7, #8]
 350 000a 3B60     		str	r3, [r7]
 351 000c 1346     		mov	r3, r2	@ movhi
 352 000e FB80     		strh	r3, [r7, #6]	@ movhi
 828:Drivers/STM32L4xx_HAL_Driver/Src/stm32l4xx_hal_smartcard.c ****   uint32_t tickstart;
 829:Drivers/STM32L4xx_HAL_Driver/Src/stm32l4xx_hal_smartcard.c ****   const uint8_t  *ptmpdata = pData;
 353              		.loc 1 829 19
 354 0010 BB68     		ldr	r3, [r7, #8]
 355 0012 7B61     		str	r3, [r7, #20]
 830:Drivers/STM32L4xx_HAL_Driver/Src/stm32l4xx_hal_smartcard.c **** 
 831:Drivers/STM32L4xx_HAL_Driver/Src/stm32l4xx_hal_smartcard.c ****   /* Check that a Tx process is not already ongoing */
 832:Drivers/STM32L4xx_HAL_Driver/Src/stm32l4xx_hal_smartcard.c ****   if (hsmartcard->gState == HAL_SMARTCARD_STATE_READY)
 356              		.loc 1 832 17
 357 0014 FB68     		ldr	r3, [r7, #12]
 358 0016 5B6F     		ldr	r3, [r3, #116]
 359              		.loc 1 832 6
 360 0018 202B     		cmp	r3, #32
 361 001a 40F0CF80 		bne	.L13
 833:Drivers/STM32L4xx_HAL_Driver/Src/stm32l4xx_hal_smartcard.c ****   {
 834:Drivers/STM32L4xx_HAL_Driver/Src/stm32l4xx_hal_smartcard.c ****     if ((ptmpdata == NULL) || (Size == 0U))
 362              		.loc 1 834 8
 363 001e 7B69     		ldr	r3, [r7, #20]
 364 0020 002B     		cmp	r3, #0
 365 0022 02D0     		beq	.L14
 366              		.loc 1 834 28 discriminator 1
 367 0024 FB88     		ldrh	r3, [r7, #6]
 368 0026 002B     		cmp	r3, #0
 369 0028 01D1     		bne	.L15
 370              	.L14:
 835:Drivers/STM32L4xx_HAL_Driver/Src/stm32l4xx_hal_smartcard.c ****     {
 836:Drivers/STM32L4xx_HAL_Driver/Src/stm32l4xx_hal_smartcard.c ****       return  HAL_ERROR;
 371              		.loc 1 836 15
ARM GAS  /tmp/ccDAjxq4.s 			page 22


 372 002a 0123     		movs	r3, #1
 373 002c C7E0     		b	.L16
 374              	.L15:
 837:Drivers/STM32L4xx_HAL_Driver/Src/stm32l4xx_hal_smartcard.c ****     }
 838:Drivers/STM32L4xx_HAL_Driver/Src/stm32l4xx_hal_smartcard.c **** 
 839:Drivers/STM32L4xx_HAL_Driver/Src/stm32l4xx_hal_smartcard.c ****     /* Process Locked */
 840:Drivers/STM32L4xx_HAL_Driver/Src/stm32l4xx_hal_smartcard.c ****     __HAL_LOCK(hsmartcard);
 375              		.loc 1 840 5
 376 002e FB68     		ldr	r3, [r7, #12]
 377 0030 93F87030 		ldrb	r3, [r3, #112]	@ zero_extendqisi2
 378 0034 012B     		cmp	r3, #1
 379 0036 01D1     		bne	.L17
 380              		.loc 1 840 5 is_stmt 0 discriminator 1
 381 0038 0223     		movs	r3, #2
 382              		.loc 1 840 5
 383 003a C0E0     		b	.L16
 384              	.L17:
 385              		.loc 1 840 5 discriminator 2
 386 003c FB68     		ldr	r3, [r7, #12]
 387 003e 0122     		movs	r2, #1
 388 0040 83F87020 		strb	r2, [r3, #112]
 841:Drivers/STM32L4xx_HAL_Driver/Src/stm32l4xx_hal_smartcard.c **** 
 842:Drivers/STM32L4xx_HAL_Driver/Src/stm32l4xx_hal_smartcard.c ****     hsmartcard->gState = HAL_SMARTCARD_STATE_BUSY_TX;
 389              		.loc 1 842 24 is_stmt 1
 390 0044 FB68     		ldr	r3, [r7, #12]
 391 0046 2122     		movs	r2, #33
 392 0048 5A67     		str	r2, [r3, #116]
 843:Drivers/STM32L4xx_HAL_Driver/Src/stm32l4xx_hal_smartcard.c **** 
 844:Drivers/STM32L4xx_HAL_Driver/Src/stm32l4xx_hal_smartcard.c ****     /* Init tickstart for timeout management */
 845:Drivers/STM32L4xx_HAL_Driver/Src/stm32l4xx_hal_smartcard.c ****     tickstart = HAL_GetTick();
 393              		.loc 1 845 17
 394 004a FFF7FEFF 		bl	HAL_GetTick
 395 004e 3861     		str	r0, [r7, #16]
 846:Drivers/STM32L4xx_HAL_Driver/Src/stm32l4xx_hal_smartcard.c **** 
 847:Drivers/STM32L4xx_HAL_Driver/Src/stm32l4xx_hal_smartcard.c ****     /* Disable the Peripheral first to update mode for TX master */
 848:Drivers/STM32L4xx_HAL_Driver/Src/stm32l4xx_hal_smartcard.c ****     CLEAR_BIT(hsmartcard->Instance->CR1, USART_CR1_UE);
 396              		.loc 1 848 5
 397 0050 FB68     		ldr	r3, [r7, #12]
 398 0052 1B68     		ldr	r3, [r3]
 399 0054 1A68     		ldr	r2, [r3]
 400 0056 FB68     		ldr	r3, [r7, #12]
 401 0058 1B68     		ldr	r3, [r3]
 402 005a 22F00102 		bic	r2, r2, #1
 403 005e 1A60     		str	r2, [r3]
 849:Drivers/STM32L4xx_HAL_Driver/Src/stm32l4xx_hal_smartcard.c **** 
 850:Drivers/STM32L4xx_HAL_Driver/Src/stm32l4xx_hal_smartcard.c ****     /* In case of TX only mode, if NACK is enabled, the USART must be able to monitor
 851:Drivers/STM32L4xx_HAL_Driver/Src/stm32l4xx_hal_smartcard.c ****        the bidirectional line to detect a NACK signal in case of parity error.
 852:Drivers/STM32L4xx_HAL_Driver/Src/stm32l4xx_hal_smartcard.c ****        Therefore, the receiver block must be enabled as well (RE bit must be set). */
 853:Drivers/STM32L4xx_HAL_Driver/Src/stm32l4xx_hal_smartcard.c ****     if ((hsmartcard->Init.Mode == SMARTCARD_MODE_TX)
 404              		.loc 1 853 26
 405 0060 FB68     		ldr	r3, [r7, #12]
 406 0062 5B8A     		ldrh	r3, [r3, #18]
 407              		.loc 1 853 8
 408 0064 082B     		cmp	r3, #8
 409 0066 0BD1     		bne	.L18
 854:Drivers/STM32L4xx_HAL_Driver/Src/stm32l4xx_hal_smartcard.c ****         && (hsmartcard->Init.NACKEnable == SMARTCARD_NACK_ENABLE))
 410              		.loc 1 854 29
ARM GAS  /tmp/ccDAjxq4.s 			page 23


 411 0068 FB68     		ldr	r3, [r7, #12]
 412 006a DB8B     		ldrh	r3, [r3, #30]
 413              		.loc 1 854 9
 414 006c 102B     		cmp	r3, #16
 415 006e 07D1     		bne	.L18
 855:Drivers/STM32L4xx_HAL_Driver/Src/stm32l4xx_hal_smartcard.c ****     {
 856:Drivers/STM32L4xx_HAL_Driver/Src/stm32l4xx_hal_smartcard.c ****       SET_BIT(hsmartcard->Instance->CR1, USART_CR1_RE);
 416              		.loc 1 856 7
 417 0070 FB68     		ldr	r3, [r7, #12]
 418 0072 1B68     		ldr	r3, [r3]
 419 0074 1A68     		ldr	r2, [r3]
 420 0076 FB68     		ldr	r3, [r7, #12]
 421 0078 1B68     		ldr	r3, [r3]
 422 007a 42F00402 		orr	r2, r2, #4
 423 007e 1A60     		str	r2, [r3]
 424              	.L18:
 857:Drivers/STM32L4xx_HAL_Driver/Src/stm32l4xx_hal_smartcard.c ****     }
 858:Drivers/STM32L4xx_HAL_Driver/Src/stm32l4xx_hal_smartcard.c ****     /* Enable Tx */
 859:Drivers/STM32L4xx_HAL_Driver/Src/stm32l4xx_hal_smartcard.c ****     SET_BIT(hsmartcard->Instance->CR1, USART_CR1_TE);
 425              		.loc 1 859 5
 426 0080 FB68     		ldr	r3, [r7, #12]
 427 0082 1B68     		ldr	r3, [r3]
 428 0084 1A68     		ldr	r2, [r3]
 429 0086 FB68     		ldr	r3, [r7, #12]
 430 0088 1B68     		ldr	r3, [r3]
 431 008a 42F00802 		orr	r2, r2, #8
 432 008e 1A60     		str	r2, [r3]
 860:Drivers/STM32L4xx_HAL_Driver/Src/stm32l4xx_hal_smartcard.c **** 
 861:Drivers/STM32L4xx_HAL_Driver/Src/stm32l4xx_hal_smartcard.c ****     /* Enable the Peripheral */
 862:Drivers/STM32L4xx_HAL_Driver/Src/stm32l4xx_hal_smartcard.c ****     SET_BIT(hsmartcard->Instance->CR1, USART_CR1_UE);
 433              		.loc 1 862 5
 434 0090 FB68     		ldr	r3, [r7, #12]
 435 0092 1B68     		ldr	r3, [r3]
 436 0094 1A68     		ldr	r2, [r3]
 437 0096 FB68     		ldr	r3, [r7, #12]
 438 0098 1B68     		ldr	r3, [r3]
 439 009a 42F00102 		orr	r2, r2, #1
 440 009e 1A60     		str	r2, [r3]
 863:Drivers/STM32L4xx_HAL_Driver/Src/stm32l4xx_hal_smartcard.c **** 
 864:Drivers/STM32L4xx_HAL_Driver/Src/stm32l4xx_hal_smartcard.c ****     /* Perform a TX/RX FIFO Flush */
 865:Drivers/STM32L4xx_HAL_Driver/Src/stm32l4xx_hal_smartcard.c ****     __HAL_SMARTCARD_FLUSH_DRREGISTER(hsmartcard);
 441              		.loc 1 865 5
 442 00a0 FB68     		ldr	r3, [r7, #12]
 443 00a2 1B68     		ldr	r3, [r3]
 444 00a4 9A69     		ldr	r2, [r3, #24]
 445 00a6 FB68     		ldr	r3, [r7, #12]
 446 00a8 1B68     		ldr	r3, [r3]
 447 00aa 42F00802 		orr	r2, r2, #8
 448 00ae 9A61     		str	r2, [r3, #24]
 449 00b0 FB68     		ldr	r3, [r7, #12]
 450 00b2 1B68     		ldr	r3, [r3]
 451 00b4 9A69     		ldr	r2, [r3, #24]
 452 00b6 FB68     		ldr	r3, [r7, #12]
 453 00b8 1B68     		ldr	r3, [r3]
 454 00ba 42F01002 		orr	r2, r2, #16
 455 00be 9A61     		str	r2, [r3, #24]
 866:Drivers/STM32L4xx_HAL_Driver/Src/stm32l4xx_hal_smartcard.c **** 
ARM GAS  /tmp/ccDAjxq4.s 			page 24


 867:Drivers/STM32L4xx_HAL_Driver/Src/stm32l4xx_hal_smartcard.c ****     hsmartcard->ErrorCode = HAL_SMARTCARD_ERROR_NONE;
 456              		.loc 1 867 27
 457 00c0 FB68     		ldr	r3, [r7, #12]
 458 00c2 0022     		movs	r2, #0
 459 00c4 DA67     		str	r2, [r3, #124]
 868:Drivers/STM32L4xx_HAL_Driver/Src/stm32l4xx_hal_smartcard.c ****     hsmartcard->TxXferSize = Size;
 460              		.loc 1 868 28
 461 00c6 FB68     		ldr	r3, [r7, #12]
 462 00c8 FA88     		ldrh	r2, [r7, #6]	@ movhi
 463 00ca A3F85420 		strh	r2, [r3, #84]	@ movhi
 869:Drivers/STM32L4xx_HAL_Driver/Src/stm32l4xx_hal_smartcard.c ****     hsmartcard->TxXferCount = Size;
 464              		.loc 1 869 29
 465 00ce FB68     		ldr	r3, [r7, #12]
 466 00d0 FA88     		ldrh	r2, [r7, #6]	@ movhi
 467 00d2 A3F85620 		strh	r2, [r3, #86]	@ movhi
 870:Drivers/STM32L4xx_HAL_Driver/Src/stm32l4xx_hal_smartcard.c **** 
 871:Drivers/STM32L4xx_HAL_Driver/Src/stm32l4xx_hal_smartcard.c ****     while (hsmartcard->TxXferCount > 0U)
 468              		.loc 1 871 11
 469 00d6 1DE0     		b	.L19
 470              	.L21:
 872:Drivers/STM32L4xx_HAL_Driver/Src/stm32l4xx_hal_smartcard.c ****     {
 873:Drivers/STM32L4xx_HAL_Driver/Src/stm32l4xx_hal_smartcard.c ****       hsmartcard->TxXferCount--;
 471              		.loc 1 873 17
 472 00d8 FB68     		ldr	r3, [r7, #12]
 473 00da B3F85630 		ldrh	r3, [r3, #86]	@ movhi
 474 00de 9BB2     		uxth	r3, r3
 475              		.loc 1 873 30
 476 00e0 013B     		subs	r3, r3, #1
 477 00e2 9AB2     		uxth	r2, r3
 478 00e4 FB68     		ldr	r3, [r7, #12]
 479 00e6 A3F85620 		strh	r2, [r3, #86]	@ movhi
 874:Drivers/STM32L4xx_HAL_Driver/Src/stm32l4xx_hal_smartcard.c ****       if (SMARTCARD_WaitOnFlagUntilTimeout(hsmartcard, SMARTCARD_FLAG_TXE, RESET, tickstart, Timeou
 480              		.loc 1 874 11
 481 00ea 3B68     		ldr	r3, [r7]
 482 00ec 0093     		str	r3, [sp]
 483 00ee 3B69     		ldr	r3, [r7, #16]
 484 00f0 0022     		movs	r2, #0
 485 00f2 8021     		movs	r1, #128
 486 00f4 F868     		ldr	r0, [r7, #12]
 487 00f6 FFF7FEFF 		bl	SMARTCARD_WaitOnFlagUntilTimeout
 488 00fa 0346     		mov	r3, r0
 489              		.loc 1 874 10 discriminator 1
 490 00fc 002B     		cmp	r3, #0
 491 00fe 01D0     		beq	.L20
 875:Drivers/STM32L4xx_HAL_Driver/Src/stm32l4xx_hal_smartcard.c ****       {
 876:Drivers/STM32L4xx_HAL_Driver/Src/stm32l4xx_hal_smartcard.c ****         return HAL_TIMEOUT;
 492              		.loc 1 876 16
 493 0100 0323     		movs	r3, #3
 494 0102 5CE0     		b	.L16
 495              	.L20:
 877:Drivers/STM32L4xx_HAL_Driver/Src/stm32l4xx_hal_smartcard.c ****       }
 878:Drivers/STM32L4xx_HAL_Driver/Src/stm32l4xx_hal_smartcard.c ****       hsmartcard->Instance->TDR = (uint8_t)(*ptmpdata & 0xFFU);
 496              		.loc 1 878 45
 497 0104 7B69     		ldr	r3, [r7, #20]
 498 0106 1A78     		ldrb	r2, [r3]	@ zero_extendqisi2
 499              		.loc 1 878 17
 500 0108 FB68     		ldr	r3, [r7, #12]
ARM GAS  /tmp/ccDAjxq4.s 			page 25


 501 010a 1B68     		ldr	r3, [r3]
 502              		.loc 1 878 33
 503 010c 9A62     		str	r2, [r3, #40]
 879:Drivers/STM32L4xx_HAL_Driver/Src/stm32l4xx_hal_smartcard.c ****       ptmpdata++;
 504              		.loc 1 879 15
 505 010e 7B69     		ldr	r3, [r7, #20]
 506 0110 0133     		adds	r3, r3, #1
 507 0112 7B61     		str	r3, [r7, #20]
 508              	.L19:
 871:Drivers/STM32L4xx_HAL_Driver/Src/stm32l4xx_hal_smartcard.c ****     {
 509              		.loc 1 871 22
 510 0114 FB68     		ldr	r3, [r7, #12]
 511 0116 B3F85630 		ldrh	r3, [r3, #86]	@ movhi
 512 011a 9BB2     		uxth	r3, r3
 871:Drivers/STM32L4xx_HAL_Driver/Src/stm32l4xx_hal_smartcard.c ****     {
 513              		.loc 1 871 36
 514 011c 002B     		cmp	r3, #0
 515 011e DBD1     		bne	.L21
 880:Drivers/STM32L4xx_HAL_Driver/Src/stm32l4xx_hal_smartcard.c ****     }
 881:Drivers/STM32L4xx_HAL_Driver/Src/stm32l4xx_hal_smartcard.c ****     if (SMARTCARD_WaitOnFlagUntilTimeout(hsmartcard, SMARTCARD_TRANSMISSION_COMPLETION_FLAG(hsmartc
 516              		.loc 1 881 9
 517 0120 3B68     		ldr	r3, [r7]
 518 0122 0093     		str	r3, [sp]
 519 0124 3B69     		ldr	r3, [r7, #16]
 520 0126 0022     		movs	r2, #0
 521 0128 4021     		movs	r1, #64
 522 012a F868     		ldr	r0, [r7, #12]
 523 012c FFF7FEFF 		bl	SMARTCARD_WaitOnFlagUntilTimeout
 524 0130 0346     		mov	r3, r0
 525              		.loc 1 881 8 discriminator 1
 526 0132 002B     		cmp	r3, #0
 527 0134 01D0     		beq	.L22
 882:Drivers/STM32L4xx_HAL_Driver/Src/stm32l4xx_hal_smartcard.c ****                                          tickstart, Timeout) != HAL_OK)
 883:Drivers/STM32L4xx_HAL_Driver/Src/stm32l4xx_hal_smartcard.c ****     {
 884:Drivers/STM32L4xx_HAL_Driver/Src/stm32l4xx_hal_smartcard.c ****       return HAL_TIMEOUT;
 528              		.loc 1 884 14
 529 0136 0323     		movs	r3, #3
 530 0138 41E0     		b	.L16
 531              	.L22:
 885:Drivers/STM32L4xx_HAL_Driver/Src/stm32l4xx_hal_smartcard.c ****     }
 886:Drivers/STM32L4xx_HAL_Driver/Src/stm32l4xx_hal_smartcard.c **** 
 887:Drivers/STM32L4xx_HAL_Driver/Src/stm32l4xx_hal_smartcard.c ****     /* Disable the Peripheral first to update mode */
 888:Drivers/STM32L4xx_HAL_Driver/Src/stm32l4xx_hal_smartcard.c ****     CLEAR_BIT(hsmartcard->Instance->CR1, USART_CR1_UE);
 532              		.loc 1 888 5
 533 013a FB68     		ldr	r3, [r7, #12]
 534 013c 1B68     		ldr	r3, [r3]
 535 013e 1A68     		ldr	r2, [r3]
 536 0140 FB68     		ldr	r3, [r7, #12]
 537 0142 1B68     		ldr	r3, [r3]
 538 0144 22F00102 		bic	r2, r2, #1
 539 0148 1A60     		str	r2, [r3]
 889:Drivers/STM32L4xx_HAL_Driver/Src/stm32l4xx_hal_smartcard.c ****     if ((hsmartcard->Init.Mode == SMARTCARD_MODE_TX)
 540              		.loc 1 889 26
 541 014a FB68     		ldr	r3, [r7, #12]
 542 014c 5B8A     		ldrh	r3, [r3, #18]
 543              		.loc 1 889 8
 544 014e 082B     		cmp	r3, #8
ARM GAS  /tmp/ccDAjxq4.s 			page 26


 545 0150 0BD1     		bne	.L23
 890:Drivers/STM32L4xx_HAL_Driver/Src/stm32l4xx_hal_smartcard.c ****         && (hsmartcard->Init.NACKEnable == SMARTCARD_NACK_ENABLE))
 546              		.loc 1 890 29
 547 0152 FB68     		ldr	r3, [r7, #12]
 548 0154 DB8B     		ldrh	r3, [r3, #30]
 549              		.loc 1 890 9
 550 0156 102B     		cmp	r3, #16
 551 0158 07D1     		bne	.L23
 891:Drivers/STM32L4xx_HAL_Driver/Src/stm32l4xx_hal_smartcard.c ****     {
 892:Drivers/STM32L4xx_HAL_Driver/Src/stm32l4xx_hal_smartcard.c ****       /* In case of TX only mode, if NACK is enabled, receiver block has been enabled
 893:Drivers/STM32L4xx_HAL_Driver/Src/stm32l4xx_hal_smartcard.c ****          for Transmit phase. Disable this receiver block. */
 894:Drivers/STM32L4xx_HAL_Driver/Src/stm32l4xx_hal_smartcard.c ****       CLEAR_BIT(hsmartcard->Instance->CR1, USART_CR1_RE);
 552              		.loc 1 894 7
 553 015a FB68     		ldr	r3, [r7, #12]
 554 015c 1B68     		ldr	r3, [r3]
 555 015e 1A68     		ldr	r2, [r3]
 556 0160 FB68     		ldr	r3, [r7, #12]
 557 0162 1B68     		ldr	r3, [r3]
 558 0164 22F00402 		bic	r2, r2, #4
 559 0168 1A60     		str	r2, [r3]
 560              	.L23:
 895:Drivers/STM32L4xx_HAL_Driver/Src/stm32l4xx_hal_smartcard.c ****     }
 896:Drivers/STM32L4xx_HAL_Driver/Src/stm32l4xx_hal_smartcard.c ****     if ((hsmartcard->Init.Mode == SMARTCARD_MODE_TX_RX)
 561              		.loc 1 896 26
 562 016a FB68     		ldr	r3, [r7, #12]
 563 016c 5B8A     		ldrh	r3, [r3, #18]
 564              		.loc 1 896 8
 565 016e 0C2B     		cmp	r3, #12
 566 0170 03D0     		beq	.L24
 897:Drivers/STM32L4xx_HAL_Driver/Src/stm32l4xx_hal_smartcard.c ****         || (hsmartcard->Init.NACKEnable == SMARTCARD_NACK_ENABLE))
 567              		.loc 1 897 29
 568 0172 FB68     		ldr	r3, [r7, #12]
 569 0174 DB8B     		ldrh	r3, [r3, #30]
 570              		.loc 1 897 9
 571 0176 102B     		cmp	r3, #16
 572 0178 0FD1     		bne	.L25
 573              	.L24:
 898:Drivers/STM32L4xx_HAL_Driver/Src/stm32l4xx_hal_smartcard.c ****     {
 899:Drivers/STM32L4xx_HAL_Driver/Src/stm32l4xx_hal_smartcard.c ****       /* Perform a TX FIFO Flush at end of Tx phase, as all sent bytes are appearing in Rx Data reg
 900:Drivers/STM32L4xx_HAL_Driver/Src/stm32l4xx_hal_smartcard.c ****       __HAL_SMARTCARD_FLUSH_DRREGISTER(hsmartcard);
 574              		.loc 1 900 7
 575 017a FB68     		ldr	r3, [r7, #12]
 576 017c 1B68     		ldr	r3, [r3]
 577 017e 9A69     		ldr	r2, [r3, #24]
 578 0180 FB68     		ldr	r3, [r7, #12]
 579 0182 1B68     		ldr	r3, [r3]
 580 0184 42F00802 		orr	r2, r2, #8
 581 0188 9A61     		str	r2, [r3, #24]
 582 018a FB68     		ldr	r3, [r7, #12]
 583 018c 1B68     		ldr	r3, [r3]
 584 018e 9A69     		ldr	r2, [r3, #24]
 585 0190 FB68     		ldr	r3, [r7, #12]
 586 0192 1B68     		ldr	r3, [r3]
 587 0194 42F01002 		orr	r2, r2, #16
 588 0198 9A61     		str	r2, [r3, #24]
 589              	.L25:
 901:Drivers/STM32L4xx_HAL_Driver/Src/stm32l4xx_hal_smartcard.c ****     }
ARM GAS  /tmp/ccDAjxq4.s 			page 27


 902:Drivers/STM32L4xx_HAL_Driver/Src/stm32l4xx_hal_smartcard.c ****     SET_BIT(hsmartcard->Instance->CR1, USART_CR1_UE);
 590              		.loc 1 902 5
 591 019a FB68     		ldr	r3, [r7, #12]
 592 019c 1B68     		ldr	r3, [r3]
 593 019e 1A68     		ldr	r2, [r3]
 594 01a0 FB68     		ldr	r3, [r7, #12]
 595 01a2 1B68     		ldr	r3, [r3]
 596 01a4 42F00102 		orr	r2, r2, #1
 597 01a8 1A60     		str	r2, [r3]
 903:Drivers/STM32L4xx_HAL_Driver/Src/stm32l4xx_hal_smartcard.c **** 
 904:Drivers/STM32L4xx_HAL_Driver/Src/stm32l4xx_hal_smartcard.c ****     /* At end of Tx process, restore hsmartcard->gState to Ready */
 905:Drivers/STM32L4xx_HAL_Driver/Src/stm32l4xx_hal_smartcard.c ****     hsmartcard->gState = HAL_SMARTCARD_STATE_READY;
 598              		.loc 1 905 24
 599 01aa FB68     		ldr	r3, [r7, #12]
 600 01ac 2022     		movs	r2, #32
 601 01ae 5A67     		str	r2, [r3, #116]
 906:Drivers/STM32L4xx_HAL_Driver/Src/stm32l4xx_hal_smartcard.c **** 
 907:Drivers/STM32L4xx_HAL_Driver/Src/stm32l4xx_hal_smartcard.c ****     /* Process Unlocked */
 908:Drivers/STM32L4xx_HAL_Driver/Src/stm32l4xx_hal_smartcard.c ****     __HAL_UNLOCK(hsmartcard);
 602              		.loc 1 908 5
 603 01b0 FB68     		ldr	r3, [r7, #12]
 604 01b2 0022     		movs	r2, #0
 605 01b4 83F87020 		strb	r2, [r3, #112]
 909:Drivers/STM32L4xx_HAL_Driver/Src/stm32l4xx_hal_smartcard.c **** 
 910:Drivers/STM32L4xx_HAL_Driver/Src/stm32l4xx_hal_smartcard.c ****     return HAL_OK;
 606              		.loc 1 910 12
 607 01b8 0023     		movs	r3, #0
 608 01ba 00E0     		b	.L16
 609              	.L13:
 911:Drivers/STM32L4xx_HAL_Driver/Src/stm32l4xx_hal_smartcard.c ****   }
 912:Drivers/STM32L4xx_HAL_Driver/Src/stm32l4xx_hal_smartcard.c ****   else
 913:Drivers/STM32L4xx_HAL_Driver/Src/stm32l4xx_hal_smartcard.c ****   {
 914:Drivers/STM32L4xx_HAL_Driver/Src/stm32l4xx_hal_smartcard.c ****     return HAL_BUSY;
 610              		.loc 1 914 12
 611 01bc 0223     		movs	r3, #2
 612              	.L16:
 915:Drivers/STM32L4xx_HAL_Driver/Src/stm32l4xx_hal_smartcard.c ****   }
 916:Drivers/STM32L4xx_HAL_Driver/Src/stm32l4xx_hal_smartcard.c **** }
 613              		.loc 1 916 1
 614 01be 1846     		mov	r0, r3
 615 01c0 1837     		adds	r7, r7, #24
 616              		.cfi_def_cfa_offset 8
 617 01c2 BD46     		mov	sp, r7
 618              		.cfi_def_cfa_register 13
 619              		@ sp needed
 620 01c4 80BD     		pop	{r7, pc}
 621              		.cfi_endproc
 622              	.LFE449:
 624              		.section	.text.HAL_SMARTCARD_Receive,"ax",%progbits
 625              		.align	1
 626              		.global	HAL_SMARTCARD_Receive
 627              		.syntax unified
 628              		.thumb
 629              		.thumb_func
 631              	HAL_SMARTCARD_Receive:
 632              	.LFB450:
 917:Drivers/STM32L4xx_HAL_Driver/Src/stm32l4xx_hal_smartcard.c **** 
ARM GAS  /tmp/ccDAjxq4.s 			page 28


 918:Drivers/STM32L4xx_HAL_Driver/Src/stm32l4xx_hal_smartcard.c **** /**
 919:Drivers/STM32L4xx_HAL_Driver/Src/stm32l4xx_hal_smartcard.c ****   * @brief  Receive an amount of data in blocking mode.
 920:Drivers/STM32L4xx_HAL_Driver/Src/stm32l4xx_hal_smartcard.c ****   * @note   When FIFO mode is enabled, the RXFNE flag is set as long as the RXFIFO
 921:Drivers/STM32L4xx_HAL_Driver/Src/stm32l4xx_hal_smartcard.c ****   *         is not empty. Read operations from the RDR register are performed when
 922:Drivers/STM32L4xx_HAL_Driver/Src/stm32l4xx_hal_smartcard.c ****   *         RXFNE flag is set. From hardware perspective, RXFNE flag and
 923:Drivers/STM32L4xx_HAL_Driver/Src/stm32l4xx_hal_smartcard.c ****   *         RXNE are mapped on the same bit-field.
 924:Drivers/STM32L4xx_HAL_Driver/Src/stm32l4xx_hal_smartcard.c ****   * @param  hsmartcard Pointer to a SMARTCARD_HandleTypeDef structure that contains
 925:Drivers/STM32L4xx_HAL_Driver/Src/stm32l4xx_hal_smartcard.c ****   *                    the configuration information for the specified SMARTCARD module.
 926:Drivers/STM32L4xx_HAL_Driver/Src/stm32l4xx_hal_smartcard.c ****   * @param  pData pointer to data buffer.
 927:Drivers/STM32L4xx_HAL_Driver/Src/stm32l4xx_hal_smartcard.c ****   * @param  Size amount of data to be received.
 928:Drivers/STM32L4xx_HAL_Driver/Src/stm32l4xx_hal_smartcard.c ****   * @param  Timeout Timeout duration.
 929:Drivers/STM32L4xx_HAL_Driver/Src/stm32l4xx_hal_smartcard.c ****   * @retval HAL status
 930:Drivers/STM32L4xx_HAL_Driver/Src/stm32l4xx_hal_smartcard.c ****   */
 931:Drivers/STM32L4xx_HAL_Driver/Src/stm32l4xx_hal_smartcard.c **** HAL_StatusTypeDef HAL_SMARTCARD_Receive(SMARTCARD_HandleTypeDef *hsmartcard, uint8_t *pData, uint16
 932:Drivers/STM32L4xx_HAL_Driver/Src/stm32l4xx_hal_smartcard.c ****                                         uint32_t Timeout)
 933:Drivers/STM32L4xx_HAL_Driver/Src/stm32l4xx_hal_smartcard.c **** {
 633              		.loc 1 933 1
 634              		.cfi_startproc
 635              		@ args = 0, pretend = 0, frame = 24
 636              		@ frame_needed = 1, uses_anonymous_args = 0
 637 0000 80B5     		push	{r7, lr}
 638              		.cfi_def_cfa_offset 8
 639              		.cfi_offset 7, -8
 640              		.cfi_offset 14, -4
 641 0002 88B0     		sub	sp, sp, #32
 642              		.cfi_def_cfa_offset 40
 643 0004 02AF     		add	r7, sp, #8
 644              		.cfi_def_cfa 7, 32
 645 0006 F860     		str	r0, [r7, #12]
 646 0008 B960     		str	r1, [r7, #8]
 647 000a 3B60     		str	r3, [r7]
 648 000c 1346     		mov	r3, r2	@ movhi
 649 000e FB80     		strh	r3, [r7, #6]	@ movhi
 934:Drivers/STM32L4xx_HAL_Driver/Src/stm32l4xx_hal_smartcard.c ****   uint32_t tickstart;
 935:Drivers/STM32L4xx_HAL_Driver/Src/stm32l4xx_hal_smartcard.c ****   uint8_t  *ptmpdata = pData;
 650              		.loc 1 935 13
 651 0010 BB68     		ldr	r3, [r7, #8]
 652 0012 7B61     		str	r3, [r7, #20]
 936:Drivers/STM32L4xx_HAL_Driver/Src/stm32l4xx_hal_smartcard.c **** 
 937:Drivers/STM32L4xx_HAL_Driver/Src/stm32l4xx_hal_smartcard.c ****   /* Check that a Rx process is not already ongoing */
 938:Drivers/STM32L4xx_HAL_Driver/Src/stm32l4xx_hal_smartcard.c ****   if (hsmartcard->RxState == HAL_SMARTCARD_STATE_READY)
 653              		.loc 1 938 17
 654 0014 FB68     		ldr	r3, [r7, #12]
 655 0016 9B6F     		ldr	r3, [r3, #120]
 656              		.loc 1 938 6
 657 0018 202B     		cmp	r3, #32
 658 001a 52D1     		bne	.L27
 939:Drivers/STM32L4xx_HAL_Driver/Src/stm32l4xx_hal_smartcard.c ****   {
 940:Drivers/STM32L4xx_HAL_Driver/Src/stm32l4xx_hal_smartcard.c ****     if ((ptmpdata == NULL) || (Size == 0U))
 659              		.loc 1 940 8
 660 001c 7B69     		ldr	r3, [r7, #20]
 661 001e 002B     		cmp	r3, #0
 662 0020 02D0     		beq	.L28
 663              		.loc 1 940 28 discriminator 1
 664 0022 FB88     		ldrh	r3, [r7, #6]
 665 0024 002B     		cmp	r3, #0
 666 0026 01D1     		bne	.L29
ARM GAS  /tmp/ccDAjxq4.s 			page 29


 667              	.L28:
 941:Drivers/STM32L4xx_HAL_Driver/Src/stm32l4xx_hal_smartcard.c ****     {
 942:Drivers/STM32L4xx_HAL_Driver/Src/stm32l4xx_hal_smartcard.c ****       return  HAL_ERROR;
 668              		.loc 1 942 15
 669 0028 0123     		movs	r3, #1
 670 002a 4BE0     		b	.L30
 671              	.L29:
 943:Drivers/STM32L4xx_HAL_Driver/Src/stm32l4xx_hal_smartcard.c ****     }
 944:Drivers/STM32L4xx_HAL_Driver/Src/stm32l4xx_hal_smartcard.c **** 
 945:Drivers/STM32L4xx_HAL_Driver/Src/stm32l4xx_hal_smartcard.c ****     /* Process Locked */
 946:Drivers/STM32L4xx_HAL_Driver/Src/stm32l4xx_hal_smartcard.c ****     __HAL_LOCK(hsmartcard);
 672              		.loc 1 946 5
 673 002c FB68     		ldr	r3, [r7, #12]
 674 002e 93F87030 		ldrb	r3, [r3, #112]	@ zero_extendqisi2
 675 0032 012B     		cmp	r3, #1
 676 0034 01D1     		bne	.L31
 677              		.loc 1 946 5 is_stmt 0 discriminator 1
 678 0036 0223     		movs	r3, #2
 679              		.loc 1 946 5
 680 0038 44E0     		b	.L30
 681              	.L31:
 682              		.loc 1 946 5 discriminator 2
 683 003a FB68     		ldr	r3, [r7, #12]
 684 003c 0122     		movs	r2, #1
 685 003e 83F87020 		strb	r2, [r3, #112]
 947:Drivers/STM32L4xx_HAL_Driver/Src/stm32l4xx_hal_smartcard.c **** 
 948:Drivers/STM32L4xx_HAL_Driver/Src/stm32l4xx_hal_smartcard.c ****     hsmartcard->ErrorCode = HAL_SMARTCARD_ERROR_NONE;
 686              		.loc 1 948 27 is_stmt 1
 687 0042 FB68     		ldr	r3, [r7, #12]
 688 0044 0022     		movs	r2, #0
 689 0046 DA67     		str	r2, [r3, #124]
 949:Drivers/STM32L4xx_HAL_Driver/Src/stm32l4xx_hal_smartcard.c ****     hsmartcard->RxState   = HAL_SMARTCARD_STATE_BUSY_RX;
 690              		.loc 1 949 27
 691 0048 FB68     		ldr	r3, [r7, #12]
 692 004a 2222     		movs	r2, #34
 693 004c 9A67     		str	r2, [r3, #120]
 950:Drivers/STM32L4xx_HAL_Driver/Src/stm32l4xx_hal_smartcard.c **** 
 951:Drivers/STM32L4xx_HAL_Driver/Src/stm32l4xx_hal_smartcard.c ****     /* Init tickstart for timeout management */
 952:Drivers/STM32L4xx_HAL_Driver/Src/stm32l4xx_hal_smartcard.c ****     tickstart = HAL_GetTick();
 694              		.loc 1 952 17
 695 004e FFF7FEFF 		bl	HAL_GetTick
 696 0052 3861     		str	r0, [r7, #16]
 953:Drivers/STM32L4xx_HAL_Driver/Src/stm32l4xx_hal_smartcard.c **** 
 954:Drivers/STM32L4xx_HAL_Driver/Src/stm32l4xx_hal_smartcard.c ****     hsmartcard->RxXferSize = Size;
 697              		.loc 1 954 28
 698 0054 FB68     		ldr	r3, [r7, #12]
 699 0056 FA88     		ldrh	r2, [r7, #6]	@ movhi
 700 0058 A3F85C20 		strh	r2, [r3, #92]	@ movhi
 955:Drivers/STM32L4xx_HAL_Driver/Src/stm32l4xx_hal_smartcard.c ****     hsmartcard->RxXferCount = Size;
 701              		.loc 1 955 29
 702 005c FB68     		ldr	r3, [r7, #12]
 703 005e FA88     		ldrh	r2, [r7, #6]	@ movhi
 704 0060 A3F85E20 		strh	r2, [r3, #94]	@ movhi
 956:Drivers/STM32L4xx_HAL_Driver/Src/stm32l4xx_hal_smartcard.c **** 
 957:Drivers/STM32L4xx_HAL_Driver/Src/stm32l4xx_hal_smartcard.c ****     /* Check the remain data to be received */
 958:Drivers/STM32L4xx_HAL_Driver/Src/stm32l4xx_hal_smartcard.c ****     while (hsmartcard->RxXferCount > 0U)
 705              		.loc 1 958 11
ARM GAS  /tmp/ccDAjxq4.s 			page 30


 706 0064 1EE0     		b	.L32
 707              	.L34:
 959:Drivers/STM32L4xx_HAL_Driver/Src/stm32l4xx_hal_smartcard.c ****     {
 960:Drivers/STM32L4xx_HAL_Driver/Src/stm32l4xx_hal_smartcard.c ****       hsmartcard->RxXferCount--;
 708              		.loc 1 960 17
 709 0066 FB68     		ldr	r3, [r7, #12]
 710 0068 B3F85E30 		ldrh	r3, [r3, #94]	@ movhi
 711 006c 9BB2     		uxth	r3, r3
 712              		.loc 1 960 30
 713 006e 013B     		subs	r3, r3, #1
 714 0070 9AB2     		uxth	r2, r3
 715 0072 FB68     		ldr	r3, [r7, #12]
 716 0074 A3F85E20 		strh	r2, [r3, #94]	@ movhi
 961:Drivers/STM32L4xx_HAL_Driver/Src/stm32l4xx_hal_smartcard.c **** 
 962:Drivers/STM32L4xx_HAL_Driver/Src/stm32l4xx_hal_smartcard.c ****       if (SMARTCARD_WaitOnFlagUntilTimeout(hsmartcard, SMARTCARD_FLAG_RXNE, RESET, tickstart, Timeo
 717              		.loc 1 962 11
 718 0078 3B68     		ldr	r3, [r7]
 719 007a 0093     		str	r3, [sp]
 720 007c 3B69     		ldr	r3, [r7, #16]
 721 007e 0022     		movs	r2, #0
 722 0080 2021     		movs	r1, #32
 723 0082 F868     		ldr	r0, [r7, #12]
 724 0084 FFF7FEFF 		bl	SMARTCARD_WaitOnFlagUntilTimeout
 725 0088 0346     		mov	r3, r0
 726              		.loc 1 962 10 discriminator 1
 727 008a 002B     		cmp	r3, #0
 728 008c 01D0     		beq	.L33
 963:Drivers/STM32L4xx_HAL_Driver/Src/stm32l4xx_hal_smartcard.c ****       {
 964:Drivers/STM32L4xx_HAL_Driver/Src/stm32l4xx_hal_smartcard.c ****         return HAL_TIMEOUT;
 729              		.loc 1 964 16
 730 008e 0323     		movs	r3, #3
 731 0090 18E0     		b	.L30
 732              	.L33:
 965:Drivers/STM32L4xx_HAL_Driver/Src/stm32l4xx_hal_smartcard.c ****       }
 966:Drivers/STM32L4xx_HAL_Driver/Src/stm32l4xx_hal_smartcard.c ****       *ptmpdata = (uint8_t)(hsmartcard->Instance->RDR & (uint8_t)0x00FF);
 733              		.loc 1 966 39
 734 0092 FB68     		ldr	r3, [r7, #12]
 735 0094 1B68     		ldr	r3, [r3]
 736              		.loc 1 966 49
 737 0096 5B6A     		ldr	r3, [r3, #36]
 738              		.loc 1 966 19
 739 0098 DAB2     		uxtb	r2, r3
 740              		.loc 1 966 17
 741 009a 7B69     		ldr	r3, [r7, #20]
 742 009c 1A70     		strb	r2, [r3]
 967:Drivers/STM32L4xx_HAL_Driver/Src/stm32l4xx_hal_smartcard.c ****       ptmpdata++;
 743              		.loc 1 967 15
 744 009e 7B69     		ldr	r3, [r7, #20]
 745 00a0 0133     		adds	r3, r3, #1
 746 00a2 7B61     		str	r3, [r7, #20]
 747              	.L32:
 958:Drivers/STM32L4xx_HAL_Driver/Src/stm32l4xx_hal_smartcard.c ****     {
 748              		.loc 1 958 22
 749 00a4 FB68     		ldr	r3, [r7, #12]
 750 00a6 B3F85E30 		ldrh	r3, [r3, #94]	@ movhi
 751 00aa 9BB2     		uxth	r3, r3
 958:Drivers/STM32L4xx_HAL_Driver/Src/stm32l4xx_hal_smartcard.c ****     {
ARM GAS  /tmp/ccDAjxq4.s 			page 31


 752              		.loc 1 958 36
 753 00ac 002B     		cmp	r3, #0
 754 00ae DAD1     		bne	.L34
 968:Drivers/STM32L4xx_HAL_Driver/Src/stm32l4xx_hal_smartcard.c ****     }
 969:Drivers/STM32L4xx_HAL_Driver/Src/stm32l4xx_hal_smartcard.c **** 
 970:Drivers/STM32L4xx_HAL_Driver/Src/stm32l4xx_hal_smartcard.c ****     /* At end of Rx process, restore hsmartcard->RxState to Ready */
 971:Drivers/STM32L4xx_HAL_Driver/Src/stm32l4xx_hal_smartcard.c ****     hsmartcard->RxState = HAL_SMARTCARD_STATE_READY;
 755              		.loc 1 971 25
 756 00b0 FB68     		ldr	r3, [r7, #12]
 757 00b2 2022     		movs	r2, #32
 758 00b4 9A67     		str	r2, [r3, #120]
 972:Drivers/STM32L4xx_HAL_Driver/Src/stm32l4xx_hal_smartcard.c **** 
 973:Drivers/STM32L4xx_HAL_Driver/Src/stm32l4xx_hal_smartcard.c ****     /* Process Unlocked */
 974:Drivers/STM32L4xx_HAL_Driver/Src/stm32l4xx_hal_smartcard.c ****     __HAL_UNLOCK(hsmartcard);
 759              		.loc 1 974 5
 760 00b6 FB68     		ldr	r3, [r7, #12]
 761 00b8 0022     		movs	r2, #0
 762 00ba 83F87020 		strb	r2, [r3, #112]
 975:Drivers/STM32L4xx_HAL_Driver/Src/stm32l4xx_hal_smartcard.c **** 
 976:Drivers/STM32L4xx_HAL_Driver/Src/stm32l4xx_hal_smartcard.c ****     return HAL_OK;
 763              		.loc 1 976 12
 764 00be 0023     		movs	r3, #0
 765 00c0 00E0     		b	.L30
 766              	.L27:
 977:Drivers/STM32L4xx_HAL_Driver/Src/stm32l4xx_hal_smartcard.c ****   }
 978:Drivers/STM32L4xx_HAL_Driver/Src/stm32l4xx_hal_smartcard.c ****   else
 979:Drivers/STM32L4xx_HAL_Driver/Src/stm32l4xx_hal_smartcard.c ****   {
 980:Drivers/STM32L4xx_HAL_Driver/Src/stm32l4xx_hal_smartcard.c ****     return HAL_BUSY;
 767              		.loc 1 980 12
 768 00c2 0223     		movs	r3, #2
 769              	.L30:
 981:Drivers/STM32L4xx_HAL_Driver/Src/stm32l4xx_hal_smartcard.c ****   }
 982:Drivers/STM32L4xx_HAL_Driver/Src/stm32l4xx_hal_smartcard.c **** }
 770              		.loc 1 982 1
 771 00c4 1846     		mov	r0, r3
 772 00c6 1837     		adds	r7, r7, #24
 773              		.cfi_def_cfa_offset 8
 774 00c8 BD46     		mov	sp, r7
 775              		.cfi_def_cfa_register 13
 776              		@ sp needed
 777 00ca 80BD     		pop	{r7, pc}
 778              		.cfi_endproc
 779              	.LFE450:
 781              		.section	.text.HAL_SMARTCARD_Transmit_IT,"ax",%progbits
 782              		.align	1
 783              		.global	HAL_SMARTCARD_Transmit_IT
 784              		.syntax unified
 785              		.thumb
 786              		.thumb_func
 788              	HAL_SMARTCARD_Transmit_IT:
 789              	.LFB451:
 983:Drivers/STM32L4xx_HAL_Driver/Src/stm32l4xx_hal_smartcard.c **** 
 984:Drivers/STM32L4xx_HAL_Driver/Src/stm32l4xx_hal_smartcard.c **** /**
 985:Drivers/STM32L4xx_HAL_Driver/Src/stm32l4xx_hal_smartcard.c ****   * @brief  Send an amount of data in interrupt mode.
 986:Drivers/STM32L4xx_HAL_Driver/Src/stm32l4xx_hal_smartcard.c ****   * @note   When FIFO mode is disabled, USART interrupt is generated whenever
 987:Drivers/STM32L4xx_HAL_Driver/Src/stm32l4xx_hal_smartcard.c ****   *         USART_TDR register is empty, i.e one interrupt per data to transmit.
 988:Drivers/STM32L4xx_HAL_Driver/Src/stm32l4xx_hal_smartcard.c ****   * @note   When FIFO mode is enabled, USART interrupt is generated whenever
ARM GAS  /tmp/ccDAjxq4.s 			page 32


 989:Drivers/STM32L4xx_HAL_Driver/Src/stm32l4xx_hal_smartcard.c ****   *         TXFIFO threshold reached. In that case the interrupt rate depends on
 990:Drivers/STM32L4xx_HAL_Driver/Src/stm32l4xx_hal_smartcard.c ****   *         TXFIFO threshold configuration.
 991:Drivers/STM32L4xx_HAL_Driver/Src/stm32l4xx_hal_smartcard.c ****   * @note   This function sets the hsmartcard->TxIsr function pointer according to
 992:Drivers/STM32L4xx_HAL_Driver/Src/stm32l4xx_hal_smartcard.c ****   *         the FIFO mode (data transmission processing depends on FIFO mode).
 993:Drivers/STM32L4xx_HAL_Driver/Src/stm32l4xx_hal_smartcard.c ****   * @param  hsmartcard Pointer to a SMARTCARD_HandleTypeDef structure that contains
 994:Drivers/STM32L4xx_HAL_Driver/Src/stm32l4xx_hal_smartcard.c ****   *                    the configuration information for the specified SMARTCARD module.
 995:Drivers/STM32L4xx_HAL_Driver/Src/stm32l4xx_hal_smartcard.c ****   * @param  pData pointer to data buffer.
 996:Drivers/STM32L4xx_HAL_Driver/Src/stm32l4xx_hal_smartcard.c ****   * @param  Size amount of data to be sent.
 997:Drivers/STM32L4xx_HAL_Driver/Src/stm32l4xx_hal_smartcard.c ****   * @retval HAL status
 998:Drivers/STM32L4xx_HAL_Driver/Src/stm32l4xx_hal_smartcard.c ****   */
 999:Drivers/STM32L4xx_HAL_Driver/Src/stm32l4xx_hal_smartcard.c **** HAL_StatusTypeDef HAL_SMARTCARD_Transmit_IT(SMARTCARD_HandleTypeDef *hsmartcard, const uint8_t *pDa
1000:Drivers/STM32L4xx_HAL_Driver/Src/stm32l4xx_hal_smartcard.c **** {
 790              		.loc 1 1000 1
 791              		.cfi_startproc
 792              		@ args = 0, pretend = 0, frame = 16
 793              		@ frame_needed = 1, uses_anonymous_args = 0
 794              		@ link register save eliminated.
 795 0000 80B4     		push	{r7}
 796              		.cfi_def_cfa_offset 4
 797              		.cfi_offset 7, -4
 798 0002 85B0     		sub	sp, sp, #20
 799              		.cfi_def_cfa_offset 24
 800 0004 00AF     		add	r7, sp, #0
 801              		.cfi_def_cfa_register 7
 802 0006 F860     		str	r0, [r7, #12]
 803 0008 B960     		str	r1, [r7, #8]
 804 000a 1346     		mov	r3, r2
 805 000c FB80     		strh	r3, [r7, #6]	@ movhi
1001:Drivers/STM32L4xx_HAL_Driver/Src/stm32l4xx_hal_smartcard.c ****   /* Check that a Tx process is not already ongoing */
1002:Drivers/STM32L4xx_HAL_Driver/Src/stm32l4xx_hal_smartcard.c ****   if (hsmartcard->gState == HAL_SMARTCARD_STATE_READY)
 806              		.loc 1 1002 17
 807 000e FB68     		ldr	r3, [r7, #12]
 808 0010 5B6F     		ldr	r3, [r3, #116]
 809              		.loc 1 1002 6
 810 0012 202B     		cmp	r3, #32
 811 0014 77D1     		bne	.L36
1003:Drivers/STM32L4xx_HAL_Driver/Src/stm32l4xx_hal_smartcard.c ****   {
1004:Drivers/STM32L4xx_HAL_Driver/Src/stm32l4xx_hal_smartcard.c ****     if ((pData == NULL) || (Size == 0U))
 812              		.loc 1 1004 8
 813 0016 BB68     		ldr	r3, [r7, #8]
 814 0018 002B     		cmp	r3, #0
 815 001a 02D0     		beq	.L37
 816              		.loc 1 1004 25 discriminator 1
 817 001c FB88     		ldrh	r3, [r7, #6]
 818 001e 002B     		cmp	r3, #0
 819 0020 01D1     		bne	.L38
 820              	.L37:
1005:Drivers/STM32L4xx_HAL_Driver/Src/stm32l4xx_hal_smartcard.c ****     {
1006:Drivers/STM32L4xx_HAL_Driver/Src/stm32l4xx_hal_smartcard.c ****       return HAL_ERROR;
 821              		.loc 1 1006 14
 822 0022 0123     		movs	r3, #1
 823 0024 70E0     		b	.L39
 824              	.L38:
1007:Drivers/STM32L4xx_HAL_Driver/Src/stm32l4xx_hal_smartcard.c ****     }
1008:Drivers/STM32L4xx_HAL_Driver/Src/stm32l4xx_hal_smartcard.c **** 
1009:Drivers/STM32L4xx_HAL_Driver/Src/stm32l4xx_hal_smartcard.c ****     /* Process Locked */
1010:Drivers/STM32L4xx_HAL_Driver/Src/stm32l4xx_hal_smartcard.c ****     __HAL_LOCK(hsmartcard);
ARM GAS  /tmp/ccDAjxq4.s 			page 33


 825              		.loc 1 1010 5
 826 0026 FB68     		ldr	r3, [r7, #12]
 827 0028 93F87030 		ldrb	r3, [r3, #112]	@ zero_extendqisi2
 828 002c 012B     		cmp	r3, #1
 829 002e 01D1     		bne	.L40
 830              		.loc 1 1010 5 is_stmt 0 discriminator 1
 831 0030 0223     		movs	r3, #2
 832              		.loc 1 1010 5
 833 0032 69E0     		b	.L39
 834              	.L40:
 835              		.loc 1 1010 5 discriminator 2
 836 0034 FB68     		ldr	r3, [r7, #12]
 837 0036 0122     		movs	r2, #1
 838 0038 83F87020 		strb	r2, [r3, #112]
1011:Drivers/STM32L4xx_HAL_Driver/Src/stm32l4xx_hal_smartcard.c **** 
1012:Drivers/STM32L4xx_HAL_Driver/Src/stm32l4xx_hal_smartcard.c ****     hsmartcard->ErrorCode = HAL_SMARTCARD_ERROR_NONE;
 839              		.loc 1 1012 27 is_stmt 1
 840 003c FB68     		ldr	r3, [r7, #12]
 841 003e 0022     		movs	r2, #0
 842 0040 DA67     		str	r2, [r3, #124]
1013:Drivers/STM32L4xx_HAL_Driver/Src/stm32l4xx_hal_smartcard.c ****     hsmartcard->gState = HAL_SMARTCARD_STATE_BUSY_TX;
 843              		.loc 1 1013 24
 844 0042 FB68     		ldr	r3, [r7, #12]
 845 0044 2122     		movs	r2, #33
 846 0046 5A67     		str	r2, [r3, #116]
1014:Drivers/STM32L4xx_HAL_Driver/Src/stm32l4xx_hal_smartcard.c **** 
1015:Drivers/STM32L4xx_HAL_Driver/Src/stm32l4xx_hal_smartcard.c ****     hsmartcard->pTxBuffPtr  = pData;
 847              		.loc 1 1015 29
 848 0048 FB68     		ldr	r3, [r7, #12]
 849 004a BA68     		ldr	r2, [r7, #8]
 850 004c 1A65     		str	r2, [r3, #80]
1016:Drivers/STM32L4xx_HAL_Driver/Src/stm32l4xx_hal_smartcard.c ****     hsmartcard->TxXferSize  = Size;
 851              		.loc 1 1016 29
 852 004e FB68     		ldr	r3, [r7, #12]
 853 0050 FA88     		ldrh	r2, [r7, #6]	@ movhi
 854 0052 A3F85420 		strh	r2, [r3, #84]	@ movhi
1017:Drivers/STM32L4xx_HAL_Driver/Src/stm32l4xx_hal_smartcard.c ****     hsmartcard->TxXferCount = Size;
 855              		.loc 1 1017 29
 856 0056 FB68     		ldr	r3, [r7, #12]
 857 0058 FA88     		ldrh	r2, [r7, #6]	@ movhi
 858 005a A3F85620 		strh	r2, [r3, #86]	@ movhi
1018:Drivers/STM32L4xx_HAL_Driver/Src/stm32l4xx_hal_smartcard.c ****     hsmartcard->TxISR       = NULL;
 859              		.loc 1 1018 29
 860 005e FB68     		ldr	r3, [r7, #12]
 861 0060 0022     		movs	r2, #0
 862 0062 5A66     		str	r2, [r3, #100]
1019:Drivers/STM32L4xx_HAL_Driver/Src/stm32l4xx_hal_smartcard.c **** 
1020:Drivers/STM32L4xx_HAL_Driver/Src/stm32l4xx_hal_smartcard.c ****     /* Disable the Peripheral first to update mode for TX master */
1021:Drivers/STM32L4xx_HAL_Driver/Src/stm32l4xx_hal_smartcard.c ****     CLEAR_BIT(hsmartcard->Instance->CR1, USART_CR1_UE);
 863              		.loc 1 1021 5
 864 0064 FB68     		ldr	r3, [r7, #12]
 865 0066 1B68     		ldr	r3, [r3]
 866 0068 1A68     		ldr	r2, [r3]
 867 006a FB68     		ldr	r3, [r7, #12]
 868 006c 1B68     		ldr	r3, [r3]
 869 006e 22F00102 		bic	r2, r2, #1
 870 0072 1A60     		str	r2, [r3]
ARM GAS  /tmp/ccDAjxq4.s 			page 34


1022:Drivers/STM32L4xx_HAL_Driver/Src/stm32l4xx_hal_smartcard.c **** 
1023:Drivers/STM32L4xx_HAL_Driver/Src/stm32l4xx_hal_smartcard.c ****     /* In case of TX only mode, if NACK is enabled, the USART must be able to monitor
1024:Drivers/STM32L4xx_HAL_Driver/Src/stm32l4xx_hal_smartcard.c ****        the bidirectional line to detect a NACK signal in case of parity error.
1025:Drivers/STM32L4xx_HAL_Driver/Src/stm32l4xx_hal_smartcard.c ****        Therefore, the receiver block must be enabled as well (RE bit must be set). */
1026:Drivers/STM32L4xx_HAL_Driver/Src/stm32l4xx_hal_smartcard.c ****     if ((hsmartcard->Init.Mode == SMARTCARD_MODE_TX)
 871              		.loc 1 1026 26
 872 0074 FB68     		ldr	r3, [r7, #12]
 873 0076 5B8A     		ldrh	r3, [r3, #18]
 874              		.loc 1 1026 8
 875 0078 082B     		cmp	r3, #8
 876 007a 0BD1     		bne	.L41
1027:Drivers/STM32L4xx_HAL_Driver/Src/stm32l4xx_hal_smartcard.c ****         && (hsmartcard->Init.NACKEnable == SMARTCARD_NACK_ENABLE))
 877              		.loc 1 1027 29
 878 007c FB68     		ldr	r3, [r7, #12]
 879 007e DB8B     		ldrh	r3, [r3, #30]
 880              		.loc 1 1027 9
 881 0080 102B     		cmp	r3, #16
 882 0082 07D1     		bne	.L41
1028:Drivers/STM32L4xx_HAL_Driver/Src/stm32l4xx_hal_smartcard.c ****     {
1029:Drivers/STM32L4xx_HAL_Driver/Src/stm32l4xx_hal_smartcard.c ****       SET_BIT(hsmartcard->Instance->CR1, USART_CR1_RE);
 883              		.loc 1 1029 7
 884 0084 FB68     		ldr	r3, [r7, #12]
 885 0086 1B68     		ldr	r3, [r3]
 886 0088 1A68     		ldr	r2, [r3]
 887 008a FB68     		ldr	r3, [r7, #12]
 888 008c 1B68     		ldr	r3, [r3]
 889 008e 42F00402 		orr	r2, r2, #4
 890 0092 1A60     		str	r2, [r3]
 891              	.L41:
1030:Drivers/STM32L4xx_HAL_Driver/Src/stm32l4xx_hal_smartcard.c ****     }
1031:Drivers/STM32L4xx_HAL_Driver/Src/stm32l4xx_hal_smartcard.c ****     /* Enable Tx */
1032:Drivers/STM32L4xx_HAL_Driver/Src/stm32l4xx_hal_smartcard.c ****     SET_BIT(hsmartcard->Instance->CR1, USART_CR1_TE);
 892              		.loc 1 1032 5
 893 0094 FB68     		ldr	r3, [r7, #12]
 894 0096 1B68     		ldr	r3, [r3]
 895 0098 1A68     		ldr	r2, [r3]
 896 009a FB68     		ldr	r3, [r7, #12]
 897 009c 1B68     		ldr	r3, [r3]
 898 009e 42F00802 		orr	r2, r2, #8
 899 00a2 1A60     		str	r2, [r3]
1033:Drivers/STM32L4xx_HAL_Driver/Src/stm32l4xx_hal_smartcard.c **** 
1034:Drivers/STM32L4xx_HAL_Driver/Src/stm32l4xx_hal_smartcard.c ****     /* Enable the Peripheral */
1035:Drivers/STM32L4xx_HAL_Driver/Src/stm32l4xx_hal_smartcard.c ****     SET_BIT(hsmartcard->Instance->CR1, USART_CR1_UE);
 900              		.loc 1 1035 5
 901 00a4 FB68     		ldr	r3, [r7, #12]
 902 00a6 1B68     		ldr	r3, [r3]
 903 00a8 1A68     		ldr	r2, [r3]
 904 00aa FB68     		ldr	r3, [r7, #12]
 905 00ac 1B68     		ldr	r3, [r3]
 906 00ae 42F00102 		orr	r2, r2, #1
 907 00b2 1A60     		str	r2, [r3]
1036:Drivers/STM32L4xx_HAL_Driver/Src/stm32l4xx_hal_smartcard.c **** 
1037:Drivers/STM32L4xx_HAL_Driver/Src/stm32l4xx_hal_smartcard.c ****     /* Perform a TX/RX FIFO Flush */
1038:Drivers/STM32L4xx_HAL_Driver/Src/stm32l4xx_hal_smartcard.c ****     __HAL_SMARTCARD_FLUSH_DRREGISTER(hsmartcard);
 908              		.loc 1 1038 5
 909 00b4 FB68     		ldr	r3, [r7, #12]
 910 00b6 1B68     		ldr	r3, [r3]
ARM GAS  /tmp/ccDAjxq4.s 			page 35


 911 00b8 9A69     		ldr	r2, [r3, #24]
 912 00ba FB68     		ldr	r3, [r7, #12]
 913 00bc 1B68     		ldr	r3, [r3]
 914 00be 42F00802 		orr	r2, r2, #8
 915 00c2 9A61     		str	r2, [r3, #24]
 916 00c4 FB68     		ldr	r3, [r7, #12]
 917 00c6 1B68     		ldr	r3, [r3]
 918 00c8 9A69     		ldr	r2, [r3, #24]
 919 00ca FB68     		ldr	r3, [r7, #12]
 920 00cc 1B68     		ldr	r3, [r3]
 921 00ce 42F01002 		orr	r2, r2, #16
 922 00d2 9A61     		str	r2, [r3, #24]
1039:Drivers/STM32L4xx_HAL_Driver/Src/stm32l4xx_hal_smartcard.c **** 
1040:Drivers/STM32L4xx_HAL_Driver/Src/stm32l4xx_hal_smartcard.c ****     /* Configure Tx interrupt processing */
1041:Drivers/STM32L4xx_HAL_Driver/Src/stm32l4xx_hal_smartcard.c **** #if defined(USART_CR1_FIFOEN)
1042:Drivers/STM32L4xx_HAL_Driver/Src/stm32l4xx_hal_smartcard.c ****     if (hsmartcard->FifoMode == SMARTCARD_FIFOMODE_ENABLE)
1043:Drivers/STM32L4xx_HAL_Driver/Src/stm32l4xx_hal_smartcard.c ****     {
1044:Drivers/STM32L4xx_HAL_Driver/Src/stm32l4xx_hal_smartcard.c ****       /* Set the Tx ISR function pointer */
1045:Drivers/STM32L4xx_HAL_Driver/Src/stm32l4xx_hal_smartcard.c ****       hsmartcard->TxISR = SMARTCARD_TxISR_FIFOEN;
1046:Drivers/STM32L4xx_HAL_Driver/Src/stm32l4xx_hal_smartcard.c **** 
1047:Drivers/STM32L4xx_HAL_Driver/Src/stm32l4xx_hal_smartcard.c ****       /* Process Unlocked */
1048:Drivers/STM32L4xx_HAL_Driver/Src/stm32l4xx_hal_smartcard.c ****       __HAL_UNLOCK(hsmartcard);
1049:Drivers/STM32L4xx_HAL_Driver/Src/stm32l4xx_hal_smartcard.c **** 
1050:Drivers/STM32L4xx_HAL_Driver/Src/stm32l4xx_hal_smartcard.c ****       /* Enable the SMARTCARD Error Interrupt: (Frame error) */
1051:Drivers/STM32L4xx_HAL_Driver/Src/stm32l4xx_hal_smartcard.c ****       SET_BIT(hsmartcard->Instance->CR3, USART_CR3_EIE);
1052:Drivers/STM32L4xx_HAL_Driver/Src/stm32l4xx_hal_smartcard.c **** 
1053:Drivers/STM32L4xx_HAL_Driver/Src/stm32l4xx_hal_smartcard.c ****       /* Enable the TX FIFO threshold interrupt */
1054:Drivers/STM32L4xx_HAL_Driver/Src/stm32l4xx_hal_smartcard.c ****       SET_BIT(hsmartcard->Instance->CR3, USART_CR3_TXFTIE);
1055:Drivers/STM32L4xx_HAL_Driver/Src/stm32l4xx_hal_smartcard.c ****     }
1056:Drivers/STM32L4xx_HAL_Driver/Src/stm32l4xx_hal_smartcard.c ****     else
1057:Drivers/STM32L4xx_HAL_Driver/Src/stm32l4xx_hal_smartcard.c ****     {
1058:Drivers/STM32L4xx_HAL_Driver/Src/stm32l4xx_hal_smartcard.c ****       /* Set the Tx ISR function pointer */
1059:Drivers/STM32L4xx_HAL_Driver/Src/stm32l4xx_hal_smartcard.c ****       hsmartcard->TxISR = SMARTCARD_TxISR;
1060:Drivers/STM32L4xx_HAL_Driver/Src/stm32l4xx_hal_smartcard.c **** 
1061:Drivers/STM32L4xx_HAL_Driver/Src/stm32l4xx_hal_smartcard.c ****       /* Process Unlocked */
1062:Drivers/STM32L4xx_HAL_Driver/Src/stm32l4xx_hal_smartcard.c ****       __HAL_UNLOCK(hsmartcard);
1063:Drivers/STM32L4xx_HAL_Driver/Src/stm32l4xx_hal_smartcard.c **** 
1064:Drivers/STM32L4xx_HAL_Driver/Src/stm32l4xx_hal_smartcard.c ****       /* Enable the SMARTCARD Error Interrupt: (Frame error) */
1065:Drivers/STM32L4xx_HAL_Driver/Src/stm32l4xx_hal_smartcard.c ****       SET_BIT(hsmartcard->Instance->CR3, USART_CR3_EIE);
1066:Drivers/STM32L4xx_HAL_Driver/Src/stm32l4xx_hal_smartcard.c **** 
1067:Drivers/STM32L4xx_HAL_Driver/Src/stm32l4xx_hal_smartcard.c ****       /* Enable the SMARTCARD Transmit Data Register Empty Interrupt */
1068:Drivers/STM32L4xx_HAL_Driver/Src/stm32l4xx_hal_smartcard.c ****       SET_BIT(hsmartcard->Instance->CR1, USART_CR1_TXEIE_TXFNFIE);
1069:Drivers/STM32L4xx_HAL_Driver/Src/stm32l4xx_hal_smartcard.c ****     }
1070:Drivers/STM32L4xx_HAL_Driver/Src/stm32l4xx_hal_smartcard.c **** #else
1071:Drivers/STM32L4xx_HAL_Driver/Src/stm32l4xx_hal_smartcard.c ****     /* Set the Tx ISR function pointer */
1072:Drivers/STM32L4xx_HAL_Driver/Src/stm32l4xx_hal_smartcard.c ****     hsmartcard->TxISR = SMARTCARD_TxISR;
 923              		.loc 1 1072 23
 924 00d4 FB68     		ldr	r3, [r7, #12]
 925 00d6 0F4A     		ldr	r2, .L42
 926 00d8 5A66     		str	r2, [r3, #100]
1073:Drivers/STM32L4xx_HAL_Driver/Src/stm32l4xx_hal_smartcard.c **** 
1074:Drivers/STM32L4xx_HAL_Driver/Src/stm32l4xx_hal_smartcard.c ****     /* Process Unlocked */
1075:Drivers/STM32L4xx_HAL_Driver/Src/stm32l4xx_hal_smartcard.c ****     __HAL_UNLOCK(hsmartcard);
 927              		.loc 1 1075 5
 928 00da FB68     		ldr	r3, [r7, #12]
 929 00dc 0022     		movs	r2, #0
 930 00de 83F87020 		strb	r2, [r3, #112]
ARM GAS  /tmp/ccDAjxq4.s 			page 36


1076:Drivers/STM32L4xx_HAL_Driver/Src/stm32l4xx_hal_smartcard.c **** 
1077:Drivers/STM32L4xx_HAL_Driver/Src/stm32l4xx_hal_smartcard.c ****     /* Enable the SMARTCARD Error Interrupt: (Frame error) */
1078:Drivers/STM32L4xx_HAL_Driver/Src/stm32l4xx_hal_smartcard.c ****     SET_BIT(hsmartcard->Instance->CR3, USART_CR3_EIE);
 931              		.loc 1 1078 5
 932 00e2 FB68     		ldr	r3, [r7, #12]
 933 00e4 1B68     		ldr	r3, [r3]
 934 00e6 9A68     		ldr	r2, [r3, #8]
 935 00e8 FB68     		ldr	r3, [r7, #12]
 936 00ea 1B68     		ldr	r3, [r3]
 937 00ec 42F00102 		orr	r2, r2, #1
 938 00f0 9A60     		str	r2, [r3, #8]
1079:Drivers/STM32L4xx_HAL_Driver/Src/stm32l4xx_hal_smartcard.c **** 
1080:Drivers/STM32L4xx_HAL_Driver/Src/stm32l4xx_hal_smartcard.c ****     /* Enable the SMARTCARD Transmit Data Register Empty Interrupt */
1081:Drivers/STM32L4xx_HAL_Driver/Src/stm32l4xx_hal_smartcard.c ****     SET_BIT(hsmartcard->Instance->CR1, USART_CR1_TXEIE);
 939              		.loc 1 1081 5
 940 00f2 FB68     		ldr	r3, [r7, #12]
 941 00f4 1B68     		ldr	r3, [r3]
 942 00f6 1A68     		ldr	r2, [r3]
 943 00f8 FB68     		ldr	r3, [r7, #12]
 944 00fa 1B68     		ldr	r3, [r3]
 945 00fc 42F08002 		orr	r2, r2, #128
 946 0100 1A60     		str	r2, [r3]
1082:Drivers/STM32L4xx_HAL_Driver/Src/stm32l4xx_hal_smartcard.c **** #endif /* USART_CR1_FIFOEN */
1083:Drivers/STM32L4xx_HAL_Driver/Src/stm32l4xx_hal_smartcard.c **** 
1084:Drivers/STM32L4xx_HAL_Driver/Src/stm32l4xx_hal_smartcard.c ****     return HAL_OK;
 947              		.loc 1 1084 12
 948 0102 0023     		movs	r3, #0
 949 0104 00E0     		b	.L39
 950              	.L36:
1085:Drivers/STM32L4xx_HAL_Driver/Src/stm32l4xx_hal_smartcard.c ****   }
1086:Drivers/STM32L4xx_HAL_Driver/Src/stm32l4xx_hal_smartcard.c ****   else
1087:Drivers/STM32L4xx_HAL_Driver/Src/stm32l4xx_hal_smartcard.c ****   {
1088:Drivers/STM32L4xx_HAL_Driver/Src/stm32l4xx_hal_smartcard.c ****     return HAL_BUSY;
 951              		.loc 1 1088 12
 952 0106 0223     		movs	r3, #2
 953              	.L39:
1089:Drivers/STM32L4xx_HAL_Driver/Src/stm32l4xx_hal_smartcard.c ****   }
1090:Drivers/STM32L4xx_HAL_Driver/Src/stm32l4xx_hal_smartcard.c **** }
 954              		.loc 1 1090 1
 955 0108 1846     		mov	r0, r3
 956 010a 1437     		adds	r7, r7, #20
 957              		.cfi_def_cfa_offset 4
 958 010c BD46     		mov	sp, r7
 959              		.cfi_def_cfa_register 13
 960              		@ sp needed
 961 010e 5DF8047B 		ldr	r7, [sp], #4
 962              		.cfi_restore 7
 963              		.cfi_def_cfa_offset 0
 964 0112 7047     		bx	lr
 965              	.L43:
 966              		.align	2
 967              	.L42:
 968 0114 00000000 		.word	SMARTCARD_TxISR
 969              		.cfi_endproc
 970              	.LFE451:
 972              		.section	.text.HAL_SMARTCARD_Receive_IT,"ax",%progbits
 973              		.align	1
ARM GAS  /tmp/ccDAjxq4.s 			page 37


 974              		.global	HAL_SMARTCARD_Receive_IT
 975              		.syntax unified
 976              		.thumb
 977              		.thumb_func
 979              	HAL_SMARTCARD_Receive_IT:
 980              	.LFB452:
1091:Drivers/STM32L4xx_HAL_Driver/Src/stm32l4xx_hal_smartcard.c **** 
1092:Drivers/STM32L4xx_HAL_Driver/Src/stm32l4xx_hal_smartcard.c **** /**
1093:Drivers/STM32L4xx_HAL_Driver/Src/stm32l4xx_hal_smartcard.c ****   * @brief  Receive an amount of data in interrupt mode.
1094:Drivers/STM32L4xx_HAL_Driver/Src/stm32l4xx_hal_smartcard.c ****   * @note   When FIFO mode is disabled, USART interrupt is generated whenever
1095:Drivers/STM32L4xx_HAL_Driver/Src/stm32l4xx_hal_smartcard.c ****   *         USART_RDR register can be read, i.e one interrupt per data to receive.
1096:Drivers/STM32L4xx_HAL_Driver/Src/stm32l4xx_hal_smartcard.c ****   * @note   When FIFO mode is enabled, USART interrupt is generated whenever
1097:Drivers/STM32L4xx_HAL_Driver/Src/stm32l4xx_hal_smartcard.c ****   *         RXFIFO threshold reached. In that case the interrupt rate depends on
1098:Drivers/STM32L4xx_HAL_Driver/Src/stm32l4xx_hal_smartcard.c ****   *         RXFIFO threshold configuration.
1099:Drivers/STM32L4xx_HAL_Driver/Src/stm32l4xx_hal_smartcard.c ****   * @note   This function sets the hsmartcard->RxIsr function pointer according to
1100:Drivers/STM32L4xx_HAL_Driver/Src/stm32l4xx_hal_smartcard.c ****   *         the FIFO mode (data reception processing depends on FIFO mode).
1101:Drivers/STM32L4xx_HAL_Driver/Src/stm32l4xx_hal_smartcard.c ****   * @param  hsmartcard Pointer to a SMARTCARD_HandleTypeDef structure that contains
1102:Drivers/STM32L4xx_HAL_Driver/Src/stm32l4xx_hal_smartcard.c ****   *                    the configuration information for the specified SMARTCARD module.
1103:Drivers/STM32L4xx_HAL_Driver/Src/stm32l4xx_hal_smartcard.c ****   * @param  pData pointer to data buffer.
1104:Drivers/STM32L4xx_HAL_Driver/Src/stm32l4xx_hal_smartcard.c ****   * @param  Size amount of data to be received.
1105:Drivers/STM32L4xx_HAL_Driver/Src/stm32l4xx_hal_smartcard.c ****   * @retval HAL status
1106:Drivers/STM32L4xx_HAL_Driver/Src/stm32l4xx_hal_smartcard.c ****   */
1107:Drivers/STM32L4xx_HAL_Driver/Src/stm32l4xx_hal_smartcard.c **** HAL_StatusTypeDef HAL_SMARTCARD_Receive_IT(SMARTCARD_HandleTypeDef *hsmartcard, uint8_t *pData, uin
1108:Drivers/STM32L4xx_HAL_Driver/Src/stm32l4xx_hal_smartcard.c **** {
 981              		.loc 1 1108 1
 982              		.cfi_startproc
 983              		@ args = 0, pretend = 0, frame = 16
 984              		@ frame_needed = 1, uses_anonymous_args = 0
 985              		@ link register save eliminated.
 986 0000 80B4     		push	{r7}
 987              		.cfi_def_cfa_offset 4
 988              		.cfi_offset 7, -4
 989 0002 85B0     		sub	sp, sp, #20
 990              		.cfi_def_cfa_offset 24
 991 0004 00AF     		add	r7, sp, #0
 992              		.cfi_def_cfa_register 7
 993 0006 F860     		str	r0, [r7, #12]
 994 0008 B960     		str	r1, [r7, #8]
 995 000a 1346     		mov	r3, r2
 996 000c FB80     		strh	r3, [r7, #6]	@ movhi
1109:Drivers/STM32L4xx_HAL_Driver/Src/stm32l4xx_hal_smartcard.c ****   /* Check that a Rx process is not already ongoing */
1110:Drivers/STM32L4xx_HAL_Driver/Src/stm32l4xx_hal_smartcard.c ****   if (hsmartcard->RxState == HAL_SMARTCARD_STATE_READY)
 997              		.loc 1 1110 17
 998 000e FB68     		ldr	r3, [r7, #12]
 999 0010 9B6F     		ldr	r3, [r3, #120]
 1000              		.loc 1 1110 6
 1001 0012 202B     		cmp	r3, #32
 1002 0014 3CD1     		bne	.L45
1111:Drivers/STM32L4xx_HAL_Driver/Src/stm32l4xx_hal_smartcard.c ****   {
1112:Drivers/STM32L4xx_HAL_Driver/Src/stm32l4xx_hal_smartcard.c ****     if ((pData == NULL) || (Size == 0U))
 1003              		.loc 1 1112 8
 1004 0016 BB68     		ldr	r3, [r7, #8]
 1005 0018 002B     		cmp	r3, #0
 1006 001a 02D0     		beq	.L46
 1007              		.loc 1 1112 25 discriminator 1
 1008 001c FB88     		ldrh	r3, [r7, #6]
 1009 001e 002B     		cmp	r3, #0
ARM GAS  /tmp/ccDAjxq4.s 			page 38


 1010 0020 01D1     		bne	.L47
 1011              	.L46:
1113:Drivers/STM32L4xx_HAL_Driver/Src/stm32l4xx_hal_smartcard.c ****     {
1114:Drivers/STM32L4xx_HAL_Driver/Src/stm32l4xx_hal_smartcard.c ****       return HAL_ERROR;
 1012              		.loc 1 1114 14
 1013 0022 0123     		movs	r3, #1
 1014 0024 35E0     		b	.L48
 1015              	.L47:
1115:Drivers/STM32L4xx_HAL_Driver/Src/stm32l4xx_hal_smartcard.c ****     }
1116:Drivers/STM32L4xx_HAL_Driver/Src/stm32l4xx_hal_smartcard.c **** 
1117:Drivers/STM32L4xx_HAL_Driver/Src/stm32l4xx_hal_smartcard.c ****     /* Process Locked */
1118:Drivers/STM32L4xx_HAL_Driver/Src/stm32l4xx_hal_smartcard.c ****     __HAL_LOCK(hsmartcard);
 1016              		.loc 1 1118 5
 1017 0026 FB68     		ldr	r3, [r7, #12]
 1018 0028 93F87030 		ldrb	r3, [r3, #112]	@ zero_extendqisi2
 1019 002c 012B     		cmp	r3, #1
 1020 002e 01D1     		bne	.L49
 1021              		.loc 1 1118 5 is_stmt 0 discriminator 1
 1022 0030 0223     		movs	r3, #2
 1023              		.loc 1 1118 5
 1024 0032 2EE0     		b	.L48
 1025              	.L49:
 1026              		.loc 1 1118 5 discriminator 2
 1027 0034 FB68     		ldr	r3, [r7, #12]
 1028 0036 0122     		movs	r2, #1
 1029 0038 83F87020 		strb	r2, [r3, #112]
1119:Drivers/STM32L4xx_HAL_Driver/Src/stm32l4xx_hal_smartcard.c **** 
1120:Drivers/STM32L4xx_HAL_Driver/Src/stm32l4xx_hal_smartcard.c ****     hsmartcard->ErrorCode = HAL_SMARTCARD_ERROR_NONE;
 1030              		.loc 1 1120 27 is_stmt 1
 1031 003c FB68     		ldr	r3, [r7, #12]
 1032 003e 0022     		movs	r2, #0
 1033 0040 DA67     		str	r2, [r3, #124]
1121:Drivers/STM32L4xx_HAL_Driver/Src/stm32l4xx_hal_smartcard.c ****     hsmartcard->RxState   = HAL_SMARTCARD_STATE_BUSY_RX;
 1034              		.loc 1 1121 27
 1035 0042 FB68     		ldr	r3, [r7, #12]
 1036 0044 2222     		movs	r2, #34
 1037 0046 9A67     		str	r2, [r3, #120]
1122:Drivers/STM32L4xx_HAL_Driver/Src/stm32l4xx_hal_smartcard.c **** 
1123:Drivers/STM32L4xx_HAL_Driver/Src/stm32l4xx_hal_smartcard.c ****     hsmartcard->pRxBuffPtr = pData;
 1038              		.loc 1 1123 28
 1039 0048 FB68     		ldr	r3, [r7, #12]
 1040 004a BA68     		ldr	r2, [r7, #8]
 1041 004c 9A65     		str	r2, [r3, #88]
1124:Drivers/STM32L4xx_HAL_Driver/Src/stm32l4xx_hal_smartcard.c ****     hsmartcard->RxXferSize = Size;
 1042              		.loc 1 1124 28
 1043 004e FB68     		ldr	r3, [r7, #12]
 1044 0050 FA88     		ldrh	r2, [r7, #6]	@ movhi
 1045 0052 A3F85C20 		strh	r2, [r3, #92]	@ movhi
1125:Drivers/STM32L4xx_HAL_Driver/Src/stm32l4xx_hal_smartcard.c ****     hsmartcard->RxXferCount = Size;
 1046              		.loc 1 1125 29
 1047 0056 FB68     		ldr	r3, [r7, #12]
 1048 0058 FA88     		ldrh	r2, [r7, #6]	@ movhi
 1049 005a A3F85E20 		strh	r2, [r3, #94]	@ movhi
1126:Drivers/STM32L4xx_HAL_Driver/Src/stm32l4xx_hal_smartcard.c **** 
1127:Drivers/STM32L4xx_HAL_Driver/Src/stm32l4xx_hal_smartcard.c ****     /* Configure Rx interrupt processing */
1128:Drivers/STM32L4xx_HAL_Driver/Src/stm32l4xx_hal_smartcard.c **** #if defined(USART_CR1_FIFOEN)
1129:Drivers/STM32L4xx_HAL_Driver/Src/stm32l4xx_hal_smartcard.c ****     if ((hsmartcard->FifoMode == SMARTCARD_FIFOMODE_ENABLE) && (Size >= hsmartcard->NbRxDataToProce
ARM GAS  /tmp/ccDAjxq4.s 			page 39


1130:Drivers/STM32L4xx_HAL_Driver/Src/stm32l4xx_hal_smartcard.c ****     {
1131:Drivers/STM32L4xx_HAL_Driver/Src/stm32l4xx_hal_smartcard.c ****       /* Set the Rx ISR function pointer */
1132:Drivers/STM32L4xx_HAL_Driver/Src/stm32l4xx_hal_smartcard.c ****       hsmartcard->RxISR = SMARTCARD_RxISR_FIFOEN;
1133:Drivers/STM32L4xx_HAL_Driver/Src/stm32l4xx_hal_smartcard.c **** 
1134:Drivers/STM32L4xx_HAL_Driver/Src/stm32l4xx_hal_smartcard.c ****       /* Process Unlocked */
1135:Drivers/STM32L4xx_HAL_Driver/Src/stm32l4xx_hal_smartcard.c ****       __HAL_UNLOCK(hsmartcard);
1136:Drivers/STM32L4xx_HAL_Driver/Src/stm32l4xx_hal_smartcard.c **** 
1137:Drivers/STM32L4xx_HAL_Driver/Src/stm32l4xx_hal_smartcard.c ****       /* Enable the SMARTCART Parity Error interrupt and RX FIFO Threshold interrupt */
1138:Drivers/STM32L4xx_HAL_Driver/Src/stm32l4xx_hal_smartcard.c ****       SET_BIT(hsmartcard->Instance->CR1, USART_CR1_PEIE);
1139:Drivers/STM32L4xx_HAL_Driver/Src/stm32l4xx_hal_smartcard.c ****       SET_BIT(hsmartcard->Instance->CR3, USART_CR3_RXFTIE);
1140:Drivers/STM32L4xx_HAL_Driver/Src/stm32l4xx_hal_smartcard.c ****     }
1141:Drivers/STM32L4xx_HAL_Driver/Src/stm32l4xx_hal_smartcard.c ****     else
1142:Drivers/STM32L4xx_HAL_Driver/Src/stm32l4xx_hal_smartcard.c ****     {
1143:Drivers/STM32L4xx_HAL_Driver/Src/stm32l4xx_hal_smartcard.c ****       /* Set the Rx ISR function pointer */
1144:Drivers/STM32L4xx_HAL_Driver/Src/stm32l4xx_hal_smartcard.c ****       hsmartcard->RxISR = SMARTCARD_RxISR;
1145:Drivers/STM32L4xx_HAL_Driver/Src/stm32l4xx_hal_smartcard.c **** 
1146:Drivers/STM32L4xx_HAL_Driver/Src/stm32l4xx_hal_smartcard.c ****       /* Process Unlocked */
1147:Drivers/STM32L4xx_HAL_Driver/Src/stm32l4xx_hal_smartcard.c ****       __HAL_UNLOCK(hsmartcard);
1148:Drivers/STM32L4xx_HAL_Driver/Src/stm32l4xx_hal_smartcard.c **** 
1149:Drivers/STM32L4xx_HAL_Driver/Src/stm32l4xx_hal_smartcard.c ****       /* Enable the SMARTCARD Parity Error and Data Register not empty Interrupts */
1150:Drivers/STM32L4xx_HAL_Driver/Src/stm32l4xx_hal_smartcard.c ****       SET_BIT(hsmartcard->Instance->CR1, USART_CR1_PEIE | USART_CR1_RXNEIE_RXFNEIE);
1151:Drivers/STM32L4xx_HAL_Driver/Src/stm32l4xx_hal_smartcard.c ****     }
1152:Drivers/STM32L4xx_HAL_Driver/Src/stm32l4xx_hal_smartcard.c **** #else
1153:Drivers/STM32L4xx_HAL_Driver/Src/stm32l4xx_hal_smartcard.c ****     /* Set the Rx ISR function pointer */
1154:Drivers/STM32L4xx_HAL_Driver/Src/stm32l4xx_hal_smartcard.c ****     hsmartcard->RxISR = SMARTCARD_RxISR;
 1050              		.loc 1 1154 23
 1051 005e FB68     		ldr	r3, [r7, #12]
 1052 0060 0F4A     		ldr	r2, .L50
 1053 0062 1A66     		str	r2, [r3, #96]
1155:Drivers/STM32L4xx_HAL_Driver/Src/stm32l4xx_hal_smartcard.c **** 
1156:Drivers/STM32L4xx_HAL_Driver/Src/stm32l4xx_hal_smartcard.c ****     /* Process Unlocked */
1157:Drivers/STM32L4xx_HAL_Driver/Src/stm32l4xx_hal_smartcard.c ****     __HAL_UNLOCK(hsmartcard);
 1054              		.loc 1 1157 5
 1055 0064 FB68     		ldr	r3, [r7, #12]
 1056 0066 0022     		movs	r2, #0
 1057 0068 83F87020 		strb	r2, [r3, #112]
1158:Drivers/STM32L4xx_HAL_Driver/Src/stm32l4xx_hal_smartcard.c **** 
1159:Drivers/STM32L4xx_HAL_Driver/Src/stm32l4xx_hal_smartcard.c ****     /* Enable the SMARTCARD Parity Error and Data Register not empty Interrupts */
1160:Drivers/STM32L4xx_HAL_Driver/Src/stm32l4xx_hal_smartcard.c ****     SET_BIT(hsmartcard->Instance->CR1, USART_CR1_PEIE | USART_CR1_RXNEIE);
 1058              		.loc 1 1160 5
 1059 006c FB68     		ldr	r3, [r7, #12]
 1060 006e 1B68     		ldr	r3, [r3]
 1061 0070 1A68     		ldr	r2, [r3]
 1062 0072 FB68     		ldr	r3, [r7, #12]
 1063 0074 1B68     		ldr	r3, [r3]
 1064 0076 42F49072 		orr	r2, r2, #288
 1065 007a 1A60     		str	r2, [r3]
1161:Drivers/STM32L4xx_HAL_Driver/Src/stm32l4xx_hal_smartcard.c **** #endif /* USART_CR1_FIFOEN */
1162:Drivers/STM32L4xx_HAL_Driver/Src/stm32l4xx_hal_smartcard.c **** 
1163:Drivers/STM32L4xx_HAL_Driver/Src/stm32l4xx_hal_smartcard.c ****     /* Enable the SMARTCARD Error Interrupt: (Frame error, noise error, overrun error) */
1164:Drivers/STM32L4xx_HAL_Driver/Src/stm32l4xx_hal_smartcard.c ****     SET_BIT(hsmartcard->Instance->CR3, USART_CR3_EIE);
 1066              		.loc 1 1164 5
 1067 007c FB68     		ldr	r3, [r7, #12]
 1068 007e 1B68     		ldr	r3, [r3]
 1069 0080 9A68     		ldr	r2, [r3, #8]
 1070 0082 FB68     		ldr	r3, [r7, #12]
 1071 0084 1B68     		ldr	r3, [r3]
ARM GAS  /tmp/ccDAjxq4.s 			page 40


 1072 0086 42F00102 		orr	r2, r2, #1
 1073 008a 9A60     		str	r2, [r3, #8]
1165:Drivers/STM32L4xx_HAL_Driver/Src/stm32l4xx_hal_smartcard.c **** 
1166:Drivers/STM32L4xx_HAL_Driver/Src/stm32l4xx_hal_smartcard.c ****     return HAL_OK;
 1074              		.loc 1 1166 12
 1075 008c 0023     		movs	r3, #0
 1076 008e 00E0     		b	.L48
 1077              	.L45:
1167:Drivers/STM32L4xx_HAL_Driver/Src/stm32l4xx_hal_smartcard.c ****   }
1168:Drivers/STM32L4xx_HAL_Driver/Src/stm32l4xx_hal_smartcard.c ****   else
1169:Drivers/STM32L4xx_HAL_Driver/Src/stm32l4xx_hal_smartcard.c ****   {
1170:Drivers/STM32L4xx_HAL_Driver/Src/stm32l4xx_hal_smartcard.c ****     return HAL_BUSY;
 1078              		.loc 1 1170 12
 1079 0090 0223     		movs	r3, #2
 1080              	.L48:
1171:Drivers/STM32L4xx_HAL_Driver/Src/stm32l4xx_hal_smartcard.c ****   }
1172:Drivers/STM32L4xx_HAL_Driver/Src/stm32l4xx_hal_smartcard.c **** }
 1081              		.loc 1 1172 1
 1082 0092 1846     		mov	r0, r3
 1083 0094 1437     		adds	r7, r7, #20
 1084              		.cfi_def_cfa_offset 4
 1085 0096 BD46     		mov	sp, r7
 1086              		.cfi_def_cfa_register 13
 1087              		@ sp needed
 1088 0098 5DF8047B 		ldr	r7, [sp], #4
 1089              		.cfi_restore 7
 1090              		.cfi_def_cfa_offset 0
 1091 009c 7047     		bx	lr
 1092              	.L51:
 1093 009e 00BF     		.align	2
 1094              	.L50:
 1095 00a0 00000000 		.word	SMARTCARD_RxISR
 1096              		.cfi_endproc
 1097              	.LFE452:
 1099              		.section	.text.HAL_SMARTCARD_Transmit_DMA,"ax",%progbits
 1100              		.align	1
 1101              		.global	HAL_SMARTCARD_Transmit_DMA
 1102              		.syntax unified
 1103              		.thumb
 1104              		.thumb_func
 1106              	HAL_SMARTCARD_Transmit_DMA:
 1107              	.LFB453:
1173:Drivers/STM32L4xx_HAL_Driver/Src/stm32l4xx_hal_smartcard.c **** 
1174:Drivers/STM32L4xx_HAL_Driver/Src/stm32l4xx_hal_smartcard.c **** /**
1175:Drivers/STM32L4xx_HAL_Driver/Src/stm32l4xx_hal_smartcard.c ****   * @brief  Send an amount of data in DMA mode.
1176:Drivers/STM32L4xx_HAL_Driver/Src/stm32l4xx_hal_smartcard.c ****   * @param  hsmartcard Pointer to a SMARTCARD_HandleTypeDef structure that contains
1177:Drivers/STM32L4xx_HAL_Driver/Src/stm32l4xx_hal_smartcard.c ****   *                    the configuration information for the specified SMARTCARD module.
1178:Drivers/STM32L4xx_HAL_Driver/Src/stm32l4xx_hal_smartcard.c ****   * @param  pData pointer to data buffer.
1179:Drivers/STM32L4xx_HAL_Driver/Src/stm32l4xx_hal_smartcard.c ****   * @param  Size amount of data to be sent.
1180:Drivers/STM32L4xx_HAL_Driver/Src/stm32l4xx_hal_smartcard.c ****   * @retval HAL status
1181:Drivers/STM32L4xx_HAL_Driver/Src/stm32l4xx_hal_smartcard.c ****   */
1182:Drivers/STM32L4xx_HAL_Driver/Src/stm32l4xx_hal_smartcard.c **** HAL_StatusTypeDef HAL_SMARTCARD_Transmit_DMA(SMARTCARD_HandleTypeDef *hsmartcard, const uint8_t *pD
1183:Drivers/STM32L4xx_HAL_Driver/Src/stm32l4xx_hal_smartcard.c **** {
 1108              		.loc 1 1183 1
 1109              		.cfi_startproc
 1110              		@ args = 0, pretend = 0, frame = 16
 1111              		@ frame_needed = 1, uses_anonymous_args = 0
ARM GAS  /tmp/ccDAjxq4.s 			page 41


 1112 0000 80B5     		push	{r7, lr}
 1113              		.cfi_def_cfa_offset 8
 1114              		.cfi_offset 7, -8
 1115              		.cfi_offset 14, -4
 1116 0002 84B0     		sub	sp, sp, #16
 1117              		.cfi_def_cfa_offset 24
 1118 0004 00AF     		add	r7, sp, #0
 1119              		.cfi_def_cfa_register 7
 1120 0006 F860     		str	r0, [r7, #12]
 1121 0008 B960     		str	r1, [r7, #8]
 1122 000a 1346     		mov	r3, r2
 1123 000c FB80     		strh	r3, [r7, #6]	@ movhi
1184:Drivers/STM32L4xx_HAL_Driver/Src/stm32l4xx_hal_smartcard.c ****   /* Check that a Tx process is not already ongoing */
1185:Drivers/STM32L4xx_HAL_Driver/Src/stm32l4xx_hal_smartcard.c ****   if (hsmartcard->gState == HAL_SMARTCARD_STATE_READY)
 1124              		.loc 1 1185 17
 1125 000e FB68     		ldr	r3, [r7, #12]
 1126 0010 5B6F     		ldr	r3, [r3, #116]
 1127              		.loc 1 1185 6
 1128 0012 202B     		cmp	r3, #32
 1129 0014 40F0A180 		bne	.L53
1186:Drivers/STM32L4xx_HAL_Driver/Src/stm32l4xx_hal_smartcard.c ****   {
1187:Drivers/STM32L4xx_HAL_Driver/Src/stm32l4xx_hal_smartcard.c ****     if ((pData == NULL) || (Size == 0U))
 1130              		.loc 1 1187 8
 1131 0018 BB68     		ldr	r3, [r7, #8]
 1132 001a 002B     		cmp	r3, #0
 1133 001c 02D0     		beq	.L54
 1134              		.loc 1 1187 25 discriminator 1
 1135 001e FB88     		ldrh	r3, [r7, #6]
 1136 0020 002B     		cmp	r3, #0
 1137 0022 01D1     		bne	.L55
 1138              	.L54:
1188:Drivers/STM32L4xx_HAL_Driver/Src/stm32l4xx_hal_smartcard.c ****     {
1189:Drivers/STM32L4xx_HAL_Driver/Src/stm32l4xx_hal_smartcard.c ****       return HAL_ERROR;
 1139              		.loc 1 1189 14
 1140 0024 0123     		movs	r3, #1
 1141 0026 99E0     		b	.L56
 1142              	.L55:
1190:Drivers/STM32L4xx_HAL_Driver/Src/stm32l4xx_hal_smartcard.c ****     }
1191:Drivers/STM32L4xx_HAL_Driver/Src/stm32l4xx_hal_smartcard.c **** 
1192:Drivers/STM32L4xx_HAL_Driver/Src/stm32l4xx_hal_smartcard.c ****     /* Process Locked */
1193:Drivers/STM32L4xx_HAL_Driver/Src/stm32l4xx_hal_smartcard.c ****     __HAL_LOCK(hsmartcard);
 1143              		.loc 1 1193 5
 1144 0028 FB68     		ldr	r3, [r7, #12]
 1145 002a 93F87030 		ldrb	r3, [r3, #112]	@ zero_extendqisi2
 1146 002e 012B     		cmp	r3, #1
 1147 0030 01D1     		bne	.L57
 1148              		.loc 1 1193 5 is_stmt 0 discriminator 1
 1149 0032 0223     		movs	r3, #2
 1150              		.loc 1 1193 5
 1151 0034 92E0     		b	.L56
 1152              	.L57:
 1153              		.loc 1 1193 5 discriminator 2
 1154 0036 FB68     		ldr	r3, [r7, #12]
 1155 0038 0122     		movs	r2, #1
 1156 003a 83F87020 		strb	r2, [r3, #112]
1194:Drivers/STM32L4xx_HAL_Driver/Src/stm32l4xx_hal_smartcard.c **** 
1195:Drivers/STM32L4xx_HAL_Driver/Src/stm32l4xx_hal_smartcard.c ****     hsmartcard->gState = HAL_SMARTCARD_STATE_BUSY_TX;
ARM GAS  /tmp/ccDAjxq4.s 			page 42


 1157              		.loc 1 1195 24 is_stmt 1
 1158 003e FB68     		ldr	r3, [r7, #12]
 1159 0040 2122     		movs	r2, #33
 1160 0042 5A67     		str	r2, [r3, #116]
1196:Drivers/STM32L4xx_HAL_Driver/Src/stm32l4xx_hal_smartcard.c **** 
1197:Drivers/STM32L4xx_HAL_Driver/Src/stm32l4xx_hal_smartcard.c ****     hsmartcard->ErrorCode = HAL_SMARTCARD_ERROR_NONE;
 1161              		.loc 1 1197 27
 1162 0044 FB68     		ldr	r3, [r7, #12]
 1163 0046 0022     		movs	r2, #0
 1164 0048 DA67     		str	r2, [r3, #124]
1198:Drivers/STM32L4xx_HAL_Driver/Src/stm32l4xx_hal_smartcard.c ****     hsmartcard->pTxBuffPtr = pData;
 1165              		.loc 1 1198 28
 1166 004a FB68     		ldr	r3, [r7, #12]
 1167 004c BA68     		ldr	r2, [r7, #8]
 1168 004e 1A65     		str	r2, [r3, #80]
1199:Drivers/STM32L4xx_HAL_Driver/Src/stm32l4xx_hal_smartcard.c ****     hsmartcard->TxXferSize = Size;
 1169              		.loc 1 1199 28
 1170 0050 FB68     		ldr	r3, [r7, #12]
 1171 0052 FA88     		ldrh	r2, [r7, #6]	@ movhi
 1172 0054 A3F85420 		strh	r2, [r3, #84]	@ movhi
1200:Drivers/STM32L4xx_HAL_Driver/Src/stm32l4xx_hal_smartcard.c ****     hsmartcard->TxXferCount = Size;
 1173              		.loc 1 1200 29
 1174 0058 FB68     		ldr	r3, [r7, #12]
 1175 005a FA88     		ldrh	r2, [r7, #6]	@ movhi
 1176 005c A3F85620 		strh	r2, [r3, #86]	@ movhi
1201:Drivers/STM32L4xx_HAL_Driver/Src/stm32l4xx_hal_smartcard.c **** 
1202:Drivers/STM32L4xx_HAL_Driver/Src/stm32l4xx_hal_smartcard.c ****     /* Disable the Peripheral first to update mode for TX master */
1203:Drivers/STM32L4xx_HAL_Driver/Src/stm32l4xx_hal_smartcard.c ****     CLEAR_BIT(hsmartcard->Instance->CR1, USART_CR1_UE);
 1177              		.loc 1 1203 5
 1178 0060 FB68     		ldr	r3, [r7, #12]
 1179 0062 1B68     		ldr	r3, [r3]
 1180 0064 1A68     		ldr	r2, [r3]
 1181 0066 FB68     		ldr	r3, [r7, #12]
 1182 0068 1B68     		ldr	r3, [r3]
 1183 006a 22F00102 		bic	r2, r2, #1
 1184 006e 1A60     		str	r2, [r3]
1204:Drivers/STM32L4xx_HAL_Driver/Src/stm32l4xx_hal_smartcard.c **** 
1205:Drivers/STM32L4xx_HAL_Driver/Src/stm32l4xx_hal_smartcard.c ****     /* In case of TX only mode, if NACK is enabled, the USART must be able to monitor
1206:Drivers/STM32L4xx_HAL_Driver/Src/stm32l4xx_hal_smartcard.c ****        the bidirectional line to detect a NACK signal in case of parity error.
1207:Drivers/STM32L4xx_HAL_Driver/Src/stm32l4xx_hal_smartcard.c ****        Therefore, the receiver block must be enabled as well (RE bit must be set). */
1208:Drivers/STM32L4xx_HAL_Driver/Src/stm32l4xx_hal_smartcard.c ****     if ((hsmartcard->Init.Mode == SMARTCARD_MODE_TX)
 1185              		.loc 1 1208 26
 1186 0070 FB68     		ldr	r3, [r7, #12]
 1187 0072 5B8A     		ldrh	r3, [r3, #18]
 1188              		.loc 1 1208 8
 1189 0074 082B     		cmp	r3, #8
 1190 0076 0BD1     		bne	.L58
1209:Drivers/STM32L4xx_HAL_Driver/Src/stm32l4xx_hal_smartcard.c ****         && (hsmartcard->Init.NACKEnable == SMARTCARD_NACK_ENABLE))
 1191              		.loc 1 1209 29
 1192 0078 FB68     		ldr	r3, [r7, #12]
 1193 007a DB8B     		ldrh	r3, [r3, #30]
 1194              		.loc 1 1209 9
 1195 007c 102B     		cmp	r3, #16
 1196 007e 07D1     		bne	.L58
1210:Drivers/STM32L4xx_HAL_Driver/Src/stm32l4xx_hal_smartcard.c ****     {
1211:Drivers/STM32L4xx_HAL_Driver/Src/stm32l4xx_hal_smartcard.c ****       SET_BIT(hsmartcard->Instance->CR1, USART_CR1_RE);
 1197              		.loc 1 1211 7
ARM GAS  /tmp/ccDAjxq4.s 			page 43


 1198 0080 FB68     		ldr	r3, [r7, #12]
 1199 0082 1B68     		ldr	r3, [r3]
 1200 0084 1A68     		ldr	r2, [r3]
 1201 0086 FB68     		ldr	r3, [r7, #12]
 1202 0088 1B68     		ldr	r3, [r3]
 1203 008a 42F00402 		orr	r2, r2, #4
 1204 008e 1A60     		str	r2, [r3]
 1205              	.L58:
1212:Drivers/STM32L4xx_HAL_Driver/Src/stm32l4xx_hal_smartcard.c ****     }
1213:Drivers/STM32L4xx_HAL_Driver/Src/stm32l4xx_hal_smartcard.c ****     /* Enable Tx */
1214:Drivers/STM32L4xx_HAL_Driver/Src/stm32l4xx_hal_smartcard.c ****     SET_BIT(hsmartcard->Instance->CR1, USART_CR1_TE);
 1206              		.loc 1 1214 5
 1207 0090 FB68     		ldr	r3, [r7, #12]
 1208 0092 1B68     		ldr	r3, [r3]
 1209 0094 1A68     		ldr	r2, [r3]
 1210 0096 FB68     		ldr	r3, [r7, #12]
 1211 0098 1B68     		ldr	r3, [r3]
 1212 009a 42F00802 		orr	r2, r2, #8
 1213 009e 1A60     		str	r2, [r3]
1215:Drivers/STM32L4xx_HAL_Driver/Src/stm32l4xx_hal_smartcard.c **** 
1216:Drivers/STM32L4xx_HAL_Driver/Src/stm32l4xx_hal_smartcard.c ****     /* Enable the Peripheral */
1217:Drivers/STM32L4xx_HAL_Driver/Src/stm32l4xx_hal_smartcard.c ****     SET_BIT(hsmartcard->Instance->CR1, USART_CR1_UE);
 1214              		.loc 1 1217 5
 1215 00a0 FB68     		ldr	r3, [r7, #12]
 1216 00a2 1B68     		ldr	r3, [r3]
 1217 00a4 1A68     		ldr	r2, [r3]
 1218 00a6 FB68     		ldr	r3, [r7, #12]
 1219 00a8 1B68     		ldr	r3, [r3]
 1220 00aa 42F00102 		orr	r2, r2, #1
 1221 00ae 1A60     		str	r2, [r3]
1218:Drivers/STM32L4xx_HAL_Driver/Src/stm32l4xx_hal_smartcard.c **** 
1219:Drivers/STM32L4xx_HAL_Driver/Src/stm32l4xx_hal_smartcard.c ****     /* Perform a TX/RX FIFO Flush */
1220:Drivers/STM32L4xx_HAL_Driver/Src/stm32l4xx_hal_smartcard.c ****     __HAL_SMARTCARD_FLUSH_DRREGISTER(hsmartcard);
 1222              		.loc 1 1220 5
 1223 00b0 FB68     		ldr	r3, [r7, #12]
 1224 00b2 1B68     		ldr	r3, [r3]
 1225 00b4 9A69     		ldr	r2, [r3, #24]
 1226 00b6 FB68     		ldr	r3, [r7, #12]
 1227 00b8 1B68     		ldr	r3, [r3]
 1228 00ba 42F00802 		orr	r2, r2, #8
 1229 00be 9A61     		str	r2, [r3, #24]
 1230 00c0 FB68     		ldr	r3, [r7, #12]
 1231 00c2 1B68     		ldr	r3, [r3]
 1232 00c4 9A69     		ldr	r2, [r3, #24]
 1233 00c6 FB68     		ldr	r3, [r7, #12]
 1234 00c8 1B68     		ldr	r3, [r3]
 1235 00ca 42F01002 		orr	r2, r2, #16
 1236 00ce 9A61     		str	r2, [r3, #24]
1221:Drivers/STM32L4xx_HAL_Driver/Src/stm32l4xx_hal_smartcard.c **** 
1222:Drivers/STM32L4xx_HAL_Driver/Src/stm32l4xx_hal_smartcard.c ****     /* Set the SMARTCARD DMA transfer complete callback */
1223:Drivers/STM32L4xx_HAL_Driver/Src/stm32l4xx_hal_smartcard.c ****     hsmartcard->hdmatx->XferCpltCallback = SMARTCARD_DMATransmitCplt;
 1237              		.loc 1 1223 15
 1238 00d0 FB68     		ldr	r3, [r7, #12]
 1239 00d2 9B6E     		ldr	r3, [r3, #104]
 1240              		.loc 1 1223 42
 1241 00d4 234A     		ldr	r2, .L60
 1242 00d6 DA62     		str	r2, [r3, #44]
ARM GAS  /tmp/ccDAjxq4.s 			page 44


1224:Drivers/STM32L4xx_HAL_Driver/Src/stm32l4xx_hal_smartcard.c **** 
1225:Drivers/STM32L4xx_HAL_Driver/Src/stm32l4xx_hal_smartcard.c ****     /* Set the SMARTCARD error callback */
1226:Drivers/STM32L4xx_HAL_Driver/Src/stm32l4xx_hal_smartcard.c ****     hsmartcard->hdmatx->XferErrorCallback = SMARTCARD_DMAError;
 1243              		.loc 1 1226 15
 1244 00d8 FB68     		ldr	r3, [r7, #12]
 1245 00da 9B6E     		ldr	r3, [r3, #104]
 1246              		.loc 1 1226 43
 1247 00dc 224A     		ldr	r2, .L60+4
 1248 00de 5A63     		str	r2, [r3, #52]
1227:Drivers/STM32L4xx_HAL_Driver/Src/stm32l4xx_hal_smartcard.c **** 
1228:Drivers/STM32L4xx_HAL_Driver/Src/stm32l4xx_hal_smartcard.c ****     /* Set the DMA abort callback */
1229:Drivers/STM32L4xx_HAL_Driver/Src/stm32l4xx_hal_smartcard.c ****     hsmartcard->hdmatx->XferAbortCallback = NULL;
 1249              		.loc 1 1229 15
 1250 00e0 FB68     		ldr	r3, [r7, #12]
 1251 00e2 9B6E     		ldr	r3, [r3, #104]
 1252              		.loc 1 1229 43
 1253 00e4 0022     		movs	r2, #0
 1254 00e6 9A63     		str	r2, [r3, #56]
1230:Drivers/STM32L4xx_HAL_Driver/Src/stm32l4xx_hal_smartcard.c **** 
1231:Drivers/STM32L4xx_HAL_Driver/Src/stm32l4xx_hal_smartcard.c ****     /* Enable the SMARTCARD transmit DMA channel */
1232:Drivers/STM32L4xx_HAL_Driver/Src/stm32l4xx_hal_smartcard.c ****     if (HAL_DMA_Start_IT(hsmartcard->hdmatx, (uint32_t)hsmartcard->pTxBuffPtr, (uint32_t)&hsmartcar
 1255              		.loc 1 1232 9
 1256 00e8 FB68     		ldr	r3, [r7, #12]
 1257 00ea 986E     		ldr	r0, [r3, #104]
 1258              		.loc 1 1232 66
 1259 00ec FB68     		ldr	r3, [r7, #12]
 1260 00ee 1B6D     		ldr	r3, [r3, #80]
 1261              		.loc 1 1232 9
 1262 00f0 1946     		mov	r1, r3
 1263              		.loc 1 1232 101
 1264 00f2 FB68     		ldr	r3, [r7, #12]
 1265 00f4 1B68     		ldr	r3, [r3]
 1266              		.loc 1 1232 90
 1267 00f6 2833     		adds	r3, r3, #40
 1268              		.loc 1 1232 9
 1269 00f8 1A46     		mov	r2, r3
 1270 00fa FB88     		ldrh	r3, [r7, #6]
 1271 00fc FFF7FEFF 		bl	HAL_DMA_Start_IT
 1272 0100 0346     		mov	r3, r0
 1273              		.loc 1 1232 8 discriminator 1
 1274 0102 002B     		cmp	r3, #0
 1275 0104 1DD1     		bne	.L59
1233:Drivers/STM32L4xx_HAL_Driver/Src/stm32l4xx_hal_smartcard.c ****                          Size) == HAL_OK)
1234:Drivers/STM32L4xx_HAL_Driver/Src/stm32l4xx_hal_smartcard.c ****     {
1235:Drivers/STM32L4xx_HAL_Driver/Src/stm32l4xx_hal_smartcard.c ****       /* Clear the TC flag in the ICR register */
1236:Drivers/STM32L4xx_HAL_Driver/Src/stm32l4xx_hal_smartcard.c ****       CLEAR_BIT(hsmartcard->Instance->ICR, USART_ICR_TCCF);
 1276              		.loc 1 1236 7
 1277 0106 FB68     		ldr	r3, [r7, #12]
 1278 0108 1B68     		ldr	r3, [r3]
 1279 010a 1A6A     		ldr	r2, [r3, #32]
 1280 010c FB68     		ldr	r3, [r7, #12]
 1281 010e 1B68     		ldr	r3, [r3]
 1282 0110 22F04002 		bic	r2, r2, #64
 1283 0114 1A62     		str	r2, [r3, #32]
1237:Drivers/STM32L4xx_HAL_Driver/Src/stm32l4xx_hal_smartcard.c **** 
1238:Drivers/STM32L4xx_HAL_Driver/Src/stm32l4xx_hal_smartcard.c ****       /* Process Unlocked */
1239:Drivers/STM32L4xx_HAL_Driver/Src/stm32l4xx_hal_smartcard.c ****       __HAL_UNLOCK(hsmartcard);
ARM GAS  /tmp/ccDAjxq4.s 			page 45


 1284              		.loc 1 1239 7
 1285 0116 FB68     		ldr	r3, [r7, #12]
 1286 0118 0022     		movs	r2, #0
 1287 011a 83F87020 		strb	r2, [r3, #112]
1240:Drivers/STM32L4xx_HAL_Driver/Src/stm32l4xx_hal_smartcard.c **** 
1241:Drivers/STM32L4xx_HAL_Driver/Src/stm32l4xx_hal_smartcard.c ****       /* Enable the UART Error Interrupt: (Frame error) */
1242:Drivers/STM32L4xx_HAL_Driver/Src/stm32l4xx_hal_smartcard.c ****       SET_BIT(hsmartcard->Instance->CR3, USART_CR3_EIE);
 1288              		.loc 1 1242 7
 1289 011e FB68     		ldr	r3, [r7, #12]
 1290 0120 1B68     		ldr	r3, [r3]
 1291 0122 9A68     		ldr	r2, [r3, #8]
 1292 0124 FB68     		ldr	r3, [r7, #12]
 1293 0126 1B68     		ldr	r3, [r3]
 1294 0128 42F00102 		orr	r2, r2, #1
 1295 012c 9A60     		str	r2, [r3, #8]
1243:Drivers/STM32L4xx_HAL_Driver/Src/stm32l4xx_hal_smartcard.c **** 
1244:Drivers/STM32L4xx_HAL_Driver/Src/stm32l4xx_hal_smartcard.c ****       /* Enable the DMA transfer for transmit request by setting the DMAT bit
1245:Drivers/STM32L4xx_HAL_Driver/Src/stm32l4xx_hal_smartcard.c ****          in the SMARTCARD associated USART CR3 register */
1246:Drivers/STM32L4xx_HAL_Driver/Src/stm32l4xx_hal_smartcard.c ****       SET_BIT(hsmartcard->Instance->CR3, USART_CR3_DMAT);
 1296              		.loc 1 1246 7
 1297 012e FB68     		ldr	r3, [r7, #12]
 1298 0130 1B68     		ldr	r3, [r3]
 1299 0132 9A68     		ldr	r2, [r3, #8]
 1300 0134 FB68     		ldr	r3, [r7, #12]
 1301 0136 1B68     		ldr	r3, [r3]
 1302 0138 42F08002 		orr	r2, r2, #128
 1303 013c 9A60     		str	r2, [r3, #8]
1247:Drivers/STM32L4xx_HAL_Driver/Src/stm32l4xx_hal_smartcard.c **** 
1248:Drivers/STM32L4xx_HAL_Driver/Src/stm32l4xx_hal_smartcard.c ****       return HAL_OK;
 1304              		.loc 1 1248 14
 1305 013e 0023     		movs	r3, #0
 1306 0140 0CE0     		b	.L56
 1307              	.L59:
1249:Drivers/STM32L4xx_HAL_Driver/Src/stm32l4xx_hal_smartcard.c ****     }
1250:Drivers/STM32L4xx_HAL_Driver/Src/stm32l4xx_hal_smartcard.c ****     else
1251:Drivers/STM32L4xx_HAL_Driver/Src/stm32l4xx_hal_smartcard.c ****     {
1252:Drivers/STM32L4xx_HAL_Driver/Src/stm32l4xx_hal_smartcard.c ****       /* Set error code to DMA */
1253:Drivers/STM32L4xx_HAL_Driver/Src/stm32l4xx_hal_smartcard.c ****       hsmartcard->ErrorCode = HAL_SMARTCARD_ERROR_DMA;
 1308              		.loc 1 1253 29
 1309 0142 FB68     		ldr	r3, [r7, #12]
 1310 0144 1022     		movs	r2, #16
 1311 0146 DA67     		str	r2, [r3, #124]
1254:Drivers/STM32L4xx_HAL_Driver/Src/stm32l4xx_hal_smartcard.c **** 
1255:Drivers/STM32L4xx_HAL_Driver/Src/stm32l4xx_hal_smartcard.c ****       /* Process Unlocked */
1256:Drivers/STM32L4xx_HAL_Driver/Src/stm32l4xx_hal_smartcard.c ****       __HAL_UNLOCK(hsmartcard);
 1312              		.loc 1 1256 7
 1313 0148 FB68     		ldr	r3, [r7, #12]
 1314 014a 0022     		movs	r2, #0
 1315 014c 83F87020 		strb	r2, [r3, #112]
1257:Drivers/STM32L4xx_HAL_Driver/Src/stm32l4xx_hal_smartcard.c **** 
1258:Drivers/STM32L4xx_HAL_Driver/Src/stm32l4xx_hal_smartcard.c ****       /* Restore hsmartcard->State to ready */
1259:Drivers/STM32L4xx_HAL_Driver/Src/stm32l4xx_hal_smartcard.c ****       hsmartcard->gState = HAL_SMARTCARD_STATE_READY;
 1316              		.loc 1 1259 26
 1317 0150 FB68     		ldr	r3, [r7, #12]
 1318 0152 2022     		movs	r2, #32
 1319 0154 5A67     		str	r2, [r3, #116]
1260:Drivers/STM32L4xx_HAL_Driver/Src/stm32l4xx_hal_smartcard.c **** 
ARM GAS  /tmp/ccDAjxq4.s 			page 46


1261:Drivers/STM32L4xx_HAL_Driver/Src/stm32l4xx_hal_smartcard.c ****       return HAL_ERROR;
 1320              		.loc 1 1261 14
 1321 0156 0123     		movs	r3, #1
 1322 0158 00E0     		b	.L56
 1323              	.L53:
1262:Drivers/STM32L4xx_HAL_Driver/Src/stm32l4xx_hal_smartcard.c ****     }
1263:Drivers/STM32L4xx_HAL_Driver/Src/stm32l4xx_hal_smartcard.c ****   }
1264:Drivers/STM32L4xx_HAL_Driver/Src/stm32l4xx_hal_smartcard.c ****   else
1265:Drivers/STM32L4xx_HAL_Driver/Src/stm32l4xx_hal_smartcard.c ****   {
1266:Drivers/STM32L4xx_HAL_Driver/Src/stm32l4xx_hal_smartcard.c ****     return HAL_BUSY;
 1324              		.loc 1 1266 12
 1325 015a 0223     		movs	r3, #2
 1326              	.L56:
1267:Drivers/STM32L4xx_HAL_Driver/Src/stm32l4xx_hal_smartcard.c ****   }
1268:Drivers/STM32L4xx_HAL_Driver/Src/stm32l4xx_hal_smartcard.c **** }
 1327              		.loc 1 1268 1
 1328 015c 1846     		mov	r0, r3
 1329 015e 1037     		adds	r7, r7, #16
 1330              		.cfi_def_cfa_offset 8
 1331 0160 BD46     		mov	sp, r7
 1332              		.cfi_def_cfa_register 13
 1333              		@ sp needed
 1334 0162 80BD     		pop	{r7, pc}
 1335              	.L61:
 1336              		.align	2
 1337              	.L60:
 1338 0164 00000000 		.word	SMARTCARD_DMATransmitCplt
 1339 0168 00000000 		.word	SMARTCARD_DMAError
 1340              		.cfi_endproc
 1341              	.LFE453:
 1343              		.section	.text.HAL_SMARTCARD_Receive_DMA,"ax",%progbits
 1344              		.align	1
 1345              		.global	HAL_SMARTCARD_Receive_DMA
 1346              		.syntax unified
 1347              		.thumb
 1348              		.thumb_func
 1350              	HAL_SMARTCARD_Receive_DMA:
 1351              	.LFB454:
1269:Drivers/STM32L4xx_HAL_Driver/Src/stm32l4xx_hal_smartcard.c **** 
1270:Drivers/STM32L4xx_HAL_Driver/Src/stm32l4xx_hal_smartcard.c **** /**
1271:Drivers/STM32L4xx_HAL_Driver/Src/stm32l4xx_hal_smartcard.c ****   * @brief  Receive an amount of data in DMA mode.
1272:Drivers/STM32L4xx_HAL_Driver/Src/stm32l4xx_hal_smartcard.c ****   * @param  hsmartcard Pointer to a SMARTCARD_HandleTypeDef structure that contains
1273:Drivers/STM32L4xx_HAL_Driver/Src/stm32l4xx_hal_smartcard.c ****   *                    the configuration information for the specified SMARTCARD module.
1274:Drivers/STM32L4xx_HAL_Driver/Src/stm32l4xx_hal_smartcard.c ****   * @param  pData pointer to data buffer.
1275:Drivers/STM32L4xx_HAL_Driver/Src/stm32l4xx_hal_smartcard.c ****   * @param  Size amount of data to be received.
1276:Drivers/STM32L4xx_HAL_Driver/Src/stm32l4xx_hal_smartcard.c ****   * @note   The SMARTCARD-associated USART parity is enabled (PCE = 1),
1277:Drivers/STM32L4xx_HAL_Driver/Src/stm32l4xx_hal_smartcard.c ****   *         the received data contain the parity bit (MSB position).
1278:Drivers/STM32L4xx_HAL_Driver/Src/stm32l4xx_hal_smartcard.c ****   * @retval HAL status
1279:Drivers/STM32L4xx_HAL_Driver/Src/stm32l4xx_hal_smartcard.c ****   */
1280:Drivers/STM32L4xx_HAL_Driver/Src/stm32l4xx_hal_smartcard.c **** HAL_StatusTypeDef HAL_SMARTCARD_Receive_DMA(SMARTCARD_HandleTypeDef *hsmartcard, uint8_t *pData, ui
1281:Drivers/STM32L4xx_HAL_Driver/Src/stm32l4xx_hal_smartcard.c **** {
 1352              		.loc 1 1281 1
 1353              		.cfi_startproc
 1354              		@ args = 0, pretend = 0, frame = 16
 1355              		@ frame_needed = 1, uses_anonymous_args = 0
 1356 0000 80B5     		push	{r7, lr}
 1357              		.cfi_def_cfa_offset 8
ARM GAS  /tmp/ccDAjxq4.s 			page 47


 1358              		.cfi_offset 7, -8
 1359              		.cfi_offset 14, -4
 1360 0002 84B0     		sub	sp, sp, #16
 1361              		.cfi_def_cfa_offset 24
 1362 0004 00AF     		add	r7, sp, #0
 1363              		.cfi_def_cfa_register 7
 1364 0006 F860     		str	r0, [r7, #12]
 1365 0008 B960     		str	r1, [r7, #8]
 1366 000a 1346     		mov	r3, r2
 1367 000c FB80     		strh	r3, [r7, #6]	@ movhi
1282:Drivers/STM32L4xx_HAL_Driver/Src/stm32l4xx_hal_smartcard.c ****   /* Check that a Rx process is not already ongoing */
1283:Drivers/STM32L4xx_HAL_Driver/Src/stm32l4xx_hal_smartcard.c ****   if (hsmartcard->RxState == HAL_SMARTCARD_STATE_READY)
 1368              		.loc 1 1283 17
 1369 000e FB68     		ldr	r3, [r7, #12]
 1370 0010 9B6F     		ldr	r3, [r3, #120]
 1371              		.loc 1 1283 6
 1372 0012 202B     		cmp	r3, #32
 1373 0014 64D1     		bne	.L63
1284:Drivers/STM32L4xx_HAL_Driver/Src/stm32l4xx_hal_smartcard.c ****   {
1285:Drivers/STM32L4xx_HAL_Driver/Src/stm32l4xx_hal_smartcard.c ****     if ((pData == NULL) || (Size == 0U))
 1374              		.loc 1 1285 8
 1375 0016 BB68     		ldr	r3, [r7, #8]
 1376 0018 002B     		cmp	r3, #0
 1377 001a 02D0     		beq	.L64
 1378              		.loc 1 1285 25 discriminator 1
 1379 001c FB88     		ldrh	r3, [r7, #6]
 1380 001e 002B     		cmp	r3, #0
 1381 0020 01D1     		bne	.L65
 1382              	.L64:
1286:Drivers/STM32L4xx_HAL_Driver/Src/stm32l4xx_hal_smartcard.c ****     {
1287:Drivers/STM32L4xx_HAL_Driver/Src/stm32l4xx_hal_smartcard.c ****       return HAL_ERROR;
 1383              		.loc 1 1287 14
 1384 0022 0123     		movs	r3, #1
 1385 0024 5DE0     		b	.L66
 1386              	.L65:
1288:Drivers/STM32L4xx_HAL_Driver/Src/stm32l4xx_hal_smartcard.c ****     }
1289:Drivers/STM32L4xx_HAL_Driver/Src/stm32l4xx_hal_smartcard.c **** 
1290:Drivers/STM32L4xx_HAL_Driver/Src/stm32l4xx_hal_smartcard.c ****     /* Process Locked */
1291:Drivers/STM32L4xx_HAL_Driver/Src/stm32l4xx_hal_smartcard.c ****     __HAL_LOCK(hsmartcard);
 1387              		.loc 1 1291 5
 1388 0026 FB68     		ldr	r3, [r7, #12]
 1389 0028 93F87030 		ldrb	r3, [r3, #112]	@ zero_extendqisi2
 1390 002c 012B     		cmp	r3, #1
 1391 002e 01D1     		bne	.L67
 1392              		.loc 1 1291 5 is_stmt 0 discriminator 1
 1393 0030 0223     		movs	r3, #2
 1394              		.loc 1 1291 5
 1395 0032 56E0     		b	.L66
 1396              	.L67:
 1397              		.loc 1 1291 5 discriminator 2
 1398 0034 FB68     		ldr	r3, [r7, #12]
 1399 0036 0122     		movs	r2, #1
 1400 0038 83F87020 		strb	r2, [r3, #112]
1292:Drivers/STM32L4xx_HAL_Driver/Src/stm32l4xx_hal_smartcard.c **** 
1293:Drivers/STM32L4xx_HAL_Driver/Src/stm32l4xx_hal_smartcard.c ****     hsmartcard->ErrorCode = HAL_SMARTCARD_ERROR_NONE;
 1401              		.loc 1 1293 27 is_stmt 1
 1402 003c FB68     		ldr	r3, [r7, #12]
ARM GAS  /tmp/ccDAjxq4.s 			page 48


 1403 003e 0022     		movs	r2, #0
 1404 0040 DA67     		str	r2, [r3, #124]
1294:Drivers/STM32L4xx_HAL_Driver/Src/stm32l4xx_hal_smartcard.c ****     hsmartcard->RxState   = HAL_SMARTCARD_STATE_BUSY_RX;
 1405              		.loc 1 1294 27
 1406 0042 FB68     		ldr	r3, [r7, #12]
 1407 0044 2222     		movs	r2, #34
 1408 0046 9A67     		str	r2, [r3, #120]
1295:Drivers/STM32L4xx_HAL_Driver/Src/stm32l4xx_hal_smartcard.c **** 
1296:Drivers/STM32L4xx_HAL_Driver/Src/stm32l4xx_hal_smartcard.c ****     hsmartcard->pRxBuffPtr = pData;
 1409              		.loc 1 1296 28
 1410 0048 FB68     		ldr	r3, [r7, #12]
 1411 004a BA68     		ldr	r2, [r7, #8]
 1412 004c 9A65     		str	r2, [r3, #88]
1297:Drivers/STM32L4xx_HAL_Driver/Src/stm32l4xx_hal_smartcard.c ****     hsmartcard->RxXferSize = Size;
 1413              		.loc 1 1297 28
 1414 004e FB68     		ldr	r3, [r7, #12]
 1415 0050 FA88     		ldrh	r2, [r7, #6]	@ movhi
 1416 0052 A3F85C20 		strh	r2, [r3, #92]	@ movhi
1298:Drivers/STM32L4xx_HAL_Driver/Src/stm32l4xx_hal_smartcard.c **** 
1299:Drivers/STM32L4xx_HAL_Driver/Src/stm32l4xx_hal_smartcard.c ****     /* Set the SMARTCARD DMA transfer complete callback */
1300:Drivers/STM32L4xx_HAL_Driver/Src/stm32l4xx_hal_smartcard.c ****     hsmartcard->hdmarx->XferCpltCallback = SMARTCARD_DMAReceiveCplt;
 1417              		.loc 1 1300 15
 1418 0056 FB68     		ldr	r3, [r7, #12]
 1419 0058 DB6E     		ldr	r3, [r3, #108]
 1420              		.loc 1 1300 42
 1421 005a 244A     		ldr	r2, .L69
 1422 005c DA62     		str	r2, [r3, #44]
1301:Drivers/STM32L4xx_HAL_Driver/Src/stm32l4xx_hal_smartcard.c **** 
1302:Drivers/STM32L4xx_HAL_Driver/Src/stm32l4xx_hal_smartcard.c ****     /* Set the SMARTCARD DMA error callback */
1303:Drivers/STM32L4xx_HAL_Driver/Src/stm32l4xx_hal_smartcard.c ****     hsmartcard->hdmarx->XferErrorCallback = SMARTCARD_DMAError;
 1423              		.loc 1 1303 15
 1424 005e FB68     		ldr	r3, [r7, #12]
 1425 0060 DB6E     		ldr	r3, [r3, #108]
 1426              		.loc 1 1303 43
 1427 0062 234A     		ldr	r2, .L69+4
 1428 0064 5A63     		str	r2, [r3, #52]
1304:Drivers/STM32L4xx_HAL_Driver/Src/stm32l4xx_hal_smartcard.c **** 
1305:Drivers/STM32L4xx_HAL_Driver/Src/stm32l4xx_hal_smartcard.c ****     /* Set the DMA abort callback */
1306:Drivers/STM32L4xx_HAL_Driver/Src/stm32l4xx_hal_smartcard.c ****     hsmartcard->hdmarx->XferAbortCallback = NULL;
 1429              		.loc 1 1306 15
 1430 0066 FB68     		ldr	r3, [r7, #12]
 1431 0068 DB6E     		ldr	r3, [r3, #108]
 1432              		.loc 1 1306 43
 1433 006a 0022     		movs	r2, #0
 1434 006c 9A63     		str	r2, [r3, #56]
1307:Drivers/STM32L4xx_HAL_Driver/Src/stm32l4xx_hal_smartcard.c **** 
1308:Drivers/STM32L4xx_HAL_Driver/Src/stm32l4xx_hal_smartcard.c ****     /* Enable the DMA channel */
1309:Drivers/STM32L4xx_HAL_Driver/Src/stm32l4xx_hal_smartcard.c ****     if (HAL_DMA_Start_IT(hsmartcard->hdmarx, (uint32_t)&hsmartcard->Instance->RDR, (uint32_t)hsmart
 1435              		.loc 1 1309 9
 1436 006e FB68     		ldr	r3, [r7, #12]
 1437 0070 D86E     		ldr	r0, [r3, #108]
 1438              		.loc 1 1309 67
 1439 0072 FB68     		ldr	r3, [r7, #12]
 1440 0074 1B68     		ldr	r3, [r3]
 1441              		.loc 1 1309 56
 1442 0076 2433     		adds	r3, r3, #36
 1443              		.loc 1 1309 9
ARM GAS  /tmp/ccDAjxq4.s 			page 49


 1444 0078 1946     		mov	r1, r3
 1445              		.loc 1 1309 104
 1446 007a FB68     		ldr	r3, [r7, #12]
 1447 007c 9B6D     		ldr	r3, [r3, #88]
 1448              		.loc 1 1309 9
 1449 007e 1A46     		mov	r2, r3
 1450 0080 FB88     		ldrh	r3, [r7, #6]
 1451 0082 FFF7FEFF 		bl	HAL_DMA_Start_IT
 1452 0086 0346     		mov	r3, r0
 1453              		.loc 1 1309 8 discriminator 1
 1454 0088 002B     		cmp	r3, #0
 1455 008a 1DD1     		bne	.L68
1310:Drivers/STM32L4xx_HAL_Driver/Src/stm32l4xx_hal_smartcard.c ****                          Size) == HAL_OK)
1311:Drivers/STM32L4xx_HAL_Driver/Src/stm32l4xx_hal_smartcard.c ****     {
1312:Drivers/STM32L4xx_HAL_Driver/Src/stm32l4xx_hal_smartcard.c ****       /* Process Unlocked */
1313:Drivers/STM32L4xx_HAL_Driver/Src/stm32l4xx_hal_smartcard.c ****       __HAL_UNLOCK(hsmartcard);
 1456              		.loc 1 1313 7
 1457 008c FB68     		ldr	r3, [r7, #12]
 1458 008e 0022     		movs	r2, #0
 1459 0090 83F87020 		strb	r2, [r3, #112]
1314:Drivers/STM32L4xx_HAL_Driver/Src/stm32l4xx_hal_smartcard.c **** 
1315:Drivers/STM32L4xx_HAL_Driver/Src/stm32l4xx_hal_smartcard.c ****       /* Enable the SMARTCARD Parity Error Interrupt */
1316:Drivers/STM32L4xx_HAL_Driver/Src/stm32l4xx_hal_smartcard.c ****       SET_BIT(hsmartcard->Instance->CR1, USART_CR1_PEIE);
 1460              		.loc 1 1316 7
 1461 0094 FB68     		ldr	r3, [r7, #12]
 1462 0096 1B68     		ldr	r3, [r3]
 1463 0098 1A68     		ldr	r2, [r3]
 1464 009a FB68     		ldr	r3, [r7, #12]
 1465 009c 1B68     		ldr	r3, [r3]
 1466 009e 42F48072 		orr	r2, r2, #256
 1467 00a2 1A60     		str	r2, [r3]
1317:Drivers/STM32L4xx_HAL_Driver/Src/stm32l4xx_hal_smartcard.c **** 
1318:Drivers/STM32L4xx_HAL_Driver/Src/stm32l4xx_hal_smartcard.c ****       /* Enable the SMARTCARD Error Interrupt: (Frame error, noise error, overrun error) */
1319:Drivers/STM32L4xx_HAL_Driver/Src/stm32l4xx_hal_smartcard.c ****       SET_BIT(hsmartcard->Instance->CR3, USART_CR3_EIE);
 1468              		.loc 1 1319 7
 1469 00a4 FB68     		ldr	r3, [r7, #12]
 1470 00a6 1B68     		ldr	r3, [r3]
 1471 00a8 9A68     		ldr	r2, [r3, #8]
 1472 00aa FB68     		ldr	r3, [r7, #12]
 1473 00ac 1B68     		ldr	r3, [r3]
 1474 00ae 42F00102 		orr	r2, r2, #1
 1475 00b2 9A60     		str	r2, [r3, #8]
1320:Drivers/STM32L4xx_HAL_Driver/Src/stm32l4xx_hal_smartcard.c **** 
1321:Drivers/STM32L4xx_HAL_Driver/Src/stm32l4xx_hal_smartcard.c ****       /* Enable the DMA transfer for the receiver request by setting the DMAR bit
1322:Drivers/STM32L4xx_HAL_Driver/Src/stm32l4xx_hal_smartcard.c ****          in the SMARTCARD associated USART CR3 register */
1323:Drivers/STM32L4xx_HAL_Driver/Src/stm32l4xx_hal_smartcard.c ****       SET_BIT(hsmartcard->Instance->CR3, USART_CR3_DMAR);
 1476              		.loc 1 1323 7
 1477 00b4 FB68     		ldr	r3, [r7, #12]
 1478 00b6 1B68     		ldr	r3, [r3]
 1479 00b8 9A68     		ldr	r2, [r3, #8]
 1480 00ba FB68     		ldr	r3, [r7, #12]
 1481 00bc 1B68     		ldr	r3, [r3]
 1482 00be 42F04002 		orr	r2, r2, #64
 1483 00c2 9A60     		str	r2, [r3, #8]
1324:Drivers/STM32L4xx_HAL_Driver/Src/stm32l4xx_hal_smartcard.c **** 
1325:Drivers/STM32L4xx_HAL_Driver/Src/stm32l4xx_hal_smartcard.c ****       return HAL_OK;
 1484              		.loc 1 1325 14
ARM GAS  /tmp/ccDAjxq4.s 			page 50


 1485 00c4 0023     		movs	r3, #0
 1486 00c6 0CE0     		b	.L66
 1487              	.L68:
1326:Drivers/STM32L4xx_HAL_Driver/Src/stm32l4xx_hal_smartcard.c ****     }
1327:Drivers/STM32L4xx_HAL_Driver/Src/stm32l4xx_hal_smartcard.c ****     else
1328:Drivers/STM32L4xx_HAL_Driver/Src/stm32l4xx_hal_smartcard.c ****     {
1329:Drivers/STM32L4xx_HAL_Driver/Src/stm32l4xx_hal_smartcard.c ****       /* Set error code to DMA */
1330:Drivers/STM32L4xx_HAL_Driver/Src/stm32l4xx_hal_smartcard.c ****       hsmartcard->ErrorCode = HAL_SMARTCARD_ERROR_DMA;
 1488              		.loc 1 1330 29
 1489 00c8 FB68     		ldr	r3, [r7, #12]
 1490 00ca 1022     		movs	r2, #16
 1491 00cc DA67     		str	r2, [r3, #124]
1331:Drivers/STM32L4xx_HAL_Driver/Src/stm32l4xx_hal_smartcard.c **** 
1332:Drivers/STM32L4xx_HAL_Driver/Src/stm32l4xx_hal_smartcard.c ****       /* Process Unlocked */
1333:Drivers/STM32L4xx_HAL_Driver/Src/stm32l4xx_hal_smartcard.c ****       __HAL_UNLOCK(hsmartcard);
 1492              		.loc 1 1333 7
 1493 00ce FB68     		ldr	r3, [r7, #12]
 1494 00d0 0022     		movs	r2, #0
 1495 00d2 83F87020 		strb	r2, [r3, #112]
1334:Drivers/STM32L4xx_HAL_Driver/Src/stm32l4xx_hal_smartcard.c **** 
1335:Drivers/STM32L4xx_HAL_Driver/Src/stm32l4xx_hal_smartcard.c ****       /* Restore hsmartcard->State to ready */
1336:Drivers/STM32L4xx_HAL_Driver/Src/stm32l4xx_hal_smartcard.c ****       hsmartcard->RxState = HAL_SMARTCARD_STATE_READY;
 1496              		.loc 1 1336 27
 1497 00d6 FB68     		ldr	r3, [r7, #12]
 1498 00d8 2022     		movs	r2, #32
 1499 00da 9A67     		str	r2, [r3, #120]
1337:Drivers/STM32L4xx_HAL_Driver/Src/stm32l4xx_hal_smartcard.c **** 
1338:Drivers/STM32L4xx_HAL_Driver/Src/stm32l4xx_hal_smartcard.c ****       return HAL_ERROR;
 1500              		.loc 1 1338 14
 1501 00dc 0123     		movs	r3, #1
 1502 00de 00E0     		b	.L66
 1503              	.L63:
1339:Drivers/STM32L4xx_HAL_Driver/Src/stm32l4xx_hal_smartcard.c ****     }
1340:Drivers/STM32L4xx_HAL_Driver/Src/stm32l4xx_hal_smartcard.c ****   }
1341:Drivers/STM32L4xx_HAL_Driver/Src/stm32l4xx_hal_smartcard.c ****   else
1342:Drivers/STM32L4xx_HAL_Driver/Src/stm32l4xx_hal_smartcard.c ****   {
1343:Drivers/STM32L4xx_HAL_Driver/Src/stm32l4xx_hal_smartcard.c ****     return HAL_BUSY;
 1504              		.loc 1 1343 12
 1505 00e0 0223     		movs	r3, #2
 1506              	.L66:
1344:Drivers/STM32L4xx_HAL_Driver/Src/stm32l4xx_hal_smartcard.c ****   }
1345:Drivers/STM32L4xx_HAL_Driver/Src/stm32l4xx_hal_smartcard.c **** }
 1507              		.loc 1 1345 1
 1508 00e2 1846     		mov	r0, r3
 1509 00e4 1037     		adds	r7, r7, #16
 1510              		.cfi_def_cfa_offset 8
 1511 00e6 BD46     		mov	sp, r7
 1512              		.cfi_def_cfa_register 13
 1513              		@ sp needed
 1514 00e8 80BD     		pop	{r7, pc}
 1515              	.L70:
 1516 00ea 00BF     		.align	2
 1517              	.L69:
 1518 00ec 00000000 		.word	SMARTCARD_DMAReceiveCplt
 1519 00f0 00000000 		.word	SMARTCARD_DMAError
 1520              		.cfi_endproc
 1521              	.LFE454:
ARM GAS  /tmp/ccDAjxq4.s 			page 51


 1523              		.section	.text.HAL_SMARTCARD_Abort,"ax",%progbits
 1524              		.align	1
 1525              		.global	HAL_SMARTCARD_Abort
 1526              		.syntax unified
 1527              		.thumb
 1528              		.thumb_func
 1530              	HAL_SMARTCARD_Abort:
 1531              	.LFB455:
1346:Drivers/STM32L4xx_HAL_Driver/Src/stm32l4xx_hal_smartcard.c **** 
1347:Drivers/STM32L4xx_HAL_Driver/Src/stm32l4xx_hal_smartcard.c **** /**
1348:Drivers/STM32L4xx_HAL_Driver/Src/stm32l4xx_hal_smartcard.c ****   * @brief  Abort ongoing transfers (blocking mode).
1349:Drivers/STM32L4xx_HAL_Driver/Src/stm32l4xx_hal_smartcard.c ****   * @param  hsmartcard Pointer to a SMARTCARD_HandleTypeDef structure that contains
1350:Drivers/STM32L4xx_HAL_Driver/Src/stm32l4xx_hal_smartcard.c ****   *                    the configuration information for the specified SMARTCARD module.
1351:Drivers/STM32L4xx_HAL_Driver/Src/stm32l4xx_hal_smartcard.c ****   * @note   This procedure could be used for aborting any ongoing transfer started in Interrupt or 
1352:Drivers/STM32L4xx_HAL_Driver/Src/stm32l4xx_hal_smartcard.c ****   *         This procedure performs following operations :
1353:Drivers/STM32L4xx_HAL_Driver/Src/stm32l4xx_hal_smartcard.c ****   *           - Disable SMARTCARD Interrupts (Tx and Rx)
1354:Drivers/STM32L4xx_HAL_Driver/Src/stm32l4xx_hal_smartcard.c ****   *           - Disable the DMA transfer in the peripheral register (if enabled)
1355:Drivers/STM32L4xx_HAL_Driver/Src/stm32l4xx_hal_smartcard.c ****   *           - Abort DMA transfer by calling HAL_DMA_Abort (in case of transfer in DMA mode)
1356:Drivers/STM32L4xx_HAL_Driver/Src/stm32l4xx_hal_smartcard.c ****   *           - Set handle State to READY
1357:Drivers/STM32L4xx_HAL_Driver/Src/stm32l4xx_hal_smartcard.c ****   * @note   This procedure is executed in blocking mode : when exiting function, Abort is considere
1358:Drivers/STM32L4xx_HAL_Driver/Src/stm32l4xx_hal_smartcard.c ****   * @retval HAL status
1359:Drivers/STM32L4xx_HAL_Driver/Src/stm32l4xx_hal_smartcard.c ****   */
1360:Drivers/STM32L4xx_HAL_Driver/Src/stm32l4xx_hal_smartcard.c **** HAL_StatusTypeDef HAL_SMARTCARD_Abort(SMARTCARD_HandleTypeDef *hsmartcard)
1361:Drivers/STM32L4xx_HAL_Driver/Src/stm32l4xx_hal_smartcard.c **** {
 1532              		.loc 1 1361 1
 1533              		.cfi_startproc
 1534              		@ args = 0, pretend = 0, frame = 8
 1535              		@ frame_needed = 1, uses_anonymous_args = 0
 1536 0000 80B5     		push	{r7, lr}
 1537              		.cfi_def_cfa_offset 8
 1538              		.cfi_offset 7, -8
 1539              		.cfi_offset 14, -4
 1540 0002 82B0     		sub	sp, sp, #8
 1541              		.cfi_def_cfa_offset 16
 1542 0004 00AF     		add	r7, sp, #0
 1543              		.cfi_def_cfa_register 7
 1544 0006 7860     		str	r0, [r7, #4]
1362:Drivers/STM32L4xx_HAL_Driver/Src/stm32l4xx_hal_smartcard.c **** #if defined(USART_CR1_FIFOEN)
1363:Drivers/STM32L4xx_HAL_Driver/Src/stm32l4xx_hal_smartcard.c ****   /* Disable RTOIE, EOBIE, TXEIE, TCIE, RXNE, PE, RXFT, TXFT and
1364:Drivers/STM32L4xx_HAL_Driver/Src/stm32l4xx_hal_smartcard.c ****      ERR (Frame error, noise error, overrun error) interrupts */
1365:Drivers/STM32L4xx_HAL_Driver/Src/stm32l4xx_hal_smartcard.c ****   CLEAR_BIT(hsmartcard->Instance->CR1,
1366:Drivers/STM32L4xx_HAL_Driver/Src/stm32l4xx_hal_smartcard.c ****             (USART_CR1_RXNEIE_RXFNEIE | USART_CR1_PEIE | USART_CR1_TXEIE_TXFNFIE | USART_CR1_TCIE |
1367:Drivers/STM32L4xx_HAL_Driver/Src/stm32l4xx_hal_smartcard.c ****              USART_CR1_EOBIE));
1368:Drivers/STM32L4xx_HAL_Driver/Src/stm32l4xx_hal_smartcard.c ****   CLEAR_BIT(hsmartcard->Instance->CR3, (USART_CR3_EIE | USART_CR3_RXFTIE | USART_CR3_TXFTIE));
1369:Drivers/STM32L4xx_HAL_Driver/Src/stm32l4xx_hal_smartcard.c **** #else
1370:Drivers/STM32L4xx_HAL_Driver/Src/stm32l4xx_hal_smartcard.c ****   /* Disable RTOIE, EOBIE, TXEIE, TCIE, RXNE, PE and ERR (Frame error, noise error, overrun error) 
1371:Drivers/STM32L4xx_HAL_Driver/Src/stm32l4xx_hal_smartcard.c ****   CLEAR_BIT(hsmartcard->Instance->CR1,
 1545              		.loc 1 1371 3
 1546 0008 7B68     		ldr	r3, [r7, #4]
 1547 000a 1B68     		ldr	r3, [r3]
 1548 000c 1B68     		ldr	r3, [r3]
 1549 000e 7A68     		ldr	r2, [r7, #4]
 1550 0010 1268     		ldr	r2, [r2]
 1551 0012 23F04063 		bic	r3, r3, #201326592
 1552 0016 23F4F073 		bic	r3, r3, #480
 1553 001a 1360     		str	r3, [r2]
1372:Drivers/STM32L4xx_HAL_Driver/Src/stm32l4xx_hal_smartcard.c ****             (USART_CR1_RXNEIE | USART_CR1_PEIE | USART_CR1_TXEIE | USART_CR1_TCIE | USART_CR1_RTOIE
ARM GAS  /tmp/ccDAjxq4.s 			page 52


1373:Drivers/STM32L4xx_HAL_Driver/Src/stm32l4xx_hal_smartcard.c ****              USART_CR1_EOBIE));
1374:Drivers/STM32L4xx_HAL_Driver/Src/stm32l4xx_hal_smartcard.c ****   CLEAR_BIT(hsmartcard->Instance->CR3, USART_CR3_EIE);
 1554              		.loc 1 1374 3
 1555 001c 7B68     		ldr	r3, [r7, #4]
 1556 001e 1B68     		ldr	r3, [r3]
 1557 0020 9A68     		ldr	r2, [r3, #8]
 1558 0022 7B68     		ldr	r3, [r7, #4]
 1559 0024 1B68     		ldr	r3, [r3]
 1560 0026 22F00102 		bic	r2, r2, #1
 1561 002a 9A60     		str	r2, [r3, #8]
1375:Drivers/STM32L4xx_HAL_Driver/Src/stm32l4xx_hal_smartcard.c **** #endif /* USART_CR1_FIFOEN */
1376:Drivers/STM32L4xx_HAL_Driver/Src/stm32l4xx_hal_smartcard.c **** 
1377:Drivers/STM32L4xx_HAL_Driver/Src/stm32l4xx_hal_smartcard.c ****   /* Disable the SMARTCARD DMA Tx request if enabled */
1378:Drivers/STM32L4xx_HAL_Driver/Src/stm32l4xx_hal_smartcard.c ****   if (HAL_IS_BIT_SET(hsmartcard->Instance->CR3, USART_CR3_DMAT))
 1562              		.loc 1 1378 7
 1563 002c 7B68     		ldr	r3, [r7, #4]
 1564 002e 1B68     		ldr	r3, [r3]
 1565 0030 9B68     		ldr	r3, [r3, #8]
 1566 0032 03F08003 		and	r3, r3, #128
 1567              		.loc 1 1378 6
 1568 0036 802B     		cmp	r3, #128
 1569 0038 24D1     		bne	.L72
1379:Drivers/STM32L4xx_HAL_Driver/Src/stm32l4xx_hal_smartcard.c ****   {
1380:Drivers/STM32L4xx_HAL_Driver/Src/stm32l4xx_hal_smartcard.c ****     CLEAR_BIT(hsmartcard->Instance->CR3, USART_CR3_DMAT);
 1570              		.loc 1 1380 5
 1571 003a 7B68     		ldr	r3, [r7, #4]
 1572 003c 1B68     		ldr	r3, [r3]
 1573 003e 9A68     		ldr	r2, [r3, #8]
 1574 0040 7B68     		ldr	r3, [r7, #4]
 1575 0042 1B68     		ldr	r3, [r3]
 1576 0044 22F08002 		bic	r2, r2, #128
 1577 0048 9A60     		str	r2, [r3, #8]
1381:Drivers/STM32L4xx_HAL_Driver/Src/stm32l4xx_hal_smartcard.c **** 
1382:Drivers/STM32L4xx_HAL_Driver/Src/stm32l4xx_hal_smartcard.c ****     /* Abort the SMARTCARD DMA Tx channel : use blocking DMA Abort API (no callback) */
1383:Drivers/STM32L4xx_HAL_Driver/Src/stm32l4xx_hal_smartcard.c ****     if (hsmartcard->hdmatx != NULL)
 1578              		.loc 1 1383 19
 1579 004a 7B68     		ldr	r3, [r7, #4]
 1580 004c 9B6E     		ldr	r3, [r3, #104]
 1581              		.loc 1 1383 8
 1582 004e 002B     		cmp	r3, #0
 1583 0050 18D0     		beq	.L72
1384:Drivers/STM32L4xx_HAL_Driver/Src/stm32l4xx_hal_smartcard.c ****     {
1385:Drivers/STM32L4xx_HAL_Driver/Src/stm32l4xx_hal_smartcard.c ****       /* Set the SMARTCARD DMA Abort callback to Null.
1386:Drivers/STM32L4xx_HAL_Driver/Src/stm32l4xx_hal_smartcard.c ****          No call back execution at end of DMA abort procedure */
1387:Drivers/STM32L4xx_HAL_Driver/Src/stm32l4xx_hal_smartcard.c ****       hsmartcard->hdmatx->XferAbortCallback = NULL;
 1584              		.loc 1 1387 17
 1585 0052 7B68     		ldr	r3, [r7, #4]
 1586 0054 9B6E     		ldr	r3, [r3, #104]
 1587              		.loc 1 1387 45
 1588 0056 0022     		movs	r2, #0
 1589 0058 9A63     		str	r2, [r3, #56]
1388:Drivers/STM32L4xx_HAL_Driver/Src/stm32l4xx_hal_smartcard.c **** 
1389:Drivers/STM32L4xx_HAL_Driver/Src/stm32l4xx_hal_smartcard.c ****       if (HAL_DMA_Abort(hsmartcard->hdmatx) != HAL_OK)
 1590              		.loc 1 1389 11
 1591 005a 7B68     		ldr	r3, [r7, #4]
 1592 005c 9B6E     		ldr	r3, [r3, #104]
 1593 005e 1846     		mov	r0, r3
ARM GAS  /tmp/ccDAjxq4.s 			page 53


 1594 0060 FFF7FEFF 		bl	HAL_DMA_Abort
 1595 0064 0346     		mov	r3, r0
 1596              		.loc 1 1389 10 discriminator 1
 1597 0066 002B     		cmp	r3, #0
 1598 0068 0CD0     		beq	.L72
1390:Drivers/STM32L4xx_HAL_Driver/Src/stm32l4xx_hal_smartcard.c ****       {
1391:Drivers/STM32L4xx_HAL_Driver/Src/stm32l4xx_hal_smartcard.c ****         if (HAL_DMA_GetError(hsmartcard->hdmatx) == HAL_DMA_ERROR_TIMEOUT)
 1599              		.loc 1 1391 13
 1600 006a 7B68     		ldr	r3, [r7, #4]
 1601 006c 9B6E     		ldr	r3, [r3, #104]
 1602 006e 1846     		mov	r0, r3
 1603 0070 FFF7FEFF 		bl	HAL_DMA_GetError
 1604 0074 0346     		mov	r3, r0
 1605              		.loc 1 1391 12 discriminator 1
 1606 0076 202B     		cmp	r3, #32
 1607 0078 04D1     		bne	.L72
1392:Drivers/STM32L4xx_HAL_Driver/Src/stm32l4xx_hal_smartcard.c ****         {
1393:Drivers/STM32L4xx_HAL_Driver/Src/stm32l4xx_hal_smartcard.c ****           /* Set error code to DMA */
1394:Drivers/STM32L4xx_HAL_Driver/Src/stm32l4xx_hal_smartcard.c ****           hsmartcard->ErrorCode = HAL_SMARTCARD_ERROR_DMA;
 1608              		.loc 1 1394 33
 1609 007a 7B68     		ldr	r3, [r7, #4]
 1610 007c 1022     		movs	r2, #16
 1611 007e DA67     		str	r2, [r3, #124]
1395:Drivers/STM32L4xx_HAL_Driver/Src/stm32l4xx_hal_smartcard.c **** 
1396:Drivers/STM32L4xx_HAL_Driver/Src/stm32l4xx_hal_smartcard.c ****           return HAL_TIMEOUT;
 1612              		.loc 1 1396 18
 1613 0080 0323     		movs	r3, #3
 1614 0082 42E0     		b	.L73
 1615              	.L72:
1397:Drivers/STM32L4xx_HAL_Driver/Src/stm32l4xx_hal_smartcard.c ****         }
1398:Drivers/STM32L4xx_HAL_Driver/Src/stm32l4xx_hal_smartcard.c ****       }
1399:Drivers/STM32L4xx_HAL_Driver/Src/stm32l4xx_hal_smartcard.c ****     }
1400:Drivers/STM32L4xx_HAL_Driver/Src/stm32l4xx_hal_smartcard.c ****   }
1401:Drivers/STM32L4xx_HAL_Driver/Src/stm32l4xx_hal_smartcard.c **** 
1402:Drivers/STM32L4xx_HAL_Driver/Src/stm32l4xx_hal_smartcard.c ****   /* Disable the SMARTCARD DMA Rx request if enabled */
1403:Drivers/STM32L4xx_HAL_Driver/Src/stm32l4xx_hal_smartcard.c ****   if (HAL_IS_BIT_SET(hsmartcard->Instance->CR3, USART_CR3_DMAR))
 1616              		.loc 1 1403 7
 1617 0084 7B68     		ldr	r3, [r7, #4]
 1618 0086 1B68     		ldr	r3, [r3]
 1619 0088 9B68     		ldr	r3, [r3, #8]
 1620 008a 03F04003 		and	r3, r3, #64
 1621              		.loc 1 1403 6
 1622 008e 402B     		cmp	r3, #64
 1623 0090 24D1     		bne	.L74
1404:Drivers/STM32L4xx_HAL_Driver/Src/stm32l4xx_hal_smartcard.c ****   {
1405:Drivers/STM32L4xx_HAL_Driver/Src/stm32l4xx_hal_smartcard.c ****     CLEAR_BIT(hsmartcard->Instance->CR3, USART_CR3_DMAR);
 1624              		.loc 1 1405 5
 1625 0092 7B68     		ldr	r3, [r7, #4]
 1626 0094 1B68     		ldr	r3, [r3]
 1627 0096 9A68     		ldr	r2, [r3, #8]
 1628 0098 7B68     		ldr	r3, [r7, #4]
 1629 009a 1B68     		ldr	r3, [r3]
 1630 009c 22F04002 		bic	r2, r2, #64
 1631 00a0 9A60     		str	r2, [r3, #8]
1406:Drivers/STM32L4xx_HAL_Driver/Src/stm32l4xx_hal_smartcard.c **** 
1407:Drivers/STM32L4xx_HAL_Driver/Src/stm32l4xx_hal_smartcard.c ****     /* Abort the SMARTCARD DMA Rx channel : use blocking DMA Abort API (no callback) */
1408:Drivers/STM32L4xx_HAL_Driver/Src/stm32l4xx_hal_smartcard.c ****     if (hsmartcard->hdmarx != NULL)
ARM GAS  /tmp/ccDAjxq4.s 			page 54


 1632              		.loc 1 1408 19
 1633 00a2 7B68     		ldr	r3, [r7, #4]
 1634 00a4 DB6E     		ldr	r3, [r3, #108]
 1635              		.loc 1 1408 8
 1636 00a6 002B     		cmp	r3, #0
 1637 00a8 18D0     		beq	.L74
1409:Drivers/STM32L4xx_HAL_Driver/Src/stm32l4xx_hal_smartcard.c ****     {
1410:Drivers/STM32L4xx_HAL_Driver/Src/stm32l4xx_hal_smartcard.c ****       /* Set the SMARTCARD DMA Abort callback to Null.
1411:Drivers/STM32L4xx_HAL_Driver/Src/stm32l4xx_hal_smartcard.c ****          No call back execution at end of DMA abort procedure */
1412:Drivers/STM32L4xx_HAL_Driver/Src/stm32l4xx_hal_smartcard.c ****       hsmartcard->hdmarx->XferAbortCallback = NULL;
 1638              		.loc 1 1412 17
 1639 00aa 7B68     		ldr	r3, [r7, #4]
 1640 00ac DB6E     		ldr	r3, [r3, #108]
 1641              		.loc 1 1412 45
 1642 00ae 0022     		movs	r2, #0
 1643 00b0 9A63     		str	r2, [r3, #56]
1413:Drivers/STM32L4xx_HAL_Driver/Src/stm32l4xx_hal_smartcard.c **** 
1414:Drivers/STM32L4xx_HAL_Driver/Src/stm32l4xx_hal_smartcard.c ****       if (HAL_DMA_Abort(hsmartcard->hdmarx) != HAL_OK)
 1644              		.loc 1 1414 11
 1645 00b2 7B68     		ldr	r3, [r7, #4]
 1646 00b4 DB6E     		ldr	r3, [r3, #108]
 1647 00b6 1846     		mov	r0, r3
 1648 00b8 FFF7FEFF 		bl	HAL_DMA_Abort
 1649 00bc 0346     		mov	r3, r0
 1650              		.loc 1 1414 10 discriminator 1
 1651 00be 002B     		cmp	r3, #0
 1652 00c0 0CD0     		beq	.L74
1415:Drivers/STM32L4xx_HAL_Driver/Src/stm32l4xx_hal_smartcard.c ****       {
1416:Drivers/STM32L4xx_HAL_Driver/Src/stm32l4xx_hal_smartcard.c ****         if (HAL_DMA_GetError(hsmartcard->hdmarx) == HAL_DMA_ERROR_TIMEOUT)
 1653              		.loc 1 1416 13
 1654 00c2 7B68     		ldr	r3, [r7, #4]
 1655 00c4 DB6E     		ldr	r3, [r3, #108]
 1656 00c6 1846     		mov	r0, r3
 1657 00c8 FFF7FEFF 		bl	HAL_DMA_GetError
 1658 00cc 0346     		mov	r3, r0
 1659              		.loc 1 1416 12 discriminator 1
 1660 00ce 202B     		cmp	r3, #32
 1661 00d0 04D1     		bne	.L74
1417:Drivers/STM32L4xx_HAL_Driver/Src/stm32l4xx_hal_smartcard.c ****         {
1418:Drivers/STM32L4xx_HAL_Driver/Src/stm32l4xx_hal_smartcard.c ****           /* Set error code to DMA */
1419:Drivers/STM32L4xx_HAL_Driver/Src/stm32l4xx_hal_smartcard.c ****           hsmartcard->ErrorCode = HAL_SMARTCARD_ERROR_DMA;
 1662              		.loc 1 1419 33
 1663 00d2 7B68     		ldr	r3, [r7, #4]
 1664 00d4 1022     		movs	r2, #16
 1665 00d6 DA67     		str	r2, [r3, #124]
1420:Drivers/STM32L4xx_HAL_Driver/Src/stm32l4xx_hal_smartcard.c **** 
1421:Drivers/STM32L4xx_HAL_Driver/Src/stm32l4xx_hal_smartcard.c ****           return HAL_TIMEOUT;
 1666              		.loc 1 1421 18
 1667 00d8 0323     		movs	r3, #3
 1668 00da 16E0     		b	.L73
 1669              	.L74:
1422:Drivers/STM32L4xx_HAL_Driver/Src/stm32l4xx_hal_smartcard.c ****         }
1423:Drivers/STM32L4xx_HAL_Driver/Src/stm32l4xx_hal_smartcard.c ****       }
1424:Drivers/STM32L4xx_HAL_Driver/Src/stm32l4xx_hal_smartcard.c ****     }
1425:Drivers/STM32L4xx_HAL_Driver/Src/stm32l4xx_hal_smartcard.c ****   }
1426:Drivers/STM32L4xx_HAL_Driver/Src/stm32l4xx_hal_smartcard.c **** 
1427:Drivers/STM32L4xx_HAL_Driver/Src/stm32l4xx_hal_smartcard.c ****   /* Reset Tx and Rx transfer counters */
ARM GAS  /tmp/ccDAjxq4.s 			page 55


1428:Drivers/STM32L4xx_HAL_Driver/Src/stm32l4xx_hal_smartcard.c ****   hsmartcard->TxXferCount = 0U;
 1670              		.loc 1 1428 27
 1671 00dc 7B68     		ldr	r3, [r7, #4]
 1672 00de 0022     		movs	r2, #0
 1673 00e0 A3F85620 		strh	r2, [r3, #86]	@ movhi
1429:Drivers/STM32L4xx_HAL_Driver/Src/stm32l4xx_hal_smartcard.c ****   hsmartcard->RxXferCount = 0U;
 1674              		.loc 1 1429 27
 1675 00e4 7B68     		ldr	r3, [r7, #4]
 1676 00e6 0022     		movs	r2, #0
 1677 00e8 A3F85E20 		strh	r2, [r3, #94]	@ movhi
1430:Drivers/STM32L4xx_HAL_Driver/Src/stm32l4xx_hal_smartcard.c **** 
1431:Drivers/STM32L4xx_HAL_Driver/Src/stm32l4xx_hal_smartcard.c ****   /* Clear the Error flags in the ICR register */
1432:Drivers/STM32L4xx_HAL_Driver/Src/stm32l4xx_hal_smartcard.c ****   __HAL_SMARTCARD_CLEAR_FLAG(hsmartcard,
 1678              		.loc 1 1432 3
 1679 00ec 7B68     		ldr	r3, [r7, #4]
 1680 00ee 1B68     		ldr	r3, [r3]
 1681 00f0 41F60F02 		movw	r2, #6159
 1682 00f4 1A62     		str	r2, [r3, #32]
1433:Drivers/STM32L4xx_HAL_Driver/Src/stm32l4xx_hal_smartcard.c ****                              SMARTCARD_CLEAR_OREF | SMARTCARD_CLEAR_NEF | SMARTCARD_CLEAR_PEF | SMA
1434:Drivers/STM32L4xx_HAL_Driver/Src/stm32l4xx_hal_smartcard.c ****                              SMARTCARD_CLEAR_RTOF | SMARTCARD_CLEAR_EOBF);
1435:Drivers/STM32L4xx_HAL_Driver/Src/stm32l4xx_hal_smartcard.c **** 
1436:Drivers/STM32L4xx_HAL_Driver/Src/stm32l4xx_hal_smartcard.c ****   /* Restore hsmartcard->gState and hsmartcard->RxState to Ready */
1437:Drivers/STM32L4xx_HAL_Driver/Src/stm32l4xx_hal_smartcard.c ****   hsmartcard->gState  = HAL_SMARTCARD_STATE_READY;
 1683              		.loc 1 1437 23
 1684 00f6 7B68     		ldr	r3, [r7, #4]
 1685 00f8 2022     		movs	r2, #32
 1686 00fa 5A67     		str	r2, [r3, #116]
1438:Drivers/STM32L4xx_HAL_Driver/Src/stm32l4xx_hal_smartcard.c ****   hsmartcard->RxState = HAL_SMARTCARD_STATE_READY;
 1687              		.loc 1 1438 23
 1688 00fc 7B68     		ldr	r3, [r7, #4]
 1689 00fe 2022     		movs	r2, #32
 1690 0100 9A67     		str	r2, [r3, #120]
1439:Drivers/STM32L4xx_HAL_Driver/Src/stm32l4xx_hal_smartcard.c **** 
1440:Drivers/STM32L4xx_HAL_Driver/Src/stm32l4xx_hal_smartcard.c ****   /* Reset Handle ErrorCode to No Error */
1441:Drivers/STM32L4xx_HAL_Driver/Src/stm32l4xx_hal_smartcard.c ****   hsmartcard->ErrorCode = HAL_SMARTCARD_ERROR_NONE;
 1691              		.loc 1 1441 25
 1692 0102 7B68     		ldr	r3, [r7, #4]
 1693 0104 0022     		movs	r2, #0
 1694 0106 DA67     		str	r2, [r3, #124]
1442:Drivers/STM32L4xx_HAL_Driver/Src/stm32l4xx_hal_smartcard.c **** 
1443:Drivers/STM32L4xx_HAL_Driver/Src/stm32l4xx_hal_smartcard.c ****   return HAL_OK;
 1695              		.loc 1 1443 10
 1696 0108 0023     		movs	r3, #0
 1697              	.L73:
1444:Drivers/STM32L4xx_HAL_Driver/Src/stm32l4xx_hal_smartcard.c **** }
 1698              		.loc 1 1444 1
 1699 010a 1846     		mov	r0, r3
 1700 010c 0837     		adds	r7, r7, #8
 1701              		.cfi_def_cfa_offset 8
 1702 010e BD46     		mov	sp, r7
 1703              		.cfi_def_cfa_register 13
 1704              		@ sp needed
 1705 0110 80BD     		pop	{r7, pc}
 1706              		.cfi_endproc
 1707              	.LFE455:
 1709              		.section	.text.HAL_SMARTCARD_AbortTransmit,"ax",%progbits
 1710              		.align	1
ARM GAS  /tmp/ccDAjxq4.s 			page 56


 1711              		.global	HAL_SMARTCARD_AbortTransmit
 1712              		.syntax unified
 1713              		.thumb
 1714              		.thumb_func
 1716              	HAL_SMARTCARD_AbortTransmit:
 1717              	.LFB456:
1445:Drivers/STM32L4xx_HAL_Driver/Src/stm32l4xx_hal_smartcard.c **** 
1446:Drivers/STM32L4xx_HAL_Driver/Src/stm32l4xx_hal_smartcard.c **** /**
1447:Drivers/STM32L4xx_HAL_Driver/Src/stm32l4xx_hal_smartcard.c ****   * @brief  Abort ongoing Transmit transfer (blocking mode).
1448:Drivers/STM32L4xx_HAL_Driver/Src/stm32l4xx_hal_smartcard.c ****   * @param  hsmartcard Pointer to a SMARTCARD_HandleTypeDef structure that contains
1449:Drivers/STM32L4xx_HAL_Driver/Src/stm32l4xx_hal_smartcard.c ****   *                    the configuration information for the specified SMARTCARD module.
1450:Drivers/STM32L4xx_HAL_Driver/Src/stm32l4xx_hal_smartcard.c ****   * @note   This procedure could be used for aborting any ongoing Tx transfer started in Interrupt 
1451:Drivers/STM32L4xx_HAL_Driver/Src/stm32l4xx_hal_smartcard.c ****   *         This procedure performs following operations :
1452:Drivers/STM32L4xx_HAL_Driver/Src/stm32l4xx_hal_smartcard.c ****   *           - Disable SMARTCARD Interrupts (Tx)
1453:Drivers/STM32L4xx_HAL_Driver/Src/stm32l4xx_hal_smartcard.c ****   *           - Disable the DMA transfer in the peripheral register (if enabled)
1454:Drivers/STM32L4xx_HAL_Driver/Src/stm32l4xx_hal_smartcard.c ****   *           - Abort DMA transfer by calling HAL_DMA_Abort (in case of transfer in DMA mode)
1455:Drivers/STM32L4xx_HAL_Driver/Src/stm32l4xx_hal_smartcard.c ****   *           - Set handle State to READY
1456:Drivers/STM32L4xx_HAL_Driver/Src/stm32l4xx_hal_smartcard.c ****   * @note   This procedure is executed in blocking mode : when exiting function, Abort is considere
1457:Drivers/STM32L4xx_HAL_Driver/Src/stm32l4xx_hal_smartcard.c ****   * @retval HAL status
1458:Drivers/STM32L4xx_HAL_Driver/Src/stm32l4xx_hal_smartcard.c ****   */
1459:Drivers/STM32L4xx_HAL_Driver/Src/stm32l4xx_hal_smartcard.c **** HAL_StatusTypeDef HAL_SMARTCARD_AbortTransmit(SMARTCARD_HandleTypeDef *hsmartcard)
1460:Drivers/STM32L4xx_HAL_Driver/Src/stm32l4xx_hal_smartcard.c **** {
 1718              		.loc 1 1460 1
 1719              		.cfi_startproc
 1720              		@ args = 0, pretend = 0, frame = 8
 1721              		@ frame_needed = 1, uses_anonymous_args = 0
 1722 0000 80B5     		push	{r7, lr}
 1723              		.cfi_def_cfa_offset 8
 1724              		.cfi_offset 7, -8
 1725              		.cfi_offset 14, -4
 1726 0002 82B0     		sub	sp, sp, #8
 1727              		.cfi_def_cfa_offset 16
 1728 0004 00AF     		add	r7, sp, #0
 1729              		.cfi_def_cfa_register 7
 1730 0006 7860     		str	r0, [r7, #4]
1461:Drivers/STM32L4xx_HAL_Driver/Src/stm32l4xx_hal_smartcard.c **** #if defined(USART_CR1_FIFOEN)
1462:Drivers/STM32L4xx_HAL_Driver/Src/stm32l4xx_hal_smartcard.c ****   /* Disable TCIE, TXEIE and TXFTIE interrupts */
1463:Drivers/STM32L4xx_HAL_Driver/Src/stm32l4xx_hal_smartcard.c ****   CLEAR_BIT(hsmartcard->Instance->CR1, (USART_CR1_TXEIE_TXFNFIE | USART_CR1_TCIE));
1464:Drivers/STM32L4xx_HAL_Driver/Src/stm32l4xx_hal_smartcard.c ****   CLEAR_BIT(hsmartcard->Instance->CR3, USART_CR3_TXFTIE);
1465:Drivers/STM32L4xx_HAL_Driver/Src/stm32l4xx_hal_smartcard.c **** #else
1466:Drivers/STM32L4xx_HAL_Driver/Src/stm32l4xx_hal_smartcard.c ****   /* Disable TXEIE and TCIE interrupts */
1467:Drivers/STM32L4xx_HAL_Driver/Src/stm32l4xx_hal_smartcard.c ****   CLEAR_BIT(hsmartcard->Instance->CR1, (USART_CR1_TXEIE | USART_CR1_TCIE));
 1731              		.loc 1 1467 3
 1732 0008 7B68     		ldr	r3, [r7, #4]
 1733 000a 1B68     		ldr	r3, [r3]
 1734 000c 1A68     		ldr	r2, [r3]
 1735 000e 7B68     		ldr	r3, [r7, #4]
 1736 0010 1B68     		ldr	r3, [r3]
 1737 0012 22F0C002 		bic	r2, r2, #192
 1738 0016 1A60     		str	r2, [r3]
1468:Drivers/STM32L4xx_HAL_Driver/Src/stm32l4xx_hal_smartcard.c **** #endif /* USART_CR1_FIFOEN */
1469:Drivers/STM32L4xx_HAL_Driver/Src/stm32l4xx_hal_smartcard.c **** 
1470:Drivers/STM32L4xx_HAL_Driver/Src/stm32l4xx_hal_smartcard.c ****   /* Check if a receive process is ongoing or not. If not disable ERR IT */
1471:Drivers/STM32L4xx_HAL_Driver/Src/stm32l4xx_hal_smartcard.c ****   if (hsmartcard->RxState == HAL_SMARTCARD_STATE_READY)
 1739              		.loc 1 1471 17
 1740 0018 7B68     		ldr	r3, [r7, #4]
 1741 001a 9B6F     		ldr	r3, [r3, #120]
ARM GAS  /tmp/ccDAjxq4.s 			page 57


 1742              		.loc 1 1471 6
 1743 001c 202B     		cmp	r3, #32
 1744 001e 07D1     		bne	.L76
1472:Drivers/STM32L4xx_HAL_Driver/Src/stm32l4xx_hal_smartcard.c ****   {
1473:Drivers/STM32L4xx_HAL_Driver/Src/stm32l4xx_hal_smartcard.c ****     /* Disable the SMARTCARD Error Interrupt: (Frame error) */
1474:Drivers/STM32L4xx_HAL_Driver/Src/stm32l4xx_hal_smartcard.c ****     CLEAR_BIT(hsmartcard->Instance->CR3, USART_CR3_EIE);
 1745              		.loc 1 1474 5
 1746 0020 7B68     		ldr	r3, [r7, #4]
 1747 0022 1B68     		ldr	r3, [r3]
 1748 0024 9A68     		ldr	r2, [r3, #8]
 1749 0026 7B68     		ldr	r3, [r7, #4]
 1750 0028 1B68     		ldr	r3, [r3]
 1751 002a 22F00102 		bic	r2, r2, #1
 1752 002e 9A60     		str	r2, [r3, #8]
 1753              	.L76:
1475:Drivers/STM32L4xx_HAL_Driver/Src/stm32l4xx_hal_smartcard.c ****   }
1476:Drivers/STM32L4xx_HAL_Driver/Src/stm32l4xx_hal_smartcard.c **** 
1477:Drivers/STM32L4xx_HAL_Driver/Src/stm32l4xx_hal_smartcard.c ****   /* Disable the SMARTCARD DMA Tx request if enabled */
1478:Drivers/STM32L4xx_HAL_Driver/Src/stm32l4xx_hal_smartcard.c ****   if (HAL_IS_BIT_SET(hsmartcard->Instance->CR3, USART_CR3_DMAT))
 1754              		.loc 1 1478 7
 1755 0030 7B68     		ldr	r3, [r7, #4]
 1756 0032 1B68     		ldr	r3, [r3]
 1757 0034 9B68     		ldr	r3, [r3, #8]
 1758 0036 03F08003 		and	r3, r3, #128
 1759              		.loc 1 1478 6
 1760 003a 802B     		cmp	r3, #128
 1761 003c 24D1     		bne	.L77
1479:Drivers/STM32L4xx_HAL_Driver/Src/stm32l4xx_hal_smartcard.c ****   {
1480:Drivers/STM32L4xx_HAL_Driver/Src/stm32l4xx_hal_smartcard.c ****     CLEAR_BIT(hsmartcard->Instance->CR3, USART_CR3_DMAT);
 1762              		.loc 1 1480 5
 1763 003e 7B68     		ldr	r3, [r7, #4]
 1764 0040 1B68     		ldr	r3, [r3]
 1765 0042 9A68     		ldr	r2, [r3, #8]
 1766 0044 7B68     		ldr	r3, [r7, #4]
 1767 0046 1B68     		ldr	r3, [r3]
 1768 0048 22F08002 		bic	r2, r2, #128
 1769 004c 9A60     		str	r2, [r3, #8]
1481:Drivers/STM32L4xx_HAL_Driver/Src/stm32l4xx_hal_smartcard.c **** 
1482:Drivers/STM32L4xx_HAL_Driver/Src/stm32l4xx_hal_smartcard.c ****     /* Abort the SMARTCARD DMA Tx channel : use blocking DMA Abort API (no callback) */
1483:Drivers/STM32L4xx_HAL_Driver/Src/stm32l4xx_hal_smartcard.c ****     if (hsmartcard->hdmatx != NULL)
 1770              		.loc 1 1483 19
 1771 004e 7B68     		ldr	r3, [r7, #4]
 1772 0050 9B6E     		ldr	r3, [r3, #104]
 1773              		.loc 1 1483 8
 1774 0052 002B     		cmp	r3, #0
 1775 0054 18D0     		beq	.L77
1484:Drivers/STM32L4xx_HAL_Driver/Src/stm32l4xx_hal_smartcard.c ****     {
1485:Drivers/STM32L4xx_HAL_Driver/Src/stm32l4xx_hal_smartcard.c ****       /* Set the SMARTCARD DMA Abort callback to Null.
1486:Drivers/STM32L4xx_HAL_Driver/Src/stm32l4xx_hal_smartcard.c ****          No call back execution at end of DMA abort procedure */
1487:Drivers/STM32L4xx_HAL_Driver/Src/stm32l4xx_hal_smartcard.c ****       hsmartcard->hdmatx->XferAbortCallback = NULL;
 1776              		.loc 1 1487 17
 1777 0056 7B68     		ldr	r3, [r7, #4]
 1778 0058 9B6E     		ldr	r3, [r3, #104]
 1779              		.loc 1 1487 45
 1780 005a 0022     		movs	r2, #0
 1781 005c 9A63     		str	r2, [r3, #56]
1488:Drivers/STM32L4xx_HAL_Driver/Src/stm32l4xx_hal_smartcard.c **** 
ARM GAS  /tmp/ccDAjxq4.s 			page 58


1489:Drivers/STM32L4xx_HAL_Driver/Src/stm32l4xx_hal_smartcard.c ****       if (HAL_DMA_Abort(hsmartcard->hdmatx) != HAL_OK)
 1782              		.loc 1 1489 11
 1783 005e 7B68     		ldr	r3, [r7, #4]
 1784 0060 9B6E     		ldr	r3, [r3, #104]
 1785 0062 1846     		mov	r0, r3
 1786 0064 FFF7FEFF 		bl	HAL_DMA_Abort
 1787 0068 0346     		mov	r3, r0
 1788              		.loc 1 1489 10 discriminator 1
 1789 006a 002B     		cmp	r3, #0
 1790 006c 0CD0     		beq	.L77
1490:Drivers/STM32L4xx_HAL_Driver/Src/stm32l4xx_hal_smartcard.c ****       {
1491:Drivers/STM32L4xx_HAL_Driver/Src/stm32l4xx_hal_smartcard.c ****         if (HAL_DMA_GetError(hsmartcard->hdmatx) == HAL_DMA_ERROR_TIMEOUT)
 1791              		.loc 1 1491 13
 1792 006e 7B68     		ldr	r3, [r7, #4]
 1793 0070 9B6E     		ldr	r3, [r3, #104]
 1794 0072 1846     		mov	r0, r3
 1795 0074 FFF7FEFF 		bl	HAL_DMA_GetError
 1796 0078 0346     		mov	r3, r0
 1797              		.loc 1 1491 12 discriminator 1
 1798 007a 202B     		cmp	r3, #32
 1799 007c 04D1     		bne	.L77
1492:Drivers/STM32L4xx_HAL_Driver/Src/stm32l4xx_hal_smartcard.c ****         {
1493:Drivers/STM32L4xx_HAL_Driver/Src/stm32l4xx_hal_smartcard.c ****           /* Set error code to DMA */
1494:Drivers/STM32L4xx_HAL_Driver/Src/stm32l4xx_hal_smartcard.c ****           hsmartcard->ErrorCode = HAL_SMARTCARD_ERROR_DMA;
 1800              		.loc 1 1494 33
 1801 007e 7B68     		ldr	r3, [r7, #4]
 1802 0080 1022     		movs	r2, #16
 1803 0082 DA67     		str	r2, [r3, #124]
1495:Drivers/STM32L4xx_HAL_Driver/Src/stm32l4xx_hal_smartcard.c **** 
1496:Drivers/STM32L4xx_HAL_Driver/Src/stm32l4xx_hal_smartcard.c ****           return HAL_TIMEOUT;
 1804              		.loc 1 1496 18
 1805 0084 0323     		movs	r3, #3
 1806 0086 0BE0     		b	.L78
 1807              	.L77:
1497:Drivers/STM32L4xx_HAL_Driver/Src/stm32l4xx_hal_smartcard.c ****         }
1498:Drivers/STM32L4xx_HAL_Driver/Src/stm32l4xx_hal_smartcard.c ****       }
1499:Drivers/STM32L4xx_HAL_Driver/Src/stm32l4xx_hal_smartcard.c ****     }
1500:Drivers/STM32L4xx_HAL_Driver/Src/stm32l4xx_hal_smartcard.c ****   }
1501:Drivers/STM32L4xx_HAL_Driver/Src/stm32l4xx_hal_smartcard.c **** 
1502:Drivers/STM32L4xx_HAL_Driver/Src/stm32l4xx_hal_smartcard.c ****   /* Reset Tx transfer counter */
1503:Drivers/STM32L4xx_HAL_Driver/Src/stm32l4xx_hal_smartcard.c ****   hsmartcard->TxXferCount = 0U;
 1808              		.loc 1 1503 27
 1809 0088 7B68     		ldr	r3, [r7, #4]
 1810 008a 0022     		movs	r2, #0
 1811 008c A3F85620 		strh	r2, [r3, #86]	@ movhi
1504:Drivers/STM32L4xx_HAL_Driver/Src/stm32l4xx_hal_smartcard.c **** 
1505:Drivers/STM32L4xx_HAL_Driver/Src/stm32l4xx_hal_smartcard.c ****   /* Clear the Error flags in the ICR register */
1506:Drivers/STM32L4xx_HAL_Driver/Src/stm32l4xx_hal_smartcard.c ****   __HAL_SMARTCARD_CLEAR_FLAG(hsmartcard, SMARTCARD_CLEAR_FEF);
 1812              		.loc 1 1506 3
 1813 0090 7B68     		ldr	r3, [r7, #4]
 1814 0092 1B68     		ldr	r3, [r3]
 1815 0094 0222     		movs	r2, #2
 1816 0096 1A62     		str	r2, [r3, #32]
1507:Drivers/STM32L4xx_HAL_Driver/Src/stm32l4xx_hal_smartcard.c **** 
1508:Drivers/STM32L4xx_HAL_Driver/Src/stm32l4xx_hal_smartcard.c ****   /* Restore hsmartcard->gState to Ready */
1509:Drivers/STM32L4xx_HAL_Driver/Src/stm32l4xx_hal_smartcard.c ****   hsmartcard->gState = HAL_SMARTCARD_STATE_READY;
 1817              		.loc 1 1509 22
ARM GAS  /tmp/ccDAjxq4.s 			page 59


 1818 0098 7B68     		ldr	r3, [r7, #4]
 1819 009a 2022     		movs	r2, #32
 1820 009c 5A67     		str	r2, [r3, #116]
1510:Drivers/STM32L4xx_HAL_Driver/Src/stm32l4xx_hal_smartcard.c **** 
1511:Drivers/STM32L4xx_HAL_Driver/Src/stm32l4xx_hal_smartcard.c ****   return HAL_OK;
 1821              		.loc 1 1511 10
 1822 009e 0023     		movs	r3, #0
 1823              	.L78:
1512:Drivers/STM32L4xx_HAL_Driver/Src/stm32l4xx_hal_smartcard.c **** }
 1824              		.loc 1 1512 1
 1825 00a0 1846     		mov	r0, r3
 1826 00a2 0837     		adds	r7, r7, #8
 1827              		.cfi_def_cfa_offset 8
 1828 00a4 BD46     		mov	sp, r7
 1829              		.cfi_def_cfa_register 13
 1830              		@ sp needed
 1831 00a6 80BD     		pop	{r7, pc}
 1832              		.cfi_endproc
 1833              	.LFE456:
 1835              		.section	.text.HAL_SMARTCARD_AbortReceive,"ax",%progbits
 1836              		.align	1
 1837              		.global	HAL_SMARTCARD_AbortReceive
 1838              		.syntax unified
 1839              		.thumb
 1840              		.thumb_func
 1842              	HAL_SMARTCARD_AbortReceive:
 1843              	.LFB457:
1513:Drivers/STM32L4xx_HAL_Driver/Src/stm32l4xx_hal_smartcard.c **** 
1514:Drivers/STM32L4xx_HAL_Driver/Src/stm32l4xx_hal_smartcard.c **** /**
1515:Drivers/STM32L4xx_HAL_Driver/Src/stm32l4xx_hal_smartcard.c ****   * @brief  Abort ongoing Receive transfer (blocking mode).
1516:Drivers/STM32L4xx_HAL_Driver/Src/stm32l4xx_hal_smartcard.c ****   * @param  hsmartcard Pointer to a SMARTCARD_HandleTypeDef structure that contains
1517:Drivers/STM32L4xx_HAL_Driver/Src/stm32l4xx_hal_smartcard.c ****   *                    the configuration information for the specified SMARTCARD module.
1518:Drivers/STM32L4xx_HAL_Driver/Src/stm32l4xx_hal_smartcard.c ****   * @note   This procedure could be used for aborting any ongoing Rx transfer started in Interrupt 
1519:Drivers/STM32L4xx_HAL_Driver/Src/stm32l4xx_hal_smartcard.c ****   *         This procedure performs following operations :
1520:Drivers/STM32L4xx_HAL_Driver/Src/stm32l4xx_hal_smartcard.c ****   *           - Disable SMARTCARD Interrupts (Rx)
1521:Drivers/STM32L4xx_HAL_Driver/Src/stm32l4xx_hal_smartcard.c ****   *           - Disable the DMA transfer in the peripheral register (if enabled)
1522:Drivers/STM32L4xx_HAL_Driver/Src/stm32l4xx_hal_smartcard.c ****   *           - Abort DMA transfer by calling HAL_DMA_Abort (in case of transfer in DMA mode)
1523:Drivers/STM32L4xx_HAL_Driver/Src/stm32l4xx_hal_smartcard.c ****   *           - Set handle State to READY
1524:Drivers/STM32L4xx_HAL_Driver/Src/stm32l4xx_hal_smartcard.c ****   * @note   This procedure is executed in blocking mode : when exiting function, Abort is considere
1525:Drivers/STM32L4xx_HAL_Driver/Src/stm32l4xx_hal_smartcard.c ****   * @retval HAL status
1526:Drivers/STM32L4xx_HAL_Driver/Src/stm32l4xx_hal_smartcard.c ****   */
1527:Drivers/STM32L4xx_HAL_Driver/Src/stm32l4xx_hal_smartcard.c **** HAL_StatusTypeDef HAL_SMARTCARD_AbortReceive(SMARTCARD_HandleTypeDef *hsmartcard)
1528:Drivers/STM32L4xx_HAL_Driver/Src/stm32l4xx_hal_smartcard.c **** {
 1844              		.loc 1 1528 1
 1845              		.cfi_startproc
 1846              		@ args = 0, pretend = 0, frame = 8
 1847              		@ frame_needed = 1, uses_anonymous_args = 0
 1848 0000 80B5     		push	{r7, lr}
 1849              		.cfi_def_cfa_offset 8
 1850              		.cfi_offset 7, -8
 1851              		.cfi_offset 14, -4
 1852 0002 82B0     		sub	sp, sp, #8
 1853              		.cfi_def_cfa_offset 16
 1854 0004 00AF     		add	r7, sp, #0
 1855              		.cfi_def_cfa_register 7
 1856 0006 7860     		str	r0, [r7, #4]
1529:Drivers/STM32L4xx_HAL_Driver/Src/stm32l4xx_hal_smartcard.c **** #if defined(USART_CR1_FIFOEN)
ARM GAS  /tmp/ccDAjxq4.s 			page 60


1530:Drivers/STM32L4xx_HAL_Driver/Src/stm32l4xx_hal_smartcard.c ****   /* Disable RTOIE, EOBIE, RXNE, PE, RXFT, TXFT and  ERR (Frame error, noise error, overrun error) 
1531:Drivers/STM32L4xx_HAL_Driver/Src/stm32l4xx_hal_smartcard.c ****   CLEAR_BIT(hsmartcard->Instance->CR1, (USART_CR1_RXNEIE_RXFNEIE | USART_CR1_PEIE | USART_CR1_RTOIE
1532:Drivers/STM32L4xx_HAL_Driver/Src/stm32l4xx_hal_smartcard.c ****                                         USART_CR1_EOBIE));
1533:Drivers/STM32L4xx_HAL_Driver/Src/stm32l4xx_hal_smartcard.c ****   CLEAR_BIT(hsmartcard->Instance->CR3, (USART_CR3_EIE | USART_CR3_RXFTIE));
1534:Drivers/STM32L4xx_HAL_Driver/Src/stm32l4xx_hal_smartcard.c **** #else
1535:Drivers/STM32L4xx_HAL_Driver/Src/stm32l4xx_hal_smartcard.c ****   /* Disable RTOIE, EOBIE, RXNE, PE and ERR (Frame error, noise error, overrun error) interrupts */
1536:Drivers/STM32L4xx_HAL_Driver/Src/stm32l4xx_hal_smartcard.c ****   CLEAR_BIT(hsmartcard->Instance->CR1, (USART_CR1_RXNEIE | USART_CR1_PEIE | USART_CR1_RTOIE | USART
 1857              		.loc 1 1536 3
 1858 0008 7B68     		ldr	r3, [r7, #4]
 1859 000a 1B68     		ldr	r3, [r3]
 1860 000c 1B68     		ldr	r3, [r3]
 1861 000e 7A68     		ldr	r2, [r7, #4]
 1862 0010 1268     		ldr	r2, [r2]
 1863 0012 23F04063 		bic	r3, r3, #201326592
 1864 0016 23F49073 		bic	r3, r3, #288
 1865 001a 1360     		str	r3, [r2]
1537:Drivers/STM32L4xx_HAL_Driver/Src/stm32l4xx_hal_smartcard.c ****   CLEAR_BIT(hsmartcard->Instance->CR3, USART_CR3_EIE);
 1866              		.loc 1 1537 3
 1867 001c 7B68     		ldr	r3, [r7, #4]
 1868 001e 1B68     		ldr	r3, [r3]
 1869 0020 9A68     		ldr	r2, [r3, #8]
 1870 0022 7B68     		ldr	r3, [r7, #4]
 1871 0024 1B68     		ldr	r3, [r3]
 1872 0026 22F00102 		bic	r2, r2, #1
 1873 002a 9A60     		str	r2, [r3, #8]
1538:Drivers/STM32L4xx_HAL_Driver/Src/stm32l4xx_hal_smartcard.c **** #endif /* USART_CR1_FIFOEN */
1539:Drivers/STM32L4xx_HAL_Driver/Src/stm32l4xx_hal_smartcard.c **** 
1540:Drivers/STM32L4xx_HAL_Driver/Src/stm32l4xx_hal_smartcard.c ****   /* Check if a Transmit process is ongoing or not. If not disable ERR IT */
1541:Drivers/STM32L4xx_HAL_Driver/Src/stm32l4xx_hal_smartcard.c ****   if (hsmartcard->gState == HAL_SMARTCARD_STATE_READY)
 1874              		.loc 1 1541 17
 1875 002c 7B68     		ldr	r3, [r7, #4]
 1876 002e 5B6F     		ldr	r3, [r3, #116]
 1877              		.loc 1 1541 6
 1878 0030 202B     		cmp	r3, #32
 1879 0032 07D1     		bne	.L80
1542:Drivers/STM32L4xx_HAL_Driver/Src/stm32l4xx_hal_smartcard.c ****   {
1543:Drivers/STM32L4xx_HAL_Driver/Src/stm32l4xx_hal_smartcard.c ****     /* Disable the SMARTCARD Error Interrupt: (Frame error) */
1544:Drivers/STM32L4xx_HAL_Driver/Src/stm32l4xx_hal_smartcard.c ****     CLEAR_BIT(hsmartcard->Instance->CR3, USART_CR3_EIE);
 1880              		.loc 1 1544 5
 1881 0034 7B68     		ldr	r3, [r7, #4]
 1882 0036 1B68     		ldr	r3, [r3]
 1883 0038 9A68     		ldr	r2, [r3, #8]
 1884 003a 7B68     		ldr	r3, [r7, #4]
 1885 003c 1B68     		ldr	r3, [r3]
 1886 003e 22F00102 		bic	r2, r2, #1
 1887 0042 9A60     		str	r2, [r3, #8]
 1888              	.L80:
1545:Drivers/STM32L4xx_HAL_Driver/Src/stm32l4xx_hal_smartcard.c ****   }
1546:Drivers/STM32L4xx_HAL_Driver/Src/stm32l4xx_hal_smartcard.c **** 
1547:Drivers/STM32L4xx_HAL_Driver/Src/stm32l4xx_hal_smartcard.c ****   /* Disable the SMARTCARD DMA Rx request if enabled */
1548:Drivers/STM32L4xx_HAL_Driver/Src/stm32l4xx_hal_smartcard.c ****   if (HAL_IS_BIT_SET(hsmartcard->Instance->CR3, USART_CR3_DMAR))
 1889              		.loc 1 1548 7
 1890 0044 7B68     		ldr	r3, [r7, #4]
 1891 0046 1B68     		ldr	r3, [r3]
 1892 0048 9B68     		ldr	r3, [r3, #8]
 1893 004a 03F04003 		and	r3, r3, #64
 1894              		.loc 1 1548 6
ARM GAS  /tmp/ccDAjxq4.s 			page 61


 1895 004e 402B     		cmp	r3, #64
 1896 0050 24D1     		bne	.L81
1549:Drivers/STM32L4xx_HAL_Driver/Src/stm32l4xx_hal_smartcard.c ****   {
1550:Drivers/STM32L4xx_HAL_Driver/Src/stm32l4xx_hal_smartcard.c ****     CLEAR_BIT(hsmartcard->Instance->CR3, USART_CR3_DMAR);
 1897              		.loc 1 1550 5
 1898 0052 7B68     		ldr	r3, [r7, #4]
 1899 0054 1B68     		ldr	r3, [r3]
 1900 0056 9A68     		ldr	r2, [r3, #8]
 1901 0058 7B68     		ldr	r3, [r7, #4]
 1902 005a 1B68     		ldr	r3, [r3]
 1903 005c 22F04002 		bic	r2, r2, #64
 1904 0060 9A60     		str	r2, [r3, #8]
1551:Drivers/STM32L4xx_HAL_Driver/Src/stm32l4xx_hal_smartcard.c **** 
1552:Drivers/STM32L4xx_HAL_Driver/Src/stm32l4xx_hal_smartcard.c ****     /* Abort the SMARTCARD DMA Rx channel : use blocking DMA Abort API (no callback) */
1553:Drivers/STM32L4xx_HAL_Driver/Src/stm32l4xx_hal_smartcard.c ****     if (hsmartcard->hdmarx != NULL)
 1905              		.loc 1 1553 19
 1906 0062 7B68     		ldr	r3, [r7, #4]
 1907 0064 DB6E     		ldr	r3, [r3, #108]
 1908              		.loc 1 1553 8
 1909 0066 002B     		cmp	r3, #0
 1910 0068 18D0     		beq	.L81
1554:Drivers/STM32L4xx_HAL_Driver/Src/stm32l4xx_hal_smartcard.c ****     {
1555:Drivers/STM32L4xx_HAL_Driver/Src/stm32l4xx_hal_smartcard.c ****       /* Set the SMARTCARD DMA Abort callback to Null.
1556:Drivers/STM32L4xx_HAL_Driver/Src/stm32l4xx_hal_smartcard.c ****          No call back execution at end of DMA abort procedure */
1557:Drivers/STM32L4xx_HAL_Driver/Src/stm32l4xx_hal_smartcard.c ****       hsmartcard->hdmarx->XferAbortCallback = NULL;
 1911              		.loc 1 1557 17
 1912 006a 7B68     		ldr	r3, [r7, #4]
 1913 006c DB6E     		ldr	r3, [r3, #108]
 1914              		.loc 1 1557 45
 1915 006e 0022     		movs	r2, #0
 1916 0070 9A63     		str	r2, [r3, #56]
1558:Drivers/STM32L4xx_HAL_Driver/Src/stm32l4xx_hal_smartcard.c **** 
1559:Drivers/STM32L4xx_HAL_Driver/Src/stm32l4xx_hal_smartcard.c ****       if (HAL_DMA_Abort(hsmartcard->hdmarx) != HAL_OK)
 1917              		.loc 1 1559 11
 1918 0072 7B68     		ldr	r3, [r7, #4]
 1919 0074 DB6E     		ldr	r3, [r3, #108]
 1920 0076 1846     		mov	r0, r3
 1921 0078 FFF7FEFF 		bl	HAL_DMA_Abort
 1922 007c 0346     		mov	r3, r0
 1923              		.loc 1 1559 10 discriminator 1
 1924 007e 002B     		cmp	r3, #0
 1925 0080 0CD0     		beq	.L81
1560:Drivers/STM32L4xx_HAL_Driver/Src/stm32l4xx_hal_smartcard.c ****       {
1561:Drivers/STM32L4xx_HAL_Driver/Src/stm32l4xx_hal_smartcard.c ****         if (HAL_DMA_GetError(hsmartcard->hdmarx) == HAL_DMA_ERROR_TIMEOUT)
 1926              		.loc 1 1561 13
 1927 0082 7B68     		ldr	r3, [r7, #4]
 1928 0084 DB6E     		ldr	r3, [r3, #108]
 1929 0086 1846     		mov	r0, r3
 1930 0088 FFF7FEFF 		bl	HAL_DMA_GetError
 1931 008c 0346     		mov	r3, r0
 1932              		.loc 1 1561 12 discriminator 1
 1933 008e 202B     		cmp	r3, #32
 1934 0090 04D1     		bne	.L81
1562:Drivers/STM32L4xx_HAL_Driver/Src/stm32l4xx_hal_smartcard.c ****         {
1563:Drivers/STM32L4xx_HAL_Driver/Src/stm32l4xx_hal_smartcard.c ****           /* Set error code to DMA */
1564:Drivers/STM32L4xx_HAL_Driver/Src/stm32l4xx_hal_smartcard.c ****           hsmartcard->ErrorCode = HAL_SMARTCARD_ERROR_DMA;
 1935              		.loc 1 1564 33
ARM GAS  /tmp/ccDAjxq4.s 			page 62


 1936 0092 7B68     		ldr	r3, [r7, #4]
 1937 0094 1022     		movs	r2, #16
 1938 0096 DA67     		str	r2, [r3, #124]
1565:Drivers/STM32L4xx_HAL_Driver/Src/stm32l4xx_hal_smartcard.c **** 
1566:Drivers/STM32L4xx_HAL_Driver/Src/stm32l4xx_hal_smartcard.c ****           return HAL_TIMEOUT;
 1939              		.loc 1 1566 18
 1940 0098 0323     		movs	r3, #3
 1941 009a 0CE0     		b	.L82
 1942              	.L81:
1567:Drivers/STM32L4xx_HAL_Driver/Src/stm32l4xx_hal_smartcard.c ****         }
1568:Drivers/STM32L4xx_HAL_Driver/Src/stm32l4xx_hal_smartcard.c ****       }
1569:Drivers/STM32L4xx_HAL_Driver/Src/stm32l4xx_hal_smartcard.c ****     }
1570:Drivers/STM32L4xx_HAL_Driver/Src/stm32l4xx_hal_smartcard.c ****   }
1571:Drivers/STM32L4xx_HAL_Driver/Src/stm32l4xx_hal_smartcard.c **** 
1572:Drivers/STM32L4xx_HAL_Driver/Src/stm32l4xx_hal_smartcard.c ****   /* Reset Rx transfer counter */
1573:Drivers/STM32L4xx_HAL_Driver/Src/stm32l4xx_hal_smartcard.c ****   hsmartcard->RxXferCount = 0U;
 1943              		.loc 1 1573 27
 1944 009c 7B68     		ldr	r3, [r7, #4]
 1945 009e 0022     		movs	r2, #0
 1946 00a0 A3F85E20 		strh	r2, [r3, #94]	@ movhi
1574:Drivers/STM32L4xx_HAL_Driver/Src/stm32l4xx_hal_smartcard.c **** 
1575:Drivers/STM32L4xx_HAL_Driver/Src/stm32l4xx_hal_smartcard.c ****   /* Clear the Error flags in the ICR register */
1576:Drivers/STM32L4xx_HAL_Driver/Src/stm32l4xx_hal_smartcard.c ****   __HAL_SMARTCARD_CLEAR_FLAG(hsmartcard,
 1947              		.loc 1 1576 3
 1948 00a4 7B68     		ldr	r3, [r7, #4]
 1949 00a6 1B68     		ldr	r3, [r3]
 1950 00a8 41F60F02 		movw	r2, #6159
 1951 00ac 1A62     		str	r2, [r3, #32]
1577:Drivers/STM32L4xx_HAL_Driver/Src/stm32l4xx_hal_smartcard.c ****                              SMARTCARD_CLEAR_OREF | SMARTCARD_CLEAR_NEF | SMARTCARD_CLEAR_PEF | SMA
1578:Drivers/STM32L4xx_HAL_Driver/Src/stm32l4xx_hal_smartcard.c ****                              SMARTCARD_CLEAR_RTOF | SMARTCARD_CLEAR_EOBF);
1579:Drivers/STM32L4xx_HAL_Driver/Src/stm32l4xx_hal_smartcard.c **** 
1580:Drivers/STM32L4xx_HAL_Driver/Src/stm32l4xx_hal_smartcard.c ****   /* Restore hsmartcard->RxState to Ready */
1581:Drivers/STM32L4xx_HAL_Driver/Src/stm32l4xx_hal_smartcard.c ****   hsmartcard->RxState = HAL_SMARTCARD_STATE_READY;
 1952              		.loc 1 1581 23
 1953 00ae 7B68     		ldr	r3, [r7, #4]
 1954 00b0 2022     		movs	r2, #32
 1955 00b2 9A67     		str	r2, [r3, #120]
1582:Drivers/STM32L4xx_HAL_Driver/Src/stm32l4xx_hal_smartcard.c **** 
1583:Drivers/STM32L4xx_HAL_Driver/Src/stm32l4xx_hal_smartcard.c ****   return HAL_OK;
 1956              		.loc 1 1583 10
 1957 00b4 0023     		movs	r3, #0
 1958              	.L82:
1584:Drivers/STM32L4xx_HAL_Driver/Src/stm32l4xx_hal_smartcard.c **** }
 1959              		.loc 1 1584 1
 1960 00b6 1846     		mov	r0, r3
 1961 00b8 0837     		adds	r7, r7, #8
 1962              		.cfi_def_cfa_offset 8
 1963 00ba BD46     		mov	sp, r7
 1964              		.cfi_def_cfa_register 13
 1965              		@ sp needed
 1966 00bc 80BD     		pop	{r7, pc}
 1967              		.cfi_endproc
 1968              	.LFE457:
 1970              		.section	.text.HAL_SMARTCARD_Abort_IT,"ax",%progbits
 1971              		.align	1
 1972              		.global	HAL_SMARTCARD_Abort_IT
 1973              		.syntax unified
ARM GAS  /tmp/ccDAjxq4.s 			page 63


 1974              		.thumb
 1975              		.thumb_func
 1977              	HAL_SMARTCARD_Abort_IT:
 1978              	.LFB458:
1585:Drivers/STM32L4xx_HAL_Driver/Src/stm32l4xx_hal_smartcard.c **** 
1586:Drivers/STM32L4xx_HAL_Driver/Src/stm32l4xx_hal_smartcard.c **** /**
1587:Drivers/STM32L4xx_HAL_Driver/Src/stm32l4xx_hal_smartcard.c ****   * @brief  Abort ongoing transfers (Interrupt mode).
1588:Drivers/STM32L4xx_HAL_Driver/Src/stm32l4xx_hal_smartcard.c ****   * @param  hsmartcard Pointer to a SMARTCARD_HandleTypeDef structure that contains
1589:Drivers/STM32L4xx_HAL_Driver/Src/stm32l4xx_hal_smartcard.c ****   *                    the configuration information for the specified SMARTCARD module.
1590:Drivers/STM32L4xx_HAL_Driver/Src/stm32l4xx_hal_smartcard.c ****   * @note   This procedure could be used for aborting any ongoing transfer started in Interrupt or 
1591:Drivers/STM32L4xx_HAL_Driver/Src/stm32l4xx_hal_smartcard.c ****   *         This procedure performs following operations :
1592:Drivers/STM32L4xx_HAL_Driver/Src/stm32l4xx_hal_smartcard.c ****   *           - Disable SMARTCARD Interrupts (Tx and Rx)
1593:Drivers/STM32L4xx_HAL_Driver/Src/stm32l4xx_hal_smartcard.c ****   *           - Disable the DMA transfer in the peripheral register (if enabled)
1594:Drivers/STM32L4xx_HAL_Driver/Src/stm32l4xx_hal_smartcard.c ****   *           - Abort DMA transfer by calling HAL_DMA_Abort_IT (in case of transfer in DMA mode)
1595:Drivers/STM32L4xx_HAL_Driver/Src/stm32l4xx_hal_smartcard.c ****   *           - Set handle State to READY
1596:Drivers/STM32L4xx_HAL_Driver/Src/stm32l4xx_hal_smartcard.c ****   *           - At abort completion, call user abort complete callback
1597:Drivers/STM32L4xx_HAL_Driver/Src/stm32l4xx_hal_smartcard.c ****   * @note   This procedure is executed in Interrupt mode, meaning that abort procedure could be
1598:Drivers/STM32L4xx_HAL_Driver/Src/stm32l4xx_hal_smartcard.c ****   *         considered as completed only when user abort complete callback is executed (not when ex
1599:Drivers/STM32L4xx_HAL_Driver/Src/stm32l4xx_hal_smartcard.c ****   * @retval HAL status
1600:Drivers/STM32L4xx_HAL_Driver/Src/stm32l4xx_hal_smartcard.c ****   */
1601:Drivers/STM32L4xx_HAL_Driver/Src/stm32l4xx_hal_smartcard.c **** HAL_StatusTypeDef HAL_SMARTCARD_Abort_IT(SMARTCARD_HandleTypeDef *hsmartcard)
1602:Drivers/STM32L4xx_HAL_Driver/Src/stm32l4xx_hal_smartcard.c **** {
 1979              		.loc 1 1602 1
 1980              		.cfi_startproc
 1981              		@ args = 0, pretend = 0, frame = 16
 1982              		@ frame_needed = 1, uses_anonymous_args = 0
 1983 0000 80B5     		push	{r7, lr}
 1984              		.cfi_def_cfa_offset 8
 1985              		.cfi_offset 7, -8
 1986              		.cfi_offset 14, -4
 1987 0002 84B0     		sub	sp, sp, #16
 1988              		.cfi_def_cfa_offset 24
 1989 0004 00AF     		add	r7, sp, #0
 1990              		.cfi_def_cfa_register 7
 1991 0006 7860     		str	r0, [r7, #4]
1603:Drivers/STM32L4xx_HAL_Driver/Src/stm32l4xx_hal_smartcard.c ****   uint32_t abortcplt = 1U;
 1992              		.loc 1 1603 12
 1993 0008 0123     		movs	r3, #1
 1994 000a FB60     		str	r3, [r7, #12]
1604:Drivers/STM32L4xx_HAL_Driver/Src/stm32l4xx_hal_smartcard.c **** 
1605:Drivers/STM32L4xx_HAL_Driver/Src/stm32l4xx_hal_smartcard.c **** #if defined(USART_CR1_FIFOEN)
1606:Drivers/STM32L4xx_HAL_Driver/Src/stm32l4xx_hal_smartcard.c ****   /* Disable RTOIE, EOBIE, TXEIE, TCIE, RXNE, PE, RXFT, TXFT and
1607:Drivers/STM32L4xx_HAL_Driver/Src/stm32l4xx_hal_smartcard.c ****      ERR (Frame error, noise error, overrun error) interrupts */
1608:Drivers/STM32L4xx_HAL_Driver/Src/stm32l4xx_hal_smartcard.c ****   CLEAR_BIT(hsmartcard->Instance->CR1,
1609:Drivers/STM32L4xx_HAL_Driver/Src/stm32l4xx_hal_smartcard.c ****             (USART_CR1_RXNEIE_RXFNEIE | USART_CR1_PEIE | USART_CR1_TXEIE_TXFNFIE | USART_CR1_TCIE |
1610:Drivers/STM32L4xx_HAL_Driver/Src/stm32l4xx_hal_smartcard.c ****              USART_CR1_EOBIE));
1611:Drivers/STM32L4xx_HAL_Driver/Src/stm32l4xx_hal_smartcard.c ****   CLEAR_BIT(hsmartcard->Instance->CR3, (USART_CR3_EIE | USART_CR3_RXFTIE | USART_CR3_TXFTIE));
1612:Drivers/STM32L4xx_HAL_Driver/Src/stm32l4xx_hal_smartcard.c **** #else
1613:Drivers/STM32L4xx_HAL_Driver/Src/stm32l4xx_hal_smartcard.c ****   /* Disable RTOIE, EOBIE, TXEIE, TCIE, RXNE, PE and ERR (Frame error, noise error, overrun error) 
1614:Drivers/STM32L4xx_HAL_Driver/Src/stm32l4xx_hal_smartcard.c ****   CLEAR_BIT(hsmartcard->Instance->CR1,
 1995              		.loc 1 1614 3
 1996 000c 7B68     		ldr	r3, [r7, #4]
 1997 000e 1B68     		ldr	r3, [r3]
 1998 0010 1B68     		ldr	r3, [r3]
 1999 0012 7A68     		ldr	r2, [r7, #4]
 2000 0014 1268     		ldr	r2, [r2]
 2001 0016 23F04063 		bic	r3, r3, #201326592
ARM GAS  /tmp/ccDAjxq4.s 			page 64


 2002 001a 23F4F073 		bic	r3, r3, #480
 2003 001e 1360     		str	r3, [r2]
1615:Drivers/STM32L4xx_HAL_Driver/Src/stm32l4xx_hal_smartcard.c ****             (USART_CR1_RXNEIE | USART_CR1_PEIE | USART_CR1_TXEIE | USART_CR1_TCIE | USART_CR1_RTOIE
1616:Drivers/STM32L4xx_HAL_Driver/Src/stm32l4xx_hal_smartcard.c ****              USART_CR1_EOBIE));
1617:Drivers/STM32L4xx_HAL_Driver/Src/stm32l4xx_hal_smartcard.c ****   CLEAR_BIT(hsmartcard->Instance->CR3, USART_CR3_EIE);
 2004              		.loc 1 1617 3
 2005 0020 7B68     		ldr	r3, [r7, #4]
 2006 0022 1B68     		ldr	r3, [r3]
 2007 0024 9A68     		ldr	r2, [r3, #8]
 2008 0026 7B68     		ldr	r3, [r7, #4]
 2009 0028 1B68     		ldr	r3, [r3]
 2010 002a 22F00102 		bic	r2, r2, #1
 2011 002e 9A60     		str	r2, [r3, #8]
1618:Drivers/STM32L4xx_HAL_Driver/Src/stm32l4xx_hal_smartcard.c **** #endif /* USART_CR1_FIFOEN */
1619:Drivers/STM32L4xx_HAL_Driver/Src/stm32l4xx_hal_smartcard.c **** 
1620:Drivers/STM32L4xx_HAL_Driver/Src/stm32l4xx_hal_smartcard.c ****   /* If DMA Tx and/or DMA Rx Handles are associated to SMARTCARD Handle,
1621:Drivers/STM32L4xx_HAL_Driver/Src/stm32l4xx_hal_smartcard.c ****      DMA Abort complete callbacks should be initialised before any call
1622:Drivers/STM32L4xx_HAL_Driver/Src/stm32l4xx_hal_smartcard.c ****      to DMA Abort functions */
1623:Drivers/STM32L4xx_HAL_Driver/Src/stm32l4xx_hal_smartcard.c ****   /* DMA Tx Handle is valid */
1624:Drivers/STM32L4xx_HAL_Driver/Src/stm32l4xx_hal_smartcard.c ****   if (hsmartcard->hdmatx != NULL)
 2012              		.loc 1 1624 17
 2013 0030 7B68     		ldr	r3, [r7, #4]
 2014 0032 9B6E     		ldr	r3, [r3, #104]
 2015              		.loc 1 1624 6
 2016 0034 002B     		cmp	r3, #0
 2017 0036 0FD0     		beq	.L84
1625:Drivers/STM32L4xx_HAL_Driver/Src/stm32l4xx_hal_smartcard.c ****   {
1626:Drivers/STM32L4xx_HAL_Driver/Src/stm32l4xx_hal_smartcard.c ****     /* Set DMA Abort Complete callback if SMARTCARD DMA Tx request if enabled.
1627:Drivers/STM32L4xx_HAL_Driver/Src/stm32l4xx_hal_smartcard.c ****        Otherwise, set it to NULL */
1628:Drivers/STM32L4xx_HAL_Driver/Src/stm32l4xx_hal_smartcard.c ****     if (HAL_IS_BIT_SET(hsmartcard->Instance->CR3, USART_CR3_DMAT))
 2018              		.loc 1 1628 9
 2019 0038 7B68     		ldr	r3, [r7, #4]
 2020 003a 1B68     		ldr	r3, [r3]
 2021 003c 9B68     		ldr	r3, [r3, #8]
 2022 003e 03F08003 		and	r3, r3, #128
 2023              		.loc 1 1628 8
 2024 0042 802B     		cmp	r3, #128
 2025 0044 04D1     		bne	.L85
1629:Drivers/STM32L4xx_HAL_Driver/Src/stm32l4xx_hal_smartcard.c ****     {
1630:Drivers/STM32L4xx_HAL_Driver/Src/stm32l4xx_hal_smartcard.c ****       hsmartcard->hdmatx->XferAbortCallback = SMARTCARD_DMATxAbortCallback;
 2026              		.loc 1 1630 17
 2027 0046 7B68     		ldr	r3, [r7, #4]
 2028 0048 9B6E     		ldr	r3, [r3, #104]
 2029              		.loc 1 1630 45
 2030 004a 444A     		ldr	r2, .L94
 2031 004c 9A63     		str	r2, [r3, #56]
 2032 004e 03E0     		b	.L84
 2033              	.L85:
1631:Drivers/STM32L4xx_HAL_Driver/Src/stm32l4xx_hal_smartcard.c ****     }
1632:Drivers/STM32L4xx_HAL_Driver/Src/stm32l4xx_hal_smartcard.c ****     else
1633:Drivers/STM32L4xx_HAL_Driver/Src/stm32l4xx_hal_smartcard.c ****     {
1634:Drivers/STM32L4xx_HAL_Driver/Src/stm32l4xx_hal_smartcard.c ****       hsmartcard->hdmatx->XferAbortCallback = NULL;
 2034              		.loc 1 1634 17
 2035 0050 7B68     		ldr	r3, [r7, #4]
 2036 0052 9B6E     		ldr	r3, [r3, #104]
 2037              		.loc 1 1634 45
 2038 0054 0022     		movs	r2, #0
ARM GAS  /tmp/ccDAjxq4.s 			page 65


 2039 0056 9A63     		str	r2, [r3, #56]
 2040              	.L84:
1635:Drivers/STM32L4xx_HAL_Driver/Src/stm32l4xx_hal_smartcard.c ****     }
1636:Drivers/STM32L4xx_HAL_Driver/Src/stm32l4xx_hal_smartcard.c ****   }
1637:Drivers/STM32L4xx_HAL_Driver/Src/stm32l4xx_hal_smartcard.c ****   /* DMA Rx Handle is valid */
1638:Drivers/STM32L4xx_HAL_Driver/Src/stm32l4xx_hal_smartcard.c ****   if (hsmartcard->hdmarx != NULL)
 2041              		.loc 1 1638 17
 2042 0058 7B68     		ldr	r3, [r7, #4]
 2043 005a DB6E     		ldr	r3, [r3, #108]
 2044              		.loc 1 1638 6
 2045 005c 002B     		cmp	r3, #0
 2046 005e 0FD0     		beq	.L86
1639:Drivers/STM32L4xx_HAL_Driver/Src/stm32l4xx_hal_smartcard.c ****   {
1640:Drivers/STM32L4xx_HAL_Driver/Src/stm32l4xx_hal_smartcard.c ****     /* Set DMA Abort Complete callback if SMARTCARD DMA Rx request if enabled.
1641:Drivers/STM32L4xx_HAL_Driver/Src/stm32l4xx_hal_smartcard.c ****        Otherwise, set it to NULL */
1642:Drivers/STM32L4xx_HAL_Driver/Src/stm32l4xx_hal_smartcard.c ****     if (HAL_IS_BIT_SET(hsmartcard->Instance->CR3, USART_CR3_DMAR))
 2047              		.loc 1 1642 9
 2048 0060 7B68     		ldr	r3, [r7, #4]
 2049 0062 1B68     		ldr	r3, [r3]
 2050 0064 9B68     		ldr	r3, [r3, #8]
 2051 0066 03F04003 		and	r3, r3, #64
 2052              		.loc 1 1642 8
 2053 006a 402B     		cmp	r3, #64
 2054 006c 04D1     		bne	.L87
1643:Drivers/STM32L4xx_HAL_Driver/Src/stm32l4xx_hal_smartcard.c ****     {
1644:Drivers/STM32L4xx_HAL_Driver/Src/stm32l4xx_hal_smartcard.c ****       hsmartcard->hdmarx->XferAbortCallback = SMARTCARD_DMARxAbortCallback;
 2055              		.loc 1 1644 17
 2056 006e 7B68     		ldr	r3, [r7, #4]
 2057 0070 DB6E     		ldr	r3, [r3, #108]
 2058              		.loc 1 1644 45
 2059 0072 3B4A     		ldr	r2, .L94+4
 2060 0074 9A63     		str	r2, [r3, #56]
 2061 0076 03E0     		b	.L86
 2062              	.L87:
1645:Drivers/STM32L4xx_HAL_Driver/Src/stm32l4xx_hal_smartcard.c ****     }
1646:Drivers/STM32L4xx_HAL_Driver/Src/stm32l4xx_hal_smartcard.c ****     else
1647:Drivers/STM32L4xx_HAL_Driver/Src/stm32l4xx_hal_smartcard.c ****     {
1648:Drivers/STM32L4xx_HAL_Driver/Src/stm32l4xx_hal_smartcard.c ****       hsmartcard->hdmarx->XferAbortCallback = NULL;
 2063              		.loc 1 1648 17
 2064 0078 7B68     		ldr	r3, [r7, #4]
 2065 007a DB6E     		ldr	r3, [r3, #108]
 2066              		.loc 1 1648 45
 2067 007c 0022     		movs	r2, #0
 2068 007e 9A63     		str	r2, [r3, #56]
 2069              	.L86:
1649:Drivers/STM32L4xx_HAL_Driver/Src/stm32l4xx_hal_smartcard.c ****     }
1650:Drivers/STM32L4xx_HAL_Driver/Src/stm32l4xx_hal_smartcard.c ****   }
1651:Drivers/STM32L4xx_HAL_Driver/Src/stm32l4xx_hal_smartcard.c **** 
1652:Drivers/STM32L4xx_HAL_Driver/Src/stm32l4xx_hal_smartcard.c ****   /* Disable the SMARTCARD DMA Tx request if enabled */
1653:Drivers/STM32L4xx_HAL_Driver/Src/stm32l4xx_hal_smartcard.c ****   if (HAL_IS_BIT_SET(hsmartcard->Instance->CR3, USART_CR3_DMAT))
 2070              		.loc 1 1653 7
 2071 0080 7B68     		ldr	r3, [r7, #4]
 2072 0082 1B68     		ldr	r3, [r3]
 2073 0084 9B68     		ldr	r3, [r3, #8]
 2074 0086 03F08003 		and	r3, r3, #128
 2075              		.loc 1 1653 6
 2076 008a 802B     		cmp	r3, #128
ARM GAS  /tmp/ccDAjxq4.s 			page 66


 2077 008c 1AD1     		bne	.L88
1654:Drivers/STM32L4xx_HAL_Driver/Src/stm32l4xx_hal_smartcard.c ****   {
1655:Drivers/STM32L4xx_HAL_Driver/Src/stm32l4xx_hal_smartcard.c ****     /* Disable DMA Tx at UART level */
1656:Drivers/STM32L4xx_HAL_Driver/Src/stm32l4xx_hal_smartcard.c ****     CLEAR_BIT(hsmartcard->Instance->CR3, USART_CR3_DMAT);
 2078              		.loc 1 1656 5
 2079 008e 7B68     		ldr	r3, [r7, #4]
 2080 0090 1B68     		ldr	r3, [r3]
 2081 0092 9A68     		ldr	r2, [r3, #8]
 2082 0094 7B68     		ldr	r3, [r7, #4]
 2083 0096 1B68     		ldr	r3, [r3]
 2084 0098 22F08002 		bic	r2, r2, #128
 2085 009c 9A60     		str	r2, [r3, #8]
1657:Drivers/STM32L4xx_HAL_Driver/Src/stm32l4xx_hal_smartcard.c **** 
1658:Drivers/STM32L4xx_HAL_Driver/Src/stm32l4xx_hal_smartcard.c ****     /* Abort the SMARTCARD DMA Tx channel : use non blocking DMA Abort API (callback) */
1659:Drivers/STM32L4xx_HAL_Driver/Src/stm32l4xx_hal_smartcard.c ****     if (hsmartcard->hdmatx != NULL)
 2086              		.loc 1 1659 19
 2087 009e 7B68     		ldr	r3, [r7, #4]
 2088 00a0 9B6E     		ldr	r3, [r3, #104]
 2089              		.loc 1 1659 8
 2090 00a2 002B     		cmp	r3, #0
 2091 00a4 0ED0     		beq	.L88
1660:Drivers/STM32L4xx_HAL_Driver/Src/stm32l4xx_hal_smartcard.c ****     {
1661:Drivers/STM32L4xx_HAL_Driver/Src/stm32l4xx_hal_smartcard.c ****       /* SMARTCARD Tx DMA Abort callback has already been initialised :
1662:Drivers/STM32L4xx_HAL_Driver/Src/stm32l4xx_hal_smartcard.c ****          will lead to call HAL_SMARTCARD_AbortCpltCallback() at end of DMA abort procedure */
1663:Drivers/STM32L4xx_HAL_Driver/Src/stm32l4xx_hal_smartcard.c **** 
1664:Drivers/STM32L4xx_HAL_Driver/Src/stm32l4xx_hal_smartcard.c ****       /* Abort DMA TX */
1665:Drivers/STM32L4xx_HAL_Driver/Src/stm32l4xx_hal_smartcard.c ****       if (HAL_DMA_Abort_IT(hsmartcard->hdmatx) != HAL_OK)
 2092              		.loc 1 1665 11
 2093 00a6 7B68     		ldr	r3, [r7, #4]
 2094 00a8 9B6E     		ldr	r3, [r3, #104]
 2095 00aa 1846     		mov	r0, r3
 2096 00ac FFF7FEFF 		bl	HAL_DMA_Abort_IT
 2097 00b0 0346     		mov	r3, r0
 2098              		.loc 1 1665 10 discriminator 1
 2099 00b2 002B     		cmp	r3, #0
 2100 00b4 04D0     		beq	.L89
1666:Drivers/STM32L4xx_HAL_Driver/Src/stm32l4xx_hal_smartcard.c ****       {
1667:Drivers/STM32L4xx_HAL_Driver/Src/stm32l4xx_hal_smartcard.c ****         hsmartcard->hdmatx->XferAbortCallback = NULL;
 2101              		.loc 1 1667 19
 2102 00b6 7B68     		ldr	r3, [r7, #4]
 2103 00b8 9B6E     		ldr	r3, [r3, #104]
 2104              		.loc 1 1667 47
 2105 00ba 0022     		movs	r2, #0
 2106 00bc 9A63     		str	r2, [r3, #56]
 2107 00be 01E0     		b	.L88
 2108              	.L89:
1668:Drivers/STM32L4xx_HAL_Driver/Src/stm32l4xx_hal_smartcard.c ****       }
1669:Drivers/STM32L4xx_HAL_Driver/Src/stm32l4xx_hal_smartcard.c ****       else
1670:Drivers/STM32L4xx_HAL_Driver/Src/stm32l4xx_hal_smartcard.c ****       {
1671:Drivers/STM32L4xx_HAL_Driver/Src/stm32l4xx_hal_smartcard.c ****         abortcplt = 0U;
 2109              		.loc 1 1671 19
 2110 00c0 0023     		movs	r3, #0
 2111 00c2 FB60     		str	r3, [r7, #12]
 2112              	.L88:
1672:Drivers/STM32L4xx_HAL_Driver/Src/stm32l4xx_hal_smartcard.c ****       }
1673:Drivers/STM32L4xx_HAL_Driver/Src/stm32l4xx_hal_smartcard.c ****     }
1674:Drivers/STM32L4xx_HAL_Driver/Src/stm32l4xx_hal_smartcard.c ****   }
ARM GAS  /tmp/ccDAjxq4.s 			page 67


1675:Drivers/STM32L4xx_HAL_Driver/Src/stm32l4xx_hal_smartcard.c **** 
1676:Drivers/STM32L4xx_HAL_Driver/Src/stm32l4xx_hal_smartcard.c ****   /* Disable the SMARTCARD DMA Rx request if enabled */
1677:Drivers/STM32L4xx_HAL_Driver/Src/stm32l4xx_hal_smartcard.c ****   if (HAL_IS_BIT_SET(hsmartcard->Instance->CR3, USART_CR3_DMAR))
 2113              		.loc 1 1677 7
 2114 00c4 7B68     		ldr	r3, [r7, #4]
 2115 00c6 1B68     		ldr	r3, [r3]
 2116 00c8 9B68     		ldr	r3, [r3, #8]
 2117 00ca 03F04003 		and	r3, r3, #64
 2118              		.loc 1 1677 6
 2119 00ce 402B     		cmp	r3, #64
 2120 00d0 1CD1     		bne	.L90
1678:Drivers/STM32L4xx_HAL_Driver/Src/stm32l4xx_hal_smartcard.c ****   {
1679:Drivers/STM32L4xx_HAL_Driver/Src/stm32l4xx_hal_smartcard.c ****     CLEAR_BIT(hsmartcard->Instance->CR3, USART_CR3_DMAR);
 2121              		.loc 1 1679 5
 2122 00d2 7B68     		ldr	r3, [r7, #4]
 2123 00d4 1B68     		ldr	r3, [r3]
 2124 00d6 9A68     		ldr	r2, [r3, #8]
 2125 00d8 7B68     		ldr	r3, [r7, #4]
 2126 00da 1B68     		ldr	r3, [r3]
 2127 00dc 22F04002 		bic	r2, r2, #64
 2128 00e0 9A60     		str	r2, [r3, #8]
1680:Drivers/STM32L4xx_HAL_Driver/Src/stm32l4xx_hal_smartcard.c **** 
1681:Drivers/STM32L4xx_HAL_Driver/Src/stm32l4xx_hal_smartcard.c ****     /* Abort the SMARTCARD DMA Rx channel : use non blocking DMA Abort API (callback) */
1682:Drivers/STM32L4xx_HAL_Driver/Src/stm32l4xx_hal_smartcard.c ****     if (hsmartcard->hdmarx != NULL)
 2129              		.loc 1 1682 19
 2130 00e2 7B68     		ldr	r3, [r7, #4]
 2131 00e4 DB6E     		ldr	r3, [r3, #108]
 2132              		.loc 1 1682 8
 2133 00e6 002B     		cmp	r3, #0
 2134 00e8 10D0     		beq	.L90
1683:Drivers/STM32L4xx_HAL_Driver/Src/stm32l4xx_hal_smartcard.c ****     {
1684:Drivers/STM32L4xx_HAL_Driver/Src/stm32l4xx_hal_smartcard.c ****       /* SMARTCARD Rx DMA Abort callback has already been initialised :
1685:Drivers/STM32L4xx_HAL_Driver/Src/stm32l4xx_hal_smartcard.c ****          will lead to call HAL_SMARTCARD_AbortCpltCallback() at end of DMA abort procedure */
1686:Drivers/STM32L4xx_HAL_Driver/Src/stm32l4xx_hal_smartcard.c **** 
1687:Drivers/STM32L4xx_HAL_Driver/Src/stm32l4xx_hal_smartcard.c ****       /* Abort DMA RX */
1688:Drivers/STM32L4xx_HAL_Driver/Src/stm32l4xx_hal_smartcard.c ****       if (HAL_DMA_Abort_IT(hsmartcard->hdmarx) != HAL_OK)
 2135              		.loc 1 1688 11
 2136 00ea 7B68     		ldr	r3, [r7, #4]
 2137 00ec DB6E     		ldr	r3, [r3, #108]
 2138 00ee 1846     		mov	r0, r3
 2139 00f0 FFF7FEFF 		bl	HAL_DMA_Abort_IT
 2140 00f4 0346     		mov	r3, r0
 2141              		.loc 1 1688 10 discriminator 1
 2142 00f6 002B     		cmp	r3, #0
 2143 00f8 06D0     		beq	.L91
1689:Drivers/STM32L4xx_HAL_Driver/Src/stm32l4xx_hal_smartcard.c ****       {
1690:Drivers/STM32L4xx_HAL_Driver/Src/stm32l4xx_hal_smartcard.c ****         hsmartcard->hdmarx->XferAbortCallback = NULL;
 2144              		.loc 1 1690 19
 2145 00fa 7B68     		ldr	r3, [r7, #4]
 2146 00fc DB6E     		ldr	r3, [r3, #108]
 2147              		.loc 1 1690 47
 2148 00fe 0022     		movs	r2, #0
 2149 0100 9A63     		str	r2, [r3, #56]
1691:Drivers/STM32L4xx_HAL_Driver/Src/stm32l4xx_hal_smartcard.c ****         abortcplt = 1U;
 2150              		.loc 1 1691 19
 2151 0102 0123     		movs	r3, #1
 2152 0104 FB60     		str	r3, [r7, #12]
ARM GAS  /tmp/ccDAjxq4.s 			page 68


 2153 0106 01E0     		b	.L90
 2154              	.L91:
1692:Drivers/STM32L4xx_HAL_Driver/Src/stm32l4xx_hal_smartcard.c ****       }
1693:Drivers/STM32L4xx_HAL_Driver/Src/stm32l4xx_hal_smartcard.c ****       else
1694:Drivers/STM32L4xx_HAL_Driver/Src/stm32l4xx_hal_smartcard.c ****       {
1695:Drivers/STM32L4xx_HAL_Driver/Src/stm32l4xx_hal_smartcard.c ****         abortcplt = 0U;
 2155              		.loc 1 1695 19
 2156 0108 0023     		movs	r3, #0
 2157 010a FB60     		str	r3, [r7, #12]
 2158              	.L90:
1696:Drivers/STM32L4xx_HAL_Driver/Src/stm32l4xx_hal_smartcard.c ****       }
1697:Drivers/STM32L4xx_HAL_Driver/Src/stm32l4xx_hal_smartcard.c ****     }
1698:Drivers/STM32L4xx_HAL_Driver/Src/stm32l4xx_hal_smartcard.c ****   }
1699:Drivers/STM32L4xx_HAL_Driver/Src/stm32l4xx_hal_smartcard.c **** 
1700:Drivers/STM32L4xx_HAL_Driver/Src/stm32l4xx_hal_smartcard.c ****   /* if no DMA abort complete callback execution is required => call user Abort Complete callback *
1701:Drivers/STM32L4xx_HAL_Driver/Src/stm32l4xx_hal_smartcard.c ****   if (abortcplt == 1U)
 2159              		.loc 1 1701 6
 2160 010c FB68     		ldr	r3, [r7, #12]
 2161 010e 012B     		cmp	r3, #1
 2162 0110 1ED1     		bne	.L92
1702:Drivers/STM32L4xx_HAL_Driver/Src/stm32l4xx_hal_smartcard.c ****   {
1703:Drivers/STM32L4xx_HAL_Driver/Src/stm32l4xx_hal_smartcard.c ****     /* Reset Tx and Rx transfer counters */
1704:Drivers/STM32L4xx_HAL_Driver/Src/stm32l4xx_hal_smartcard.c ****     hsmartcard->TxXferCount = 0U;
 2163              		.loc 1 1704 29
 2164 0112 7B68     		ldr	r3, [r7, #4]
 2165 0114 0022     		movs	r2, #0
 2166 0116 A3F85620 		strh	r2, [r3, #86]	@ movhi
1705:Drivers/STM32L4xx_HAL_Driver/Src/stm32l4xx_hal_smartcard.c ****     hsmartcard->RxXferCount = 0U;
 2167              		.loc 1 1705 29
 2168 011a 7B68     		ldr	r3, [r7, #4]
 2169 011c 0022     		movs	r2, #0
 2170 011e A3F85E20 		strh	r2, [r3, #94]	@ movhi
1706:Drivers/STM32L4xx_HAL_Driver/Src/stm32l4xx_hal_smartcard.c **** 
1707:Drivers/STM32L4xx_HAL_Driver/Src/stm32l4xx_hal_smartcard.c ****     /* Clear ISR function pointers */
1708:Drivers/STM32L4xx_HAL_Driver/Src/stm32l4xx_hal_smartcard.c ****     hsmartcard->RxISR = NULL;
 2171              		.loc 1 1708 23
 2172 0122 7B68     		ldr	r3, [r7, #4]
 2173 0124 0022     		movs	r2, #0
 2174 0126 1A66     		str	r2, [r3, #96]
1709:Drivers/STM32L4xx_HAL_Driver/Src/stm32l4xx_hal_smartcard.c ****     hsmartcard->TxISR = NULL;
 2175              		.loc 1 1709 23
 2176 0128 7B68     		ldr	r3, [r7, #4]
 2177 012a 0022     		movs	r2, #0
 2178 012c 5A66     		str	r2, [r3, #100]
1710:Drivers/STM32L4xx_HAL_Driver/Src/stm32l4xx_hal_smartcard.c **** 
1711:Drivers/STM32L4xx_HAL_Driver/Src/stm32l4xx_hal_smartcard.c ****     /* Reset errorCode */
1712:Drivers/STM32L4xx_HAL_Driver/Src/stm32l4xx_hal_smartcard.c ****     hsmartcard->ErrorCode = HAL_SMARTCARD_ERROR_NONE;
 2179              		.loc 1 1712 27
 2180 012e 7B68     		ldr	r3, [r7, #4]
 2181 0130 0022     		movs	r2, #0
 2182 0132 DA67     		str	r2, [r3, #124]
1713:Drivers/STM32L4xx_HAL_Driver/Src/stm32l4xx_hal_smartcard.c **** 
1714:Drivers/STM32L4xx_HAL_Driver/Src/stm32l4xx_hal_smartcard.c ****     /* Clear the Error flags in the ICR register */
1715:Drivers/STM32L4xx_HAL_Driver/Src/stm32l4xx_hal_smartcard.c ****     __HAL_SMARTCARD_CLEAR_FLAG(hsmartcard,
 2183              		.loc 1 1715 5
 2184 0134 7B68     		ldr	r3, [r7, #4]
 2185 0136 1B68     		ldr	r3, [r3]
ARM GAS  /tmp/ccDAjxq4.s 			page 69


 2186 0138 41F60F02 		movw	r2, #6159
 2187 013c 1A62     		str	r2, [r3, #32]
1716:Drivers/STM32L4xx_HAL_Driver/Src/stm32l4xx_hal_smartcard.c ****                                SMARTCARD_CLEAR_OREF | SMARTCARD_CLEAR_NEF | SMARTCARD_CLEAR_PEF |
1717:Drivers/STM32L4xx_HAL_Driver/Src/stm32l4xx_hal_smartcard.c ****                                SMARTCARD_CLEAR_FEF | SMARTCARD_CLEAR_RTOF | SMARTCARD_CLEAR_EOBF);
1718:Drivers/STM32L4xx_HAL_Driver/Src/stm32l4xx_hal_smartcard.c **** 
1719:Drivers/STM32L4xx_HAL_Driver/Src/stm32l4xx_hal_smartcard.c ****     /* Restore hsmartcard->gState and hsmartcard->RxState to Ready */
1720:Drivers/STM32L4xx_HAL_Driver/Src/stm32l4xx_hal_smartcard.c ****     hsmartcard->gState  = HAL_SMARTCARD_STATE_READY;
 2188              		.loc 1 1720 25
 2189 013e 7B68     		ldr	r3, [r7, #4]
 2190 0140 2022     		movs	r2, #32
 2191 0142 5A67     		str	r2, [r3, #116]
1721:Drivers/STM32L4xx_HAL_Driver/Src/stm32l4xx_hal_smartcard.c ****     hsmartcard->RxState = HAL_SMARTCARD_STATE_READY;
 2192              		.loc 1 1721 25
 2193 0144 7B68     		ldr	r3, [r7, #4]
 2194 0146 2022     		movs	r2, #32
 2195 0148 9A67     		str	r2, [r3, #120]
1722:Drivers/STM32L4xx_HAL_Driver/Src/stm32l4xx_hal_smartcard.c **** 
1723:Drivers/STM32L4xx_HAL_Driver/Src/stm32l4xx_hal_smartcard.c ****     /* As no DMA to be aborted, call directly user Abort complete callback */
1724:Drivers/STM32L4xx_HAL_Driver/Src/stm32l4xx_hal_smartcard.c **** #if (USE_HAL_SMARTCARD_REGISTER_CALLBACKS == 1)
1725:Drivers/STM32L4xx_HAL_Driver/Src/stm32l4xx_hal_smartcard.c ****     /* Call registered Abort complete callback */
1726:Drivers/STM32L4xx_HAL_Driver/Src/stm32l4xx_hal_smartcard.c ****     hsmartcard->AbortCpltCallback(hsmartcard);
1727:Drivers/STM32L4xx_HAL_Driver/Src/stm32l4xx_hal_smartcard.c **** #else
1728:Drivers/STM32L4xx_HAL_Driver/Src/stm32l4xx_hal_smartcard.c ****     /* Call legacy weak Abort complete callback */
1729:Drivers/STM32L4xx_HAL_Driver/Src/stm32l4xx_hal_smartcard.c ****     HAL_SMARTCARD_AbortCpltCallback(hsmartcard);
 2196              		.loc 1 1729 5
 2197 014a 7868     		ldr	r0, [r7, #4]
 2198 014c FFF7FEFF 		bl	HAL_SMARTCARD_AbortCpltCallback
 2199              	.L92:
1730:Drivers/STM32L4xx_HAL_Driver/Src/stm32l4xx_hal_smartcard.c **** #endif /* USE_HAL_SMARTCARD_REGISTER_CALLBACK */
1731:Drivers/STM32L4xx_HAL_Driver/Src/stm32l4xx_hal_smartcard.c ****   }
1732:Drivers/STM32L4xx_HAL_Driver/Src/stm32l4xx_hal_smartcard.c **** 
1733:Drivers/STM32L4xx_HAL_Driver/Src/stm32l4xx_hal_smartcard.c ****   return HAL_OK;
 2200              		.loc 1 1733 10
 2201 0150 0023     		movs	r3, #0
1734:Drivers/STM32L4xx_HAL_Driver/Src/stm32l4xx_hal_smartcard.c **** }
 2202              		.loc 1 1734 1
 2203 0152 1846     		mov	r0, r3
 2204 0154 1037     		adds	r7, r7, #16
 2205              		.cfi_def_cfa_offset 8
 2206 0156 BD46     		mov	sp, r7
 2207              		.cfi_def_cfa_register 13
 2208              		@ sp needed
 2209 0158 80BD     		pop	{r7, pc}
 2210              	.L95:
 2211 015a 00BF     		.align	2
 2212              	.L94:
 2213 015c 00000000 		.word	SMARTCARD_DMATxAbortCallback
 2214 0160 00000000 		.word	SMARTCARD_DMARxAbortCallback
 2215              		.cfi_endproc
 2216              	.LFE458:
 2218              		.section	.text.HAL_SMARTCARD_AbortTransmit_IT,"ax",%progbits
 2219              		.align	1
 2220              		.global	HAL_SMARTCARD_AbortTransmit_IT
 2221              		.syntax unified
 2222              		.thumb
 2223              		.thumb_func
 2225              	HAL_SMARTCARD_AbortTransmit_IT:
ARM GAS  /tmp/ccDAjxq4.s 			page 70


 2226              	.LFB459:
1735:Drivers/STM32L4xx_HAL_Driver/Src/stm32l4xx_hal_smartcard.c **** 
1736:Drivers/STM32L4xx_HAL_Driver/Src/stm32l4xx_hal_smartcard.c **** /**
1737:Drivers/STM32L4xx_HAL_Driver/Src/stm32l4xx_hal_smartcard.c ****   * @brief  Abort ongoing Transmit transfer (Interrupt mode).
1738:Drivers/STM32L4xx_HAL_Driver/Src/stm32l4xx_hal_smartcard.c ****   * @param  hsmartcard Pointer to a SMARTCARD_HandleTypeDef structure that contains
1739:Drivers/STM32L4xx_HAL_Driver/Src/stm32l4xx_hal_smartcard.c ****   *                    the configuration information for the specified SMARTCARD module.
1740:Drivers/STM32L4xx_HAL_Driver/Src/stm32l4xx_hal_smartcard.c ****   * @note   This procedure could be used for aborting any ongoing Tx transfer started in Interrupt 
1741:Drivers/STM32L4xx_HAL_Driver/Src/stm32l4xx_hal_smartcard.c ****   *         This procedure performs following operations :
1742:Drivers/STM32L4xx_HAL_Driver/Src/stm32l4xx_hal_smartcard.c ****   *           - Disable SMARTCARD Interrupts (Tx)
1743:Drivers/STM32L4xx_HAL_Driver/Src/stm32l4xx_hal_smartcard.c ****   *           - Disable the DMA transfer in the peripheral register (if enabled)
1744:Drivers/STM32L4xx_HAL_Driver/Src/stm32l4xx_hal_smartcard.c ****   *           - Abort DMA transfer by calling HAL_DMA_Abort_IT (in case of transfer in DMA mode)
1745:Drivers/STM32L4xx_HAL_Driver/Src/stm32l4xx_hal_smartcard.c ****   *           - Set handle State to READY
1746:Drivers/STM32L4xx_HAL_Driver/Src/stm32l4xx_hal_smartcard.c ****   *           - At abort completion, call user abort complete callback
1747:Drivers/STM32L4xx_HAL_Driver/Src/stm32l4xx_hal_smartcard.c ****   * @note   This procedure is executed in Interrupt mode, meaning that abort procedure could be
1748:Drivers/STM32L4xx_HAL_Driver/Src/stm32l4xx_hal_smartcard.c ****   *         considered as completed only when user abort complete callback is executed (not when ex
1749:Drivers/STM32L4xx_HAL_Driver/Src/stm32l4xx_hal_smartcard.c ****   * @retval HAL status
1750:Drivers/STM32L4xx_HAL_Driver/Src/stm32l4xx_hal_smartcard.c ****   */
1751:Drivers/STM32L4xx_HAL_Driver/Src/stm32l4xx_hal_smartcard.c **** HAL_StatusTypeDef HAL_SMARTCARD_AbortTransmit_IT(SMARTCARD_HandleTypeDef *hsmartcard)
1752:Drivers/STM32L4xx_HAL_Driver/Src/stm32l4xx_hal_smartcard.c **** {
 2227              		.loc 1 1752 1
 2228              		.cfi_startproc
 2229              		@ args = 0, pretend = 0, frame = 8
 2230              		@ frame_needed = 1, uses_anonymous_args = 0
 2231 0000 80B5     		push	{r7, lr}
 2232              		.cfi_def_cfa_offset 8
 2233              		.cfi_offset 7, -8
 2234              		.cfi_offset 14, -4
 2235 0002 82B0     		sub	sp, sp, #8
 2236              		.cfi_def_cfa_offset 16
 2237 0004 00AF     		add	r7, sp, #0
 2238              		.cfi_def_cfa_register 7
 2239 0006 7860     		str	r0, [r7, #4]
1753:Drivers/STM32L4xx_HAL_Driver/Src/stm32l4xx_hal_smartcard.c **** #if defined(USART_CR1_FIFOEN)
1754:Drivers/STM32L4xx_HAL_Driver/Src/stm32l4xx_hal_smartcard.c ****   /* Disable TCIE, TXEIE and TXFTIE interrupts */
1755:Drivers/STM32L4xx_HAL_Driver/Src/stm32l4xx_hal_smartcard.c ****   CLEAR_BIT(hsmartcard->Instance->CR1, (USART_CR1_TXEIE_TXFNFIE | USART_CR1_TCIE));
1756:Drivers/STM32L4xx_HAL_Driver/Src/stm32l4xx_hal_smartcard.c ****   CLEAR_BIT(hsmartcard->Instance->CR3, USART_CR3_TXFTIE);
1757:Drivers/STM32L4xx_HAL_Driver/Src/stm32l4xx_hal_smartcard.c **** #else
1758:Drivers/STM32L4xx_HAL_Driver/Src/stm32l4xx_hal_smartcard.c ****   /* Disable TXEIE and TCIE interrupts */
1759:Drivers/STM32L4xx_HAL_Driver/Src/stm32l4xx_hal_smartcard.c ****   CLEAR_BIT(hsmartcard->Instance->CR1, (USART_CR1_TXEIE | USART_CR1_TCIE));
 2240              		.loc 1 1759 3
 2241 0008 7B68     		ldr	r3, [r7, #4]
 2242 000a 1B68     		ldr	r3, [r3]
 2243 000c 1A68     		ldr	r2, [r3]
 2244 000e 7B68     		ldr	r3, [r7, #4]
 2245 0010 1B68     		ldr	r3, [r3]
 2246 0012 22F0C002 		bic	r2, r2, #192
 2247 0016 1A60     		str	r2, [r3]
1760:Drivers/STM32L4xx_HAL_Driver/Src/stm32l4xx_hal_smartcard.c **** #endif /* USART_CR1_FIFOEN */
1761:Drivers/STM32L4xx_HAL_Driver/Src/stm32l4xx_hal_smartcard.c **** 
1762:Drivers/STM32L4xx_HAL_Driver/Src/stm32l4xx_hal_smartcard.c ****   /* Check if a receive process is ongoing or not. If not disable ERR IT */
1763:Drivers/STM32L4xx_HAL_Driver/Src/stm32l4xx_hal_smartcard.c ****   if (hsmartcard->RxState == HAL_SMARTCARD_STATE_READY)
 2248              		.loc 1 1763 17
 2249 0018 7B68     		ldr	r3, [r7, #4]
 2250 001a 9B6F     		ldr	r3, [r3, #120]
 2251              		.loc 1 1763 6
 2252 001c 202B     		cmp	r3, #32
 2253 001e 07D1     		bne	.L97
ARM GAS  /tmp/ccDAjxq4.s 			page 71


1764:Drivers/STM32L4xx_HAL_Driver/Src/stm32l4xx_hal_smartcard.c ****   {
1765:Drivers/STM32L4xx_HAL_Driver/Src/stm32l4xx_hal_smartcard.c ****     /* Disable the SMARTCARD Error Interrupt: (Frame error) */
1766:Drivers/STM32L4xx_HAL_Driver/Src/stm32l4xx_hal_smartcard.c ****     CLEAR_BIT(hsmartcard->Instance->CR3, USART_CR3_EIE);
 2254              		.loc 1 1766 5
 2255 0020 7B68     		ldr	r3, [r7, #4]
 2256 0022 1B68     		ldr	r3, [r3]
 2257 0024 9A68     		ldr	r2, [r3, #8]
 2258 0026 7B68     		ldr	r3, [r7, #4]
 2259 0028 1B68     		ldr	r3, [r3]
 2260 002a 22F00102 		bic	r2, r2, #1
 2261 002e 9A60     		str	r2, [r3, #8]
 2262              	.L97:
1767:Drivers/STM32L4xx_HAL_Driver/Src/stm32l4xx_hal_smartcard.c ****   }
1768:Drivers/STM32L4xx_HAL_Driver/Src/stm32l4xx_hal_smartcard.c **** 
1769:Drivers/STM32L4xx_HAL_Driver/Src/stm32l4xx_hal_smartcard.c ****   /* Disable the SMARTCARD DMA Tx request if enabled */
1770:Drivers/STM32L4xx_HAL_Driver/Src/stm32l4xx_hal_smartcard.c ****   if (HAL_IS_BIT_SET(hsmartcard->Instance->CR3, USART_CR3_DMAT))
 2263              		.loc 1 1770 7
 2264 0030 7B68     		ldr	r3, [r7, #4]
 2265 0032 1B68     		ldr	r3, [r3]
 2266 0034 9B68     		ldr	r3, [r3, #8]
 2267 0036 03F08003 		and	r3, r3, #128
 2268              		.loc 1 1770 6
 2269 003a 802B     		cmp	r3, #128
 2270 003c 2DD1     		bne	.L98
1771:Drivers/STM32L4xx_HAL_Driver/Src/stm32l4xx_hal_smartcard.c ****   {
1772:Drivers/STM32L4xx_HAL_Driver/Src/stm32l4xx_hal_smartcard.c ****     CLEAR_BIT(hsmartcard->Instance->CR3, USART_CR3_DMAT);
 2271              		.loc 1 1772 5
 2272 003e 7B68     		ldr	r3, [r7, #4]
 2273 0040 1B68     		ldr	r3, [r3]
 2274 0042 9A68     		ldr	r2, [r3, #8]
 2275 0044 7B68     		ldr	r3, [r7, #4]
 2276 0046 1B68     		ldr	r3, [r3]
 2277 0048 22F08002 		bic	r2, r2, #128
 2278 004c 9A60     		str	r2, [r3, #8]
1773:Drivers/STM32L4xx_HAL_Driver/Src/stm32l4xx_hal_smartcard.c **** 
1774:Drivers/STM32L4xx_HAL_Driver/Src/stm32l4xx_hal_smartcard.c ****     /* Abort the SMARTCARD DMA Tx channel : use non blocking DMA Abort API (callback) */
1775:Drivers/STM32L4xx_HAL_Driver/Src/stm32l4xx_hal_smartcard.c ****     if (hsmartcard->hdmatx != NULL)
 2279              		.loc 1 1775 19
 2280 004e 7B68     		ldr	r3, [r7, #4]
 2281 0050 9B6E     		ldr	r3, [r3, #104]
 2282              		.loc 1 1775 8
 2283 0052 002B     		cmp	r3, #0
 2284 0054 13D0     		beq	.L99
1776:Drivers/STM32L4xx_HAL_Driver/Src/stm32l4xx_hal_smartcard.c ****     {
1777:Drivers/STM32L4xx_HAL_Driver/Src/stm32l4xx_hal_smartcard.c ****       /* Set the SMARTCARD DMA Abort callback :
1778:Drivers/STM32L4xx_HAL_Driver/Src/stm32l4xx_hal_smartcard.c ****          will lead to call HAL_SMARTCARD_AbortCpltCallback() at end of DMA abort procedure */
1779:Drivers/STM32L4xx_HAL_Driver/Src/stm32l4xx_hal_smartcard.c ****       hsmartcard->hdmatx->XferAbortCallback = SMARTCARD_DMATxOnlyAbortCallback;
 2285              		.loc 1 1779 17
 2286 0056 7B68     		ldr	r3, [r7, #4]
 2287 0058 9B6E     		ldr	r3, [r3, #104]
 2288              		.loc 1 1779 45
 2289 005a 1B4A     		ldr	r2, .L102
 2290 005c 9A63     		str	r2, [r3, #56]
1780:Drivers/STM32L4xx_HAL_Driver/Src/stm32l4xx_hal_smartcard.c **** 
1781:Drivers/STM32L4xx_HAL_Driver/Src/stm32l4xx_hal_smartcard.c ****       /* Abort DMA TX */
1782:Drivers/STM32L4xx_HAL_Driver/Src/stm32l4xx_hal_smartcard.c ****       if (HAL_DMA_Abort_IT(hsmartcard->hdmatx) != HAL_OK)
 2291              		.loc 1 1782 11
ARM GAS  /tmp/ccDAjxq4.s 			page 72


 2292 005e 7B68     		ldr	r3, [r7, #4]
 2293 0060 9B6E     		ldr	r3, [r3, #104]
 2294 0062 1846     		mov	r0, r3
 2295 0064 FFF7FEFF 		bl	HAL_DMA_Abort_IT
 2296 0068 0346     		mov	r3, r0
 2297              		.loc 1 1782 10 discriminator 1
 2298 006a 002B     		cmp	r3, #0
 2299 006c 26D0     		beq	.L100
1783:Drivers/STM32L4xx_HAL_Driver/Src/stm32l4xx_hal_smartcard.c ****       {
1784:Drivers/STM32L4xx_HAL_Driver/Src/stm32l4xx_hal_smartcard.c ****         /* Call Directly hsmartcard->hdmatx->XferAbortCallback function in case of error */
1785:Drivers/STM32L4xx_HAL_Driver/Src/stm32l4xx_hal_smartcard.c ****         hsmartcard->hdmatx->XferAbortCallback(hsmartcard->hdmatx);
 2300              		.loc 1 1785 19
 2301 006e 7B68     		ldr	r3, [r7, #4]
 2302 0070 9B6E     		ldr	r3, [r3, #104]
 2303              		.loc 1 1785 27
 2304 0072 9B6B     		ldr	r3, [r3, #56]
 2305              		.loc 1 1785 57
 2306 0074 7A68     		ldr	r2, [r7, #4]
 2307 0076 926E     		ldr	r2, [r2, #104]
 2308              		.loc 1 1785 9
 2309 0078 1046     		mov	r0, r2
 2310 007a 9847     		blx	r3
 2311              	.LVL0:
 2312 007c 1EE0     		b	.L100
 2313              	.L99:
1786:Drivers/STM32L4xx_HAL_Driver/Src/stm32l4xx_hal_smartcard.c ****       }
1787:Drivers/STM32L4xx_HAL_Driver/Src/stm32l4xx_hal_smartcard.c ****     }
1788:Drivers/STM32L4xx_HAL_Driver/Src/stm32l4xx_hal_smartcard.c ****     else
1789:Drivers/STM32L4xx_HAL_Driver/Src/stm32l4xx_hal_smartcard.c ****     {
1790:Drivers/STM32L4xx_HAL_Driver/Src/stm32l4xx_hal_smartcard.c ****       /* Reset Tx transfer counter */
1791:Drivers/STM32L4xx_HAL_Driver/Src/stm32l4xx_hal_smartcard.c ****       hsmartcard->TxXferCount = 0U;
 2314              		.loc 1 1791 31
 2315 007e 7B68     		ldr	r3, [r7, #4]
 2316 0080 0022     		movs	r2, #0
 2317 0082 A3F85620 		strh	r2, [r3, #86]	@ movhi
1792:Drivers/STM32L4xx_HAL_Driver/Src/stm32l4xx_hal_smartcard.c **** 
1793:Drivers/STM32L4xx_HAL_Driver/Src/stm32l4xx_hal_smartcard.c ****       /* Clear TxISR function pointers */
1794:Drivers/STM32L4xx_HAL_Driver/Src/stm32l4xx_hal_smartcard.c ****       hsmartcard->TxISR = NULL;
 2318              		.loc 1 1794 25
 2319 0086 7B68     		ldr	r3, [r7, #4]
 2320 0088 0022     		movs	r2, #0
 2321 008a 5A66     		str	r2, [r3, #100]
1795:Drivers/STM32L4xx_HAL_Driver/Src/stm32l4xx_hal_smartcard.c **** 
1796:Drivers/STM32L4xx_HAL_Driver/Src/stm32l4xx_hal_smartcard.c ****       /* Restore hsmartcard->gState to Ready */
1797:Drivers/STM32L4xx_HAL_Driver/Src/stm32l4xx_hal_smartcard.c ****       hsmartcard->gState = HAL_SMARTCARD_STATE_READY;
 2322              		.loc 1 1797 26
 2323 008c 7B68     		ldr	r3, [r7, #4]
 2324 008e 2022     		movs	r2, #32
 2325 0090 5A67     		str	r2, [r3, #116]
1798:Drivers/STM32L4xx_HAL_Driver/Src/stm32l4xx_hal_smartcard.c **** 
1799:Drivers/STM32L4xx_HAL_Driver/Src/stm32l4xx_hal_smartcard.c ****       /* As no DMA to be aborted, call directly user Abort complete callback */
1800:Drivers/STM32L4xx_HAL_Driver/Src/stm32l4xx_hal_smartcard.c **** #if (USE_HAL_SMARTCARD_REGISTER_CALLBACKS == 1)
1801:Drivers/STM32L4xx_HAL_Driver/Src/stm32l4xx_hal_smartcard.c ****       /* Call registered Abort Transmit Complete Callback */
1802:Drivers/STM32L4xx_HAL_Driver/Src/stm32l4xx_hal_smartcard.c ****       hsmartcard->AbortTransmitCpltCallback(hsmartcard);
1803:Drivers/STM32L4xx_HAL_Driver/Src/stm32l4xx_hal_smartcard.c **** #else
1804:Drivers/STM32L4xx_HAL_Driver/Src/stm32l4xx_hal_smartcard.c ****       /* Call legacy weak Abort Transmit Complete Callback */
1805:Drivers/STM32L4xx_HAL_Driver/Src/stm32l4xx_hal_smartcard.c ****       HAL_SMARTCARD_AbortTransmitCpltCallback(hsmartcard);
ARM GAS  /tmp/ccDAjxq4.s 			page 73


 2326              		.loc 1 1805 7
 2327 0092 7868     		ldr	r0, [r7, #4]
 2328 0094 FFF7FEFF 		bl	HAL_SMARTCARD_AbortTransmitCpltCallback
 2329 0098 10E0     		b	.L100
 2330              	.L98:
1806:Drivers/STM32L4xx_HAL_Driver/Src/stm32l4xx_hal_smartcard.c **** #endif /* USE_HAL_SMARTCARD_REGISTER_CALLBACK */
1807:Drivers/STM32L4xx_HAL_Driver/Src/stm32l4xx_hal_smartcard.c ****     }
1808:Drivers/STM32L4xx_HAL_Driver/Src/stm32l4xx_hal_smartcard.c ****   }
1809:Drivers/STM32L4xx_HAL_Driver/Src/stm32l4xx_hal_smartcard.c ****   else
1810:Drivers/STM32L4xx_HAL_Driver/Src/stm32l4xx_hal_smartcard.c ****   {
1811:Drivers/STM32L4xx_HAL_Driver/Src/stm32l4xx_hal_smartcard.c ****     /* Reset Tx transfer counter */
1812:Drivers/STM32L4xx_HAL_Driver/Src/stm32l4xx_hal_smartcard.c ****     hsmartcard->TxXferCount = 0U;
 2331              		.loc 1 1812 29
 2332 009a 7B68     		ldr	r3, [r7, #4]
 2333 009c 0022     		movs	r2, #0
 2334 009e A3F85620 		strh	r2, [r3, #86]	@ movhi
1813:Drivers/STM32L4xx_HAL_Driver/Src/stm32l4xx_hal_smartcard.c **** 
1814:Drivers/STM32L4xx_HAL_Driver/Src/stm32l4xx_hal_smartcard.c ****     /* Clear TxISR function pointers */
1815:Drivers/STM32L4xx_HAL_Driver/Src/stm32l4xx_hal_smartcard.c ****     hsmartcard->TxISR = NULL;
 2335              		.loc 1 1815 23
 2336 00a2 7B68     		ldr	r3, [r7, #4]
 2337 00a4 0022     		movs	r2, #0
 2338 00a6 5A66     		str	r2, [r3, #100]
1816:Drivers/STM32L4xx_HAL_Driver/Src/stm32l4xx_hal_smartcard.c **** 
1817:Drivers/STM32L4xx_HAL_Driver/Src/stm32l4xx_hal_smartcard.c ****     /* Clear the Error flags in the ICR register */
1818:Drivers/STM32L4xx_HAL_Driver/Src/stm32l4xx_hal_smartcard.c ****     __HAL_SMARTCARD_CLEAR_FLAG(hsmartcard, SMARTCARD_CLEAR_FEF);
 2339              		.loc 1 1818 5
 2340 00a8 7B68     		ldr	r3, [r7, #4]
 2341 00aa 1B68     		ldr	r3, [r3]
 2342 00ac 0222     		movs	r2, #2
 2343 00ae 1A62     		str	r2, [r3, #32]
1819:Drivers/STM32L4xx_HAL_Driver/Src/stm32l4xx_hal_smartcard.c **** 
1820:Drivers/STM32L4xx_HAL_Driver/Src/stm32l4xx_hal_smartcard.c ****     /* Restore hsmartcard->gState to Ready */
1821:Drivers/STM32L4xx_HAL_Driver/Src/stm32l4xx_hal_smartcard.c ****     hsmartcard->gState = HAL_SMARTCARD_STATE_READY;
 2344              		.loc 1 1821 24
 2345 00b0 7B68     		ldr	r3, [r7, #4]
 2346 00b2 2022     		movs	r2, #32
 2347 00b4 5A67     		str	r2, [r3, #116]
1822:Drivers/STM32L4xx_HAL_Driver/Src/stm32l4xx_hal_smartcard.c **** 
1823:Drivers/STM32L4xx_HAL_Driver/Src/stm32l4xx_hal_smartcard.c ****     /* As no DMA to be aborted, call directly user Abort complete callback */
1824:Drivers/STM32L4xx_HAL_Driver/Src/stm32l4xx_hal_smartcard.c **** #if (USE_HAL_SMARTCARD_REGISTER_CALLBACKS == 1)
1825:Drivers/STM32L4xx_HAL_Driver/Src/stm32l4xx_hal_smartcard.c ****     /* Call registered Abort Transmit Complete Callback */
1826:Drivers/STM32L4xx_HAL_Driver/Src/stm32l4xx_hal_smartcard.c ****     hsmartcard->AbortTransmitCpltCallback(hsmartcard);
1827:Drivers/STM32L4xx_HAL_Driver/Src/stm32l4xx_hal_smartcard.c **** #else
1828:Drivers/STM32L4xx_HAL_Driver/Src/stm32l4xx_hal_smartcard.c ****     /* Call legacy weak Abort Transmit Complete Callback */
1829:Drivers/STM32L4xx_HAL_Driver/Src/stm32l4xx_hal_smartcard.c ****     HAL_SMARTCARD_AbortTransmitCpltCallback(hsmartcard);
 2348              		.loc 1 1829 5
 2349 00b6 7868     		ldr	r0, [r7, #4]
 2350 00b8 FFF7FEFF 		bl	HAL_SMARTCARD_AbortTransmitCpltCallback
 2351              	.L100:
1830:Drivers/STM32L4xx_HAL_Driver/Src/stm32l4xx_hal_smartcard.c **** #endif /* USE_HAL_SMARTCARD_REGISTER_CALLBACK */
1831:Drivers/STM32L4xx_HAL_Driver/Src/stm32l4xx_hal_smartcard.c ****   }
1832:Drivers/STM32L4xx_HAL_Driver/Src/stm32l4xx_hal_smartcard.c **** 
1833:Drivers/STM32L4xx_HAL_Driver/Src/stm32l4xx_hal_smartcard.c ****   return HAL_OK;
 2352              		.loc 1 1833 10
 2353 00bc 0023     		movs	r3, #0
1834:Drivers/STM32L4xx_HAL_Driver/Src/stm32l4xx_hal_smartcard.c **** }
ARM GAS  /tmp/ccDAjxq4.s 			page 74


 2354              		.loc 1 1834 1
 2355 00be 1846     		mov	r0, r3
 2356 00c0 0837     		adds	r7, r7, #8
 2357              		.cfi_def_cfa_offset 8
 2358 00c2 BD46     		mov	sp, r7
 2359              		.cfi_def_cfa_register 13
 2360              		@ sp needed
 2361 00c4 80BD     		pop	{r7, pc}
 2362              	.L103:
 2363 00c6 00BF     		.align	2
 2364              	.L102:
 2365 00c8 00000000 		.word	SMARTCARD_DMATxOnlyAbortCallback
 2366              		.cfi_endproc
 2367              	.LFE459:
 2369              		.section	.text.HAL_SMARTCARD_AbortReceive_IT,"ax",%progbits
 2370              		.align	1
 2371              		.global	HAL_SMARTCARD_AbortReceive_IT
 2372              		.syntax unified
 2373              		.thumb
 2374              		.thumb_func
 2376              	HAL_SMARTCARD_AbortReceive_IT:
 2377              	.LFB460:
1835:Drivers/STM32L4xx_HAL_Driver/Src/stm32l4xx_hal_smartcard.c **** 
1836:Drivers/STM32L4xx_HAL_Driver/Src/stm32l4xx_hal_smartcard.c **** /**
1837:Drivers/STM32L4xx_HAL_Driver/Src/stm32l4xx_hal_smartcard.c ****   * @brief  Abort ongoing Receive transfer (Interrupt mode).
1838:Drivers/STM32L4xx_HAL_Driver/Src/stm32l4xx_hal_smartcard.c ****   * @param  hsmartcard Pointer to a SMARTCARD_HandleTypeDef structure that contains
1839:Drivers/STM32L4xx_HAL_Driver/Src/stm32l4xx_hal_smartcard.c ****   *                    the configuration information for the specified SMARTCARD module.
1840:Drivers/STM32L4xx_HAL_Driver/Src/stm32l4xx_hal_smartcard.c ****   * @note   This procedure could be used for aborting any ongoing Rx transfer started in Interrupt 
1841:Drivers/STM32L4xx_HAL_Driver/Src/stm32l4xx_hal_smartcard.c ****   *         This procedure performs following operations :
1842:Drivers/STM32L4xx_HAL_Driver/Src/stm32l4xx_hal_smartcard.c ****   *           - Disable SMARTCARD Interrupts (Rx)
1843:Drivers/STM32L4xx_HAL_Driver/Src/stm32l4xx_hal_smartcard.c ****   *           - Disable the DMA transfer in the peripheral register (if enabled)
1844:Drivers/STM32L4xx_HAL_Driver/Src/stm32l4xx_hal_smartcard.c ****   *           - Abort DMA transfer by calling HAL_DMA_Abort_IT (in case of transfer in DMA mode)
1845:Drivers/STM32L4xx_HAL_Driver/Src/stm32l4xx_hal_smartcard.c ****   *           - Set handle State to READY
1846:Drivers/STM32L4xx_HAL_Driver/Src/stm32l4xx_hal_smartcard.c ****   *           - At abort completion, call user abort complete callback
1847:Drivers/STM32L4xx_HAL_Driver/Src/stm32l4xx_hal_smartcard.c ****   * @note   This procedure is executed in Interrupt mode, meaning that abort procedure could be
1848:Drivers/STM32L4xx_HAL_Driver/Src/stm32l4xx_hal_smartcard.c ****   *         considered as completed only when user abort complete callback is executed (not when ex
1849:Drivers/STM32L4xx_HAL_Driver/Src/stm32l4xx_hal_smartcard.c ****   * @retval HAL status
1850:Drivers/STM32L4xx_HAL_Driver/Src/stm32l4xx_hal_smartcard.c ****   */
1851:Drivers/STM32L4xx_HAL_Driver/Src/stm32l4xx_hal_smartcard.c **** HAL_StatusTypeDef HAL_SMARTCARD_AbortReceive_IT(SMARTCARD_HandleTypeDef *hsmartcard)
1852:Drivers/STM32L4xx_HAL_Driver/Src/stm32l4xx_hal_smartcard.c **** {
 2378              		.loc 1 1852 1
 2379              		.cfi_startproc
 2380              		@ args = 0, pretend = 0, frame = 8
 2381              		@ frame_needed = 1, uses_anonymous_args = 0
 2382 0000 80B5     		push	{r7, lr}
 2383              		.cfi_def_cfa_offset 8
 2384              		.cfi_offset 7, -8
 2385              		.cfi_offset 14, -4
 2386 0002 82B0     		sub	sp, sp, #8
 2387              		.cfi_def_cfa_offset 16
 2388 0004 00AF     		add	r7, sp, #0
 2389              		.cfi_def_cfa_register 7
 2390 0006 7860     		str	r0, [r7, #4]
1853:Drivers/STM32L4xx_HAL_Driver/Src/stm32l4xx_hal_smartcard.c **** #if defined(USART_CR1_FIFOEN)
1854:Drivers/STM32L4xx_HAL_Driver/Src/stm32l4xx_hal_smartcard.c ****   /* Disable RTOIE, EOBIE, RXNE, PE, RXFT and  ERR (Frame error, noise error, overrun error) interr
1855:Drivers/STM32L4xx_HAL_Driver/Src/stm32l4xx_hal_smartcard.c ****   CLEAR_BIT(hsmartcard->Instance->CR1, (USART_CR1_RXNEIE_RXFNEIE | USART_CR1_PEIE | USART_CR1_RTOIE
1856:Drivers/STM32L4xx_HAL_Driver/Src/stm32l4xx_hal_smartcard.c ****                                         USART_CR1_EOBIE));
ARM GAS  /tmp/ccDAjxq4.s 			page 75


1857:Drivers/STM32L4xx_HAL_Driver/Src/stm32l4xx_hal_smartcard.c ****   CLEAR_BIT(hsmartcard->Instance->CR3, (USART_CR3_EIE | USART_CR3_RXFTIE));
1858:Drivers/STM32L4xx_HAL_Driver/Src/stm32l4xx_hal_smartcard.c **** #else
1859:Drivers/STM32L4xx_HAL_Driver/Src/stm32l4xx_hal_smartcard.c ****   /* Disable RTOIE, EOBIE, RXNE, PE and ERR (Frame error, noise error, overrun error) interrupts */
1860:Drivers/STM32L4xx_HAL_Driver/Src/stm32l4xx_hal_smartcard.c ****   CLEAR_BIT(hsmartcard->Instance->CR1, (USART_CR1_RXNEIE | USART_CR1_PEIE | USART_CR1_RTOIE | USART
 2391              		.loc 1 1860 3
 2392 0008 7B68     		ldr	r3, [r7, #4]
 2393 000a 1B68     		ldr	r3, [r3]
 2394 000c 1B68     		ldr	r3, [r3]
 2395 000e 7A68     		ldr	r2, [r7, #4]
 2396 0010 1268     		ldr	r2, [r2]
 2397 0012 23F04063 		bic	r3, r3, #201326592
 2398 0016 23F49073 		bic	r3, r3, #288
 2399 001a 1360     		str	r3, [r2]
1861:Drivers/STM32L4xx_HAL_Driver/Src/stm32l4xx_hal_smartcard.c ****   CLEAR_BIT(hsmartcard->Instance->CR3, USART_CR3_EIE);
 2400              		.loc 1 1861 3
 2401 001c 7B68     		ldr	r3, [r7, #4]
 2402 001e 1B68     		ldr	r3, [r3]
 2403 0020 9A68     		ldr	r2, [r3, #8]
 2404 0022 7B68     		ldr	r3, [r7, #4]
 2405 0024 1B68     		ldr	r3, [r3]
 2406 0026 22F00102 		bic	r2, r2, #1
 2407 002a 9A60     		str	r2, [r3, #8]
1862:Drivers/STM32L4xx_HAL_Driver/Src/stm32l4xx_hal_smartcard.c **** #endif /* USART_CR1_FIFOEN */
1863:Drivers/STM32L4xx_HAL_Driver/Src/stm32l4xx_hal_smartcard.c **** 
1864:Drivers/STM32L4xx_HAL_Driver/Src/stm32l4xx_hal_smartcard.c ****   /* Check if a Transmit process is ongoing or not. If not disable ERR IT */
1865:Drivers/STM32L4xx_HAL_Driver/Src/stm32l4xx_hal_smartcard.c ****   if (hsmartcard->gState == HAL_SMARTCARD_STATE_READY)
 2408              		.loc 1 1865 17
 2409 002c 7B68     		ldr	r3, [r7, #4]
 2410 002e 5B6F     		ldr	r3, [r3, #116]
 2411              		.loc 1 1865 6
 2412 0030 202B     		cmp	r3, #32
 2413 0032 07D1     		bne	.L105
1866:Drivers/STM32L4xx_HAL_Driver/Src/stm32l4xx_hal_smartcard.c ****   {
1867:Drivers/STM32L4xx_HAL_Driver/Src/stm32l4xx_hal_smartcard.c ****     /* Disable the SMARTCARD Error Interrupt: (Frame error) */
1868:Drivers/STM32L4xx_HAL_Driver/Src/stm32l4xx_hal_smartcard.c ****     CLEAR_BIT(hsmartcard->Instance->CR3, USART_CR3_EIE);
 2414              		.loc 1 1868 5
 2415 0034 7B68     		ldr	r3, [r7, #4]
 2416 0036 1B68     		ldr	r3, [r3]
 2417 0038 9A68     		ldr	r2, [r3, #8]
 2418 003a 7B68     		ldr	r3, [r7, #4]
 2419 003c 1B68     		ldr	r3, [r3]
 2420 003e 22F00102 		bic	r2, r2, #1
 2421 0042 9A60     		str	r2, [r3, #8]
 2422              	.L105:
1869:Drivers/STM32L4xx_HAL_Driver/Src/stm32l4xx_hal_smartcard.c ****   }
1870:Drivers/STM32L4xx_HAL_Driver/Src/stm32l4xx_hal_smartcard.c **** 
1871:Drivers/STM32L4xx_HAL_Driver/Src/stm32l4xx_hal_smartcard.c ****   /* Disable the SMARTCARD DMA Rx request if enabled */
1872:Drivers/STM32L4xx_HAL_Driver/Src/stm32l4xx_hal_smartcard.c ****   if (HAL_IS_BIT_SET(hsmartcard->Instance->CR3, USART_CR3_DMAR))
 2423              		.loc 1 1872 7
 2424 0044 7B68     		ldr	r3, [r7, #4]
 2425 0046 1B68     		ldr	r3, [r3]
 2426 0048 9B68     		ldr	r3, [r3, #8]
 2427 004a 03F04003 		and	r3, r3, #64
 2428              		.loc 1 1872 6
 2429 004e 402B     		cmp	r3, #64
 2430 0050 32D1     		bne	.L106
1873:Drivers/STM32L4xx_HAL_Driver/Src/stm32l4xx_hal_smartcard.c ****   {
ARM GAS  /tmp/ccDAjxq4.s 			page 76


1874:Drivers/STM32L4xx_HAL_Driver/Src/stm32l4xx_hal_smartcard.c ****     CLEAR_BIT(hsmartcard->Instance->CR3, USART_CR3_DMAR);
 2431              		.loc 1 1874 5
 2432 0052 7B68     		ldr	r3, [r7, #4]
 2433 0054 1B68     		ldr	r3, [r3]
 2434 0056 9A68     		ldr	r2, [r3, #8]
 2435 0058 7B68     		ldr	r3, [r7, #4]
 2436 005a 1B68     		ldr	r3, [r3]
 2437 005c 22F04002 		bic	r2, r2, #64
 2438 0060 9A60     		str	r2, [r3, #8]
1875:Drivers/STM32L4xx_HAL_Driver/Src/stm32l4xx_hal_smartcard.c **** 
1876:Drivers/STM32L4xx_HAL_Driver/Src/stm32l4xx_hal_smartcard.c ****     /* Abort the SMARTCARD DMA Rx channel : use non blocking DMA Abort API (callback) */
1877:Drivers/STM32L4xx_HAL_Driver/Src/stm32l4xx_hal_smartcard.c ****     if (hsmartcard->hdmarx != NULL)
 2439              		.loc 1 1877 19
 2440 0062 7B68     		ldr	r3, [r7, #4]
 2441 0064 DB6E     		ldr	r3, [r3, #108]
 2442              		.loc 1 1877 8
 2443 0066 002B     		cmp	r3, #0
 2444 0068 13D0     		beq	.L107
1878:Drivers/STM32L4xx_HAL_Driver/Src/stm32l4xx_hal_smartcard.c ****     {
1879:Drivers/STM32L4xx_HAL_Driver/Src/stm32l4xx_hal_smartcard.c ****       /* Set the SMARTCARD DMA Abort callback :
1880:Drivers/STM32L4xx_HAL_Driver/Src/stm32l4xx_hal_smartcard.c ****          will lead to call HAL_SMARTCARD_AbortCpltCallback() at end of DMA abort procedure */
1881:Drivers/STM32L4xx_HAL_Driver/Src/stm32l4xx_hal_smartcard.c ****       hsmartcard->hdmarx->XferAbortCallback = SMARTCARD_DMARxOnlyAbortCallback;
 2445              		.loc 1 1881 17
 2446 006a 7B68     		ldr	r3, [r7, #4]
 2447 006c DB6E     		ldr	r3, [r3, #108]
 2448              		.loc 1 1881 45
 2449 006e 1E4A     		ldr	r2, .L110
 2450 0070 9A63     		str	r2, [r3, #56]
1882:Drivers/STM32L4xx_HAL_Driver/Src/stm32l4xx_hal_smartcard.c **** 
1883:Drivers/STM32L4xx_HAL_Driver/Src/stm32l4xx_hal_smartcard.c ****       /* Abort DMA RX */
1884:Drivers/STM32L4xx_HAL_Driver/Src/stm32l4xx_hal_smartcard.c ****       if (HAL_DMA_Abort_IT(hsmartcard->hdmarx) != HAL_OK)
 2451              		.loc 1 1884 11
 2452 0072 7B68     		ldr	r3, [r7, #4]
 2453 0074 DB6E     		ldr	r3, [r3, #108]
 2454 0076 1846     		mov	r0, r3
 2455 0078 FFF7FEFF 		bl	HAL_DMA_Abort_IT
 2456 007c 0346     		mov	r3, r0
 2457              		.loc 1 1884 10 discriminator 1
 2458 007e 002B     		cmp	r3, #0
 2459 0080 2CD0     		beq	.L108
1885:Drivers/STM32L4xx_HAL_Driver/Src/stm32l4xx_hal_smartcard.c ****       {
1886:Drivers/STM32L4xx_HAL_Driver/Src/stm32l4xx_hal_smartcard.c ****         /* Call Directly hsmartcard->hdmarx->XferAbortCallback function in case of error */
1887:Drivers/STM32L4xx_HAL_Driver/Src/stm32l4xx_hal_smartcard.c ****         hsmartcard->hdmarx->XferAbortCallback(hsmartcard->hdmarx);
 2460              		.loc 1 1887 19
 2461 0082 7B68     		ldr	r3, [r7, #4]
 2462 0084 DB6E     		ldr	r3, [r3, #108]
 2463              		.loc 1 1887 27
 2464 0086 9B6B     		ldr	r3, [r3, #56]
 2465              		.loc 1 1887 57
 2466 0088 7A68     		ldr	r2, [r7, #4]
 2467 008a D26E     		ldr	r2, [r2, #108]
 2468              		.loc 1 1887 9
 2469 008c 1046     		mov	r0, r2
 2470 008e 9847     		blx	r3
 2471              	.LVL1:
 2472 0090 24E0     		b	.L108
 2473              	.L107:
ARM GAS  /tmp/ccDAjxq4.s 			page 77


1888:Drivers/STM32L4xx_HAL_Driver/Src/stm32l4xx_hal_smartcard.c ****       }
1889:Drivers/STM32L4xx_HAL_Driver/Src/stm32l4xx_hal_smartcard.c ****     }
1890:Drivers/STM32L4xx_HAL_Driver/Src/stm32l4xx_hal_smartcard.c ****     else
1891:Drivers/STM32L4xx_HAL_Driver/Src/stm32l4xx_hal_smartcard.c ****     {
1892:Drivers/STM32L4xx_HAL_Driver/Src/stm32l4xx_hal_smartcard.c ****       /* Reset Rx transfer counter */
1893:Drivers/STM32L4xx_HAL_Driver/Src/stm32l4xx_hal_smartcard.c ****       hsmartcard->RxXferCount = 0U;
 2474              		.loc 1 1893 31
 2475 0092 7B68     		ldr	r3, [r7, #4]
 2476 0094 0022     		movs	r2, #0
 2477 0096 A3F85E20 		strh	r2, [r3, #94]	@ movhi
1894:Drivers/STM32L4xx_HAL_Driver/Src/stm32l4xx_hal_smartcard.c **** 
1895:Drivers/STM32L4xx_HAL_Driver/Src/stm32l4xx_hal_smartcard.c ****       /* Clear RxISR function pointer */
1896:Drivers/STM32L4xx_HAL_Driver/Src/stm32l4xx_hal_smartcard.c ****       hsmartcard->RxISR = NULL;
 2478              		.loc 1 1896 25
 2479 009a 7B68     		ldr	r3, [r7, #4]
 2480 009c 0022     		movs	r2, #0
 2481 009e 1A66     		str	r2, [r3, #96]
1897:Drivers/STM32L4xx_HAL_Driver/Src/stm32l4xx_hal_smartcard.c **** 
1898:Drivers/STM32L4xx_HAL_Driver/Src/stm32l4xx_hal_smartcard.c ****       /* Clear the Error flags in the ICR register */
1899:Drivers/STM32L4xx_HAL_Driver/Src/stm32l4xx_hal_smartcard.c ****       __HAL_SMARTCARD_CLEAR_FLAG(hsmartcard,
 2482              		.loc 1 1899 7
 2483 00a0 7B68     		ldr	r3, [r7, #4]
 2484 00a2 1B68     		ldr	r3, [r3]
 2485 00a4 41F60F02 		movw	r2, #6159
 2486 00a8 1A62     		str	r2, [r3, #32]
1900:Drivers/STM32L4xx_HAL_Driver/Src/stm32l4xx_hal_smartcard.c ****                                  SMARTCARD_CLEAR_OREF | SMARTCARD_CLEAR_NEF | SMARTCARD_CLEAR_PEF |
1901:Drivers/STM32L4xx_HAL_Driver/Src/stm32l4xx_hal_smartcard.c ****                                  SMARTCARD_CLEAR_FEF | SMARTCARD_CLEAR_RTOF | SMARTCARD_CLEAR_EOBF)
1902:Drivers/STM32L4xx_HAL_Driver/Src/stm32l4xx_hal_smartcard.c **** 
1903:Drivers/STM32L4xx_HAL_Driver/Src/stm32l4xx_hal_smartcard.c ****       /* Restore hsmartcard->RxState to Ready */
1904:Drivers/STM32L4xx_HAL_Driver/Src/stm32l4xx_hal_smartcard.c ****       hsmartcard->RxState = HAL_SMARTCARD_STATE_READY;
 2487              		.loc 1 1904 27
 2488 00aa 7B68     		ldr	r3, [r7, #4]
 2489 00ac 2022     		movs	r2, #32
 2490 00ae 9A67     		str	r2, [r3, #120]
1905:Drivers/STM32L4xx_HAL_Driver/Src/stm32l4xx_hal_smartcard.c **** 
1906:Drivers/STM32L4xx_HAL_Driver/Src/stm32l4xx_hal_smartcard.c ****       /* As no DMA to be aborted, call directly user Abort complete callback */
1907:Drivers/STM32L4xx_HAL_Driver/Src/stm32l4xx_hal_smartcard.c **** #if (USE_HAL_SMARTCARD_REGISTER_CALLBACKS == 1)
1908:Drivers/STM32L4xx_HAL_Driver/Src/stm32l4xx_hal_smartcard.c ****       /* Call registered Abort Receive Complete Callback */
1909:Drivers/STM32L4xx_HAL_Driver/Src/stm32l4xx_hal_smartcard.c ****       hsmartcard->AbortReceiveCpltCallback(hsmartcard);
1910:Drivers/STM32L4xx_HAL_Driver/Src/stm32l4xx_hal_smartcard.c **** #else
1911:Drivers/STM32L4xx_HAL_Driver/Src/stm32l4xx_hal_smartcard.c ****       /* Call legacy weak Abort Receive Complete Callback */
1912:Drivers/STM32L4xx_HAL_Driver/Src/stm32l4xx_hal_smartcard.c ****       HAL_SMARTCARD_AbortReceiveCpltCallback(hsmartcard);
 2491              		.loc 1 1912 7
 2492 00b0 7868     		ldr	r0, [r7, #4]
 2493 00b2 FFF7FEFF 		bl	HAL_SMARTCARD_AbortReceiveCpltCallback
 2494 00b6 11E0     		b	.L108
 2495              	.L106:
1913:Drivers/STM32L4xx_HAL_Driver/Src/stm32l4xx_hal_smartcard.c **** #endif /* USE_HAL_SMARTCARD_REGISTER_CALLBACK */
1914:Drivers/STM32L4xx_HAL_Driver/Src/stm32l4xx_hal_smartcard.c ****     }
1915:Drivers/STM32L4xx_HAL_Driver/Src/stm32l4xx_hal_smartcard.c ****   }
1916:Drivers/STM32L4xx_HAL_Driver/Src/stm32l4xx_hal_smartcard.c ****   else
1917:Drivers/STM32L4xx_HAL_Driver/Src/stm32l4xx_hal_smartcard.c ****   {
1918:Drivers/STM32L4xx_HAL_Driver/Src/stm32l4xx_hal_smartcard.c ****     /* Reset Rx transfer counter */
1919:Drivers/STM32L4xx_HAL_Driver/Src/stm32l4xx_hal_smartcard.c ****     hsmartcard->RxXferCount = 0U;
 2496              		.loc 1 1919 29
 2497 00b8 7B68     		ldr	r3, [r7, #4]
 2498 00ba 0022     		movs	r2, #0
ARM GAS  /tmp/ccDAjxq4.s 			page 78


 2499 00bc A3F85E20 		strh	r2, [r3, #94]	@ movhi
1920:Drivers/STM32L4xx_HAL_Driver/Src/stm32l4xx_hal_smartcard.c **** 
1921:Drivers/STM32L4xx_HAL_Driver/Src/stm32l4xx_hal_smartcard.c ****     /* Clear RxISR function pointer */
1922:Drivers/STM32L4xx_HAL_Driver/Src/stm32l4xx_hal_smartcard.c ****     hsmartcard->RxISR = NULL;
 2500              		.loc 1 1922 23
 2501 00c0 7B68     		ldr	r3, [r7, #4]
 2502 00c2 0022     		movs	r2, #0
 2503 00c4 1A66     		str	r2, [r3, #96]
1923:Drivers/STM32L4xx_HAL_Driver/Src/stm32l4xx_hal_smartcard.c **** 
1924:Drivers/STM32L4xx_HAL_Driver/Src/stm32l4xx_hal_smartcard.c ****     /* Clear the Error flags in the ICR register */
1925:Drivers/STM32L4xx_HAL_Driver/Src/stm32l4xx_hal_smartcard.c ****     __HAL_SMARTCARD_CLEAR_FLAG(hsmartcard,
 2504              		.loc 1 1925 5
 2505 00c6 7B68     		ldr	r3, [r7, #4]
 2506 00c8 1B68     		ldr	r3, [r3]
 2507 00ca 41F60F02 		movw	r2, #6159
 2508 00ce 1A62     		str	r2, [r3, #32]
1926:Drivers/STM32L4xx_HAL_Driver/Src/stm32l4xx_hal_smartcard.c ****                                SMARTCARD_CLEAR_OREF | SMARTCARD_CLEAR_NEF | SMARTCARD_CLEAR_PEF |
1927:Drivers/STM32L4xx_HAL_Driver/Src/stm32l4xx_hal_smartcard.c ****                                SMARTCARD_CLEAR_FEF | SMARTCARD_CLEAR_RTOF | SMARTCARD_CLEAR_EOBF);
1928:Drivers/STM32L4xx_HAL_Driver/Src/stm32l4xx_hal_smartcard.c **** 
1929:Drivers/STM32L4xx_HAL_Driver/Src/stm32l4xx_hal_smartcard.c ****     /* Restore hsmartcard->RxState to Ready */
1930:Drivers/STM32L4xx_HAL_Driver/Src/stm32l4xx_hal_smartcard.c ****     hsmartcard->RxState = HAL_SMARTCARD_STATE_READY;
 2509              		.loc 1 1930 25
 2510 00d0 7B68     		ldr	r3, [r7, #4]
 2511 00d2 2022     		movs	r2, #32
 2512 00d4 9A67     		str	r2, [r3, #120]
1931:Drivers/STM32L4xx_HAL_Driver/Src/stm32l4xx_hal_smartcard.c **** 
1932:Drivers/STM32L4xx_HAL_Driver/Src/stm32l4xx_hal_smartcard.c ****     /* As no DMA to be aborted, call directly user Abort complete callback */
1933:Drivers/STM32L4xx_HAL_Driver/Src/stm32l4xx_hal_smartcard.c **** #if (USE_HAL_SMARTCARD_REGISTER_CALLBACKS == 1)
1934:Drivers/STM32L4xx_HAL_Driver/Src/stm32l4xx_hal_smartcard.c ****     /* Call registered Abort Receive Complete Callback */
1935:Drivers/STM32L4xx_HAL_Driver/Src/stm32l4xx_hal_smartcard.c ****     hsmartcard->AbortReceiveCpltCallback(hsmartcard);
1936:Drivers/STM32L4xx_HAL_Driver/Src/stm32l4xx_hal_smartcard.c **** #else
1937:Drivers/STM32L4xx_HAL_Driver/Src/stm32l4xx_hal_smartcard.c ****     /* Call legacy weak Abort Receive Complete Callback */
1938:Drivers/STM32L4xx_HAL_Driver/Src/stm32l4xx_hal_smartcard.c ****     HAL_SMARTCARD_AbortReceiveCpltCallback(hsmartcard);
 2513              		.loc 1 1938 5
 2514 00d6 7868     		ldr	r0, [r7, #4]
 2515 00d8 FFF7FEFF 		bl	HAL_SMARTCARD_AbortReceiveCpltCallback
 2516              	.L108:
1939:Drivers/STM32L4xx_HAL_Driver/Src/stm32l4xx_hal_smartcard.c **** #endif /* USE_HAL_SMARTCARD_REGISTER_CALLBACK */
1940:Drivers/STM32L4xx_HAL_Driver/Src/stm32l4xx_hal_smartcard.c ****   }
1941:Drivers/STM32L4xx_HAL_Driver/Src/stm32l4xx_hal_smartcard.c **** 
1942:Drivers/STM32L4xx_HAL_Driver/Src/stm32l4xx_hal_smartcard.c ****   return HAL_OK;
 2517              		.loc 1 1942 10
 2518 00dc 0023     		movs	r3, #0
1943:Drivers/STM32L4xx_HAL_Driver/Src/stm32l4xx_hal_smartcard.c **** }
 2519              		.loc 1 1943 1
 2520 00de 1846     		mov	r0, r3
 2521 00e0 0837     		adds	r7, r7, #8
 2522              		.cfi_def_cfa_offset 8
 2523 00e2 BD46     		mov	sp, r7
 2524              		.cfi_def_cfa_register 13
 2525              		@ sp needed
 2526 00e4 80BD     		pop	{r7, pc}
 2527              	.L111:
 2528 00e6 00BF     		.align	2
 2529              	.L110:
 2530 00e8 00000000 		.word	SMARTCARD_DMARxOnlyAbortCallback
 2531              		.cfi_endproc
ARM GAS  /tmp/ccDAjxq4.s 			page 79


 2532              	.LFE460:
 2534              		.section	.text.HAL_SMARTCARD_IRQHandler,"ax",%progbits
 2535              		.align	1
 2536              		.global	HAL_SMARTCARD_IRQHandler
 2537              		.syntax unified
 2538              		.thumb
 2539              		.thumb_func
 2541              	HAL_SMARTCARD_IRQHandler:
 2542              	.LFB461:
1944:Drivers/STM32L4xx_HAL_Driver/Src/stm32l4xx_hal_smartcard.c **** 
1945:Drivers/STM32L4xx_HAL_Driver/Src/stm32l4xx_hal_smartcard.c **** /**
1946:Drivers/STM32L4xx_HAL_Driver/Src/stm32l4xx_hal_smartcard.c ****   * @brief  Handle SMARTCARD interrupt requests.
1947:Drivers/STM32L4xx_HAL_Driver/Src/stm32l4xx_hal_smartcard.c ****   * @param  hsmartcard Pointer to a SMARTCARD_HandleTypeDef structure that contains
1948:Drivers/STM32L4xx_HAL_Driver/Src/stm32l4xx_hal_smartcard.c ****   *                    the configuration information for the specified SMARTCARD module.
1949:Drivers/STM32L4xx_HAL_Driver/Src/stm32l4xx_hal_smartcard.c ****   * @retval None
1950:Drivers/STM32L4xx_HAL_Driver/Src/stm32l4xx_hal_smartcard.c ****   */
1951:Drivers/STM32L4xx_HAL_Driver/Src/stm32l4xx_hal_smartcard.c **** void HAL_SMARTCARD_IRQHandler(SMARTCARD_HandleTypeDef *hsmartcard)
1952:Drivers/STM32L4xx_HAL_Driver/Src/stm32l4xx_hal_smartcard.c **** {
 2543              		.loc 1 1952 1
 2544              		.cfi_startproc
 2545              		@ args = 0, pretend = 0, frame = 32
 2546              		@ frame_needed = 1, uses_anonymous_args = 0
 2547 0000 80B5     		push	{r7, lr}
 2548              		.cfi_def_cfa_offset 8
 2549              		.cfi_offset 7, -8
 2550              		.cfi_offset 14, -4
 2551 0002 88B0     		sub	sp, sp, #32
 2552              		.cfi_def_cfa_offset 40
 2553 0004 00AF     		add	r7, sp, #0
 2554              		.cfi_def_cfa_register 7
 2555 0006 7860     		str	r0, [r7, #4]
1953:Drivers/STM32L4xx_HAL_Driver/Src/stm32l4xx_hal_smartcard.c ****   uint32_t isrflags   = READ_REG(hsmartcard->Instance->ISR);
 2556              		.loc 1 1953 25
 2557 0008 7B68     		ldr	r3, [r7, #4]
 2558 000a 1B68     		ldr	r3, [r3]
 2559              		.loc 1 1953 12
 2560 000c DB69     		ldr	r3, [r3, #28]
 2561 000e FB61     		str	r3, [r7, #28]
1954:Drivers/STM32L4xx_HAL_Driver/Src/stm32l4xx_hal_smartcard.c ****   uint32_t cr1its     = READ_REG(hsmartcard->Instance->CR1);
 2562              		.loc 1 1954 25
 2563 0010 7B68     		ldr	r3, [r7, #4]
 2564 0012 1B68     		ldr	r3, [r3]
 2565              		.loc 1 1954 12
 2566 0014 1B68     		ldr	r3, [r3]
 2567 0016 BB61     		str	r3, [r7, #24]
1955:Drivers/STM32L4xx_HAL_Driver/Src/stm32l4xx_hal_smartcard.c ****   uint32_t cr3its     = READ_REG(hsmartcard->Instance->CR3);
 2568              		.loc 1 1955 25
 2569 0018 7B68     		ldr	r3, [r7, #4]
 2570 001a 1B68     		ldr	r3, [r3]
 2571              		.loc 1 1955 12
 2572 001c 9B68     		ldr	r3, [r3, #8]
 2573 001e 7B61     		str	r3, [r7, #20]
1956:Drivers/STM32L4xx_HAL_Driver/Src/stm32l4xx_hal_smartcard.c ****   uint32_t errorflags;
1957:Drivers/STM32L4xx_HAL_Driver/Src/stm32l4xx_hal_smartcard.c ****   uint32_t errorcode;
1958:Drivers/STM32L4xx_HAL_Driver/Src/stm32l4xx_hal_smartcard.c **** 
1959:Drivers/STM32L4xx_HAL_Driver/Src/stm32l4xx_hal_smartcard.c ****   /* If no error occurs */
1960:Drivers/STM32L4xx_HAL_Driver/Src/stm32l4xx_hal_smartcard.c ****   errorflags = (isrflags & (uint32_t)(USART_ISR_PE | USART_ISR_FE | USART_ISR_ORE | USART_ISR_NE | 
ARM GAS  /tmp/ccDAjxq4.s 			page 80


 2574              		.loc 1 1960 14
 2575 0020 FA69     		ldr	r2, [r7, #28]
 2576 0022 40F60F03 		movw	r3, #2063
 2577 0026 1340     		ands	r3, r3, r2
 2578 0028 3B61     		str	r3, [r7, #16]
1961:Drivers/STM32L4xx_HAL_Driver/Src/stm32l4xx_hal_smartcard.c ****   if (errorflags == 0U)
 2579              		.loc 1 1961 6
 2580 002a 3B69     		ldr	r3, [r7, #16]
 2581 002c 002B     		cmp	r3, #0
 2582 002e 13D1     		bne	.L113
1962:Drivers/STM32L4xx_HAL_Driver/Src/stm32l4xx_hal_smartcard.c ****   {
1963:Drivers/STM32L4xx_HAL_Driver/Src/stm32l4xx_hal_smartcard.c ****     /* SMARTCARD in mode Receiver ---------------------------------------------------*/
1964:Drivers/STM32L4xx_HAL_Driver/Src/stm32l4xx_hal_smartcard.c **** #if defined(USART_CR1_FIFOEN)
1965:Drivers/STM32L4xx_HAL_Driver/Src/stm32l4xx_hal_smartcard.c ****     if (((isrflags & USART_ISR_RXNE_RXFNE) != 0U)
1966:Drivers/STM32L4xx_HAL_Driver/Src/stm32l4xx_hal_smartcard.c ****         && (((cr1its & USART_CR1_RXNEIE_RXFNEIE) != 0U)
1967:Drivers/STM32L4xx_HAL_Driver/Src/stm32l4xx_hal_smartcard.c ****             || ((cr3its & USART_CR3_RXFTIE) != 0U)))
1968:Drivers/STM32L4xx_HAL_Driver/Src/stm32l4xx_hal_smartcard.c **** #else
1969:Drivers/STM32L4xx_HAL_Driver/Src/stm32l4xx_hal_smartcard.c ****     if (((isrflags & USART_ISR_RXNE) != 0U)
 2583              		.loc 1 1969 20
 2584 0030 FB69     		ldr	r3, [r7, #28]
 2585 0032 03F02003 		and	r3, r3, #32
 2586              		.loc 1 1969 8
 2587 0036 002B     		cmp	r3, #0
 2588 0038 0ED0     		beq	.L113
1970:Drivers/STM32L4xx_HAL_Driver/Src/stm32l4xx_hal_smartcard.c ****         && ((cr1its & USART_CR1_RXNEIE) != 0U))
 2589              		.loc 1 1970 21
 2590 003a BB69     		ldr	r3, [r7, #24]
 2591 003c 03F02003 		and	r3, r3, #32
 2592              		.loc 1 1970 9
 2593 0040 002B     		cmp	r3, #0
 2594 0042 09D0     		beq	.L113
1971:Drivers/STM32L4xx_HAL_Driver/Src/stm32l4xx_hal_smartcard.c **** #endif /* USART_CR1_FIFOEN */
1972:Drivers/STM32L4xx_HAL_Driver/Src/stm32l4xx_hal_smartcard.c ****     {
1973:Drivers/STM32L4xx_HAL_Driver/Src/stm32l4xx_hal_smartcard.c ****       if (hsmartcard->RxISR != NULL)
 2595              		.loc 1 1973 21
 2596 0044 7B68     		ldr	r3, [r7, #4]
 2597 0046 1B6E     		ldr	r3, [r3, #96]
 2598              		.loc 1 1973 10
 2599 0048 002B     		cmp	r3, #0
 2600 004a 00F09581 		beq	.L142
1974:Drivers/STM32L4xx_HAL_Driver/Src/stm32l4xx_hal_smartcard.c ****       {
1975:Drivers/STM32L4xx_HAL_Driver/Src/stm32l4xx_hal_smartcard.c ****         hsmartcard->RxISR(hsmartcard);
 2601              		.loc 1 1975 19
 2602 004e 7B68     		ldr	r3, [r7, #4]
 2603 0050 1B6E     		ldr	r3, [r3, #96]
 2604              		.loc 1 1975 9
 2605 0052 7868     		ldr	r0, [r7, #4]
 2606 0054 9847     		blx	r3
 2607              	.LVL2:
1976:Drivers/STM32L4xx_HAL_Driver/Src/stm32l4xx_hal_smartcard.c ****       }
1977:Drivers/STM32L4xx_HAL_Driver/Src/stm32l4xx_hal_smartcard.c ****       return;
 2608              		.loc 1 1977 7
 2609 0056 8FE1     		b	.L142
 2610              	.L113:
1978:Drivers/STM32L4xx_HAL_Driver/Src/stm32l4xx_hal_smartcard.c ****     }
1979:Drivers/STM32L4xx_HAL_Driver/Src/stm32l4xx_hal_smartcard.c ****   }
1980:Drivers/STM32L4xx_HAL_Driver/Src/stm32l4xx_hal_smartcard.c **** 
ARM GAS  /tmp/ccDAjxq4.s 			page 81


1981:Drivers/STM32L4xx_HAL_Driver/Src/stm32l4xx_hal_smartcard.c ****   /* If some errors occur */
1982:Drivers/STM32L4xx_HAL_Driver/Src/stm32l4xx_hal_smartcard.c **** #if defined(USART_CR1_FIFOEN)
1983:Drivers/STM32L4xx_HAL_Driver/Src/stm32l4xx_hal_smartcard.c ****   if ((errorflags != 0U)
1984:Drivers/STM32L4xx_HAL_Driver/Src/stm32l4xx_hal_smartcard.c ****       && ((((cr3its & (USART_CR3_RXFTIE | USART_CR3_EIE)) != 0U)
1985:Drivers/STM32L4xx_HAL_Driver/Src/stm32l4xx_hal_smartcard.c ****            || ((cr1its & (USART_CR1_RXNEIE_RXFNEIE | USART_CR1_PEIE)) != 0U))))
1986:Drivers/STM32L4xx_HAL_Driver/Src/stm32l4xx_hal_smartcard.c **** #else
1987:Drivers/STM32L4xx_HAL_Driver/Src/stm32l4xx_hal_smartcard.c ****   if ((errorflags != 0U)
 2611              		.loc 1 1987 6
 2612 0058 3B69     		ldr	r3, [r7, #16]
 2613 005a 002B     		cmp	r3, #0
 2614 005c 00F02681 		beq	.L116
1988:Drivers/STM32L4xx_HAL_Driver/Src/stm32l4xx_hal_smartcard.c ****       && (((cr3its & USART_CR3_EIE) != 0U)
 2615              		.loc 1 1988 20
 2616 0060 7B69     		ldr	r3, [r7, #20]
 2617 0062 03F00103 		and	r3, r3, #1
 2618              		.loc 1 1988 7
 2619 0066 002B     		cmp	r3, #0
 2620 0068 05D1     		bne	.L117
1989:Drivers/STM32L4xx_HAL_Driver/Src/stm32l4xx_hal_smartcard.c ****           || ((cr1its & (USART_CR1_RXNEIE | USART_CR1_PEIE)) != 0U)))
 2621              		.loc 1 1989 23
 2622 006a BB69     		ldr	r3, [r7, #24]
 2623 006c 03F49073 		and	r3, r3, #288
 2624              		.loc 1 1989 11
 2625 0070 002B     		cmp	r3, #0
 2626 0072 00F01B81 		beq	.L116
 2627              	.L117:
1990:Drivers/STM32L4xx_HAL_Driver/Src/stm32l4xx_hal_smartcard.c **** #endif /* USART_CR1_FIFOEN */
1991:Drivers/STM32L4xx_HAL_Driver/Src/stm32l4xx_hal_smartcard.c ****   {
1992:Drivers/STM32L4xx_HAL_Driver/Src/stm32l4xx_hal_smartcard.c ****     /* SMARTCARD parity error interrupt occurred -------------------------------------*/
1993:Drivers/STM32L4xx_HAL_Driver/Src/stm32l4xx_hal_smartcard.c ****     if (((isrflags & USART_ISR_PE) != 0U) && ((cr1its & USART_CR1_PEIE) != 0U))
 2628              		.loc 1 1993 20
 2629 0076 FB69     		ldr	r3, [r7, #28]
 2630 0078 03F00103 		and	r3, r3, #1
 2631              		.loc 1 1993 8
 2632 007c 002B     		cmp	r3, #0
 2633 007e 12D0     		beq	.L118
 2634              		.loc 1 1993 55 discriminator 1
 2635 0080 BB69     		ldr	r3, [r7, #24]
 2636 0082 03F48073 		and	r3, r3, #256
 2637              		.loc 1 1993 43 discriminator 1
 2638 0086 002B     		cmp	r3, #0
 2639 0088 0DD0     		beq	.L118
1994:Drivers/STM32L4xx_HAL_Driver/Src/stm32l4xx_hal_smartcard.c ****     {
1995:Drivers/STM32L4xx_HAL_Driver/Src/stm32l4xx_hal_smartcard.c ****       __HAL_SMARTCARD_CLEAR_IT(hsmartcard, SMARTCARD_CLEAR_PEF);
 2640              		.loc 1 1995 7
 2641 008a 7B68     		ldr	r3, [r7, #4]
 2642 008c 1B68     		ldr	r3, [r3]
 2643 008e 1A6A     		ldr	r2, [r3, #32]
 2644 0090 7B68     		ldr	r3, [r7, #4]
 2645 0092 1B68     		ldr	r3, [r3]
 2646 0094 42F00102 		orr	r2, r2, #1
 2647 0098 1A62     		str	r2, [r3, #32]
1996:Drivers/STM32L4xx_HAL_Driver/Src/stm32l4xx_hal_smartcard.c **** 
1997:Drivers/STM32L4xx_HAL_Driver/Src/stm32l4xx_hal_smartcard.c ****       hsmartcard->ErrorCode |= HAL_SMARTCARD_ERROR_PE;
 2648              		.loc 1 1997 17
 2649 009a 7B68     		ldr	r3, [r7, #4]
 2650 009c DB6F     		ldr	r3, [r3, #124]
ARM GAS  /tmp/ccDAjxq4.s 			page 82


 2651              		.loc 1 1997 29
 2652 009e 43F00102 		orr	r2, r3, #1
 2653 00a2 7B68     		ldr	r3, [r7, #4]
 2654 00a4 DA67     		str	r2, [r3, #124]
 2655              	.L118:
1998:Drivers/STM32L4xx_HAL_Driver/Src/stm32l4xx_hal_smartcard.c ****     }
1999:Drivers/STM32L4xx_HAL_Driver/Src/stm32l4xx_hal_smartcard.c **** 
2000:Drivers/STM32L4xx_HAL_Driver/Src/stm32l4xx_hal_smartcard.c ****     /* SMARTCARD frame error interrupt occurred --------------------------------------*/
2001:Drivers/STM32L4xx_HAL_Driver/Src/stm32l4xx_hal_smartcard.c ****     if (((isrflags & USART_ISR_FE) != 0U) && ((cr3its & USART_CR3_EIE) != 0U))
 2656              		.loc 1 2001 20
 2657 00a6 FB69     		ldr	r3, [r7, #28]
 2658 00a8 03F00203 		and	r3, r3, #2
 2659              		.loc 1 2001 8
 2660 00ac 002B     		cmp	r3, #0
 2661 00ae 12D0     		beq	.L119
 2662              		.loc 1 2001 55 discriminator 1
 2663 00b0 7B69     		ldr	r3, [r7, #20]
 2664 00b2 03F00103 		and	r3, r3, #1
 2665              		.loc 1 2001 43 discriminator 1
 2666 00b6 002B     		cmp	r3, #0
 2667 00b8 0DD0     		beq	.L119
2002:Drivers/STM32L4xx_HAL_Driver/Src/stm32l4xx_hal_smartcard.c ****     {
2003:Drivers/STM32L4xx_HAL_Driver/Src/stm32l4xx_hal_smartcard.c ****       __HAL_SMARTCARD_CLEAR_IT(hsmartcard, SMARTCARD_CLEAR_FEF);
 2668              		.loc 1 2003 7
 2669 00ba 7B68     		ldr	r3, [r7, #4]
 2670 00bc 1B68     		ldr	r3, [r3]
 2671 00be 1A6A     		ldr	r2, [r3, #32]
 2672 00c0 7B68     		ldr	r3, [r7, #4]
 2673 00c2 1B68     		ldr	r3, [r3]
 2674 00c4 42F00202 		orr	r2, r2, #2
 2675 00c8 1A62     		str	r2, [r3, #32]
2004:Drivers/STM32L4xx_HAL_Driver/Src/stm32l4xx_hal_smartcard.c **** 
2005:Drivers/STM32L4xx_HAL_Driver/Src/stm32l4xx_hal_smartcard.c ****       hsmartcard->ErrorCode |= HAL_SMARTCARD_ERROR_FE;
 2676              		.loc 1 2005 17
 2677 00ca 7B68     		ldr	r3, [r7, #4]
 2678 00cc DB6F     		ldr	r3, [r3, #124]
 2679              		.loc 1 2005 29
 2680 00ce 43F00402 		orr	r2, r3, #4
 2681 00d2 7B68     		ldr	r3, [r7, #4]
 2682 00d4 DA67     		str	r2, [r3, #124]
 2683              	.L119:
2006:Drivers/STM32L4xx_HAL_Driver/Src/stm32l4xx_hal_smartcard.c ****     }
2007:Drivers/STM32L4xx_HAL_Driver/Src/stm32l4xx_hal_smartcard.c **** 
2008:Drivers/STM32L4xx_HAL_Driver/Src/stm32l4xx_hal_smartcard.c ****     /* SMARTCARD noise error interrupt occurred --------------------------------------*/
2009:Drivers/STM32L4xx_HAL_Driver/Src/stm32l4xx_hal_smartcard.c ****     if (((isrflags & USART_ISR_NE) != 0U) && ((cr3its & USART_CR3_EIE) != 0U))
 2684              		.loc 1 2009 20
 2685 00d6 FB69     		ldr	r3, [r7, #28]
 2686 00d8 03F00403 		and	r3, r3, #4
 2687              		.loc 1 2009 8
 2688 00dc 002B     		cmp	r3, #0
 2689 00de 12D0     		beq	.L120
 2690              		.loc 1 2009 55 discriminator 1
 2691 00e0 7B69     		ldr	r3, [r7, #20]
 2692 00e2 03F00103 		and	r3, r3, #1
 2693              		.loc 1 2009 43 discriminator 1
 2694 00e6 002B     		cmp	r3, #0
 2695 00e8 0DD0     		beq	.L120
ARM GAS  /tmp/ccDAjxq4.s 			page 83


2010:Drivers/STM32L4xx_HAL_Driver/Src/stm32l4xx_hal_smartcard.c ****     {
2011:Drivers/STM32L4xx_HAL_Driver/Src/stm32l4xx_hal_smartcard.c ****       __HAL_SMARTCARD_CLEAR_IT(hsmartcard, SMARTCARD_CLEAR_NEF);
 2696              		.loc 1 2011 7
 2697 00ea 7B68     		ldr	r3, [r7, #4]
 2698 00ec 1B68     		ldr	r3, [r3]
 2699 00ee 1A6A     		ldr	r2, [r3, #32]
 2700 00f0 7B68     		ldr	r3, [r7, #4]
 2701 00f2 1B68     		ldr	r3, [r3]
 2702 00f4 42F00402 		orr	r2, r2, #4
 2703 00f8 1A62     		str	r2, [r3, #32]
2012:Drivers/STM32L4xx_HAL_Driver/Src/stm32l4xx_hal_smartcard.c **** 
2013:Drivers/STM32L4xx_HAL_Driver/Src/stm32l4xx_hal_smartcard.c ****       hsmartcard->ErrorCode |= HAL_SMARTCARD_ERROR_NE;
 2704              		.loc 1 2013 17
 2705 00fa 7B68     		ldr	r3, [r7, #4]
 2706 00fc DB6F     		ldr	r3, [r3, #124]
 2707              		.loc 1 2013 29
 2708 00fe 43F00202 		orr	r2, r3, #2
 2709 0102 7B68     		ldr	r3, [r7, #4]
 2710 0104 DA67     		str	r2, [r3, #124]
 2711              	.L120:
2014:Drivers/STM32L4xx_HAL_Driver/Src/stm32l4xx_hal_smartcard.c ****     }
2015:Drivers/STM32L4xx_HAL_Driver/Src/stm32l4xx_hal_smartcard.c **** 
2016:Drivers/STM32L4xx_HAL_Driver/Src/stm32l4xx_hal_smartcard.c ****     /* SMARTCARD Over-Run interrupt occurred -----------------------------------------*/
2017:Drivers/STM32L4xx_HAL_Driver/Src/stm32l4xx_hal_smartcard.c **** #if defined(USART_CR1_FIFOEN)
2018:Drivers/STM32L4xx_HAL_Driver/Src/stm32l4xx_hal_smartcard.c ****     if (((isrflags & USART_ISR_ORE) != 0U)
2019:Drivers/STM32L4xx_HAL_Driver/Src/stm32l4xx_hal_smartcard.c ****         && (((cr1its & USART_CR1_RXNEIE_RXFNEIE) != 0U)
2020:Drivers/STM32L4xx_HAL_Driver/Src/stm32l4xx_hal_smartcard.c ****             || ((cr3its & USART_CR3_RXFTIE) != 0U)
2021:Drivers/STM32L4xx_HAL_Driver/Src/stm32l4xx_hal_smartcard.c ****             || ((cr3its & USART_CR3_EIE) != 0U)))
2022:Drivers/STM32L4xx_HAL_Driver/Src/stm32l4xx_hal_smartcard.c **** #else
2023:Drivers/STM32L4xx_HAL_Driver/Src/stm32l4xx_hal_smartcard.c ****     if (((isrflags & USART_ISR_ORE) != 0U)
 2712              		.loc 1 2023 20
 2713 0106 FB69     		ldr	r3, [r7, #28]
 2714 0108 03F00803 		and	r3, r3, #8
 2715              		.loc 1 2023 8
 2716 010c 002B     		cmp	r3, #0
 2717 010e 17D0     		beq	.L121
2024:Drivers/STM32L4xx_HAL_Driver/Src/stm32l4xx_hal_smartcard.c ****         && (((cr1its & USART_CR1_RXNEIE) != 0U)
 2718              		.loc 1 2024 22
 2719 0110 BB69     		ldr	r3, [r7, #24]
 2720 0112 03F02003 		and	r3, r3, #32
 2721              		.loc 1 2024 9
 2722 0116 002B     		cmp	r3, #0
 2723 0118 04D1     		bne	.L122
2025:Drivers/STM32L4xx_HAL_Driver/Src/stm32l4xx_hal_smartcard.c ****             || ((cr3its & USART_CR3_EIE) != 0U)))
 2724              		.loc 1 2025 25
 2725 011a 7B69     		ldr	r3, [r7, #20]
 2726 011c 03F00103 		and	r3, r3, #1
 2727              		.loc 1 2025 13
 2728 0120 002B     		cmp	r3, #0
 2729 0122 0DD0     		beq	.L121
 2730              	.L122:
2026:Drivers/STM32L4xx_HAL_Driver/Src/stm32l4xx_hal_smartcard.c **** #endif /* USART_CR1_FIFOEN */
2027:Drivers/STM32L4xx_HAL_Driver/Src/stm32l4xx_hal_smartcard.c ****     {
2028:Drivers/STM32L4xx_HAL_Driver/Src/stm32l4xx_hal_smartcard.c ****       __HAL_SMARTCARD_CLEAR_IT(hsmartcard, SMARTCARD_CLEAR_OREF);
 2731              		.loc 1 2028 7
 2732 0124 7B68     		ldr	r3, [r7, #4]
 2733 0126 1B68     		ldr	r3, [r3]
ARM GAS  /tmp/ccDAjxq4.s 			page 84


 2734 0128 1A6A     		ldr	r2, [r3, #32]
 2735 012a 7B68     		ldr	r3, [r7, #4]
 2736 012c 1B68     		ldr	r3, [r3]
 2737 012e 42F00802 		orr	r2, r2, #8
 2738 0132 1A62     		str	r2, [r3, #32]
2029:Drivers/STM32L4xx_HAL_Driver/Src/stm32l4xx_hal_smartcard.c **** 
2030:Drivers/STM32L4xx_HAL_Driver/Src/stm32l4xx_hal_smartcard.c ****       hsmartcard->ErrorCode |= HAL_SMARTCARD_ERROR_ORE;
 2739              		.loc 1 2030 17
 2740 0134 7B68     		ldr	r3, [r7, #4]
 2741 0136 DB6F     		ldr	r3, [r3, #124]
 2742              		.loc 1 2030 29
 2743 0138 43F00802 		orr	r2, r3, #8
 2744 013c 7B68     		ldr	r3, [r7, #4]
 2745 013e DA67     		str	r2, [r3, #124]
 2746              	.L121:
2031:Drivers/STM32L4xx_HAL_Driver/Src/stm32l4xx_hal_smartcard.c ****     }
2032:Drivers/STM32L4xx_HAL_Driver/Src/stm32l4xx_hal_smartcard.c **** 
2033:Drivers/STM32L4xx_HAL_Driver/Src/stm32l4xx_hal_smartcard.c ****     /* SMARTCARD receiver timeout interrupt occurred -----------------------------------------*/
2034:Drivers/STM32L4xx_HAL_Driver/Src/stm32l4xx_hal_smartcard.c ****     if (((isrflags & USART_ISR_RTOF) != 0U) && ((cr1its & USART_CR1_RTOIE) != 0U))
 2747              		.loc 1 2034 20
 2748 0140 FB69     		ldr	r3, [r7, #28]
 2749 0142 03F40063 		and	r3, r3, #2048
 2750              		.loc 1 2034 8
 2751 0146 002B     		cmp	r3, #0
 2752 0148 12D0     		beq	.L123
 2753              		.loc 1 2034 57 discriminator 1
 2754 014a BB69     		ldr	r3, [r7, #24]
 2755 014c 03F08063 		and	r3, r3, #67108864
 2756              		.loc 1 2034 45 discriminator 1
 2757 0150 002B     		cmp	r3, #0
 2758 0152 0DD0     		beq	.L123
2035:Drivers/STM32L4xx_HAL_Driver/Src/stm32l4xx_hal_smartcard.c ****     {
2036:Drivers/STM32L4xx_HAL_Driver/Src/stm32l4xx_hal_smartcard.c ****       __HAL_SMARTCARD_CLEAR_IT(hsmartcard, SMARTCARD_CLEAR_RTOF);
 2759              		.loc 1 2036 7
 2760 0154 7B68     		ldr	r3, [r7, #4]
 2761 0156 1B68     		ldr	r3, [r3]
 2762 0158 1A6A     		ldr	r2, [r3, #32]
 2763 015a 7B68     		ldr	r3, [r7, #4]
 2764 015c 1B68     		ldr	r3, [r3]
 2765 015e 42F40062 		orr	r2, r2, #2048
 2766 0162 1A62     		str	r2, [r3, #32]
2037:Drivers/STM32L4xx_HAL_Driver/Src/stm32l4xx_hal_smartcard.c **** 
2038:Drivers/STM32L4xx_HAL_Driver/Src/stm32l4xx_hal_smartcard.c ****       hsmartcard->ErrorCode |= HAL_SMARTCARD_ERROR_RTO;
 2767              		.loc 1 2038 17
 2768 0164 7B68     		ldr	r3, [r7, #4]
 2769 0166 DB6F     		ldr	r3, [r3, #124]
 2770              		.loc 1 2038 29
 2771 0168 43F02002 		orr	r2, r3, #32
 2772 016c 7B68     		ldr	r3, [r7, #4]
 2773 016e DA67     		str	r2, [r3, #124]
 2774              	.L123:
2039:Drivers/STM32L4xx_HAL_Driver/Src/stm32l4xx_hal_smartcard.c ****     }
2040:Drivers/STM32L4xx_HAL_Driver/Src/stm32l4xx_hal_smartcard.c **** 
2041:Drivers/STM32L4xx_HAL_Driver/Src/stm32l4xx_hal_smartcard.c ****     /* Call SMARTCARD Error Call back function if need be --------------------------*/
2042:Drivers/STM32L4xx_HAL_Driver/Src/stm32l4xx_hal_smartcard.c ****     if (hsmartcard->ErrorCode != HAL_SMARTCARD_ERROR_NONE)
 2775              		.loc 1 2042 19
 2776 0170 7B68     		ldr	r3, [r7, #4]
ARM GAS  /tmp/ccDAjxq4.s 			page 85


 2777 0172 DB6F     		ldr	r3, [r3, #124]
 2778              		.loc 1 2042 8
 2779 0174 002B     		cmp	r3, #0
 2780 0176 00F00181 		beq	.L143
2043:Drivers/STM32L4xx_HAL_Driver/Src/stm32l4xx_hal_smartcard.c ****     {
2044:Drivers/STM32L4xx_HAL_Driver/Src/stm32l4xx_hal_smartcard.c ****       /* SMARTCARD in mode Receiver ---------------------------------------------------*/
2045:Drivers/STM32L4xx_HAL_Driver/Src/stm32l4xx_hal_smartcard.c **** #if defined(USART_CR1_FIFOEN)
2046:Drivers/STM32L4xx_HAL_Driver/Src/stm32l4xx_hal_smartcard.c ****       if (((isrflags & USART_ISR_RXNE_RXFNE) != 0U)
2047:Drivers/STM32L4xx_HAL_Driver/Src/stm32l4xx_hal_smartcard.c ****           && (((cr1its & USART_CR1_RXNEIE_RXFNEIE) != 0U)
2048:Drivers/STM32L4xx_HAL_Driver/Src/stm32l4xx_hal_smartcard.c ****               || ((cr3its & USART_CR3_RXFTIE) != 0U)))
2049:Drivers/STM32L4xx_HAL_Driver/Src/stm32l4xx_hal_smartcard.c **** #else
2050:Drivers/STM32L4xx_HAL_Driver/Src/stm32l4xx_hal_smartcard.c ****       if (((isrflags & USART_ISR_RXNE) != 0U)
 2781              		.loc 1 2050 22
 2782 017a FB69     		ldr	r3, [r7, #28]
 2783 017c 03F02003 		and	r3, r3, #32
 2784              		.loc 1 2050 10
 2785 0180 002B     		cmp	r3, #0
 2786 0182 0CD0     		beq	.L125
2051:Drivers/STM32L4xx_HAL_Driver/Src/stm32l4xx_hal_smartcard.c ****           && ((cr1its & USART_CR1_RXNEIE) != 0U))
 2787              		.loc 1 2051 23
 2788 0184 BB69     		ldr	r3, [r7, #24]
 2789 0186 03F02003 		and	r3, r3, #32
 2790              		.loc 1 2051 11
 2791 018a 002B     		cmp	r3, #0
 2792 018c 07D0     		beq	.L125
2052:Drivers/STM32L4xx_HAL_Driver/Src/stm32l4xx_hal_smartcard.c **** #endif /* USART_CR1_FIFOEN */
2053:Drivers/STM32L4xx_HAL_Driver/Src/stm32l4xx_hal_smartcard.c ****       {
2054:Drivers/STM32L4xx_HAL_Driver/Src/stm32l4xx_hal_smartcard.c ****         if (hsmartcard->RxISR != NULL)
 2793              		.loc 1 2054 23
 2794 018e 7B68     		ldr	r3, [r7, #4]
 2795 0190 1B6E     		ldr	r3, [r3, #96]
 2796              		.loc 1 2054 12
 2797 0192 002B     		cmp	r3, #0
 2798 0194 03D0     		beq	.L125
2055:Drivers/STM32L4xx_HAL_Driver/Src/stm32l4xx_hal_smartcard.c ****         {
2056:Drivers/STM32L4xx_HAL_Driver/Src/stm32l4xx_hal_smartcard.c ****           hsmartcard->RxISR(hsmartcard);
 2799              		.loc 1 2056 21
 2800 0196 7B68     		ldr	r3, [r7, #4]
 2801 0198 1B6E     		ldr	r3, [r3, #96]
 2802              		.loc 1 2056 11
 2803 019a 7868     		ldr	r0, [r7, #4]
 2804 019c 9847     		blx	r3
 2805              	.LVL3:
 2806              	.L125:
2057:Drivers/STM32L4xx_HAL_Driver/Src/stm32l4xx_hal_smartcard.c ****         }
2058:Drivers/STM32L4xx_HAL_Driver/Src/stm32l4xx_hal_smartcard.c ****       }
2059:Drivers/STM32L4xx_HAL_Driver/Src/stm32l4xx_hal_smartcard.c **** 
2060:Drivers/STM32L4xx_HAL_Driver/Src/stm32l4xx_hal_smartcard.c ****       /* If Error is to be considered as blocking :
2061:Drivers/STM32L4xx_HAL_Driver/Src/stm32l4xx_hal_smartcard.c ****           - Receiver Timeout error in Reception
2062:Drivers/STM32L4xx_HAL_Driver/Src/stm32l4xx_hal_smartcard.c ****           - Overrun error in Reception
2063:Drivers/STM32L4xx_HAL_Driver/Src/stm32l4xx_hal_smartcard.c ****           - any error occurs in DMA mode reception
2064:Drivers/STM32L4xx_HAL_Driver/Src/stm32l4xx_hal_smartcard.c ****       */
2065:Drivers/STM32L4xx_HAL_Driver/Src/stm32l4xx_hal_smartcard.c ****       errorcode = hsmartcard->ErrorCode;
 2807              		.loc 1 2065 17
 2808 019e 7B68     		ldr	r3, [r7, #4]
 2809 01a0 DB6F     		ldr	r3, [r3, #124]
 2810 01a2 FB60     		str	r3, [r7, #12]
ARM GAS  /tmp/ccDAjxq4.s 			page 86


2066:Drivers/STM32L4xx_HAL_Driver/Src/stm32l4xx_hal_smartcard.c ****       if ((HAL_IS_BIT_SET(hsmartcard->Instance->CR3, USART_CR3_DMAR))
 2811              		.loc 1 2066 12
 2812 01a4 7B68     		ldr	r3, [r7, #4]
 2813 01a6 1B68     		ldr	r3, [r3]
 2814 01a8 9B68     		ldr	r3, [r3, #8]
 2815 01aa 03F04003 		and	r3, r3, #64
 2816              		.loc 1 2066 10
 2817 01ae 402B     		cmp	r3, #64
 2818 01b0 04D0     		beq	.L126
2067:Drivers/STM32L4xx_HAL_Driver/Src/stm32l4xx_hal_smartcard.c ****           || ((errorcode & (HAL_SMARTCARD_ERROR_RTO | HAL_SMARTCARD_ERROR_ORE)) != 0U))
 2819              		.loc 1 2067 26
 2820 01b2 FB68     		ldr	r3, [r7, #12]
 2821 01b4 03F02803 		and	r3, r3, #40
 2822              		.loc 1 2067 11
 2823 01b8 002B     		cmp	r3, #0
 2824 01ba 31D0     		beq	.L127
 2825              	.L126:
2068:Drivers/STM32L4xx_HAL_Driver/Src/stm32l4xx_hal_smartcard.c ****       {
2069:Drivers/STM32L4xx_HAL_Driver/Src/stm32l4xx_hal_smartcard.c ****         /* Blocking error : transfer is aborted
2070:Drivers/STM32L4xx_HAL_Driver/Src/stm32l4xx_hal_smartcard.c ****            Set the SMARTCARD state ready to be able to start again the process,
2071:Drivers/STM32L4xx_HAL_Driver/Src/stm32l4xx_hal_smartcard.c ****            Disable Rx Interrupts, and disable Rx DMA request, if ongoing */
2072:Drivers/STM32L4xx_HAL_Driver/Src/stm32l4xx_hal_smartcard.c ****         SMARTCARD_EndRxTransfer(hsmartcard);
 2826              		.loc 1 2072 9
 2827 01bc 7868     		ldr	r0, [r7, #4]
 2828 01be FFF7FEFF 		bl	SMARTCARD_EndRxTransfer
2073:Drivers/STM32L4xx_HAL_Driver/Src/stm32l4xx_hal_smartcard.c **** 
2074:Drivers/STM32L4xx_HAL_Driver/Src/stm32l4xx_hal_smartcard.c ****         /* Disable the SMARTCARD DMA Rx request if enabled */
2075:Drivers/STM32L4xx_HAL_Driver/Src/stm32l4xx_hal_smartcard.c ****         if (HAL_IS_BIT_SET(hsmartcard->Instance->CR3, USART_CR3_DMAR))
 2829              		.loc 1 2075 13
 2830 01c2 7B68     		ldr	r3, [r7, #4]
 2831 01c4 1B68     		ldr	r3, [r3]
 2832 01c6 9B68     		ldr	r3, [r3, #8]
 2833 01c8 03F04003 		and	r3, r3, #64
 2834              		.loc 1 2075 12
 2835 01cc 402B     		cmp	r3, #64
 2836 01ce 23D1     		bne	.L128
2076:Drivers/STM32L4xx_HAL_Driver/Src/stm32l4xx_hal_smartcard.c ****         {
2077:Drivers/STM32L4xx_HAL_Driver/Src/stm32l4xx_hal_smartcard.c ****           CLEAR_BIT(hsmartcard->Instance->CR3, USART_CR3_DMAR);
 2837              		.loc 1 2077 11
 2838 01d0 7B68     		ldr	r3, [r7, #4]
 2839 01d2 1B68     		ldr	r3, [r3]
 2840 01d4 9A68     		ldr	r2, [r3, #8]
 2841 01d6 7B68     		ldr	r3, [r7, #4]
 2842 01d8 1B68     		ldr	r3, [r3]
 2843 01da 22F04002 		bic	r2, r2, #64
 2844 01de 9A60     		str	r2, [r3, #8]
2078:Drivers/STM32L4xx_HAL_Driver/Src/stm32l4xx_hal_smartcard.c **** 
2079:Drivers/STM32L4xx_HAL_Driver/Src/stm32l4xx_hal_smartcard.c ****           /* Abort the SMARTCARD DMA Rx channel */
2080:Drivers/STM32L4xx_HAL_Driver/Src/stm32l4xx_hal_smartcard.c ****           if (hsmartcard->hdmarx != NULL)
 2845              		.loc 1 2080 25
 2846 01e0 7B68     		ldr	r3, [r7, #4]
 2847 01e2 DB6E     		ldr	r3, [r3, #108]
 2848              		.loc 1 2080 14
 2849 01e4 002B     		cmp	r3, #0
 2850 01e6 13D0     		beq	.L129
2081:Drivers/STM32L4xx_HAL_Driver/Src/stm32l4xx_hal_smartcard.c ****           {
2082:Drivers/STM32L4xx_HAL_Driver/Src/stm32l4xx_hal_smartcard.c ****             /* Set the SMARTCARD DMA Abort callback :
ARM GAS  /tmp/ccDAjxq4.s 			page 87


2083:Drivers/STM32L4xx_HAL_Driver/Src/stm32l4xx_hal_smartcard.c ****                will lead to call HAL_SMARTCARD_ErrorCallback() at end of DMA abort procedure */
2084:Drivers/STM32L4xx_HAL_Driver/Src/stm32l4xx_hal_smartcard.c ****             hsmartcard->hdmarx->XferAbortCallback = SMARTCARD_DMAAbortOnError;
 2851              		.loc 1 2084 23
 2852 01e8 7B68     		ldr	r3, [r7, #4]
 2853 01ea DB6E     		ldr	r3, [r3, #108]
 2854              		.loc 1 2084 51
 2855 01ec 664A     		ldr	r2, .L147
 2856 01ee 9A63     		str	r2, [r3, #56]
2085:Drivers/STM32L4xx_HAL_Driver/Src/stm32l4xx_hal_smartcard.c **** 
2086:Drivers/STM32L4xx_HAL_Driver/Src/stm32l4xx_hal_smartcard.c ****             /* Abort DMA RX */
2087:Drivers/STM32L4xx_HAL_Driver/Src/stm32l4xx_hal_smartcard.c ****             if (HAL_DMA_Abort_IT(hsmartcard->hdmarx) != HAL_OK)
 2857              		.loc 1 2087 17
 2858 01f0 7B68     		ldr	r3, [r7, #4]
 2859 01f2 DB6E     		ldr	r3, [r3, #108]
 2860 01f4 1846     		mov	r0, r3
 2861 01f6 FFF7FEFF 		bl	HAL_DMA_Abort_IT
 2862 01fa 0346     		mov	r3, r0
 2863              		.loc 1 2087 16 discriminator 1
 2864 01fc 002B     		cmp	r3, #0
 2865 01fe 51D0     		beq	.L144
2088:Drivers/STM32L4xx_HAL_Driver/Src/stm32l4xx_hal_smartcard.c ****             {
2089:Drivers/STM32L4xx_HAL_Driver/Src/stm32l4xx_hal_smartcard.c ****               /* Call Directly hsmartcard->hdmarx->XferAbortCallback function in case of error */
2090:Drivers/STM32L4xx_HAL_Driver/Src/stm32l4xx_hal_smartcard.c ****               hsmartcard->hdmarx->XferAbortCallback(hsmartcard->hdmarx);
 2866              		.loc 1 2090 25
 2867 0200 7B68     		ldr	r3, [r7, #4]
 2868 0202 DB6E     		ldr	r3, [r3, #108]
 2869              		.loc 1 2090 33
 2870 0204 9B6B     		ldr	r3, [r3, #56]
 2871              		.loc 1 2090 63
 2872 0206 7A68     		ldr	r2, [r7, #4]
 2873 0208 D26E     		ldr	r2, [r2, #108]
 2874              		.loc 1 2090 15
 2875 020a 1046     		mov	r0, r2
 2876 020c 9847     		blx	r3
 2877              	.LVL4:
2075:Drivers/STM32L4xx_HAL_Driver/Src/stm32l4xx_hal_smartcard.c ****         {
 2878              		.loc 1 2075 12
 2879 020e 49E0     		b	.L144
 2880              	.L129:
2091:Drivers/STM32L4xx_HAL_Driver/Src/stm32l4xx_hal_smartcard.c ****             }
2092:Drivers/STM32L4xx_HAL_Driver/Src/stm32l4xx_hal_smartcard.c ****           }
2093:Drivers/STM32L4xx_HAL_Driver/Src/stm32l4xx_hal_smartcard.c ****           else
2094:Drivers/STM32L4xx_HAL_Driver/Src/stm32l4xx_hal_smartcard.c ****           {
2095:Drivers/STM32L4xx_HAL_Driver/Src/stm32l4xx_hal_smartcard.c **** #if (USE_HAL_SMARTCARD_REGISTER_CALLBACKS == 1)
2096:Drivers/STM32L4xx_HAL_Driver/Src/stm32l4xx_hal_smartcard.c ****             /* Call registered user error callback */
2097:Drivers/STM32L4xx_HAL_Driver/Src/stm32l4xx_hal_smartcard.c ****             hsmartcard->ErrorCallback(hsmartcard);
2098:Drivers/STM32L4xx_HAL_Driver/Src/stm32l4xx_hal_smartcard.c **** #else
2099:Drivers/STM32L4xx_HAL_Driver/Src/stm32l4xx_hal_smartcard.c ****             /* Call legacy weak user error callback */
2100:Drivers/STM32L4xx_HAL_Driver/Src/stm32l4xx_hal_smartcard.c ****             HAL_SMARTCARD_ErrorCallback(hsmartcard);
 2881              		.loc 1 2100 13
 2882 0210 7868     		ldr	r0, [r7, #4]
 2883 0212 FFF7FEFF 		bl	HAL_SMARTCARD_ErrorCallback
2075:Drivers/STM32L4xx_HAL_Driver/Src/stm32l4xx_hal_smartcard.c ****         {
 2884              		.loc 1 2075 12
 2885 0216 45E0     		b	.L144
 2886              	.L128:
2101:Drivers/STM32L4xx_HAL_Driver/Src/stm32l4xx_hal_smartcard.c **** #endif /* USE_HAL_SMARTCARD_REGISTER_CALLBACK */
ARM GAS  /tmp/ccDAjxq4.s 			page 88


2102:Drivers/STM32L4xx_HAL_Driver/Src/stm32l4xx_hal_smartcard.c ****           }
2103:Drivers/STM32L4xx_HAL_Driver/Src/stm32l4xx_hal_smartcard.c ****         }
2104:Drivers/STM32L4xx_HAL_Driver/Src/stm32l4xx_hal_smartcard.c ****         else
2105:Drivers/STM32L4xx_HAL_Driver/Src/stm32l4xx_hal_smartcard.c ****         {
2106:Drivers/STM32L4xx_HAL_Driver/Src/stm32l4xx_hal_smartcard.c **** #if (USE_HAL_SMARTCARD_REGISTER_CALLBACKS == 1)
2107:Drivers/STM32L4xx_HAL_Driver/Src/stm32l4xx_hal_smartcard.c ****           /* Call registered user error callback */
2108:Drivers/STM32L4xx_HAL_Driver/Src/stm32l4xx_hal_smartcard.c ****           hsmartcard->ErrorCallback(hsmartcard);
2109:Drivers/STM32L4xx_HAL_Driver/Src/stm32l4xx_hal_smartcard.c **** #else
2110:Drivers/STM32L4xx_HAL_Driver/Src/stm32l4xx_hal_smartcard.c ****           /* Call legacy weak user error callback */
2111:Drivers/STM32L4xx_HAL_Driver/Src/stm32l4xx_hal_smartcard.c ****           HAL_SMARTCARD_ErrorCallback(hsmartcard);
 2887              		.loc 1 2111 11
 2888 0218 7868     		ldr	r0, [r7, #4]
 2889 021a FFF7FEFF 		bl	HAL_SMARTCARD_ErrorCallback
2075:Drivers/STM32L4xx_HAL_Driver/Src/stm32l4xx_hal_smartcard.c ****         {
 2890              		.loc 1 2075 12
 2891 021e 41E0     		b	.L144
 2892              	.L127:
2112:Drivers/STM32L4xx_HAL_Driver/Src/stm32l4xx_hal_smartcard.c **** #endif /* USE_HAL_SMARTCARD_REGISTER_CALLBACK */
2113:Drivers/STM32L4xx_HAL_Driver/Src/stm32l4xx_hal_smartcard.c ****         }
2114:Drivers/STM32L4xx_HAL_Driver/Src/stm32l4xx_hal_smartcard.c ****       }
2115:Drivers/STM32L4xx_HAL_Driver/Src/stm32l4xx_hal_smartcard.c ****       /* other error type to be considered as blocking :
2116:Drivers/STM32L4xx_HAL_Driver/Src/stm32l4xx_hal_smartcard.c ****           - Frame error in Transmission
2117:Drivers/STM32L4xx_HAL_Driver/Src/stm32l4xx_hal_smartcard.c ****       */
2118:Drivers/STM32L4xx_HAL_Driver/Src/stm32l4xx_hal_smartcard.c ****       else if ((hsmartcard->gState == HAL_SMARTCARD_STATE_BUSY_TX)
 2893              		.loc 1 2118 27
 2894 0220 7B68     		ldr	r3, [r7, #4]
 2895 0222 5B6F     		ldr	r3, [r3, #116]
 2896              		.loc 1 2118 15
 2897 0224 212B     		cmp	r3, #33
 2898 0226 36D1     		bne	.L131
2119:Drivers/STM32L4xx_HAL_Driver/Src/stm32l4xx_hal_smartcard.c ****                && ((errorcode & HAL_SMARTCARD_ERROR_FE) != 0U))
 2899              		.loc 1 2119 31
 2900 0228 FB68     		ldr	r3, [r7, #12]
 2901 022a 03F00403 		and	r3, r3, #4
 2902              		.loc 1 2119 16
 2903 022e 002B     		cmp	r3, #0
 2904 0230 31D0     		beq	.L131
2120:Drivers/STM32L4xx_HAL_Driver/Src/stm32l4xx_hal_smartcard.c ****       {
2121:Drivers/STM32L4xx_HAL_Driver/Src/stm32l4xx_hal_smartcard.c ****         /* Blocking error : transfer is aborted
2122:Drivers/STM32L4xx_HAL_Driver/Src/stm32l4xx_hal_smartcard.c ****            Set the SMARTCARD state ready to be able to start again the process,
2123:Drivers/STM32L4xx_HAL_Driver/Src/stm32l4xx_hal_smartcard.c ****            Disable Tx Interrupts, and disable Tx DMA request, if ongoing */
2124:Drivers/STM32L4xx_HAL_Driver/Src/stm32l4xx_hal_smartcard.c ****         SMARTCARD_EndTxTransfer(hsmartcard);
 2905              		.loc 1 2124 9
 2906 0232 7868     		ldr	r0, [r7, #4]
 2907 0234 FFF7FEFF 		bl	SMARTCARD_EndTxTransfer
2125:Drivers/STM32L4xx_HAL_Driver/Src/stm32l4xx_hal_smartcard.c **** 
2126:Drivers/STM32L4xx_HAL_Driver/Src/stm32l4xx_hal_smartcard.c ****         /* Disable the SMARTCARD DMA Tx request if enabled */
2127:Drivers/STM32L4xx_HAL_Driver/Src/stm32l4xx_hal_smartcard.c ****         if (HAL_IS_BIT_SET(hsmartcard->Instance->CR3, USART_CR3_DMAT))
 2908              		.loc 1 2127 13
 2909 0238 7B68     		ldr	r3, [r7, #4]
 2910 023a 1B68     		ldr	r3, [r3]
 2911 023c 9B68     		ldr	r3, [r3, #8]
 2912 023e 03F08003 		and	r3, r3, #128
 2913              		.loc 1 2127 12
 2914 0242 802B     		cmp	r3, #128
 2915 0244 23D1     		bne	.L132
2128:Drivers/STM32L4xx_HAL_Driver/Src/stm32l4xx_hal_smartcard.c ****         {
ARM GAS  /tmp/ccDAjxq4.s 			page 89


2129:Drivers/STM32L4xx_HAL_Driver/Src/stm32l4xx_hal_smartcard.c ****           CLEAR_BIT(hsmartcard->Instance->CR3, USART_CR3_DMAT);
 2916              		.loc 1 2129 11
 2917 0246 7B68     		ldr	r3, [r7, #4]
 2918 0248 1B68     		ldr	r3, [r3]
 2919 024a 9A68     		ldr	r2, [r3, #8]
 2920 024c 7B68     		ldr	r3, [r7, #4]
 2921 024e 1B68     		ldr	r3, [r3]
 2922 0250 22F08002 		bic	r2, r2, #128
 2923 0254 9A60     		str	r2, [r3, #8]
2130:Drivers/STM32L4xx_HAL_Driver/Src/stm32l4xx_hal_smartcard.c **** 
2131:Drivers/STM32L4xx_HAL_Driver/Src/stm32l4xx_hal_smartcard.c ****           /* Abort the SMARTCARD DMA Tx channel */
2132:Drivers/STM32L4xx_HAL_Driver/Src/stm32l4xx_hal_smartcard.c ****           if (hsmartcard->hdmatx != NULL)
 2924              		.loc 1 2132 25
 2925 0256 7B68     		ldr	r3, [r7, #4]
 2926 0258 9B6E     		ldr	r3, [r3, #104]
 2927              		.loc 1 2132 14
 2928 025a 002B     		cmp	r3, #0
 2929 025c 13D0     		beq	.L133
2133:Drivers/STM32L4xx_HAL_Driver/Src/stm32l4xx_hal_smartcard.c ****           {
2134:Drivers/STM32L4xx_HAL_Driver/Src/stm32l4xx_hal_smartcard.c ****             /* Set the SMARTCARD DMA Abort callback :
2135:Drivers/STM32L4xx_HAL_Driver/Src/stm32l4xx_hal_smartcard.c ****                will lead to call HAL_SMARTCARD_ErrorCallback() at end of DMA abort procedure */
2136:Drivers/STM32L4xx_HAL_Driver/Src/stm32l4xx_hal_smartcard.c ****             hsmartcard->hdmatx->XferAbortCallback = SMARTCARD_DMAAbortOnError;
 2930              		.loc 1 2136 23
 2931 025e 7B68     		ldr	r3, [r7, #4]
 2932 0260 9B6E     		ldr	r3, [r3, #104]
 2933              		.loc 1 2136 51
 2934 0262 494A     		ldr	r2, .L147
 2935 0264 9A63     		str	r2, [r3, #56]
2137:Drivers/STM32L4xx_HAL_Driver/Src/stm32l4xx_hal_smartcard.c **** 
2138:Drivers/STM32L4xx_HAL_Driver/Src/stm32l4xx_hal_smartcard.c ****             /* Abort DMA TX */
2139:Drivers/STM32L4xx_HAL_Driver/Src/stm32l4xx_hal_smartcard.c ****             if (HAL_DMA_Abort_IT(hsmartcard->hdmatx) != HAL_OK)
 2936              		.loc 1 2139 17
 2937 0266 7B68     		ldr	r3, [r7, #4]
 2938 0268 9B6E     		ldr	r3, [r3, #104]
 2939 026a 1846     		mov	r0, r3
 2940 026c FFF7FEFF 		bl	HAL_DMA_Abort_IT
 2941 0270 0346     		mov	r3, r0
 2942              		.loc 1 2139 16 discriminator 1
 2943 0272 002B     		cmp	r3, #0
 2944 0274 18D0     		beq	.L145
2140:Drivers/STM32L4xx_HAL_Driver/Src/stm32l4xx_hal_smartcard.c ****             {
2141:Drivers/STM32L4xx_HAL_Driver/Src/stm32l4xx_hal_smartcard.c ****               /* Call Directly hsmartcard->hdmatx->XferAbortCallback function in case of error */
2142:Drivers/STM32L4xx_HAL_Driver/Src/stm32l4xx_hal_smartcard.c ****               hsmartcard->hdmatx->XferAbortCallback(hsmartcard->hdmatx);
 2945              		.loc 1 2142 25
 2946 0276 7B68     		ldr	r3, [r7, #4]
 2947 0278 9B6E     		ldr	r3, [r3, #104]
 2948              		.loc 1 2142 33
 2949 027a 9B6B     		ldr	r3, [r3, #56]
 2950              		.loc 1 2142 63
 2951 027c 7A68     		ldr	r2, [r7, #4]
 2952 027e 926E     		ldr	r2, [r2, #104]
 2953              		.loc 1 2142 15
 2954 0280 1046     		mov	r0, r2
 2955 0282 9847     		blx	r3
 2956              	.LVL5:
2127:Drivers/STM32L4xx_HAL_Driver/Src/stm32l4xx_hal_smartcard.c ****         {
 2957              		.loc 1 2127 12
ARM GAS  /tmp/ccDAjxq4.s 			page 90


 2958 0284 10E0     		b	.L145
 2959              	.L133:
2143:Drivers/STM32L4xx_HAL_Driver/Src/stm32l4xx_hal_smartcard.c ****             }
2144:Drivers/STM32L4xx_HAL_Driver/Src/stm32l4xx_hal_smartcard.c ****           }
2145:Drivers/STM32L4xx_HAL_Driver/Src/stm32l4xx_hal_smartcard.c ****           else
2146:Drivers/STM32L4xx_HAL_Driver/Src/stm32l4xx_hal_smartcard.c ****           {
2147:Drivers/STM32L4xx_HAL_Driver/Src/stm32l4xx_hal_smartcard.c **** #if (USE_HAL_SMARTCARD_REGISTER_CALLBACKS == 1)
2148:Drivers/STM32L4xx_HAL_Driver/Src/stm32l4xx_hal_smartcard.c ****             /* Call registered user error callback */
2149:Drivers/STM32L4xx_HAL_Driver/Src/stm32l4xx_hal_smartcard.c ****             hsmartcard->ErrorCallback(hsmartcard);
2150:Drivers/STM32L4xx_HAL_Driver/Src/stm32l4xx_hal_smartcard.c **** #else
2151:Drivers/STM32L4xx_HAL_Driver/Src/stm32l4xx_hal_smartcard.c ****             /* Call legacy weak user error callback */
2152:Drivers/STM32L4xx_HAL_Driver/Src/stm32l4xx_hal_smartcard.c ****             HAL_SMARTCARD_ErrorCallback(hsmartcard);
 2960              		.loc 1 2152 13
 2961 0286 7868     		ldr	r0, [r7, #4]
 2962 0288 FFF7FEFF 		bl	HAL_SMARTCARD_ErrorCallback
2127:Drivers/STM32L4xx_HAL_Driver/Src/stm32l4xx_hal_smartcard.c ****         {
 2963              		.loc 1 2127 12
 2964 028c 0CE0     		b	.L145
 2965              	.L132:
2153:Drivers/STM32L4xx_HAL_Driver/Src/stm32l4xx_hal_smartcard.c **** #endif /* USE_HAL_SMARTCARD_REGISTER_CALLBACK */
2154:Drivers/STM32L4xx_HAL_Driver/Src/stm32l4xx_hal_smartcard.c ****           }
2155:Drivers/STM32L4xx_HAL_Driver/Src/stm32l4xx_hal_smartcard.c ****         }
2156:Drivers/STM32L4xx_HAL_Driver/Src/stm32l4xx_hal_smartcard.c ****         else
2157:Drivers/STM32L4xx_HAL_Driver/Src/stm32l4xx_hal_smartcard.c ****         {
2158:Drivers/STM32L4xx_HAL_Driver/Src/stm32l4xx_hal_smartcard.c **** #if (USE_HAL_SMARTCARD_REGISTER_CALLBACKS == 1)
2159:Drivers/STM32L4xx_HAL_Driver/Src/stm32l4xx_hal_smartcard.c ****           /* Call registered user error callback */
2160:Drivers/STM32L4xx_HAL_Driver/Src/stm32l4xx_hal_smartcard.c ****           hsmartcard->ErrorCallback(hsmartcard);
2161:Drivers/STM32L4xx_HAL_Driver/Src/stm32l4xx_hal_smartcard.c **** #else
2162:Drivers/STM32L4xx_HAL_Driver/Src/stm32l4xx_hal_smartcard.c ****           /* Call legacy weak user error callback */
2163:Drivers/STM32L4xx_HAL_Driver/Src/stm32l4xx_hal_smartcard.c ****           HAL_SMARTCARD_ErrorCallback(hsmartcard);
 2966              		.loc 1 2163 11
 2967 028e 7868     		ldr	r0, [r7, #4]
 2968 0290 FFF7FEFF 		bl	HAL_SMARTCARD_ErrorCallback
2127:Drivers/STM32L4xx_HAL_Driver/Src/stm32l4xx_hal_smartcard.c ****         {
 2969              		.loc 1 2127 12
 2970 0294 08E0     		b	.L145
 2971              	.L131:
2164:Drivers/STM32L4xx_HAL_Driver/Src/stm32l4xx_hal_smartcard.c **** #endif /* USE_HAL_SMARTCARD_REGISTER_CALLBACK */
2165:Drivers/STM32L4xx_HAL_Driver/Src/stm32l4xx_hal_smartcard.c ****         }
2166:Drivers/STM32L4xx_HAL_Driver/Src/stm32l4xx_hal_smartcard.c ****       }
2167:Drivers/STM32L4xx_HAL_Driver/Src/stm32l4xx_hal_smartcard.c ****       else
2168:Drivers/STM32L4xx_HAL_Driver/Src/stm32l4xx_hal_smartcard.c ****       {
2169:Drivers/STM32L4xx_HAL_Driver/Src/stm32l4xx_hal_smartcard.c ****         /* Non Blocking error : transfer could go on.
2170:Drivers/STM32L4xx_HAL_Driver/Src/stm32l4xx_hal_smartcard.c ****            Error is notified to user through user error callback */
2171:Drivers/STM32L4xx_HAL_Driver/Src/stm32l4xx_hal_smartcard.c **** #if (USE_HAL_SMARTCARD_REGISTER_CALLBACKS == 1)
2172:Drivers/STM32L4xx_HAL_Driver/Src/stm32l4xx_hal_smartcard.c ****         /* Call registered user error callback */
2173:Drivers/STM32L4xx_HAL_Driver/Src/stm32l4xx_hal_smartcard.c ****         hsmartcard->ErrorCallback(hsmartcard);
2174:Drivers/STM32L4xx_HAL_Driver/Src/stm32l4xx_hal_smartcard.c **** #else
2175:Drivers/STM32L4xx_HAL_Driver/Src/stm32l4xx_hal_smartcard.c ****         /* Call legacy weak user error callback */
2176:Drivers/STM32L4xx_HAL_Driver/Src/stm32l4xx_hal_smartcard.c ****         HAL_SMARTCARD_ErrorCallback(hsmartcard);
 2972              		.loc 1 2176 9
 2973 0296 7868     		ldr	r0, [r7, #4]
 2974 0298 FFF7FEFF 		bl	HAL_SMARTCARD_ErrorCallback
2177:Drivers/STM32L4xx_HAL_Driver/Src/stm32l4xx_hal_smartcard.c **** #endif /* USE_HAL_SMARTCARD_REGISTER_CALLBACK */
2178:Drivers/STM32L4xx_HAL_Driver/Src/stm32l4xx_hal_smartcard.c ****         hsmartcard->ErrorCode = HAL_SMARTCARD_ERROR_NONE;
 2975              		.loc 1 2178 31
 2976 029c 7B68     		ldr	r3, [r7, #4]
ARM GAS  /tmp/ccDAjxq4.s 			page 91


 2977 029e 0022     		movs	r2, #0
 2978 02a0 DA67     		str	r2, [r3, #124]
2179:Drivers/STM32L4xx_HAL_Driver/Src/stm32l4xx_hal_smartcard.c ****       }
2180:Drivers/STM32L4xx_HAL_Driver/Src/stm32l4xx_hal_smartcard.c ****     }
2181:Drivers/STM32L4xx_HAL_Driver/Src/stm32l4xx_hal_smartcard.c ****     return;
 2979              		.loc 1 2181 5
 2980 02a2 6BE0     		b	.L143
 2981              	.L144:
2075:Drivers/STM32L4xx_HAL_Driver/Src/stm32l4xx_hal_smartcard.c ****         {
 2982              		.loc 1 2075 12
 2983 02a4 00BF     		nop
 2984 02a6 69E0     		b	.L143
 2985              	.L145:
2127:Drivers/STM32L4xx_HAL_Driver/Src/stm32l4xx_hal_smartcard.c ****         {
 2986              		.loc 1 2127 12
 2987 02a8 00BF     		nop
 2988              		.loc 1 2181 5
 2989 02aa 67E0     		b	.L143
 2990              	.L116:
2182:Drivers/STM32L4xx_HAL_Driver/Src/stm32l4xx_hal_smartcard.c **** 
2183:Drivers/STM32L4xx_HAL_Driver/Src/stm32l4xx_hal_smartcard.c ****   } /* End if some error occurs */
2184:Drivers/STM32L4xx_HAL_Driver/Src/stm32l4xx_hal_smartcard.c **** 
2185:Drivers/STM32L4xx_HAL_Driver/Src/stm32l4xx_hal_smartcard.c ****   /* SMARTCARD in mode Receiver, end of block interruption ------------------------*/
2186:Drivers/STM32L4xx_HAL_Driver/Src/stm32l4xx_hal_smartcard.c ****   if (((isrflags & USART_ISR_EOBF) != 0U) && ((cr1its & USART_CR1_EOBIE) != 0U))
 2991              		.loc 1 2186 18
 2992 02ac FB69     		ldr	r3, [r7, #28]
 2993 02ae 03F48053 		and	r3, r3, #4096
 2994              		.loc 1 2186 6
 2995 02b2 002B     		cmp	r3, #0
 2996 02b4 17D0     		beq	.L135
 2997              		.loc 1 2186 55 discriminator 1
 2998 02b6 BB69     		ldr	r3, [r7, #24]
 2999 02b8 03F00063 		and	r3, r3, #134217728
 3000              		.loc 1 2186 43 discriminator 1
 3001 02bc 002B     		cmp	r3, #0
 3002 02be 12D0     		beq	.L135
2187:Drivers/STM32L4xx_HAL_Driver/Src/stm32l4xx_hal_smartcard.c ****   {
2188:Drivers/STM32L4xx_HAL_Driver/Src/stm32l4xx_hal_smartcard.c ****     hsmartcard->RxState = HAL_SMARTCARD_STATE_READY;
 3003              		.loc 1 2188 25
 3004 02c0 7B68     		ldr	r3, [r7, #4]
 3005 02c2 2022     		movs	r2, #32
 3006 02c4 9A67     		str	r2, [r3, #120]
2189:Drivers/STM32L4xx_HAL_Driver/Src/stm32l4xx_hal_smartcard.c ****     __HAL_UNLOCK(hsmartcard);
 3007              		.loc 1 2189 5
 3008 02c6 7B68     		ldr	r3, [r7, #4]
 3009 02c8 0022     		movs	r2, #0
 3010 02ca 83F87020 		strb	r2, [r3, #112]
2190:Drivers/STM32L4xx_HAL_Driver/Src/stm32l4xx_hal_smartcard.c **** #if (USE_HAL_SMARTCARD_REGISTER_CALLBACKS == 1)
2191:Drivers/STM32L4xx_HAL_Driver/Src/stm32l4xx_hal_smartcard.c ****     /* Call registered Rx complete callback */
2192:Drivers/STM32L4xx_HAL_Driver/Src/stm32l4xx_hal_smartcard.c ****     hsmartcard->RxCpltCallback(hsmartcard);
2193:Drivers/STM32L4xx_HAL_Driver/Src/stm32l4xx_hal_smartcard.c **** #else
2194:Drivers/STM32L4xx_HAL_Driver/Src/stm32l4xx_hal_smartcard.c ****     /* Call legacy weak Rx complete callback */
2195:Drivers/STM32L4xx_HAL_Driver/Src/stm32l4xx_hal_smartcard.c ****     HAL_SMARTCARD_RxCpltCallback(hsmartcard);
 3011              		.loc 1 2195 5
 3012 02ce 7868     		ldr	r0, [r7, #4]
 3013 02d0 FFF7FEFF 		bl	HAL_SMARTCARD_RxCpltCallback
2196:Drivers/STM32L4xx_HAL_Driver/Src/stm32l4xx_hal_smartcard.c **** #endif /* USE_HAL_SMARTCARD_REGISTER_CALLBACK */
ARM GAS  /tmp/ccDAjxq4.s 			page 92


2197:Drivers/STM32L4xx_HAL_Driver/Src/stm32l4xx_hal_smartcard.c ****     /* Clear EOBF interrupt after HAL_SMARTCARD_RxCpltCallback() call for the End of Block informat
2198:Drivers/STM32L4xx_HAL_Driver/Src/stm32l4xx_hal_smartcard.c ****        to be available during HAL_SMARTCARD_RxCpltCallback() processing */
2199:Drivers/STM32L4xx_HAL_Driver/Src/stm32l4xx_hal_smartcard.c ****     __HAL_SMARTCARD_CLEAR_IT(hsmartcard, SMARTCARD_CLEAR_EOBF);
 3014              		.loc 1 2199 5
 3015 02d4 7B68     		ldr	r3, [r7, #4]
 3016 02d6 1B68     		ldr	r3, [r3]
 3017 02d8 1A6A     		ldr	r2, [r3, #32]
 3018 02da 7B68     		ldr	r3, [r7, #4]
 3019 02dc 1B68     		ldr	r3, [r3]
 3020 02de 42F48052 		orr	r2, r2, #4096
 3021 02e2 1A62     		str	r2, [r3, #32]
2200:Drivers/STM32L4xx_HAL_Driver/Src/stm32l4xx_hal_smartcard.c ****     return;
 3022              		.loc 1 2200 5
 3023 02e4 4DE0     		b	.L112
 3024              	.L135:
2201:Drivers/STM32L4xx_HAL_Driver/Src/stm32l4xx_hal_smartcard.c ****   }
2202:Drivers/STM32L4xx_HAL_Driver/Src/stm32l4xx_hal_smartcard.c **** 
2203:Drivers/STM32L4xx_HAL_Driver/Src/stm32l4xx_hal_smartcard.c ****   /* SMARTCARD in mode Transmitter ------------------------------------------------*/
2204:Drivers/STM32L4xx_HAL_Driver/Src/stm32l4xx_hal_smartcard.c **** #if defined(USART_CR1_FIFOEN)
2205:Drivers/STM32L4xx_HAL_Driver/Src/stm32l4xx_hal_smartcard.c ****   if (((isrflags & USART_ISR_TXE_TXFNF) != 0U)
2206:Drivers/STM32L4xx_HAL_Driver/Src/stm32l4xx_hal_smartcard.c ****       && (((cr1its & USART_CR1_TXEIE_TXFNFIE) != 0U)
2207:Drivers/STM32L4xx_HAL_Driver/Src/stm32l4xx_hal_smartcard.c ****           || ((cr3its & USART_CR3_TXFTIE) != 0U)))
2208:Drivers/STM32L4xx_HAL_Driver/Src/stm32l4xx_hal_smartcard.c **** #else
2209:Drivers/STM32L4xx_HAL_Driver/Src/stm32l4xx_hal_smartcard.c ****   if (((isrflags & USART_ISR_TXE) != 0U)
 3025              		.loc 1 2209 18
 3026 02e6 FB69     		ldr	r3, [r7, #28]
 3027 02e8 03F08003 		and	r3, r3, #128
 3028              		.loc 1 2209 6
 3029 02ec 002B     		cmp	r3, #0
 3030 02ee 0DD0     		beq	.L136
2210:Drivers/STM32L4xx_HAL_Driver/Src/stm32l4xx_hal_smartcard.c ****       && ((cr1its & USART_CR1_TXEIE) != 0U))
 3031              		.loc 1 2210 19
 3032 02f0 BB69     		ldr	r3, [r7, #24]
 3033 02f2 03F08003 		and	r3, r3, #128
 3034              		.loc 1 2210 7
 3035 02f6 002B     		cmp	r3, #0
 3036 02f8 08D0     		beq	.L136
2211:Drivers/STM32L4xx_HAL_Driver/Src/stm32l4xx_hal_smartcard.c **** #endif /* USART_CR1_FIFOEN */
2212:Drivers/STM32L4xx_HAL_Driver/Src/stm32l4xx_hal_smartcard.c ****   {
2213:Drivers/STM32L4xx_HAL_Driver/Src/stm32l4xx_hal_smartcard.c ****     if (hsmartcard->TxISR != NULL)
 3037              		.loc 1 2213 19
 3038 02fa 7B68     		ldr	r3, [r7, #4]
 3039 02fc 5B6E     		ldr	r3, [r3, #100]
 3040              		.loc 1 2213 8
 3041 02fe 002B     		cmp	r3, #0
 3042 0300 3ED0     		beq	.L146
2214:Drivers/STM32L4xx_HAL_Driver/Src/stm32l4xx_hal_smartcard.c ****     {
2215:Drivers/STM32L4xx_HAL_Driver/Src/stm32l4xx_hal_smartcard.c ****       hsmartcard->TxISR(hsmartcard);
 3043              		.loc 1 2215 17
 3044 0302 7B68     		ldr	r3, [r7, #4]
 3045 0304 5B6E     		ldr	r3, [r3, #100]
 3046              		.loc 1 2215 7
 3047 0306 7868     		ldr	r0, [r7, #4]
 3048 0308 9847     		blx	r3
 3049              	.LVL6:
2216:Drivers/STM32L4xx_HAL_Driver/Src/stm32l4xx_hal_smartcard.c ****     }
2217:Drivers/STM32L4xx_HAL_Driver/Src/stm32l4xx_hal_smartcard.c ****     return;
ARM GAS  /tmp/ccDAjxq4.s 			page 93


 3050              		.loc 1 2217 5
 3051 030a 39E0     		b	.L146
 3052              	.L136:
2218:Drivers/STM32L4xx_HAL_Driver/Src/stm32l4xx_hal_smartcard.c ****   }
2219:Drivers/STM32L4xx_HAL_Driver/Src/stm32l4xx_hal_smartcard.c **** 
2220:Drivers/STM32L4xx_HAL_Driver/Src/stm32l4xx_hal_smartcard.c ****   /* SMARTCARD in mode Transmitter (transmission end) ------------------------*/
2221:Drivers/STM32L4xx_HAL_Driver/Src/stm32l4xx_hal_smartcard.c ****   if (__HAL_SMARTCARD_GET_IT(hsmartcard, hsmartcard->AdvancedInit.TxCompletionIndication) != RESET)
 3053              		.loc 1 2221 7
 3054 030c 7B68     		ldr	r3, [r7, #4]
 3055 030e 1B68     		ldr	r3, [r3]
 3056 0310 DA69     		ldr	r2, [r3, #28]
 3057 0312 7B68     		ldr	r3, [r7, #4]
 3058 0314 B3F84C30 		ldrh	r3, [r3, #76]
 3059 0318 1B0A     		lsrs	r3, r3, #8
 3060 031a 03F01F03 		and	r3, r3, #31
 3061 031e 22FA03F3 		lsr	r3, r2, r3
 3062 0322 03F00103 		and	r3, r3, #1
 3063              		.loc 1 2221 6
 3064 0326 002B     		cmp	r3, #0
 3065 0328 2BD0     		beq	.L112
2222:Drivers/STM32L4xx_HAL_Driver/Src/stm32l4xx_hal_smartcard.c ****   {
2223:Drivers/STM32L4xx_HAL_Driver/Src/stm32l4xx_hal_smartcard.c ****     if (__HAL_SMARTCARD_GET_IT_SOURCE(hsmartcard, hsmartcard->AdvancedInit.TxCompletionIndication) 
 3066              		.loc 1 2223 9
 3067 032a 7B68     		ldr	r3, [r7, #4]
 3068 032c B3F84C30 		ldrh	r3, [r3, #76]
 3069 0330 03F0E003 		and	r3, r3, #224
 3070 0334 202B     		cmp	r3, #32
 3071 0336 03D1     		bne	.L138
 3072              		.loc 1 2223 9 is_stmt 0 discriminator 1
 3073 0338 7B68     		ldr	r3, [r7, #4]
 3074 033a 1B68     		ldr	r3, [r3]
 3075 033c 1B68     		ldr	r3, [r3]
 3076 033e 0DE0     		b	.L139
 3077              	.L138:
 3078              		.loc 1 2223 9 discriminator 2
 3079 0340 7B68     		ldr	r3, [r7, #4]
 3080 0342 B3F84C30 		ldrh	r3, [r3, #76]
 3081 0346 03F0E003 		and	r3, r3, #224
 3082 034a 402B     		cmp	r3, #64
 3083 034c 03D1     		bne	.L140
 3084              		.loc 1 2223 9 discriminator 4
 3085 034e 7B68     		ldr	r3, [r7, #4]
 3086 0350 1B68     		ldr	r3, [r3]
 3087 0352 5B68     		ldr	r3, [r3, #4]
 3088 0354 02E0     		b	.L139
 3089              	.L140:
 3090              		.loc 1 2223 9 discriminator 5
 3091 0356 7B68     		ldr	r3, [r7, #4]
 3092 0358 1B68     		ldr	r3, [r3]
 3093 035a 9B68     		ldr	r3, [r3, #8]
 3094              	.L139:
 3095              		.loc 1 2223 9 discriminator 8
 3096 035c 7A68     		ldr	r2, [r7, #4]
 3097 035e B2F84C20 		ldrh	r2, [r2, #76]
 3098 0362 02F01F02 		and	r2, r2, #31
 3099 0366 D340     		lsrs	r3, r3, r2
 3100 0368 03F00103 		and	r3, r3, #1
ARM GAS  /tmp/ccDAjxq4.s 			page 94


 3101              		.loc 1 2223 8 is_stmt 1 discriminator 8
 3102 036c 002B     		cmp	r3, #0
 3103 036e 08D0     		beq	.L112
2224:Drivers/STM32L4xx_HAL_Driver/Src/stm32l4xx_hal_smartcard.c ****     {
2225:Drivers/STM32L4xx_HAL_Driver/Src/stm32l4xx_hal_smartcard.c ****       SMARTCARD_EndTransmit_IT(hsmartcard);
 3104              		.loc 1 2225 7
 3105 0370 7868     		ldr	r0, [r7, #4]
 3106 0372 FFF7FEFF 		bl	SMARTCARD_EndTransmit_IT
2226:Drivers/STM32L4xx_HAL_Driver/Src/stm32l4xx_hal_smartcard.c ****       return;
 3107              		.loc 1 2226 7
 3108 0376 04E0     		b	.L112
 3109              	.L142:
1977:Drivers/STM32L4xx_HAL_Driver/Src/stm32l4xx_hal_smartcard.c ****     }
 3110              		.loc 1 1977 7
 3111 0378 00BF     		nop
 3112 037a 02E0     		b	.L112
 3113              	.L143:
2181:Drivers/STM32L4xx_HAL_Driver/Src/stm32l4xx_hal_smartcard.c **** 
 3114              		.loc 1 2181 5
 3115 037c 00BF     		nop
 3116 037e 00E0     		b	.L112
 3117              	.L146:
2217:Drivers/STM32L4xx_HAL_Driver/Src/stm32l4xx_hal_smartcard.c ****   }
 3118              		.loc 1 2217 5
 3119 0380 00BF     		nop
 3120              	.L112:
2227:Drivers/STM32L4xx_HAL_Driver/Src/stm32l4xx_hal_smartcard.c ****     }
2228:Drivers/STM32L4xx_HAL_Driver/Src/stm32l4xx_hal_smartcard.c ****   }
2229:Drivers/STM32L4xx_HAL_Driver/Src/stm32l4xx_hal_smartcard.c **** 
2230:Drivers/STM32L4xx_HAL_Driver/Src/stm32l4xx_hal_smartcard.c **** #if defined(USART_CR1_FIFOEN)
2231:Drivers/STM32L4xx_HAL_Driver/Src/stm32l4xx_hal_smartcard.c ****   /* SMARTCARD TX Fifo Empty occurred ----------------------------------------------*/
2232:Drivers/STM32L4xx_HAL_Driver/Src/stm32l4xx_hal_smartcard.c ****   if (((isrflags & USART_ISR_TXFE) != 0U) && ((cr1its & USART_CR1_TXFEIE) != 0U))
2233:Drivers/STM32L4xx_HAL_Driver/Src/stm32l4xx_hal_smartcard.c ****   {
2234:Drivers/STM32L4xx_HAL_Driver/Src/stm32l4xx_hal_smartcard.c **** #if (USE_HAL_SMARTCARD_REGISTER_CALLBACKS == 1)
2235:Drivers/STM32L4xx_HAL_Driver/Src/stm32l4xx_hal_smartcard.c ****     /* Call registered Tx Fifo Empty Callback */
2236:Drivers/STM32L4xx_HAL_Driver/Src/stm32l4xx_hal_smartcard.c ****     hsmartcard->TxFifoEmptyCallback(hsmartcard);
2237:Drivers/STM32L4xx_HAL_Driver/Src/stm32l4xx_hal_smartcard.c **** #else
2238:Drivers/STM32L4xx_HAL_Driver/Src/stm32l4xx_hal_smartcard.c ****     /* Call legacy weak Tx Fifo Empty Callback */
2239:Drivers/STM32L4xx_HAL_Driver/Src/stm32l4xx_hal_smartcard.c ****     HAL_SMARTCARDEx_TxFifoEmptyCallback(hsmartcard);
2240:Drivers/STM32L4xx_HAL_Driver/Src/stm32l4xx_hal_smartcard.c **** #endif /* USE_HAL_SMARTCARD_REGISTER_CALLBACK */
2241:Drivers/STM32L4xx_HAL_Driver/Src/stm32l4xx_hal_smartcard.c ****     return;
2242:Drivers/STM32L4xx_HAL_Driver/Src/stm32l4xx_hal_smartcard.c ****   }
2243:Drivers/STM32L4xx_HAL_Driver/Src/stm32l4xx_hal_smartcard.c **** 
2244:Drivers/STM32L4xx_HAL_Driver/Src/stm32l4xx_hal_smartcard.c ****   /* SMARTCARD RX Fifo Full occurred ----------------------------------------------*/
2245:Drivers/STM32L4xx_HAL_Driver/Src/stm32l4xx_hal_smartcard.c ****   if (((isrflags & USART_ISR_RXFF) != 0U) && ((cr1its & USART_CR1_RXFFIE) != 0U))
2246:Drivers/STM32L4xx_HAL_Driver/Src/stm32l4xx_hal_smartcard.c ****   {
2247:Drivers/STM32L4xx_HAL_Driver/Src/stm32l4xx_hal_smartcard.c **** #if (USE_HAL_SMARTCARD_REGISTER_CALLBACKS == 1)
2248:Drivers/STM32L4xx_HAL_Driver/Src/stm32l4xx_hal_smartcard.c ****     /* Call registered Rx Fifo Full Callback */
2249:Drivers/STM32L4xx_HAL_Driver/Src/stm32l4xx_hal_smartcard.c ****     hsmartcard->RxFifoFullCallback(hsmartcard);
2250:Drivers/STM32L4xx_HAL_Driver/Src/stm32l4xx_hal_smartcard.c **** #else
2251:Drivers/STM32L4xx_HAL_Driver/Src/stm32l4xx_hal_smartcard.c ****     /* Call legacy weak Rx Fifo Full Callback */
2252:Drivers/STM32L4xx_HAL_Driver/Src/stm32l4xx_hal_smartcard.c ****     HAL_SMARTCARDEx_RxFifoFullCallback(hsmartcard);
2253:Drivers/STM32L4xx_HAL_Driver/Src/stm32l4xx_hal_smartcard.c **** #endif /* USE_HAL_SMARTCARD_REGISTER_CALLBACK */
2254:Drivers/STM32L4xx_HAL_Driver/Src/stm32l4xx_hal_smartcard.c ****     return;
2255:Drivers/STM32L4xx_HAL_Driver/Src/stm32l4xx_hal_smartcard.c ****   }
2256:Drivers/STM32L4xx_HAL_Driver/Src/stm32l4xx_hal_smartcard.c **** #endif /* USART_CR1_FIFOEN */
2257:Drivers/STM32L4xx_HAL_Driver/Src/stm32l4xx_hal_smartcard.c **** }
ARM GAS  /tmp/ccDAjxq4.s 			page 95


 3121              		.loc 1 2257 1
 3122 0382 2037     		adds	r7, r7, #32
 3123              		.cfi_def_cfa_offset 8
 3124 0384 BD46     		mov	sp, r7
 3125              		.cfi_def_cfa_register 13
 3126              		@ sp needed
 3127 0386 80BD     		pop	{r7, pc}
 3128              	.L148:
 3129              		.align	2
 3130              	.L147:
 3131 0388 00000000 		.word	SMARTCARD_DMAAbortOnError
 3132              		.cfi_endproc
 3133              	.LFE461:
 3135              		.section	.text.HAL_SMARTCARD_TxCpltCallback,"ax",%progbits
 3136              		.align	1
 3137              		.weak	HAL_SMARTCARD_TxCpltCallback
 3138              		.syntax unified
 3139              		.thumb
 3140              		.thumb_func
 3142              	HAL_SMARTCARD_TxCpltCallback:
 3143              	.LFB462:
2258:Drivers/STM32L4xx_HAL_Driver/Src/stm32l4xx_hal_smartcard.c **** 
2259:Drivers/STM32L4xx_HAL_Driver/Src/stm32l4xx_hal_smartcard.c **** /**
2260:Drivers/STM32L4xx_HAL_Driver/Src/stm32l4xx_hal_smartcard.c ****   * @brief  Tx Transfer completed callback.
2261:Drivers/STM32L4xx_HAL_Driver/Src/stm32l4xx_hal_smartcard.c ****   * @param  hsmartcard Pointer to a SMARTCARD_HandleTypeDef structure that contains
2262:Drivers/STM32L4xx_HAL_Driver/Src/stm32l4xx_hal_smartcard.c ****   *                    the configuration information for the specified SMARTCARD module.
2263:Drivers/STM32L4xx_HAL_Driver/Src/stm32l4xx_hal_smartcard.c ****   * @retval None
2264:Drivers/STM32L4xx_HAL_Driver/Src/stm32l4xx_hal_smartcard.c ****   */
2265:Drivers/STM32L4xx_HAL_Driver/Src/stm32l4xx_hal_smartcard.c **** __weak void HAL_SMARTCARD_TxCpltCallback(SMARTCARD_HandleTypeDef *hsmartcard)
2266:Drivers/STM32L4xx_HAL_Driver/Src/stm32l4xx_hal_smartcard.c **** {
 3144              		.loc 1 2266 1
 3145              		.cfi_startproc
 3146              		@ args = 0, pretend = 0, frame = 8
 3147              		@ frame_needed = 1, uses_anonymous_args = 0
 3148              		@ link register save eliminated.
 3149 0000 80B4     		push	{r7}
 3150              		.cfi_def_cfa_offset 4
 3151              		.cfi_offset 7, -4
 3152 0002 83B0     		sub	sp, sp, #12
 3153              		.cfi_def_cfa_offset 16
 3154 0004 00AF     		add	r7, sp, #0
 3155              		.cfi_def_cfa_register 7
 3156 0006 7860     		str	r0, [r7, #4]
2267:Drivers/STM32L4xx_HAL_Driver/Src/stm32l4xx_hal_smartcard.c ****   /* Prevent unused argument(s) compilation warning */
2268:Drivers/STM32L4xx_HAL_Driver/Src/stm32l4xx_hal_smartcard.c ****   UNUSED(hsmartcard);
2269:Drivers/STM32L4xx_HAL_Driver/Src/stm32l4xx_hal_smartcard.c **** 
2270:Drivers/STM32L4xx_HAL_Driver/Src/stm32l4xx_hal_smartcard.c ****   /* NOTE : This function should not be modified, when the callback is needed,
2271:Drivers/STM32L4xx_HAL_Driver/Src/stm32l4xx_hal_smartcard.c ****             the HAL_SMARTCARD_TxCpltCallback can be implemented in the user file.
2272:Drivers/STM32L4xx_HAL_Driver/Src/stm32l4xx_hal_smartcard.c ****    */
2273:Drivers/STM32L4xx_HAL_Driver/Src/stm32l4xx_hal_smartcard.c **** }
 3157              		.loc 1 2273 1
 3158 0008 00BF     		nop
 3159 000a 0C37     		adds	r7, r7, #12
 3160              		.cfi_def_cfa_offset 4
 3161 000c BD46     		mov	sp, r7
 3162              		.cfi_def_cfa_register 13
 3163              		@ sp needed
ARM GAS  /tmp/ccDAjxq4.s 			page 96


 3164 000e 5DF8047B 		ldr	r7, [sp], #4
 3165              		.cfi_restore 7
 3166              		.cfi_def_cfa_offset 0
 3167 0012 7047     		bx	lr
 3168              		.cfi_endproc
 3169              	.LFE462:
 3171              		.section	.text.HAL_SMARTCARD_RxCpltCallback,"ax",%progbits
 3172              		.align	1
 3173              		.weak	HAL_SMARTCARD_RxCpltCallback
 3174              		.syntax unified
 3175              		.thumb
 3176              		.thumb_func
 3178              	HAL_SMARTCARD_RxCpltCallback:
 3179              	.LFB463:
2274:Drivers/STM32L4xx_HAL_Driver/Src/stm32l4xx_hal_smartcard.c **** 
2275:Drivers/STM32L4xx_HAL_Driver/Src/stm32l4xx_hal_smartcard.c **** /**
2276:Drivers/STM32L4xx_HAL_Driver/Src/stm32l4xx_hal_smartcard.c ****   * @brief  Rx Transfer completed callback.
2277:Drivers/STM32L4xx_HAL_Driver/Src/stm32l4xx_hal_smartcard.c ****   * @param  hsmartcard Pointer to a SMARTCARD_HandleTypeDef structure that contains
2278:Drivers/STM32L4xx_HAL_Driver/Src/stm32l4xx_hal_smartcard.c ****   *                    the configuration information for the specified SMARTCARD module.
2279:Drivers/STM32L4xx_HAL_Driver/Src/stm32l4xx_hal_smartcard.c ****   * @retval None
2280:Drivers/STM32L4xx_HAL_Driver/Src/stm32l4xx_hal_smartcard.c ****   */
2281:Drivers/STM32L4xx_HAL_Driver/Src/stm32l4xx_hal_smartcard.c **** __weak void HAL_SMARTCARD_RxCpltCallback(SMARTCARD_HandleTypeDef *hsmartcard)
2282:Drivers/STM32L4xx_HAL_Driver/Src/stm32l4xx_hal_smartcard.c **** {
 3180              		.loc 1 2282 1
 3181              		.cfi_startproc
 3182              		@ args = 0, pretend = 0, frame = 8
 3183              		@ frame_needed = 1, uses_anonymous_args = 0
 3184              		@ link register save eliminated.
 3185 0000 80B4     		push	{r7}
 3186              		.cfi_def_cfa_offset 4
 3187              		.cfi_offset 7, -4
 3188 0002 83B0     		sub	sp, sp, #12
 3189              		.cfi_def_cfa_offset 16
 3190 0004 00AF     		add	r7, sp, #0
 3191              		.cfi_def_cfa_register 7
 3192 0006 7860     		str	r0, [r7, #4]
2283:Drivers/STM32L4xx_HAL_Driver/Src/stm32l4xx_hal_smartcard.c ****   /* Prevent unused argument(s) compilation warning */
2284:Drivers/STM32L4xx_HAL_Driver/Src/stm32l4xx_hal_smartcard.c ****   UNUSED(hsmartcard);
2285:Drivers/STM32L4xx_HAL_Driver/Src/stm32l4xx_hal_smartcard.c **** 
2286:Drivers/STM32L4xx_HAL_Driver/Src/stm32l4xx_hal_smartcard.c ****   /* NOTE : This function should not be modified, when the callback is needed,
2287:Drivers/STM32L4xx_HAL_Driver/Src/stm32l4xx_hal_smartcard.c ****             the HAL_SMARTCARD_RxCpltCallback can be implemented in the user file.
2288:Drivers/STM32L4xx_HAL_Driver/Src/stm32l4xx_hal_smartcard.c ****    */
2289:Drivers/STM32L4xx_HAL_Driver/Src/stm32l4xx_hal_smartcard.c **** }
 3193              		.loc 1 2289 1
 3194 0008 00BF     		nop
 3195 000a 0C37     		adds	r7, r7, #12
 3196              		.cfi_def_cfa_offset 4
 3197 000c BD46     		mov	sp, r7
 3198              		.cfi_def_cfa_register 13
 3199              		@ sp needed
 3200 000e 5DF8047B 		ldr	r7, [sp], #4
 3201              		.cfi_restore 7
 3202              		.cfi_def_cfa_offset 0
 3203 0012 7047     		bx	lr
 3204              		.cfi_endproc
 3205              	.LFE463:
 3207              		.section	.text.HAL_SMARTCARD_ErrorCallback,"ax",%progbits
ARM GAS  /tmp/ccDAjxq4.s 			page 97


 3208              		.align	1
 3209              		.weak	HAL_SMARTCARD_ErrorCallback
 3210              		.syntax unified
 3211              		.thumb
 3212              		.thumb_func
 3214              	HAL_SMARTCARD_ErrorCallback:
 3215              	.LFB464:
2290:Drivers/STM32L4xx_HAL_Driver/Src/stm32l4xx_hal_smartcard.c **** 
2291:Drivers/STM32L4xx_HAL_Driver/Src/stm32l4xx_hal_smartcard.c **** /**
2292:Drivers/STM32L4xx_HAL_Driver/Src/stm32l4xx_hal_smartcard.c ****   * @brief  SMARTCARD error callback.
2293:Drivers/STM32L4xx_HAL_Driver/Src/stm32l4xx_hal_smartcard.c ****   * @param  hsmartcard Pointer to a SMARTCARD_HandleTypeDef structure that contains
2294:Drivers/STM32L4xx_HAL_Driver/Src/stm32l4xx_hal_smartcard.c ****   *                    the configuration information for the specified SMARTCARD module.
2295:Drivers/STM32L4xx_HAL_Driver/Src/stm32l4xx_hal_smartcard.c ****   * @retval None
2296:Drivers/STM32L4xx_HAL_Driver/Src/stm32l4xx_hal_smartcard.c ****   */
2297:Drivers/STM32L4xx_HAL_Driver/Src/stm32l4xx_hal_smartcard.c **** __weak void HAL_SMARTCARD_ErrorCallback(SMARTCARD_HandleTypeDef *hsmartcard)
2298:Drivers/STM32L4xx_HAL_Driver/Src/stm32l4xx_hal_smartcard.c **** {
 3216              		.loc 1 2298 1
 3217              		.cfi_startproc
 3218              		@ args = 0, pretend = 0, frame = 8
 3219              		@ frame_needed = 1, uses_anonymous_args = 0
 3220              		@ link register save eliminated.
 3221 0000 80B4     		push	{r7}
 3222              		.cfi_def_cfa_offset 4
 3223              		.cfi_offset 7, -4
 3224 0002 83B0     		sub	sp, sp, #12
 3225              		.cfi_def_cfa_offset 16
 3226 0004 00AF     		add	r7, sp, #0
 3227              		.cfi_def_cfa_register 7
 3228 0006 7860     		str	r0, [r7, #4]
2299:Drivers/STM32L4xx_HAL_Driver/Src/stm32l4xx_hal_smartcard.c ****   /* Prevent unused argument(s) compilation warning */
2300:Drivers/STM32L4xx_HAL_Driver/Src/stm32l4xx_hal_smartcard.c ****   UNUSED(hsmartcard);
2301:Drivers/STM32L4xx_HAL_Driver/Src/stm32l4xx_hal_smartcard.c **** 
2302:Drivers/STM32L4xx_HAL_Driver/Src/stm32l4xx_hal_smartcard.c ****   /* NOTE : This function should not be modified, when the callback is needed,
2303:Drivers/STM32L4xx_HAL_Driver/Src/stm32l4xx_hal_smartcard.c ****             the HAL_SMARTCARD_ErrorCallback can be implemented in the user file.
2304:Drivers/STM32L4xx_HAL_Driver/Src/stm32l4xx_hal_smartcard.c ****    */
2305:Drivers/STM32L4xx_HAL_Driver/Src/stm32l4xx_hal_smartcard.c **** }
 3229              		.loc 1 2305 1
 3230 0008 00BF     		nop
 3231 000a 0C37     		adds	r7, r7, #12
 3232              		.cfi_def_cfa_offset 4
 3233 000c BD46     		mov	sp, r7
 3234              		.cfi_def_cfa_register 13
 3235              		@ sp needed
 3236 000e 5DF8047B 		ldr	r7, [sp], #4
 3237              		.cfi_restore 7
 3238              		.cfi_def_cfa_offset 0
 3239 0012 7047     		bx	lr
 3240              		.cfi_endproc
 3241              	.LFE464:
 3243              		.section	.text.HAL_SMARTCARD_AbortCpltCallback,"ax",%progbits
 3244              		.align	1
 3245              		.weak	HAL_SMARTCARD_AbortCpltCallback
 3246              		.syntax unified
 3247              		.thumb
 3248              		.thumb_func
 3250              	HAL_SMARTCARD_AbortCpltCallback:
 3251              	.LFB465:
ARM GAS  /tmp/ccDAjxq4.s 			page 98


2306:Drivers/STM32L4xx_HAL_Driver/Src/stm32l4xx_hal_smartcard.c **** 
2307:Drivers/STM32L4xx_HAL_Driver/Src/stm32l4xx_hal_smartcard.c **** /**
2308:Drivers/STM32L4xx_HAL_Driver/Src/stm32l4xx_hal_smartcard.c ****   * @brief  SMARTCARD Abort Complete callback.
2309:Drivers/STM32L4xx_HAL_Driver/Src/stm32l4xx_hal_smartcard.c ****   * @param  hsmartcard Pointer to a SMARTCARD_HandleTypeDef structure that contains
2310:Drivers/STM32L4xx_HAL_Driver/Src/stm32l4xx_hal_smartcard.c ****   *                    the configuration information for the specified SMARTCARD module.
2311:Drivers/STM32L4xx_HAL_Driver/Src/stm32l4xx_hal_smartcard.c ****   * @retval None
2312:Drivers/STM32L4xx_HAL_Driver/Src/stm32l4xx_hal_smartcard.c ****   */
2313:Drivers/STM32L4xx_HAL_Driver/Src/stm32l4xx_hal_smartcard.c **** __weak void HAL_SMARTCARD_AbortCpltCallback(SMARTCARD_HandleTypeDef *hsmartcard)
2314:Drivers/STM32L4xx_HAL_Driver/Src/stm32l4xx_hal_smartcard.c **** {
 3252              		.loc 1 2314 1
 3253              		.cfi_startproc
 3254              		@ args = 0, pretend = 0, frame = 8
 3255              		@ frame_needed = 1, uses_anonymous_args = 0
 3256              		@ link register save eliminated.
 3257 0000 80B4     		push	{r7}
 3258              		.cfi_def_cfa_offset 4
 3259              		.cfi_offset 7, -4
 3260 0002 83B0     		sub	sp, sp, #12
 3261              		.cfi_def_cfa_offset 16
 3262 0004 00AF     		add	r7, sp, #0
 3263              		.cfi_def_cfa_register 7
 3264 0006 7860     		str	r0, [r7, #4]
2315:Drivers/STM32L4xx_HAL_Driver/Src/stm32l4xx_hal_smartcard.c ****   /* Prevent unused argument(s) compilation warning */
2316:Drivers/STM32L4xx_HAL_Driver/Src/stm32l4xx_hal_smartcard.c ****   UNUSED(hsmartcard);
2317:Drivers/STM32L4xx_HAL_Driver/Src/stm32l4xx_hal_smartcard.c **** 
2318:Drivers/STM32L4xx_HAL_Driver/Src/stm32l4xx_hal_smartcard.c ****   /* NOTE : This function should not be modified, when the callback is needed,
2319:Drivers/STM32L4xx_HAL_Driver/Src/stm32l4xx_hal_smartcard.c ****             the HAL_SMARTCARD_AbortCpltCallback can be implemented in the user file.
2320:Drivers/STM32L4xx_HAL_Driver/Src/stm32l4xx_hal_smartcard.c ****    */
2321:Drivers/STM32L4xx_HAL_Driver/Src/stm32l4xx_hal_smartcard.c **** }
 3265              		.loc 1 2321 1
 3266 0008 00BF     		nop
 3267 000a 0C37     		adds	r7, r7, #12
 3268              		.cfi_def_cfa_offset 4
 3269 000c BD46     		mov	sp, r7
 3270              		.cfi_def_cfa_register 13
 3271              		@ sp needed
 3272 000e 5DF8047B 		ldr	r7, [sp], #4
 3273              		.cfi_restore 7
 3274              		.cfi_def_cfa_offset 0
 3275 0012 7047     		bx	lr
 3276              		.cfi_endproc
 3277              	.LFE465:
 3279              		.section	.text.HAL_SMARTCARD_AbortTransmitCpltCallback,"ax",%progbits
 3280              		.align	1
 3281              		.weak	HAL_SMARTCARD_AbortTransmitCpltCallback
 3282              		.syntax unified
 3283              		.thumb
 3284              		.thumb_func
 3286              	HAL_SMARTCARD_AbortTransmitCpltCallback:
 3287              	.LFB466:
2322:Drivers/STM32L4xx_HAL_Driver/Src/stm32l4xx_hal_smartcard.c **** 
2323:Drivers/STM32L4xx_HAL_Driver/Src/stm32l4xx_hal_smartcard.c **** /**
2324:Drivers/STM32L4xx_HAL_Driver/Src/stm32l4xx_hal_smartcard.c ****   * @brief  SMARTCARD Abort Complete callback.
2325:Drivers/STM32L4xx_HAL_Driver/Src/stm32l4xx_hal_smartcard.c ****   * @param  hsmartcard Pointer to a SMARTCARD_HandleTypeDef structure that contains
2326:Drivers/STM32L4xx_HAL_Driver/Src/stm32l4xx_hal_smartcard.c ****   *                    the configuration information for the specified SMARTCARD module.
2327:Drivers/STM32L4xx_HAL_Driver/Src/stm32l4xx_hal_smartcard.c ****   * @retval None
2328:Drivers/STM32L4xx_HAL_Driver/Src/stm32l4xx_hal_smartcard.c ****   */
ARM GAS  /tmp/ccDAjxq4.s 			page 99


2329:Drivers/STM32L4xx_HAL_Driver/Src/stm32l4xx_hal_smartcard.c **** __weak void HAL_SMARTCARD_AbortTransmitCpltCallback(SMARTCARD_HandleTypeDef *hsmartcard)
2330:Drivers/STM32L4xx_HAL_Driver/Src/stm32l4xx_hal_smartcard.c **** {
 3288              		.loc 1 2330 1
 3289              		.cfi_startproc
 3290              		@ args = 0, pretend = 0, frame = 8
 3291              		@ frame_needed = 1, uses_anonymous_args = 0
 3292              		@ link register save eliminated.
 3293 0000 80B4     		push	{r7}
 3294              		.cfi_def_cfa_offset 4
 3295              		.cfi_offset 7, -4
 3296 0002 83B0     		sub	sp, sp, #12
 3297              		.cfi_def_cfa_offset 16
 3298 0004 00AF     		add	r7, sp, #0
 3299              		.cfi_def_cfa_register 7
 3300 0006 7860     		str	r0, [r7, #4]
2331:Drivers/STM32L4xx_HAL_Driver/Src/stm32l4xx_hal_smartcard.c ****   /* Prevent unused argument(s) compilation warning */
2332:Drivers/STM32L4xx_HAL_Driver/Src/stm32l4xx_hal_smartcard.c ****   UNUSED(hsmartcard);
2333:Drivers/STM32L4xx_HAL_Driver/Src/stm32l4xx_hal_smartcard.c **** 
2334:Drivers/STM32L4xx_HAL_Driver/Src/stm32l4xx_hal_smartcard.c ****   /* NOTE : This function should not be modified, when the callback is needed,
2335:Drivers/STM32L4xx_HAL_Driver/Src/stm32l4xx_hal_smartcard.c ****             the HAL_SMARTCARD_AbortTransmitCpltCallback can be implemented in the user file.
2336:Drivers/STM32L4xx_HAL_Driver/Src/stm32l4xx_hal_smartcard.c ****    */
2337:Drivers/STM32L4xx_HAL_Driver/Src/stm32l4xx_hal_smartcard.c **** }
 3301              		.loc 1 2337 1
 3302 0008 00BF     		nop
 3303 000a 0C37     		adds	r7, r7, #12
 3304              		.cfi_def_cfa_offset 4
 3305 000c BD46     		mov	sp, r7
 3306              		.cfi_def_cfa_register 13
 3307              		@ sp needed
 3308 000e 5DF8047B 		ldr	r7, [sp], #4
 3309              		.cfi_restore 7
 3310              		.cfi_def_cfa_offset 0
 3311 0012 7047     		bx	lr
 3312              		.cfi_endproc
 3313              	.LFE466:
 3315              		.section	.text.HAL_SMARTCARD_AbortReceiveCpltCallback,"ax",%progbits
 3316              		.align	1
 3317              		.weak	HAL_SMARTCARD_AbortReceiveCpltCallback
 3318              		.syntax unified
 3319              		.thumb
 3320              		.thumb_func
 3322              	HAL_SMARTCARD_AbortReceiveCpltCallback:
 3323              	.LFB467:
2338:Drivers/STM32L4xx_HAL_Driver/Src/stm32l4xx_hal_smartcard.c **** 
2339:Drivers/STM32L4xx_HAL_Driver/Src/stm32l4xx_hal_smartcard.c **** /**
2340:Drivers/STM32L4xx_HAL_Driver/Src/stm32l4xx_hal_smartcard.c ****   * @brief  SMARTCARD Abort Receive Complete callback.
2341:Drivers/STM32L4xx_HAL_Driver/Src/stm32l4xx_hal_smartcard.c ****   * @param  hsmartcard Pointer to a SMARTCARD_HandleTypeDef structure that contains
2342:Drivers/STM32L4xx_HAL_Driver/Src/stm32l4xx_hal_smartcard.c ****   *                    the configuration information for the specified SMARTCARD module.
2343:Drivers/STM32L4xx_HAL_Driver/Src/stm32l4xx_hal_smartcard.c ****   * @retval None
2344:Drivers/STM32L4xx_HAL_Driver/Src/stm32l4xx_hal_smartcard.c ****   */
2345:Drivers/STM32L4xx_HAL_Driver/Src/stm32l4xx_hal_smartcard.c **** __weak void HAL_SMARTCARD_AbortReceiveCpltCallback(SMARTCARD_HandleTypeDef *hsmartcard)
2346:Drivers/STM32L4xx_HAL_Driver/Src/stm32l4xx_hal_smartcard.c **** {
 3324              		.loc 1 2346 1
 3325              		.cfi_startproc
 3326              		@ args = 0, pretend = 0, frame = 8
 3327              		@ frame_needed = 1, uses_anonymous_args = 0
 3328              		@ link register save eliminated.
ARM GAS  /tmp/ccDAjxq4.s 			page 100


 3329 0000 80B4     		push	{r7}
 3330              		.cfi_def_cfa_offset 4
 3331              		.cfi_offset 7, -4
 3332 0002 83B0     		sub	sp, sp, #12
 3333              		.cfi_def_cfa_offset 16
 3334 0004 00AF     		add	r7, sp, #0
 3335              		.cfi_def_cfa_register 7
 3336 0006 7860     		str	r0, [r7, #4]
2347:Drivers/STM32L4xx_HAL_Driver/Src/stm32l4xx_hal_smartcard.c ****   /* Prevent unused argument(s) compilation warning */
2348:Drivers/STM32L4xx_HAL_Driver/Src/stm32l4xx_hal_smartcard.c ****   UNUSED(hsmartcard);
2349:Drivers/STM32L4xx_HAL_Driver/Src/stm32l4xx_hal_smartcard.c **** 
2350:Drivers/STM32L4xx_HAL_Driver/Src/stm32l4xx_hal_smartcard.c ****   /* NOTE : This function should not be modified, when the callback is needed,
2351:Drivers/STM32L4xx_HAL_Driver/Src/stm32l4xx_hal_smartcard.c ****             the HAL_SMARTCARD_AbortReceiveCpltCallback can be implemented in the user file.
2352:Drivers/STM32L4xx_HAL_Driver/Src/stm32l4xx_hal_smartcard.c ****    */
2353:Drivers/STM32L4xx_HAL_Driver/Src/stm32l4xx_hal_smartcard.c **** }
 3337              		.loc 1 2353 1
 3338 0008 00BF     		nop
 3339 000a 0C37     		adds	r7, r7, #12
 3340              		.cfi_def_cfa_offset 4
 3341 000c BD46     		mov	sp, r7
 3342              		.cfi_def_cfa_register 13
 3343              		@ sp needed
 3344 000e 5DF8047B 		ldr	r7, [sp], #4
 3345              		.cfi_restore 7
 3346              		.cfi_def_cfa_offset 0
 3347 0012 7047     		bx	lr
 3348              		.cfi_endproc
 3349              	.LFE467:
 3351              		.section	.text.HAL_SMARTCARD_GetState,"ax",%progbits
 3352              		.align	1
 3353              		.global	HAL_SMARTCARD_GetState
 3354              		.syntax unified
 3355              		.thumb
 3356              		.thumb_func
 3358              	HAL_SMARTCARD_GetState:
 3359              	.LFB468:
2354:Drivers/STM32L4xx_HAL_Driver/Src/stm32l4xx_hal_smartcard.c **** 
2355:Drivers/STM32L4xx_HAL_Driver/Src/stm32l4xx_hal_smartcard.c **** /**
2356:Drivers/STM32L4xx_HAL_Driver/Src/stm32l4xx_hal_smartcard.c ****   * @}
2357:Drivers/STM32L4xx_HAL_Driver/Src/stm32l4xx_hal_smartcard.c ****   */
2358:Drivers/STM32L4xx_HAL_Driver/Src/stm32l4xx_hal_smartcard.c **** 
2359:Drivers/STM32L4xx_HAL_Driver/Src/stm32l4xx_hal_smartcard.c **** /** @defgroup SMARTCARD_Exported_Functions_Group4 Peripheral State and Errors functions
2360:Drivers/STM32L4xx_HAL_Driver/Src/stm32l4xx_hal_smartcard.c ****   * @brief    SMARTCARD State and Errors functions
2361:Drivers/STM32L4xx_HAL_Driver/Src/stm32l4xx_hal_smartcard.c ****   *
2362:Drivers/STM32L4xx_HAL_Driver/Src/stm32l4xx_hal_smartcard.c **** @verbatim
2363:Drivers/STM32L4xx_HAL_Driver/Src/stm32l4xx_hal_smartcard.c ****   ==============================================================================
2364:Drivers/STM32L4xx_HAL_Driver/Src/stm32l4xx_hal_smartcard.c ****                   ##### Peripheral State and Errors functions #####
2365:Drivers/STM32L4xx_HAL_Driver/Src/stm32l4xx_hal_smartcard.c ****   ==============================================================================
2366:Drivers/STM32L4xx_HAL_Driver/Src/stm32l4xx_hal_smartcard.c ****   [..]
2367:Drivers/STM32L4xx_HAL_Driver/Src/stm32l4xx_hal_smartcard.c ****     This subsection provides a set of functions allowing to return the State of SmartCard
2368:Drivers/STM32L4xx_HAL_Driver/Src/stm32l4xx_hal_smartcard.c ****     handle and also return Peripheral Errors occurred during communication process
2369:Drivers/STM32L4xx_HAL_Driver/Src/stm32l4xx_hal_smartcard.c ****      (+) HAL_SMARTCARD_GetState() API can be helpful to check in run-time the state
2370:Drivers/STM32L4xx_HAL_Driver/Src/stm32l4xx_hal_smartcard.c ****          of the SMARTCARD peripheral.
2371:Drivers/STM32L4xx_HAL_Driver/Src/stm32l4xx_hal_smartcard.c ****      (+) HAL_SMARTCARD_GetError() checks in run-time errors that could occur during
2372:Drivers/STM32L4xx_HAL_Driver/Src/stm32l4xx_hal_smartcard.c ****          communication.
2373:Drivers/STM32L4xx_HAL_Driver/Src/stm32l4xx_hal_smartcard.c **** 
2374:Drivers/STM32L4xx_HAL_Driver/Src/stm32l4xx_hal_smartcard.c **** @endverbatim
ARM GAS  /tmp/ccDAjxq4.s 			page 101


2375:Drivers/STM32L4xx_HAL_Driver/Src/stm32l4xx_hal_smartcard.c ****   * @{
2376:Drivers/STM32L4xx_HAL_Driver/Src/stm32l4xx_hal_smartcard.c ****   */
2377:Drivers/STM32L4xx_HAL_Driver/Src/stm32l4xx_hal_smartcard.c **** 
2378:Drivers/STM32L4xx_HAL_Driver/Src/stm32l4xx_hal_smartcard.c **** /**
2379:Drivers/STM32L4xx_HAL_Driver/Src/stm32l4xx_hal_smartcard.c ****   * @brief  Return the SMARTCARD handle state.
2380:Drivers/STM32L4xx_HAL_Driver/Src/stm32l4xx_hal_smartcard.c ****   * @param  hsmartcard Pointer to a SMARTCARD_HandleTypeDef structure that contains
2381:Drivers/STM32L4xx_HAL_Driver/Src/stm32l4xx_hal_smartcard.c ****   *                    the configuration information for the specified SMARTCARD module.
2382:Drivers/STM32L4xx_HAL_Driver/Src/stm32l4xx_hal_smartcard.c ****   * @retval SMARTCARD handle state
2383:Drivers/STM32L4xx_HAL_Driver/Src/stm32l4xx_hal_smartcard.c ****   */
2384:Drivers/STM32L4xx_HAL_Driver/Src/stm32l4xx_hal_smartcard.c **** HAL_SMARTCARD_StateTypeDef HAL_SMARTCARD_GetState(const SMARTCARD_HandleTypeDef *hsmartcard)
2385:Drivers/STM32L4xx_HAL_Driver/Src/stm32l4xx_hal_smartcard.c **** {
 3360              		.loc 1 2385 1
 3361              		.cfi_startproc
 3362              		@ args = 0, pretend = 0, frame = 16
 3363              		@ frame_needed = 1, uses_anonymous_args = 0
 3364              		@ link register save eliminated.
 3365 0000 80B4     		push	{r7}
 3366              		.cfi_def_cfa_offset 4
 3367              		.cfi_offset 7, -4
 3368 0002 85B0     		sub	sp, sp, #20
 3369              		.cfi_def_cfa_offset 24
 3370 0004 00AF     		add	r7, sp, #0
 3371              		.cfi_def_cfa_register 7
 3372 0006 7860     		str	r0, [r7, #4]
2386:Drivers/STM32L4xx_HAL_Driver/Src/stm32l4xx_hal_smartcard.c ****   /* Return SMARTCARD handle state */
2387:Drivers/STM32L4xx_HAL_Driver/Src/stm32l4xx_hal_smartcard.c ****   uint32_t temp1;
2388:Drivers/STM32L4xx_HAL_Driver/Src/stm32l4xx_hal_smartcard.c ****   uint32_t temp2;
2389:Drivers/STM32L4xx_HAL_Driver/Src/stm32l4xx_hal_smartcard.c ****   temp1 = (uint32_t)hsmartcard->gState;
 3373              		.loc 1 2389 9
 3374 0008 7B68     		ldr	r3, [r7, #4]
 3375 000a 5B6F     		ldr	r3, [r3, #116]
 3376 000c FB60     		str	r3, [r7, #12]
2390:Drivers/STM32L4xx_HAL_Driver/Src/stm32l4xx_hal_smartcard.c ****   temp2 = (uint32_t)hsmartcard->RxState;
 3377              		.loc 1 2390 9
 3378 000e 7B68     		ldr	r3, [r7, #4]
 3379 0010 9B6F     		ldr	r3, [r3, #120]
 3380 0012 BB60     		str	r3, [r7, #8]
2391:Drivers/STM32L4xx_HAL_Driver/Src/stm32l4xx_hal_smartcard.c **** 
2392:Drivers/STM32L4xx_HAL_Driver/Src/stm32l4xx_hal_smartcard.c ****   return (HAL_SMARTCARD_StateTypeDef)(temp1 | temp2);
 3381              		.loc 1 2392 10
 3382 0014 FA68     		ldr	r2, [r7, #12]
 3383 0016 BB68     		ldr	r3, [r7, #8]
 3384 0018 1343     		orrs	r3, r3, r2
2393:Drivers/STM32L4xx_HAL_Driver/Src/stm32l4xx_hal_smartcard.c **** }
 3385              		.loc 1 2393 1
 3386 001a 1846     		mov	r0, r3
 3387 001c 1437     		adds	r7, r7, #20
 3388              		.cfi_def_cfa_offset 4
 3389 001e BD46     		mov	sp, r7
 3390              		.cfi_def_cfa_register 13
 3391              		@ sp needed
 3392 0020 5DF8047B 		ldr	r7, [sp], #4
 3393              		.cfi_restore 7
 3394              		.cfi_def_cfa_offset 0
 3395 0024 7047     		bx	lr
 3396              		.cfi_endproc
 3397              	.LFE468:
ARM GAS  /tmp/ccDAjxq4.s 			page 102


 3399              		.section	.text.HAL_SMARTCARD_GetError,"ax",%progbits
 3400              		.align	1
 3401              		.global	HAL_SMARTCARD_GetError
 3402              		.syntax unified
 3403              		.thumb
 3404              		.thumb_func
 3406              	HAL_SMARTCARD_GetError:
 3407              	.LFB469:
2394:Drivers/STM32L4xx_HAL_Driver/Src/stm32l4xx_hal_smartcard.c **** 
2395:Drivers/STM32L4xx_HAL_Driver/Src/stm32l4xx_hal_smartcard.c **** /**
2396:Drivers/STM32L4xx_HAL_Driver/Src/stm32l4xx_hal_smartcard.c ****   * @brief  Return the SMARTCARD handle error code.
2397:Drivers/STM32L4xx_HAL_Driver/Src/stm32l4xx_hal_smartcard.c ****   * @param  hsmartcard Pointer to a SMARTCARD_HandleTypeDef structure that contains
2398:Drivers/STM32L4xx_HAL_Driver/Src/stm32l4xx_hal_smartcard.c ****   *                    the configuration information for the specified SMARTCARD module.
2399:Drivers/STM32L4xx_HAL_Driver/Src/stm32l4xx_hal_smartcard.c ****   * @retval SMARTCARD handle Error Code
2400:Drivers/STM32L4xx_HAL_Driver/Src/stm32l4xx_hal_smartcard.c ****   */
2401:Drivers/STM32L4xx_HAL_Driver/Src/stm32l4xx_hal_smartcard.c **** uint32_t HAL_SMARTCARD_GetError(const SMARTCARD_HandleTypeDef *hsmartcard)
2402:Drivers/STM32L4xx_HAL_Driver/Src/stm32l4xx_hal_smartcard.c **** {
 3408              		.loc 1 2402 1
 3409              		.cfi_startproc
 3410              		@ args = 0, pretend = 0, frame = 8
 3411              		@ frame_needed = 1, uses_anonymous_args = 0
 3412              		@ link register save eliminated.
 3413 0000 80B4     		push	{r7}
 3414              		.cfi_def_cfa_offset 4
 3415              		.cfi_offset 7, -4
 3416 0002 83B0     		sub	sp, sp, #12
 3417              		.cfi_def_cfa_offset 16
 3418 0004 00AF     		add	r7, sp, #0
 3419              		.cfi_def_cfa_register 7
 3420 0006 7860     		str	r0, [r7, #4]
2403:Drivers/STM32L4xx_HAL_Driver/Src/stm32l4xx_hal_smartcard.c ****   return hsmartcard->ErrorCode;
 3421              		.loc 1 2403 20
 3422 0008 7B68     		ldr	r3, [r7, #4]
 3423 000a DB6F     		ldr	r3, [r3, #124]
2404:Drivers/STM32L4xx_HAL_Driver/Src/stm32l4xx_hal_smartcard.c **** }
 3424              		.loc 1 2404 1
 3425 000c 1846     		mov	r0, r3
 3426 000e 0C37     		adds	r7, r7, #12
 3427              		.cfi_def_cfa_offset 4
 3428 0010 BD46     		mov	sp, r7
 3429              		.cfi_def_cfa_register 13
 3430              		@ sp needed
 3431 0012 5DF8047B 		ldr	r7, [sp], #4
 3432              		.cfi_restore 7
 3433              		.cfi_def_cfa_offset 0
 3434 0016 7047     		bx	lr
 3435              		.cfi_endproc
 3436              	.LFE469:
 3438              		.section	.text.SMARTCARD_SetConfig,"ax",%progbits
 3439              		.align	1
 3440              		.syntax unified
 3441              		.thumb
 3442              		.thumb_func
 3444              	SMARTCARD_SetConfig:
 3445              	.LFB470:
2405:Drivers/STM32L4xx_HAL_Driver/Src/stm32l4xx_hal_smartcard.c **** 
2406:Drivers/STM32L4xx_HAL_Driver/Src/stm32l4xx_hal_smartcard.c **** /**
ARM GAS  /tmp/ccDAjxq4.s 			page 103


2407:Drivers/STM32L4xx_HAL_Driver/Src/stm32l4xx_hal_smartcard.c ****   * @}
2408:Drivers/STM32L4xx_HAL_Driver/Src/stm32l4xx_hal_smartcard.c ****   */
2409:Drivers/STM32L4xx_HAL_Driver/Src/stm32l4xx_hal_smartcard.c **** 
2410:Drivers/STM32L4xx_HAL_Driver/Src/stm32l4xx_hal_smartcard.c **** /**
2411:Drivers/STM32L4xx_HAL_Driver/Src/stm32l4xx_hal_smartcard.c ****   * @}
2412:Drivers/STM32L4xx_HAL_Driver/Src/stm32l4xx_hal_smartcard.c ****   */
2413:Drivers/STM32L4xx_HAL_Driver/Src/stm32l4xx_hal_smartcard.c **** 
2414:Drivers/STM32L4xx_HAL_Driver/Src/stm32l4xx_hal_smartcard.c **** /** @defgroup SMARTCARD_Private_Functions SMARTCARD Private Functions
2415:Drivers/STM32L4xx_HAL_Driver/Src/stm32l4xx_hal_smartcard.c ****   * @{
2416:Drivers/STM32L4xx_HAL_Driver/Src/stm32l4xx_hal_smartcard.c ****   */
2417:Drivers/STM32L4xx_HAL_Driver/Src/stm32l4xx_hal_smartcard.c **** 
2418:Drivers/STM32L4xx_HAL_Driver/Src/stm32l4xx_hal_smartcard.c **** #if (USE_HAL_SMARTCARD_REGISTER_CALLBACKS == 1)
2419:Drivers/STM32L4xx_HAL_Driver/Src/stm32l4xx_hal_smartcard.c **** /**
2420:Drivers/STM32L4xx_HAL_Driver/Src/stm32l4xx_hal_smartcard.c ****   * @brief  Initialize the callbacks to their default values.
2421:Drivers/STM32L4xx_HAL_Driver/Src/stm32l4xx_hal_smartcard.c ****   * @param  hsmartcard SMARTCARD handle.
2422:Drivers/STM32L4xx_HAL_Driver/Src/stm32l4xx_hal_smartcard.c ****   * @retval none
2423:Drivers/STM32L4xx_HAL_Driver/Src/stm32l4xx_hal_smartcard.c ****   */
2424:Drivers/STM32L4xx_HAL_Driver/Src/stm32l4xx_hal_smartcard.c **** void SMARTCARD_InitCallbacksToDefault(SMARTCARD_HandleTypeDef *hsmartcard)
2425:Drivers/STM32L4xx_HAL_Driver/Src/stm32l4xx_hal_smartcard.c **** {
2426:Drivers/STM32L4xx_HAL_Driver/Src/stm32l4xx_hal_smartcard.c ****   /* Init the SMARTCARD Callback settings */
2427:Drivers/STM32L4xx_HAL_Driver/Src/stm32l4xx_hal_smartcard.c ****   hsmartcard->TxCpltCallback            = HAL_SMARTCARD_TxCpltCallback;            /* Legacy weak T
2428:Drivers/STM32L4xx_HAL_Driver/Src/stm32l4xx_hal_smartcard.c ****   hsmartcard->RxCpltCallback            = HAL_SMARTCARD_RxCpltCallback;            /* Legacy weak R
2429:Drivers/STM32L4xx_HAL_Driver/Src/stm32l4xx_hal_smartcard.c ****   hsmartcard->ErrorCallback             = HAL_SMARTCARD_ErrorCallback;             /* Legacy weak E
2430:Drivers/STM32L4xx_HAL_Driver/Src/stm32l4xx_hal_smartcard.c ****   hsmartcard->AbortCpltCallback         = HAL_SMARTCARD_AbortCpltCallback;         /* Legacy weak A
2431:Drivers/STM32L4xx_HAL_Driver/Src/stm32l4xx_hal_smartcard.c ****   hsmartcard->AbortTransmitCpltCallback = HAL_SMARTCARD_AbortTransmitCpltCallback; /* Legacy weak
2432:Drivers/STM32L4xx_HAL_Driver/Src/stm32l4xx_hal_smartcard.c ****                                                                                       AbortTransmit
2433:Drivers/STM32L4xx_HAL_Driver/Src/stm32l4xx_hal_smartcard.c ****   hsmartcard->AbortReceiveCpltCallback  = HAL_SMARTCARD_AbortReceiveCpltCallback;  /* Legacy weak
2434:Drivers/STM32L4xx_HAL_Driver/Src/stm32l4xx_hal_smartcard.c ****                                                                                       AbortReceiveC
2435:Drivers/STM32L4xx_HAL_Driver/Src/stm32l4xx_hal_smartcard.c **** #if defined(USART_CR1_FIFOEN)
2436:Drivers/STM32L4xx_HAL_Driver/Src/stm32l4xx_hal_smartcard.c ****   hsmartcard->RxFifoFullCallback        = HAL_SMARTCARDEx_RxFifoFullCallback;      /* Legacy weak
2437:Drivers/STM32L4xx_HAL_Driver/Src/stm32l4xx_hal_smartcard.c ****                                                                                       RxFifoFullCal
2438:Drivers/STM32L4xx_HAL_Driver/Src/stm32l4xx_hal_smartcard.c ****   hsmartcard->TxFifoEmptyCallback       = HAL_SMARTCARDEx_TxFifoEmptyCallback;     /* Legacy weak
2439:Drivers/STM32L4xx_HAL_Driver/Src/stm32l4xx_hal_smartcard.c ****                                                                                       TxFifoEmptyCa
2440:Drivers/STM32L4xx_HAL_Driver/Src/stm32l4xx_hal_smartcard.c **** #endif /* USART_CR1_FIFOEN */
2441:Drivers/STM32L4xx_HAL_Driver/Src/stm32l4xx_hal_smartcard.c **** 
2442:Drivers/STM32L4xx_HAL_Driver/Src/stm32l4xx_hal_smartcard.c **** }
2443:Drivers/STM32L4xx_HAL_Driver/Src/stm32l4xx_hal_smartcard.c **** #endif /* USE_HAL_SMARTCARD_REGISTER_CALLBACKS */
2444:Drivers/STM32L4xx_HAL_Driver/Src/stm32l4xx_hal_smartcard.c **** 
2445:Drivers/STM32L4xx_HAL_Driver/Src/stm32l4xx_hal_smartcard.c **** /**
2446:Drivers/STM32L4xx_HAL_Driver/Src/stm32l4xx_hal_smartcard.c ****   * @brief  Configure the SMARTCARD associated USART peripheral.
2447:Drivers/STM32L4xx_HAL_Driver/Src/stm32l4xx_hal_smartcard.c ****   * @param  hsmartcard Pointer to a SMARTCARD_HandleTypeDef structure that contains
2448:Drivers/STM32L4xx_HAL_Driver/Src/stm32l4xx_hal_smartcard.c ****   *                    the configuration information for the specified SMARTCARD module.
2449:Drivers/STM32L4xx_HAL_Driver/Src/stm32l4xx_hal_smartcard.c ****   * @retval HAL status
2450:Drivers/STM32L4xx_HAL_Driver/Src/stm32l4xx_hal_smartcard.c ****   */
2451:Drivers/STM32L4xx_HAL_Driver/Src/stm32l4xx_hal_smartcard.c **** static HAL_StatusTypeDef SMARTCARD_SetConfig(SMARTCARD_HandleTypeDef *hsmartcard)
2452:Drivers/STM32L4xx_HAL_Driver/Src/stm32l4xx_hal_smartcard.c **** {
 3446              		.loc 1 2452 1
 3447              		.cfi_startproc
 3448              		@ args = 0, pretend = 0, frame = 24
 3449              		@ frame_needed = 1, uses_anonymous_args = 0
 3450 0000 80B5     		push	{r7, lr}
 3451              		.cfi_def_cfa_offset 8
 3452              		.cfi_offset 7, -8
 3453              		.cfi_offset 14, -4
 3454 0002 86B0     		sub	sp, sp, #24
 3455              		.cfi_def_cfa_offset 32
 3456 0004 00AF     		add	r7, sp, #0
ARM GAS  /tmp/ccDAjxq4.s 			page 104


 3457              		.cfi_def_cfa_register 7
 3458 0006 7860     		str	r0, [r7, #4]
2453:Drivers/STM32L4xx_HAL_Driver/Src/stm32l4xx_hal_smartcard.c ****   uint32_t tmpreg;
2454:Drivers/STM32L4xx_HAL_Driver/Src/stm32l4xx_hal_smartcard.c ****   SMARTCARD_ClockSourceTypeDef clocksource;
2455:Drivers/STM32L4xx_HAL_Driver/Src/stm32l4xx_hal_smartcard.c ****   HAL_StatusTypeDef ret = HAL_OK;
 3459              		.loc 1 2455 21
 3460 0008 0023     		movs	r3, #0
 3461 000a BB74     		strb	r3, [r7, #18]
2456:Drivers/STM32L4xx_HAL_Driver/Src/stm32l4xx_hal_smartcard.c **** #if defined(USART_PRESC_PRESCALER)
2457:Drivers/STM32L4xx_HAL_Driver/Src/stm32l4xx_hal_smartcard.c ****   static const uint16_t SMARTCARDPrescTable[12] = {1U, 2U, 4U, 6U, 8U, 10U, 12U, 16U, 32U, 64U, 128
2458:Drivers/STM32L4xx_HAL_Driver/Src/stm32l4xx_hal_smartcard.c **** #endif /* USART_PRESC_PRESCALER */
2459:Drivers/STM32L4xx_HAL_Driver/Src/stm32l4xx_hal_smartcard.c ****   uint32_t pclk;
2460:Drivers/STM32L4xx_HAL_Driver/Src/stm32l4xx_hal_smartcard.c **** 
2461:Drivers/STM32L4xx_HAL_Driver/Src/stm32l4xx_hal_smartcard.c ****   /* Check the parameters */
2462:Drivers/STM32L4xx_HAL_Driver/Src/stm32l4xx_hal_smartcard.c ****   assert_param(IS_SMARTCARD_INSTANCE(hsmartcard->Instance));
2463:Drivers/STM32L4xx_HAL_Driver/Src/stm32l4xx_hal_smartcard.c ****   assert_param(IS_SMARTCARD_BAUDRATE(hsmartcard->Init.BaudRate));
2464:Drivers/STM32L4xx_HAL_Driver/Src/stm32l4xx_hal_smartcard.c ****   assert_param(IS_SMARTCARD_WORD_LENGTH(hsmartcard->Init.WordLength));
2465:Drivers/STM32L4xx_HAL_Driver/Src/stm32l4xx_hal_smartcard.c ****   assert_param(IS_SMARTCARD_STOPBITS(hsmartcard->Init.StopBits));
2466:Drivers/STM32L4xx_HAL_Driver/Src/stm32l4xx_hal_smartcard.c ****   assert_param(IS_SMARTCARD_PARITY(hsmartcard->Init.Parity));
2467:Drivers/STM32L4xx_HAL_Driver/Src/stm32l4xx_hal_smartcard.c ****   assert_param(IS_SMARTCARD_MODE(hsmartcard->Init.Mode));
2468:Drivers/STM32L4xx_HAL_Driver/Src/stm32l4xx_hal_smartcard.c ****   assert_param(IS_SMARTCARD_POLARITY(hsmartcard->Init.CLKPolarity));
2469:Drivers/STM32L4xx_HAL_Driver/Src/stm32l4xx_hal_smartcard.c ****   assert_param(IS_SMARTCARD_PHASE(hsmartcard->Init.CLKPhase));
2470:Drivers/STM32L4xx_HAL_Driver/Src/stm32l4xx_hal_smartcard.c ****   assert_param(IS_SMARTCARD_LASTBIT(hsmartcard->Init.CLKLastBit));
2471:Drivers/STM32L4xx_HAL_Driver/Src/stm32l4xx_hal_smartcard.c ****   assert_param(IS_SMARTCARD_ONE_BIT_SAMPLE(hsmartcard->Init.OneBitSampling));
2472:Drivers/STM32L4xx_HAL_Driver/Src/stm32l4xx_hal_smartcard.c ****   assert_param(IS_SMARTCARD_NACK(hsmartcard->Init.NACKEnable));
2473:Drivers/STM32L4xx_HAL_Driver/Src/stm32l4xx_hal_smartcard.c ****   assert_param(IS_SMARTCARD_TIMEOUT(hsmartcard->Init.TimeOutEnable));
2474:Drivers/STM32L4xx_HAL_Driver/Src/stm32l4xx_hal_smartcard.c ****   assert_param(IS_SMARTCARD_AUTORETRY_COUNT(hsmartcard->Init.AutoRetryCount));
2475:Drivers/STM32L4xx_HAL_Driver/Src/stm32l4xx_hal_smartcard.c **** #if defined(USART_PRESC_PRESCALER)
2476:Drivers/STM32L4xx_HAL_Driver/Src/stm32l4xx_hal_smartcard.c ****   assert_param(IS_SMARTCARD_CLOCKPRESCALER(hsmartcard->Init.ClockPrescaler));
2477:Drivers/STM32L4xx_HAL_Driver/Src/stm32l4xx_hal_smartcard.c **** #endif /* USART_PRESC_PRESCALER */
2478:Drivers/STM32L4xx_HAL_Driver/Src/stm32l4xx_hal_smartcard.c **** 
2479:Drivers/STM32L4xx_HAL_Driver/Src/stm32l4xx_hal_smartcard.c ****   /*-------------------------- USART CR1 Configuration -----------------------*/
2480:Drivers/STM32L4xx_HAL_Driver/Src/stm32l4xx_hal_smartcard.c ****   /* In SmartCard mode, M and PCE are forced to 1 (8 bits + parity).
2481:Drivers/STM32L4xx_HAL_Driver/Src/stm32l4xx_hal_smartcard.c ****    * Oversampling is forced to 16 (OVER8 = 0).
2482:Drivers/STM32L4xx_HAL_Driver/Src/stm32l4xx_hal_smartcard.c ****    * Configure the Parity and Mode:
2483:Drivers/STM32L4xx_HAL_Driver/Src/stm32l4xx_hal_smartcard.c ****    *  set PS bit according to hsmartcard->Init.Parity value
2484:Drivers/STM32L4xx_HAL_Driver/Src/stm32l4xx_hal_smartcard.c ****    *  set TE and RE bits according to hsmartcard->Init.Mode value */
2485:Drivers/STM32L4xx_HAL_Driver/Src/stm32l4xx_hal_smartcard.c ****   tmpreg = (((uint32_t)hsmartcard->Init.Parity) | ((uint32_t)hsmartcard->Init.Mode) |
 3462              		.loc 1 2485 40
 3463 000c 7B68     		ldr	r3, [r7, #4]
 3464 000e 1A8A     		ldrh	r2, [r3, #16]
 3465              		.loc 1 2485 78
 3466 0010 7B68     		ldr	r3, [r7, #4]
 3467 0012 5B8A     		ldrh	r3, [r3, #18]
 3468              		.loc 1 2485 49
 3469 0014 1343     		orrs	r3, r3, r2
 3470 0016 9BB2     		uxth	r3, r3
 3471 0018 1A46     		mov	r2, r3
2486:Drivers/STM32L4xx_HAL_Driver/Src/stm32l4xx_hal_smartcard.c ****             ((uint32_t)hsmartcard->Init.WordLength));
 3472              		.loc 1 2486 40
 3473 001a 7B68     		ldr	r3, [r7, #4]
 3474 001c 9B68     		ldr	r3, [r3, #8]
2485:Drivers/STM32L4xx_HAL_Driver/Src/stm32l4xx_hal_smartcard.c ****             ((uint32_t)hsmartcard->Init.WordLength));
 3475              		.loc 1 2485 10
 3476 001e 1343     		orrs	r3, r3, r2
 3477 0020 7B61     		str	r3, [r7, #20]
2487:Drivers/STM32L4xx_HAL_Driver/Src/stm32l4xx_hal_smartcard.c ****   MODIFY_REG(hsmartcard->Instance->CR1, USART_CR1_FIELDS, tmpreg);
ARM GAS  /tmp/ccDAjxq4.s 			page 105


 3478              		.loc 1 2487 3
 3479 0022 7B68     		ldr	r3, [r7, #4]
 3480 0024 1B68     		ldr	r3, [r3]
 3481 0026 1A68     		ldr	r2, [r3]
 3482 0028 A84B     		ldr	r3, .L196
 3483 002a 1340     		ands	r3, r3, r2
 3484 002c 7A68     		ldr	r2, [r7, #4]
 3485 002e 1268     		ldr	r2, [r2]
 3486 0030 7969     		ldr	r1, [r7, #20]
 3487 0032 0B43     		orrs	r3, r3, r1
 3488 0034 1360     		str	r3, [r2]
2488:Drivers/STM32L4xx_HAL_Driver/Src/stm32l4xx_hal_smartcard.c **** 
2489:Drivers/STM32L4xx_HAL_Driver/Src/stm32l4xx_hal_smartcard.c ****   /*-------------------------- USART CR2 Configuration -----------------------*/
2490:Drivers/STM32L4xx_HAL_Driver/Src/stm32l4xx_hal_smartcard.c ****   tmpreg = hsmartcard->Init.StopBits;
 3489              		.loc 1 2490 10
 3490 0036 7B68     		ldr	r3, [r7, #4]
 3491 0038 DB68     		ldr	r3, [r3, #12]
 3492 003a 7B61     		str	r3, [r7, #20]
2491:Drivers/STM32L4xx_HAL_Driver/Src/stm32l4xx_hal_smartcard.c ****   /* Synchronous mode is activated by default */
2492:Drivers/STM32L4xx_HAL_Driver/Src/stm32l4xx_hal_smartcard.c ****   tmpreg |= (uint32_t) USART_CR2_CLKEN | hsmartcard->Init.CLKPolarity;
 3493              		.loc 1 2492 58
 3494 003c 7B68     		ldr	r3, [r7, #4]
 3495 003e 9B8A     		ldrh	r3, [r3, #20]
 3496              		.loc 1 2492 40
 3497 0040 43F40063 		orr	r3, r3, #2048
 3498 0044 9BB2     		uxth	r3, r3
 3499 0046 1A46     		mov	r2, r3
 3500              		.loc 1 2492 10
 3501 0048 7B69     		ldr	r3, [r7, #20]
 3502 004a 1343     		orrs	r3, r3, r2
 3503 004c 7B61     		str	r3, [r7, #20]
2493:Drivers/STM32L4xx_HAL_Driver/Src/stm32l4xx_hal_smartcard.c ****   tmpreg |= (uint32_t) hsmartcard->Init.CLKPhase | hsmartcard->Init.CLKLastBit;
 3504              		.loc 1 2493 40
 3505 004e 7B68     		ldr	r3, [r7, #4]
 3506 0050 DA8A     		ldrh	r2, [r3, #22]
 3507              		.loc 1 2493 68
 3508 0052 7B68     		ldr	r3, [r7, #4]
 3509 0054 1B8B     		ldrh	r3, [r3, #24]
 3510              		.loc 1 2493 50
 3511 0056 1343     		orrs	r3, r3, r2
 3512 0058 9BB2     		uxth	r3, r3
 3513 005a 1A46     		mov	r2, r3
 3514              		.loc 1 2493 10
 3515 005c 7B69     		ldr	r3, [r7, #20]
 3516 005e 1343     		orrs	r3, r3, r2
 3517 0060 7B61     		str	r3, [r7, #20]
2494:Drivers/STM32L4xx_HAL_Driver/Src/stm32l4xx_hal_smartcard.c ****   tmpreg |= (uint32_t) hsmartcard->Init.TimeOutEnable;
 3518              		.loc 1 2494 40
 3519 0062 7B68     		ldr	r3, [r7, #4]
 3520 0064 1B6A     		ldr	r3, [r3, #32]
 3521              		.loc 1 2494 10
 3522 0066 7A69     		ldr	r2, [r7, #20]
 3523 0068 1343     		orrs	r3, r3, r2
 3524 006a 7B61     		str	r3, [r7, #20]
2495:Drivers/STM32L4xx_HAL_Driver/Src/stm32l4xx_hal_smartcard.c ****   MODIFY_REG(hsmartcard->Instance->CR2, USART_CR2_FIELDS, tmpreg);
 3525              		.loc 1 2495 3
 3526 006c 7B68     		ldr	r3, [r7, #4]
ARM GAS  /tmp/ccDAjxq4.s 			page 106


 3527 006e 1B68     		ldr	r3, [r3]
 3528 0070 5B68     		ldr	r3, [r3, #4]
 3529 0072 23F40003 		bic	r3, r3, #8388608
 3530 0076 23F47C53 		bic	r3, r3, #16128
 3531 007a 7A68     		ldr	r2, [r7, #4]
 3532 007c 1268     		ldr	r2, [r2]
 3533 007e 7969     		ldr	r1, [r7, #20]
 3534 0080 0B43     		orrs	r3, r3, r1
 3535 0082 5360     		str	r3, [r2, #4]
2496:Drivers/STM32L4xx_HAL_Driver/Src/stm32l4xx_hal_smartcard.c **** 
2497:Drivers/STM32L4xx_HAL_Driver/Src/stm32l4xx_hal_smartcard.c ****   /*-------------------------- USART CR3 Configuration -----------------------*/
2498:Drivers/STM32L4xx_HAL_Driver/Src/stm32l4xx_hal_smartcard.c ****   /* Configure
2499:Drivers/STM32L4xx_HAL_Driver/Src/stm32l4xx_hal_smartcard.c ****    * - one-bit sampling method versus three samples' majority rule
2500:Drivers/STM32L4xx_HAL_Driver/Src/stm32l4xx_hal_smartcard.c ****    *   according to hsmartcard->Init.OneBitSampling
2501:Drivers/STM32L4xx_HAL_Driver/Src/stm32l4xx_hal_smartcard.c ****    * - NACK transmission in case of parity error according
2502:Drivers/STM32L4xx_HAL_Driver/Src/stm32l4xx_hal_smartcard.c ****    *   to hsmartcard->Init.NACKEnable
2503:Drivers/STM32L4xx_HAL_Driver/Src/stm32l4xx_hal_smartcard.c ****    * - autoretry counter according to hsmartcard->Init.AutoRetryCount */
2504:Drivers/STM32L4xx_HAL_Driver/Src/stm32l4xx_hal_smartcard.c **** 
2505:Drivers/STM32L4xx_HAL_Driver/Src/stm32l4xx_hal_smartcard.c ****   tmpreg = (uint32_t) hsmartcard->Init.OneBitSampling | hsmartcard->Init.NACKEnable;
 3536              		.loc 1 2505 39
 3537 0084 7B68     		ldr	r3, [r7, #4]
 3538 0086 5A8B     		ldrh	r2, [r3, #26]
 3539              		.loc 1 2505 73
 3540 0088 7B68     		ldr	r3, [r7, #4]
 3541 008a DB8B     		ldrh	r3, [r3, #30]
 3542              		.loc 1 2505 55
 3543 008c 1343     		orrs	r3, r3, r2
 3544 008e 9BB2     		uxth	r3, r3
 3545              		.loc 1 2505 10
 3546 0090 7B61     		str	r3, [r7, #20]
2506:Drivers/STM32L4xx_HAL_Driver/Src/stm32l4xx_hal_smartcard.c ****   tmpreg |= ((uint32_t)hsmartcard->Init.AutoRetryCount << USART_CR3_SCARCNT_Pos);
 3547              		.loc 1 2506 40
 3548 0092 7B68     		ldr	r3, [r7, #4]
 3549 0094 93F82930 		ldrb	r3, [r3, #41]	@ zero_extendqisi2
 3550              		.loc 1 2506 56
 3551 0098 5B04     		lsls	r3, r3, #17
 3552              		.loc 1 2506 10
 3553 009a 7A69     		ldr	r2, [r7, #20]
 3554 009c 1343     		orrs	r3, r3, r2
 3555 009e 7B61     		str	r3, [r7, #20]
2507:Drivers/STM32L4xx_HAL_Driver/Src/stm32l4xx_hal_smartcard.c ****   MODIFY_REG(hsmartcard->Instance->CR3, USART_CR3_FIELDS, tmpreg);
 3556              		.loc 1 2507 3
 3557 00a0 7B68     		ldr	r3, [r7, #4]
 3558 00a2 1B68     		ldr	r3, [r3]
 3559 00a4 9B68     		ldr	r3, [r3, #8]
 3560 00a6 23F46023 		bic	r3, r3, #917504
 3561 00aa 23F40163 		bic	r3, r3, #2064
 3562 00ae 7A68     		ldr	r2, [r7, #4]
 3563 00b0 1268     		ldr	r2, [r2]
 3564 00b2 7969     		ldr	r1, [r7, #20]
 3565 00b4 0B43     		orrs	r3, r3, r1
 3566 00b6 9360     		str	r3, [r2, #8]
2508:Drivers/STM32L4xx_HAL_Driver/Src/stm32l4xx_hal_smartcard.c **** 
2509:Drivers/STM32L4xx_HAL_Driver/Src/stm32l4xx_hal_smartcard.c **** #if defined(USART_PRESC_PRESCALER)
2510:Drivers/STM32L4xx_HAL_Driver/Src/stm32l4xx_hal_smartcard.c ****   /*--------------------- SMARTCARD clock PRESC Configuration ----------------*/
2511:Drivers/STM32L4xx_HAL_Driver/Src/stm32l4xx_hal_smartcard.c ****   /* Configure
2512:Drivers/STM32L4xx_HAL_Driver/Src/stm32l4xx_hal_smartcard.c ****   * - SMARTCARD Clock Prescaler: set PRESCALER according to hsmartcard->Init.ClockPrescaler value *
ARM GAS  /tmp/ccDAjxq4.s 			page 107


2513:Drivers/STM32L4xx_HAL_Driver/Src/stm32l4xx_hal_smartcard.c ****   MODIFY_REG(hsmartcard->Instance->PRESC, USART_PRESC_PRESCALER, hsmartcard->Init.ClockPrescaler);
2514:Drivers/STM32L4xx_HAL_Driver/Src/stm32l4xx_hal_smartcard.c **** #endif /* USART_PRESC_PRESCALER */
2515:Drivers/STM32L4xx_HAL_Driver/Src/stm32l4xx_hal_smartcard.c **** 
2516:Drivers/STM32L4xx_HAL_Driver/Src/stm32l4xx_hal_smartcard.c ****   /*-------------------------- USART GTPR Configuration ----------------------*/
2517:Drivers/STM32L4xx_HAL_Driver/Src/stm32l4xx_hal_smartcard.c ****   tmpreg = (hsmartcard->Init.Prescaler | ((uint32_t)hsmartcard->Init.GuardTime << USART_GTPR_GT_Pos
 3567              		.loc 1 2517 29
 3568 00b8 7B68     		ldr	r3, [r7, #4]
 3569 00ba 1B7F     		ldrb	r3, [r3, #28]	@ zero_extendqisi2
 3570 00bc 1A46     		mov	r2, r3
 3571              		.loc 1 2517 69
 3572 00be 7B68     		ldr	r3, [r7, #4]
 3573 00c0 5B7F     		ldrb	r3, [r3, #29]	@ zero_extendqisi2
 3574              		.loc 1 2517 80
 3575 00c2 1B02     		lsls	r3, r3, #8
 3576              		.loc 1 2517 10
 3577 00c4 1343     		orrs	r3, r3, r2
 3578 00c6 7B61     		str	r3, [r7, #20]
2518:Drivers/STM32L4xx_HAL_Driver/Src/stm32l4xx_hal_smartcard.c ****   MODIFY_REG(hsmartcard->Instance->GTPR, (uint16_t)(USART_GTPR_GT | USART_GTPR_PSC), (uint16_t)tmpr
 3579              		.loc 1 2518 3
 3580 00c8 7B68     		ldr	r3, [r7, #4]
 3581 00ca 1B68     		ldr	r3, [r3]
 3582 00cc 1B69     		ldr	r3, [r3, #16]
 3583 00ce 1B0C     		lsrs	r3, r3, #16
 3584 00d0 1B04     		lsls	r3, r3, #16
 3585 00d2 7A69     		ldr	r2, [r7, #20]
 3586 00d4 92B2     		uxth	r2, r2
 3587 00d6 1146     		mov	r1, r2
 3588 00d8 7A68     		ldr	r2, [r7, #4]
 3589 00da 1268     		ldr	r2, [r2]
 3590 00dc 0B43     		orrs	r3, r3, r1
 3591 00de 1361     		str	r3, [r2, #16]
2519:Drivers/STM32L4xx_HAL_Driver/Src/stm32l4xx_hal_smartcard.c **** 
2520:Drivers/STM32L4xx_HAL_Driver/Src/stm32l4xx_hal_smartcard.c ****   /*-------------------------- USART RTOR Configuration ----------------------*/
2521:Drivers/STM32L4xx_HAL_Driver/Src/stm32l4xx_hal_smartcard.c ****   tmpreg = ((uint32_t)hsmartcard->Init.BlockLength << USART_RTOR_BLEN_Pos);
 3592              		.loc 1 2521 39
 3593 00e0 7B68     		ldr	r3, [r7, #4]
 3594 00e2 93F82830 		ldrb	r3, [r3, #40]	@ zero_extendqisi2
 3595              		.loc 1 2521 10
 3596 00e6 1B06     		lsls	r3, r3, #24
 3597 00e8 7B61     		str	r3, [r7, #20]
2522:Drivers/STM32L4xx_HAL_Driver/Src/stm32l4xx_hal_smartcard.c ****   if (hsmartcard->Init.TimeOutEnable == SMARTCARD_TIMEOUT_ENABLE)
 3598              		.loc 1 2522 23
 3599 00ea 7B68     		ldr	r3, [r7, #4]
 3600 00ec 1B6A     		ldr	r3, [r3, #32]
 3601              		.loc 1 2522 6
 3602 00ee B3F5000F 		cmp	r3, #8388608
 3603 00f2 04D1     		bne	.L160
2523:Drivers/STM32L4xx_HAL_Driver/Src/stm32l4xx_hal_smartcard.c ****   {
2524:Drivers/STM32L4xx_HAL_Driver/Src/stm32l4xx_hal_smartcard.c ****     assert_param(IS_SMARTCARD_TIMEOUT_VALUE(hsmartcard->Init.TimeOutValue));
2525:Drivers/STM32L4xx_HAL_Driver/Src/stm32l4xx_hal_smartcard.c ****     tmpreg |= (uint32_t) hsmartcard->Init.TimeOutValue;
 3604              		.loc 1 2525 42
 3605 00f4 7B68     		ldr	r3, [r7, #4]
 3606 00f6 5B6A     		ldr	r3, [r3, #36]
 3607              		.loc 1 2525 12
 3608 00f8 7A69     		ldr	r2, [r7, #20]
 3609 00fa 1343     		orrs	r3, r3, r2
 3610 00fc 7B61     		str	r3, [r7, #20]
ARM GAS  /tmp/ccDAjxq4.s 			page 108


 3611              	.L160:
2526:Drivers/STM32L4xx_HAL_Driver/Src/stm32l4xx_hal_smartcard.c ****   }
2527:Drivers/STM32L4xx_HAL_Driver/Src/stm32l4xx_hal_smartcard.c ****   WRITE_REG(hsmartcard->Instance->RTOR, tmpreg);
 3612              		.loc 1 2527 3
 3613 00fe 7B68     		ldr	r3, [r7, #4]
 3614 0100 1B68     		ldr	r3, [r3]
 3615 0102 7A69     		ldr	r2, [r7, #20]
 3616 0104 5A61     		str	r2, [r3, #20]
2528:Drivers/STM32L4xx_HAL_Driver/Src/stm32l4xx_hal_smartcard.c **** 
2529:Drivers/STM32L4xx_HAL_Driver/Src/stm32l4xx_hal_smartcard.c ****   /*-------------------------- USART BRR Configuration -----------------------*/
2530:Drivers/STM32L4xx_HAL_Driver/Src/stm32l4xx_hal_smartcard.c ****   SMARTCARD_GETCLOCKSOURCE(hsmartcard, clocksource);
 3617              		.loc 1 2530 3
 3618 0106 7B68     		ldr	r3, [r7, #4]
 3619 0108 1B68     		ldr	r3, [r3]
 3620 010a 714A     		ldr	r2, .L196+4
 3621 010c 9342     		cmp	r3, r2
 3622 010e 20D1     		bne	.L161
 3623              		.loc 1 2530 3 is_stmt 0 discriminator 1
 3624 0110 704B     		ldr	r3, .L196+8
 3625 0112 D3F88830 		ldr	r3, [r3, #136]
 3626 0116 03F00303 		and	r3, r3, #3
 3627 011a 032B     		cmp	r3, #3
 3628 011c 16D8     		bhi	.L162
 3629 011e 01A2     		adr	r2, .L164
 3630 0120 52F823F0 		ldr	pc, [r2, r3, lsl #2]
 3631              		.p2align 2
 3632              	.L164:
 3633 0124 35010000 		.word	.L167+1
 3634 0128 41010000 		.word	.L166+1
 3635 012c 3B010000 		.word	.L165+1
 3636 0130 47010000 		.word	.L163+1
 3637              		.p2align 1
 3638              	.L167:
 3639              		.loc 1 2530 3 discriminator 4
 3640 0134 0123     		movs	r3, #1
 3641 0136 FB74     		strb	r3, [r7, #19]
 3642              		.loc 1 2530 3
 3643 0138 6BE0     		b	.L169
 3644              	.L165:
 3645              		.loc 1 2530 3 discriminator 6
 3646 013a 0223     		movs	r3, #2
 3647 013c FB74     		strb	r3, [r7, #19]
 3648              		.loc 1 2530 3
 3649 013e 68E0     		b	.L169
 3650              	.L166:
 3651              		.loc 1 2530 3 discriminator 5
 3652 0140 0423     		movs	r3, #4
 3653 0142 FB74     		strb	r3, [r7, #19]
 3654              		.loc 1 2530 3
 3655 0144 65E0     		b	.L169
 3656              	.L163:
 3657              		.loc 1 2530 3 discriminator 7
 3658 0146 0823     		movs	r3, #8
 3659 0148 FB74     		strb	r3, [r7, #19]
 3660              		.loc 1 2530 3
 3661 014a 62E0     		b	.L169
 3662              	.L162:
ARM GAS  /tmp/ccDAjxq4.s 			page 109


 3663              		.loc 1 2530 3 discriminator 3
 3664 014c 1023     		movs	r3, #16
 3665 014e FB74     		strb	r3, [r7, #19]
 3666              		.loc 1 2530 3
 3667 0150 5FE0     		b	.L169
 3668              	.L161:
 3669              		.loc 1 2530 3 discriminator 2
 3670 0152 7B68     		ldr	r3, [r7, #4]
 3671 0154 1B68     		ldr	r3, [r3]
 3672 0156 604A     		ldr	r2, .L196+12
 3673 0158 9342     		cmp	r3, r2
 3674 015a 32D1     		bne	.L170
 3675              		.loc 1 2530 3 discriminator 8
 3676 015c 5D4B     		ldr	r3, .L196+8
 3677 015e D3F88830 		ldr	r3, [r3, #136]
 3678 0162 03F00C03 		and	r3, r3, #12
 3679 0166 0C2B     		cmp	r3, #12
 3680 0168 28D8     		bhi	.L171
 3681 016a 01A2     		adr	r2, .L173
 3682 016c 52F823F0 		ldr	pc, [r2, r3, lsl #2]
 3683              		.p2align 2
 3684              	.L173:
 3685 0170 A5010000 		.word	.L176+1
 3686 0174 BD010000 		.word	.L171+1
 3687 0178 BD010000 		.word	.L171+1
 3688 017c BD010000 		.word	.L171+1
 3689 0180 B1010000 		.word	.L175+1
 3690 0184 BD010000 		.word	.L171+1
 3691 0188 BD010000 		.word	.L171+1
 3692 018c BD010000 		.word	.L171+1
 3693 0190 AB010000 		.word	.L174+1
 3694 0194 BD010000 		.word	.L171+1
 3695 0198 BD010000 		.word	.L171+1
 3696 019c BD010000 		.word	.L171+1
 3697 01a0 B7010000 		.word	.L172+1
 3698              		.p2align 1
 3699              	.L176:
 3700              		.loc 1 2530 3 discriminator 11
 3701 01a4 0023     		movs	r3, #0
 3702 01a6 FB74     		strb	r3, [r7, #19]
 3703              		.loc 1 2530 3
 3704 01a8 33E0     		b	.L169
 3705              	.L174:
 3706              		.loc 1 2530 3 discriminator 13
 3707 01aa 0223     		movs	r3, #2
 3708 01ac FB74     		strb	r3, [r7, #19]
 3709              		.loc 1 2530 3
 3710 01ae 30E0     		b	.L169
 3711              	.L175:
 3712              		.loc 1 2530 3 discriminator 12
 3713 01b0 0423     		movs	r3, #4
 3714 01b2 FB74     		strb	r3, [r7, #19]
 3715              		.loc 1 2530 3
 3716 01b4 2DE0     		b	.L169
 3717              	.L172:
 3718              		.loc 1 2530 3 discriminator 14
 3719 01b6 0823     		movs	r3, #8
ARM GAS  /tmp/ccDAjxq4.s 			page 110


 3720 01b8 FB74     		strb	r3, [r7, #19]
 3721              		.loc 1 2530 3
 3722 01ba 2AE0     		b	.L169
 3723              	.L171:
 3724              		.loc 1 2530 3 discriminator 10
 3725 01bc 1023     		movs	r3, #16
 3726 01be FB74     		strb	r3, [r7, #19]
 3727              		.loc 1 2530 3
 3728 01c0 27E0     		b	.L169
 3729              	.L170:
 3730              		.loc 1 2530 3 discriminator 9
 3731 01c2 7B68     		ldr	r3, [r7, #4]
 3732 01c4 1B68     		ldr	r3, [r3]
 3733 01c6 454A     		ldr	r2, .L196+16
 3734 01c8 9342     		cmp	r3, r2
 3735 01ca 20D1     		bne	.L178
 3736              		.loc 1 2530 3 discriminator 15
 3737 01cc 414B     		ldr	r3, .L196+8
 3738 01ce D3F88830 		ldr	r3, [r3, #136]
 3739 01d2 03F03003 		and	r3, r3, #48
 3740 01d6 302B     		cmp	r3, #48
 3741 01d8 13D0     		beq	.L179
 3742 01da 302B     		cmp	r3, #48
 3743 01dc 14D8     		bhi	.L180
 3744 01de 202B     		cmp	r3, #32
 3745 01e0 09D0     		beq	.L181
 3746 01e2 202B     		cmp	r3, #32
 3747 01e4 10D8     		bhi	.L180
 3748 01e6 002B     		cmp	r3, #0
 3749 01e8 02D0     		beq	.L182
 3750 01ea 102B     		cmp	r3, #16
 3751 01ec 06D0     		beq	.L183
 3752 01ee 0BE0     		b	.L180
 3753              	.L182:
 3754              		.loc 1 2530 3 discriminator 18
 3755 01f0 0023     		movs	r3, #0
 3756 01f2 FB74     		strb	r3, [r7, #19]
 3757              		.loc 1 2530 3
 3758 01f4 0DE0     		b	.L169
 3759              	.L181:
 3760              		.loc 1 2530 3 discriminator 20
 3761 01f6 0223     		movs	r3, #2
 3762 01f8 FB74     		strb	r3, [r7, #19]
 3763              		.loc 1 2530 3
 3764 01fa 0AE0     		b	.L169
 3765              	.L183:
 3766              		.loc 1 2530 3 discriminator 19
 3767 01fc 0423     		movs	r3, #4
 3768 01fe FB74     		strb	r3, [r7, #19]
 3769              		.loc 1 2530 3
 3770 0200 07E0     		b	.L169
 3771              	.L179:
 3772              		.loc 1 2530 3 discriminator 21
 3773 0202 0823     		movs	r3, #8
 3774 0204 FB74     		strb	r3, [r7, #19]
 3775              		.loc 1 2530 3
 3776 0206 04E0     		b	.L169
ARM GAS  /tmp/ccDAjxq4.s 			page 111


 3777              	.L180:
 3778              		.loc 1 2530 3 discriminator 17
 3779 0208 1023     		movs	r3, #16
 3780 020a FB74     		strb	r3, [r7, #19]
 3781              		.loc 1 2530 3
 3782 020c 01E0     		b	.L169
 3783              	.L178:
 3784              		.loc 1 2530 3 discriminator 16
 3785 020e 1023     		movs	r3, #16
 3786 0210 FB74     		strb	r3, [r7, #19]
 3787              	.L169:
2531:Drivers/STM32L4xx_HAL_Driver/Src/stm32l4xx_hal_smartcard.c ****   tmpreg =   0U;
 3788              		.loc 1 2531 10 is_stmt 1
 3789 0212 0023     		movs	r3, #0
 3790 0214 7B61     		str	r3, [r7, #20]
2532:Drivers/STM32L4xx_HAL_Driver/Src/stm32l4xx_hal_smartcard.c ****   switch (clocksource)
 3791              		.loc 1 2532 3
 3792 0216 FB7C     		ldrb	r3, [r7, #19]	@ zero_extendqisi2
 3793 0218 082B     		cmp	r3, #8
 3794 021a 61D8     		bhi	.L185
 3795 021c 01A2     		adr	r2, .L187
 3796 021e 52F823F0 		ldr	pc, [r2, r3, lsl #2]
 3797 0222 00BF     		.p2align 2
 3798              	.L187:
 3799 0224 49020000 		.word	.L191+1
 3800 0228 65020000 		.word	.L190+1
 3801 022c 81020000 		.word	.L189+1
 3802 0230 E1020000 		.word	.L185+1
 3803 0234 9B020000 		.word	.L188+1
 3804 0238 E1020000 		.word	.L185+1
 3805 023c E1020000 		.word	.L185+1
 3806 0240 E1020000 		.word	.L185+1
 3807 0244 B7020000 		.word	.L186+1
 3808              		.p2align 1
 3809              	.L191:
2533:Drivers/STM32L4xx_HAL_Driver/Src/stm32l4xx_hal_smartcard.c ****   {
2534:Drivers/STM32L4xx_HAL_Driver/Src/stm32l4xx_hal_smartcard.c ****     case SMARTCARD_CLOCKSOURCE_PCLK1:
2535:Drivers/STM32L4xx_HAL_Driver/Src/stm32l4xx_hal_smartcard.c ****       pclk = HAL_RCC_GetPCLK1Freq();
 3810              		.loc 1 2535 14
 3811 0248 FFF7FEFF 		bl	HAL_RCC_GetPCLK1Freq
 3812 024c F860     		str	r0, [r7, #12]
2536:Drivers/STM32L4xx_HAL_Driver/Src/stm32l4xx_hal_smartcard.c **** #if defined(USART_PRESC_PRESCALER)
2537:Drivers/STM32L4xx_HAL_Driver/Src/stm32l4xx_hal_smartcard.c ****       tmpreg = (uint32_t)(((pclk / SMARTCARDPrescTable[hsmartcard->Init.ClockPrescaler]) +
2538:Drivers/STM32L4xx_HAL_Driver/Src/stm32l4xx_hal_smartcard.c ****                            (hsmartcard->Init.BaudRate / 2U)) / hsmartcard->Init.BaudRate);
2539:Drivers/STM32L4xx_HAL_Driver/Src/stm32l4xx_hal_smartcard.c **** #else
2540:Drivers/STM32L4xx_HAL_Driver/Src/stm32l4xx_hal_smartcard.c ****       tmpreg = (uint32_t)((pclk + (hsmartcard->Init.BaudRate / 2U)) / hsmartcard->Init.BaudRate);
 3813              		.loc 1 2540 52
 3814 024e 7B68     		ldr	r3, [r7, #4]
 3815 0250 5B68     		ldr	r3, [r3, #4]
 3816              		.loc 1 2540 62
 3817 0252 5A08     		lsrs	r2, r3, #1
 3818              		.loc 1 2540 33
 3819 0254 FB68     		ldr	r3, [r7, #12]
 3820 0256 1A44     		add	r2, r2, r3
 3821              		.loc 1 2540 87
 3822 0258 7B68     		ldr	r3, [r7, #4]
 3823 025a 5B68     		ldr	r3, [r3, #4]
ARM GAS  /tmp/ccDAjxq4.s 			page 112


 3824              		.loc 1 2540 14
 3825 025c B2FBF3F3 		udiv	r3, r2, r3
 3826 0260 7B61     		str	r3, [r7, #20]
2541:Drivers/STM32L4xx_HAL_Driver/Src/stm32l4xx_hal_smartcard.c **** #endif /* USART_PRESC_PRESCALER */
2542:Drivers/STM32L4xx_HAL_Driver/Src/stm32l4xx_hal_smartcard.c ****       break;
 3827              		.loc 1 2542 7
 3828 0262 40E0     		b	.L192
 3829              	.L190:
2543:Drivers/STM32L4xx_HAL_Driver/Src/stm32l4xx_hal_smartcard.c ****     case SMARTCARD_CLOCKSOURCE_PCLK2:
2544:Drivers/STM32L4xx_HAL_Driver/Src/stm32l4xx_hal_smartcard.c ****       pclk = HAL_RCC_GetPCLK2Freq();
 3830              		.loc 1 2544 14
 3831 0264 FFF7FEFF 		bl	HAL_RCC_GetPCLK2Freq
 3832 0268 F860     		str	r0, [r7, #12]
2545:Drivers/STM32L4xx_HAL_Driver/Src/stm32l4xx_hal_smartcard.c **** #if defined(USART_PRESC_PRESCALER)
2546:Drivers/STM32L4xx_HAL_Driver/Src/stm32l4xx_hal_smartcard.c ****       tmpreg = (uint32_t)(((pclk / SMARTCARDPrescTable[hsmartcard->Init.ClockPrescaler]) +
2547:Drivers/STM32L4xx_HAL_Driver/Src/stm32l4xx_hal_smartcard.c ****                            (hsmartcard->Init.BaudRate / 2U)) / hsmartcard->Init.BaudRate);
2548:Drivers/STM32L4xx_HAL_Driver/Src/stm32l4xx_hal_smartcard.c **** #else
2549:Drivers/STM32L4xx_HAL_Driver/Src/stm32l4xx_hal_smartcard.c ****       tmpreg = (uint32_t)((pclk + (hsmartcard->Init.BaudRate / 2U)) / hsmartcard->Init.BaudRate);
 3833              		.loc 1 2549 52
 3834 026a 7B68     		ldr	r3, [r7, #4]
 3835 026c 5B68     		ldr	r3, [r3, #4]
 3836              		.loc 1 2549 62
 3837 026e 5A08     		lsrs	r2, r3, #1
 3838              		.loc 1 2549 33
 3839 0270 FB68     		ldr	r3, [r7, #12]
 3840 0272 1A44     		add	r2, r2, r3
 3841              		.loc 1 2549 87
 3842 0274 7B68     		ldr	r3, [r7, #4]
 3843 0276 5B68     		ldr	r3, [r3, #4]
 3844              		.loc 1 2549 14
 3845 0278 B2FBF3F3 		udiv	r3, r2, r3
 3846 027c 7B61     		str	r3, [r7, #20]
2550:Drivers/STM32L4xx_HAL_Driver/Src/stm32l4xx_hal_smartcard.c **** #endif /* USART_PRESC_PRESCALER */
2551:Drivers/STM32L4xx_HAL_Driver/Src/stm32l4xx_hal_smartcard.c ****       break;
 3847              		.loc 1 2551 7
 3848 027e 32E0     		b	.L192
 3849              	.L189:
2552:Drivers/STM32L4xx_HAL_Driver/Src/stm32l4xx_hal_smartcard.c ****     case SMARTCARD_CLOCKSOURCE_HSI:
2553:Drivers/STM32L4xx_HAL_Driver/Src/stm32l4xx_hal_smartcard.c **** #if defined(USART_PRESC_PRESCALER)
2554:Drivers/STM32L4xx_HAL_Driver/Src/stm32l4xx_hal_smartcard.c ****       tmpreg = (uint32_t)(((HSI_VALUE / SMARTCARDPrescTable[hsmartcard->Init.ClockPrescaler]) +
2555:Drivers/STM32L4xx_HAL_Driver/Src/stm32l4xx_hal_smartcard.c ****                            (hsmartcard->Init.BaudRate / 2U)) / hsmartcard->Init.BaudRate);
2556:Drivers/STM32L4xx_HAL_Driver/Src/stm32l4xx_hal_smartcard.c **** #else
2557:Drivers/STM32L4xx_HAL_Driver/Src/stm32l4xx_hal_smartcard.c ****       tmpreg = (uint32_t)((HSI_VALUE + (hsmartcard->Init.BaudRate / 2U)) / hsmartcard->Init.BaudRat
 3850              		.loc 1 2557 57
 3851 0280 7B68     		ldr	r3, [r7, #4]
 3852 0282 5B68     		ldr	r3, [r3, #4]
 3853              		.loc 1 2557 67
 3854 0284 5B08     		lsrs	r3, r3, #1
 3855              		.loc 1 2557 38
 3856 0286 03F57403 		add	r3, r3, #15990784
 3857 028a 03F51053 		add	r3, r3, #9216
 3858              		.loc 1 2557 92
 3859 028e 7A68     		ldr	r2, [r7, #4]
 3860 0290 5268     		ldr	r2, [r2, #4]
 3861              		.loc 1 2557 14
 3862 0292 B3FBF2F3 		udiv	r3, r3, r2
 3863 0296 7B61     		str	r3, [r7, #20]
ARM GAS  /tmp/ccDAjxq4.s 			page 113


2558:Drivers/STM32L4xx_HAL_Driver/Src/stm32l4xx_hal_smartcard.c **** #endif /* USART_PRESC_PRESCALER */
2559:Drivers/STM32L4xx_HAL_Driver/Src/stm32l4xx_hal_smartcard.c ****       break;
 3864              		.loc 1 2559 7
 3865 0298 25E0     		b	.L192
 3866              	.L188:
2560:Drivers/STM32L4xx_HAL_Driver/Src/stm32l4xx_hal_smartcard.c ****     case SMARTCARD_CLOCKSOURCE_SYSCLK:
2561:Drivers/STM32L4xx_HAL_Driver/Src/stm32l4xx_hal_smartcard.c ****       pclk = HAL_RCC_GetSysClockFreq();
 3867              		.loc 1 2561 14
 3868 029a FFF7FEFF 		bl	HAL_RCC_GetSysClockFreq
 3869 029e F860     		str	r0, [r7, #12]
2562:Drivers/STM32L4xx_HAL_Driver/Src/stm32l4xx_hal_smartcard.c **** #if defined(USART_PRESC_PRESCALER)
2563:Drivers/STM32L4xx_HAL_Driver/Src/stm32l4xx_hal_smartcard.c ****       tmpreg = (uint32_t)(((pclk / SMARTCARDPrescTable[hsmartcard->Init.ClockPrescaler]) +
2564:Drivers/STM32L4xx_HAL_Driver/Src/stm32l4xx_hal_smartcard.c ****                            (hsmartcard->Init.BaudRate / 2U)) / hsmartcard->Init.BaudRate);
2565:Drivers/STM32L4xx_HAL_Driver/Src/stm32l4xx_hal_smartcard.c **** #else
2566:Drivers/STM32L4xx_HAL_Driver/Src/stm32l4xx_hal_smartcard.c ****       tmpreg = (uint32_t)((pclk + (hsmartcard->Init.BaudRate / 2U)) / hsmartcard->Init.BaudRate);
 3870              		.loc 1 2566 52
 3871 02a0 7B68     		ldr	r3, [r7, #4]
 3872 02a2 5B68     		ldr	r3, [r3, #4]
 3873              		.loc 1 2566 62
 3874 02a4 5A08     		lsrs	r2, r3, #1
 3875              		.loc 1 2566 33
 3876 02a6 FB68     		ldr	r3, [r7, #12]
 3877 02a8 1A44     		add	r2, r2, r3
 3878              		.loc 1 2566 87
 3879 02aa 7B68     		ldr	r3, [r7, #4]
 3880 02ac 5B68     		ldr	r3, [r3, #4]
 3881              		.loc 1 2566 14
 3882 02ae B2FBF3F3 		udiv	r3, r2, r3
 3883 02b2 7B61     		str	r3, [r7, #20]
2567:Drivers/STM32L4xx_HAL_Driver/Src/stm32l4xx_hal_smartcard.c **** #endif /* USART_PRESC_PRESCALER */
2568:Drivers/STM32L4xx_HAL_Driver/Src/stm32l4xx_hal_smartcard.c ****       break;
 3884              		.loc 1 2568 7
 3885 02b4 17E0     		b	.L192
 3886              	.L186:
2569:Drivers/STM32L4xx_HAL_Driver/Src/stm32l4xx_hal_smartcard.c ****     case SMARTCARD_CLOCKSOURCE_LSE:
2570:Drivers/STM32L4xx_HAL_Driver/Src/stm32l4xx_hal_smartcard.c **** #if defined(USART_PRESC_PRESCALER)
2571:Drivers/STM32L4xx_HAL_Driver/Src/stm32l4xx_hal_smartcard.c ****       tmpreg = (uint32_t)(((uint16_t)(LSE_VALUE / SMARTCARDPrescTable[hsmartcard->Init.ClockPrescal
2572:Drivers/STM32L4xx_HAL_Driver/Src/stm32l4xx_hal_smartcard.c ****                            (hsmartcard->Init.BaudRate / 2U)) / hsmartcard->Init.BaudRate);
2573:Drivers/STM32L4xx_HAL_Driver/Src/stm32l4xx_hal_smartcard.c **** #else
2574:Drivers/STM32L4xx_HAL_Driver/Src/stm32l4xx_hal_smartcard.c ****       tmpreg = (uint32_t)((LSE_VALUE + (hsmartcard->Init.BaudRate / 2U)) / hsmartcard->Init.BaudRat
 3887              		.loc 1 2574 57
 3888 02b6 7B68     		ldr	r3, [r7, #4]
 3889 02b8 5B68     		ldr	r3, [r3, #4]
 3890              		.loc 1 2574 67
 3891 02ba 5B08     		lsrs	r3, r3, #1
 3892              		.loc 1 2574 38
 3893 02bc 03F50042 		add	r2, r3, #32768
 3894              		.loc 1 2574 92
 3895 02c0 7B68     		ldr	r3, [r7, #4]
 3896 02c2 5B68     		ldr	r3, [r3, #4]
 3897              		.loc 1 2574 14
 3898 02c4 B2FBF3F3 		udiv	r3, r2, r3
 3899 02c8 7B61     		str	r3, [r7, #20]
2575:Drivers/STM32L4xx_HAL_Driver/Src/stm32l4xx_hal_smartcard.c **** #endif /* USART_PRESC_PRESCALER */
2576:Drivers/STM32L4xx_HAL_Driver/Src/stm32l4xx_hal_smartcard.c ****       break;
 3900              		.loc 1 2576 7
 3901 02ca 0CE0     		b	.L192
ARM GAS  /tmp/ccDAjxq4.s 			page 114


 3902              	.L197:
 3903              		.align	2
 3904              	.L196:
 3905 02cc F369FFEF 		.word	-268473869
 3906 02d0 00380140 		.word	1073821696
 3907 02d4 00100240 		.word	1073876992
 3908 02d8 00440040 		.word	1073759232
 3909 02dc 00480040 		.word	1073760256
 3910              	.L185:
2577:Drivers/STM32L4xx_HAL_Driver/Src/stm32l4xx_hal_smartcard.c ****     default:
2578:Drivers/STM32L4xx_HAL_Driver/Src/stm32l4xx_hal_smartcard.c ****       ret = HAL_ERROR;
 3911              		.loc 1 2578 11
 3912 02e0 0123     		movs	r3, #1
 3913 02e2 BB74     		strb	r3, [r7, #18]
2579:Drivers/STM32L4xx_HAL_Driver/Src/stm32l4xx_hal_smartcard.c ****       break;
 3914              		.loc 1 2579 7
 3915 02e4 00BF     		nop
 3916              	.L192:
2580:Drivers/STM32L4xx_HAL_Driver/Src/stm32l4xx_hal_smartcard.c ****   }
2581:Drivers/STM32L4xx_HAL_Driver/Src/stm32l4xx_hal_smartcard.c **** 
2582:Drivers/STM32L4xx_HAL_Driver/Src/stm32l4xx_hal_smartcard.c ****   /* USARTDIV must be greater than or equal to 0d16 */
2583:Drivers/STM32L4xx_HAL_Driver/Src/stm32l4xx_hal_smartcard.c ****   if ((tmpreg >= USART_BRR_MIN) && (tmpreg <= USART_BRR_MAX))
 3917              		.loc 1 2583 6
 3918 02e6 7B69     		ldr	r3, [r7, #20]
 3919 02e8 0F2B     		cmp	r3, #15
 3920 02ea 09D9     		bls	.L193
 3921              		.loc 1 2583 33 discriminator 1
 3922 02ec 7B69     		ldr	r3, [r7, #20]
 3923 02ee B3F5803F 		cmp	r3, #65536
 3924 02f2 05D2     		bcs	.L193
2584:Drivers/STM32L4xx_HAL_Driver/Src/stm32l4xx_hal_smartcard.c ****   {
2585:Drivers/STM32L4xx_HAL_Driver/Src/stm32l4xx_hal_smartcard.c ****     hsmartcard->Instance->BRR = (uint16_t)tmpreg;
 3925              		.loc 1 2585 33
 3926 02f4 7B69     		ldr	r3, [r7, #20]
 3927 02f6 9AB2     		uxth	r2, r3
 3928              		.loc 1 2585 15
 3929 02f8 7B68     		ldr	r3, [r7, #4]
 3930 02fa 1B68     		ldr	r3, [r3]
 3931              		.loc 1 2585 31
 3932 02fc DA60     		str	r2, [r3, #12]
 3933 02fe 01E0     		b	.L194
 3934              	.L193:
2586:Drivers/STM32L4xx_HAL_Driver/Src/stm32l4xx_hal_smartcard.c ****   }
2587:Drivers/STM32L4xx_HAL_Driver/Src/stm32l4xx_hal_smartcard.c ****   else
2588:Drivers/STM32L4xx_HAL_Driver/Src/stm32l4xx_hal_smartcard.c ****   {
2589:Drivers/STM32L4xx_HAL_Driver/Src/stm32l4xx_hal_smartcard.c ****     ret = HAL_ERROR;
 3935              		.loc 1 2589 9
 3936 0300 0123     		movs	r3, #1
 3937 0302 BB74     		strb	r3, [r7, #18]
 3938              	.L194:
2590:Drivers/STM32L4xx_HAL_Driver/Src/stm32l4xx_hal_smartcard.c ****   }
2591:Drivers/STM32L4xx_HAL_Driver/Src/stm32l4xx_hal_smartcard.c **** 
2592:Drivers/STM32L4xx_HAL_Driver/Src/stm32l4xx_hal_smartcard.c **** #if defined(USART_CR1_FIFOEN)
2593:Drivers/STM32L4xx_HAL_Driver/Src/stm32l4xx_hal_smartcard.c ****   /* Initialize the number of data to process during RX/TX ISR execution */
2594:Drivers/STM32L4xx_HAL_Driver/Src/stm32l4xx_hal_smartcard.c ****   hsmartcard->NbTxDataToProcess = 1U;
2595:Drivers/STM32L4xx_HAL_Driver/Src/stm32l4xx_hal_smartcard.c ****   hsmartcard->NbRxDataToProcess = 1U;
2596:Drivers/STM32L4xx_HAL_Driver/Src/stm32l4xx_hal_smartcard.c **** #endif /* USART_CR1_FIFOEN */
ARM GAS  /tmp/ccDAjxq4.s 			page 115


2597:Drivers/STM32L4xx_HAL_Driver/Src/stm32l4xx_hal_smartcard.c **** 
2598:Drivers/STM32L4xx_HAL_Driver/Src/stm32l4xx_hal_smartcard.c ****   /* Clear ISR function pointers */
2599:Drivers/STM32L4xx_HAL_Driver/Src/stm32l4xx_hal_smartcard.c ****   hsmartcard->RxISR   = NULL;
 3939              		.loc 1 2599 23
 3940 0304 7B68     		ldr	r3, [r7, #4]
 3941 0306 0022     		movs	r2, #0
 3942 0308 1A66     		str	r2, [r3, #96]
2600:Drivers/STM32L4xx_HAL_Driver/Src/stm32l4xx_hal_smartcard.c ****   hsmartcard->TxISR   = NULL;
 3943              		.loc 1 2600 23
 3944 030a 7B68     		ldr	r3, [r7, #4]
 3945 030c 0022     		movs	r2, #0
 3946 030e 5A66     		str	r2, [r3, #100]
2601:Drivers/STM32L4xx_HAL_Driver/Src/stm32l4xx_hal_smartcard.c **** 
2602:Drivers/STM32L4xx_HAL_Driver/Src/stm32l4xx_hal_smartcard.c ****   return ret;
 3947              		.loc 1 2602 10
 3948 0310 BB7C     		ldrb	r3, [r7, #18]	@ zero_extendqisi2
2603:Drivers/STM32L4xx_HAL_Driver/Src/stm32l4xx_hal_smartcard.c **** }
 3949              		.loc 1 2603 1
 3950 0312 1846     		mov	r0, r3
 3951 0314 1837     		adds	r7, r7, #24
 3952              		.cfi_def_cfa_offset 8
 3953 0316 BD46     		mov	sp, r7
 3954              		.cfi_def_cfa_register 13
 3955              		@ sp needed
 3956 0318 80BD     		pop	{r7, pc}
 3957              		.cfi_endproc
 3958              	.LFE470:
 3960 031a 00BF     		.section	.text.SMARTCARD_AdvFeatureConfig,"ax",%progbits
 3961              		.align	1
 3962              		.syntax unified
 3963              		.thumb
 3964              		.thumb_func
 3966              	SMARTCARD_AdvFeatureConfig:
 3967              	.LFB471:
2604:Drivers/STM32L4xx_HAL_Driver/Src/stm32l4xx_hal_smartcard.c **** 
2605:Drivers/STM32L4xx_HAL_Driver/Src/stm32l4xx_hal_smartcard.c **** 
2606:Drivers/STM32L4xx_HAL_Driver/Src/stm32l4xx_hal_smartcard.c **** /**
2607:Drivers/STM32L4xx_HAL_Driver/Src/stm32l4xx_hal_smartcard.c ****   * @brief Configure the SMARTCARD associated USART peripheral advanced features.
2608:Drivers/STM32L4xx_HAL_Driver/Src/stm32l4xx_hal_smartcard.c ****   * @param hsmartcard Pointer to a SMARTCARD_HandleTypeDef structure that contains
2609:Drivers/STM32L4xx_HAL_Driver/Src/stm32l4xx_hal_smartcard.c ****   *                   the configuration information for the specified SMARTCARD module.
2610:Drivers/STM32L4xx_HAL_Driver/Src/stm32l4xx_hal_smartcard.c ****   * @retval None
2611:Drivers/STM32L4xx_HAL_Driver/Src/stm32l4xx_hal_smartcard.c ****   */
2612:Drivers/STM32L4xx_HAL_Driver/Src/stm32l4xx_hal_smartcard.c **** static void SMARTCARD_AdvFeatureConfig(SMARTCARD_HandleTypeDef *hsmartcard)
2613:Drivers/STM32L4xx_HAL_Driver/Src/stm32l4xx_hal_smartcard.c **** {
 3968              		.loc 1 2613 1
 3969              		.cfi_startproc
 3970              		@ args = 0, pretend = 0, frame = 8
 3971              		@ frame_needed = 1, uses_anonymous_args = 0
 3972              		@ link register save eliminated.
 3973 0000 80B4     		push	{r7}
 3974              		.cfi_def_cfa_offset 4
 3975              		.cfi_offset 7, -4
 3976 0002 83B0     		sub	sp, sp, #12
 3977              		.cfi_def_cfa_offset 16
 3978 0004 00AF     		add	r7, sp, #0
 3979              		.cfi_def_cfa_register 7
 3980 0006 7860     		str	r0, [r7, #4]
ARM GAS  /tmp/ccDAjxq4.s 			page 116


2614:Drivers/STM32L4xx_HAL_Driver/Src/stm32l4xx_hal_smartcard.c ****   /* Check whether the set of advanced features to configure is properly set */
2615:Drivers/STM32L4xx_HAL_Driver/Src/stm32l4xx_hal_smartcard.c ****   assert_param(IS_SMARTCARD_ADVFEATURE_INIT(hsmartcard->AdvancedInit.AdvFeatureInit));
2616:Drivers/STM32L4xx_HAL_Driver/Src/stm32l4xx_hal_smartcard.c **** 
2617:Drivers/STM32L4xx_HAL_Driver/Src/stm32l4xx_hal_smartcard.c ****   /* if required, configure TX pin active level inversion */
2618:Drivers/STM32L4xx_HAL_Driver/Src/stm32l4xx_hal_smartcard.c ****   if (HAL_IS_BIT_SET(hsmartcard->AdvancedInit.AdvFeatureInit, SMARTCARD_ADVFEATURE_TXINVERT_INIT))
 3981              		.loc 1 2618 7
 3982 0008 7B68     		ldr	r3, [r7, #4]
 3983 000a DB6A     		ldr	r3, [r3, #44]
 3984 000c 03F00103 		and	r3, r3, #1
 3985              		.loc 1 2618 6
 3986 0010 002B     		cmp	r3, #0
 3987 0012 0AD0     		beq	.L199
2619:Drivers/STM32L4xx_HAL_Driver/Src/stm32l4xx_hal_smartcard.c ****   {
2620:Drivers/STM32L4xx_HAL_Driver/Src/stm32l4xx_hal_smartcard.c ****     assert_param(IS_SMARTCARD_ADVFEATURE_TXINV(hsmartcard->AdvancedInit.TxPinLevelInvert));
2621:Drivers/STM32L4xx_HAL_Driver/Src/stm32l4xx_hal_smartcard.c ****     MODIFY_REG(hsmartcard->Instance->CR2, USART_CR2_TXINV, hsmartcard->AdvancedInit.TxPinLevelInver
 3988              		.loc 1 2621 5
 3989 0014 7B68     		ldr	r3, [r7, #4]
 3990 0016 1B68     		ldr	r3, [r3]
 3991 0018 5B68     		ldr	r3, [r3, #4]
 3992 001a 23F40031 		bic	r1, r3, #131072
 3993 001e 7B68     		ldr	r3, [r7, #4]
 3994 0020 1A6B     		ldr	r2, [r3, #48]
 3995 0022 7B68     		ldr	r3, [r7, #4]
 3996 0024 1B68     		ldr	r3, [r3]
 3997 0026 0A43     		orrs	r2, r2, r1
 3998 0028 5A60     		str	r2, [r3, #4]
 3999              	.L199:
2622:Drivers/STM32L4xx_HAL_Driver/Src/stm32l4xx_hal_smartcard.c ****   }
2623:Drivers/STM32L4xx_HAL_Driver/Src/stm32l4xx_hal_smartcard.c **** 
2624:Drivers/STM32L4xx_HAL_Driver/Src/stm32l4xx_hal_smartcard.c ****   /* if required, configure RX pin active level inversion */
2625:Drivers/STM32L4xx_HAL_Driver/Src/stm32l4xx_hal_smartcard.c ****   if (HAL_IS_BIT_SET(hsmartcard->AdvancedInit.AdvFeatureInit, SMARTCARD_ADVFEATURE_RXINVERT_INIT))
 4000              		.loc 1 2625 7
 4001 002a 7B68     		ldr	r3, [r7, #4]
 4002 002c DB6A     		ldr	r3, [r3, #44]
 4003 002e 03F00203 		and	r3, r3, #2
 4004              		.loc 1 2625 6
 4005 0032 002B     		cmp	r3, #0
 4006 0034 0AD0     		beq	.L200
2626:Drivers/STM32L4xx_HAL_Driver/Src/stm32l4xx_hal_smartcard.c ****   {
2627:Drivers/STM32L4xx_HAL_Driver/Src/stm32l4xx_hal_smartcard.c ****     assert_param(IS_SMARTCARD_ADVFEATURE_RXINV(hsmartcard->AdvancedInit.RxPinLevelInvert));
2628:Drivers/STM32L4xx_HAL_Driver/Src/stm32l4xx_hal_smartcard.c ****     MODIFY_REG(hsmartcard->Instance->CR2, USART_CR2_RXINV, hsmartcard->AdvancedInit.RxPinLevelInver
 4007              		.loc 1 2628 5
 4008 0036 7B68     		ldr	r3, [r7, #4]
 4009 0038 1B68     		ldr	r3, [r3]
 4010 003a 5B68     		ldr	r3, [r3, #4]
 4011 003c 23F48031 		bic	r1, r3, #65536
 4012 0040 7B68     		ldr	r3, [r7, #4]
 4013 0042 5A6B     		ldr	r2, [r3, #52]
 4014 0044 7B68     		ldr	r3, [r7, #4]
 4015 0046 1B68     		ldr	r3, [r3]
 4016 0048 0A43     		orrs	r2, r2, r1
 4017 004a 5A60     		str	r2, [r3, #4]
 4018              	.L200:
2629:Drivers/STM32L4xx_HAL_Driver/Src/stm32l4xx_hal_smartcard.c ****   }
2630:Drivers/STM32L4xx_HAL_Driver/Src/stm32l4xx_hal_smartcard.c **** 
2631:Drivers/STM32L4xx_HAL_Driver/Src/stm32l4xx_hal_smartcard.c ****   /* if required, configure data inversion */
2632:Drivers/STM32L4xx_HAL_Driver/Src/stm32l4xx_hal_smartcard.c ****   if (HAL_IS_BIT_SET(hsmartcard->AdvancedInit.AdvFeatureInit, SMARTCARD_ADVFEATURE_DATAINVERT_INIT)
ARM GAS  /tmp/ccDAjxq4.s 			page 117


 4019              		.loc 1 2632 7
 4020 004c 7B68     		ldr	r3, [r7, #4]
 4021 004e DB6A     		ldr	r3, [r3, #44]
 4022 0050 03F00403 		and	r3, r3, #4
 4023              		.loc 1 2632 6
 4024 0054 002B     		cmp	r3, #0
 4025 0056 0AD0     		beq	.L201
2633:Drivers/STM32L4xx_HAL_Driver/Src/stm32l4xx_hal_smartcard.c ****   {
2634:Drivers/STM32L4xx_HAL_Driver/Src/stm32l4xx_hal_smartcard.c ****     assert_param(IS_SMARTCARD_ADVFEATURE_DATAINV(hsmartcard->AdvancedInit.DataInvert));
2635:Drivers/STM32L4xx_HAL_Driver/Src/stm32l4xx_hal_smartcard.c ****     MODIFY_REG(hsmartcard->Instance->CR2, USART_CR2_DATAINV, hsmartcard->AdvancedInit.DataInvert);
 4026              		.loc 1 2635 5
 4027 0058 7B68     		ldr	r3, [r7, #4]
 4028 005a 1B68     		ldr	r3, [r3]
 4029 005c 5B68     		ldr	r3, [r3, #4]
 4030 005e 23F48021 		bic	r1, r3, #262144
 4031 0062 7B68     		ldr	r3, [r7, #4]
 4032 0064 9A6B     		ldr	r2, [r3, #56]
 4033 0066 7B68     		ldr	r3, [r7, #4]
 4034 0068 1B68     		ldr	r3, [r3]
 4035 006a 0A43     		orrs	r2, r2, r1
 4036 006c 5A60     		str	r2, [r3, #4]
 4037              	.L201:
2636:Drivers/STM32L4xx_HAL_Driver/Src/stm32l4xx_hal_smartcard.c ****   }
2637:Drivers/STM32L4xx_HAL_Driver/Src/stm32l4xx_hal_smartcard.c **** 
2638:Drivers/STM32L4xx_HAL_Driver/Src/stm32l4xx_hal_smartcard.c ****   /* if required, configure RX/TX pins swap */
2639:Drivers/STM32L4xx_HAL_Driver/Src/stm32l4xx_hal_smartcard.c ****   if (HAL_IS_BIT_SET(hsmartcard->AdvancedInit.AdvFeatureInit, SMARTCARD_ADVFEATURE_SWAP_INIT))
 4038              		.loc 1 2639 7
 4039 006e 7B68     		ldr	r3, [r7, #4]
 4040 0070 DB6A     		ldr	r3, [r3, #44]
 4041 0072 03F00803 		and	r3, r3, #8
 4042              		.loc 1 2639 6
 4043 0076 002B     		cmp	r3, #0
 4044 0078 0AD0     		beq	.L202
2640:Drivers/STM32L4xx_HAL_Driver/Src/stm32l4xx_hal_smartcard.c ****   {
2641:Drivers/STM32L4xx_HAL_Driver/Src/stm32l4xx_hal_smartcard.c ****     assert_param(IS_SMARTCARD_ADVFEATURE_SWAP(hsmartcard->AdvancedInit.Swap));
2642:Drivers/STM32L4xx_HAL_Driver/Src/stm32l4xx_hal_smartcard.c ****     MODIFY_REG(hsmartcard->Instance->CR2, USART_CR2_SWAP, hsmartcard->AdvancedInit.Swap);
 4045              		.loc 1 2642 5
 4046 007a 7B68     		ldr	r3, [r7, #4]
 4047 007c 1B68     		ldr	r3, [r3]
 4048 007e 5B68     		ldr	r3, [r3, #4]
 4049 0080 23F40041 		bic	r1, r3, #32768
 4050 0084 7B68     		ldr	r3, [r7, #4]
 4051 0086 DA6B     		ldr	r2, [r3, #60]
 4052 0088 7B68     		ldr	r3, [r7, #4]
 4053 008a 1B68     		ldr	r3, [r3]
 4054 008c 0A43     		orrs	r2, r2, r1
 4055 008e 5A60     		str	r2, [r3, #4]
 4056              	.L202:
2643:Drivers/STM32L4xx_HAL_Driver/Src/stm32l4xx_hal_smartcard.c ****   }
2644:Drivers/STM32L4xx_HAL_Driver/Src/stm32l4xx_hal_smartcard.c **** 
2645:Drivers/STM32L4xx_HAL_Driver/Src/stm32l4xx_hal_smartcard.c ****   /* if required, configure RX overrun detection disabling */
2646:Drivers/STM32L4xx_HAL_Driver/Src/stm32l4xx_hal_smartcard.c ****   if (HAL_IS_BIT_SET(hsmartcard->AdvancedInit.AdvFeatureInit, SMARTCARD_ADVFEATURE_RXOVERRUNDISABLE
 4057              		.loc 1 2646 7
 4058 0090 7B68     		ldr	r3, [r7, #4]
 4059 0092 DB6A     		ldr	r3, [r3, #44]
 4060 0094 03F01003 		and	r3, r3, #16
 4061              		.loc 1 2646 6
ARM GAS  /tmp/ccDAjxq4.s 			page 118


 4062 0098 002B     		cmp	r3, #0
 4063 009a 0AD0     		beq	.L203
2647:Drivers/STM32L4xx_HAL_Driver/Src/stm32l4xx_hal_smartcard.c ****   {
2648:Drivers/STM32L4xx_HAL_Driver/Src/stm32l4xx_hal_smartcard.c ****     assert_param(IS_SMARTCARD_OVERRUN(hsmartcard->AdvancedInit.OverrunDisable));
2649:Drivers/STM32L4xx_HAL_Driver/Src/stm32l4xx_hal_smartcard.c ****     MODIFY_REG(hsmartcard->Instance->CR3, USART_CR3_OVRDIS, hsmartcard->AdvancedInit.OverrunDisable
 4064              		.loc 1 2649 5
 4065 009c 7B68     		ldr	r3, [r7, #4]
 4066 009e 1B68     		ldr	r3, [r3]
 4067 00a0 9B68     		ldr	r3, [r3, #8]
 4068 00a2 23F48051 		bic	r1, r3, #4096
 4069 00a6 7B68     		ldr	r3, [r7, #4]
 4070 00a8 1A6C     		ldr	r2, [r3, #64]
 4071 00aa 7B68     		ldr	r3, [r7, #4]
 4072 00ac 1B68     		ldr	r3, [r3]
 4073 00ae 0A43     		orrs	r2, r2, r1
 4074 00b0 9A60     		str	r2, [r3, #8]
 4075              	.L203:
2650:Drivers/STM32L4xx_HAL_Driver/Src/stm32l4xx_hal_smartcard.c ****   }
2651:Drivers/STM32L4xx_HAL_Driver/Src/stm32l4xx_hal_smartcard.c **** 
2652:Drivers/STM32L4xx_HAL_Driver/Src/stm32l4xx_hal_smartcard.c ****   /* if required, configure DMA disabling on reception error */
2653:Drivers/STM32L4xx_HAL_Driver/Src/stm32l4xx_hal_smartcard.c ****   if (HAL_IS_BIT_SET(hsmartcard->AdvancedInit.AdvFeatureInit, SMARTCARD_ADVFEATURE_DMADISABLEONERRO
 4076              		.loc 1 2653 7
 4077 00b2 7B68     		ldr	r3, [r7, #4]
 4078 00b4 DB6A     		ldr	r3, [r3, #44]
 4079 00b6 03F02003 		and	r3, r3, #32
 4080              		.loc 1 2653 6
 4081 00ba 002B     		cmp	r3, #0
 4082 00bc 0AD0     		beq	.L204
2654:Drivers/STM32L4xx_HAL_Driver/Src/stm32l4xx_hal_smartcard.c ****   {
2655:Drivers/STM32L4xx_HAL_Driver/Src/stm32l4xx_hal_smartcard.c ****     assert_param(IS_SMARTCARD_ADVFEATURE_DMAONRXERROR(hsmartcard->AdvancedInit.DMADisableonRxError)
2656:Drivers/STM32L4xx_HAL_Driver/Src/stm32l4xx_hal_smartcard.c ****     MODIFY_REG(hsmartcard->Instance->CR3, USART_CR3_DDRE, hsmartcard->AdvancedInit.DMADisableonRxEr
 4083              		.loc 1 2656 5
 4084 00be 7B68     		ldr	r3, [r7, #4]
 4085 00c0 1B68     		ldr	r3, [r3]
 4086 00c2 9B68     		ldr	r3, [r3, #8]
 4087 00c4 23F40051 		bic	r1, r3, #8192
 4088 00c8 7B68     		ldr	r3, [r7, #4]
 4089 00ca 5A6C     		ldr	r2, [r3, #68]
 4090 00cc 7B68     		ldr	r3, [r7, #4]
 4091 00ce 1B68     		ldr	r3, [r3]
 4092 00d0 0A43     		orrs	r2, r2, r1
 4093 00d2 9A60     		str	r2, [r3, #8]
 4094              	.L204:
2657:Drivers/STM32L4xx_HAL_Driver/Src/stm32l4xx_hal_smartcard.c ****   }
2658:Drivers/STM32L4xx_HAL_Driver/Src/stm32l4xx_hal_smartcard.c **** 
2659:Drivers/STM32L4xx_HAL_Driver/Src/stm32l4xx_hal_smartcard.c ****   /* if required, configure MSB first on communication line */
2660:Drivers/STM32L4xx_HAL_Driver/Src/stm32l4xx_hal_smartcard.c ****   if (HAL_IS_BIT_SET(hsmartcard->AdvancedInit.AdvFeatureInit, SMARTCARD_ADVFEATURE_MSBFIRST_INIT))
 4095              		.loc 1 2660 7
 4096 00d4 7B68     		ldr	r3, [r7, #4]
 4097 00d6 DB6A     		ldr	r3, [r3, #44]
 4098 00d8 03F08003 		and	r3, r3, #128
 4099              		.loc 1 2660 6
 4100 00dc 002B     		cmp	r3, #0
 4101 00de 0AD0     		beq	.L206
2661:Drivers/STM32L4xx_HAL_Driver/Src/stm32l4xx_hal_smartcard.c ****   {
2662:Drivers/STM32L4xx_HAL_Driver/Src/stm32l4xx_hal_smartcard.c ****     assert_param(IS_SMARTCARD_ADVFEATURE_MSBFIRST(hsmartcard->AdvancedInit.MSBFirst));
2663:Drivers/STM32L4xx_HAL_Driver/Src/stm32l4xx_hal_smartcard.c ****     MODIFY_REG(hsmartcard->Instance->CR2, USART_CR2_MSBFIRST, hsmartcard->AdvancedInit.MSBFirst);
ARM GAS  /tmp/ccDAjxq4.s 			page 119


 4102              		.loc 1 2663 5
 4103 00e0 7B68     		ldr	r3, [r7, #4]
 4104 00e2 1B68     		ldr	r3, [r3]
 4105 00e4 5B68     		ldr	r3, [r3, #4]
 4106 00e6 23F40021 		bic	r1, r3, #524288
 4107 00ea 7B68     		ldr	r3, [r7, #4]
 4108 00ec 9A6C     		ldr	r2, [r3, #72]
 4109 00ee 7B68     		ldr	r3, [r7, #4]
 4110 00f0 1B68     		ldr	r3, [r3]
 4111 00f2 0A43     		orrs	r2, r2, r1
 4112 00f4 5A60     		str	r2, [r3, #4]
 4113              	.L206:
2664:Drivers/STM32L4xx_HAL_Driver/Src/stm32l4xx_hal_smartcard.c ****   }
2665:Drivers/STM32L4xx_HAL_Driver/Src/stm32l4xx_hal_smartcard.c **** 
2666:Drivers/STM32L4xx_HAL_Driver/Src/stm32l4xx_hal_smartcard.c **** }
 4114              		.loc 1 2666 1
 4115 00f6 00BF     		nop
 4116 00f8 0C37     		adds	r7, r7, #12
 4117              		.cfi_def_cfa_offset 4
 4118 00fa BD46     		mov	sp, r7
 4119              		.cfi_def_cfa_register 13
 4120              		@ sp needed
 4121 00fc 5DF8047B 		ldr	r7, [sp], #4
 4122              		.cfi_restore 7
 4123              		.cfi_def_cfa_offset 0
 4124 0100 7047     		bx	lr
 4125              		.cfi_endproc
 4126              	.LFE471:
 4128              		.section	.text.SMARTCARD_CheckIdleState,"ax",%progbits
 4129              		.align	1
 4130              		.syntax unified
 4131              		.thumb
 4132              		.thumb_func
 4134              	SMARTCARD_CheckIdleState:
 4135              	.LFB472:
2667:Drivers/STM32L4xx_HAL_Driver/Src/stm32l4xx_hal_smartcard.c **** 
2668:Drivers/STM32L4xx_HAL_Driver/Src/stm32l4xx_hal_smartcard.c **** /**
2669:Drivers/STM32L4xx_HAL_Driver/Src/stm32l4xx_hal_smartcard.c ****   * @brief Check the SMARTCARD Idle State.
2670:Drivers/STM32L4xx_HAL_Driver/Src/stm32l4xx_hal_smartcard.c ****   * @param hsmartcard Pointer to a SMARTCARD_HandleTypeDef structure that contains
2671:Drivers/STM32L4xx_HAL_Driver/Src/stm32l4xx_hal_smartcard.c ****   *                   the configuration information for the specified SMARTCARD module.
2672:Drivers/STM32L4xx_HAL_Driver/Src/stm32l4xx_hal_smartcard.c ****   * @retval HAL status
2673:Drivers/STM32L4xx_HAL_Driver/Src/stm32l4xx_hal_smartcard.c ****   */
2674:Drivers/STM32L4xx_HAL_Driver/Src/stm32l4xx_hal_smartcard.c **** static HAL_StatusTypeDef SMARTCARD_CheckIdleState(SMARTCARD_HandleTypeDef *hsmartcard)
2675:Drivers/STM32L4xx_HAL_Driver/Src/stm32l4xx_hal_smartcard.c **** {
 4136              		.loc 1 2675 1
 4137              		.cfi_startproc
 4138              		@ args = 0, pretend = 0, frame = 16
 4139              		@ frame_needed = 1, uses_anonymous_args = 0
 4140 0000 80B5     		push	{r7, lr}
 4141              		.cfi_def_cfa_offset 8
 4142              		.cfi_offset 7, -8
 4143              		.cfi_offset 14, -4
 4144 0002 86B0     		sub	sp, sp, #24
 4145              		.cfi_def_cfa_offset 32
 4146 0004 02AF     		add	r7, sp, #8
 4147              		.cfi_def_cfa 7, 24
 4148 0006 7860     		str	r0, [r7, #4]
ARM GAS  /tmp/ccDAjxq4.s 			page 120


2676:Drivers/STM32L4xx_HAL_Driver/Src/stm32l4xx_hal_smartcard.c ****   uint32_t tickstart;
2677:Drivers/STM32L4xx_HAL_Driver/Src/stm32l4xx_hal_smartcard.c **** 
2678:Drivers/STM32L4xx_HAL_Driver/Src/stm32l4xx_hal_smartcard.c ****   /* Initialize the SMARTCARD ErrorCode */
2679:Drivers/STM32L4xx_HAL_Driver/Src/stm32l4xx_hal_smartcard.c ****   hsmartcard->ErrorCode = HAL_SMARTCARD_ERROR_NONE;
 4149              		.loc 1 2679 25
 4150 0008 7B68     		ldr	r3, [r7, #4]
 4151 000a 0022     		movs	r2, #0
 4152 000c DA67     		str	r2, [r3, #124]
2680:Drivers/STM32L4xx_HAL_Driver/Src/stm32l4xx_hal_smartcard.c **** 
2681:Drivers/STM32L4xx_HAL_Driver/Src/stm32l4xx_hal_smartcard.c ****   /* Init tickstart for timeout management */
2682:Drivers/STM32L4xx_HAL_Driver/Src/stm32l4xx_hal_smartcard.c ****   tickstart = HAL_GetTick();
 4153              		.loc 1 2682 15
 4154 000e FFF7FEFF 		bl	HAL_GetTick
 4155 0012 F860     		str	r0, [r7, #12]
2683:Drivers/STM32L4xx_HAL_Driver/Src/stm32l4xx_hal_smartcard.c **** 
2684:Drivers/STM32L4xx_HAL_Driver/Src/stm32l4xx_hal_smartcard.c ****   /* Check if the Transmitter is enabled */
2685:Drivers/STM32L4xx_HAL_Driver/Src/stm32l4xx_hal_smartcard.c ****   if ((hsmartcard->Instance->CR1 & USART_CR1_TE) == USART_CR1_TE)
 4156              		.loc 1 2685 18
 4157 0014 7B68     		ldr	r3, [r7, #4]
 4158 0016 1B68     		ldr	r3, [r3]
 4159              		.loc 1 2685 28
 4160 0018 1B68     		ldr	r3, [r3]
 4161              		.loc 1 2685 34
 4162 001a 03F00803 		and	r3, r3, #8
 4163              		.loc 1 2685 6
 4164 001e 082B     		cmp	r3, #8
 4165 0020 0ED1     		bne	.L208
2686:Drivers/STM32L4xx_HAL_Driver/Src/stm32l4xx_hal_smartcard.c ****   {
2687:Drivers/STM32L4xx_HAL_Driver/Src/stm32l4xx_hal_smartcard.c ****     /* Wait until TEACK flag is set */
2688:Drivers/STM32L4xx_HAL_Driver/Src/stm32l4xx_hal_smartcard.c ****     if (SMARTCARD_WaitOnFlagUntilTimeout(hsmartcard, USART_ISR_TEACK, RESET, tickstart,
 4166              		.loc 1 2688 9
 4167 0022 4FF47A73 		mov	r3, #1000
 4168 0026 0093     		str	r3, [sp]
 4169 0028 FB68     		ldr	r3, [r7, #12]
 4170 002a 0022     		movs	r2, #0
 4171 002c 4FF40011 		mov	r1, #2097152
 4172 0030 7868     		ldr	r0, [r7, #4]
 4173 0032 FFF7FEFF 		bl	SMARTCARD_WaitOnFlagUntilTimeout
 4174 0036 0346     		mov	r3, r0
 4175              		.loc 1 2688 8 discriminator 1
 4176 0038 002B     		cmp	r3, #0
 4177 003a 01D0     		beq	.L208
2689:Drivers/STM32L4xx_HAL_Driver/Src/stm32l4xx_hal_smartcard.c ****                                          SMARTCARD_TEACK_REACK_TIMEOUT) != HAL_OK)
2690:Drivers/STM32L4xx_HAL_Driver/Src/stm32l4xx_hal_smartcard.c ****     {
2691:Drivers/STM32L4xx_HAL_Driver/Src/stm32l4xx_hal_smartcard.c ****       /* Timeout occurred */
2692:Drivers/STM32L4xx_HAL_Driver/Src/stm32l4xx_hal_smartcard.c ****       return HAL_TIMEOUT;
 4178              		.loc 1 2692 14
 4179 003c 0323     		movs	r3, #3
 4180 003e 20E0     		b	.L209
 4181              	.L208:
2693:Drivers/STM32L4xx_HAL_Driver/Src/stm32l4xx_hal_smartcard.c ****     }
2694:Drivers/STM32L4xx_HAL_Driver/Src/stm32l4xx_hal_smartcard.c ****   }
2695:Drivers/STM32L4xx_HAL_Driver/Src/stm32l4xx_hal_smartcard.c ****   /* Check if the Receiver is enabled */
2696:Drivers/STM32L4xx_HAL_Driver/Src/stm32l4xx_hal_smartcard.c ****   if ((hsmartcard->Instance->CR1 & USART_CR1_RE) == USART_CR1_RE)
 4182              		.loc 1 2696 18
 4183 0040 7B68     		ldr	r3, [r7, #4]
 4184 0042 1B68     		ldr	r3, [r3]
ARM GAS  /tmp/ccDAjxq4.s 			page 121


 4185              		.loc 1 2696 28
 4186 0044 1B68     		ldr	r3, [r3]
 4187              		.loc 1 2696 34
 4188 0046 03F00403 		and	r3, r3, #4
 4189              		.loc 1 2696 6
 4190 004a 042B     		cmp	r3, #4
 4191 004c 0ED1     		bne	.L210
2697:Drivers/STM32L4xx_HAL_Driver/Src/stm32l4xx_hal_smartcard.c ****   {
2698:Drivers/STM32L4xx_HAL_Driver/Src/stm32l4xx_hal_smartcard.c ****     /* Wait until REACK flag is set */
2699:Drivers/STM32L4xx_HAL_Driver/Src/stm32l4xx_hal_smartcard.c ****     if (SMARTCARD_WaitOnFlagUntilTimeout(hsmartcard, USART_ISR_REACK, RESET, tickstart,
 4192              		.loc 1 2699 9
 4193 004e 4FF47A73 		mov	r3, #1000
 4194 0052 0093     		str	r3, [sp]
 4195 0054 FB68     		ldr	r3, [r7, #12]
 4196 0056 0022     		movs	r2, #0
 4197 0058 4FF48001 		mov	r1, #4194304
 4198 005c 7868     		ldr	r0, [r7, #4]
 4199 005e FFF7FEFF 		bl	SMARTCARD_WaitOnFlagUntilTimeout
 4200 0062 0346     		mov	r3, r0
 4201              		.loc 1 2699 8 discriminator 1
 4202 0064 002B     		cmp	r3, #0
 4203 0066 01D0     		beq	.L210
2700:Drivers/STM32L4xx_HAL_Driver/Src/stm32l4xx_hal_smartcard.c ****                                          SMARTCARD_TEACK_REACK_TIMEOUT) != HAL_OK)
2701:Drivers/STM32L4xx_HAL_Driver/Src/stm32l4xx_hal_smartcard.c ****     {
2702:Drivers/STM32L4xx_HAL_Driver/Src/stm32l4xx_hal_smartcard.c ****       /* Timeout occurred */
2703:Drivers/STM32L4xx_HAL_Driver/Src/stm32l4xx_hal_smartcard.c ****       return HAL_TIMEOUT;
 4204              		.loc 1 2703 14
 4205 0068 0323     		movs	r3, #3
 4206 006a 0AE0     		b	.L209
 4207              	.L210:
2704:Drivers/STM32L4xx_HAL_Driver/Src/stm32l4xx_hal_smartcard.c ****     }
2705:Drivers/STM32L4xx_HAL_Driver/Src/stm32l4xx_hal_smartcard.c ****   }
2706:Drivers/STM32L4xx_HAL_Driver/Src/stm32l4xx_hal_smartcard.c **** 
2707:Drivers/STM32L4xx_HAL_Driver/Src/stm32l4xx_hal_smartcard.c ****   /* Initialize the SMARTCARD states */
2708:Drivers/STM32L4xx_HAL_Driver/Src/stm32l4xx_hal_smartcard.c ****   hsmartcard->gState  = HAL_SMARTCARD_STATE_READY;
 4208              		.loc 1 2708 23
 4209 006c 7B68     		ldr	r3, [r7, #4]
 4210 006e 2022     		movs	r2, #32
 4211 0070 5A67     		str	r2, [r3, #116]
2709:Drivers/STM32L4xx_HAL_Driver/Src/stm32l4xx_hal_smartcard.c ****   hsmartcard->RxState = HAL_SMARTCARD_STATE_READY;
 4212              		.loc 1 2709 23
 4213 0072 7B68     		ldr	r3, [r7, #4]
 4214 0074 2022     		movs	r2, #32
 4215 0076 9A67     		str	r2, [r3, #120]
2710:Drivers/STM32L4xx_HAL_Driver/Src/stm32l4xx_hal_smartcard.c **** 
2711:Drivers/STM32L4xx_HAL_Driver/Src/stm32l4xx_hal_smartcard.c ****   /* Process Unlocked */
2712:Drivers/STM32L4xx_HAL_Driver/Src/stm32l4xx_hal_smartcard.c ****   __HAL_UNLOCK(hsmartcard);
 4216              		.loc 1 2712 3
 4217 0078 7B68     		ldr	r3, [r7, #4]
 4218 007a 0022     		movs	r2, #0
 4219 007c 83F87020 		strb	r2, [r3, #112]
2713:Drivers/STM32L4xx_HAL_Driver/Src/stm32l4xx_hal_smartcard.c **** 
2714:Drivers/STM32L4xx_HAL_Driver/Src/stm32l4xx_hal_smartcard.c ****   return HAL_OK;
 4220              		.loc 1 2714 10
 4221 0080 0023     		movs	r3, #0
 4222              	.L209:
2715:Drivers/STM32L4xx_HAL_Driver/Src/stm32l4xx_hal_smartcard.c **** }
ARM GAS  /tmp/ccDAjxq4.s 			page 122


 4223              		.loc 1 2715 1
 4224 0082 1846     		mov	r0, r3
 4225 0084 1037     		adds	r7, r7, #16
 4226              		.cfi_def_cfa_offset 8
 4227 0086 BD46     		mov	sp, r7
 4228              		.cfi_def_cfa_register 13
 4229              		@ sp needed
 4230 0088 80BD     		pop	{r7, pc}
 4231              		.cfi_endproc
 4232              	.LFE472:
 4234              		.section	.text.SMARTCARD_WaitOnFlagUntilTimeout,"ax",%progbits
 4235              		.align	1
 4236              		.syntax unified
 4237              		.thumb
 4238              		.thumb_func
 4240              	SMARTCARD_WaitOnFlagUntilTimeout:
 4241              	.LFB473:
2716:Drivers/STM32L4xx_HAL_Driver/Src/stm32l4xx_hal_smartcard.c **** 
2717:Drivers/STM32L4xx_HAL_Driver/Src/stm32l4xx_hal_smartcard.c **** /**
2718:Drivers/STM32L4xx_HAL_Driver/Src/stm32l4xx_hal_smartcard.c ****   * @brief  Handle SMARTCARD Communication Timeout. It waits
2719:Drivers/STM32L4xx_HAL_Driver/Src/stm32l4xx_hal_smartcard.c ****   *         until a flag is no longer in the specified status.
2720:Drivers/STM32L4xx_HAL_Driver/Src/stm32l4xx_hal_smartcard.c ****   * @param  hsmartcard Pointer to a SMARTCARD_HandleTypeDef structure that contains
2721:Drivers/STM32L4xx_HAL_Driver/Src/stm32l4xx_hal_smartcard.c ****   *                   the configuration information for the specified SMARTCARD module.
2722:Drivers/STM32L4xx_HAL_Driver/Src/stm32l4xx_hal_smartcard.c ****   * @param  Flag Specifies the SMARTCARD flag to check.
2723:Drivers/STM32L4xx_HAL_Driver/Src/stm32l4xx_hal_smartcard.c ****   * @param  Status The actual Flag status (SET or RESET).
2724:Drivers/STM32L4xx_HAL_Driver/Src/stm32l4xx_hal_smartcard.c ****   * @param  Tickstart Tick start value
2725:Drivers/STM32L4xx_HAL_Driver/Src/stm32l4xx_hal_smartcard.c ****   * @param  Timeout Timeout duration.
2726:Drivers/STM32L4xx_HAL_Driver/Src/stm32l4xx_hal_smartcard.c ****   * @retval HAL status
2727:Drivers/STM32L4xx_HAL_Driver/Src/stm32l4xx_hal_smartcard.c ****   */
2728:Drivers/STM32L4xx_HAL_Driver/Src/stm32l4xx_hal_smartcard.c **** static HAL_StatusTypeDef SMARTCARD_WaitOnFlagUntilTimeout(SMARTCARD_HandleTypeDef *hsmartcard, uint
2729:Drivers/STM32L4xx_HAL_Driver/Src/stm32l4xx_hal_smartcard.c ****                                                           FlagStatus Status, uint32_t Tickstart, ui
2730:Drivers/STM32L4xx_HAL_Driver/Src/stm32l4xx_hal_smartcard.c **** {
 4242              		.loc 1 2730 1
 4243              		.cfi_startproc
 4244              		@ args = 4, pretend = 0, frame = 16
 4245              		@ frame_needed = 1, uses_anonymous_args = 0
 4246 0000 80B5     		push	{r7, lr}
 4247              		.cfi_def_cfa_offset 8
 4248              		.cfi_offset 7, -8
 4249              		.cfi_offset 14, -4
 4250 0002 84B0     		sub	sp, sp, #16
 4251              		.cfi_def_cfa_offset 24
 4252 0004 00AF     		add	r7, sp, #0
 4253              		.cfi_def_cfa_register 7
 4254 0006 F860     		str	r0, [r7, #12]
 4255 0008 B960     		str	r1, [r7, #8]
 4256 000a 3B60     		str	r3, [r7]
 4257 000c 1346     		mov	r3, r2
 4258 000e FB71     		strb	r3, [r7, #7]
2731:Drivers/STM32L4xx_HAL_Driver/Src/stm32l4xx_hal_smartcard.c ****   /* Wait until flag is set */
2732:Drivers/STM32L4xx_HAL_Driver/Src/stm32l4xx_hal_smartcard.c ****   while ((__HAL_SMARTCARD_GET_FLAG(hsmartcard, Flag) ? SET : RESET) == Status)
 4259              		.loc 1 2732 9
 4260 0010 2AE0     		b	.L213
 4261              	.L216:
2733:Drivers/STM32L4xx_HAL_Driver/Src/stm32l4xx_hal_smartcard.c ****   {
2734:Drivers/STM32L4xx_HAL_Driver/Src/stm32l4xx_hal_smartcard.c ****     /* Check for the Timeout */
2735:Drivers/STM32L4xx_HAL_Driver/Src/stm32l4xx_hal_smartcard.c ****     if (Timeout != HAL_MAX_DELAY)
ARM GAS  /tmp/ccDAjxq4.s 			page 123


 4262              		.loc 1 2735 8
 4263 0012 BB69     		ldr	r3, [r7, #24]
 4264 0014 B3F1FF3F 		cmp	r3, #-1
 4265 0018 26D0     		beq	.L213
2736:Drivers/STM32L4xx_HAL_Driver/Src/stm32l4xx_hal_smartcard.c ****     {
2737:Drivers/STM32L4xx_HAL_Driver/Src/stm32l4xx_hal_smartcard.c ****       if (((HAL_GetTick() - Tickstart) > Timeout) || (Timeout == 0U))
 4266              		.loc 1 2737 13
 4267 001a FFF7FEFF 		bl	HAL_GetTick
 4268 001e 0246     		mov	r2, r0
 4269              		.loc 1 2737 27 discriminator 1
 4270 0020 3B68     		ldr	r3, [r7]
 4271 0022 D31A     		subs	r3, r2, r3
 4272              		.loc 1 2737 10 discriminator 1
 4273 0024 BA69     		ldr	r2, [r7, #24]
 4274 0026 9A42     		cmp	r2, r3
 4275 0028 02D3     		bcc	.L214
 4276              		.loc 1 2737 51 discriminator 1
 4277 002a BB69     		ldr	r3, [r7, #24]
 4278 002c 002B     		cmp	r3, #0
 4279 002e 1BD1     		bne	.L213
 4280              	.L214:
2738:Drivers/STM32L4xx_HAL_Driver/Src/stm32l4xx_hal_smartcard.c ****       {
2739:Drivers/STM32L4xx_HAL_Driver/Src/stm32l4xx_hal_smartcard.c ****         /* Disable TXE, RXNE, PE and ERR (Frame error, noise error, overrun error)
2740:Drivers/STM32L4xx_HAL_Driver/Src/stm32l4xx_hal_smartcard.c ****            interrupts for the interrupt process */
2741:Drivers/STM32L4xx_HAL_Driver/Src/stm32l4xx_hal_smartcard.c **** #if defined(USART_CR1_FIFOEN)
2742:Drivers/STM32L4xx_HAL_Driver/Src/stm32l4xx_hal_smartcard.c ****         CLEAR_BIT(hsmartcard->Instance->CR1, (USART_CR1_RXNEIE_RXFNEIE | USART_CR1_PEIE | USART_CR1
2743:Drivers/STM32L4xx_HAL_Driver/Src/stm32l4xx_hal_smartcard.c **** #else
2744:Drivers/STM32L4xx_HAL_Driver/Src/stm32l4xx_hal_smartcard.c ****         CLEAR_BIT(hsmartcard->Instance->CR1, (USART_CR1_RXNEIE | USART_CR1_PEIE | USART_CR1_TXEIE))
 4281              		.loc 1 2744 9
 4282 0030 FB68     		ldr	r3, [r7, #12]
 4283 0032 1B68     		ldr	r3, [r3]
 4284 0034 1A68     		ldr	r2, [r3]
 4285 0036 FB68     		ldr	r3, [r7, #12]
 4286 0038 1B68     		ldr	r3, [r3]
 4287 003a 22F4D072 		bic	r2, r2, #416
 4288 003e 1A60     		str	r2, [r3]
2745:Drivers/STM32L4xx_HAL_Driver/Src/stm32l4xx_hal_smartcard.c **** #endif /* USART_CR1_FIFOEN */
2746:Drivers/STM32L4xx_HAL_Driver/Src/stm32l4xx_hal_smartcard.c ****         CLEAR_BIT(hsmartcard->Instance->CR3, USART_CR3_EIE);
 4289              		.loc 1 2746 9
 4290 0040 FB68     		ldr	r3, [r7, #12]
 4291 0042 1B68     		ldr	r3, [r3]
 4292 0044 9A68     		ldr	r2, [r3, #8]
 4293 0046 FB68     		ldr	r3, [r7, #12]
 4294 0048 1B68     		ldr	r3, [r3]
 4295 004a 22F00102 		bic	r2, r2, #1
 4296 004e 9A60     		str	r2, [r3, #8]
2747:Drivers/STM32L4xx_HAL_Driver/Src/stm32l4xx_hal_smartcard.c **** 
2748:Drivers/STM32L4xx_HAL_Driver/Src/stm32l4xx_hal_smartcard.c ****         hsmartcard->gState  = HAL_SMARTCARD_STATE_READY;
 4297              		.loc 1 2748 29
 4298 0050 FB68     		ldr	r3, [r7, #12]
 4299 0052 2022     		movs	r2, #32
 4300 0054 5A67     		str	r2, [r3, #116]
2749:Drivers/STM32L4xx_HAL_Driver/Src/stm32l4xx_hal_smartcard.c ****         hsmartcard->RxState = HAL_SMARTCARD_STATE_READY;
 4301              		.loc 1 2749 29
 4302 0056 FB68     		ldr	r3, [r7, #12]
 4303 0058 2022     		movs	r2, #32
 4304 005a 9A67     		str	r2, [r3, #120]
ARM GAS  /tmp/ccDAjxq4.s 			page 124


2750:Drivers/STM32L4xx_HAL_Driver/Src/stm32l4xx_hal_smartcard.c **** 
2751:Drivers/STM32L4xx_HAL_Driver/Src/stm32l4xx_hal_smartcard.c ****         /* Process Unlocked */
2752:Drivers/STM32L4xx_HAL_Driver/Src/stm32l4xx_hal_smartcard.c ****         __HAL_UNLOCK(hsmartcard);
 4305              		.loc 1 2752 9
 4306 005c FB68     		ldr	r3, [r7, #12]
 4307 005e 0022     		movs	r2, #0
 4308 0060 83F87020 		strb	r2, [r3, #112]
2753:Drivers/STM32L4xx_HAL_Driver/Src/stm32l4xx_hal_smartcard.c ****         return HAL_TIMEOUT;
 4309              		.loc 1 2753 16
 4310 0064 0323     		movs	r3, #3
 4311 0066 0FE0     		b	.L215
 4312              	.L213:
2732:Drivers/STM32L4xx_HAL_Driver/Src/stm32l4xx_hal_smartcard.c ****   {
 4313              		.loc 1 2732 11
 4314 0068 FB68     		ldr	r3, [r7, #12]
 4315 006a 1B68     		ldr	r3, [r3]
 4316 006c DA69     		ldr	r2, [r3, #28]
 4317 006e BB68     		ldr	r3, [r7, #8]
 4318 0070 1340     		ands	r3, r3, r2
2732:Drivers/STM32L4xx_HAL_Driver/Src/stm32l4xx_hal_smartcard.c ****   {
 4319              		.loc 1 2732 60
 4320 0072 BA68     		ldr	r2, [r7, #8]
 4321 0074 9A42     		cmp	r2, r3
 4322 0076 0CBF     		ite	eq
 4323 0078 0123     		moveq	r3, #1
 4324 007a 0023     		movne	r3, #0
 4325 007c DBB2     		uxtb	r3, r3
 4326 007e 1A46     		mov	r2, r3
2732:Drivers/STM32L4xx_HAL_Driver/Src/stm32l4xx_hal_smartcard.c ****   {
 4327              		.loc 1 2732 69
 4328 0080 FB79     		ldrb	r3, [r7, #7]	@ zero_extendqisi2
 4329 0082 9A42     		cmp	r2, r3
 4330 0084 C5D0     		beq	.L216
2754:Drivers/STM32L4xx_HAL_Driver/Src/stm32l4xx_hal_smartcard.c ****       }
2755:Drivers/STM32L4xx_HAL_Driver/Src/stm32l4xx_hal_smartcard.c ****     }
2756:Drivers/STM32L4xx_HAL_Driver/Src/stm32l4xx_hal_smartcard.c ****   }
2757:Drivers/STM32L4xx_HAL_Driver/Src/stm32l4xx_hal_smartcard.c ****   return HAL_OK;
 4331              		.loc 1 2757 10
 4332 0086 0023     		movs	r3, #0
 4333              	.L215:
2758:Drivers/STM32L4xx_HAL_Driver/Src/stm32l4xx_hal_smartcard.c **** }
 4334              		.loc 1 2758 1
 4335 0088 1846     		mov	r0, r3
 4336 008a 1037     		adds	r7, r7, #16
 4337              		.cfi_def_cfa_offset 8
 4338 008c BD46     		mov	sp, r7
 4339              		.cfi_def_cfa_register 13
 4340              		@ sp needed
 4341 008e 80BD     		pop	{r7, pc}
 4342              		.cfi_endproc
 4343              	.LFE473:
 4345              		.section	.text.SMARTCARD_EndTxTransfer,"ax",%progbits
 4346              		.align	1
 4347              		.syntax unified
 4348              		.thumb
 4349              		.thumb_func
 4351              	SMARTCARD_EndTxTransfer:
ARM GAS  /tmp/ccDAjxq4.s 			page 125


 4352              	.LFB474:
2759:Drivers/STM32L4xx_HAL_Driver/Src/stm32l4xx_hal_smartcard.c **** 
2760:Drivers/STM32L4xx_HAL_Driver/Src/stm32l4xx_hal_smartcard.c **** 
2761:Drivers/STM32L4xx_HAL_Driver/Src/stm32l4xx_hal_smartcard.c **** /**
2762:Drivers/STM32L4xx_HAL_Driver/Src/stm32l4xx_hal_smartcard.c ****   * @brief  End ongoing Tx transfer on SMARTCARD peripheral (following error detection or Transmit 
2763:Drivers/STM32L4xx_HAL_Driver/Src/stm32l4xx_hal_smartcard.c ****   * @param  hsmartcard Pointer to a SMARTCARD_HandleTypeDef structure that contains
2764:Drivers/STM32L4xx_HAL_Driver/Src/stm32l4xx_hal_smartcard.c ****   *                    the configuration information for the specified SMARTCARD module.
2765:Drivers/STM32L4xx_HAL_Driver/Src/stm32l4xx_hal_smartcard.c ****   * @retval None
2766:Drivers/STM32L4xx_HAL_Driver/Src/stm32l4xx_hal_smartcard.c ****   */
2767:Drivers/STM32L4xx_HAL_Driver/Src/stm32l4xx_hal_smartcard.c **** static void SMARTCARD_EndTxTransfer(SMARTCARD_HandleTypeDef *hsmartcard)
2768:Drivers/STM32L4xx_HAL_Driver/Src/stm32l4xx_hal_smartcard.c **** {
 4353              		.loc 1 2768 1
 4354              		.cfi_startproc
 4355              		@ args = 0, pretend = 0, frame = 8
 4356              		@ frame_needed = 1, uses_anonymous_args = 0
 4357              		@ link register save eliminated.
 4358 0000 80B4     		push	{r7}
 4359              		.cfi_def_cfa_offset 4
 4360              		.cfi_offset 7, -4
 4361 0002 83B0     		sub	sp, sp, #12
 4362              		.cfi_def_cfa_offset 16
 4363 0004 00AF     		add	r7, sp, #0
 4364              		.cfi_def_cfa_register 7
 4365 0006 7860     		str	r0, [r7, #4]
2769:Drivers/STM32L4xx_HAL_Driver/Src/stm32l4xx_hal_smartcard.c ****   /* Disable TXEIE, TCIE and ERR (Frame error, noise error, overrun error) interrupts */
2770:Drivers/STM32L4xx_HAL_Driver/Src/stm32l4xx_hal_smartcard.c **** #if defined(USART_CR1_FIFOEN)
2771:Drivers/STM32L4xx_HAL_Driver/Src/stm32l4xx_hal_smartcard.c ****   CLEAR_BIT(hsmartcard->Instance->CR1, (USART_CR1_TXEIE_TXFNFIE | USART_CR1_TCIE));
2772:Drivers/STM32L4xx_HAL_Driver/Src/stm32l4xx_hal_smartcard.c **** #else
2773:Drivers/STM32L4xx_HAL_Driver/Src/stm32l4xx_hal_smartcard.c ****   CLEAR_BIT(hsmartcard->Instance->CR1, (USART_CR1_TXEIE | USART_CR1_TCIE));
 4366              		.loc 1 2773 3
 4367 0008 7B68     		ldr	r3, [r7, #4]
 4368 000a 1B68     		ldr	r3, [r3]
 4369 000c 1A68     		ldr	r2, [r3]
 4370 000e 7B68     		ldr	r3, [r7, #4]
 4371 0010 1B68     		ldr	r3, [r3]
 4372 0012 22F0C002 		bic	r2, r2, #192
 4373 0016 1A60     		str	r2, [r3]
2774:Drivers/STM32L4xx_HAL_Driver/Src/stm32l4xx_hal_smartcard.c **** #endif /* USART_CR1_FIFOEN */
2775:Drivers/STM32L4xx_HAL_Driver/Src/stm32l4xx_hal_smartcard.c ****   CLEAR_BIT(hsmartcard->Instance->CR3, USART_CR3_EIE);
 4374              		.loc 1 2775 3
 4375 0018 7B68     		ldr	r3, [r7, #4]
 4376 001a 1B68     		ldr	r3, [r3]
 4377 001c 9A68     		ldr	r2, [r3, #8]
 4378 001e 7B68     		ldr	r3, [r7, #4]
 4379 0020 1B68     		ldr	r3, [r3]
 4380 0022 22F00102 		bic	r2, r2, #1
 4381 0026 9A60     		str	r2, [r3, #8]
2776:Drivers/STM32L4xx_HAL_Driver/Src/stm32l4xx_hal_smartcard.c **** 
2777:Drivers/STM32L4xx_HAL_Driver/Src/stm32l4xx_hal_smartcard.c ****   /* At end of Tx process, restore hsmartcard->gState to Ready */
2778:Drivers/STM32L4xx_HAL_Driver/Src/stm32l4xx_hal_smartcard.c ****   hsmartcard->gState = HAL_SMARTCARD_STATE_READY;
 4382              		.loc 1 2778 22
 4383 0028 7B68     		ldr	r3, [r7, #4]
 4384 002a 2022     		movs	r2, #32
 4385 002c 5A67     		str	r2, [r3, #116]
2779:Drivers/STM32L4xx_HAL_Driver/Src/stm32l4xx_hal_smartcard.c **** }
 4386              		.loc 1 2779 1
 4387 002e 00BF     		nop
ARM GAS  /tmp/ccDAjxq4.s 			page 126


 4388 0030 0C37     		adds	r7, r7, #12
 4389              		.cfi_def_cfa_offset 4
 4390 0032 BD46     		mov	sp, r7
 4391              		.cfi_def_cfa_register 13
 4392              		@ sp needed
 4393 0034 5DF8047B 		ldr	r7, [sp], #4
 4394              		.cfi_restore 7
 4395              		.cfi_def_cfa_offset 0
 4396 0038 7047     		bx	lr
 4397              		.cfi_endproc
 4398              	.LFE474:
 4400              		.section	.text.SMARTCARD_EndRxTransfer,"ax",%progbits
 4401              		.align	1
 4402              		.syntax unified
 4403              		.thumb
 4404              		.thumb_func
 4406              	SMARTCARD_EndRxTransfer:
 4407              	.LFB475:
2780:Drivers/STM32L4xx_HAL_Driver/Src/stm32l4xx_hal_smartcard.c **** 
2781:Drivers/STM32L4xx_HAL_Driver/Src/stm32l4xx_hal_smartcard.c **** 
2782:Drivers/STM32L4xx_HAL_Driver/Src/stm32l4xx_hal_smartcard.c **** /**
2783:Drivers/STM32L4xx_HAL_Driver/Src/stm32l4xx_hal_smartcard.c ****   * @brief  End ongoing Rx transfer on UART peripheral (following error detection or Reception comp
2784:Drivers/STM32L4xx_HAL_Driver/Src/stm32l4xx_hal_smartcard.c ****   * @param  hsmartcard Pointer to a SMARTCARD_HandleTypeDef structure that contains
2785:Drivers/STM32L4xx_HAL_Driver/Src/stm32l4xx_hal_smartcard.c ****   *                    the configuration information for the specified SMARTCARD module.
2786:Drivers/STM32L4xx_HAL_Driver/Src/stm32l4xx_hal_smartcard.c ****   * @retval None
2787:Drivers/STM32L4xx_HAL_Driver/Src/stm32l4xx_hal_smartcard.c ****   */
2788:Drivers/STM32L4xx_HAL_Driver/Src/stm32l4xx_hal_smartcard.c **** static void SMARTCARD_EndRxTransfer(SMARTCARD_HandleTypeDef *hsmartcard)
2789:Drivers/STM32L4xx_HAL_Driver/Src/stm32l4xx_hal_smartcard.c **** {
 4408              		.loc 1 2789 1
 4409              		.cfi_startproc
 4410              		@ args = 0, pretend = 0, frame = 8
 4411              		@ frame_needed = 1, uses_anonymous_args = 0
 4412              		@ link register save eliminated.
 4413 0000 80B4     		push	{r7}
 4414              		.cfi_def_cfa_offset 4
 4415              		.cfi_offset 7, -4
 4416 0002 83B0     		sub	sp, sp, #12
 4417              		.cfi_def_cfa_offset 16
 4418 0004 00AF     		add	r7, sp, #0
 4419              		.cfi_def_cfa_register 7
 4420 0006 7860     		str	r0, [r7, #4]
2790:Drivers/STM32L4xx_HAL_Driver/Src/stm32l4xx_hal_smartcard.c ****   /* Disable RXNE, PE and ERR (Frame error, noise error, overrun error) interrupts */
2791:Drivers/STM32L4xx_HAL_Driver/Src/stm32l4xx_hal_smartcard.c **** #if defined(USART_CR1_FIFOEN)
2792:Drivers/STM32L4xx_HAL_Driver/Src/stm32l4xx_hal_smartcard.c ****   CLEAR_BIT(hsmartcard->Instance->CR1, (USART_CR1_RXNEIE_RXFNEIE | USART_CR1_PEIE));
2793:Drivers/STM32L4xx_HAL_Driver/Src/stm32l4xx_hal_smartcard.c **** #else
2794:Drivers/STM32L4xx_HAL_Driver/Src/stm32l4xx_hal_smartcard.c ****   CLEAR_BIT(hsmartcard->Instance->CR1, (USART_CR1_RXNEIE | USART_CR1_PEIE));
 4421              		.loc 1 2794 3
 4422 0008 7B68     		ldr	r3, [r7, #4]
 4423 000a 1B68     		ldr	r3, [r3]
 4424 000c 1A68     		ldr	r2, [r3]
 4425 000e 7B68     		ldr	r3, [r7, #4]
 4426 0010 1B68     		ldr	r3, [r3]
 4427 0012 22F49072 		bic	r2, r2, #288
 4428 0016 1A60     		str	r2, [r3]
2795:Drivers/STM32L4xx_HAL_Driver/Src/stm32l4xx_hal_smartcard.c **** #endif /* USART_CR1_FIFOEN */
2796:Drivers/STM32L4xx_HAL_Driver/Src/stm32l4xx_hal_smartcard.c ****   CLEAR_BIT(hsmartcard->Instance->CR3, USART_CR3_EIE);
 4429              		.loc 1 2796 3
ARM GAS  /tmp/ccDAjxq4.s 			page 127


 4430 0018 7B68     		ldr	r3, [r7, #4]
 4431 001a 1B68     		ldr	r3, [r3]
 4432 001c 9A68     		ldr	r2, [r3, #8]
 4433 001e 7B68     		ldr	r3, [r7, #4]
 4434 0020 1B68     		ldr	r3, [r3]
 4435 0022 22F00102 		bic	r2, r2, #1
 4436 0026 9A60     		str	r2, [r3, #8]
2797:Drivers/STM32L4xx_HAL_Driver/Src/stm32l4xx_hal_smartcard.c **** 
2798:Drivers/STM32L4xx_HAL_Driver/Src/stm32l4xx_hal_smartcard.c ****   /* At end of Rx process, restore hsmartcard->RxState to Ready */
2799:Drivers/STM32L4xx_HAL_Driver/Src/stm32l4xx_hal_smartcard.c ****   hsmartcard->RxState = HAL_SMARTCARD_STATE_READY;
 4437              		.loc 1 2799 23
 4438 0028 7B68     		ldr	r3, [r7, #4]
 4439 002a 2022     		movs	r2, #32
 4440 002c 9A67     		str	r2, [r3, #120]
2800:Drivers/STM32L4xx_HAL_Driver/Src/stm32l4xx_hal_smartcard.c **** }
 4441              		.loc 1 2800 1
 4442 002e 00BF     		nop
 4443 0030 0C37     		adds	r7, r7, #12
 4444              		.cfi_def_cfa_offset 4
 4445 0032 BD46     		mov	sp, r7
 4446              		.cfi_def_cfa_register 13
 4447              		@ sp needed
 4448 0034 5DF8047B 		ldr	r7, [sp], #4
 4449              		.cfi_restore 7
 4450              		.cfi_def_cfa_offset 0
 4451 0038 7047     		bx	lr
 4452              		.cfi_endproc
 4453              	.LFE475:
 4455              		.section	.text.SMARTCARD_DMATransmitCplt,"ax",%progbits
 4456              		.align	1
 4457              		.syntax unified
 4458              		.thumb
 4459              		.thumb_func
 4461              	SMARTCARD_DMATransmitCplt:
 4462              	.LFB476:
2801:Drivers/STM32L4xx_HAL_Driver/Src/stm32l4xx_hal_smartcard.c **** 
2802:Drivers/STM32L4xx_HAL_Driver/Src/stm32l4xx_hal_smartcard.c **** 
2803:Drivers/STM32L4xx_HAL_Driver/Src/stm32l4xx_hal_smartcard.c **** /**
2804:Drivers/STM32L4xx_HAL_Driver/Src/stm32l4xx_hal_smartcard.c ****   * @brief  DMA SMARTCARD transmit process complete callback.
2805:Drivers/STM32L4xx_HAL_Driver/Src/stm32l4xx_hal_smartcard.c ****   * @param  hdma Pointer to a DMA_HandleTypeDef structure that contains
2806:Drivers/STM32L4xx_HAL_Driver/Src/stm32l4xx_hal_smartcard.c ****   *              the configuration information for the specified DMA module.
2807:Drivers/STM32L4xx_HAL_Driver/Src/stm32l4xx_hal_smartcard.c ****   * @retval None
2808:Drivers/STM32L4xx_HAL_Driver/Src/stm32l4xx_hal_smartcard.c ****   */
2809:Drivers/STM32L4xx_HAL_Driver/Src/stm32l4xx_hal_smartcard.c **** static void SMARTCARD_DMATransmitCplt(DMA_HandleTypeDef *hdma)
2810:Drivers/STM32L4xx_HAL_Driver/Src/stm32l4xx_hal_smartcard.c **** {
 4463              		.loc 1 2810 1
 4464              		.cfi_startproc
 4465              		@ args = 0, pretend = 0, frame = 16
 4466              		@ frame_needed = 1, uses_anonymous_args = 0
 4467              		@ link register save eliminated.
 4468 0000 80B4     		push	{r7}
 4469              		.cfi_def_cfa_offset 4
 4470              		.cfi_offset 7, -4
 4471 0002 85B0     		sub	sp, sp, #20
 4472              		.cfi_def_cfa_offset 24
 4473 0004 00AF     		add	r7, sp, #0
 4474              		.cfi_def_cfa_register 7
ARM GAS  /tmp/ccDAjxq4.s 			page 128


 4475 0006 7860     		str	r0, [r7, #4]
2811:Drivers/STM32L4xx_HAL_Driver/Src/stm32l4xx_hal_smartcard.c ****   SMARTCARD_HandleTypeDef *hsmartcard = (SMARTCARD_HandleTypeDef *)(hdma->Parent);
 4476              		.loc 1 2811 28
 4477 0008 7B68     		ldr	r3, [r7, #4]
 4478 000a 9B6A     		ldr	r3, [r3, #40]
 4479 000c FB60     		str	r3, [r7, #12]
2812:Drivers/STM32L4xx_HAL_Driver/Src/stm32l4xx_hal_smartcard.c ****   hsmartcard->TxXferCount = 0U;
 4480              		.loc 1 2812 27
 4481 000e FB68     		ldr	r3, [r7, #12]
 4482 0010 0022     		movs	r2, #0
 4483 0012 A3F85620 		strh	r2, [r3, #86]	@ movhi
2813:Drivers/STM32L4xx_HAL_Driver/Src/stm32l4xx_hal_smartcard.c **** 
2814:Drivers/STM32L4xx_HAL_Driver/Src/stm32l4xx_hal_smartcard.c ****   /* Disable the DMA transfer for transmit request by resetting the DMAT bit
2815:Drivers/STM32L4xx_HAL_Driver/Src/stm32l4xx_hal_smartcard.c ****   in the SMARTCARD associated USART CR3 register */
2816:Drivers/STM32L4xx_HAL_Driver/Src/stm32l4xx_hal_smartcard.c ****   CLEAR_BIT(hsmartcard->Instance->CR3, USART_CR3_DMAT);
 4484              		.loc 1 2816 3
 4485 0016 FB68     		ldr	r3, [r7, #12]
 4486 0018 1B68     		ldr	r3, [r3]
 4487 001a 9A68     		ldr	r2, [r3, #8]
 4488 001c FB68     		ldr	r3, [r7, #12]
 4489 001e 1B68     		ldr	r3, [r3]
 4490 0020 22F08002 		bic	r2, r2, #128
 4491 0024 9A60     		str	r2, [r3, #8]
2817:Drivers/STM32L4xx_HAL_Driver/Src/stm32l4xx_hal_smartcard.c **** 
2818:Drivers/STM32L4xx_HAL_Driver/Src/stm32l4xx_hal_smartcard.c ****   /* Enable the SMARTCARD Transmit Complete Interrupt */
2819:Drivers/STM32L4xx_HAL_Driver/Src/stm32l4xx_hal_smartcard.c ****   __HAL_SMARTCARD_ENABLE_IT(hsmartcard, hsmartcard->AdvancedInit.TxCompletionIndication);
 4492              		.loc 1 2819 3
 4493 0026 FB68     		ldr	r3, [r7, #12]
 4494 0028 B3F84C30 		ldrh	r3, [r3, #76]
 4495 002c 03F0E003 		and	r3, r3, #224
 4496 0030 202B     		cmp	r3, #32
 4497 0032 0ED1     		bne	.L220
 4498              		.loc 1 2819 3 is_stmt 0 discriminator 1
 4499 0034 FB68     		ldr	r3, [r7, #12]
 4500 0036 1B68     		ldr	r3, [r3]
 4501 0038 1968     		ldr	r1, [r3]
 4502 003a FB68     		ldr	r3, [r7, #12]
 4503 003c B3F84C30 		ldrh	r3, [r3, #76]
 4504 0040 03F01F03 		and	r3, r3, #31
 4505 0044 0122     		movs	r2, #1
 4506 0046 9A40     		lsls	r2, r2, r3
 4507 0048 FB68     		ldr	r3, [r7, #12]
 4508 004a 1B68     		ldr	r3, [r3]
 4509 004c 0A43     		orrs	r2, r2, r1
 4510 004e 1A60     		str	r2, [r3]
2820:Drivers/STM32L4xx_HAL_Driver/Src/stm32l4xx_hal_smartcard.c **** }
 4511              		.loc 1 2820 1 is_stmt 1
 4512 0050 25E0     		b	.L224
 4513              	.L220:
2819:Drivers/STM32L4xx_HAL_Driver/Src/stm32l4xx_hal_smartcard.c **** }
 4514              		.loc 1 2819 3 discriminator 2
 4515 0052 FB68     		ldr	r3, [r7, #12]
 4516 0054 B3F84C30 		ldrh	r3, [r3, #76]
 4517 0058 03F0E003 		and	r3, r3, #224
 4518 005c 402B     		cmp	r3, #64
 4519 005e 0FD1     		bne	.L222
2819:Drivers/STM32L4xx_HAL_Driver/Src/stm32l4xx_hal_smartcard.c **** }
ARM GAS  /tmp/ccDAjxq4.s 			page 129


 4520              		.loc 1 2819 3 is_stmt 0 discriminator 3
 4521 0060 FB68     		ldr	r3, [r7, #12]
 4522 0062 1B68     		ldr	r3, [r3]
 4523 0064 5968     		ldr	r1, [r3, #4]
 4524 0066 FB68     		ldr	r3, [r7, #12]
 4525 0068 B3F84C30 		ldrh	r3, [r3, #76]
 4526 006c 03F01F03 		and	r3, r3, #31
 4527 0070 0122     		movs	r2, #1
 4528 0072 02FA03F3 		lsl	r3, r2, r3
 4529 0076 FA68     		ldr	r2, [r7, #12]
 4530 0078 1268     		ldr	r2, [r2]
 4531 007a 0B43     		orrs	r3, r3, r1
 4532 007c 5360     		str	r3, [r2, #4]
 4533              		.loc 1 2820 1 is_stmt 1
 4534 007e 0EE0     		b	.L224
 4535              	.L222:
2819:Drivers/STM32L4xx_HAL_Driver/Src/stm32l4xx_hal_smartcard.c **** }
 4536              		.loc 1 2819 3 discriminator 4
 4537 0080 FB68     		ldr	r3, [r7, #12]
 4538 0082 1B68     		ldr	r3, [r3]
 4539 0084 9968     		ldr	r1, [r3, #8]
 4540 0086 FB68     		ldr	r3, [r7, #12]
 4541 0088 B3F84C30 		ldrh	r3, [r3, #76]
 4542 008c 03F01F03 		and	r3, r3, #31
 4543 0090 0122     		movs	r2, #1
 4544 0092 02FA03F3 		lsl	r3, r2, r3
 4545 0096 FA68     		ldr	r2, [r7, #12]
 4546 0098 1268     		ldr	r2, [r2]
 4547 009a 0B43     		orrs	r3, r3, r1
 4548 009c 9360     		str	r3, [r2, #8]
 4549              	.L224:
 4550              		.loc 1 2820 1
 4551 009e 00BF     		nop
 4552 00a0 1437     		adds	r7, r7, #20
 4553              		.cfi_def_cfa_offset 4
 4554 00a2 BD46     		mov	sp, r7
 4555              		.cfi_def_cfa_register 13
 4556              		@ sp needed
 4557 00a4 5DF8047B 		ldr	r7, [sp], #4
 4558              		.cfi_restore 7
 4559              		.cfi_def_cfa_offset 0
 4560 00a8 7047     		bx	lr
 4561              		.cfi_endproc
 4562              	.LFE476:
 4564              		.section	.text.SMARTCARD_DMAReceiveCplt,"ax",%progbits
 4565              		.align	1
 4566              		.syntax unified
 4567              		.thumb
 4568              		.thumb_func
 4570              	SMARTCARD_DMAReceiveCplt:
 4571              	.LFB477:
2821:Drivers/STM32L4xx_HAL_Driver/Src/stm32l4xx_hal_smartcard.c **** 
2822:Drivers/STM32L4xx_HAL_Driver/Src/stm32l4xx_hal_smartcard.c **** /**
2823:Drivers/STM32L4xx_HAL_Driver/Src/stm32l4xx_hal_smartcard.c ****   * @brief  DMA SMARTCARD receive process complete callback.
2824:Drivers/STM32L4xx_HAL_Driver/Src/stm32l4xx_hal_smartcard.c ****   * @param  hdma Pointer to a DMA_HandleTypeDef structure that contains
2825:Drivers/STM32L4xx_HAL_Driver/Src/stm32l4xx_hal_smartcard.c ****   *              the configuration information for the specified DMA module.
2826:Drivers/STM32L4xx_HAL_Driver/Src/stm32l4xx_hal_smartcard.c ****   * @retval None
ARM GAS  /tmp/ccDAjxq4.s 			page 130


2827:Drivers/STM32L4xx_HAL_Driver/Src/stm32l4xx_hal_smartcard.c ****   */
2828:Drivers/STM32L4xx_HAL_Driver/Src/stm32l4xx_hal_smartcard.c **** static void SMARTCARD_DMAReceiveCplt(DMA_HandleTypeDef *hdma)
2829:Drivers/STM32L4xx_HAL_Driver/Src/stm32l4xx_hal_smartcard.c **** {
 4572              		.loc 1 2829 1
 4573              		.cfi_startproc
 4574              		@ args = 0, pretend = 0, frame = 16
 4575              		@ frame_needed = 1, uses_anonymous_args = 0
 4576 0000 80B5     		push	{r7, lr}
 4577              		.cfi_def_cfa_offset 8
 4578              		.cfi_offset 7, -8
 4579              		.cfi_offset 14, -4
 4580 0002 84B0     		sub	sp, sp, #16
 4581              		.cfi_def_cfa_offset 24
 4582 0004 00AF     		add	r7, sp, #0
 4583              		.cfi_def_cfa_register 7
 4584 0006 7860     		str	r0, [r7, #4]
2830:Drivers/STM32L4xx_HAL_Driver/Src/stm32l4xx_hal_smartcard.c ****   SMARTCARD_HandleTypeDef *hsmartcard = (SMARTCARD_HandleTypeDef *)(hdma->Parent);
 4585              		.loc 1 2830 28
 4586 0008 7B68     		ldr	r3, [r7, #4]
 4587 000a 9B6A     		ldr	r3, [r3, #40]
 4588 000c FB60     		str	r3, [r7, #12]
2831:Drivers/STM32L4xx_HAL_Driver/Src/stm32l4xx_hal_smartcard.c ****   hsmartcard->RxXferCount = 0U;
 4589              		.loc 1 2831 27
 4590 000e FB68     		ldr	r3, [r7, #12]
 4591 0010 0022     		movs	r2, #0
 4592 0012 A3F85E20 		strh	r2, [r3, #94]	@ movhi
2832:Drivers/STM32L4xx_HAL_Driver/Src/stm32l4xx_hal_smartcard.c **** 
2833:Drivers/STM32L4xx_HAL_Driver/Src/stm32l4xx_hal_smartcard.c ****   /* Disable PE and ERR (Frame error, noise error, overrun error) interrupts */
2834:Drivers/STM32L4xx_HAL_Driver/Src/stm32l4xx_hal_smartcard.c ****   CLEAR_BIT(hsmartcard->Instance->CR1, USART_CR1_PEIE);
 4593              		.loc 1 2834 3
 4594 0016 FB68     		ldr	r3, [r7, #12]
 4595 0018 1B68     		ldr	r3, [r3]
 4596 001a 1A68     		ldr	r2, [r3]
 4597 001c FB68     		ldr	r3, [r7, #12]
 4598 001e 1B68     		ldr	r3, [r3]
 4599 0020 22F48072 		bic	r2, r2, #256
 4600 0024 1A60     		str	r2, [r3]
2835:Drivers/STM32L4xx_HAL_Driver/Src/stm32l4xx_hal_smartcard.c ****   CLEAR_BIT(hsmartcard->Instance->CR3, USART_CR3_EIE);
 4601              		.loc 1 2835 3
 4602 0026 FB68     		ldr	r3, [r7, #12]
 4603 0028 1B68     		ldr	r3, [r3]
 4604 002a 9A68     		ldr	r2, [r3, #8]
 4605 002c FB68     		ldr	r3, [r7, #12]
 4606 002e 1B68     		ldr	r3, [r3]
 4607 0030 22F00102 		bic	r2, r2, #1
 4608 0034 9A60     		str	r2, [r3, #8]
2836:Drivers/STM32L4xx_HAL_Driver/Src/stm32l4xx_hal_smartcard.c **** 
2837:Drivers/STM32L4xx_HAL_Driver/Src/stm32l4xx_hal_smartcard.c ****   /* Disable the DMA transfer for the receiver request by resetting the DMAR bit
2838:Drivers/STM32L4xx_HAL_Driver/Src/stm32l4xx_hal_smartcard.c ****      in the SMARTCARD associated USART CR3 register */
2839:Drivers/STM32L4xx_HAL_Driver/Src/stm32l4xx_hal_smartcard.c ****   CLEAR_BIT(hsmartcard->Instance->CR3, USART_CR3_DMAR);
 4609              		.loc 1 2839 3
 4610 0036 FB68     		ldr	r3, [r7, #12]
 4611 0038 1B68     		ldr	r3, [r3]
 4612 003a 9A68     		ldr	r2, [r3, #8]
 4613 003c FB68     		ldr	r3, [r7, #12]
 4614 003e 1B68     		ldr	r3, [r3]
 4615 0040 22F04002 		bic	r2, r2, #64
ARM GAS  /tmp/ccDAjxq4.s 			page 131


 4616 0044 9A60     		str	r2, [r3, #8]
2840:Drivers/STM32L4xx_HAL_Driver/Src/stm32l4xx_hal_smartcard.c **** 
2841:Drivers/STM32L4xx_HAL_Driver/Src/stm32l4xx_hal_smartcard.c ****   /* At end of Rx process, restore hsmartcard->RxState to Ready */
2842:Drivers/STM32L4xx_HAL_Driver/Src/stm32l4xx_hal_smartcard.c ****   hsmartcard->RxState = HAL_SMARTCARD_STATE_READY;
 4617              		.loc 1 2842 23
 4618 0046 FB68     		ldr	r3, [r7, #12]
 4619 0048 2022     		movs	r2, #32
 4620 004a 9A67     		str	r2, [r3, #120]
2843:Drivers/STM32L4xx_HAL_Driver/Src/stm32l4xx_hal_smartcard.c **** 
2844:Drivers/STM32L4xx_HAL_Driver/Src/stm32l4xx_hal_smartcard.c **** #if (USE_HAL_SMARTCARD_REGISTER_CALLBACKS == 1)
2845:Drivers/STM32L4xx_HAL_Driver/Src/stm32l4xx_hal_smartcard.c ****   /* Call registered Rx complete callback */
2846:Drivers/STM32L4xx_HAL_Driver/Src/stm32l4xx_hal_smartcard.c ****   hsmartcard->RxCpltCallback(hsmartcard);
2847:Drivers/STM32L4xx_HAL_Driver/Src/stm32l4xx_hal_smartcard.c **** #else
2848:Drivers/STM32L4xx_HAL_Driver/Src/stm32l4xx_hal_smartcard.c ****   /* Call legacy weak Rx complete callback */
2849:Drivers/STM32L4xx_HAL_Driver/Src/stm32l4xx_hal_smartcard.c ****   HAL_SMARTCARD_RxCpltCallback(hsmartcard);
 4621              		.loc 1 2849 3
 4622 004c F868     		ldr	r0, [r7, #12]
 4623 004e FFF7FEFF 		bl	HAL_SMARTCARD_RxCpltCallback
2850:Drivers/STM32L4xx_HAL_Driver/Src/stm32l4xx_hal_smartcard.c **** #endif /* USE_HAL_SMARTCARD_REGISTER_CALLBACK */
2851:Drivers/STM32L4xx_HAL_Driver/Src/stm32l4xx_hal_smartcard.c **** }
 4624              		.loc 1 2851 1
 4625 0052 00BF     		nop
 4626 0054 1037     		adds	r7, r7, #16
 4627              		.cfi_def_cfa_offset 8
 4628 0056 BD46     		mov	sp, r7
 4629              		.cfi_def_cfa_register 13
 4630              		@ sp needed
 4631 0058 80BD     		pop	{r7, pc}
 4632              		.cfi_endproc
 4633              	.LFE477:
 4635              		.section	.text.SMARTCARD_DMAError,"ax",%progbits
 4636              		.align	1
 4637              		.syntax unified
 4638              		.thumb
 4639              		.thumb_func
 4641              	SMARTCARD_DMAError:
 4642              	.LFB478:
2852:Drivers/STM32L4xx_HAL_Driver/Src/stm32l4xx_hal_smartcard.c **** 
2853:Drivers/STM32L4xx_HAL_Driver/Src/stm32l4xx_hal_smartcard.c **** /**
2854:Drivers/STM32L4xx_HAL_Driver/Src/stm32l4xx_hal_smartcard.c ****   * @brief  DMA SMARTCARD communication error callback.
2855:Drivers/STM32L4xx_HAL_Driver/Src/stm32l4xx_hal_smartcard.c ****   * @param  hdma Pointer to a DMA_HandleTypeDef structure that contains
2856:Drivers/STM32L4xx_HAL_Driver/Src/stm32l4xx_hal_smartcard.c ****   *              the configuration information for the specified DMA module.
2857:Drivers/STM32L4xx_HAL_Driver/Src/stm32l4xx_hal_smartcard.c ****   * @retval None
2858:Drivers/STM32L4xx_HAL_Driver/Src/stm32l4xx_hal_smartcard.c ****   */
2859:Drivers/STM32L4xx_HAL_Driver/Src/stm32l4xx_hal_smartcard.c **** static void SMARTCARD_DMAError(DMA_HandleTypeDef *hdma)
2860:Drivers/STM32L4xx_HAL_Driver/Src/stm32l4xx_hal_smartcard.c **** {
 4643              		.loc 1 2860 1
 4644              		.cfi_startproc
 4645              		@ args = 0, pretend = 0, frame = 16
 4646              		@ frame_needed = 1, uses_anonymous_args = 0
 4647 0000 80B5     		push	{r7, lr}
 4648              		.cfi_def_cfa_offset 8
 4649              		.cfi_offset 7, -8
 4650              		.cfi_offset 14, -4
 4651 0002 84B0     		sub	sp, sp, #16
 4652              		.cfi_def_cfa_offset 24
 4653 0004 00AF     		add	r7, sp, #0
ARM GAS  /tmp/ccDAjxq4.s 			page 132


 4654              		.cfi_def_cfa_register 7
 4655 0006 7860     		str	r0, [r7, #4]
2861:Drivers/STM32L4xx_HAL_Driver/Src/stm32l4xx_hal_smartcard.c ****   SMARTCARD_HandleTypeDef *hsmartcard = (SMARTCARD_HandleTypeDef *)(hdma->Parent);
 4656              		.loc 1 2861 28
 4657 0008 7B68     		ldr	r3, [r7, #4]
 4658 000a 9B6A     		ldr	r3, [r3, #40]
 4659 000c FB60     		str	r3, [r7, #12]
2862:Drivers/STM32L4xx_HAL_Driver/Src/stm32l4xx_hal_smartcard.c **** 
2863:Drivers/STM32L4xx_HAL_Driver/Src/stm32l4xx_hal_smartcard.c ****   /* Stop SMARTCARD DMA Tx request if ongoing */
2864:Drivers/STM32L4xx_HAL_Driver/Src/stm32l4xx_hal_smartcard.c ****   if (hsmartcard->gState == HAL_SMARTCARD_STATE_BUSY_TX)
 4660              		.loc 1 2864 17
 4661 000e FB68     		ldr	r3, [r7, #12]
 4662 0010 5B6F     		ldr	r3, [r3, #116]
 4663              		.loc 1 2864 6
 4664 0012 212B     		cmp	r3, #33
 4665 0014 0DD1     		bne	.L227
2865:Drivers/STM32L4xx_HAL_Driver/Src/stm32l4xx_hal_smartcard.c ****   {
2866:Drivers/STM32L4xx_HAL_Driver/Src/stm32l4xx_hal_smartcard.c ****     if (HAL_IS_BIT_SET(hsmartcard->Instance->CR3, USART_CR3_DMAT))
 4666              		.loc 1 2866 9
 4667 0016 FB68     		ldr	r3, [r7, #12]
 4668 0018 1B68     		ldr	r3, [r3]
 4669 001a 9B68     		ldr	r3, [r3, #8]
 4670 001c 03F08003 		and	r3, r3, #128
 4671              		.loc 1 2866 8
 4672 0020 802B     		cmp	r3, #128
 4673 0022 06D1     		bne	.L227
2867:Drivers/STM32L4xx_HAL_Driver/Src/stm32l4xx_hal_smartcard.c ****     {
2868:Drivers/STM32L4xx_HAL_Driver/Src/stm32l4xx_hal_smartcard.c ****       hsmartcard->TxXferCount = 0U;
 4674              		.loc 1 2868 31
 4675 0024 FB68     		ldr	r3, [r7, #12]
 4676 0026 0022     		movs	r2, #0
 4677 0028 A3F85620 		strh	r2, [r3, #86]	@ movhi
2869:Drivers/STM32L4xx_HAL_Driver/Src/stm32l4xx_hal_smartcard.c ****       SMARTCARD_EndTxTransfer(hsmartcard);
 4678              		.loc 1 2869 7
 4679 002c F868     		ldr	r0, [r7, #12]
 4680 002e FFF7FEFF 		bl	SMARTCARD_EndTxTransfer
 4681              	.L227:
2870:Drivers/STM32L4xx_HAL_Driver/Src/stm32l4xx_hal_smartcard.c ****     }
2871:Drivers/STM32L4xx_HAL_Driver/Src/stm32l4xx_hal_smartcard.c ****   }
2872:Drivers/STM32L4xx_HAL_Driver/Src/stm32l4xx_hal_smartcard.c **** 
2873:Drivers/STM32L4xx_HAL_Driver/Src/stm32l4xx_hal_smartcard.c ****   /* Stop SMARTCARD DMA Rx request if ongoing */
2874:Drivers/STM32L4xx_HAL_Driver/Src/stm32l4xx_hal_smartcard.c ****   if (hsmartcard->RxState == HAL_SMARTCARD_STATE_BUSY_RX)
 4682              		.loc 1 2874 17
 4683 0032 FB68     		ldr	r3, [r7, #12]
 4684 0034 9B6F     		ldr	r3, [r3, #120]
 4685              		.loc 1 2874 6
 4686 0036 222B     		cmp	r3, #34
 4687 0038 0DD1     		bne	.L228
2875:Drivers/STM32L4xx_HAL_Driver/Src/stm32l4xx_hal_smartcard.c ****   {
2876:Drivers/STM32L4xx_HAL_Driver/Src/stm32l4xx_hal_smartcard.c ****     if (HAL_IS_BIT_SET(hsmartcard->Instance->CR3, USART_CR3_DMAR))
 4688              		.loc 1 2876 9
 4689 003a FB68     		ldr	r3, [r7, #12]
 4690 003c 1B68     		ldr	r3, [r3]
 4691 003e 9B68     		ldr	r3, [r3, #8]
 4692 0040 03F04003 		and	r3, r3, #64
 4693              		.loc 1 2876 8
 4694 0044 402B     		cmp	r3, #64
ARM GAS  /tmp/ccDAjxq4.s 			page 133


 4695 0046 06D1     		bne	.L228
2877:Drivers/STM32L4xx_HAL_Driver/Src/stm32l4xx_hal_smartcard.c ****     {
2878:Drivers/STM32L4xx_HAL_Driver/Src/stm32l4xx_hal_smartcard.c ****       hsmartcard->RxXferCount = 0U;
 4696              		.loc 1 2878 31
 4697 0048 FB68     		ldr	r3, [r7, #12]
 4698 004a 0022     		movs	r2, #0
 4699 004c A3F85E20 		strh	r2, [r3, #94]	@ movhi
2879:Drivers/STM32L4xx_HAL_Driver/Src/stm32l4xx_hal_smartcard.c ****       SMARTCARD_EndRxTransfer(hsmartcard);
 4700              		.loc 1 2879 7
 4701 0050 F868     		ldr	r0, [r7, #12]
 4702 0052 FFF7FEFF 		bl	SMARTCARD_EndRxTransfer
 4703              	.L228:
2880:Drivers/STM32L4xx_HAL_Driver/Src/stm32l4xx_hal_smartcard.c ****     }
2881:Drivers/STM32L4xx_HAL_Driver/Src/stm32l4xx_hal_smartcard.c ****   }
2882:Drivers/STM32L4xx_HAL_Driver/Src/stm32l4xx_hal_smartcard.c **** 
2883:Drivers/STM32L4xx_HAL_Driver/Src/stm32l4xx_hal_smartcard.c ****   hsmartcard->ErrorCode |= HAL_SMARTCARD_ERROR_DMA;
 4704              		.loc 1 2883 13
 4705 0056 FB68     		ldr	r3, [r7, #12]
 4706 0058 DB6F     		ldr	r3, [r3, #124]
 4707              		.loc 1 2883 25
 4708 005a 43F01002 		orr	r2, r3, #16
 4709 005e FB68     		ldr	r3, [r7, #12]
 4710 0060 DA67     		str	r2, [r3, #124]
2884:Drivers/STM32L4xx_HAL_Driver/Src/stm32l4xx_hal_smartcard.c **** #if (USE_HAL_SMARTCARD_REGISTER_CALLBACKS == 1)
2885:Drivers/STM32L4xx_HAL_Driver/Src/stm32l4xx_hal_smartcard.c ****   /* Call registered user error callback */
2886:Drivers/STM32L4xx_HAL_Driver/Src/stm32l4xx_hal_smartcard.c ****   hsmartcard->ErrorCallback(hsmartcard);
2887:Drivers/STM32L4xx_HAL_Driver/Src/stm32l4xx_hal_smartcard.c **** #else
2888:Drivers/STM32L4xx_HAL_Driver/Src/stm32l4xx_hal_smartcard.c ****   /* Call legacy weak user error callback */
2889:Drivers/STM32L4xx_HAL_Driver/Src/stm32l4xx_hal_smartcard.c ****   HAL_SMARTCARD_ErrorCallback(hsmartcard);
 4711              		.loc 1 2889 3
 4712 0062 F868     		ldr	r0, [r7, #12]
 4713 0064 FFF7FEFF 		bl	HAL_SMARTCARD_ErrorCallback
2890:Drivers/STM32L4xx_HAL_Driver/Src/stm32l4xx_hal_smartcard.c **** #endif /* USE_HAL_SMARTCARD_REGISTER_CALLBACK */
2891:Drivers/STM32L4xx_HAL_Driver/Src/stm32l4xx_hal_smartcard.c **** }
 4714              		.loc 1 2891 1
 4715 0068 00BF     		nop
 4716 006a 1037     		adds	r7, r7, #16
 4717              		.cfi_def_cfa_offset 8
 4718 006c BD46     		mov	sp, r7
 4719              		.cfi_def_cfa_register 13
 4720              		@ sp needed
 4721 006e 80BD     		pop	{r7, pc}
 4722              		.cfi_endproc
 4723              	.LFE478:
 4725              		.section	.text.SMARTCARD_DMAAbortOnError,"ax",%progbits
 4726              		.align	1
 4727              		.syntax unified
 4728              		.thumb
 4729              		.thumb_func
 4731              	SMARTCARD_DMAAbortOnError:
 4732              	.LFB479:
2892:Drivers/STM32L4xx_HAL_Driver/Src/stm32l4xx_hal_smartcard.c **** 
2893:Drivers/STM32L4xx_HAL_Driver/Src/stm32l4xx_hal_smartcard.c **** /**
2894:Drivers/STM32L4xx_HAL_Driver/Src/stm32l4xx_hal_smartcard.c ****   * @brief  DMA SMARTCARD communication abort callback, when initiated by HAL services on Error
2895:Drivers/STM32L4xx_HAL_Driver/Src/stm32l4xx_hal_smartcard.c ****   *         (To be called at end of DMA Abort procedure following error occurrence).
2896:Drivers/STM32L4xx_HAL_Driver/Src/stm32l4xx_hal_smartcard.c ****   * @param  hdma DMA handle.
2897:Drivers/STM32L4xx_HAL_Driver/Src/stm32l4xx_hal_smartcard.c ****   * @retval None
ARM GAS  /tmp/ccDAjxq4.s 			page 134


2898:Drivers/STM32L4xx_HAL_Driver/Src/stm32l4xx_hal_smartcard.c ****   */
2899:Drivers/STM32L4xx_HAL_Driver/Src/stm32l4xx_hal_smartcard.c **** static void SMARTCARD_DMAAbortOnError(DMA_HandleTypeDef *hdma)
2900:Drivers/STM32L4xx_HAL_Driver/Src/stm32l4xx_hal_smartcard.c **** {
 4733              		.loc 1 2900 1
 4734              		.cfi_startproc
 4735              		@ args = 0, pretend = 0, frame = 16
 4736              		@ frame_needed = 1, uses_anonymous_args = 0
 4737 0000 80B5     		push	{r7, lr}
 4738              		.cfi_def_cfa_offset 8
 4739              		.cfi_offset 7, -8
 4740              		.cfi_offset 14, -4
 4741 0002 84B0     		sub	sp, sp, #16
 4742              		.cfi_def_cfa_offset 24
 4743 0004 00AF     		add	r7, sp, #0
 4744              		.cfi_def_cfa_register 7
 4745 0006 7860     		str	r0, [r7, #4]
2901:Drivers/STM32L4xx_HAL_Driver/Src/stm32l4xx_hal_smartcard.c ****   SMARTCARD_HandleTypeDef *hsmartcard = (SMARTCARD_HandleTypeDef *)(hdma->Parent);
 4746              		.loc 1 2901 28
 4747 0008 7B68     		ldr	r3, [r7, #4]
 4748 000a 9B6A     		ldr	r3, [r3, #40]
 4749 000c FB60     		str	r3, [r7, #12]
2902:Drivers/STM32L4xx_HAL_Driver/Src/stm32l4xx_hal_smartcard.c ****   hsmartcard->RxXferCount = 0U;
 4750              		.loc 1 2902 27
 4751 000e FB68     		ldr	r3, [r7, #12]
 4752 0010 0022     		movs	r2, #0
 4753 0012 A3F85E20 		strh	r2, [r3, #94]	@ movhi
2903:Drivers/STM32L4xx_HAL_Driver/Src/stm32l4xx_hal_smartcard.c ****   hsmartcard->TxXferCount = 0U;
 4754              		.loc 1 2903 27
 4755 0016 FB68     		ldr	r3, [r7, #12]
 4756 0018 0022     		movs	r2, #0
 4757 001a A3F85620 		strh	r2, [r3, #86]	@ movhi
2904:Drivers/STM32L4xx_HAL_Driver/Src/stm32l4xx_hal_smartcard.c **** 
2905:Drivers/STM32L4xx_HAL_Driver/Src/stm32l4xx_hal_smartcard.c **** #if (USE_HAL_SMARTCARD_REGISTER_CALLBACKS == 1)
2906:Drivers/STM32L4xx_HAL_Driver/Src/stm32l4xx_hal_smartcard.c ****   /* Call registered user error callback */
2907:Drivers/STM32L4xx_HAL_Driver/Src/stm32l4xx_hal_smartcard.c ****   hsmartcard->ErrorCallback(hsmartcard);
2908:Drivers/STM32L4xx_HAL_Driver/Src/stm32l4xx_hal_smartcard.c **** #else
2909:Drivers/STM32L4xx_HAL_Driver/Src/stm32l4xx_hal_smartcard.c ****   /* Call legacy weak user error callback */
2910:Drivers/STM32L4xx_HAL_Driver/Src/stm32l4xx_hal_smartcard.c ****   HAL_SMARTCARD_ErrorCallback(hsmartcard);
 4758              		.loc 1 2910 3
 4759 001e F868     		ldr	r0, [r7, #12]
 4760 0020 FFF7FEFF 		bl	HAL_SMARTCARD_ErrorCallback
2911:Drivers/STM32L4xx_HAL_Driver/Src/stm32l4xx_hal_smartcard.c **** #endif /* USE_HAL_SMARTCARD_REGISTER_CALLBACK */
2912:Drivers/STM32L4xx_HAL_Driver/Src/stm32l4xx_hal_smartcard.c **** }
 4761              		.loc 1 2912 1
 4762 0024 00BF     		nop
 4763 0026 1037     		adds	r7, r7, #16
 4764              		.cfi_def_cfa_offset 8
 4765 0028 BD46     		mov	sp, r7
 4766              		.cfi_def_cfa_register 13
 4767              		@ sp needed
 4768 002a 80BD     		pop	{r7, pc}
 4769              		.cfi_endproc
 4770              	.LFE479:
 4772              		.section	.text.SMARTCARD_DMATxAbortCallback,"ax",%progbits
 4773              		.align	1
 4774              		.syntax unified
 4775              		.thumb
ARM GAS  /tmp/ccDAjxq4.s 			page 135


 4776              		.thumb_func
 4778              	SMARTCARD_DMATxAbortCallback:
 4779              	.LFB480:
2913:Drivers/STM32L4xx_HAL_Driver/Src/stm32l4xx_hal_smartcard.c **** 
2914:Drivers/STM32L4xx_HAL_Driver/Src/stm32l4xx_hal_smartcard.c **** /**
2915:Drivers/STM32L4xx_HAL_Driver/Src/stm32l4xx_hal_smartcard.c ****   * @brief  DMA SMARTCARD Tx communication abort callback, when initiated by user
2916:Drivers/STM32L4xx_HAL_Driver/Src/stm32l4xx_hal_smartcard.c ****   *         (To be called at end of DMA Tx Abort procedure following user abort request).
2917:Drivers/STM32L4xx_HAL_Driver/Src/stm32l4xx_hal_smartcard.c ****   * @note   When this callback is executed, User Abort complete call back is called only if no
2918:Drivers/STM32L4xx_HAL_Driver/Src/stm32l4xx_hal_smartcard.c ****   *         Abort still ongoing for Rx DMA Handle.
2919:Drivers/STM32L4xx_HAL_Driver/Src/stm32l4xx_hal_smartcard.c ****   * @param  hdma DMA handle.
2920:Drivers/STM32L4xx_HAL_Driver/Src/stm32l4xx_hal_smartcard.c ****   * @retval None
2921:Drivers/STM32L4xx_HAL_Driver/Src/stm32l4xx_hal_smartcard.c ****   */
2922:Drivers/STM32L4xx_HAL_Driver/Src/stm32l4xx_hal_smartcard.c **** static void SMARTCARD_DMATxAbortCallback(DMA_HandleTypeDef *hdma)
2923:Drivers/STM32L4xx_HAL_Driver/Src/stm32l4xx_hal_smartcard.c **** {
 4780              		.loc 1 2923 1
 4781              		.cfi_startproc
 4782              		@ args = 0, pretend = 0, frame = 16
 4783              		@ frame_needed = 1, uses_anonymous_args = 0
 4784 0000 80B5     		push	{r7, lr}
 4785              		.cfi_def_cfa_offset 8
 4786              		.cfi_offset 7, -8
 4787              		.cfi_offset 14, -4
 4788 0002 84B0     		sub	sp, sp, #16
 4789              		.cfi_def_cfa_offset 24
 4790 0004 00AF     		add	r7, sp, #0
 4791              		.cfi_def_cfa_register 7
 4792 0006 7860     		str	r0, [r7, #4]
2924:Drivers/STM32L4xx_HAL_Driver/Src/stm32l4xx_hal_smartcard.c ****   SMARTCARD_HandleTypeDef *hsmartcard = (SMARTCARD_HandleTypeDef *)(hdma->Parent);
 4793              		.loc 1 2924 28
 4794 0008 7B68     		ldr	r3, [r7, #4]
 4795 000a 9B6A     		ldr	r3, [r3, #40]
 4796 000c FB60     		str	r3, [r7, #12]
2925:Drivers/STM32L4xx_HAL_Driver/Src/stm32l4xx_hal_smartcard.c **** 
2926:Drivers/STM32L4xx_HAL_Driver/Src/stm32l4xx_hal_smartcard.c ****   hsmartcard->hdmatx->XferAbortCallback = NULL;
 4797              		.loc 1 2926 13
 4798 000e FB68     		ldr	r3, [r7, #12]
 4799 0010 9B6E     		ldr	r3, [r3, #104]
 4800              		.loc 1 2926 41
 4801 0012 0022     		movs	r2, #0
 4802 0014 9A63     		str	r2, [r3, #56]
2927:Drivers/STM32L4xx_HAL_Driver/Src/stm32l4xx_hal_smartcard.c **** 
2928:Drivers/STM32L4xx_HAL_Driver/Src/stm32l4xx_hal_smartcard.c ****   /* Check if an Abort process is still ongoing */
2929:Drivers/STM32L4xx_HAL_Driver/Src/stm32l4xx_hal_smartcard.c ****   if (hsmartcard->hdmarx != NULL)
 4803              		.loc 1 2929 17
 4804 0016 FB68     		ldr	r3, [r7, #12]
 4805 0018 DB6E     		ldr	r3, [r3, #108]
 4806              		.loc 1 2929 6
 4807 001a 002B     		cmp	r3, #0
 4808 001c 04D0     		beq	.L231
2930:Drivers/STM32L4xx_HAL_Driver/Src/stm32l4xx_hal_smartcard.c ****   {
2931:Drivers/STM32L4xx_HAL_Driver/Src/stm32l4xx_hal_smartcard.c ****     if (hsmartcard->hdmarx->XferAbortCallback != NULL)
 4809              		.loc 1 2931 19
 4810 001e FB68     		ldr	r3, [r7, #12]
 4811 0020 DB6E     		ldr	r3, [r3, #108]
 4812              		.loc 1 2931 27
 4813 0022 9B6B     		ldr	r3, [r3, #56]
 4814              		.loc 1 2931 8
ARM GAS  /tmp/ccDAjxq4.s 			page 136


 4815 0024 002B     		cmp	r3, #0
 4816 0026 19D1     		bne	.L233
 4817              	.L231:
2932:Drivers/STM32L4xx_HAL_Driver/Src/stm32l4xx_hal_smartcard.c ****     {
2933:Drivers/STM32L4xx_HAL_Driver/Src/stm32l4xx_hal_smartcard.c ****       return;
2934:Drivers/STM32L4xx_HAL_Driver/Src/stm32l4xx_hal_smartcard.c ****     }
2935:Drivers/STM32L4xx_HAL_Driver/Src/stm32l4xx_hal_smartcard.c ****   }
2936:Drivers/STM32L4xx_HAL_Driver/Src/stm32l4xx_hal_smartcard.c **** 
2937:Drivers/STM32L4xx_HAL_Driver/Src/stm32l4xx_hal_smartcard.c ****   /* No Abort process still ongoing : All DMA channels are aborted, call user Abort Complete callba
2938:Drivers/STM32L4xx_HAL_Driver/Src/stm32l4xx_hal_smartcard.c ****   hsmartcard->TxXferCount = 0U;
 4818              		.loc 1 2938 27
 4819 0028 FB68     		ldr	r3, [r7, #12]
 4820 002a 0022     		movs	r2, #0
 4821 002c A3F85620 		strh	r2, [r3, #86]	@ movhi
2939:Drivers/STM32L4xx_HAL_Driver/Src/stm32l4xx_hal_smartcard.c ****   hsmartcard->RxXferCount = 0U;
 4822              		.loc 1 2939 27
 4823 0030 FB68     		ldr	r3, [r7, #12]
 4824 0032 0022     		movs	r2, #0
 4825 0034 A3F85E20 		strh	r2, [r3, #94]	@ movhi
2940:Drivers/STM32L4xx_HAL_Driver/Src/stm32l4xx_hal_smartcard.c **** 
2941:Drivers/STM32L4xx_HAL_Driver/Src/stm32l4xx_hal_smartcard.c ****   /* Reset errorCode */
2942:Drivers/STM32L4xx_HAL_Driver/Src/stm32l4xx_hal_smartcard.c ****   hsmartcard->ErrorCode = HAL_SMARTCARD_ERROR_NONE;
 4826              		.loc 1 2942 25
 4827 0038 FB68     		ldr	r3, [r7, #12]
 4828 003a 0022     		movs	r2, #0
 4829 003c DA67     		str	r2, [r3, #124]
2943:Drivers/STM32L4xx_HAL_Driver/Src/stm32l4xx_hal_smartcard.c **** 
2944:Drivers/STM32L4xx_HAL_Driver/Src/stm32l4xx_hal_smartcard.c ****   /* Clear the Error flags in the ICR register */
2945:Drivers/STM32L4xx_HAL_Driver/Src/stm32l4xx_hal_smartcard.c ****   __HAL_SMARTCARD_CLEAR_FLAG(hsmartcard,
 4830              		.loc 1 2945 3
 4831 003e FB68     		ldr	r3, [r7, #12]
 4832 0040 1B68     		ldr	r3, [r3]
 4833 0042 41F60F02 		movw	r2, #6159
 4834 0046 1A62     		str	r2, [r3, #32]
2946:Drivers/STM32L4xx_HAL_Driver/Src/stm32l4xx_hal_smartcard.c ****                              SMARTCARD_CLEAR_OREF | SMARTCARD_CLEAR_NEF | SMARTCARD_CLEAR_PEF | SMA
2947:Drivers/STM32L4xx_HAL_Driver/Src/stm32l4xx_hal_smartcard.c ****                              SMARTCARD_CLEAR_RTOF | SMARTCARD_CLEAR_EOBF);
2948:Drivers/STM32L4xx_HAL_Driver/Src/stm32l4xx_hal_smartcard.c **** 
2949:Drivers/STM32L4xx_HAL_Driver/Src/stm32l4xx_hal_smartcard.c ****   /* Restore hsmartcard->gState and hsmartcard->RxState to Ready */
2950:Drivers/STM32L4xx_HAL_Driver/Src/stm32l4xx_hal_smartcard.c ****   hsmartcard->gState  = HAL_SMARTCARD_STATE_READY;
 4835              		.loc 1 2950 23
 4836 0048 FB68     		ldr	r3, [r7, #12]
 4837 004a 2022     		movs	r2, #32
 4838 004c 5A67     		str	r2, [r3, #116]
2951:Drivers/STM32L4xx_HAL_Driver/Src/stm32l4xx_hal_smartcard.c ****   hsmartcard->RxState = HAL_SMARTCARD_STATE_READY;
 4839              		.loc 1 2951 23
 4840 004e FB68     		ldr	r3, [r7, #12]
 4841 0050 2022     		movs	r2, #32
 4842 0052 9A67     		str	r2, [r3, #120]
2952:Drivers/STM32L4xx_HAL_Driver/Src/stm32l4xx_hal_smartcard.c **** 
2953:Drivers/STM32L4xx_HAL_Driver/Src/stm32l4xx_hal_smartcard.c **** #if (USE_HAL_SMARTCARD_REGISTER_CALLBACKS == 1)
2954:Drivers/STM32L4xx_HAL_Driver/Src/stm32l4xx_hal_smartcard.c ****   /* Call registered Abort complete callback */
2955:Drivers/STM32L4xx_HAL_Driver/Src/stm32l4xx_hal_smartcard.c ****   hsmartcard->AbortCpltCallback(hsmartcard);
2956:Drivers/STM32L4xx_HAL_Driver/Src/stm32l4xx_hal_smartcard.c **** #else
2957:Drivers/STM32L4xx_HAL_Driver/Src/stm32l4xx_hal_smartcard.c ****   /* Call legacy weak Abort complete callback */
2958:Drivers/STM32L4xx_HAL_Driver/Src/stm32l4xx_hal_smartcard.c ****   HAL_SMARTCARD_AbortCpltCallback(hsmartcard);
 4843              		.loc 1 2958 3
 4844 0054 F868     		ldr	r0, [r7, #12]
ARM GAS  /tmp/ccDAjxq4.s 			page 137


 4845 0056 FFF7FEFF 		bl	HAL_SMARTCARD_AbortCpltCallback
 4846 005a 00E0     		b	.L230
 4847              	.L233:
2933:Drivers/STM32L4xx_HAL_Driver/Src/stm32l4xx_hal_smartcard.c ****     }
 4848              		.loc 1 2933 7
 4849 005c 00BF     		nop
 4850              	.L230:
2959:Drivers/STM32L4xx_HAL_Driver/Src/stm32l4xx_hal_smartcard.c **** #endif /* USE_HAL_SMARTCARD_REGISTER_CALLBACK */
2960:Drivers/STM32L4xx_HAL_Driver/Src/stm32l4xx_hal_smartcard.c **** }
 4851              		.loc 1 2960 1
 4852 005e 1037     		adds	r7, r7, #16
 4853              		.cfi_def_cfa_offset 8
 4854 0060 BD46     		mov	sp, r7
 4855              		.cfi_def_cfa_register 13
 4856              		@ sp needed
 4857 0062 80BD     		pop	{r7, pc}
 4858              		.cfi_endproc
 4859              	.LFE480:
 4861              		.section	.text.SMARTCARD_DMARxAbortCallback,"ax",%progbits
 4862              		.align	1
 4863              		.syntax unified
 4864              		.thumb
 4865              		.thumb_func
 4867              	SMARTCARD_DMARxAbortCallback:
 4868              	.LFB481:
2961:Drivers/STM32L4xx_HAL_Driver/Src/stm32l4xx_hal_smartcard.c **** 
2962:Drivers/STM32L4xx_HAL_Driver/Src/stm32l4xx_hal_smartcard.c **** 
2963:Drivers/STM32L4xx_HAL_Driver/Src/stm32l4xx_hal_smartcard.c **** /**
2964:Drivers/STM32L4xx_HAL_Driver/Src/stm32l4xx_hal_smartcard.c ****   * @brief  DMA SMARTCARD Rx communication abort callback, when initiated by user
2965:Drivers/STM32L4xx_HAL_Driver/Src/stm32l4xx_hal_smartcard.c ****   *         (To be called at end of DMA Rx Abort procedure following user abort request).
2966:Drivers/STM32L4xx_HAL_Driver/Src/stm32l4xx_hal_smartcard.c ****   * @note   When this callback is executed, User Abort complete call back is called only if no
2967:Drivers/STM32L4xx_HAL_Driver/Src/stm32l4xx_hal_smartcard.c ****   *         Abort still ongoing for Tx DMA Handle.
2968:Drivers/STM32L4xx_HAL_Driver/Src/stm32l4xx_hal_smartcard.c ****   * @param  hdma DMA handle.
2969:Drivers/STM32L4xx_HAL_Driver/Src/stm32l4xx_hal_smartcard.c ****   * @retval None
2970:Drivers/STM32L4xx_HAL_Driver/Src/stm32l4xx_hal_smartcard.c ****   */
2971:Drivers/STM32L4xx_HAL_Driver/Src/stm32l4xx_hal_smartcard.c **** static void SMARTCARD_DMARxAbortCallback(DMA_HandleTypeDef *hdma)
2972:Drivers/STM32L4xx_HAL_Driver/Src/stm32l4xx_hal_smartcard.c **** {
 4869              		.loc 1 2972 1
 4870              		.cfi_startproc
 4871              		@ args = 0, pretend = 0, frame = 16
 4872              		@ frame_needed = 1, uses_anonymous_args = 0
 4873 0000 80B5     		push	{r7, lr}
 4874              		.cfi_def_cfa_offset 8
 4875              		.cfi_offset 7, -8
 4876              		.cfi_offset 14, -4
 4877 0002 84B0     		sub	sp, sp, #16
 4878              		.cfi_def_cfa_offset 24
 4879 0004 00AF     		add	r7, sp, #0
 4880              		.cfi_def_cfa_register 7
 4881 0006 7860     		str	r0, [r7, #4]
2973:Drivers/STM32L4xx_HAL_Driver/Src/stm32l4xx_hal_smartcard.c ****   SMARTCARD_HandleTypeDef *hsmartcard = (SMARTCARD_HandleTypeDef *)(hdma->Parent);
 4882              		.loc 1 2973 28
 4883 0008 7B68     		ldr	r3, [r7, #4]
 4884 000a 9B6A     		ldr	r3, [r3, #40]
 4885 000c FB60     		str	r3, [r7, #12]
2974:Drivers/STM32L4xx_HAL_Driver/Src/stm32l4xx_hal_smartcard.c **** 
2975:Drivers/STM32L4xx_HAL_Driver/Src/stm32l4xx_hal_smartcard.c ****   hsmartcard->hdmarx->XferAbortCallback = NULL;
ARM GAS  /tmp/ccDAjxq4.s 			page 138


 4886              		.loc 1 2975 13
 4887 000e FB68     		ldr	r3, [r7, #12]
 4888 0010 DB6E     		ldr	r3, [r3, #108]
 4889              		.loc 1 2975 41
 4890 0012 0022     		movs	r2, #0
 4891 0014 9A63     		str	r2, [r3, #56]
2976:Drivers/STM32L4xx_HAL_Driver/Src/stm32l4xx_hal_smartcard.c **** 
2977:Drivers/STM32L4xx_HAL_Driver/Src/stm32l4xx_hal_smartcard.c ****   /* Check if an Abort process is still ongoing */
2978:Drivers/STM32L4xx_HAL_Driver/Src/stm32l4xx_hal_smartcard.c ****   if (hsmartcard->hdmatx != NULL)
 4892              		.loc 1 2978 17
 4893 0016 FB68     		ldr	r3, [r7, #12]
 4894 0018 9B6E     		ldr	r3, [r3, #104]
 4895              		.loc 1 2978 6
 4896 001a 002B     		cmp	r3, #0
 4897 001c 04D0     		beq	.L235
2979:Drivers/STM32L4xx_HAL_Driver/Src/stm32l4xx_hal_smartcard.c ****   {
2980:Drivers/STM32L4xx_HAL_Driver/Src/stm32l4xx_hal_smartcard.c ****     if (hsmartcard->hdmatx->XferAbortCallback != NULL)
 4898              		.loc 1 2980 19
 4899 001e FB68     		ldr	r3, [r7, #12]
 4900 0020 9B6E     		ldr	r3, [r3, #104]
 4901              		.loc 1 2980 27
 4902 0022 9B6B     		ldr	r3, [r3, #56]
 4903              		.loc 1 2980 8
 4904 0024 002B     		cmp	r3, #0
 4905 0026 19D1     		bne	.L237
 4906              	.L235:
2981:Drivers/STM32L4xx_HAL_Driver/Src/stm32l4xx_hal_smartcard.c ****     {
2982:Drivers/STM32L4xx_HAL_Driver/Src/stm32l4xx_hal_smartcard.c ****       return;
2983:Drivers/STM32L4xx_HAL_Driver/Src/stm32l4xx_hal_smartcard.c ****     }
2984:Drivers/STM32L4xx_HAL_Driver/Src/stm32l4xx_hal_smartcard.c ****   }
2985:Drivers/STM32L4xx_HAL_Driver/Src/stm32l4xx_hal_smartcard.c **** 
2986:Drivers/STM32L4xx_HAL_Driver/Src/stm32l4xx_hal_smartcard.c ****   /* No Abort process still ongoing : All DMA channels are aborted, call user Abort Complete callba
2987:Drivers/STM32L4xx_HAL_Driver/Src/stm32l4xx_hal_smartcard.c ****   hsmartcard->TxXferCount = 0U;
 4907              		.loc 1 2987 27
 4908 0028 FB68     		ldr	r3, [r7, #12]
 4909 002a 0022     		movs	r2, #0
 4910 002c A3F85620 		strh	r2, [r3, #86]	@ movhi
2988:Drivers/STM32L4xx_HAL_Driver/Src/stm32l4xx_hal_smartcard.c ****   hsmartcard->RxXferCount = 0U;
 4911              		.loc 1 2988 27
 4912 0030 FB68     		ldr	r3, [r7, #12]
 4913 0032 0022     		movs	r2, #0
 4914 0034 A3F85E20 		strh	r2, [r3, #94]	@ movhi
2989:Drivers/STM32L4xx_HAL_Driver/Src/stm32l4xx_hal_smartcard.c **** 
2990:Drivers/STM32L4xx_HAL_Driver/Src/stm32l4xx_hal_smartcard.c ****   /* Reset errorCode */
2991:Drivers/STM32L4xx_HAL_Driver/Src/stm32l4xx_hal_smartcard.c ****   hsmartcard->ErrorCode = HAL_SMARTCARD_ERROR_NONE;
 4915              		.loc 1 2991 25
 4916 0038 FB68     		ldr	r3, [r7, #12]
 4917 003a 0022     		movs	r2, #0
 4918 003c DA67     		str	r2, [r3, #124]
2992:Drivers/STM32L4xx_HAL_Driver/Src/stm32l4xx_hal_smartcard.c **** 
2993:Drivers/STM32L4xx_HAL_Driver/Src/stm32l4xx_hal_smartcard.c ****   /* Clear the Error flags in the ICR register */
2994:Drivers/STM32L4xx_HAL_Driver/Src/stm32l4xx_hal_smartcard.c ****   __HAL_SMARTCARD_CLEAR_FLAG(hsmartcard,
 4919              		.loc 1 2994 3
 4920 003e FB68     		ldr	r3, [r7, #12]
 4921 0040 1B68     		ldr	r3, [r3]
 4922 0042 41F60F02 		movw	r2, #6159
 4923 0046 1A62     		str	r2, [r3, #32]
ARM GAS  /tmp/ccDAjxq4.s 			page 139


2995:Drivers/STM32L4xx_HAL_Driver/Src/stm32l4xx_hal_smartcard.c ****                              SMARTCARD_CLEAR_OREF | SMARTCARD_CLEAR_NEF | SMARTCARD_CLEAR_PEF | SMA
2996:Drivers/STM32L4xx_HAL_Driver/Src/stm32l4xx_hal_smartcard.c ****                              SMARTCARD_CLEAR_RTOF | SMARTCARD_CLEAR_EOBF);
2997:Drivers/STM32L4xx_HAL_Driver/Src/stm32l4xx_hal_smartcard.c **** 
2998:Drivers/STM32L4xx_HAL_Driver/Src/stm32l4xx_hal_smartcard.c ****   /* Restore hsmartcard->gState and hsmartcard->RxState to Ready */
2999:Drivers/STM32L4xx_HAL_Driver/Src/stm32l4xx_hal_smartcard.c ****   hsmartcard->gState  = HAL_SMARTCARD_STATE_READY;
 4924              		.loc 1 2999 23
 4925 0048 FB68     		ldr	r3, [r7, #12]
 4926 004a 2022     		movs	r2, #32
 4927 004c 5A67     		str	r2, [r3, #116]
3000:Drivers/STM32L4xx_HAL_Driver/Src/stm32l4xx_hal_smartcard.c ****   hsmartcard->RxState = HAL_SMARTCARD_STATE_READY;
 4928              		.loc 1 3000 23
 4929 004e FB68     		ldr	r3, [r7, #12]
 4930 0050 2022     		movs	r2, #32
 4931 0052 9A67     		str	r2, [r3, #120]
3001:Drivers/STM32L4xx_HAL_Driver/Src/stm32l4xx_hal_smartcard.c **** 
3002:Drivers/STM32L4xx_HAL_Driver/Src/stm32l4xx_hal_smartcard.c **** #if (USE_HAL_SMARTCARD_REGISTER_CALLBACKS == 1)
3003:Drivers/STM32L4xx_HAL_Driver/Src/stm32l4xx_hal_smartcard.c ****   /* Call registered Abort complete callback */
3004:Drivers/STM32L4xx_HAL_Driver/Src/stm32l4xx_hal_smartcard.c ****   hsmartcard->AbortCpltCallback(hsmartcard);
3005:Drivers/STM32L4xx_HAL_Driver/Src/stm32l4xx_hal_smartcard.c **** #else
3006:Drivers/STM32L4xx_HAL_Driver/Src/stm32l4xx_hal_smartcard.c ****   /* Call legacy weak Abort complete callback */
3007:Drivers/STM32L4xx_HAL_Driver/Src/stm32l4xx_hal_smartcard.c ****   HAL_SMARTCARD_AbortCpltCallback(hsmartcard);
 4932              		.loc 1 3007 3
 4933 0054 F868     		ldr	r0, [r7, #12]
 4934 0056 FFF7FEFF 		bl	HAL_SMARTCARD_AbortCpltCallback
 4935 005a 00E0     		b	.L234
 4936              	.L237:
2982:Drivers/STM32L4xx_HAL_Driver/Src/stm32l4xx_hal_smartcard.c ****     }
 4937              		.loc 1 2982 7
 4938 005c 00BF     		nop
 4939              	.L234:
3008:Drivers/STM32L4xx_HAL_Driver/Src/stm32l4xx_hal_smartcard.c **** #endif /* USE_HAL_SMARTCARD_REGISTER_CALLBACK */
3009:Drivers/STM32L4xx_HAL_Driver/Src/stm32l4xx_hal_smartcard.c **** }
 4940              		.loc 1 3009 1
 4941 005e 1037     		adds	r7, r7, #16
 4942              		.cfi_def_cfa_offset 8
 4943 0060 BD46     		mov	sp, r7
 4944              		.cfi_def_cfa_register 13
 4945              		@ sp needed
 4946 0062 80BD     		pop	{r7, pc}
 4947              		.cfi_endproc
 4948              	.LFE481:
 4950              		.section	.text.SMARTCARD_DMATxOnlyAbortCallback,"ax",%progbits
 4951              		.align	1
 4952              		.syntax unified
 4953              		.thumb
 4954              		.thumb_func
 4956              	SMARTCARD_DMATxOnlyAbortCallback:
 4957              	.LFB482:
3010:Drivers/STM32L4xx_HAL_Driver/Src/stm32l4xx_hal_smartcard.c **** 
3011:Drivers/STM32L4xx_HAL_Driver/Src/stm32l4xx_hal_smartcard.c **** 
3012:Drivers/STM32L4xx_HAL_Driver/Src/stm32l4xx_hal_smartcard.c **** /**
3013:Drivers/STM32L4xx_HAL_Driver/Src/stm32l4xx_hal_smartcard.c ****   * @brief  DMA SMARTCARD Tx communication abort callback, when initiated by user by a call to
3014:Drivers/STM32L4xx_HAL_Driver/Src/stm32l4xx_hal_smartcard.c ****   *         HAL_SMARTCARD_AbortTransmit_IT API (Abort only Tx transfer)
3015:Drivers/STM32L4xx_HAL_Driver/Src/stm32l4xx_hal_smartcard.c ****   *         (This callback is executed at end of DMA Tx Abort procedure following user abort reques
3016:Drivers/STM32L4xx_HAL_Driver/Src/stm32l4xx_hal_smartcard.c ****   *         and leads to user Tx Abort Complete callback execution).
3017:Drivers/STM32L4xx_HAL_Driver/Src/stm32l4xx_hal_smartcard.c ****   * @param  hdma DMA handle.
3018:Drivers/STM32L4xx_HAL_Driver/Src/stm32l4xx_hal_smartcard.c ****   * @retval None
ARM GAS  /tmp/ccDAjxq4.s 			page 140


3019:Drivers/STM32L4xx_HAL_Driver/Src/stm32l4xx_hal_smartcard.c ****   */
3020:Drivers/STM32L4xx_HAL_Driver/Src/stm32l4xx_hal_smartcard.c **** static void SMARTCARD_DMATxOnlyAbortCallback(DMA_HandleTypeDef *hdma)
3021:Drivers/STM32L4xx_HAL_Driver/Src/stm32l4xx_hal_smartcard.c **** {
 4958              		.loc 1 3021 1
 4959              		.cfi_startproc
 4960              		@ args = 0, pretend = 0, frame = 16
 4961              		@ frame_needed = 1, uses_anonymous_args = 0
 4962 0000 80B5     		push	{r7, lr}
 4963              		.cfi_def_cfa_offset 8
 4964              		.cfi_offset 7, -8
 4965              		.cfi_offset 14, -4
 4966 0002 84B0     		sub	sp, sp, #16
 4967              		.cfi_def_cfa_offset 24
 4968 0004 00AF     		add	r7, sp, #0
 4969              		.cfi_def_cfa_register 7
 4970 0006 7860     		str	r0, [r7, #4]
3022:Drivers/STM32L4xx_HAL_Driver/Src/stm32l4xx_hal_smartcard.c ****   SMARTCARD_HandleTypeDef *hsmartcard = (SMARTCARD_HandleTypeDef *)(hdma->Parent);
 4971              		.loc 1 3022 28
 4972 0008 7B68     		ldr	r3, [r7, #4]
 4973 000a 9B6A     		ldr	r3, [r3, #40]
 4974 000c FB60     		str	r3, [r7, #12]
3023:Drivers/STM32L4xx_HAL_Driver/Src/stm32l4xx_hal_smartcard.c **** 
3024:Drivers/STM32L4xx_HAL_Driver/Src/stm32l4xx_hal_smartcard.c ****   hsmartcard->TxXferCount = 0U;
 4975              		.loc 1 3024 27
 4976 000e FB68     		ldr	r3, [r7, #12]
 4977 0010 0022     		movs	r2, #0
 4978 0012 A3F85620 		strh	r2, [r3, #86]	@ movhi
3025:Drivers/STM32L4xx_HAL_Driver/Src/stm32l4xx_hal_smartcard.c **** 
3026:Drivers/STM32L4xx_HAL_Driver/Src/stm32l4xx_hal_smartcard.c ****   /* Clear the Error flags in the ICR register */
3027:Drivers/STM32L4xx_HAL_Driver/Src/stm32l4xx_hal_smartcard.c ****   __HAL_SMARTCARD_CLEAR_FLAG(hsmartcard, SMARTCARD_CLEAR_FEF);
 4979              		.loc 1 3027 3
 4980 0016 FB68     		ldr	r3, [r7, #12]
 4981 0018 1B68     		ldr	r3, [r3]
 4982 001a 0222     		movs	r2, #2
 4983 001c 1A62     		str	r2, [r3, #32]
3028:Drivers/STM32L4xx_HAL_Driver/Src/stm32l4xx_hal_smartcard.c **** 
3029:Drivers/STM32L4xx_HAL_Driver/Src/stm32l4xx_hal_smartcard.c ****   /* Restore hsmartcard->gState to Ready */
3030:Drivers/STM32L4xx_HAL_Driver/Src/stm32l4xx_hal_smartcard.c ****   hsmartcard->gState = HAL_SMARTCARD_STATE_READY;
 4984              		.loc 1 3030 22
 4985 001e FB68     		ldr	r3, [r7, #12]
 4986 0020 2022     		movs	r2, #32
 4987 0022 5A67     		str	r2, [r3, #116]
3031:Drivers/STM32L4xx_HAL_Driver/Src/stm32l4xx_hal_smartcard.c **** 
3032:Drivers/STM32L4xx_HAL_Driver/Src/stm32l4xx_hal_smartcard.c **** #if (USE_HAL_SMARTCARD_REGISTER_CALLBACKS == 1)
3033:Drivers/STM32L4xx_HAL_Driver/Src/stm32l4xx_hal_smartcard.c ****   /* Call registered Abort Transmit Complete Callback */
3034:Drivers/STM32L4xx_HAL_Driver/Src/stm32l4xx_hal_smartcard.c ****   hsmartcard->AbortTransmitCpltCallback(hsmartcard);
3035:Drivers/STM32L4xx_HAL_Driver/Src/stm32l4xx_hal_smartcard.c **** #else
3036:Drivers/STM32L4xx_HAL_Driver/Src/stm32l4xx_hal_smartcard.c ****   /* Call legacy weak Abort Transmit Complete Callback */
3037:Drivers/STM32L4xx_HAL_Driver/Src/stm32l4xx_hal_smartcard.c ****   HAL_SMARTCARD_AbortTransmitCpltCallback(hsmartcard);
 4988              		.loc 1 3037 3
 4989 0024 F868     		ldr	r0, [r7, #12]
 4990 0026 FFF7FEFF 		bl	HAL_SMARTCARD_AbortTransmitCpltCallback
3038:Drivers/STM32L4xx_HAL_Driver/Src/stm32l4xx_hal_smartcard.c **** #endif /* USE_HAL_SMARTCARD_REGISTER_CALLBACK */
3039:Drivers/STM32L4xx_HAL_Driver/Src/stm32l4xx_hal_smartcard.c **** }
 4991              		.loc 1 3039 1
 4992 002a 00BF     		nop
 4993 002c 1037     		adds	r7, r7, #16
ARM GAS  /tmp/ccDAjxq4.s 			page 141


 4994              		.cfi_def_cfa_offset 8
 4995 002e BD46     		mov	sp, r7
 4996              		.cfi_def_cfa_register 13
 4997              		@ sp needed
 4998 0030 80BD     		pop	{r7, pc}
 4999              		.cfi_endproc
 5000              	.LFE482:
 5002              		.section	.text.SMARTCARD_DMARxOnlyAbortCallback,"ax",%progbits
 5003              		.align	1
 5004              		.syntax unified
 5005              		.thumb
 5006              		.thumb_func
 5008              	SMARTCARD_DMARxOnlyAbortCallback:
 5009              	.LFB483:
3040:Drivers/STM32L4xx_HAL_Driver/Src/stm32l4xx_hal_smartcard.c **** 
3041:Drivers/STM32L4xx_HAL_Driver/Src/stm32l4xx_hal_smartcard.c **** /**
3042:Drivers/STM32L4xx_HAL_Driver/Src/stm32l4xx_hal_smartcard.c ****   * @brief  DMA SMARTCARD Rx communication abort callback, when initiated by user by a call to
3043:Drivers/STM32L4xx_HAL_Driver/Src/stm32l4xx_hal_smartcard.c ****   *         HAL_SMARTCARD_AbortReceive_IT API (Abort only Rx transfer)
3044:Drivers/STM32L4xx_HAL_Driver/Src/stm32l4xx_hal_smartcard.c ****   *         (This callback is executed at end of DMA Rx Abort procedure following user abort reques
3045:Drivers/STM32L4xx_HAL_Driver/Src/stm32l4xx_hal_smartcard.c ****   *         and leads to user Rx Abort Complete callback execution).
3046:Drivers/STM32L4xx_HAL_Driver/Src/stm32l4xx_hal_smartcard.c ****   * @param  hdma DMA handle.
3047:Drivers/STM32L4xx_HAL_Driver/Src/stm32l4xx_hal_smartcard.c ****   * @retval None
3048:Drivers/STM32L4xx_HAL_Driver/Src/stm32l4xx_hal_smartcard.c ****   */
3049:Drivers/STM32L4xx_HAL_Driver/Src/stm32l4xx_hal_smartcard.c **** static void SMARTCARD_DMARxOnlyAbortCallback(DMA_HandleTypeDef *hdma)
3050:Drivers/STM32L4xx_HAL_Driver/Src/stm32l4xx_hal_smartcard.c **** {
 5010              		.loc 1 3050 1
 5011              		.cfi_startproc
 5012              		@ args = 0, pretend = 0, frame = 16
 5013              		@ frame_needed = 1, uses_anonymous_args = 0
 5014 0000 80B5     		push	{r7, lr}
 5015              		.cfi_def_cfa_offset 8
 5016              		.cfi_offset 7, -8
 5017              		.cfi_offset 14, -4
 5018 0002 84B0     		sub	sp, sp, #16
 5019              		.cfi_def_cfa_offset 24
 5020 0004 00AF     		add	r7, sp, #0
 5021              		.cfi_def_cfa_register 7
 5022 0006 7860     		str	r0, [r7, #4]
3051:Drivers/STM32L4xx_HAL_Driver/Src/stm32l4xx_hal_smartcard.c ****   SMARTCARD_HandleTypeDef *hsmartcard = (SMARTCARD_HandleTypeDef *)(hdma->Parent);
 5023              		.loc 1 3051 28
 5024 0008 7B68     		ldr	r3, [r7, #4]
 5025 000a 9B6A     		ldr	r3, [r3, #40]
 5026 000c FB60     		str	r3, [r7, #12]
3052:Drivers/STM32L4xx_HAL_Driver/Src/stm32l4xx_hal_smartcard.c **** 
3053:Drivers/STM32L4xx_HAL_Driver/Src/stm32l4xx_hal_smartcard.c ****   hsmartcard->RxXferCount = 0U;
 5027              		.loc 1 3053 27
 5028 000e FB68     		ldr	r3, [r7, #12]
 5029 0010 0022     		movs	r2, #0
 5030 0012 A3F85E20 		strh	r2, [r3, #94]	@ movhi
3054:Drivers/STM32L4xx_HAL_Driver/Src/stm32l4xx_hal_smartcard.c **** 
3055:Drivers/STM32L4xx_HAL_Driver/Src/stm32l4xx_hal_smartcard.c ****   /* Clear the Error flags in the ICR register */
3056:Drivers/STM32L4xx_HAL_Driver/Src/stm32l4xx_hal_smartcard.c ****   __HAL_SMARTCARD_CLEAR_FLAG(hsmartcard,
 5031              		.loc 1 3056 3
 5032 0016 FB68     		ldr	r3, [r7, #12]
 5033 0018 1B68     		ldr	r3, [r3]
 5034 001a 41F60F02 		movw	r2, #6159
 5035 001e 1A62     		str	r2, [r3, #32]
ARM GAS  /tmp/ccDAjxq4.s 			page 142


3057:Drivers/STM32L4xx_HAL_Driver/Src/stm32l4xx_hal_smartcard.c ****                              SMARTCARD_CLEAR_OREF | SMARTCARD_CLEAR_NEF | SMARTCARD_CLEAR_PEF | SMA
3058:Drivers/STM32L4xx_HAL_Driver/Src/stm32l4xx_hal_smartcard.c ****                              SMARTCARD_CLEAR_RTOF | SMARTCARD_CLEAR_EOBF);
3059:Drivers/STM32L4xx_HAL_Driver/Src/stm32l4xx_hal_smartcard.c **** 
3060:Drivers/STM32L4xx_HAL_Driver/Src/stm32l4xx_hal_smartcard.c ****   /* Restore hsmartcard->RxState to Ready */
3061:Drivers/STM32L4xx_HAL_Driver/Src/stm32l4xx_hal_smartcard.c ****   hsmartcard->RxState = HAL_SMARTCARD_STATE_READY;
 5036              		.loc 1 3061 23
 5037 0020 FB68     		ldr	r3, [r7, #12]
 5038 0022 2022     		movs	r2, #32
 5039 0024 9A67     		str	r2, [r3, #120]
3062:Drivers/STM32L4xx_HAL_Driver/Src/stm32l4xx_hal_smartcard.c **** 
3063:Drivers/STM32L4xx_HAL_Driver/Src/stm32l4xx_hal_smartcard.c **** #if (USE_HAL_SMARTCARD_REGISTER_CALLBACKS == 1)
3064:Drivers/STM32L4xx_HAL_Driver/Src/stm32l4xx_hal_smartcard.c ****   /* Call registered Abort Receive Complete Callback */
3065:Drivers/STM32L4xx_HAL_Driver/Src/stm32l4xx_hal_smartcard.c ****   hsmartcard->AbortReceiveCpltCallback(hsmartcard);
3066:Drivers/STM32L4xx_HAL_Driver/Src/stm32l4xx_hal_smartcard.c **** #else
3067:Drivers/STM32L4xx_HAL_Driver/Src/stm32l4xx_hal_smartcard.c ****   /* Call legacy weak Abort Receive Complete Callback */
3068:Drivers/STM32L4xx_HAL_Driver/Src/stm32l4xx_hal_smartcard.c ****   HAL_SMARTCARD_AbortReceiveCpltCallback(hsmartcard);
 5040              		.loc 1 3068 3
 5041 0026 F868     		ldr	r0, [r7, #12]
 5042 0028 FFF7FEFF 		bl	HAL_SMARTCARD_AbortReceiveCpltCallback
3069:Drivers/STM32L4xx_HAL_Driver/Src/stm32l4xx_hal_smartcard.c **** #endif /* USE_HAL_SMARTCARD_REGISTER_CALLBACK */
3070:Drivers/STM32L4xx_HAL_Driver/Src/stm32l4xx_hal_smartcard.c **** }
 5043              		.loc 1 3070 1
 5044 002c 00BF     		nop
 5045 002e 1037     		adds	r7, r7, #16
 5046              		.cfi_def_cfa_offset 8
 5047 0030 BD46     		mov	sp, r7
 5048              		.cfi_def_cfa_register 13
 5049              		@ sp needed
 5050 0032 80BD     		pop	{r7, pc}
 5051              		.cfi_endproc
 5052              	.LFE483:
 5054              		.section	.text.SMARTCARD_TxISR,"ax",%progbits
 5055              		.align	1
 5056              		.syntax unified
 5057              		.thumb
 5058              		.thumb_func
 5060              	SMARTCARD_TxISR:
 5061              	.LFB484:
3071:Drivers/STM32L4xx_HAL_Driver/Src/stm32l4xx_hal_smartcard.c **** 
3072:Drivers/STM32L4xx_HAL_Driver/Src/stm32l4xx_hal_smartcard.c **** /**
3073:Drivers/STM32L4xx_HAL_Driver/Src/stm32l4xx_hal_smartcard.c ****   * @brief  Send an amount of data in non-blocking mode.
3074:Drivers/STM32L4xx_HAL_Driver/Src/stm32l4xx_hal_smartcard.c ****   * @note   Function called under interruption only, once
3075:Drivers/STM32L4xx_HAL_Driver/Src/stm32l4xx_hal_smartcard.c ****   *         interruptions have been enabled by HAL_SMARTCARD_Transmit_IT()
3076:Drivers/STM32L4xx_HAL_Driver/Src/stm32l4xx_hal_smartcard.c ****   *         and when the FIFO mode is disabled.
3077:Drivers/STM32L4xx_HAL_Driver/Src/stm32l4xx_hal_smartcard.c ****   * @param  hsmartcard Pointer to a SMARTCARD_HandleTypeDef structure that contains
3078:Drivers/STM32L4xx_HAL_Driver/Src/stm32l4xx_hal_smartcard.c ****   *                    the configuration information for the specified SMARTCARD module.
3079:Drivers/STM32L4xx_HAL_Driver/Src/stm32l4xx_hal_smartcard.c ****   * @retval None
3080:Drivers/STM32L4xx_HAL_Driver/Src/stm32l4xx_hal_smartcard.c ****   */
3081:Drivers/STM32L4xx_HAL_Driver/Src/stm32l4xx_hal_smartcard.c **** static void SMARTCARD_TxISR(SMARTCARD_HandleTypeDef *hsmartcard)
3082:Drivers/STM32L4xx_HAL_Driver/Src/stm32l4xx_hal_smartcard.c **** {
 5062              		.loc 1 3082 1
 5063              		.cfi_startproc
 5064              		@ args = 0, pretend = 0, frame = 8
 5065              		@ frame_needed = 1, uses_anonymous_args = 0
 5066              		@ link register save eliminated.
 5067 0000 80B4     		push	{r7}
 5068              		.cfi_def_cfa_offset 4
ARM GAS  /tmp/ccDAjxq4.s 			page 143


 5069              		.cfi_offset 7, -4
 5070 0002 83B0     		sub	sp, sp, #12
 5071              		.cfi_def_cfa_offset 16
 5072 0004 00AF     		add	r7, sp, #0
 5073              		.cfi_def_cfa_register 7
 5074 0006 7860     		str	r0, [r7, #4]
3083:Drivers/STM32L4xx_HAL_Driver/Src/stm32l4xx_hal_smartcard.c ****   /* Check that a Tx process is ongoing */
3084:Drivers/STM32L4xx_HAL_Driver/Src/stm32l4xx_hal_smartcard.c ****   if (hsmartcard->gState == HAL_SMARTCARD_STATE_BUSY_TX)
 5075              		.loc 1 3084 17
 5076 0008 7B68     		ldr	r3, [r7, #4]
 5077 000a 5B6F     		ldr	r3, [r3, #116]
 5078              		.loc 1 3084 6
 5079 000c 212B     		cmp	r3, #33
 5080 000e 5ED1     		bne	.L246
3085:Drivers/STM32L4xx_HAL_Driver/Src/stm32l4xx_hal_smartcard.c ****   {
3086:Drivers/STM32L4xx_HAL_Driver/Src/stm32l4xx_hal_smartcard.c ****     if (hsmartcard->TxXferCount == 0U)
 5081              		.loc 1 3086 19
 5082 0010 7B68     		ldr	r3, [r7, #4]
 5083 0012 B3F85630 		ldrh	r3, [r3, #86]	@ movhi
 5084 0016 9BB2     		uxth	r3, r3
 5085              		.loc 1 3086 8
 5086 0018 002B     		cmp	r3, #0
 5087 001a 44D1     		bne	.L242
3087:Drivers/STM32L4xx_HAL_Driver/Src/stm32l4xx_hal_smartcard.c ****     {
3088:Drivers/STM32L4xx_HAL_Driver/Src/stm32l4xx_hal_smartcard.c ****       /* Disable the SMARTCARD Transmit Data Register Empty Interrupt */
3089:Drivers/STM32L4xx_HAL_Driver/Src/stm32l4xx_hal_smartcard.c **** #if defined(USART_CR1_FIFOEN)
3090:Drivers/STM32L4xx_HAL_Driver/Src/stm32l4xx_hal_smartcard.c ****       CLEAR_BIT(hsmartcard->Instance->CR1, USART_CR1_TXEIE_TXFNFIE);
3091:Drivers/STM32L4xx_HAL_Driver/Src/stm32l4xx_hal_smartcard.c **** #else
3092:Drivers/STM32L4xx_HAL_Driver/Src/stm32l4xx_hal_smartcard.c ****       CLEAR_BIT(hsmartcard->Instance->CR1, USART_CR1_TXEIE);
 5088              		.loc 1 3092 7
 5089 001c 7B68     		ldr	r3, [r7, #4]
 5090 001e 1B68     		ldr	r3, [r3]
 5091 0020 1A68     		ldr	r2, [r3]
 5092 0022 7B68     		ldr	r3, [r7, #4]
 5093 0024 1B68     		ldr	r3, [r3]
 5094 0026 22F08002 		bic	r2, r2, #128
 5095 002a 1A60     		str	r2, [r3]
3093:Drivers/STM32L4xx_HAL_Driver/Src/stm32l4xx_hal_smartcard.c **** #endif /* USART_CR1_FIFOEN */
3094:Drivers/STM32L4xx_HAL_Driver/Src/stm32l4xx_hal_smartcard.c **** 
3095:Drivers/STM32L4xx_HAL_Driver/Src/stm32l4xx_hal_smartcard.c ****       /* Enable the SMARTCARD Transmit Complete Interrupt */
3096:Drivers/STM32L4xx_HAL_Driver/Src/stm32l4xx_hal_smartcard.c ****       __HAL_SMARTCARD_ENABLE_IT(hsmartcard, hsmartcard->AdvancedInit.TxCompletionIndication);
 5096              		.loc 1 3096 7
 5097 002c 7B68     		ldr	r3, [r7, #4]
 5098 002e B3F84C30 		ldrh	r3, [r3, #76]
 5099 0032 03F0E003 		and	r3, r3, #224
 5100 0036 202B     		cmp	r3, #32
 5101 0038 0ED1     		bne	.L243
 5102              		.loc 1 3096 7 is_stmt 0 discriminator 1
 5103 003a 7B68     		ldr	r3, [r7, #4]
 5104 003c 1B68     		ldr	r3, [r3]
 5105 003e 1968     		ldr	r1, [r3]
 5106 0040 7B68     		ldr	r3, [r7, #4]
 5107 0042 B3F84C30 		ldrh	r3, [r3, #76]
 5108 0046 03F01F03 		and	r3, r3, #31
 5109 004a 0122     		movs	r2, #1
 5110 004c 9A40     		lsls	r2, r2, r3
 5111 004e 7B68     		ldr	r3, [r7, #4]
ARM GAS  /tmp/ccDAjxq4.s 			page 144


 5112 0050 1B68     		ldr	r3, [r3]
 5113 0052 0A43     		orrs	r2, r2, r1
 5114 0054 1A60     		str	r2, [r3]
3097:Drivers/STM32L4xx_HAL_Driver/Src/stm32l4xx_hal_smartcard.c ****     }
3098:Drivers/STM32L4xx_HAL_Driver/Src/stm32l4xx_hal_smartcard.c ****     else
3099:Drivers/STM32L4xx_HAL_Driver/Src/stm32l4xx_hal_smartcard.c ****     {
3100:Drivers/STM32L4xx_HAL_Driver/Src/stm32l4xx_hal_smartcard.c ****       hsmartcard->Instance->TDR = (uint8_t)(*hsmartcard->pTxBuffPtr & 0xFFU);
3101:Drivers/STM32L4xx_HAL_Driver/Src/stm32l4xx_hal_smartcard.c ****       hsmartcard->pTxBuffPtr++;
3102:Drivers/STM32L4xx_HAL_Driver/Src/stm32l4xx_hal_smartcard.c ****       hsmartcard->TxXferCount--;
3103:Drivers/STM32L4xx_HAL_Driver/Src/stm32l4xx_hal_smartcard.c ****     }
3104:Drivers/STM32L4xx_HAL_Driver/Src/stm32l4xx_hal_smartcard.c ****   }
3105:Drivers/STM32L4xx_HAL_Driver/Src/stm32l4xx_hal_smartcard.c **** }
 5115              		.loc 1 3105 1 is_stmt 1
 5116 0056 3AE0     		b	.L246
 5117              	.L243:
3096:Drivers/STM32L4xx_HAL_Driver/Src/stm32l4xx_hal_smartcard.c ****     }
 5118              		.loc 1 3096 7 discriminator 2
 5119 0058 7B68     		ldr	r3, [r7, #4]
 5120 005a B3F84C30 		ldrh	r3, [r3, #76]
 5121 005e 03F0E003 		and	r3, r3, #224
 5122 0062 402B     		cmp	r3, #64
 5123 0064 0FD1     		bne	.L244
3096:Drivers/STM32L4xx_HAL_Driver/Src/stm32l4xx_hal_smartcard.c ****     }
 5124              		.loc 1 3096 7 is_stmt 0 discriminator 3
 5125 0066 7B68     		ldr	r3, [r7, #4]
 5126 0068 1B68     		ldr	r3, [r3]
 5127 006a 5968     		ldr	r1, [r3, #4]
 5128 006c 7B68     		ldr	r3, [r7, #4]
 5129 006e B3F84C30 		ldrh	r3, [r3, #76]
 5130 0072 03F01F03 		and	r3, r3, #31
 5131 0076 0122     		movs	r2, #1
 5132 0078 02FA03F3 		lsl	r3, r2, r3
 5133 007c 7A68     		ldr	r2, [r7, #4]
 5134 007e 1268     		ldr	r2, [r2]
 5135 0080 0B43     		orrs	r3, r3, r1
 5136 0082 5360     		str	r3, [r2, #4]
 5137              		.loc 1 3105 1 is_stmt 1
 5138 0084 23E0     		b	.L246
 5139              	.L244:
3096:Drivers/STM32L4xx_HAL_Driver/Src/stm32l4xx_hal_smartcard.c ****     }
 5140              		.loc 1 3096 7 discriminator 4
 5141 0086 7B68     		ldr	r3, [r7, #4]
 5142 0088 1B68     		ldr	r3, [r3]
 5143 008a 9968     		ldr	r1, [r3, #8]
 5144 008c 7B68     		ldr	r3, [r7, #4]
 5145 008e B3F84C30 		ldrh	r3, [r3, #76]
 5146 0092 03F01F03 		and	r3, r3, #31
 5147 0096 0122     		movs	r2, #1
 5148 0098 02FA03F3 		lsl	r3, r2, r3
 5149 009c 7A68     		ldr	r2, [r7, #4]
 5150 009e 1268     		ldr	r2, [r2]
 5151 00a0 0B43     		orrs	r3, r3, r1
 5152 00a2 9360     		str	r3, [r2, #8]
 5153              		.loc 1 3105 1
 5154 00a4 13E0     		b	.L246
 5155              	.L242:
3100:Drivers/STM32L4xx_HAL_Driver/Src/stm32l4xx_hal_smartcard.c ****       hsmartcard->pTxBuffPtr++;
ARM GAS  /tmp/ccDAjxq4.s 			page 145


 5156              		.loc 1 3100 56
 5157 00a6 7B68     		ldr	r3, [r7, #4]
 5158 00a8 1B6D     		ldr	r3, [r3, #80]
3100:Drivers/STM32L4xx_HAL_Driver/Src/stm32l4xx_hal_smartcard.c ****       hsmartcard->pTxBuffPtr++;
 5159              		.loc 1 3100 45
 5160 00aa 1A78     		ldrb	r2, [r3]	@ zero_extendqisi2
3100:Drivers/STM32L4xx_HAL_Driver/Src/stm32l4xx_hal_smartcard.c ****       hsmartcard->pTxBuffPtr++;
 5161              		.loc 1 3100 17
 5162 00ac 7B68     		ldr	r3, [r7, #4]
 5163 00ae 1B68     		ldr	r3, [r3]
3100:Drivers/STM32L4xx_HAL_Driver/Src/stm32l4xx_hal_smartcard.c ****       hsmartcard->pTxBuffPtr++;
 5164              		.loc 1 3100 33
 5165 00b0 9A62     		str	r2, [r3, #40]
3101:Drivers/STM32L4xx_HAL_Driver/Src/stm32l4xx_hal_smartcard.c ****       hsmartcard->TxXferCount--;
 5166              		.loc 1 3101 17
 5167 00b2 7B68     		ldr	r3, [r7, #4]
 5168 00b4 1B6D     		ldr	r3, [r3, #80]
3101:Drivers/STM32L4xx_HAL_Driver/Src/stm32l4xx_hal_smartcard.c ****       hsmartcard->TxXferCount--;
 5169              		.loc 1 3101 29
 5170 00b6 5A1C     		adds	r2, r3, #1
 5171 00b8 7B68     		ldr	r3, [r7, #4]
 5172 00ba 1A65     		str	r2, [r3, #80]
3102:Drivers/STM32L4xx_HAL_Driver/Src/stm32l4xx_hal_smartcard.c ****     }
 5173              		.loc 1 3102 17
 5174 00bc 7B68     		ldr	r3, [r7, #4]
 5175 00be B3F85630 		ldrh	r3, [r3, #86]	@ movhi
 5176 00c2 9BB2     		uxth	r3, r3
3102:Drivers/STM32L4xx_HAL_Driver/Src/stm32l4xx_hal_smartcard.c ****     }
 5177              		.loc 1 3102 30
 5178 00c4 013B     		subs	r3, r3, #1
 5179 00c6 9AB2     		uxth	r2, r3
 5180 00c8 7B68     		ldr	r3, [r7, #4]
 5181 00ca A3F85620 		strh	r2, [r3, #86]	@ movhi
 5182              	.L246:
 5183              		.loc 1 3105 1
 5184 00ce 00BF     		nop
 5185 00d0 0C37     		adds	r7, r7, #12
 5186              		.cfi_def_cfa_offset 4
 5187 00d2 BD46     		mov	sp, r7
 5188              		.cfi_def_cfa_register 13
 5189              		@ sp needed
 5190 00d4 5DF8047B 		ldr	r7, [sp], #4
 5191              		.cfi_restore 7
 5192              		.cfi_def_cfa_offset 0
 5193 00d8 7047     		bx	lr
 5194              		.cfi_endproc
 5195              	.LFE484:
 5197              		.section	.text.SMARTCARD_EndTransmit_IT,"ax",%progbits
 5198              		.align	1
 5199              		.syntax unified
 5200              		.thumb
 5201              		.thumb_func
 5203              	SMARTCARD_EndTransmit_IT:
 5204              	.LFB485:
3106:Drivers/STM32L4xx_HAL_Driver/Src/stm32l4xx_hal_smartcard.c **** 
3107:Drivers/STM32L4xx_HAL_Driver/Src/stm32l4xx_hal_smartcard.c **** #if defined(USART_CR1_FIFOEN)
3108:Drivers/STM32L4xx_HAL_Driver/Src/stm32l4xx_hal_smartcard.c **** /**
ARM GAS  /tmp/ccDAjxq4.s 			page 146


3109:Drivers/STM32L4xx_HAL_Driver/Src/stm32l4xx_hal_smartcard.c ****   * @brief  Send an amount of data in non-blocking mode.
3110:Drivers/STM32L4xx_HAL_Driver/Src/stm32l4xx_hal_smartcard.c ****   * @note   Function called under interruption only, once
3111:Drivers/STM32L4xx_HAL_Driver/Src/stm32l4xx_hal_smartcard.c ****   *         interruptions have been enabled by HAL_SMARTCARD_Transmit_IT()
3112:Drivers/STM32L4xx_HAL_Driver/Src/stm32l4xx_hal_smartcard.c ****   *         and when the FIFO mode is enabled.
3113:Drivers/STM32L4xx_HAL_Driver/Src/stm32l4xx_hal_smartcard.c ****   * @param  hsmartcard Pointer to a SMARTCARD_HandleTypeDef structure that contains
3114:Drivers/STM32L4xx_HAL_Driver/Src/stm32l4xx_hal_smartcard.c ****   *                    the configuration information for the specified SMARTCARD module.
3115:Drivers/STM32L4xx_HAL_Driver/Src/stm32l4xx_hal_smartcard.c ****   * @retval None
3116:Drivers/STM32L4xx_HAL_Driver/Src/stm32l4xx_hal_smartcard.c ****   */
3117:Drivers/STM32L4xx_HAL_Driver/Src/stm32l4xx_hal_smartcard.c **** static void SMARTCARD_TxISR_FIFOEN(SMARTCARD_HandleTypeDef *hsmartcard)
3118:Drivers/STM32L4xx_HAL_Driver/Src/stm32l4xx_hal_smartcard.c **** {
3119:Drivers/STM32L4xx_HAL_Driver/Src/stm32l4xx_hal_smartcard.c ****   uint16_t   nb_tx_data;
3120:Drivers/STM32L4xx_HAL_Driver/Src/stm32l4xx_hal_smartcard.c **** 
3121:Drivers/STM32L4xx_HAL_Driver/Src/stm32l4xx_hal_smartcard.c ****   /* Check that a Tx process is ongoing */
3122:Drivers/STM32L4xx_HAL_Driver/Src/stm32l4xx_hal_smartcard.c ****   if (hsmartcard->gState == HAL_SMARTCARD_STATE_BUSY_TX)
3123:Drivers/STM32L4xx_HAL_Driver/Src/stm32l4xx_hal_smartcard.c ****   {
3124:Drivers/STM32L4xx_HAL_Driver/Src/stm32l4xx_hal_smartcard.c ****     for (nb_tx_data = hsmartcard->NbTxDataToProcess ; nb_tx_data > 0U ; nb_tx_data--)
3125:Drivers/STM32L4xx_HAL_Driver/Src/stm32l4xx_hal_smartcard.c ****     {
3126:Drivers/STM32L4xx_HAL_Driver/Src/stm32l4xx_hal_smartcard.c ****       if (hsmartcard->TxXferCount == 0U)
3127:Drivers/STM32L4xx_HAL_Driver/Src/stm32l4xx_hal_smartcard.c ****       {
3128:Drivers/STM32L4xx_HAL_Driver/Src/stm32l4xx_hal_smartcard.c ****         /* Disable the SMARTCARD Transmit Data Register Empty Interrupt */
3129:Drivers/STM32L4xx_HAL_Driver/Src/stm32l4xx_hal_smartcard.c ****         CLEAR_BIT(hsmartcard->Instance->CR1, USART_CR1_TXEIE_TXFNFIE);
3130:Drivers/STM32L4xx_HAL_Driver/Src/stm32l4xx_hal_smartcard.c **** 
3131:Drivers/STM32L4xx_HAL_Driver/Src/stm32l4xx_hal_smartcard.c ****         /* Enable the SMARTCARD Transmit Complete Interrupt */
3132:Drivers/STM32L4xx_HAL_Driver/Src/stm32l4xx_hal_smartcard.c ****         __HAL_SMARTCARD_ENABLE_IT(hsmartcard, hsmartcard->AdvancedInit.TxCompletionIndication);
3133:Drivers/STM32L4xx_HAL_Driver/Src/stm32l4xx_hal_smartcard.c ****       }
3134:Drivers/STM32L4xx_HAL_Driver/Src/stm32l4xx_hal_smartcard.c ****       else if (READ_BIT(hsmartcard->Instance->ISR, USART_ISR_TXE_TXFNF) != 0U)
3135:Drivers/STM32L4xx_HAL_Driver/Src/stm32l4xx_hal_smartcard.c ****       {
3136:Drivers/STM32L4xx_HAL_Driver/Src/stm32l4xx_hal_smartcard.c ****         hsmartcard->Instance->TDR = (uint8_t)(*hsmartcard->pTxBuffPtr & 0xFFU);
3137:Drivers/STM32L4xx_HAL_Driver/Src/stm32l4xx_hal_smartcard.c ****         hsmartcard->pTxBuffPtr++;
3138:Drivers/STM32L4xx_HAL_Driver/Src/stm32l4xx_hal_smartcard.c ****         hsmartcard->TxXferCount--;
3139:Drivers/STM32L4xx_HAL_Driver/Src/stm32l4xx_hal_smartcard.c ****       }
3140:Drivers/STM32L4xx_HAL_Driver/Src/stm32l4xx_hal_smartcard.c ****       else
3141:Drivers/STM32L4xx_HAL_Driver/Src/stm32l4xx_hal_smartcard.c ****       {
3142:Drivers/STM32L4xx_HAL_Driver/Src/stm32l4xx_hal_smartcard.c ****         /* Nothing to do */
3143:Drivers/STM32L4xx_HAL_Driver/Src/stm32l4xx_hal_smartcard.c ****       }
3144:Drivers/STM32L4xx_HAL_Driver/Src/stm32l4xx_hal_smartcard.c ****     }
3145:Drivers/STM32L4xx_HAL_Driver/Src/stm32l4xx_hal_smartcard.c ****   }
3146:Drivers/STM32L4xx_HAL_Driver/Src/stm32l4xx_hal_smartcard.c **** }
3147:Drivers/STM32L4xx_HAL_Driver/Src/stm32l4xx_hal_smartcard.c **** 
3148:Drivers/STM32L4xx_HAL_Driver/Src/stm32l4xx_hal_smartcard.c **** #endif /* USART_CR1_FIFOEN */
3149:Drivers/STM32L4xx_HAL_Driver/Src/stm32l4xx_hal_smartcard.c **** /**
3150:Drivers/STM32L4xx_HAL_Driver/Src/stm32l4xx_hal_smartcard.c ****   * @brief  Wrap up transmission in non-blocking mode.
3151:Drivers/STM32L4xx_HAL_Driver/Src/stm32l4xx_hal_smartcard.c ****   * @param  hsmartcard Pointer to a SMARTCARD_HandleTypeDef structure that contains
3152:Drivers/STM32L4xx_HAL_Driver/Src/stm32l4xx_hal_smartcard.c ****   *                    the configuration information for the specified SMARTCARD module.
3153:Drivers/STM32L4xx_HAL_Driver/Src/stm32l4xx_hal_smartcard.c ****   * @retval None
3154:Drivers/STM32L4xx_HAL_Driver/Src/stm32l4xx_hal_smartcard.c ****   */
3155:Drivers/STM32L4xx_HAL_Driver/Src/stm32l4xx_hal_smartcard.c **** static void SMARTCARD_EndTransmit_IT(SMARTCARD_HandleTypeDef *hsmartcard)
3156:Drivers/STM32L4xx_HAL_Driver/Src/stm32l4xx_hal_smartcard.c **** {
 5205              		.loc 1 3156 1
 5206              		.cfi_startproc
 5207              		@ args = 0, pretend = 0, frame = 8
 5208              		@ frame_needed = 1, uses_anonymous_args = 0
 5209 0000 80B5     		push	{r7, lr}
 5210              		.cfi_def_cfa_offset 8
 5211              		.cfi_offset 7, -8
 5212              		.cfi_offset 14, -4
 5213 0002 82B0     		sub	sp, sp, #8
ARM GAS  /tmp/ccDAjxq4.s 			page 147


 5214              		.cfi_def_cfa_offset 16
 5215 0004 00AF     		add	r7, sp, #0
 5216              		.cfi_def_cfa_register 7
 5217 0006 7860     		str	r0, [r7, #4]
3157:Drivers/STM32L4xx_HAL_Driver/Src/stm32l4xx_hal_smartcard.c ****   /* Disable the SMARTCARD Transmit Complete Interrupt */
3158:Drivers/STM32L4xx_HAL_Driver/Src/stm32l4xx_hal_smartcard.c ****   __HAL_SMARTCARD_DISABLE_IT(hsmartcard, hsmartcard->AdvancedInit.TxCompletionIndication);
 5218              		.loc 1 3158 3
 5219 0008 7B68     		ldr	r3, [r7, #4]
 5220 000a B3F84C30 		ldrh	r3, [r3, #76]
 5221 000e 03F0E003 		and	r3, r3, #224
 5222 0012 202B     		cmp	r3, #32
 5223 0014 10D1     		bne	.L248
 5224              		.loc 1 3158 3 is_stmt 0 discriminator 1
 5225 0016 7B68     		ldr	r3, [r7, #4]
 5226 0018 1B68     		ldr	r3, [r3]
 5227 001a 1968     		ldr	r1, [r3]
 5228 001c 7B68     		ldr	r3, [r7, #4]
 5229 001e B3F84C30 		ldrh	r3, [r3, #76]
 5230 0022 03F01F03 		and	r3, r3, #31
 5231 0026 0122     		movs	r2, #1
 5232 0028 02FA03F3 		lsl	r3, r2, r3
 5233 002c DA43     		mvns	r2, r3
 5234 002e 7B68     		ldr	r3, [r7, #4]
 5235 0030 1B68     		ldr	r3, [r3]
 5236 0032 0A40     		ands	r2, r2, r1
 5237 0034 1A60     		str	r2, [r3]
 5238 0036 27E0     		b	.L249
 5239              	.L248:
 5240              		.loc 1 3158 3 discriminator 2
 5241 0038 7B68     		ldr	r3, [r7, #4]
 5242 003a B3F84C30 		ldrh	r3, [r3, #76]
 5243 003e 03F0E003 		and	r3, r3, #224
 5244 0042 402B     		cmp	r3, #64
 5245 0044 10D1     		bne	.L250
 5246              		.loc 1 3158 3 discriminator 3
 5247 0046 7B68     		ldr	r3, [r7, #4]
 5248 0048 1B68     		ldr	r3, [r3]
 5249 004a 5968     		ldr	r1, [r3, #4]
 5250 004c 7B68     		ldr	r3, [r7, #4]
 5251 004e B3F84C30 		ldrh	r3, [r3, #76]
 5252 0052 03F01F03 		and	r3, r3, #31
 5253 0056 0122     		movs	r2, #1
 5254 0058 02FA03F3 		lsl	r3, r2, r3
 5255 005c DB43     		mvns	r3, r3
 5256 005e 7A68     		ldr	r2, [r7, #4]
 5257 0060 1268     		ldr	r2, [r2]
 5258 0062 0B40     		ands	r3, r3, r1
 5259 0064 5360     		str	r3, [r2, #4]
 5260 0066 0FE0     		b	.L249
 5261              	.L250:
 5262              		.loc 1 3158 3 discriminator 4
 5263 0068 7B68     		ldr	r3, [r7, #4]
 5264 006a 1B68     		ldr	r3, [r3]
 5265 006c 9968     		ldr	r1, [r3, #8]
 5266 006e 7B68     		ldr	r3, [r7, #4]
 5267 0070 B3F84C30 		ldrh	r3, [r3, #76]
 5268 0074 03F01F03 		and	r3, r3, #31
ARM GAS  /tmp/ccDAjxq4.s 			page 148


 5269 0078 0122     		movs	r2, #1
 5270 007a 02FA03F3 		lsl	r3, r2, r3
 5271 007e DB43     		mvns	r3, r3
 5272 0080 7A68     		ldr	r2, [r7, #4]
 5273 0082 1268     		ldr	r2, [r2]
 5274 0084 0B40     		ands	r3, r3, r1
 5275 0086 9360     		str	r3, [r2, #8]
 5276              	.L249:
3159:Drivers/STM32L4xx_HAL_Driver/Src/stm32l4xx_hal_smartcard.c **** 
3160:Drivers/STM32L4xx_HAL_Driver/Src/stm32l4xx_hal_smartcard.c ****   /* Check if a receive process is ongoing or not. If not disable ERR IT */
3161:Drivers/STM32L4xx_HAL_Driver/Src/stm32l4xx_hal_smartcard.c ****   if (hsmartcard->RxState == HAL_SMARTCARD_STATE_READY)
 5277              		.loc 1 3161 17 is_stmt 1
 5278 0088 7B68     		ldr	r3, [r7, #4]
 5279 008a 9B6F     		ldr	r3, [r3, #120]
 5280              		.loc 1 3161 6
 5281 008c 202B     		cmp	r3, #32
 5282 008e 07D1     		bne	.L252
3162:Drivers/STM32L4xx_HAL_Driver/Src/stm32l4xx_hal_smartcard.c ****   {
3163:Drivers/STM32L4xx_HAL_Driver/Src/stm32l4xx_hal_smartcard.c ****     /* Disable the SMARTCARD Error Interrupt: (Frame error) */
3164:Drivers/STM32L4xx_HAL_Driver/Src/stm32l4xx_hal_smartcard.c ****     CLEAR_BIT(hsmartcard->Instance->CR3, USART_CR3_EIE);
 5283              		.loc 1 3164 5
 5284 0090 7B68     		ldr	r3, [r7, #4]
 5285 0092 1B68     		ldr	r3, [r3]
 5286 0094 9A68     		ldr	r2, [r3, #8]
 5287 0096 7B68     		ldr	r3, [r7, #4]
 5288 0098 1B68     		ldr	r3, [r3]
 5289 009a 22F00102 		bic	r2, r2, #1
 5290 009e 9A60     		str	r2, [r3, #8]
 5291              	.L252:
3165:Drivers/STM32L4xx_HAL_Driver/Src/stm32l4xx_hal_smartcard.c ****   }
3166:Drivers/STM32L4xx_HAL_Driver/Src/stm32l4xx_hal_smartcard.c **** 
3167:Drivers/STM32L4xx_HAL_Driver/Src/stm32l4xx_hal_smartcard.c ****   /* Disable the Peripheral first to update mode */
3168:Drivers/STM32L4xx_HAL_Driver/Src/stm32l4xx_hal_smartcard.c ****   CLEAR_BIT(hsmartcard->Instance->CR1, USART_CR1_UE);
 5292              		.loc 1 3168 3
 5293 00a0 7B68     		ldr	r3, [r7, #4]
 5294 00a2 1B68     		ldr	r3, [r3]
 5295 00a4 1A68     		ldr	r2, [r3]
 5296 00a6 7B68     		ldr	r3, [r7, #4]
 5297 00a8 1B68     		ldr	r3, [r3]
 5298 00aa 22F00102 		bic	r2, r2, #1
 5299 00ae 1A60     		str	r2, [r3]
3169:Drivers/STM32L4xx_HAL_Driver/Src/stm32l4xx_hal_smartcard.c ****   if ((hsmartcard->Init.Mode == SMARTCARD_MODE_TX)
 5300              		.loc 1 3169 24
 5301 00b0 7B68     		ldr	r3, [r7, #4]
 5302 00b2 5B8A     		ldrh	r3, [r3, #18]
 5303              		.loc 1 3169 6
 5304 00b4 082B     		cmp	r3, #8
 5305 00b6 0BD1     		bne	.L253
3170:Drivers/STM32L4xx_HAL_Driver/Src/stm32l4xx_hal_smartcard.c ****       && (hsmartcard->Init.NACKEnable == SMARTCARD_NACK_ENABLE))
 5306              		.loc 1 3170 27
 5307 00b8 7B68     		ldr	r3, [r7, #4]
 5308 00ba DB8B     		ldrh	r3, [r3, #30]
 5309              		.loc 1 3170 7
 5310 00bc 102B     		cmp	r3, #16
 5311 00be 07D1     		bne	.L253
3171:Drivers/STM32L4xx_HAL_Driver/Src/stm32l4xx_hal_smartcard.c ****   {
3172:Drivers/STM32L4xx_HAL_Driver/Src/stm32l4xx_hal_smartcard.c ****     /* In case of TX only mode, if NACK is enabled, receiver block has been enabled
ARM GAS  /tmp/ccDAjxq4.s 			page 149


3173:Drivers/STM32L4xx_HAL_Driver/Src/stm32l4xx_hal_smartcard.c ****        for Transmit phase. Disable this receiver block. */
3174:Drivers/STM32L4xx_HAL_Driver/Src/stm32l4xx_hal_smartcard.c ****     CLEAR_BIT(hsmartcard->Instance->CR1, USART_CR1_RE);
 5312              		.loc 1 3174 5
 5313 00c0 7B68     		ldr	r3, [r7, #4]
 5314 00c2 1B68     		ldr	r3, [r3]
 5315 00c4 1A68     		ldr	r2, [r3]
 5316 00c6 7B68     		ldr	r3, [r7, #4]
 5317 00c8 1B68     		ldr	r3, [r3]
 5318 00ca 22F00402 		bic	r2, r2, #4
 5319 00ce 1A60     		str	r2, [r3]
 5320              	.L253:
3175:Drivers/STM32L4xx_HAL_Driver/Src/stm32l4xx_hal_smartcard.c ****   }
3176:Drivers/STM32L4xx_HAL_Driver/Src/stm32l4xx_hal_smartcard.c ****   if ((hsmartcard->Init.Mode == SMARTCARD_MODE_TX_RX)
 5321              		.loc 1 3176 24
 5322 00d0 7B68     		ldr	r3, [r7, #4]
 5323 00d2 5B8A     		ldrh	r3, [r3, #18]
 5324              		.loc 1 3176 6
 5325 00d4 0C2B     		cmp	r3, #12
 5326 00d6 03D0     		beq	.L254
3177:Drivers/STM32L4xx_HAL_Driver/Src/stm32l4xx_hal_smartcard.c ****       || (hsmartcard->Init.NACKEnable == SMARTCARD_NACK_ENABLE))
 5327              		.loc 1 3177 27
 5328 00d8 7B68     		ldr	r3, [r7, #4]
 5329 00da DB8B     		ldrh	r3, [r3, #30]
 5330              		.loc 1 3177 7
 5331 00dc 102B     		cmp	r3, #16
 5332 00de 0FD1     		bne	.L255
 5333              	.L254:
3178:Drivers/STM32L4xx_HAL_Driver/Src/stm32l4xx_hal_smartcard.c ****   {
3179:Drivers/STM32L4xx_HAL_Driver/Src/stm32l4xx_hal_smartcard.c ****     /* Perform a TX FIFO Flush at end of Tx phase, as all sent bytes are appearing in Rx Data regis
3180:Drivers/STM32L4xx_HAL_Driver/Src/stm32l4xx_hal_smartcard.c ****     __HAL_SMARTCARD_FLUSH_DRREGISTER(hsmartcard);
 5334              		.loc 1 3180 5
 5335 00e0 7B68     		ldr	r3, [r7, #4]
 5336 00e2 1B68     		ldr	r3, [r3]
 5337 00e4 9A69     		ldr	r2, [r3, #24]
 5338 00e6 7B68     		ldr	r3, [r7, #4]
 5339 00e8 1B68     		ldr	r3, [r3]
 5340 00ea 42F00802 		orr	r2, r2, #8
 5341 00ee 9A61     		str	r2, [r3, #24]
 5342 00f0 7B68     		ldr	r3, [r7, #4]
 5343 00f2 1B68     		ldr	r3, [r3]
 5344 00f4 9A69     		ldr	r2, [r3, #24]
 5345 00f6 7B68     		ldr	r3, [r7, #4]
 5346 00f8 1B68     		ldr	r3, [r3]
 5347 00fa 42F01002 		orr	r2, r2, #16
 5348 00fe 9A61     		str	r2, [r3, #24]
 5349              	.L255:
3181:Drivers/STM32L4xx_HAL_Driver/Src/stm32l4xx_hal_smartcard.c ****   }
3182:Drivers/STM32L4xx_HAL_Driver/Src/stm32l4xx_hal_smartcard.c ****   SET_BIT(hsmartcard->Instance->CR1, USART_CR1_UE);
 5350              		.loc 1 3182 3
 5351 0100 7B68     		ldr	r3, [r7, #4]
 5352 0102 1B68     		ldr	r3, [r3]
 5353 0104 1A68     		ldr	r2, [r3]
 5354 0106 7B68     		ldr	r3, [r7, #4]
 5355 0108 1B68     		ldr	r3, [r3]
 5356 010a 42F00102 		orr	r2, r2, #1
 5357 010e 1A60     		str	r2, [r3]
3183:Drivers/STM32L4xx_HAL_Driver/Src/stm32l4xx_hal_smartcard.c **** 
ARM GAS  /tmp/ccDAjxq4.s 			page 150


3184:Drivers/STM32L4xx_HAL_Driver/Src/stm32l4xx_hal_smartcard.c ****   /* Tx process is ended, restore hsmartcard->gState to Ready */
3185:Drivers/STM32L4xx_HAL_Driver/Src/stm32l4xx_hal_smartcard.c ****   hsmartcard->gState = HAL_SMARTCARD_STATE_READY;
 5358              		.loc 1 3185 22
 5359 0110 7B68     		ldr	r3, [r7, #4]
 5360 0112 2022     		movs	r2, #32
 5361 0114 5A67     		str	r2, [r3, #116]
3186:Drivers/STM32L4xx_HAL_Driver/Src/stm32l4xx_hal_smartcard.c **** 
3187:Drivers/STM32L4xx_HAL_Driver/Src/stm32l4xx_hal_smartcard.c ****   /* Clear TxISR function pointer */
3188:Drivers/STM32L4xx_HAL_Driver/Src/stm32l4xx_hal_smartcard.c ****   hsmartcard->TxISR = NULL;
 5362              		.loc 1 3188 21
 5363 0116 7B68     		ldr	r3, [r7, #4]
 5364 0118 0022     		movs	r2, #0
 5365 011a 5A66     		str	r2, [r3, #100]
3189:Drivers/STM32L4xx_HAL_Driver/Src/stm32l4xx_hal_smartcard.c **** 
3190:Drivers/STM32L4xx_HAL_Driver/Src/stm32l4xx_hal_smartcard.c **** #if (USE_HAL_SMARTCARD_REGISTER_CALLBACKS == 1)
3191:Drivers/STM32L4xx_HAL_Driver/Src/stm32l4xx_hal_smartcard.c ****   /* Call registered Tx complete callback */
3192:Drivers/STM32L4xx_HAL_Driver/Src/stm32l4xx_hal_smartcard.c ****   hsmartcard->TxCpltCallback(hsmartcard);
3193:Drivers/STM32L4xx_HAL_Driver/Src/stm32l4xx_hal_smartcard.c **** #else
3194:Drivers/STM32L4xx_HAL_Driver/Src/stm32l4xx_hal_smartcard.c ****   /* Call legacy weak Tx complete callback */
3195:Drivers/STM32L4xx_HAL_Driver/Src/stm32l4xx_hal_smartcard.c ****   HAL_SMARTCARD_TxCpltCallback(hsmartcard);
 5366              		.loc 1 3195 3
 5367 011c 7868     		ldr	r0, [r7, #4]
 5368 011e FFF7FEFF 		bl	HAL_SMARTCARD_TxCpltCallback
3196:Drivers/STM32L4xx_HAL_Driver/Src/stm32l4xx_hal_smartcard.c **** #endif /* USE_HAL_SMARTCARD_REGISTER_CALLBACK */
3197:Drivers/STM32L4xx_HAL_Driver/Src/stm32l4xx_hal_smartcard.c **** }
 5369              		.loc 1 3197 1
 5370 0122 00BF     		nop
 5371 0124 0837     		adds	r7, r7, #8
 5372              		.cfi_def_cfa_offset 8
 5373 0126 BD46     		mov	sp, r7
 5374              		.cfi_def_cfa_register 13
 5375              		@ sp needed
 5376 0128 80BD     		pop	{r7, pc}
 5377              		.cfi_endproc
 5378              	.LFE485:
 5380              		.section	.text.SMARTCARD_RxISR,"ax",%progbits
 5381              		.align	1
 5382              		.syntax unified
 5383              		.thumb
 5384              		.thumb_func
 5386              	SMARTCARD_RxISR:
 5387              	.LFB486:
3198:Drivers/STM32L4xx_HAL_Driver/Src/stm32l4xx_hal_smartcard.c **** 
3199:Drivers/STM32L4xx_HAL_Driver/Src/stm32l4xx_hal_smartcard.c **** /**
3200:Drivers/STM32L4xx_HAL_Driver/Src/stm32l4xx_hal_smartcard.c ****   * @brief  Receive an amount of data in non-blocking mode.
3201:Drivers/STM32L4xx_HAL_Driver/Src/stm32l4xx_hal_smartcard.c ****   * @note   Function called under interruption only, once
3202:Drivers/STM32L4xx_HAL_Driver/Src/stm32l4xx_hal_smartcard.c ****   *         interruptions have been enabled by HAL_SMARTCARD_Receive_IT()
3203:Drivers/STM32L4xx_HAL_Driver/Src/stm32l4xx_hal_smartcard.c ****   *         and when the FIFO mode is disabled.
3204:Drivers/STM32L4xx_HAL_Driver/Src/stm32l4xx_hal_smartcard.c ****   * @param  hsmartcard Pointer to a SMARTCARD_HandleTypeDef structure that contains
3205:Drivers/STM32L4xx_HAL_Driver/Src/stm32l4xx_hal_smartcard.c ****   *                    the configuration information for the specified SMARTCARD module.
3206:Drivers/STM32L4xx_HAL_Driver/Src/stm32l4xx_hal_smartcard.c ****   * @retval None
3207:Drivers/STM32L4xx_HAL_Driver/Src/stm32l4xx_hal_smartcard.c ****   */
3208:Drivers/STM32L4xx_HAL_Driver/Src/stm32l4xx_hal_smartcard.c **** static void SMARTCARD_RxISR(SMARTCARD_HandleTypeDef *hsmartcard)
3209:Drivers/STM32L4xx_HAL_Driver/Src/stm32l4xx_hal_smartcard.c **** {
 5388              		.loc 1 3209 1
 5389              		.cfi_startproc
 5390              		@ args = 0, pretend = 0, frame = 8
ARM GAS  /tmp/ccDAjxq4.s 			page 151


 5391              		@ frame_needed = 1, uses_anonymous_args = 0
 5392 0000 80B5     		push	{r7, lr}
 5393              		.cfi_def_cfa_offset 8
 5394              		.cfi_offset 7, -8
 5395              		.cfi_offset 14, -4
 5396 0002 82B0     		sub	sp, sp, #8
 5397              		.cfi_def_cfa_offset 16
 5398 0004 00AF     		add	r7, sp, #0
 5399              		.cfi_def_cfa_register 7
 5400 0006 7860     		str	r0, [r7, #4]
3210:Drivers/STM32L4xx_HAL_Driver/Src/stm32l4xx_hal_smartcard.c ****   /* Check that a Rx process is ongoing */
3211:Drivers/STM32L4xx_HAL_Driver/Src/stm32l4xx_hal_smartcard.c ****   if (hsmartcard->RxState == HAL_SMARTCARD_STATE_BUSY_RX)
 5401              		.loc 1 3211 17
 5402 0008 7B68     		ldr	r3, [r7, #4]
 5403 000a 9B6F     		ldr	r3, [r3, #120]
 5404              		.loc 1 3211 6
 5405 000c 222B     		cmp	r3, #34
 5406 000e 40D1     		bne	.L257
3212:Drivers/STM32L4xx_HAL_Driver/Src/stm32l4xx_hal_smartcard.c ****   {
3213:Drivers/STM32L4xx_HAL_Driver/Src/stm32l4xx_hal_smartcard.c ****     *hsmartcard->pRxBuffPtr = (uint8_t)(hsmartcard->Instance->RDR & (uint8_t)0xFF);
 5407              		.loc 1 3213 51
 5408 0010 7B68     		ldr	r3, [r7, #4]
 5409 0012 1B68     		ldr	r3, [r3]
 5410              		.loc 1 3213 61
 5411 0014 5A6A     		ldr	r2, [r3, #36]
 5412              		.loc 1 3213 16
 5413 0016 7B68     		ldr	r3, [r7, #4]
 5414 0018 9B6D     		ldr	r3, [r3, #88]
 5415              		.loc 1 3213 31
 5416 001a D2B2     		uxtb	r2, r2
 5417              		.loc 1 3213 29
 5418 001c 1A70     		strb	r2, [r3]
3214:Drivers/STM32L4xx_HAL_Driver/Src/stm32l4xx_hal_smartcard.c ****     hsmartcard->pRxBuffPtr++;
 5419              		.loc 1 3214 15
 5420 001e 7B68     		ldr	r3, [r7, #4]
 5421 0020 9B6D     		ldr	r3, [r3, #88]
 5422              		.loc 1 3214 27
 5423 0022 5A1C     		adds	r2, r3, #1
 5424 0024 7B68     		ldr	r3, [r7, #4]
 5425 0026 9A65     		str	r2, [r3, #88]
3215:Drivers/STM32L4xx_HAL_Driver/Src/stm32l4xx_hal_smartcard.c **** 
3216:Drivers/STM32L4xx_HAL_Driver/Src/stm32l4xx_hal_smartcard.c ****     hsmartcard->RxXferCount--;
 5426              		.loc 1 3216 15
 5427 0028 7B68     		ldr	r3, [r7, #4]
 5428 002a B3F85E30 		ldrh	r3, [r3, #94]	@ movhi
 5429 002e 9BB2     		uxth	r3, r3
 5430              		.loc 1 3216 28
 5431 0030 013B     		subs	r3, r3, #1
 5432 0032 9AB2     		uxth	r2, r3
 5433 0034 7B68     		ldr	r3, [r7, #4]
 5434 0036 A3F85E20 		strh	r2, [r3, #94]	@ movhi
3217:Drivers/STM32L4xx_HAL_Driver/Src/stm32l4xx_hal_smartcard.c ****     if (hsmartcard->RxXferCount == 0U)
 5435              		.loc 1 3217 19
 5436 003a 7B68     		ldr	r3, [r7, #4]
 5437 003c B3F85E30 		ldrh	r3, [r3, #94]	@ movhi
 5438 0040 9BB2     		uxth	r3, r3
 5439              		.loc 1 3217 8
ARM GAS  /tmp/ccDAjxq4.s 			page 152


 5440 0042 002B     		cmp	r3, #0
 5441 0044 2DD1     		bne	.L260
3218:Drivers/STM32L4xx_HAL_Driver/Src/stm32l4xx_hal_smartcard.c ****     {
3219:Drivers/STM32L4xx_HAL_Driver/Src/stm32l4xx_hal_smartcard.c **** #if defined(USART_CR1_FIFOEN)
3220:Drivers/STM32L4xx_HAL_Driver/Src/stm32l4xx_hal_smartcard.c ****       CLEAR_BIT(hsmartcard->Instance->CR1, USART_CR1_RXNEIE_RXFNEIE);
3221:Drivers/STM32L4xx_HAL_Driver/Src/stm32l4xx_hal_smartcard.c **** #else
3222:Drivers/STM32L4xx_HAL_Driver/Src/stm32l4xx_hal_smartcard.c ****       CLEAR_BIT(hsmartcard->Instance->CR1, USART_CR1_RXNEIE);
 5442              		.loc 1 3222 7
 5443 0046 7B68     		ldr	r3, [r7, #4]
 5444 0048 1B68     		ldr	r3, [r3]
 5445 004a 1A68     		ldr	r2, [r3]
 5446 004c 7B68     		ldr	r3, [r7, #4]
 5447 004e 1B68     		ldr	r3, [r3]
 5448 0050 22F02002 		bic	r2, r2, #32
 5449 0054 1A60     		str	r2, [r3]
3223:Drivers/STM32L4xx_HAL_Driver/Src/stm32l4xx_hal_smartcard.c **** #endif /* USART_CR1_FIFOEN */
3224:Drivers/STM32L4xx_HAL_Driver/Src/stm32l4xx_hal_smartcard.c **** 
3225:Drivers/STM32L4xx_HAL_Driver/Src/stm32l4xx_hal_smartcard.c ****       /* Check if a transmit process is ongoing or not. If not disable ERR IT */
3226:Drivers/STM32L4xx_HAL_Driver/Src/stm32l4xx_hal_smartcard.c ****       if (hsmartcard->gState == HAL_SMARTCARD_STATE_READY)
 5450              		.loc 1 3226 21
 5451 0056 7B68     		ldr	r3, [r7, #4]
 5452 0058 5B6F     		ldr	r3, [r3, #116]
 5453              		.loc 1 3226 10
 5454 005a 202B     		cmp	r3, #32
 5455 005c 07D1     		bne	.L259
3227:Drivers/STM32L4xx_HAL_Driver/Src/stm32l4xx_hal_smartcard.c ****       {
3228:Drivers/STM32L4xx_HAL_Driver/Src/stm32l4xx_hal_smartcard.c ****         /* Disable the SMARTCARD Error Interrupt: (Frame error, noise error, overrun error) */
3229:Drivers/STM32L4xx_HAL_Driver/Src/stm32l4xx_hal_smartcard.c ****         CLEAR_BIT(hsmartcard->Instance->CR3, USART_CR3_EIE);
 5456              		.loc 1 3229 9
 5457 005e 7B68     		ldr	r3, [r7, #4]
 5458 0060 1B68     		ldr	r3, [r3]
 5459 0062 9A68     		ldr	r2, [r3, #8]
 5460 0064 7B68     		ldr	r3, [r7, #4]
 5461 0066 1B68     		ldr	r3, [r3]
 5462 0068 22F00102 		bic	r2, r2, #1
 5463 006c 9A60     		str	r2, [r3, #8]
 5464              	.L259:
3230:Drivers/STM32L4xx_HAL_Driver/Src/stm32l4xx_hal_smartcard.c ****       }
3231:Drivers/STM32L4xx_HAL_Driver/Src/stm32l4xx_hal_smartcard.c **** 
3232:Drivers/STM32L4xx_HAL_Driver/Src/stm32l4xx_hal_smartcard.c ****       /* Disable the SMARTCARD Parity Error Interrupt */
3233:Drivers/STM32L4xx_HAL_Driver/Src/stm32l4xx_hal_smartcard.c ****       CLEAR_BIT(hsmartcard->Instance->CR1, USART_CR1_PEIE);
 5465              		.loc 1 3233 7
 5466 006e 7B68     		ldr	r3, [r7, #4]
 5467 0070 1B68     		ldr	r3, [r3]
 5468 0072 1A68     		ldr	r2, [r3]
 5469 0074 7B68     		ldr	r3, [r7, #4]
 5470 0076 1B68     		ldr	r3, [r3]
 5471 0078 22F48072 		bic	r2, r2, #256
 5472 007c 1A60     		str	r2, [r3]
3234:Drivers/STM32L4xx_HAL_Driver/Src/stm32l4xx_hal_smartcard.c **** 
3235:Drivers/STM32L4xx_HAL_Driver/Src/stm32l4xx_hal_smartcard.c ****       hsmartcard->RxState = HAL_SMARTCARD_STATE_READY;
 5473              		.loc 1 3235 27
 5474 007e 7B68     		ldr	r3, [r7, #4]
 5475 0080 2022     		movs	r2, #32
 5476 0082 9A67     		str	r2, [r3, #120]
3236:Drivers/STM32L4xx_HAL_Driver/Src/stm32l4xx_hal_smartcard.c **** 
3237:Drivers/STM32L4xx_HAL_Driver/Src/stm32l4xx_hal_smartcard.c ****       /* Clear RxISR function pointer */
ARM GAS  /tmp/ccDAjxq4.s 			page 153


3238:Drivers/STM32L4xx_HAL_Driver/Src/stm32l4xx_hal_smartcard.c ****       hsmartcard->RxISR = NULL;
 5477              		.loc 1 3238 25
 5478 0084 7B68     		ldr	r3, [r7, #4]
 5479 0086 0022     		movs	r2, #0
 5480 0088 1A66     		str	r2, [r3, #96]
3239:Drivers/STM32L4xx_HAL_Driver/Src/stm32l4xx_hal_smartcard.c **** 
3240:Drivers/STM32L4xx_HAL_Driver/Src/stm32l4xx_hal_smartcard.c **** #if (USE_HAL_SMARTCARD_REGISTER_CALLBACKS == 1)
3241:Drivers/STM32L4xx_HAL_Driver/Src/stm32l4xx_hal_smartcard.c ****       /* Call registered Rx complete callback */
3242:Drivers/STM32L4xx_HAL_Driver/Src/stm32l4xx_hal_smartcard.c ****       hsmartcard->RxCpltCallback(hsmartcard);
3243:Drivers/STM32L4xx_HAL_Driver/Src/stm32l4xx_hal_smartcard.c **** #else
3244:Drivers/STM32L4xx_HAL_Driver/Src/stm32l4xx_hal_smartcard.c ****       /* Call legacy weak Rx complete callback */
3245:Drivers/STM32L4xx_HAL_Driver/Src/stm32l4xx_hal_smartcard.c ****       HAL_SMARTCARD_RxCpltCallback(hsmartcard);
 5481              		.loc 1 3245 7
 5482 008a 7868     		ldr	r0, [r7, #4]
 5483 008c FFF7FEFF 		bl	HAL_SMARTCARD_RxCpltCallback
3246:Drivers/STM32L4xx_HAL_Driver/Src/stm32l4xx_hal_smartcard.c **** #endif /* USE_HAL_SMARTCARD_REGISTER_CALLBACK */
3247:Drivers/STM32L4xx_HAL_Driver/Src/stm32l4xx_hal_smartcard.c ****     }
3248:Drivers/STM32L4xx_HAL_Driver/Src/stm32l4xx_hal_smartcard.c ****   }
3249:Drivers/STM32L4xx_HAL_Driver/Src/stm32l4xx_hal_smartcard.c ****   else
3250:Drivers/STM32L4xx_HAL_Driver/Src/stm32l4xx_hal_smartcard.c ****   {
3251:Drivers/STM32L4xx_HAL_Driver/Src/stm32l4xx_hal_smartcard.c ****     /* Clear RXNE interrupt flag */
3252:Drivers/STM32L4xx_HAL_Driver/Src/stm32l4xx_hal_smartcard.c ****     __HAL_SMARTCARD_SEND_REQ(hsmartcard, SMARTCARD_RXDATA_FLUSH_REQUEST);
3253:Drivers/STM32L4xx_HAL_Driver/Src/stm32l4xx_hal_smartcard.c ****   }
3254:Drivers/STM32L4xx_HAL_Driver/Src/stm32l4xx_hal_smartcard.c **** }
 5484              		.loc 1 3254 1
 5485 0090 07E0     		b	.L260
 5486              	.L257:
3252:Drivers/STM32L4xx_HAL_Driver/Src/stm32l4xx_hal_smartcard.c ****   }
 5487              		.loc 1 3252 5
 5488 0092 7B68     		ldr	r3, [r7, #4]
 5489 0094 1B68     		ldr	r3, [r3]
 5490 0096 9A69     		ldr	r2, [r3, #24]
 5491 0098 7B68     		ldr	r3, [r7, #4]
 5492 009a 1B68     		ldr	r3, [r3]
 5493 009c 42F00802 		orr	r2, r2, #8
 5494 00a0 9A61     		str	r2, [r3, #24]
 5495              	.L260:
 5496              		.loc 1 3254 1
 5497 00a2 00BF     		nop
 5498 00a4 0837     		adds	r7, r7, #8
 5499              		.cfi_def_cfa_offset 8
 5500 00a6 BD46     		mov	sp, r7
 5501              		.cfi_def_cfa_register 13
 5502              		@ sp needed
 5503 00a8 80BD     		pop	{r7, pc}
 5504              		.cfi_endproc
 5505              	.LFE486:
 5507              		.text
 5508              	.Letext0:
 5509              		.file 2 "/usr/lib/gcc/arm-none-eabi/13.2.1/include/stdint.h"
 5510              		.file 3 "Drivers/CMSIS/Device/ST/STM32L4xx/Include/stm32l475xx.h"
 5511              		.file 4 "Drivers/CMSIS/Device/ST/STM32L4xx/Include/stm32l4xx.h"
 5512              		.file 5 "Drivers/STM32L4xx_HAL_Driver/Inc/stm32l4xx_hal_def.h"
 5513              		.file 6 "Drivers/STM32L4xx_HAL_Driver/Inc/stm32l4xx_hal_dma.h"
 5514              		.file 7 "Drivers/STM32L4xx_HAL_Driver/Inc/stm32l4xx_hal_smartcard.h"
 5515              		.file 8 "Drivers/STM32L4xx_HAL_Driver/Inc/stm32l4xx_hal_rcc.h"
 5516              		.file 9 "Drivers/STM32L4xx_HAL_Driver/Inc/stm32l4xx_hal.h"
ARM GAS  /tmp/ccDAjxq4.s 			page 154


 5517              		.file 10 "Drivers/STM32L4xx_HAL_Driver/Inc/stm32l4xx_ll_dma.h"
ARM GAS  /tmp/ccDAjxq4.s 			page 155


DEFINED SYMBOLS
                            *ABS*:00000000 stm32l4xx_hal_smartcard.c
     /tmp/ccDAjxq4.s:21     .rodata.CHANNEL_OFFSET_TAB:00000000 $d
     /tmp/ccDAjxq4.s:24     .rodata.CHANNEL_OFFSET_TAB:00000000 CHANNEL_OFFSET_TAB
     /tmp/ccDAjxq4.s:27     .text.HAL_SMARTCARD_Init:00000000 $t
     /tmp/ccDAjxq4.s:33     .text.HAL_SMARTCARD_Init:00000000 HAL_SMARTCARD_Init
     /tmp/ccDAjxq4.s:262    .text.HAL_SMARTCARD_MspInit:00000000 HAL_SMARTCARD_MspInit
     /tmp/ccDAjxq4.s:3444   .text.SMARTCARD_SetConfig:00000000 SMARTCARD_SetConfig
     /tmp/ccDAjxq4.s:3966   .text.SMARTCARD_AdvFeatureConfig:00000000 SMARTCARD_AdvFeatureConfig
     /tmp/ccDAjxq4.s:4134   .text.SMARTCARD_CheckIdleState:00000000 SMARTCARD_CheckIdleState
     /tmp/ccDAjxq4.s:156    .text.HAL_SMARTCARD_DeInit:00000000 $t
     /tmp/ccDAjxq4.s:162    .text.HAL_SMARTCARD_DeInit:00000000 HAL_SMARTCARD_DeInit
     /tmp/ccDAjxq4.s:298    .text.HAL_SMARTCARD_MspDeInit:00000000 HAL_SMARTCARD_MspDeInit
     /tmp/ccDAjxq4.s:256    .text.HAL_SMARTCARD_MspInit:00000000 $t
     /tmp/ccDAjxq4.s:292    .text.HAL_SMARTCARD_MspDeInit:00000000 $t
     /tmp/ccDAjxq4.s:328    .text.HAL_SMARTCARD_Transmit:00000000 $t
     /tmp/ccDAjxq4.s:334    .text.HAL_SMARTCARD_Transmit:00000000 HAL_SMARTCARD_Transmit
     /tmp/ccDAjxq4.s:4240   .text.SMARTCARD_WaitOnFlagUntilTimeout:00000000 SMARTCARD_WaitOnFlagUntilTimeout
     /tmp/ccDAjxq4.s:625    .text.HAL_SMARTCARD_Receive:00000000 $t
     /tmp/ccDAjxq4.s:631    .text.HAL_SMARTCARD_Receive:00000000 HAL_SMARTCARD_Receive
     /tmp/ccDAjxq4.s:782    .text.HAL_SMARTCARD_Transmit_IT:00000000 $t
     /tmp/ccDAjxq4.s:788    .text.HAL_SMARTCARD_Transmit_IT:00000000 HAL_SMARTCARD_Transmit_IT
     /tmp/ccDAjxq4.s:968    .text.HAL_SMARTCARD_Transmit_IT:00000114 $d
     /tmp/ccDAjxq4.s:5060   .text.SMARTCARD_TxISR:00000000 SMARTCARD_TxISR
     /tmp/ccDAjxq4.s:973    .text.HAL_SMARTCARD_Receive_IT:00000000 $t
     /tmp/ccDAjxq4.s:979    .text.HAL_SMARTCARD_Receive_IT:00000000 HAL_SMARTCARD_Receive_IT
     /tmp/ccDAjxq4.s:1095   .text.HAL_SMARTCARD_Receive_IT:000000a0 $d
     /tmp/ccDAjxq4.s:5386   .text.SMARTCARD_RxISR:00000000 SMARTCARD_RxISR
     /tmp/ccDAjxq4.s:1100   .text.HAL_SMARTCARD_Transmit_DMA:00000000 $t
     /tmp/ccDAjxq4.s:1106   .text.HAL_SMARTCARD_Transmit_DMA:00000000 HAL_SMARTCARD_Transmit_DMA
     /tmp/ccDAjxq4.s:1338   .text.HAL_SMARTCARD_Transmit_DMA:00000164 $d
     /tmp/ccDAjxq4.s:4461   .text.SMARTCARD_DMATransmitCplt:00000000 SMARTCARD_DMATransmitCplt
     /tmp/ccDAjxq4.s:4641   .text.SMARTCARD_DMAError:00000000 SMARTCARD_DMAError
     /tmp/ccDAjxq4.s:1344   .text.HAL_SMARTCARD_Receive_DMA:00000000 $t
     /tmp/ccDAjxq4.s:1350   .text.HAL_SMARTCARD_Receive_DMA:00000000 HAL_SMARTCARD_Receive_DMA
     /tmp/ccDAjxq4.s:1518   .text.HAL_SMARTCARD_Receive_DMA:000000ec $d
     /tmp/ccDAjxq4.s:4570   .text.SMARTCARD_DMAReceiveCplt:00000000 SMARTCARD_DMAReceiveCplt
     /tmp/ccDAjxq4.s:1524   .text.HAL_SMARTCARD_Abort:00000000 $t
     /tmp/ccDAjxq4.s:1530   .text.HAL_SMARTCARD_Abort:00000000 HAL_SMARTCARD_Abort
     /tmp/ccDAjxq4.s:1710   .text.HAL_SMARTCARD_AbortTransmit:00000000 $t
     /tmp/ccDAjxq4.s:1716   .text.HAL_SMARTCARD_AbortTransmit:00000000 HAL_SMARTCARD_AbortTransmit
     /tmp/ccDAjxq4.s:1836   .text.HAL_SMARTCARD_AbortReceive:00000000 $t
     /tmp/ccDAjxq4.s:1842   .text.HAL_SMARTCARD_AbortReceive:00000000 HAL_SMARTCARD_AbortReceive
     /tmp/ccDAjxq4.s:1971   .text.HAL_SMARTCARD_Abort_IT:00000000 $t
     /tmp/ccDAjxq4.s:1977   .text.HAL_SMARTCARD_Abort_IT:00000000 HAL_SMARTCARD_Abort_IT
     /tmp/ccDAjxq4.s:3250   .text.HAL_SMARTCARD_AbortCpltCallback:00000000 HAL_SMARTCARD_AbortCpltCallback
     /tmp/ccDAjxq4.s:2213   .text.HAL_SMARTCARD_Abort_IT:0000015c $d
     /tmp/ccDAjxq4.s:4778   .text.SMARTCARD_DMATxAbortCallback:00000000 SMARTCARD_DMATxAbortCallback
     /tmp/ccDAjxq4.s:4867   .text.SMARTCARD_DMARxAbortCallback:00000000 SMARTCARD_DMARxAbortCallback
     /tmp/ccDAjxq4.s:2219   .text.HAL_SMARTCARD_AbortTransmit_IT:00000000 $t
     /tmp/ccDAjxq4.s:2225   .text.HAL_SMARTCARD_AbortTransmit_IT:00000000 HAL_SMARTCARD_AbortTransmit_IT
     /tmp/ccDAjxq4.s:3286   .text.HAL_SMARTCARD_AbortTransmitCpltCallback:00000000 HAL_SMARTCARD_AbortTransmitCpltCallback
     /tmp/ccDAjxq4.s:2365   .text.HAL_SMARTCARD_AbortTransmit_IT:000000c8 $d
     /tmp/ccDAjxq4.s:4956   .text.SMARTCARD_DMATxOnlyAbortCallback:00000000 SMARTCARD_DMATxOnlyAbortCallback
     /tmp/ccDAjxq4.s:2370   .text.HAL_SMARTCARD_AbortReceive_IT:00000000 $t
     /tmp/ccDAjxq4.s:2376   .text.HAL_SMARTCARD_AbortReceive_IT:00000000 HAL_SMARTCARD_AbortReceive_IT
     /tmp/ccDAjxq4.s:3322   .text.HAL_SMARTCARD_AbortReceiveCpltCallback:00000000 HAL_SMARTCARD_AbortReceiveCpltCallback
ARM GAS  /tmp/ccDAjxq4.s 			page 156


     /tmp/ccDAjxq4.s:2530   .text.HAL_SMARTCARD_AbortReceive_IT:000000e8 $d
     /tmp/ccDAjxq4.s:5008   .text.SMARTCARD_DMARxOnlyAbortCallback:00000000 SMARTCARD_DMARxOnlyAbortCallback
     /tmp/ccDAjxq4.s:2535   .text.HAL_SMARTCARD_IRQHandler:00000000 $t
     /tmp/ccDAjxq4.s:2541   .text.HAL_SMARTCARD_IRQHandler:00000000 HAL_SMARTCARD_IRQHandler
     /tmp/ccDAjxq4.s:4406   .text.SMARTCARD_EndRxTransfer:00000000 SMARTCARD_EndRxTransfer
     /tmp/ccDAjxq4.s:3214   .text.HAL_SMARTCARD_ErrorCallback:00000000 HAL_SMARTCARD_ErrorCallback
     /tmp/ccDAjxq4.s:4351   .text.SMARTCARD_EndTxTransfer:00000000 SMARTCARD_EndTxTransfer
     /tmp/ccDAjxq4.s:3178   .text.HAL_SMARTCARD_RxCpltCallback:00000000 HAL_SMARTCARD_RxCpltCallback
     /tmp/ccDAjxq4.s:5203   .text.SMARTCARD_EndTransmit_IT:00000000 SMARTCARD_EndTransmit_IT
     /tmp/ccDAjxq4.s:3131   .text.HAL_SMARTCARD_IRQHandler:00000388 $d
     /tmp/ccDAjxq4.s:4731   .text.SMARTCARD_DMAAbortOnError:00000000 SMARTCARD_DMAAbortOnError
     /tmp/ccDAjxq4.s:3136   .text.HAL_SMARTCARD_TxCpltCallback:00000000 $t
     /tmp/ccDAjxq4.s:3142   .text.HAL_SMARTCARD_TxCpltCallback:00000000 HAL_SMARTCARD_TxCpltCallback
     /tmp/ccDAjxq4.s:3172   .text.HAL_SMARTCARD_RxCpltCallback:00000000 $t
     /tmp/ccDAjxq4.s:3208   .text.HAL_SMARTCARD_ErrorCallback:00000000 $t
     /tmp/ccDAjxq4.s:3244   .text.HAL_SMARTCARD_AbortCpltCallback:00000000 $t
     /tmp/ccDAjxq4.s:3280   .text.HAL_SMARTCARD_AbortTransmitCpltCallback:00000000 $t
     /tmp/ccDAjxq4.s:3316   .text.HAL_SMARTCARD_AbortReceiveCpltCallback:00000000 $t
     /tmp/ccDAjxq4.s:3352   .text.HAL_SMARTCARD_GetState:00000000 $t
     /tmp/ccDAjxq4.s:3358   .text.HAL_SMARTCARD_GetState:00000000 HAL_SMARTCARD_GetState
     /tmp/ccDAjxq4.s:3400   .text.HAL_SMARTCARD_GetError:00000000 $t
     /tmp/ccDAjxq4.s:3406   .text.HAL_SMARTCARD_GetError:00000000 HAL_SMARTCARD_GetError
     /tmp/ccDAjxq4.s:3439   .text.SMARTCARD_SetConfig:00000000 $t
     /tmp/ccDAjxq4.s:3633   .text.SMARTCARD_SetConfig:00000124 $d
     /tmp/ccDAjxq4.s:3637   .text.SMARTCARD_SetConfig:00000134 $t
     /tmp/ccDAjxq4.s:3685   .text.SMARTCARD_SetConfig:00000170 $d
     /tmp/ccDAjxq4.s:3698   .text.SMARTCARD_SetConfig:000001a4 $t
     /tmp/ccDAjxq4.s:3799   .text.SMARTCARD_SetConfig:00000224 $d
     /tmp/ccDAjxq4.s:3808   .text.SMARTCARD_SetConfig:00000248 $t
     /tmp/ccDAjxq4.s:3905   .text.SMARTCARD_SetConfig:000002cc $d
     /tmp/ccDAjxq4.s:3912   .text.SMARTCARD_SetConfig:000002e0 $t
     /tmp/ccDAjxq4.s:3961   .text.SMARTCARD_AdvFeatureConfig:00000000 $t
     /tmp/ccDAjxq4.s:4129   .text.SMARTCARD_CheckIdleState:00000000 $t
     /tmp/ccDAjxq4.s:4235   .text.SMARTCARD_WaitOnFlagUntilTimeout:00000000 $t
     /tmp/ccDAjxq4.s:4346   .text.SMARTCARD_EndTxTransfer:00000000 $t
     /tmp/ccDAjxq4.s:4401   .text.SMARTCARD_EndRxTransfer:00000000 $t
     /tmp/ccDAjxq4.s:4456   .text.SMARTCARD_DMATransmitCplt:00000000 $t
     /tmp/ccDAjxq4.s:4565   .text.SMARTCARD_DMAReceiveCplt:00000000 $t
     /tmp/ccDAjxq4.s:4636   .text.SMARTCARD_DMAError:00000000 $t
     /tmp/ccDAjxq4.s:4726   .text.SMARTCARD_DMAAbortOnError:00000000 $t
     /tmp/ccDAjxq4.s:4773   .text.SMARTCARD_DMATxAbortCallback:00000000 $t
     /tmp/ccDAjxq4.s:4862   .text.SMARTCARD_DMARxAbortCallback:00000000 $t
     /tmp/ccDAjxq4.s:4951   .text.SMARTCARD_DMATxOnlyAbortCallback:00000000 $t
     /tmp/ccDAjxq4.s:5003   .text.SMARTCARD_DMARxOnlyAbortCallback:00000000 $t
     /tmp/ccDAjxq4.s:5055   .text.SMARTCARD_TxISR:00000000 $t
     /tmp/ccDAjxq4.s:5198   .text.SMARTCARD_EndTransmit_IT:00000000 $t
     /tmp/ccDAjxq4.s:5381   .text.SMARTCARD_RxISR:00000000 $t
                           .group:00000000 wm4.0.e7b64c2c371cf922f2c8028878d5c18e
                           .group:00000000 wm4.stm32l4xx_hal_conf.h.23.286c2f63aaa73ed97ffb4d26f7caa6e9
                           .group:00000000 wm4.stm32l4xx.h.38.9f5830373ca31b8a3cd182fdc6c7b69a
                           .group:00000000 wm4.stm32l475xx.h.34.2f1a75aed66751e299f09004aef64973
                           .group:00000000 wm4.stdint.h.29.6d480f4ba0f60596e88234283d42444f
                           .group:00000000 wm4.cmsis_version.h.32.46e8eccfa2cfeaae11d008bb2823a3ed
                           .group:00000000 wm4.core_cm4.h.66.e4ff136c4a17abc46741866f64f8e729
                           .group:00000000 wm4.cmsis_gcc.h.26.78077cef1206e937f7b56043ffca496a
                           .group:00000000 wm4.core_cm4.h.174.fcddd62df80231752fa39eb9b61dadfe
                           .group:00000000 wm4.mpu_armv7.h.32.4049752bb5792d4e15357775e9506cfc
ARM GAS  /tmp/ccDAjxq4.s 			page 157


                           .group:00000000 wm4.stm32l475xx.h.423.4d783859c9ac66890c9807dd7bd3a4db
                           .group:00000000 wm4.stm32l4xx.h.196.f5ae8047c57b6175c94f246ef967a286
                           .group:00000000 wm4.stm32_hal_legacy.h.22.08b8350ccf512ba8d98002fb33e7cbe5
                           .group:00000000 wm4.stddef.h.39.0dc9006b34572d4d9cae4c8b422c4971
                           .group:00000000 wm4.stm32l4xx_hal_def.h.58.1058a33f7217e935f2a6b51956d66a69
                           .group:00000000 wm4.stm32l4xx_hal_rcc.h.156.ab8eecc4e10f4827a2aa75d3549a356d
                           .group:00000000 wm4.stm32l4xx_hal_rcc_ex.h.20.4a82a27d561b6d42fa16a54f82e29067
                           .group:00000000 wm4.stm32l4xx_hal_gpio.h.21.2d2b1fd6aa6afa7b6dcc89cf752a9a25
                           .group:00000000 wm4.stm32l4xx_hal_gpio_ex.h.21.7ea705f5185dd3c6b8ea336f2858cd46
                           .group:00000000 wm4.stm32l4xx_ll_dma.h.21.b30e7f48d60d1fc53041ec1e3fd6e54a
                           .group:00000000 wm4.stm32l4xx_hal_dma.h.166.54a7f8d65cee6f051d541dc010387b5a
                           .group:00000000 wm4.stm32l4xx_hal_dfsdm.h.21.6785e38d00075079c7f2e5657def82ae
                           .group:00000000 wm4.stm32l4xx_hal_cortex.h.21.cb491126bd2d6f44e90b66f27acb8434
                           .group:00000000 wm4.stm32l4xx_ll_adc.h.21.0c578f71501c74365c67044efed214d6
                           .group:00000000 wm4.stm32l4xx_hal_adc.h.411.68f60682cdb20556089756a482f23764
                           .group:00000000 wm4.stm32l4xx_hal_adc_ex.h.21.7b82cb80166a21dfa8cb3e2fa8f8e654
                           .group:00000000 wm4.stm32l4xx_hal_can.h.21.5019586d8e7137c0cec16eb1f9d6677b
                           .group:00000000 wm4.stm32l4xx_ll_exti.h.21.d866eff070d6f999af2ce4ea60aa40ac
                           .group:00000000 wm4.stm32l4xx_hal_comp.h.87.7f14cb673a463359c83faa552328844d
                           .group:00000000 wm4.stm32l4xx_hal_crc.h.21.4c36a140cca35e6a8e478e76c6ad98e3
                           .group:00000000 wm4.stm32l4xx_hal_crc_ex.h.21.9cc3dead436542d416ee5572c231a242
                           .group:00000000 wm4.stm32l4xx_hal_dac.h.21.69feba704135531cf3d9b92de27b71d5
                           .group:00000000 wm4.stm32l4xx_hal_dac_ex.h.21.c86699169bead5415cc3e94027b67df4
                           .group:00000000 wm4.stm32l4xx_hal_exti.h.21.242e0410874d91d6d7523948fff74125
                           .group:00000000 wm4.stm32l4xx_hal_firewall.h.21.7ed44f4228fcc2ef96d2177dd8632645
                           .group:00000000 wm4.stm32l4xx_hal_flash.h.20.5e337018ccfa211b4afe888a79aae9f5
                           .group:00000000 wm4.stm32l4xx_hal_flash.h.846.0445f6ea07a3f9aac82891c8687d96fb
                           .group:00000000 wm4.stm32l4xx_ll_usb.h.21.5b5e42fb72a33dd326d7b20064953946
                           .group:00000000 wm4.stm32l4xx_hal_hcd.h.107.73f2fd24f57e8822da5cc86bd5ad3dfd
                           .group:00000000 wm4.stm32l4xx_hal_i2c.h.21.e7fc2065051c77019a818818e4a637d8
                           .group:00000000 wm4.stm32l4xx_hal_i2c_ex.h.21.ad4ad4e558d4fec06df87d163a6927d7
                           .group:00000000 wm4.stm32l4xx_hal_i2c.h.737.fa3908c81294cf0f9894ae336466002c
                           .group:00000000 wm4.stm32l4xx_hal_irda.h.21.136c042f9eef333167a549cc099df0c9
                           .group:00000000 wm4.stm32l4xx_hal_irda_ex.h.21.e0ada4e6d2b2cadfb512dd3c8ac0a637
                           .group:00000000 wm4.stm32l4xx_hal_iwdg.h.21.f94ca75f2fe1ebc7a2a8d0f5b58d8430
                           .group:00000000 wm4.stm32l4xx_hal_lptim.h.21.78222ea6639fc8c02789d293a048991e
                           .group:00000000 wm4.stm32l4xx_ll_sdmmc.h.21.65a5a8696b6ca7b87cc93d218084d702
                           .group:00000000 wm4.stm32l4xx_hal_mmc.h.69.8f4159f0a88ef1ebc33c58a8f10362b9
                           .group:00000000 wm4.stm32l4xx_ll_fmc.h.21.156a244c55010643ee92c6119049cb68
                           .group:00000000 wm4.stm32l4xx_hal_nand.h.176.9bfeac6e4e757991088bbd0df44e2be9
                           .group:00000000 wm4.stm32l4xx_hal_nor.h.21.d47e91e825f466bbac02fac0a7845a7a
                           .group:00000000 wm4.stm32l4xx_hal_opamp.h.21.9d841e1eaccee939f247b3f973f8af5f
                           .group:00000000 wm4.stm32l4xx_hal_pcd.h.169.addb1fac652268a18a0707cfcb5e2e47
                           .group:00000000 wm4.stm32l4xx_hal_pwr.h.21.7ddab2caa97243c36e496eca17b27618
                           .group:00000000 wm4.stm32l4xx_hal_pwr_ex.h.21.65ad8bbdbcb1950d945c0de10f22dc80
                           .group:00000000 wm4.stm32l4xx_hal_qspi.h.21.0291dad4eaa82101f2f77d76315c9b12
                           .group:00000000 wm4.stm32l4xx_hal_rng.h.21.96593715bdeab0c74ac9dfc538fb2feb
                           .group:00000000 wm4.stm32l4xx_hal_rtc.h.21.9da6b1aeebde99930891f803cb7f9678
                           .group:00000000 wm4.stm32l4xx_hal_rtc_ex.h.21.c692539378320719c7f2a2da1ca64502
                           .group:00000000 wm4.stm32l4xx_hal_rtc.h.999.c8bd9450c783628bd606ecb31bea5cc9
                           .group:00000000 wm4.stm32l4xx_hal_sai.h.21.c1165aaf2bbde65fae28ed4817be5cc5
                           .group:00000000 wm4.stm32l4xx_hal_sd.h.21.b395c90a87e82f7e8d77d4a518036063
                           .group:00000000 wm4.stm32l4xx_hal_smartcard.h.21.423c3ad63e0df35b864303e89e6d253c
                           .group:00000000 wm4.stm32l4xx_hal_smartcard_ex.h.21.801a2ce9252a785aec000b3fc7667a74
                           .group:00000000 wm4.stm32l4xx_hal_smbus.h.21.7480adb16468bfdce819ee591f21299e
                           .group:00000000 wm4.stm32l4xx_hal_smbus_ex.h.21.bdc715f5f6fb6612a871d3c03c3b871f
                           .group:00000000 wm4.stm32l4xx_hal_spi.h.21.3b51f9f7b241962f6b3483c47a43334f
ARM GAS  /tmp/ccDAjxq4.s 			page 158


                           .group:00000000 wm4.stm32l4xx_hal_sram.h.21.285210181e158bddc1cdde63dde572fd
                           .group:00000000 wm4.stm32l4xx_hal_swpmi.h.21.787f994f40b117a62aad9a6dd408b8fc
                           .group:00000000 wm4.stm32l4xx_hal_tim.h.21.d190832030e7505384ad081daa7ba8d6
                           .group:00000000 wm4.stm32l4xx_hal_tim_ex.h.21.1d0860218366ee9f64a97fd8af0ddee1
                           .group:00000000 wm4.stm32l4xx_hal_tsc.h.21.e9010049847ea38297d4b95a5ede0d8c
                           .group:00000000 wm4.stm32l4xx_hal_uart.h.21.480c0a64ca01596a921cda9dceb01df4
                           .group:00000000 wm4.stm32l4xx_hal_uart_ex.h.21.d793e64693c93af07c90464aef42bd83
                           .group:00000000 wm4.stm32l4xx_hal_usart.h.21.561c0058e33cb8df6671dcd29d5d25f9
                           .group:00000000 wm4.stm32l4xx_hal_usart_ex.h.21.111da650523691ebc80d64103d7b26e5
                           .group:00000000 wm4.stm32l4xx_hal_wwdg.h.21.073aa79d58120ae4fb8590c46b210051
                           .group:00000000 wm4.stm32l4xx_hal.h.75.d364b3778b3801d2f66bb409c48d396d

UNDEFINED SYMBOLS
HAL_GetTick
HAL_DMA_Start_IT
HAL_DMA_Abort
HAL_DMA_GetError
HAL_DMA_Abort_IT
HAL_RCC_GetPCLK1Freq
HAL_RCC_GetPCLK2Freq
HAL_RCC_GetSysClockFreq
