ARM GAS  /tmp/ccysATpZ.s 			page 1


   1              		.cpu cortex-m4
   2              		.arch armv7e-m
   3              		.fpu fpv4-sp-d16
   4              		.eabi_attribute 27, 1
   5              		.eabi_attribute 28, 1
   6              		.eabi_attribute 20, 1
   7              		.eabi_attribute 21, 1
   8              		.eabi_attribute 23, 3
   9              		.eabi_attribute 24, 1
  10              		.eabi_attribute 25, 1
  11              		.eabi_attribute 26, 1
  12              		.eabi_attribute 30, 6
  13              		.eabi_attribute 34, 1
  14              		.eabi_attribute 18, 4
  15              		.file	"stm32l4xx_hal_smbus.c"
  16              		.text
  17              	.Ltext0:
  18              		.cfi_sections	.debug_frame
  19              		.file 1 "Drivers/STM32L4xx_HAL_Driver/Src/stm32l4xx_hal_smbus.c"
  20              		.section	.rodata.CHANNEL_OFFSET_TAB,"a"
  21              		.align	2
  24              	CHANNEL_OFFSET_TAB:
  25 0000 081C3044 		.ascii	"\010\0340DXl\200"
  25      586C80
  26              		.section	.text.HAL_SMBUS_Init,"ax",%progbits
  27              		.align	1
  28              		.global	HAL_SMBUS_Init
  29              		.syntax unified
  30              		.thumb
  31              		.thumb_func
  33              	HAL_SMBUS_Init:
  34              	.LFB445:
   1:Drivers/STM32L4xx_HAL_Driver/Src/stm32l4xx_hal_smbus.c **** /**
   2:Drivers/STM32L4xx_HAL_Driver/Src/stm32l4xx_hal_smbus.c ****   ******************************************************************************
   3:Drivers/STM32L4xx_HAL_Driver/Src/stm32l4xx_hal_smbus.c ****   * @file    stm32l4xx_hal_smbus.c
   4:Drivers/STM32L4xx_HAL_Driver/Src/stm32l4xx_hal_smbus.c ****   * @author  MCD Application Team
   5:Drivers/STM32L4xx_HAL_Driver/Src/stm32l4xx_hal_smbus.c ****   * @brief   SMBUS HAL module driver.
   6:Drivers/STM32L4xx_HAL_Driver/Src/stm32l4xx_hal_smbus.c ****   *          This file provides firmware functions to manage the following
   7:Drivers/STM32L4xx_HAL_Driver/Src/stm32l4xx_hal_smbus.c ****   *          functionalities of the System Management Bus (SMBus) peripheral,
   8:Drivers/STM32L4xx_HAL_Driver/Src/stm32l4xx_hal_smbus.c ****   *          based on I2C principles of operation :
   9:Drivers/STM32L4xx_HAL_Driver/Src/stm32l4xx_hal_smbus.c ****   *           + Initialization and de-initialization functions
  10:Drivers/STM32L4xx_HAL_Driver/Src/stm32l4xx_hal_smbus.c ****   *           + IO operation functions
  11:Drivers/STM32L4xx_HAL_Driver/Src/stm32l4xx_hal_smbus.c ****   *           + Peripheral State and Errors functions
  12:Drivers/STM32L4xx_HAL_Driver/Src/stm32l4xx_hal_smbus.c ****   *
  13:Drivers/STM32L4xx_HAL_Driver/Src/stm32l4xx_hal_smbus.c ****   ******************************************************************************
  14:Drivers/STM32L4xx_HAL_Driver/Src/stm32l4xx_hal_smbus.c ****   * @attention
  15:Drivers/STM32L4xx_HAL_Driver/Src/stm32l4xx_hal_smbus.c ****   *
  16:Drivers/STM32L4xx_HAL_Driver/Src/stm32l4xx_hal_smbus.c ****   * Copyright (c) 2017 STMicroelectronics.
  17:Drivers/STM32L4xx_HAL_Driver/Src/stm32l4xx_hal_smbus.c ****   * All rights reserved.
  18:Drivers/STM32L4xx_HAL_Driver/Src/stm32l4xx_hal_smbus.c ****   *
  19:Drivers/STM32L4xx_HAL_Driver/Src/stm32l4xx_hal_smbus.c ****   * This software is licensed under terms that can be found in the LICENSE file
  20:Drivers/STM32L4xx_HAL_Driver/Src/stm32l4xx_hal_smbus.c ****   * in the root directory of this software component.
  21:Drivers/STM32L4xx_HAL_Driver/Src/stm32l4xx_hal_smbus.c ****   * If no LICENSE file comes with this software, it is provided AS-IS.
  22:Drivers/STM32L4xx_HAL_Driver/Src/stm32l4xx_hal_smbus.c ****   *
  23:Drivers/STM32L4xx_HAL_Driver/Src/stm32l4xx_hal_smbus.c ****   ******************************************************************************
  24:Drivers/STM32L4xx_HAL_Driver/Src/stm32l4xx_hal_smbus.c ****   @verbatim
  25:Drivers/STM32L4xx_HAL_Driver/Src/stm32l4xx_hal_smbus.c ****   ==============================================================================
ARM GAS  /tmp/ccysATpZ.s 			page 2


  26:Drivers/STM32L4xx_HAL_Driver/Src/stm32l4xx_hal_smbus.c ****                         ##### How to use this driver #####
  27:Drivers/STM32L4xx_HAL_Driver/Src/stm32l4xx_hal_smbus.c ****   ==============================================================================
  28:Drivers/STM32L4xx_HAL_Driver/Src/stm32l4xx_hal_smbus.c ****     [..]
  29:Drivers/STM32L4xx_HAL_Driver/Src/stm32l4xx_hal_smbus.c ****     The SMBUS HAL driver can be used as follows:
  30:Drivers/STM32L4xx_HAL_Driver/Src/stm32l4xx_hal_smbus.c **** 
  31:Drivers/STM32L4xx_HAL_Driver/Src/stm32l4xx_hal_smbus.c ****     (#) Declare a SMBUS_HandleTypeDef handle structure, for example:
  32:Drivers/STM32L4xx_HAL_Driver/Src/stm32l4xx_hal_smbus.c ****         SMBUS_HandleTypeDef  hsmbus;
  33:Drivers/STM32L4xx_HAL_Driver/Src/stm32l4xx_hal_smbus.c **** 
  34:Drivers/STM32L4xx_HAL_Driver/Src/stm32l4xx_hal_smbus.c ****     (#)Initialize the SMBUS low level resources by implementing the HAL_SMBUS_MspInit() API:
  35:Drivers/STM32L4xx_HAL_Driver/Src/stm32l4xx_hal_smbus.c ****         (##) Enable the SMBUSx interface clock
  36:Drivers/STM32L4xx_HAL_Driver/Src/stm32l4xx_hal_smbus.c ****         (##) SMBUS pins configuration
  37:Drivers/STM32L4xx_HAL_Driver/Src/stm32l4xx_hal_smbus.c ****             (+++) Enable the clock for the SMBUS GPIOs
  38:Drivers/STM32L4xx_HAL_Driver/Src/stm32l4xx_hal_smbus.c ****             (+++) Configure SMBUS pins as alternate function open-drain
  39:Drivers/STM32L4xx_HAL_Driver/Src/stm32l4xx_hal_smbus.c ****         (##) NVIC configuration if you need to use interrupt process
  40:Drivers/STM32L4xx_HAL_Driver/Src/stm32l4xx_hal_smbus.c ****             (+++) Configure the SMBUSx interrupt priority
  41:Drivers/STM32L4xx_HAL_Driver/Src/stm32l4xx_hal_smbus.c ****             (+++) Enable the NVIC SMBUS IRQ Channel
  42:Drivers/STM32L4xx_HAL_Driver/Src/stm32l4xx_hal_smbus.c **** 
  43:Drivers/STM32L4xx_HAL_Driver/Src/stm32l4xx_hal_smbus.c ****     (#) Configure the Communication Clock Timing, Bus Timeout, Own Address1, Master Addressing mode
  44:Drivers/STM32L4xx_HAL_Driver/Src/stm32l4xx_hal_smbus.c ****         Dual Addressing mode, Own Address2, Own Address2 Mask, General call, Nostretch mode,
  45:Drivers/STM32L4xx_HAL_Driver/Src/stm32l4xx_hal_smbus.c ****         Peripheral mode and Packet Error Check mode in the hsmbus Init structure.
  46:Drivers/STM32L4xx_HAL_Driver/Src/stm32l4xx_hal_smbus.c **** 
  47:Drivers/STM32L4xx_HAL_Driver/Src/stm32l4xx_hal_smbus.c ****     (#) Initialize the SMBUS registers by calling the HAL_SMBUS_Init() API:
  48:Drivers/STM32L4xx_HAL_Driver/Src/stm32l4xx_hal_smbus.c ****         (++) These API's configures also the low level Hardware GPIO, CLOCK, CORTEX...etc)
  49:Drivers/STM32L4xx_HAL_Driver/Src/stm32l4xx_hal_smbus.c ****              by calling the customized HAL_SMBUS_MspInit(&hsmbus) API.
  50:Drivers/STM32L4xx_HAL_Driver/Src/stm32l4xx_hal_smbus.c **** 
  51:Drivers/STM32L4xx_HAL_Driver/Src/stm32l4xx_hal_smbus.c ****     (#) To check if target device is ready for communication, use the function HAL_SMBUS_IsDeviceRe
  52:Drivers/STM32L4xx_HAL_Driver/Src/stm32l4xx_hal_smbus.c **** 
  53:Drivers/STM32L4xx_HAL_Driver/Src/stm32l4xx_hal_smbus.c ****     (#) For SMBUS IO operations, only one mode of operations is available within this driver
  54:Drivers/STM32L4xx_HAL_Driver/Src/stm32l4xx_hal_smbus.c **** 
  55:Drivers/STM32L4xx_HAL_Driver/Src/stm32l4xx_hal_smbus.c ****     *** Interrupt mode IO operation ***
  56:Drivers/STM32L4xx_HAL_Driver/Src/stm32l4xx_hal_smbus.c ****     ===================================
  57:Drivers/STM32L4xx_HAL_Driver/Src/stm32l4xx_hal_smbus.c ****     [..]
  58:Drivers/STM32L4xx_HAL_Driver/Src/stm32l4xx_hal_smbus.c ****       (+) Transmit in master/host SMBUS mode an amount of data in non-blocking mode
  59:Drivers/STM32L4xx_HAL_Driver/Src/stm32l4xx_hal_smbus.c ****           using HAL_SMBUS_Master_Transmit_IT()
  60:Drivers/STM32L4xx_HAL_Driver/Src/stm32l4xx_hal_smbus.c ****       (++) At transmission end of transfer HAL_SMBUS_MasterTxCpltCallback() is executed and users c
  61:Drivers/STM32L4xx_HAL_Driver/Src/stm32l4xx_hal_smbus.c ****            add their own code by customization of function pointer HAL_SMBUS_MasterTxCpltCallback()
  62:Drivers/STM32L4xx_HAL_Driver/Src/stm32l4xx_hal_smbus.c ****       (+) Receive in master/host SMBUS mode an amount of data in non-blocking mode
  63:Drivers/STM32L4xx_HAL_Driver/Src/stm32l4xx_hal_smbus.c ****           using HAL_SMBUS_Master_Receive_IT()
  64:Drivers/STM32L4xx_HAL_Driver/Src/stm32l4xx_hal_smbus.c ****       (++) At reception end of transfer HAL_SMBUS_MasterRxCpltCallback() is executed and users can
  65:Drivers/STM32L4xx_HAL_Driver/Src/stm32l4xx_hal_smbus.c ****            add their own code by customization of function pointer HAL_SMBUS_MasterRxCpltCallback()
  66:Drivers/STM32L4xx_HAL_Driver/Src/stm32l4xx_hal_smbus.c ****       (+) Abort a master/host SMBUS process communication with Interrupt using HAL_SMBUS_Master_Abo
  67:Drivers/STM32L4xx_HAL_Driver/Src/stm32l4xx_hal_smbus.c ****       (++) The associated previous transfer callback is called at the end of abort process
  68:Drivers/STM32L4xx_HAL_Driver/Src/stm32l4xx_hal_smbus.c ****       (++) mean HAL_SMBUS_MasterTxCpltCallback() in case of previous state was master transmit
  69:Drivers/STM32L4xx_HAL_Driver/Src/stm32l4xx_hal_smbus.c ****       (++) mean HAL_SMBUS_MasterRxCpltCallback() in case of previous state was master receive
  70:Drivers/STM32L4xx_HAL_Driver/Src/stm32l4xx_hal_smbus.c ****       (+) Enable/disable the Address listen mode in slave/device or host/slave SMBUS mode
  71:Drivers/STM32L4xx_HAL_Driver/Src/stm32l4xx_hal_smbus.c ****            using HAL_SMBUS_EnableListen_IT() HAL_SMBUS_DisableListen_IT()
  72:Drivers/STM32L4xx_HAL_Driver/Src/stm32l4xx_hal_smbus.c ****       (++) When address slave/device SMBUS match, HAL_SMBUS_AddrCallback() is executed and users ca
  73:Drivers/STM32L4xx_HAL_Driver/Src/stm32l4xx_hal_smbus.c ****            add their own code to check the Address Match Code and the transmission direction
  74:Drivers/STM32L4xx_HAL_Driver/Src/stm32l4xx_hal_smbus.c ****            request by master/host (Write/Read).
  75:Drivers/STM32L4xx_HAL_Driver/Src/stm32l4xx_hal_smbus.c ****       (++) At Listen mode end HAL_SMBUS_ListenCpltCallback() is executed and users can
  76:Drivers/STM32L4xx_HAL_Driver/Src/stm32l4xx_hal_smbus.c ****            add their own code by customization of function pointer HAL_SMBUS_ListenCpltCallback()
  77:Drivers/STM32L4xx_HAL_Driver/Src/stm32l4xx_hal_smbus.c ****       (+) Transmit in slave/device SMBUS mode an amount of data in non-blocking mode
  78:Drivers/STM32L4xx_HAL_Driver/Src/stm32l4xx_hal_smbus.c ****           using HAL_SMBUS_Slave_Transmit_IT()
  79:Drivers/STM32L4xx_HAL_Driver/Src/stm32l4xx_hal_smbus.c ****       (++) At transmission end of transfer HAL_SMBUS_SlaveTxCpltCallback() is executed and users ca
  80:Drivers/STM32L4xx_HAL_Driver/Src/stm32l4xx_hal_smbus.c ****            add their own code by customization of function pointer HAL_SMBUS_SlaveTxCpltCallback()
  81:Drivers/STM32L4xx_HAL_Driver/Src/stm32l4xx_hal_smbus.c ****       (+) Receive in slave/device SMBUS mode an amount of data in non-blocking mode
  82:Drivers/STM32L4xx_HAL_Driver/Src/stm32l4xx_hal_smbus.c ****           using HAL_SMBUS_Slave_Receive_IT()
ARM GAS  /tmp/ccysATpZ.s 			page 3


  83:Drivers/STM32L4xx_HAL_Driver/Src/stm32l4xx_hal_smbus.c ****       (++) At reception end of transfer HAL_SMBUS_SlaveRxCpltCallback() is executed and users can
  84:Drivers/STM32L4xx_HAL_Driver/Src/stm32l4xx_hal_smbus.c ****            add their own code by customization of function pointer HAL_SMBUS_SlaveRxCpltCallback()
  85:Drivers/STM32L4xx_HAL_Driver/Src/stm32l4xx_hal_smbus.c ****       (+) Enable/Disable the SMBUS alert mode using
  86:Drivers/STM32L4xx_HAL_Driver/Src/stm32l4xx_hal_smbus.c ****           HAL_SMBUS_EnableAlert_IT() or HAL_SMBUS_DisableAlert_IT()
  87:Drivers/STM32L4xx_HAL_Driver/Src/stm32l4xx_hal_smbus.c ****       (++) When SMBUS Alert is generated HAL_SMBUS_ErrorCallback() is executed and users can
  88:Drivers/STM32L4xx_HAL_Driver/Src/stm32l4xx_hal_smbus.c ****            add their own code by customization of function pointer HAL_SMBUS_ErrorCallback()
  89:Drivers/STM32L4xx_HAL_Driver/Src/stm32l4xx_hal_smbus.c ****            to check the Alert Error Code using function HAL_SMBUS_GetError()
  90:Drivers/STM32L4xx_HAL_Driver/Src/stm32l4xx_hal_smbus.c ****       (+) Get HAL state machine or error values using HAL_SMBUS_GetState() or HAL_SMBUS_GetError()
  91:Drivers/STM32L4xx_HAL_Driver/Src/stm32l4xx_hal_smbus.c ****       (+) In case of transfer Error, HAL_SMBUS_ErrorCallback() function is executed and users can
  92:Drivers/STM32L4xx_HAL_Driver/Src/stm32l4xx_hal_smbus.c ****            add their own code by customization of function pointer HAL_SMBUS_ErrorCallback()
  93:Drivers/STM32L4xx_HAL_Driver/Src/stm32l4xx_hal_smbus.c ****            to check the Error Code using function HAL_SMBUS_GetError()
  94:Drivers/STM32L4xx_HAL_Driver/Src/stm32l4xx_hal_smbus.c **** 
  95:Drivers/STM32L4xx_HAL_Driver/Src/stm32l4xx_hal_smbus.c ****      *** SMBUS HAL driver macros list ***
  96:Drivers/STM32L4xx_HAL_Driver/Src/stm32l4xx_hal_smbus.c ****      ==================================
  97:Drivers/STM32L4xx_HAL_Driver/Src/stm32l4xx_hal_smbus.c ****      [..]
  98:Drivers/STM32L4xx_HAL_Driver/Src/stm32l4xx_hal_smbus.c ****        Below the list of most used macros in SMBUS HAL driver.
  99:Drivers/STM32L4xx_HAL_Driver/Src/stm32l4xx_hal_smbus.c **** 
 100:Drivers/STM32L4xx_HAL_Driver/Src/stm32l4xx_hal_smbus.c ****       (+) __HAL_SMBUS_ENABLE:      Enable the SMBUS peripheral
 101:Drivers/STM32L4xx_HAL_Driver/Src/stm32l4xx_hal_smbus.c ****       (+) __HAL_SMBUS_DISABLE:     Disable the SMBUS peripheral
 102:Drivers/STM32L4xx_HAL_Driver/Src/stm32l4xx_hal_smbus.c ****       (+) __HAL_SMBUS_GET_FLAG:    Check whether the specified SMBUS flag is set or not
 103:Drivers/STM32L4xx_HAL_Driver/Src/stm32l4xx_hal_smbus.c ****       (+) __HAL_SMBUS_CLEAR_FLAG:  Clear the specified SMBUS pending flag
 104:Drivers/STM32L4xx_HAL_Driver/Src/stm32l4xx_hal_smbus.c ****       (+) __HAL_SMBUS_ENABLE_IT:   Enable the specified SMBUS interrupt
 105:Drivers/STM32L4xx_HAL_Driver/Src/stm32l4xx_hal_smbus.c ****       (+) __HAL_SMBUS_DISABLE_IT:  Disable the specified SMBUS interrupt
 106:Drivers/STM32L4xx_HAL_Driver/Src/stm32l4xx_hal_smbus.c **** 
 107:Drivers/STM32L4xx_HAL_Driver/Src/stm32l4xx_hal_smbus.c ****      *** Callback registration ***
 108:Drivers/STM32L4xx_HAL_Driver/Src/stm32l4xx_hal_smbus.c ****      =============================================
 109:Drivers/STM32L4xx_HAL_Driver/Src/stm32l4xx_hal_smbus.c ****     [..]
 110:Drivers/STM32L4xx_HAL_Driver/Src/stm32l4xx_hal_smbus.c ****      The compilation flag USE_HAL_SMBUS_REGISTER_CALLBACKS when set to 1
 111:Drivers/STM32L4xx_HAL_Driver/Src/stm32l4xx_hal_smbus.c ****      allows the user to configure dynamically the driver callbacks.
 112:Drivers/STM32L4xx_HAL_Driver/Src/stm32l4xx_hal_smbus.c ****      Use Functions HAL_SMBUS_RegisterCallback() or HAL_SMBUS_RegisterAddrCallback()
 113:Drivers/STM32L4xx_HAL_Driver/Src/stm32l4xx_hal_smbus.c ****      to register an interrupt callback.
 114:Drivers/STM32L4xx_HAL_Driver/Src/stm32l4xx_hal_smbus.c ****     [..]
 115:Drivers/STM32L4xx_HAL_Driver/Src/stm32l4xx_hal_smbus.c ****      Function HAL_SMBUS_RegisterCallback() allows to register following callbacks:
 116:Drivers/STM32L4xx_HAL_Driver/Src/stm32l4xx_hal_smbus.c ****        (+) MasterTxCpltCallback : callback for Master transmission end of transfer.
 117:Drivers/STM32L4xx_HAL_Driver/Src/stm32l4xx_hal_smbus.c ****        (+) MasterRxCpltCallback : callback for Master reception end of transfer.
 118:Drivers/STM32L4xx_HAL_Driver/Src/stm32l4xx_hal_smbus.c ****        (+) SlaveTxCpltCallback  : callback for Slave transmission end of transfer.
 119:Drivers/STM32L4xx_HAL_Driver/Src/stm32l4xx_hal_smbus.c ****        (+) SlaveRxCpltCallback  : callback for Slave reception end of transfer.
 120:Drivers/STM32L4xx_HAL_Driver/Src/stm32l4xx_hal_smbus.c ****        (+) ListenCpltCallback   : callback for end of listen mode.
 121:Drivers/STM32L4xx_HAL_Driver/Src/stm32l4xx_hal_smbus.c ****        (+) ErrorCallback        : callback for error detection.
 122:Drivers/STM32L4xx_HAL_Driver/Src/stm32l4xx_hal_smbus.c ****        (+) MspInitCallback      : callback for Msp Init.
 123:Drivers/STM32L4xx_HAL_Driver/Src/stm32l4xx_hal_smbus.c ****        (+) MspDeInitCallback    : callback for Msp DeInit.
 124:Drivers/STM32L4xx_HAL_Driver/Src/stm32l4xx_hal_smbus.c ****      This function takes as parameters the HAL peripheral handle, the Callback ID
 125:Drivers/STM32L4xx_HAL_Driver/Src/stm32l4xx_hal_smbus.c ****      and a pointer to the user callback function.
 126:Drivers/STM32L4xx_HAL_Driver/Src/stm32l4xx_hal_smbus.c ****     [..]
 127:Drivers/STM32L4xx_HAL_Driver/Src/stm32l4xx_hal_smbus.c ****      For specific callback AddrCallback use dedicated register callbacks : HAL_SMBUS_RegisterAddrCa
 128:Drivers/STM32L4xx_HAL_Driver/Src/stm32l4xx_hal_smbus.c ****     [..]
 129:Drivers/STM32L4xx_HAL_Driver/Src/stm32l4xx_hal_smbus.c ****      Use function HAL_SMBUS_UnRegisterCallback to reset a callback to the default
 130:Drivers/STM32L4xx_HAL_Driver/Src/stm32l4xx_hal_smbus.c ****      weak function.
 131:Drivers/STM32L4xx_HAL_Driver/Src/stm32l4xx_hal_smbus.c ****      HAL_SMBUS_UnRegisterCallback takes as parameters the HAL peripheral handle,
 132:Drivers/STM32L4xx_HAL_Driver/Src/stm32l4xx_hal_smbus.c ****      and the Callback ID.
 133:Drivers/STM32L4xx_HAL_Driver/Src/stm32l4xx_hal_smbus.c ****      This function allows to reset following callbacks:
 134:Drivers/STM32L4xx_HAL_Driver/Src/stm32l4xx_hal_smbus.c ****        (+) MasterTxCpltCallback : callback for Master transmission end of transfer.
 135:Drivers/STM32L4xx_HAL_Driver/Src/stm32l4xx_hal_smbus.c ****        (+) MasterRxCpltCallback : callback for Master reception end of transfer.
 136:Drivers/STM32L4xx_HAL_Driver/Src/stm32l4xx_hal_smbus.c ****        (+) SlaveTxCpltCallback  : callback for Slave transmission end of transfer.
 137:Drivers/STM32L4xx_HAL_Driver/Src/stm32l4xx_hal_smbus.c ****        (+) SlaveRxCpltCallback  : callback for Slave reception end of transfer.
 138:Drivers/STM32L4xx_HAL_Driver/Src/stm32l4xx_hal_smbus.c ****        (+) ListenCpltCallback   : callback for end of listen mode.
 139:Drivers/STM32L4xx_HAL_Driver/Src/stm32l4xx_hal_smbus.c ****        (+) ErrorCallback        : callback for error detection.
ARM GAS  /tmp/ccysATpZ.s 			page 4


 140:Drivers/STM32L4xx_HAL_Driver/Src/stm32l4xx_hal_smbus.c ****        (+) MspInitCallback      : callback for Msp Init.
 141:Drivers/STM32L4xx_HAL_Driver/Src/stm32l4xx_hal_smbus.c ****        (+) MspDeInitCallback    : callback for Msp DeInit.
 142:Drivers/STM32L4xx_HAL_Driver/Src/stm32l4xx_hal_smbus.c ****     [..]
 143:Drivers/STM32L4xx_HAL_Driver/Src/stm32l4xx_hal_smbus.c ****      For callback AddrCallback use dedicated register callbacks : HAL_SMBUS_UnRegisterAddrCallback.
 144:Drivers/STM32L4xx_HAL_Driver/Src/stm32l4xx_hal_smbus.c ****     [..]
 145:Drivers/STM32L4xx_HAL_Driver/Src/stm32l4xx_hal_smbus.c ****      By default, after the HAL_SMBUS_Init() and when the state is HAL_I2C_STATE_RESET
 146:Drivers/STM32L4xx_HAL_Driver/Src/stm32l4xx_hal_smbus.c ****      all callbacks are set to the corresponding weak functions:
 147:Drivers/STM32L4xx_HAL_Driver/Src/stm32l4xx_hal_smbus.c ****      examples HAL_SMBUS_MasterTxCpltCallback(), HAL_SMBUS_MasterRxCpltCallback().
 148:Drivers/STM32L4xx_HAL_Driver/Src/stm32l4xx_hal_smbus.c ****      Exception done for MspInit and MspDeInit functions that are
 149:Drivers/STM32L4xx_HAL_Driver/Src/stm32l4xx_hal_smbus.c ****      reset to the legacy weak functions in the HAL_SMBUS_Init()/ HAL_SMBUS_DeInit() only when
 150:Drivers/STM32L4xx_HAL_Driver/Src/stm32l4xx_hal_smbus.c ****      these callbacks are null (not registered beforehand).
 151:Drivers/STM32L4xx_HAL_Driver/Src/stm32l4xx_hal_smbus.c ****      If MspInit or MspDeInit are not null, the HAL_SMBUS_Init()/ HAL_SMBUS_DeInit()
 152:Drivers/STM32L4xx_HAL_Driver/Src/stm32l4xx_hal_smbus.c ****      keep and use the user MspInit/MspDeInit callbacks (registered beforehand) whatever the state.
 153:Drivers/STM32L4xx_HAL_Driver/Src/stm32l4xx_hal_smbus.c ****     [..]
 154:Drivers/STM32L4xx_HAL_Driver/Src/stm32l4xx_hal_smbus.c ****      Callbacks can be registered/unregistered in HAL_I2C_STATE_READY state only.
 155:Drivers/STM32L4xx_HAL_Driver/Src/stm32l4xx_hal_smbus.c ****      Exception done MspInit/MspDeInit functions that can be registered/unregistered
 156:Drivers/STM32L4xx_HAL_Driver/Src/stm32l4xx_hal_smbus.c ****      in HAL_I2C_STATE_READY or HAL_I2C_STATE_RESET state,
 157:Drivers/STM32L4xx_HAL_Driver/Src/stm32l4xx_hal_smbus.c ****      thus registered (user) MspInit/DeInit callbacks can be used during the Init/DeInit.
 158:Drivers/STM32L4xx_HAL_Driver/Src/stm32l4xx_hal_smbus.c ****      Then, the user first registers the MspInit/MspDeInit user callbacks
 159:Drivers/STM32L4xx_HAL_Driver/Src/stm32l4xx_hal_smbus.c ****      using HAL_SMBUS_RegisterCallback() before calling HAL_SMBUS_DeInit()
 160:Drivers/STM32L4xx_HAL_Driver/Src/stm32l4xx_hal_smbus.c ****      or HAL_SMBUS_Init() function.
 161:Drivers/STM32L4xx_HAL_Driver/Src/stm32l4xx_hal_smbus.c ****     [..]
 162:Drivers/STM32L4xx_HAL_Driver/Src/stm32l4xx_hal_smbus.c ****      When the compilation flag USE_HAL_SMBUS_REGISTER_CALLBACKS is set to 0 or
 163:Drivers/STM32L4xx_HAL_Driver/Src/stm32l4xx_hal_smbus.c ****      not defined, the callback registration feature is not available and all callbacks
 164:Drivers/STM32L4xx_HAL_Driver/Src/stm32l4xx_hal_smbus.c ****      are set to the corresponding weak functions.
 165:Drivers/STM32L4xx_HAL_Driver/Src/stm32l4xx_hal_smbus.c **** 
 166:Drivers/STM32L4xx_HAL_Driver/Src/stm32l4xx_hal_smbus.c ****      [..]
 167:Drivers/STM32L4xx_HAL_Driver/Src/stm32l4xx_hal_smbus.c ****        (@) You can refer to the SMBUS HAL driver header file for more useful macros
 168:Drivers/STM32L4xx_HAL_Driver/Src/stm32l4xx_hal_smbus.c **** 
 169:Drivers/STM32L4xx_HAL_Driver/Src/stm32l4xx_hal_smbus.c ****   @endverbatim
 170:Drivers/STM32L4xx_HAL_Driver/Src/stm32l4xx_hal_smbus.c ****   */
 171:Drivers/STM32L4xx_HAL_Driver/Src/stm32l4xx_hal_smbus.c **** 
 172:Drivers/STM32L4xx_HAL_Driver/Src/stm32l4xx_hal_smbus.c **** /* Includes ------------------------------------------------------------------*/
 173:Drivers/STM32L4xx_HAL_Driver/Src/stm32l4xx_hal_smbus.c **** #include "stm32l4xx_hal.h"
 174:Drivers/STM32L4xx_HAL_Driver/Src/stm32l4xx_hal_smbus.c **** 
 175:Drivers/STM32L4xx_HAL_Driver/Src/stm32l4xx_hal_smbus.c **** /** @addtogroup STM32L4xx_HAL_Driver
 176:Drivers/STM32L4xx_HAL_Driver/Src/stm32l4xx_hal_smbus.c ****   * @{
 177:Drivers/STM32L4xx_HAL_Driver/Src/stm32l4xx_hal_smbus.c ****   */
 178:Drivers/STM32L4xx_HAL_Driver/Src/stm32l4xx_hal_smbus.c **** 
 179:Drivers/STM32L4xx_HAL_Driver/Src/stm32l4xx_hal_smbus.c **** /** @defgroup SMBUS SMBUS
 180:Drivers/STM32L4xx_HAL_Driver/Src/stm32l4xx_hal_smbus.c ****   * @brief SMBUS HAL module driver
 181:Drivers/STM32L4xx_HAL_Driver/Src/stm32l4xx_hal_smbus.c ****   * @{
 182:Drivers/STM32L4xx_HAL_Driver/Src/stm32l4xx_hal_smbus.c ****   */
 183:Drivers/STM32L4xx_HAL_Driver/Src/stm32l4xx_hal_smbus.c **** 
 184:Drivers/STM32L4xx_HAL_Driver/Src/stm32l4xx_hal_smbus.c **** #ifdef HAL_SMBUS_MODULE_ENABLED
 185:Drivers/STM32L4xx_HAL_Driver/Src/stm32l4xx_hal_smbus.c **** 
 186:Drivers/STM32L4xx_HAL_Driver/Src/stm32l4xx_hal_smbus.c **** /* Private typedef -----------------------------------------------------------*/
 187:Drivers/STM32L4xx_HAL_Driver/Src/stm32l4xx_hal_smbus.c **** /* Private constants ---------------------------------------------------------*/
 188:Drivers/STM32L4xx_HAL_Driver/Src/stm32l4xx_hal_smbus.c **** /** @defgroup SMBUS_Private_Define SMBUS Private Constants
 189:Drivers/STM32L4xx_HAL_Driver/Src/stm32l4xx_hal_smbus.c ****   * @{
 190:Drivers/STM32L4xx_HAL_Driver/Src/stm32l4xx_hal_smbus.c ****   */
 191:Drivers/STM32L4xx_HAL_Driver/Src/stm32l4xx_hal_smbus.c **** #define TIMING_CLEAR_MASK   (0xF0FFFFFFUL)     /*!< SMBUS TIMING clear register Mask */
 192:Drivers/STM32L4xx_HAL_Driver/Src/stm32l4xx_hal_smbus.c **** #define HAL_TIMEOUT_ADDR    (10000U)           /*!< 10 s  */
 193:Drivers/STM32L4xx_HAL_Driver/Src/stm32l4xx_hal_smbus.c **** #define HAL_TIMEOUT_BUSY    (25U)              /*!< 25 ms */
 194:Drivers/STM32L4xx_HAL_Driver/Src/stm32l4xx_hal_smbus.c **** #define HAL_TIMEOUT_DIR     (25U)              /*!< 25 ms */
 195:Drivers/STM32L4xx_HAL_Driver/Src/stm32l4xx_hal_smbus.c **** #define HAL_TIMEOUT_RXNE    (25U)              /*!< 25 ms */
 196:Drivers/STM32L4xx_HAL_Driver/Src/stm32l4xx_hal_smbus.c **** #define HAL_TIMEOUT_STOPF   (25U)              /*!< 25 ms */
ARM GAS  /tmp/ccysATpZ.s 			page 5


 197:Drivers/STM32L4xx_HAL_Driver/Src/stm32l4xx_hal_smbus.c **** #define HAL_TIMEOUT_TC      (25U)              /*!< 25 ms */
 198:Drivers/STM32L4xx_HAL_Driver/Src/stm32l4xx_hal_smbus.c **** #define HAL_TIMEOUT_TCR     (25U)              /*!< 25 ms */
 199:Drivers/STM32L4xx_HAL_Driver/Src/stm32l4xx_hal_smbus.c **** #define HAL_TIMEOUT_TXIS    (25U)              /*!< 25 ms */
 200:Drivers/STM32L4xx_HAL_Driver/Src/stm32l4xx_hal_smbus.c **** #define MAX_NBYTE_SIZE      255U
 201:Drivers/STM32L4xx_HAL_Driver/Src/stm32l4xx_hal_smbus.c **** /**
 202:Drivers/STM32L4xx_HAL_Driver/Src/stm32l4xx_hal_smbus.c ****   * @}
 203:Drivers/STM32L4xx_HAL_Driver/Src/stm32l4xx_hal_smbus.c ****   */
 204:Drivers/STM32L4xx_HAL_Driver/Src/stm32l4xx_hal_smbus.c **** 
 205:Drivers/STM32L4xx_HAL_Driver/Src/stm32l4xx_hal_smbus.c **** /* Private macro -------------------------------------------------------------*/
 206:Drivers/STM32L4xx_HAL_Driver/Src/stm32l4xx_hal_smbus.c **** /* Private variables ---------------------------------------------------------*/
 207:Drivers/STM32L4xx_HAL_Driver/Src/stm32l4xx_hal_smbus.c **** /* Private function prototypes -----------------------------------------------*/
 208:Drivers/STM32L4xx_HAL_Driver/Src/stm32l4xx_hal_smbus.c **** /** @addtogroup SMBUS_Private_Functions SMBUS Private Functions
 209:Drivers/STM32L4xx_HAL_Driver/Src/stm32l4xx_hal_smbus.c ****   * @{
 210:Drivers/STM32L4xx_HAL_Driver/Src/stm32l4xx_hal_smbus.c ****   */
 211:Drivers/STM32L4xx_HAL_Driver/Src/stm32l4xx_hal_smbus.c **** /* Private functions to handle flags during polling transfer */
 212:Drivers/STM32L4xx_HAL_Driver/Src/stm32l4xx_hal_smbus.c **** static HAL_StatusTypeDef SMBUS_WaitOnFlagUntilTimeout(SMBUS_HandleTypeDef *hsmbus, uint32_t Flag,
 213:Drivers/STM32L4xx_HAL_Driver/Src/stm32l4xx_hal_smbus.c ****                                                       FlagStatus Status, uint32_t Timeout);
 214:Drivers/STM32L4xx_HAL_Driver/Src/stm32l4xx_hal_smbus.c **** 
 215:Drivers/STM32L4xx_HAL_Driver/Src/stm32l4xx_hal_smbus.c **** /* Private functions for SMBUS transfer IRQ handler */
 216:Drivers/STM32L4xx_HAL_Driver/Src/stm32l4xx_hal_smbus.c **** static HAL_StatusTypeDef SMBUS_Master_ISR(SMBUS_HandleTypeDef *hsmbus, uint32_t StatusFlags);
 217:Drivers/STM32L4xx_HAL_Driver/Src/stm32l4xx_hal_smbus.c **** static HAL_StatusTypeDef SMBUS_Slave_ISR(SMBUS_HandleTypeDef *hsmbus, uint32_t StatusFlags);
 218:Drivers/STM32L4xx_HAL_Driver/Src/stm32l4xx_hal_smbus.c **** static void SMBUS_ITErrorHandler(SMBUS_HandleTypeDef *hsmbus);
 219:Drivers/STM32L4xx_HAL_Driver/Src/stm32l4xx_hal_smbus.c **** 
 220:Drivers/STM32L4xx_HAL_Driver/Src/stm32l4xx_hal_smbus.c **** /* Private functions to centralize the enable/disable of Interrupts */
 221:Drivers/STM32L4xx_HAL_Driver/Src/stm32l4xx_hal_smbus.c **** static void SMBUS_Enable_IRQ(SMBUS_HandleTypeDef *hsmbus, uint32_t InterruptRequest);
 222:Drivers/STM32L4xx_HAL_Driver/Src/stm32l4xx_hal_smbus.c **** static void SMBUS_Disable_IRQ(SMBUS_HandleTypeDef *hsmbus, uint32_t InterruptRequest);
 223:Drivers/STM32L4xx_HAL_Driver/Src/stm32l4xx_hal_smbus.c **** 
 224:Drivers/STM32L4xx_HAL_Driver/Src/stm32l4xx_hal_smbus.c **** /* Private function to flush TXDR register */
 225:Drivers/STM32L4xx_HAL_Driver/Src/stm32l4xx_hal_smbus.c **** static void SMBUS_Flush_TXDR(SMBUS_HandleTypeDef *hsmbus);
 226:Drivers/STM32L4xx_HAL_Driver/Src/stm32l4xx_hal_smbus.c **** 
 227:Drivers/STM32L4xx_HAL_Driver/Src/stm32l4xx_hal_smbus.c **** /* Private function to handle start, restart or stop a transfer */
 228:Drivers/STM32L4xx_HAL_Driver/Src/stm32l4xx_hal_smbus.c **** static void SMBUS_TransferConfig(SMBUS_HandleTypeDef *hsmbus,  uint16_t DevAddress, uint8_t Size,
 229:Drivers/STM32L4xx_HAL_Driver/Src/stm32l4xx_hal_smbus.c ****                                  uint32_t Mode, uint32_t Request);
 230:Drivers/STM32L4xx_HAL_Driver/Src/stm32l4xx_hal_smbus.c **** 
 231:Drivers/STM32L4xx_HAL_Driver/Src/stm32l4xx_hal_smbus.c **** /* Private function to Convert Specific options */
 232:Drivers/STM32L4xx_HAL_Driver/Src/stm32l4xx_hal_smbus.c **** static void SMBUS_ConvertOtherXferOptions(SMBUS_HandleTypeDef *hsmbus);
 233:Drivers/STM32L4xx_HAL_Driver/Src/stm32l4xx_hal_smbus.c **** /**
 234:Drivers/STM32L4xx_HAL_Driver/Src/stm32l4xx_hal_smbus.c ****   * @}
 235:Drivers/STM32L4xx_HAL_Driver/Src/stm32l4xx_hal_smbus.c ****   */
 236:Drivers/STM32L4xx_HAL_Driver/Src/stm32l4xx_hal_smbus.c **** 
 237:Drivers/STM32L4xx_HAL_Driver/Src/stm32l4xx_hal_smbus.c **** /* Exported functions --------------------------------------------------------*/
 238:Drivers/STM32L4xx_HAL_Driver/Src/stm32l4xx_hal_smbus.c **** 
 239:Drivers/STM32L4xx_HAL_Driver/Src/stm32l4xx_hal_smbus.c **** /** @defgroup SMBUS_Exported_Functions SMBUS Exported Functions
 240:Drivers/STM32L4xx_HAL_Driver/Src/stm32l4xx_hal_smbus.c ****   * @{
 241:Drivers/STM32L4xx_HAL_Driver/Src/stm32l4xx_hal_smbus.c ****   */
 242:Drivers/STM32L4xx_HAL_Driver/Src/stm32l4xx_hal_smbus.c **** 
 243:Drivers/STM32L4xx_HAL_Driver/Src/stm32l4xx_hal_smbus.c **** /** @defgroup SMBUS_Exported_Functions_Group1 Initialization and de-initialization functions
 244:Drivers/STM32L4xx_HAL_Driver/Src/stm32l4xx_hal_smbus.c ****   *  @brief    Initialization and Configuration functions
 245:Drivers/STM32L4xx_HAL_Driver/Src/stm32l4xx_hal_smbus.c ****   *
 246:Drivers/STM32L4xx_HAL_Driver/Src/stm32l4xx_hal_smbus.c **** @verbatim
 247:Drivers/STM32L4xx_HAL_Driver/Src/stm32l4xx_hal_smbus.c ****  ===============================================================================
 248:Drivers/STM32L4xx_HAL_Driver/Src/stm32l4xx_hal_smbus.c ****               ##### Initialization and de-initialization functions #####
 249:Drivers/STM32L4xx_HAL_Driver/Src/stm32l4xx_hal_smbus.c ****  ===============================================================================
 250:Drivers/STM32L4xx_HAL_Driver/Src/stm32l4xx_hal_smbus.c ****     [..]  This subsection provides a set of functions allowing to initialize and
 251:Drivers/STM32L4xx_HAL_Driver/Src/stm32l4xx_hal_smbus.c ****           deinitialize the SMBUSx peripheral:
 252:Drivers/STM32L4xx_HAL_Driver/Src/stm32l4xx_hal_smbus.c **** 
 253:Drivers/STM32L4xx_HAL_Driver/Src/stm32l4xx_hal_smbus.c ****       (+) User must Implement HAL_SMBUS_MspInit() function in which he configures
ARM GAS  /tmp/ccysATpZ.s 			page 6


 254:Drivers/STM32L4xx_HAL_Driver/Src/stm32l4xx_hal_smbus.c ****           all related peripherals resources (CLOCK, GPIO, IT and NVIC ).
 255:Drivers/STM32L4xx_HAL_Driver/Src/stm32l4xx_hal_smbus.c **** 
 256:Drivers/STM32L4xx_HAL_Driver/Src/stm32l4xx_hal_smbus.c ****       (+) Call the function HAL_SMBUS_Init() to configure the selected device with
 257:Drivers/STM32L4xx_HAL_Driver/Src/stm32l4xx_hal_smbus.c ****           the selected configuration:
 258:Drivers/STM32L4xx_HAL_Driver/Src/stm32l4xx_hal_smbus.c ****         (++) Clock Timing
 259:Drivers/STM32L4xx_HAL_Driver/Src/stm32l4xx_hal_smbus.c ****         (++) Bus Timeout
 260:Drivers/STM32L4xx_HAL_Driver/Src/stm32l4xx_hal_smbus.c ****         (++) Analog Filer mode
 261:Drivers/STM32L4xx_HAL_Driver/Src/stm32l4xx_hal_smbus.c ****         (++) Own Address 1
 262:Drivers/STM32L4xx_HAL_Driver/Src/stm32l4xx_hal_smbus.c ****         (++) Addressing mode (Master, Slave)
 263:Drivers/STM32L4xx_HAL_Driver/Src/stm32l4xx_hal_smbus.c ****         (++) Dual Addressing mode
 264:Drivers/STM32L4xx_HAL_Driver/Src/stm32l4xx_hal_smbus.c ****         (++) Own Address 2
 265:Drivers/STM32L4xx_HAL_Driver/Src/stm32l4xx_hal_smbus.c ****         (++) Own Address 2 Mask
 266:Drivers/STM32L4xx_HAL_Driver/Src/stm32l4xx_hal_smbus.c ****         (++) General call mode
 267:Drivers/STM32L4xx_HAL_Driver/Src/stm32l4xx_hal_smbus.c ****         (++) Nostretch mode
 268:Drivers/STM32L4xx_HAL_Driver/Src/stm32l4xx_hal_smbus.c ****         (++) Packet Error Check mode
 269:Drivers/STM32L4xx_HAL_Driver/Src/stm32l4xx_hal_smbus.c ****         (++) Peripheral mode
 270:Drivers/STM32L4xx_HAL_Driver/Src/stm32l4xx_hal_smbus.c **** 
 271:Drivers/STM32L4xx_HAL_Driver/Src/stm32l4xx_hal_smbus.c **** 
 272:Drivers/STM32L4xx_HAL_Driver/Src/stm32l4xx_hal_smbus.c ****       (+) Call the function HAL_SMBUS_DeInit() to restore the default configuration
 273:Drivers/STM32L4xx_HAL_Driver/Src/stm32l4xx_hal_smbus.c ****           of the selected SMBUSx peripheral.
 274:Drivers/STM32L4xx_HAL_Driver/Src/stm32l4xx_hal_smbus.c **** 
 275:Drivers/STM32L4xx_HAL_Driver/Src/stm32l4xx_hal_smbus.c ****       (+) Enable/Disable Analog/Digital filters with HAL_SMBUS_ConfigAnalogFilter() and
 276:Drivers/STM32L4xx_HAL_Driver/Src/stm32l4xx_hal_smbus.c ****           HAL_SMBUS_ConfigDigitalFilter().
 277:Drivers/STM32L4xx_HAL_Driver/Src/stm32l4xx_hal_smbus.c **** 
 278:Drivers/STM32L4xx_HAL_Driver/Src/stm32l4xx_hal_smbus.c **** @endverbatim
 279:Drivers/STM32L4xx_HAL_Driver/Src/stm32l4xx_hal_smbus.c ****   * @{
 280:Drivers/STM32L4xx_HAL_Driver/Src/stm32l4xx_hal_smbus.c ****   */
 281:Drivers/STM32L4xx_HAL_Driver/Src/stm32l4xx_hal_smbus.c **** 
 282:Drivers/STM32L4xx_HAL_Driver/Src/stm32l4xx_hal_smbus.c **** /**
 283:Drivers/STM32L4xx_HAL_Driver/Src/stm32l4xx_hal_smbus.c ****   * @brief  Initialize the SMBUS according to the specified parameters
 284:Drivers/STM32L4xx_HAL_Driver/Src/stm32l4xx_hal_smbus.c ****   *         in the SMBUS_InitTypeDef and initialize the associated handle.
 285:Drivers/STM32L4xx_HAL_Driver/Src/stm32l4xx_hal_smbus.c ****   * @param  hsmbus Pointer to a SMBUS_HandleTypeDef structure that contains
 286:Drivers/STM32L4xx_HAL_Driver/Src/stm32l4xx_hal_smbus.c ****   *                the configuration information for the specified SMBUS.
 287:Drivers/STM32L4xx_HAL_Driver/Src/stm32l4xx_hal_smbus.c ****   * @retval HAL status
 288:Drivers/STM32L4xx_HAL_Driver/Src/stm32l4xx_hal_smbus.c ****   */
 289:Drivers/STM32L4xx_HAL_Driver/Src/stm32l4xx_hal_smbus.c **** HAL_StatusTypeDef HAL_SMBUS_Init(SMBUS_HandleTypeDef *hsmbus)
 290:Drivers/STM32L4xx_HAL_Driver/Src/stm32l4xx_hal_smbus.c **** {
  35              		.loc 1 290 1
  36              		.cfi_startproc
  37              		@ args = 0, pretend = 0, frame = 8
  38              		@ frame_needed = 1, uses_anonymous_args = 0
  39 0000 80B5     		push	{r7, lr}
  40              		.cfi_def_cfa_offset 8
  41              		.cfi_offset 7, -8
  42              		.cfi_offset 14, -4
  43 0002 82B0     		sub	sp, sp, #8
  44              		.cfi_def_cfa_offset 16
  45 0004 00AF     		add	r7, sp, #0
  46              		.cfi_def_cfa_register 7
  47 0006 7860     		str	r0, [r7, #4]
 291:Drivers/STM32L4xx_HAL_Driver/Src/stm32l4xx_hal_smbus.c ****   /* Check the SMBUS handle allocation */
 292:Drivers/STM32L4xx_HAL_Driver/Src/stm32l4xx_hal_smbus.c ****   if (hsmbus == NULL)
  48              		.loc 1 292 6
  49 0008 7B68     		ldr	r3, [r7, #4]
  50 000a 002B     		cmp	r3, #0
  51 000c 01D1     		bne	.L2
 293:Drivers/STM32L4xx_HAL_Driver/Src/stm32l4xx_hal_smbus.c ****   {
ARM GAS  /tmp/ccysATpZ.s 			page 7


 294:Drivers/STM32L4xx_HAL_Driver/Src/stm32l4xx_hal_smbus.c ****     return HAL_ERROR;
  52              		.loc 1 294 12
  53 000e 0123     		movs	r3, #1
  54 0010 AAE0     		b	.L3
  55              	.L2:
 295:Drivers/STM32L4xx_HAL_Driver/Src/stm32l4xx_hal_smbus.c ****   }
 296:Drivers/STM32L4xx_HAL_Driver/Src/stm32l4xx_hal_smbus.c **** 
 297:Drivers/STM32L4xx_HAL_Driver/Src/stm32l4xx_hal_smbus.c ****   /* Check the parameters */
 298:Drivers/STM32L4xx_HAL_Driver/Src/stm32l4xx_hal_smbus.c ****   assert_param(IS_SMBUS_ALL_INSTANCE(hsmbus->Instance));
 299:Drivers/STM32L4xx_HAL_Driver/Src/stm32l4xx_hal_smbus.c ****   assert_param(IS_SMBUS_ANALOG_FILTER(hsmbus->Init.AnalogFilter));
 300:Drivers/STM32L4xx_HAL_Driver/Src/stm32l4xx_hal_smbus.c ****   assert_param(IS_SMBUS_OWN_ADDRESS1(hsmbus->Init.OwnAddress1));
 301:Drivers/STM32L4xx_HAL_Driver/Src/stm32l4xx_hal_smbus.c ****   assert_param(IS_SMBUS_ADDRESSING_MODE(hsmbus->Init.AddressingMode));
 302:Drivers/STM32L4xx_HAL_Driver/Src/stm32l4xx_hal_smbus.c ****   assert_param(IS_SMBUS_DUAL_ADDRESS(hsmbus->Init.DualAddressMode));
 303:Drivers/STM32L4xx_HAL_Driver/Src/stm32l4xx_hal_smbus.c ****   assert_param(IS_SMBUS_OWN_ADDRESS2(hsmbus->Init.OwnAddress2));
 304:Drivers/STM32L4xx_HAL_Driver/Src/stm32l4xx_hal_smbus.c ****   assert_param(IS_SMBUS_OWN_ADDRESS2_MASK(hsmbus->Init.OwnAddress2Masks));
 305:Drivers/STM32L4xx_HAL_Driver/Src/stm32l4xx_hal_smbus.c ****   assert_param(IS_SMBUS_GENERAL_CALL(hsmbus->Init.GeneralCallMode));
 306:Drivers/STM32L4xx_HAL_Driver/Src/stm32l4xx_hal_smbus.c ****   assert_param(IS_SMBUS_NO_STRETCH(hsmbus->Init.NoStretchMode));
 307:Drivers/STM32L4xx_HAL_Driver/Src/stm32l4xx_hal_smbus.c ****   assert_param(IS_SMBUS_PEC(hsmbus->Init.PacketErrorCheckMode));
 308:Drivers/STM32L4xx_HAL_Driver/Src/stm32l4xx_hal_smbus.c ****   assert_param(IS_SMBUS_PERIPHERAL_MODE(hsmbus->Init.PeripheralMode));
 309:Drivers/STM32L4xx_HAL_Driver/Src/stm32l4xx_hal_smbus.c **** 
 310:Drivers/STM32L4xx_HAL_Driver/Src/stm32l4xx_hal_smbus.c ****   if (hsmbus->State == HAL_SMBUS_STATE_RESET)
  56              		.loc 1 310 13
  57 0012 7B68     		ldr	r3, [r7, #4]
  58 0014 9B6C     		ldr	r3, [r3, #72]
  59              		.loc 1 310 6
  60 0016 002B     		cmp	r3, #0
  61 0018 06D1     		bne	.L4
 311:Drivers/STM32L4xx_HAL_Driver/Src/stm32l4xx_hal_smbus.c ****   {
 312:Drivers/STM32L4xx_HAL_Driver/Src/stm32l4xx_hal_smbus.c ****     /* Allocate lock resource and initialize it */
 313:Drivers/STM32L4xx_HAL_Driver/Src/stm32l4xx_hal_smbus.c ****     hsmbus->Lock = HAL_UNLOCKED;
  62              		.loc 1 313 18
  63 001a 7B68     		ldr	r3, [r7, #4]
  64 001c 0022     		movs	r2, #0
  65 001e 83F84420 		strb	r2, [r3, #68]
 314:Drivers/STM32L4xx_HAL_Driver/Src/stm32l4xx_hal_smbus.c **** 
 315:Drivers/STM32L4xx_HAL_Driver/Src/stm32l4xx_hal_smbus.c **** #if (USE_HAL_SMBUS_REGISTER_CALLBACKS == 1)
 316:Drivers/STM32L4xx_HAL_Driver/Src/stm32l4xx_hal_smbus.c ****     hsmbus->MasterTxCpltCallback = HAL_SMBUS_MasterTxCpltCallback; /* Legacy weak MasterTxCpltCallb
 317:Drivers/STM32L4xx_HAL_Driver/Src/stm32l4xx_hal_smbus.c ****     hsmbus->MasterRxCpltCallback = HAL_SMBUS_MasterRxCpltCallback; /* Legacy weak MasterRxCpltCallb
 318:Drivers/STM32L4xx_HAL_Driver/Src/stm32l4xx_hal_smbus.c ****     hsmbus->SlaveTxCpltCallback  = HAL_SMBUS_SlaveTxCpltCallback;  /* Legacy weak SlaveTxCpltCallba
 319:Drivers/STM32L4xx_HAL_Driver/Src/stm32l4xx_hal_smbus.c ****     hsmbus->SlaveRxCpltCallback  = HAL_SMBUS_SlaveRxCpltCallback;  /* Legacy weak SlaveRxCpltCallba
 320:Drivers/STM32L4xx_HAL_Driver/Src/stm32l4xx_hal_smbus.c ****     hsmbus->ListenCpltCallback   = HAL_SMBUS_ListenCpltCallback;   /* Legacy weak ListenCpltCallbac
 321:Drivers/STM32L4xx_HAL_Driver/Src/stm32l4xx_hal_smbus.c ****     hsmbus->ErrorCallback        = HAL_SMBUS_ErrorCallback;        /* Legacy weak ErrorCallback    
 322:Drivers/STM32L4xx_HAL_Driver/Src/stm32l4xx_hal_smbus.c ****     hsmbus->AddrCallback         = HAL_SMBUS_AddrCallback;         /* Legacy weak AddrCallback     
 323:Drivers/STM32L4xx_HAL_Driver/Src/stm32l4xx_hal_smbus.c **** 
 324:Drivers/STM32L4xx_HAL_Driver/Src/stm32l4xx_hal_smbus.c ****     if (hsmbus->MspInitCallback == NULL)
 325:Drivers/STM32L4xx_HAL_Driver/Src/stm32l4xx_hal_smbus.c ****     {
 326:Drivers/STM32L4xx_HAL_Driver/Src/stm32l4xx_hal_smbus.c ****       hsmbus->MspInitCallback = HAL_SMBUS_MspInit; /* Legacy weak MspInit  */
 327:Drivers/STM32L4xx_HAL_Driver/Src/stm32l4xx_hal_smbus.c ****     }
 328:Drivers/STM32L4xx_HAL_Driver/Src/stm32l4xx_hal_smbus.c **** 
 329:Drivers/STM32L4xx_HAL_Driver/Src/stm32l4xx_hal_smbus.c ****     /* Init the low level hardware : GPIO, CLOCK, CORTEX...etc */
 330:Drivers/STM32L4xx_HAL_Driver/Src/stm32l4xx_hal_smbus.c ****     hsmbus->MspInitCallback(hsmbus);
 331:Drivers/STM32L4xx_HAL_Driver/Src/stm32l4xx_hal_smbus.c **** #else
 332:Drivers/STM32L4xx_HAL_Driver/Src/stm32l4xx_hal_smbus.c ****     /* Init the low level hardware : GPIO, CLOCK, NVIC */
 333:Drivers/STM32L4xx_HAL_Driver/Src/stm32l4xx_hal_smbus.c ****     HAL_SMBUS_MspInit(hsmbus);
  66              		.loc 1 333 5
  67 0022 7868     		ldr	r0, [r7, #4]
  68 0024 FFF7FEFF 		bl	HAL_SMBUS_MspInit
ARM GAS  /tmp/ccysATpZ.s 			page 8


  69              	.L4:
 334:Drivers/STM32L4xx_HAL_Driver/Src/stm32l4xx_hal_smbus.c **** #endif /* USE_HAL_SMBUS_REGISTER_CALLBACKS */
 335:Drivers/STM32L4xx_HAL_Driver/Src/stm32l4xx_hal_smbus.c ****   }
 336:Drivers/STM32L4xx_HAL_Driver/Src/stm32l4xx_hal_smbus.c **** 
 337:Drivers/STM32L4xx_HAL_Driver/Src/stm32l4xx_hal_smbus.c ****   hsmbus->State = HAL_SMBUS_STATE_BUSY;
  70              		.loc 1 337 17
  71 0028 7B68     		ldr	r3, [r7, #4]
  72 002a 0222     		movs	r2, #2
  73 002c 9A64     		str	r2, [r3, #72]
 338:Drivers/STM32L4xx_HAL_Driver/Src/stm32l4xx_hal_smbus.c **** 
 339:Drivers/STM32L4xx_HAL_Driver/Src/stm32l4xx_hal_smbus.c ****   /* Disable the selected SMBUS peripheral */
 340:Drivers/STM32L4xx_HAL_Driver/Src/stm32l4xx_hal_smbus.c ****   __HAL_SMBUS_DISABLE(hsmbus);
  74              		.loc 1 340 3
  75 002e 7B68     		ldr	r3, [r7, #4]
  76 0030 1B68     		ldr	r3, [r3]
  77 0032 1A68     		ldr	r2, [r3]
  78 0034 7B68     		ldr	r3, [r7, #4]
  79 0036 1B68     		ldr	r3, [r3]
  80 0038 22F00102 		bic	r2, r2, #1
  81 003c 1A60     		str	r2, [r3]
 341:Drivers/STM32L4xx_HAL_Driver/Src/stm32l4xx_hal_smbus.c **** 
 342:Drivers/STM32L4xx_HAL_Driver/Src/stm32l4xx_hal_smbus.c ****   /*---------------------------- SMBUSx TIMINGR Configuration ------------------------*/
 343:Drivers/STM32L4xx_HAL_Driver/Src/stm32l4xx_hal_smbus.c ****   /* Configure SMBUSx: Frequency range */
 344:Drivers/STM32L4xx_HAL_Driver/Src/stm32l4xx_hal_smbus.c ****   hsmbus->Instance->TIMINGR = hsmbus->Init.Timing & TIMING_CLEAR_MASK;
  82              		.loc 1 344 43
  83 003e 7B68     		ldr	r3, [r7, #4]
  84 0040 5A68     		ldr	r2, [r3, #4]
  85              		.loc 1 344 9
  86 0042 7B68     		ldr	r3, [r7, #4]
  87 0044 1B68     		ldr	r3, [r3]
  88              		.loc 1 344 51
  89 0046 22F07062 		bic	r2, r2, #251658240
  90              		.loc 1 344 29
  91 004a 1A61     		str	r2, [r3, #16]
 345:Drivers/STM32L4xx_HAL_Driver/Src/stm32l4xx_hal_smbus.c **** 
 346:Drivers/STM32L4xx_HAL_Driver/Src/stm32l4xx_hal_smbus.c ****   /*---------------------------- SMBUSx TIMEOUTR Configuration ------------------------*/
 347:Drivers/STM32L4xx_HAL_Driver/Src/stm32l4xx_hal_smbus.c ****   /* Configure SMBUSx: Bus Timeout  */
 348:Drivers/STM32L4xx_HAL_Driver/Src/stm32l4xx_hal_smbus.c ****   hsmbus->Instance->TIMEOUTR &= ~I2C_TIMEOUTR_TIMOUTEN;
  92              		.loc 1 348 9
  93 004c 7B68     		ldr	r3, [r7, #4]
  94 004e 1B68     		ldr	r3, [r3]
  95              		.loc 1 348 19
  96 0050 5A69     		ldr	r2, [r3, #20]
  97              		.loc 1 348 9
  98 0052 7B68     		ldr	r3, [r7, #4]
  99 0054 1B68     		ldr	r3, [r3]
 100              		.loc 1 348 30
 101 0056 22F40042 		bic	r2, r2, #32768
 102 005a 5A61     		str	r2, [r3, #20]
 349:Drivers/STM32L4xx_HAL_Driver/Src/stm32l4xx_hal_smbus.c ****   hsmbus->Instance->TIMEOUTR &= ~I2C_TIMEOUTR_TEXTEN;
 103              		.loc 1 349 9
 104 005c 7B68     		ldr	r3, [r7, #4]
 105 005e 1B68     		ldr	r3, [r3]
 106              		.loc 1 349 19
 107 0060 5A69     		ldr	r2, [r3, #20]
 108              		.loc 1 349 9
 109 0062 7B68     		ldr	r3, [r7, #4]
ARM GAS  /tmp/ccysATpZ.s 			page 9


 110 0064 1B68     		ldr	r3, [r3]
 111              		.loc 1 349 30
 112 0066 22F00042 		bic	r2, r2, #-2147483648
 113 006a 5A61     		str	r2, [r3, #20]
 350:Drivers/STM32L4xx_HAL_Driver/Src/stm32l4xx_hal_smbus.c ****   hsmbus->Instance->TIMEOUTR = hsmbus->Init.SMBusTimeout;
 114              		.loc 1 350 9
 115 006c 7B68     		ldr	r3, [r7, #4]
 116 006e 1B68     		ldr	r3, [r3]
 117              		.loc 1 350 44
 118 0070 7A68     		ldr	r2, [r7, #4]
 119 0072 126B     		ldr	r2, [r2, #48]
 120              		.loc 1 350 30
 121 0074 5A61     		str	r2, [r3, #20]
 351:Drivers/STM32L4xx_HAL_Driver/Src/stm32l4xx_hal_smbus.c **** 
 352:Drivers/STM32L4xx_HAL_Driver/Src/stm32l4xx_hal_smbus.c ****   /*---------------------------- SMBUSx OAR1 Configuration -----------------------*/
 353:Drivers/STM32L4xx_HAL_Driver/Src/stm32l4xx_hal_smbus.c ****   /* Configure SMBUSx: Own Address1 and ack own address1 mode */
 354:Drivers/STM32L4xx_HAL_Driver/Src/stm32l4xx_hal_smbus.c ****   hsmbus->Instance->OAR1 &= ~I2C_OAR1_OA1EN;
 122              		.loc 1 354 9
 123 0076 7B68     		ldr	r3, [r7, #4]
 124 0078 1B68     		ldr	r3, [r3]
 125              		.loc 1 354 19
 126 007a 9A68     		ldr	r2, [r3, #8]
 127              		.loc 1 354 9
 128 007c 7B68     		ldr	r3, [r7, #4]
 129 007e 1B68     		ldr	r3, [r3]
 130              		.loc 1 354 26
 131 0080 22F40042 		bic	r2, r2, #32768
 132 0084 9A60     		str	r2, [r3, #8]
 355:Drivers/STM32L4xx_HAL_Driver/Src/stm32l4xx_hal_smbus.c **** 
 356:Drivers/STM32L4xx_HAL_Driver/Src/stm32l4xx_hal_smbus.c ****   if (hsmbus->Init.OwnAddress1 != 0UL)
 133              		.loc 1 356 19
 134 0086 7B68     		ldr	r3, [r7, #4]
 135 0088 DB68     		ldr	r3, [r3, #12]
 136              		.loc 1 356 6
 137 008a 002B     		cmp	r3, #0
 138 008c 12D0     		beq	.L5
 357:Drivers/STM32L4xx_HAL_Driver/Src/stm32l4xx_hal_smbus.c ****   {
 358:Drivers/STM32L4xx_HAL_Driver/Src/stm32l4xx_hal_smbus.c ****     if (hsmbus->Init.AddressingMode == SMBUS_ADDRESSINGMODE_7BIT)
 139              		.loc 1 358 21
 140 008e 7B68     		ldr	r3, [r7, #4]
 141 0090 1B69     		ldr	r3, [r3, #16]
 142              		.loc 1 358 8
 143 0092 012B     		cmp	r3, #1
 144 0094 07D1     		bne	.L6
 359:Drivers/STM32L4xx_HAL_Driver/Src/stm32l4xx_hal_smbus.c ****     {
 360:Drivers/STM32L4xx_HAL_Driver/Src/stm32l4xx_hal_smbus.c ****       hsmbus->Instance->OAR1 = (I2C_OAR1_OA1EN | hsmbus->Init.OwnAddress1);
 145              		.loc 1 360 62
 146 0096 7B68     		ldr	r3, [r7, #4]
 147 0098 DA68     		ldr	r2, [r3, #12]
 148              		.loc 1 360 13
 149 009a 7B68     		ldr	r3, [r7, #4]
 150 009c 1B68     		ldr	r3, [r3]
 151              		.loc 1 360 48
 152 009e 42F40042 		orr	r2, r2, #32768
 153              		.loc 1 360 30
 154 00a2 9A60     		str	r2, [r3, #8]
 155 00a4 06E0     		b	.L5
ARM GAS  /tmp/ccysATpZ.s 			page 10


 156              	.L6:
 361:Drivers/STM32L4xx_HAL_Driver/Src/stm32l4xx_hal_smbus.c ****     }
 362:Drivers/STM32L4xx_HAL_Driver/Src/stm32l4xx_hal_smbus.c ****     else /* SMBUS_ADDRESSINGMODE_10BIT */
 363:Drivers/STM32L4xx_HAL_Driver/Src/stm32l4xx_hal_smbus.c ****     {
 364:Drivers/STM32L4xx_HAL_Driver/Src/stm32l4xx_hal_smbus.c ****       hsmbus->Instance->OAR1 = (I2C_OAR1_OA1EN | I2C_OAR1_OA1MODE | hsmbus->Init.OwnAddress1);
 157              		.loc 1 364 81
 158 00a6 7B68     		ldr	r3, [r7, #4]
 159 00a8 DA68     		ldr	r2, [r3, #12]
 160              		.loc 1 364 13
 161 00aa 7B68     		ldr	r3, [r7, #4]
 162 00ac 1B68     		ldr	r3, [r3]
 163              		.loc 1 364 67
 164 00ae 42F40442 		orr	r2, r2, #33792
 165              		.loc 1 364 30
 166 00b2 9A60     		str	r2, [r3, #8]
 167              	.L5:
 365:Drivers/STM32L4xx_HAL_Driver/Src/stm32l4xx_hal_smbus.c ****     }
 366:Drivers/STM32L4xx_HAL_Driver/Src/stm32l4xx_hal_smbus.c ****   }
 367:Drivers/STM32L4xx_HAL_Driver/Src/stm32l4xx_hal_smbus.c **** 
 368:Drivers/STM32L4xx_HAL_Driver/Src/stm32l4xx_hal_smbus.c ****   /*---------------------------- SMBUSx CR2 Configuration ------------------------*/
 369:Drivers/STM32L4xx_HAL_Driver/Src/stm32l4xx_hal_smbus.c ****   /* Configure SMBUSx: Addressing Master mode */
 370:Drivers/STM32L4xx_HAL_Driver/Src/stm32l4xx_hal_smbus.c ****   if (hsmbus->Init.AddressingMode == SMBUS_ADDRESSINGMODE_10BIT)
 168              		.loc 1 370 19
 169 00b4 7B68     		ldr	r3, [r7, #4]
 170 00b6 1B69     		ldr	r3, [r3, #16]
 171              		.loc 1 370 6
 172 00b8 022B     		cmp	r3, #2
 173 00ba 04D1     		bne	.L7
 371:Drivers/STM32L4xx_HAL_Driver/Src/stm32l4xx_hal_smbus.c ****   {
 372:Drivers/STM32L4xx_HAL_Driver/Src/stm32l4xx_hal_smbus.c ****     hsmbus->Instance->CR2 = (I2C_CR2_ADD10);
 174              		.loc 1 372 11
 175 00bc 7B68     		ldr	r3, [r7, #4]
 176 00be 1B68     		ldr	r3, [r3]
 177              		.loc 1 372 27
 178 00c0 4FF40062 		mov	r2, #2048
 179 00c4 5A60     		str	r2, [r3, #4]
 180              	.L7:
 373:Drivers/STM32L4xx_HAL_Driver/Src/stm32l4xx_hal_smbus.c ****   }
 374:Drivers/STM32L4xx_HAL_Driver/Src/stm32l4xx_hal_smbus.c ****   /* Enable the AUTOEND by default, and enable NACK (should be disable only during Slave process) *
 375:Drivers/STM32L4xx_HAL_Driver/Src/stm32l4xx_hal_smbus.c ****   /* AUTOEND and NACK bit will be manage during Transfer process */
 376:Drivers/STM32L4xx_HAL_Driver/Src/stm32l4xx_hal_smbus.c ****   hsmbus->Instance->CR2 |= (I2C_CR2_AUTOEND | I2C_CR2_NACK);
 181              		.loc 1 376 9
 182 00c6 7B68     		ldr	r3, [r7, #4]
 183 00c8 1B68     		ldr	r3, [r3]
 184              		.loc 1 376 19
 185 00ca 5B68     		ldr	r3, [r3, #4]
 186              		.loc 1 376 9
 187 00cc 7A68     		ldr	r2, [r7, #4]
 188 00ce 1268     		ldr	r2, [r2]
 189              		.loc 1 376 25
 190 00d0 43F00073 		orr	r3, r3, #33554432
 191 00d4 43F40043 		orr	r3, r3, #32768
 192 00d8 5360     		str	r3, [r2, #4]
 377:Drivers/STM32L4xx_HAL_Driver/Src/stm32l4xx_hal_smbus.c **** 
 378:Drivers/STM32L4xx_HAL_Driver/Src/stm32l4xx_hal_smbus.c ****   /*---------------------------- SMBUSx OAR2 Configuration -----------------------*/
 379:Drivers/STM32L4xx_HAL_Driver/Src/stm32l4xx_hal_smbus.c ****   /* Configure SMBUSx: Dual mode and Own Address2 */
 380:Drivers/STM32L4xx_HAL_Driver/Src/stm32l4xx_hal_smbus.c ****   hsmbus->Instance->OAR2 = (hsmbus->Init.DualAddressMode | hsmbus->Init.OwnAddress2 | \
ARM GAS  /tmp/ccysATpZ.s 			page 11


 193              		.loc 1 380 41
 194 00da 7B68     		ldr	r3, [r7, #4]
 195 00dc 5A69     		ldr	r2, [r3, #20]
 196              		.loc 1 380 72
 197 00de 7B68     		ldr	r3, [r7, #4]
 198 00e0 9B69     		ldr	r3, [r3, #24]
 199              		.loc 1 380 58
 200 00e2 42EA0301 		orr	r1, r2, r3
 381:Drivers/STM32L4xx_HAL_Driver/Src/stm32l4xx_hal_smbus.c ****                             (hsmbus->Init.OwnAddress2Masks << 8U));
 201              		.loc 1 381 42
 202 00e6 7B68     		ldr	r3, [r7, #4]
 203 00e8 DB69     		ldr	r3, [r3, #28]
 204              		.loc 1 381 60
 205 00ea 1A02     		lsls	r2, r3, #8
 380:Drivers/STM32L4xx_HAL_Driver/Src/stm32l4xx_hal_smbus.c ****                             (hsmbus->Init.OwnAddress2Masks << 8U));
 206              		.loc 1 380 9
 207 00ec 7B68     		ldr	r3, [r7, #4]
 208 00ee 1B68     		ldr	r3, [r3]
 380:Drivers/STM32L4xx_HAL_Driver/Src/stm32l4xx_hal_smbus.c ****                             (hsmbus->Init.OwnAddress2Masks << 8U));
 209              		.loc 1 380 85
 210 00f0 0A43     		orrs	r2, r2, r1
 380:Drivers/STM32L4xx_HAL_Driver/Src/stm32l4xx_hal_smbus.c ****                             (hsmbus->Init.OwnAddress2Masks << 8U));
 211              		.loc 1 380 26
 212 00f2 DA60     		str	r2, [r3, #12]
 382:Drivers/STM32L4xx_HAL_Driver/Src/stm32l4xx_hal_smbus.c **** 
 383:Drivers/STM32L4xx_HAL_Driver/Src/stm32l4xx_hal_smbus.c ****   /*---------------------------- SMBUSx CR1 Configuration ------------------------*/
 384:Drivers/STM32L4xx_HAL_Driver/Src/stm32l4xx_hal_smbus.c ****   /* Configure SMBUSx: Generalcall and NoStretch mode */
 385:Drivers/STM32L4xx_HAL_Driver/Src/stm32l4xx_hal_smbus.c ****   hsmbus->Instance->CR1 = (hsmbus->Init.GeneralCallMode | hsmbus->Init.NoStretchMode | \
 213              		.loc 1 385 40
 214 00f4 7B68     		ldr	r3, [r7, #4]
 215 00f6 1A6A     		ldr	r2, [r3, #32]
 216              		.loc 1 385 71
 217 00f8 7B68     		ldr	r3, [r7, #4]
 218 00fa 5B6A     		ldr	r3, [r3, #36]
 219              		.loc 1 385 57
 220 00fc 1A43     		orrs	r2, r2, r3
 386:Drivers/STM32L4xx_HAL_Driver/Src/stm32l4xx_hal_smbus.c ****                            hsmbus->Init.PacketErrorCheckMode | hsmbus->Init.PeripheralMode | \
 221              		.loc 1 386 40
 222 00fe 7B68     		ldr	r3, [r7, #4]
 223 0100 9B6A     		ldr	r3, [r3, #40]
 385:Drivers/STM32L4xx_HAL_Driver/Src/stm32l4xx_hal_smbus.c ****                            hsmbus->Init.PacketErrorCheckMode | hsmbus->Init.PeripheralMode | \
 224              		.loc 1 385 86
 225 0102 1A43     		orrs	r2, r2, r3
 226              		.loc 1 386 76
 227 0104 7B68     		ldr	r3, [r7, #4]
 228 0106 DB6A     		ldr	r3, [r3, #44]
 229              		.loc 1 386 62
 230 0108 42EA0301 		orr	r1, r2, r3
 387:Drivers/STM32L4xx_HAL_Driver/Src/stm32l4xx_hal_smbus.c ****                            hsmbus->Init.AnalogFilter);
 231              		.loc 1 387 40
 232 010c 7B68     		ldr	r3, [r7, #4]
 233 010e 9A68     		ldr	r2, [r3, #8]
 385:Drivers/STM32L4xx_HAL_Driver/Src/stm32l4xx_hal_smbus.c ****                            hsmbus->Init.PacketErrorCheckMode | hsmbus->Init.PeripheralMode | \
 234              		.loc 1 385 9
 235 0110 7B68     		ldr	r3, [r7, #4]
 236 0112 1B68     		ldr	r3, [r3]
 386:Drivers/STM32L4xx_HAL_Driver/Src/stm32l4xx_hal_smbus.c ****                            hsmbus->Init.PacketErrorCheckMode | hsmbus->Init.PeripheralMode | \
ARM GAS  /tmp/ccysATpZ.s 			page 12


 237              		.loc 1 386 92
 238 0114 0A43     		orrs	r2, r2, r1
 385:Drivers/STM32L4xx_HAL_Driver/Src/stm32l4xx_hal_smbus.c ****                            hsmbus->Init.PacketErrorCheckMode | hsmbus->Init.PeripheralMode | \
 239              		.loc 1 385 25
 240 0116 1A60     		str	r2, [r3]
 388:Drivers/STM32L4xx_HAL_Driver/Src/stm32l4xx_hal_smbus.c **** 
 389:Drivers/STM32L4xx_HAL_Driver/Src/stm32l4xx_hal_smbus.c ****   /* Enable Slave Byte Control only in case of Packet Error Check is enabled
 390:Drivers/STM32L4xx_HAL_Driver/Src/stm32l4xx_hal_smbus.c ****      and SMBUS Peripheral is set in Slave mode */
 391:Drivers/STM32L4xx_HAL_Driver/Src/stm32l4xx_hal_smbus.c ****   if ((hsmbus->Init.PacketErrorCheckMode == SMBUS_PEC_ENABLE) && \
 241              		.loc 1 391 20
 242 0118 7B68     		ldr	r3, [r7, #4]
 243 011a 9B6A     		ldr	r3, [r3, #40]
 244              		.loc 1 391 6
 245 011c B3F5000F 		cmp	r3, #8388608
 246 0120 10D1     		bne	.L8
 392:Drivers/STM32L4xx_HAL_Driver/Src/stm32l4xx_hal_smbus.c ****       ((hsmbus->Init.PeripheralMode == SMBUS_PERIPHERAL_MODE_SMBUS_SLAVE) || \
 247              		.loc 1 392 21
 248 0122 7B68     		ldr	r3, [r7, #4]
 249 0124 DB6A     		ldr	r3, [r3, #44]
 391:Drivers/STM32L4xx_HAL_Driver/Src/stm32l4xx_hal_smbus.c ****       ((hsmbus->Init.PeripheralMode == SMBUS_PERIPHERAL_MODE_SMBUS_SLAVE) || \
 250              		.loc 1 391 63 discriminator 1
 251 0126 002B     		cmp	r3, #0
 252 0128 04D0     		beq	.L9
 393:Drivers/STM32L4xx_HAL_Driver/Src/stm32l4xx_hal_smbus.c ****        (hsmbus->Init.PeripheralMode == SMBUS_PERIPHERAL_MODE_SMBUS_SLAVE_ARP)))
 253              		.loc 1 393 21
 254 012a 7B68     		ldr	r3, [r7, #4]
 255 012c DB6A     		ldr	r3, [r3, #44]
 392:Drivers/STM32L4xx_HAL_Driver/Src/stm32l4xx_hal_smbus.c ****       ((hsmbus->Init.PeripheralMode == SMBUS_PERIPHERAL_MODE_SMBUS_SLAVE) || \
 256              		.loc 1 392 75
 257 012e B3F5001F 		cmp	r3, #2097152
 258 0132 07D1     		bne	.L8
 259              	.L9:
 394:Drivers/STM32L4xx_HAL_Driver/Src/stm32l4xx_hal_smbus.c ****   {
 395:Drivers/STM32L4xx_HAL_Driver/Src/stm32l4xx_hal_smbus.c ****     hsmbus->Instance->CR1 |= I2C_CR1_SBC;
 260              		.loc 1 395 11
 261 0134 7B68     		ldr	r3, [r7, #4]
 262 0136 1B68     		ldr	r3, [r3]
 263              		.loc 1 395 21
 264 0138 1A68     		ldr	r2, [r3]
 265              		.loc 1 395 11
 266 013a 7B68     		ldr	r3, [r7, #4]
 267 013c 1B68     		ldr	r3, [r3]
 268              		.loc 1 395 27
 269 013e 42F48032 		orr	r2, r2, #65536
 270 0142 1A60     		str	r2, [r3]
 271              	.L8:
 396:Drivers/STM32L4xx_HAL_Driver/Src/stm32l4xx_hal_smbus.c ****   }
 397:Drivers/STM32L4xx_HAL_Driver/Src/stm32l4xx_hal_smbus.c **** 
 398:Drivers/STM32L4xx_HAL_Driver/Src/stm32l4xx_hal_smbus.c ****   /* Enable the selected SMBUS peripheral */
 399:Drivers/STM32L4xx_HAL_Driver/Src/stm32l4xx_hal_smbus.c ****   __HAL_SMBUS_ENABLE(hsmbus);
 272              		.loc 1 399 3
 273 0144 7B68     		ldr	r3, [r7, #4]
 274 0146 1B68     		ldr	r3, [r3]
 275 0148 1A68     		ldr	r2, [r3]
 276 014a 7B68     		ldr	r3, [r7, #4]
 277 014c 1B68     		ldr	r3, [r3]
 278 014e 42F00102 		orr	r2, r2, #1
ARM GAS  /tmp/ccysATpZ.s 			page 13


 279 0152 1A60     		str	r2, [r3]
 400:Drivers/STM32L4xx_HAL_Driver/Src/stm32l4xx_hal_smbus.c **** 
 401:Drivers/STM32L4xx_HAL_Driver/Src/stm32l4xx_hal_smbus.c ****   hsmbus->ErrorCode = HAL_SMBUS_ERROR_NONE;
 280              		.loc 1 401 21
 281 0154 7B68     		ldr	r3, [r7, #4]
 282 0156 0022     		movs	r2, #0
 283 0158 DA64     		str	r2, [r3, #76]
 402:Drivers/STM32L4xx_HAL_Driver/Src/stm32l4xx_hal_smbus.c ****   hsmbus->PreviousState = HAL_SMBUS_STATE_READY;
 284              		.loc 1 402 25
 285 015a 7B68     		ldr	r3, [r7, #4]
 286 015c 0122     		movs	r2, #1
 287 015e 1A64     		str	r2, [r3, #64]
 403:Drivers/STM32L4xx_HAL_Driver/Src/stm32l4xx_hal_smbus.c ****   hsmbus->State = HAL_SMBUS_STATE_READY;
 288              		.loc 1 403 17
 289 0160 7B68     		ldr	r3, [r7, #4]
 290 0162 0122     		movs	r2, #1
 291 0164 9A64     		str	r2, [r3, #72]
 404:Drivers/STM32L4xx_HAL_Driver/Src/stm32l4xx_hal_smbus.c **** 
 405:Drivers/STM32L4xx_HAL_Driver/Src/stm32l4xx_hal_smbus.c ****   return HAL_OK;
 292              		.loc 1 405 10
 293 0166 0023     		movs	r3, #0
 294              	.L3:
 406:Drivers/STM32L4xx_HAL_Driver/Src/stm32l4xx_hal_smbus.c **** }
 295              		.loc 1 406 1
 296 0168 1846     		mov	r0, r3
 297 016a 0837     		adds	r7, r7, #8
 298              		.cfi_def_cfa_offset 8
 299 016c BD46     		mov	sp, r7
 300              		.cfi_def_cfa_register 13
 301              		@ sp needed
 302 016e 80BD     		pop	{r7, pc}
 303              		.cfi_endproc
 304              	.LFE445:
 306              		.section	.text.HAL_SMBUS_DeInit,"ax",%progbits
 307              		.align	1
 308              		.global	HAL_SMBUS_DeInit
 309              		.syntax unified
 310              		.thumb
 311              		.thumb_func
 313              	HAL_SMBUS_DeInit:
 314              	.LFB446:
 407:Drivers/STM32L4xx_HAL_Driver/Src/stm32l4xx_hal_smbus.c **** 
 408:Drivers/STM32L4xx_HAL_Driver/Src/stm32l4xx_hal_smbus.c **** /**
 409:Drivers/STM32L4xx_HAL_Driver/Src/stm32l4xx_hal_smbus.c ****   * @brief  DeInitialize the SMBUS peripheral.
 410:Drivers/STM32L4xx_HAL_Driver/Src/stm32l4xx_hal_smbus.c ****   * @param  hsmbus Pointer to a SMBUS_HandleTypeDef structure that contains
 411:Drivers/STM32L4xx_HAL_Driver/Src/stm32l4xx_hal_smbus.c ****   *                the configuration information for the specified SMBUS.
 412:Drivers/STM32L4xx_HAL_Driver/Src/stm32l4xx_hal_smbus.c ****   * @retval HAL status
 413:Drivers/STM32L4xx_HAL_Driver/Src/stm32l4xx_hal_smbus.c ****   */
 414:Drivers/STM32L4xx_HAL_Driver/Src/stm32l4xx_hal_smbus.c **** HAL_StatusTypeDef HAL_SMBUS_DeInit(SMBUS_HandleTypeDef *hsmbus)
 415:Drivers/STM32L4xx_HAL_Driver/Src/stm32l4xx_hal_smbus.c **** {
 315              		.loc 1 415 1
 316              		.cfi_startproc
 317              		@ args = 0, pretend = 0, frame = 8
 318              		@ frame_needed = 1, uses_anonymous_args = 0
 319 0000 80B5     		push	{r7, lr}
 320              		.cfi_def_cfa_offset 8
 321              		.cfi_offset 7, -8
ARM GAS  /tmp/ccysATpZ.s 			page 14


 322              		.cfi_offset 14, -4
 323 0002 82B0     		sub	sp, sp, #8
 324              		.cfi_def_cfa_offset 16
 325 0004 00AF     		add	r7, sp, #0
 326              		.cfi_def_cfa_register 7
 327 0006 7860     		str	r0, [r7, #4]
 416:Drivers/STM32L4xx_HAL_Driver/Src/stm32l4xx_hal_smbus.c ****   /* Check the SMBUS handle allocation */
 417:Drivers/STM32L4xx_HAL_Driver/Src/stm32l4xx_hal_smbus.c ****   if (hsmbus == NULL)
 328              		.loc 1 417 6
 329 0008 7B68     		ldr	r3, [r7, #4]
 330 000a 002B     		cmp	r3, #0
 331 000c 01D1     		bne	.L11
 418:Drivers/STM32L4xx_HAL_Driver/Src/stm32l4xx_hal_smbus.c ****   {
 419:Drivers/STM32L4xx_HAL_Driver/Src/stm32l4xx_hal_smbus.c ****     return HAL_ERROR;
 332              		.loc 1 419 12
 333 000e 0123     		movs	r3, #1
 334 0010 1BE0     		b	.L12
 335              	.L11:
 420:Drivers/STM32L4xx_HAL_Driver/Src/stm32l4xx_hal_smbus.c ****   }
 421:Drivers/STM32L4xx_HAL_Driver/Src/stm32l4xx_hal_smbus.c **** 
 422:Drivers/STM32L4xx_HAL_Driver/Src/stm32l4xx_hal_smbus.c ****   /* Check the parameters */
 423:Drivers/STM32L4xx_HAL_Driver/Src/stm32l4xx_hal_smbus.c ****   assert_param(IS_SMBUS_ALL_INSTANCE(hsmbus->Instance));
 424:Drivers/STM32L4xx_HAL_Driver/Src/stm32l4xx_hal_smbus.c **** 
 425:Drivers/STM32L4xx_HAL_Driver/Src/stm32l4xx_hal_smbus.c ****   hsmbus->State = HAL_SMBUS_STATE_BUSY;
 336              		.loc 1 425 17
 337 0012 7B68     		ldr	r3, [r7, #4]
 338 0014 0222     		movs	r2, #2
 339 0016 9A64     		str	r2, [r3, #72]
 426:Drivers/STM32L4xx_HAL_Driver/Src/stm32l4xx_hal_smbus.c **** 
 427:Drivers/STM32L4xx_HAL_Driver/Src/stm32l4xx_hal_smbus.c ****   /* Disable the SMBUS Peripheral Clock */
 428:Drivers/STM32L4xx_HAL_Driver/Src/stm32l4xx_hal_smbus.c ****   __HAL_SMBUS_DISABLE(hsmbus);
 340              		.loc 1 428 3
 341 0018 7B68     		ldr	r3, [r7, #4]
 342 001a 1B68     		ldr	r3, [r3]
 343 001c 1A68     		ldr	r2, [r3]
 344 001e 7B68     		ldr	r3, [r7, #4]
 345 0020 1B68     		ldr	r3, [r3]
 346 0022 22F00102 		bic	r2, r2, #1
 347 0026 1A60     		str	r2, [r3]
 429:Drivers/STM32L4xx_HAL_Driver/Src/stm32l4xx_hal_smbus.c **** 
 430:Drivers/STM32L4xx_HAL_Driver/Src/stm32l4xx_hal_smbus.c **** #if (USE_HAL_SMBUS_REGISTER_CALLBACKS == 1)
 431:Drivers/STM32L4xx_HAL_Driver/Src/stm32l4xx_hal_smbus.c ****   if (hsmbus->MspDeInitCallback == NULL)
 432:Drivers/STM32L4xx_HAL_Driver/Src/stm32l4xx_hal_smbus.c ****   {
 433:Drivers/STM32L4xx_HAL_Driver/Src/stm32l4xx_hal_smbus.c ****     hsmbus->MspDeInitCallback = HAL_SMBUS_MspDeInit; /* Legacy weak MspDeInit  */
 434:Drivers/STM32L4xx_HAL_Driver/Src/stm32l4xx_hal_smbus.c ****   }
 435:Drivers/STM32L4xx_HAL_Driver/Src/stm32l4xx_hal_smbus.c **** 
 436:Drivers/STM32L4xx_HAL_Driver/Src/stm32l4xx_hal_smbus.c ****   /* DeInit the low level hardware: GPIO, CLOCK, NVIC */
 437:Drivers/STM32L4xx_HAL_Driver/Src/stm32l4xx_hal_smbus.c ****   hsmbus->MspDeInitCallback(hsmbus);
 438:Drivers/STM32L4xx_HAL_Driver/Src/stm32l4xx_hal_smbus.c **** #else
 439:Drivers/STM32L4xx_HAL_Driver/Src/stm32l4xx_hal_smbus.c ****   /* DeInit the low level hardware: GPIO, CLOCK, NVIC */
 440:Drivers/STM32L4xx_HAL_Driver/Src/stm32l4xx_hal_smbus.c ****   HAL_SMBUS_MspDeInit(hsmbus);
 348              		.loc 1 440 3
 349 0028 7868     		ldr	r0, [r7, #4]
 350 002a FFF7FEFF 		bl	HAL_SMBUS_MspDeInit
 441:Drivers/STM32L4xx_HAL_Driver/Src/stm32l4xx_hal_smbus.c **** #endif /* USE_HAL_SMBUS_REGISTER_CALLBACKS */
 442:Drivers/STM32L4xx_HAL_Driver/Src/stm32l4xx_hal_smbus.c **** 
 443:Drivers/STM32L4xx_HAL_Driver/Src/stm32l4xx_hal_smbus.c ****   hsmbus->ErrorCode = HAL_SMBUS_ERROR_NONE;
ARM GAS  /tmp/ccysATpZ.s 			page 15


 351              		.loc 1 443 21
 352 002e 7B68     		ldr	r3, [r7, #4]
 353 0030 0022     		movs	r2, #0
 354 0032 DA64     		str	r2, [r3, #76]
 444:Drivers/STM32L4xx_HAL_Driver/Src/stm32l4xx_hal_smbus.c ****   hsmbus->PreviousState =  HAL_SMBUS_STATE_RESET;
 355              		.loc 1 444 25
 356 0034 7B68     		ldr	r3, [r7, #4]
 357 0036 0022     		movs	r2, #0
 358 0038 1A64     		str	r2, [r3, #64]
 445:Drivers/STM32L4xx_HAL_Driver/Src/stm32l4xx_hal_smbus.c ****   hsmbus->State = HAL_SMBUS_STATE_RESET;
 359              		.loc 1 445 17
 360 003a 7B68     		ldr	r3, [r7, #4]
 361 003c 0022     		movs	r2, #0
 362 003e 9A64     		str	r2, [r3, #72]
 446:Drivers/STM32L4xx_HAL_Driver/Src/stm32l4xx_hal_smbus.c **** 
 447:Drivers/STM32L4xx_HAL_Driver/Src/stm32l4xx_hal_smbus.c ****   /* Release Lock */
 448:Drivers/STM32L4xx_HAL_Driver/Src/stm32l4xx_hal_smbus.c ****   __HAL_UNLOCK(hsmbus);
 363              		.loc 1 448 3
 364 0040 7B68     		ldr	r3, [r7, #4]
 365 0042 0022     		movs	r2, #0
 366 0044 83F84420 		strb	r2, [r3, #68]
 449:Drivers/STM32L4xx_HAL_Driver/Src/stm32l4xx_hal_smbus.c **** 
 450:Drivers/STM32L4xx_HAL_Driver/Src/stm32l4xx_hal_smbus.c ****   return HAL_OK;
 367              		.loc 1 450 10
 368 0048 0023     		movs	r3, #0
 369              	.L12:
 451:Drivers/STM32L4xx_HAL_Driver/Src/stm32l4xx_hal_smbus.c **** }
 370              		.loc 1 451 1
 371 004a 1846     		mov	r0, r3
 372 004c 0837     		adds	r7, r7, #8
 373              		.cfi_def_cfa_offset 8
 374 004e BD46     		mov	sp, r7
 375              		.cfi_def_cfa_register 13
 376              		@ sp needed
 377 0050 80BD     		pop	{r7, pc}
 378              		.cfi_endproc
 379              	.LFE446:
 381              		.section	.text.HAL_SMBUS_MspInit,"ax",%progbits
 382              		.align	1
 383              		.weak	HAL_SMBUS_MspInit
 384              		.syntax unified
 385              		.thumb
 386              		.thumb_func
 388              	HAL_SMBUS_MspInit:
 389              	.LFB447:
 452:Drivers/STM32L4xx_HAL_Driver/Src/stm32l4xx_hal_smbus.c **** 
 453:Drivers/STM32L4xx_HAL_Driver/Src/stm32l4xx_hal_smbus.c **** /**
 454:Drivers/STM32L4xx_HAL_Driver/Src/stm32l4xx_hal_smbus.c ****   * @brief Initialize the SMBUS MSP.
 455:Drivers/STM32L4xx_HAL_Driver/Src/stm32l4xx_hal_smbus.c ****   * @param  hsmbus Pointer to a SMBUS_HandleTypeDef structure that contains
 456:Drivers/STM32L4xx_HAL_Driver/Src/stm32l4xx_hal_smbus.c ****   *                the configuration information for the specified SMBUS.
 457:Drivers/STM32L4xx_HAL_Driver/Src/stm32l4xx_hal_smbus.c ****   * @retval None
 458:Drivers/STM32L4xx_HAL_Driver/Src/stm32l4xx_hal_smbus.c ****   */
 459:Drivers/STM32L4xx_HAL_Driver/Src/stm32l4xx_hal_smbus.c **** __weak void HAL_SMBUS_MspInit(SMBUS_HandleTypeDef *hsmbus)
 460:Drivers/STM32L4xx_HAL_Driver/Src/stm32l4xx_hal_smbus.c **** {
 390              		.loc 1 460 1
 391              		.cfi_startproc
 392              		@ args = 0, pretend = 0, frame = 8
ARM GAS  /tmp/ccysATpZ.s 			page 16


 393              		@ frame_needed = 1, uses_anonymous_args = 0
 394              		@ link register save eliminated.
 395 0000 80B4     		push	{r7}
 396              		.cfi_def_cfa_offset 4
 397              		.cfi_offset 7, -4
 398 0002 83B0     		sub	sp, sp, #12
 399              		.cfi_def_cfa_offset 16
 400 0004 00AF     		add	r7, sp, #0
 401              		.cfi_def_cfa_register 7
 402 0006 7860     		str	r0, [r7, #4]
 461:Drivers/STM32L4xx_HAL_Driver/Src/stm32l4xx_hal_smbus.c ****   /* Prevent unused argument(s) compilation warning */
 462:Drivers/STM32L4xx_HAL_Driver/Src/stm32l4xx_hal_smbus.c ****   UNUSED(hsmbus);
 463:Drivers/STM32L4xx_HAL_Driver/Src/stm32l4xx_hal_smbus.c **** 
 464:Drivers/STM32L4xx_HAL_Driver/Src/stm32l4xx_hal_smbus.c ****   /* NOTE : This function should not be modified, when the callback is needed,
 465:Drivers/STM32L4xx_HAL_Driver/Src/stm32l4xx_hal_smbus.c ****             the HAL_SMBUS_MspInit could be implemented in the user file
 466:Drivers/STM32L4xx_HAL_Driver/Src/stm32l4xx_hal_smbus.c ****    */
 467:Drivers/STM32L4xx_HAL_Driver/Src/stm32l4xx_hal_smbus.c **** }
 403              		.loc 1 467 1
 404 0008 00BF     		nop
 405 000a 0C37     		adds	r7, r7, #12
 406              		.cfi_def_cfa_offset 4
 407 000c BD46     		mov	sp, r7
 408              		.cfi_def_cfa_register 13
 409              		@ sp needed
 410 000e 5DF8047B 		ldr	r7, [sp], #4
 411              		.cfi_restore 7
 412              		.cfi_def_cfa_offset 0
 413 0012 7047     		bx	lr
 414              		.cfi_endproc
 415              	.LFE447:
 417              		.section	.text.HAL_SMBUS_MspDeInit,"ax",%progbits
 418              		.align	1
 419              		.weak	HAL_SMBUS_MspDeInit
 420              		.syntax unified
 421              		.thumb
 422              		.thumb_func
 424              	HAL_SMBUS_MspDeInit:
 425              	.LFB448:
 468:Drivers/STM32L4xx_HAL_Driver/Src/stm32l4xx_hal_smbus.c **** 
 469:Drivers/STM32L4xx_HAL_Driver/Src/stm32l4xx_hal_smbus.c **** /**
 470:Drivers/STM32L4xx_HAL_Driver/Src/stm32l4xx_hal_smbus.c ****   * @brief DeInitialize the SMBUS MSP.
 471:Drivers/STM32L4xx_HAL_Driver/Src/stm32l4xx_hal_smbus.c ****   * @param  hsmbus Pointer to a SMBUS_HandleTypeDef structure that contains
 472:Drivers/STM32L4xx_HAL_Driver/Src/stm32l4xx_hal_smbus.c ****   *                the configuration information for the specified SMBUS.
 473:Drivers/STM32L4xx_HAL_Driver/Src/stm32l4xx_hal_smbus.c ****   * @retval None
 474:Drivers/STM32L4xx_HAL_Driver/Src/stm32l4xx_hal_smbus.c ****   */
 475:Drivers/STM32L4xx_HAL_Driver/Src/stm32l4xx_hal_smbus.c **** __weak void HAL_SMBUS_MspDeInit(SMBUS_HandleTypeDef *hsmbus)
 476:Drivers/STM32L4xx_HAL_Driver/Src/stm32l4xx_hal_smbus.c **** {
 426              		.loc 1 476 1
 427              		.cfi_startproc
 428              		@ args = 0, pretend = 0, frame = 8
 429              		@ frame_needed = 1, uses_anonymous_args = 0
 430              		@ link register save eliminated.
 431 0000 80B4     		push	{r7}
 432              		.cfi_def_cfa_offset 4
 433              		.cfi_offset 7, -4
 434 0002 83B0     		sub	sp, sp, #12
 435              		.cfi_def_cfa_offset 16
ARM GAS  /tmp/ccysATpZ.s 			page 17


 436 0004 00AF     		add	r7, sp, #0
 437              		.cfi_def_cfa_register 7
 438 0006 7860     		str	r0, [r7, #4]
 477:Drivers/STM32L4xx_HAL_Driver/Src/stm32l4xx_hal_smbus.c ****   /* Prevent unused argument(s) compilation warning */
 478:Drivers/STM32L4xx_HAL_Driver/Src/stm32l4xx_hal_smbus.c ****   UNUSED(hsmbus);
 479:Drivers/STM32L4xx_HAL_Driver/Src/stm32l4xx_hal_smbus.c **** 
 480:Drivers/STM32L4xx_HAL_Driver/Src/stm32l4xx_hal_smbus.c ****   /* NOTE : This function should not be modified, when the callback is needed,
 481:Drivers/STM32L4xx_HAL_Driver/Src/stm32l4xx_hal_smbus.c ****             the HAL_SMBUS_MspDeInit could be implemented in the user file
 482:Drivers/STM32L4xx_HAL_Driver/Src/stm32l4xx_hal_smbus.c ****    */
 483:Drivers/STM32L4xx_HAL_Driver/Src/stm32l4xx_hal_smbus.c **** }
 439              		.loc 1 483 1
 440 0008 00BF     		nop
 441 000a 0C37     		adds	r7, r7, #12
 442              		.cfi_def_cfa_offset 4
 443 000c BD46     		mov	sp, r7
 444              		.cfi_def_cfa_register 13
 445              		@ sp needed
 446 000e 5DF8047B 		ldr	r7, [sp], #4
 447              		.cfi_restore 7
 448              		.cfi_def_cfa_offset 0
 449 0012 7047     		bx	lr
 450              		.cfi_endproc
 451              	.LFE448:
 453              		.section	.text.HAL_SMBUS_ConfigAnalogFilter,"ax",%progbits
 454              		.align	1
 455              		.global	HAL_SMBUS_ConfigAnalogFilter
 456              		.syntax unified
 457              		.thumb
 458              		.thumb_func
 460              	HAL_SMBUS_ConfigAnalogFilter:
 461              	.LFB449:
 484:Drivers/STM32L4xx_HAL_Driver/Src/stm32l4xx_hal_smbus.c **** 
 485:Drivers/STM32L4xx_HAL_Driver/Src/stm32l4xx_hal_smbus.c **** /**
 486:Drivers/STM32L4xx_HAL_Driver/Src/stm32l4xx_hal_smbus.c ****   * @brief  Configure Analog noise filter.
 487:Drivers/STM32L4xx_HAL_Driver/Src/stm32l4xx_hal_smbus.c ****   * @param  hsmbus Pointer to a SMBUS_HandleTypeDef structure that contains
 488:Drivers/STM32L4xx_HAL_Driver/Src/stm32l4xx_hal_smbus.c ****   *                the configuration information for the specified SMBUS.
 489:Drivers/STM32L4xx_HAL_Driver/Src/stm32l4xx_hal_smbus.c ****   * @param  AnalogFilter This parameter can be one of the following values:
 490:Drivers/STM32L4xx_HAL_Driver/Src/stm32l4xx_hal_smbus.c ****   *         @arg @ref SMBUS_ANALOGFILTER_ENABLE
 491:Drivers/STM32L4xx_HAL_Driver/Src/stm32l4xx_hal_smbus.c ****   *         @arg @ref SMBUS_ANALOGFILTER_DISABLE
 492:Drivers/STM32L4xx_HAL_Driver/Src/stm32l4xx_hal_smbus.c ****   * @retval HAL status
 493:Drivers/STM32L4xx_HAL_Driver/Src/stm32l4xx_hal_smbus.c ****   */
 494:Drivers/STM32L4xx_HAL_Driver/Src/stm32l4xx_hal_smbus.c **** HAL_StatusTypeDef HAL_SMBUS_ConfigAnalogFilter(SMBUS_HandleTypeDef *hsmbus, uint32_t AnalogFilter)
 495:Drivers/STM32L4xx_HAL_Driver/Src/stm32l4xx_hal_smbus.c **** {
 462              		.loc 1 495 1
 463              		.cfi_startproc
 464              		@ args = 0, pretend = 0, frame = 8
 465              		@ frame_needed = 1, uses_anonymous_args = 0
 466              		@ link register save eliminated.
 467 0000 80B4     		push	{r7}
 468              		.cfi_def_cfa_offset 4
 469              		.cfi_offset 7, -4
 470 0002 83B0     		sub	sp, sp, #12
 471              		.cfi_def_cfa_offset 16
 472 0004 00AF     		add	r7, sp, #0
 473              		.cfi_def_cfa_register 7
 474 0006 7860     		str	r0, [r7, #4]
 475 0008 3960     		str	r1, [r7]
ARM GAS  /tmp/ccysATpZ.s 			page 18


 496:Drivers/STM32L4xx_HAL_Driver/Src/stm32l4xx_hal_smbus.c ****   /* Check the parameters */
 497:Drivers/STM32L4xx_HAL_Driver/Src/stm32l4xx_hal_smbus.c ****   assert_param(IS_SMBUS_ALL_INSTANCE(hsmbus->Instance));
 498:Drivers/STM32L4xx_HAL_Driver/Src/stm32l4xx_hal_smbus.c ****   assert_param(IS_SMBUS_ANALOG_FILTER(AnalogFilter));
 499:Drivers/STM32L4xx_HAL_Driver/Src/stm32l4xx_hal_smbus.c **** 
 500:Drivers/STM32L4xx_HAL_Driver/Src/stm32l4xx_hal_smbus.c ****   if (hsmbus->State == HAL_SMBUS_STATE_READY)
 476              		.loc 1 500 13
 477 000a 7B68     		ldr	r3, [r7, #4]
 478 000c 9B6C     		ldr	r3, [r3, #72]
 479              		.loc 1 500 6
 480 000e 012B     		cmp	r3, #1
 481 0010 36D1     		bne	.L16
 501:Drivers/STM32L4xx_HAL_Driver/Src/stm32l4xx_hal_smbus.c ****   {
 502:Drivers/STM32L4xx_HAL_Driver/Src/stm32l4xx_hal_smbus.c ****     /* Process Locked */
 503:Drivers/STM32L4xx_HAL_Driver/Src/stm32l4xx_hal_smbus.c ****     __HAL_LOCK(hsmbus);
 482              		.loc 1 503 5
 483 0012 7B68     		ldr	r3, [r7, #4]
 484 0014 93F84430 		ldrb	r3, [r3, #68]	@ zero_extendqisi2
 485 0018 012B     		cmp	r3, #1
 486 001a 01D1     		bne	.L17
 487              		.loc 1 503 5 is_stmt 0 discriminator 1
 488 001c 0223     		movs	r3, #2
 489              		.loc 1 503 5
 490 001e 30E0     		b	.L18
 491              	.L17:
 492              		.loc 1 503 5 discriminator 2
 493 0020 7B68     		ldr	r3, [r7, #4]
 494 0022 0122     		movs	r2, #1
 495 0024 83F84420 		strb	r2, [r3, #68]
 504:Drivers/STM32L4xx_HAL_Driver/Src/stm32l4xx_hal_smbus.c **** 
 505:Drivers/STM32L4xx_HAL_Driver/Src/stm32l4xx_hal_smbus.c ****     hsmbus->State = HAL_SMBUS_STATE_BUSY;
 496              		.loc 1 505 19 is_stmt 1
 497 0028 7B68     		ldr	r3, [r7, #4]
 498 002a 0222     		movs	r2, #2
 499 002c 9A64     		str	r2, [r3, #72]
 506:Drivers/STM32L4xx_HAL_Driver/Src/stm32l4xx_hal_smbus.c **** 
 507:Drivers/STM32L4xx_HAL_Driver/Src/stm32l4xx_hal_smbus.c ****     /* Disable the selected SMBUS peripheral */
 508:Drivers/STM32L4xx_HAL_Driver/Src/stm32l4xx_hal_smbus.c ****     __HAL_SMBUS_DISABLE(hsmbus);
 500              		.loc 1 508 5
 501 002e 7B68     		ldr	r3, [r7, #4]
 502 0030 1B68     		ldr	r3, [r3]
 503 0032 1A68     		ldr	r2, [r3]
 504 0034 7B68     		ldr	r3, [r7, #4]
 505 0036 1B68     		ldr	r3, [r3]
 506 0038 22F00102 		bic	r2, r2, #1
 507 003c 1A60     		str	r2, [r3]
 509:Drivers/STM32L4xx_HAL_Driver/Src/stm32l4xx_hal_smbus.c **** 
 510:Drivers/STM32L4xx_HAL_Driver/Src/stm32l4xx_hal_smbus.c ****     /* Reset ANOFF bit */
 511:Drivers/STM32L4xx_HAL_Driver/Src/stm32l4xx_hal_smbus.c ****     hsmbus->Instance->CR1 &= ~(I2C_CR1_ANFOFF);
 508              		.loc 1 511 11
 509 003e 7B68     		ldr	r3, [r7, #4]
 510 0040 1B68     		ldr	r3, [r3]
 511              		.loc 1 511 21
 512 0042 1A68     		ldr	r2, [r3]
 513              		.loc 1 511 11
 514 0044 7B68     		ldr	r3, [r7, #4]
 515 0046 1B68     		ldr	r3, [r3]
 516              		.loc 1 511 27
ARM GAS  /tmp/ccysATpZ.s 			page 19


 517 0048 22F48052 		bic	r2, r2, #4096
 518 004c 1A60     		str	r2, [r3]
 512:Drivers/STM32L4xx_HAL_Driver/Src/stm32l4xx_hal_smbus.c **** 
 513:Drivers/STM32L4xx_HAL_Driver/Src/stm32l4xx_hal_smbus.c ****     /* Set analog filter bit*/
 514:Drivers/STM32L4xx_HAL_Driver/Src/stm32l4xx_hal_smbus.c ****     hsmbus->Instance->CR1 |= AnalogFilter;
 519              		.loc 1 514 11
 520 004e 7B68     		ldr	r3, [r7, #4]
 521 0050 1B68     		ldr	r3, [r3]
 522              		.loc 1 514 21
 523 0052 1968     		ldr	r1, [r3]
 524              		.loc 1 514 11
 525 0054 7B68     		ldr	r3, [r7, #4]
 526 0056 1B68     		ldr	r3, [r3]
 527              		.loc 1 514 27
 528 0058 3A68     		ldr	r2, [r7]
 529 005a 0A43     		orrs	r2, r2, r1
 530 005c 1A60     		str	r2, [r3]
 515:Drivers/STM32L4xx_HAL_Driver/Src/stm32l4xx_hal_smbus.c **** 
 516:Drivers/STM32L4xx_HAL_Driver/Src/stm32l4xx_hal_smbus.c ****     __HAL_SMBUS_ENABLE(hsmbus);
 531              		.loc 1 516 5
 532 005e 7B68     		ldr	r3, [r7, #4]
 533 0060 1B68     		ldr	r3, [r3]
 534 0062 1A68     		ldr	r2, [r3]
 535 0064 7B68     		ldr	r3, [r7, #4]
 536 0066 1B68     		ldr	r3, [r3]
 537 0068 42F00102 		orr	r2, r2, #1
 538 006c 1A60     		str	r2, [r3]
 517:Drivers/STM32L4xx_HAL_Driver/Src/stm32l4xx_hal_smbus.c **** 
 518:Drivers/STM32L4xx_HAL_Driver/Src/stm32l4xx_hal_smbus.c ****     hsmbus->State = HAL_SMBUS_STATE_READY;
 539              		.loc 1 518 19
 540 006e 7B68     		ldr	r3, [r7, #4]
 541 0070 0122     		movs	r2, #1
 542 0072 9A64     		str	r2, [r3, #72]
 519:Drivers/STM32L4xx_HAL_Driver/Src/stm32l4xx_hal_smbus.c **** 
 520:Drivers/STM32L4xx_HAL_Driver/Src/stm32l4xx_hal_smbus.c ****     /* Process Unlocked */
 521:Drivers/STM32L4xx_HAL_Driver/Src/stm32l4xx_hal_smbus.c ****     __HAL_UNLOCK(hsmbus);
 543              		.loc 1 521 5
 544 0074 7B68     		ldr	r3, [r7, #4]
 545 0076 0022     		movs	r2, #0
 546 0078 83F84420 		strb	r2, [r3, #68]
 522:Drivers/STM32L4xx_HAL_Driver/Src/stm32l4xx_hal_smbus.c **** 
 523:Drivers/STM32L4xx_HAL_Driver/Src/stm32l4xx_hal_smbus.c ****     return HAL_OK;
 547              		.loc 1 523 12
 548 007c 0023     		movs	r3, #0
 549 007e 00E0     		b	.L18
 550              	.L16:
 524:Drivers/STM32L4xx_HAL_Driver/Src/stm32l4xx_hal_smbus.c ****   }
 525:Drivers/STM32L4xx_HAL_Driver/Src/stm32l4xx_hal_smbus.c ****   else
 526:Drivers/STM32L4xx_HAL_Driver/Src/stm32l4xx_hal_smbus.c ****   {
 527:Drivers/STM32L4xx_HAL_Driver/Src/stm32l4xx_hal_smbus.c ****     return HAL_BUSY;
 551              		.loc 1 527 12
 552 0080 0223     		movs	r3, #2
 553              	.L18:
 528:Drivers/STM32L4xx_HAL_Driver/Src/stm32l4xx_hal_smbus.c ****   }
 529:Drivers/STM32L4xx_HAL_Driver/Src/stm32l4xx_hal_smbus.c **** }
 554              		.loc 1 529 1
 555 0082 1846     		mov	r0, r3
ARM GAS  /tmp/ccysATpZ.s 			page 20


 556 0084 0C37     		adds	r7, r7, #12
 557              		.cfi_def_cfa_offset 4
 558 0086 BD46     		mov	sp, r7
 559              		.cfi_def_cfa_register 13
 560              		@ sp needed
 561 0088 5DF8047B 		ldr	r7, [sp], #4
 562              		.cfi_restore 7
 563              		.cfi_def_cfa_offset 0
 564 008c 7047     		bx	lr
 565              		.cfi_endproc
 566              	.LFE449:
 568              		.section	.text.HAL_SMBUS_ConfigDigitalFilter,"ax",%progbits
 569              		.align	1
 570              		.global	HAL_SMBUS_ConfigDigitalFilter
 571              		.syntax unified
 572              		.thumb
 573              		.thumb_func
 575              	HAL_SMBUS_ConfigDigitalFilter:
 576              	.LFB450:
 530:Drivers/STM32L4xx_HAL_Driver/Src/stm32l4xx_hal_smbus.c **** 
 531:Drivers/STM32L4xx_HAL_Driver/Src/stm32l4xx_hal_smbus.c **** /**
 532:Drivers/STM32L4xx_HAL_Driver/Src/stm32l4xx_hal_smbus.c ****   * @brief  Configure Digital noise filter.
 533:Drivers/STM32L4xx_HAL_Driver/Src/stm32l4xx_hal_smbus.c ****   * @param  hsmbus Pointer to a SMBUS_HandleTypeDef structure that contains
 534:Drivers/STM32L4xx_HAL_Driver/Src/stm32l4xx_hal_smbus.c ****   *                the configuration information for the specified SMBUS.
 535:Drivers/STM32L4xx_HAL_Driver/Src/stm32l4xx_hal_smbus.c ****   * @param  DigitalFilter Coefficient of digital noise filter between Min_Data=0x00 and Max_Data=0x
 536:Drivers/STM32L4xx_HAL_Driver/Src/stm32l4xx_hal_smbus.c ****   * @retval HAL status
 537:Drivers/STM32L4xx_HAL_Driver/Src/stm32l4xx_hal_smbus.c ****   */
 538:Drivers/STM32L4xx_HAL_Driver/Src/stm32l4xx_hal_smbus.c **** HAL_StatusTypeDef HAL_SMBUS_ConfigDigitalFilter(SMBUS_HandleTypeDef *hsmbus, uint32_t DigitalFilter
 539:Drivers/STM32L4xx_HAL_Driver/Src/stm32l4xx_hal_smbus.c **** {
 577              		.loc 1 539 1
 578              		.cfi_startproc
 579              		@ args = 0, pretend = 0, frame = 16
 580              		@ frame_needed = 1, uses_anonymous_args = 0
 581              		@ link register save eliminated.
 582 0000 80B4     		push	{r7}
 583              		.cfi_def_cfa_offset 4
 584              		.cfi_offset 7, -4
 585 0002 85B0     		sub	sp, sp, #20
 586              		.cfi_def_cfa_offset 24
 587 0004 00AF     		add	r7, sp, #0
 588              		.cfi_def_cfa_register 7
 589 0006 7860     		str	r0, [r7, #4]
 590 0008 3960     		str	r1, [r7]
 540:Drivers/STM32L4xx_HAL_Driver/Src/stm32l4xx_hal_smbus.c ****   uint32_t tmpreg;
 541:Drivers/STM32L4xx_HAL_Driver/Src/stm32l4xx_hal_smbus.c **** 
 542:Drivers/STM32L4xx_HAL_Driver/Src/stm32l4xx_hal_smbus.c ****   /* Check the parameters */
 543:Drivers/STM32L4xx_HAL_Driver/Src/stm32l4xx_hal_smbus.c ****   assert_param(IS_SMBUS_ALL_INSTANCE(hsmbus->Instance));
 544:Drivers/STM32L4xx_HAL_Driver/Src/stm32l4xx_hal_smbus.c ****   assert_param(IS_SMBUS_DIGITAL_FILTER(DigitalFilter));
 545:Drivers/STM32L4xx_HAL_Driver/Src/stm32l4xx_hal_smbus.c **** 
 546:Drivers/STM32L4xx_HAL_Driver/Src/stm32l4xx_hal_smbus.c ****   if (hsmbus->State == HAL_SMBUS_STATE_READY)
 591              		.loc 1 546 13
 592 000a 7B68     		ldr	r3, [r7, #4]
 593 000c 9B6C     		ldr	r3, [r3, #72]
 594              		.loc 1 546 6
 595 000e 012B     		cmp	r3, #1
 596 0010 37D1     		bne	.L20
 547:Drivers/STM32L4xx_HAL_Driver/Src/stm32l4xx_hal_smbus.c ****   {
ARM GAS  /tmp/ccysATpZ.s 			page 21


 548:Drivers/STM32L4xx_HAL_Driver/Src/stm32l4xx_hal_smbus.c ****     /* Process Locked */
 549:Drivers/STM32L4xx_HAL_Driver/Src/stm32l4xx_hal_smbus.c ****     __HAL_LOCK(hsmbus);
 597              		.loc 1 549 5
 598 0012 7B68     		ldr	r3, [r7, #4]
 599 0014 93F84430 		ldrb	r3, [r3, #68]	@ zero_extendqisi2
 600 0018 012B     		cmp	r3, #1
 601 001a 01D1     		bne	.L21
 602              		.loc 1 549 5 is_stmt 0 discriminator 1
 603 001c 0223     		movs	r3, #2
 604              		.loc 1 549 5
 605 001e 31E0     		b	.L22
 606              	.L21:
 607              		.loc 1 549 5 discriminator 2
 608 0020 7B68     		ldr	r3, [r7, #4]
 609 0022 0122     		movs	r2, #1
 610 0024 83F84420 		strb	r2, [r3, #68]
 550:Drivers/STM32L4xx_HAL_Driver/Src/stm32l4xx_hal_smbus.c **** 
 551:Drivers/STM32L4xx_HAL_Driver/Src/stm32l4xx_hal_smbus.c ****     hsmbus->State = HAL_SMBUS_STATE_BUSY;
 611              		.loc 1 551 19 is_stmt 1
 612 0028 7B68     		ldr	r3, [r7, #4]
 613 002a 0222     		movs	r2, #2
 614 002c 9A64     		str	r2, [r3, #72]
 552:Drivers/STM32L4xx_HAL_Driver/Src/stm32l4xx_hal_smbus.c **** 
 553:Drivers/STM32L4xx_HAL_Driver/Src/stm32l4xx_hal_smbus.c ****     /* Disable the selected SMBUS peripheral */
 554:Drivers/STM32L4xx_HAL_Driver/Src/stm32l4xx_hal_smbus.c ****     __HAL_SMBUS_DISABLE(hsmbus);
 615              		.loc 1 554 5
 616 002e 7B68     		ldr	r3, [r7, #4]
 617 0030 1B68     		ldr	r3, [r3]
 618 0032 1A68     		ldr	r2, [r3]
 619 0034 7B68     		ldr	r3, [r7, #4]
 620 0036 1B68     		ldr	r3, [r3]
 621 0038 22F00102 		bic	r2, r2, #1
 622 003c 1A60     		str	r2, [r3]
 555:Drivers/STM32L4xx_HAL_Driver/Src/stm32l4xx_hal_smbus.c **** 
 556:Drivers/STM32L4xx_HAL_Driver/Src/stm32l4xx_hal_smbus.c ****     /* Get the old register value */
 557:Drivers/STM32L4xx_HAL_Driver/Src/stm32l4xx_hal_smbus.c ****     tmpreg = hsmbus->Instance->CR1;
 623              		.loc 1 557 20
 624 003e 7B68     		ldr	r3, [r7, #4]
 625 0040 1B68     		ldr	r3, [r3]
 626              		.loc 1 557 12
 627 0042 1B68     		ldr	r3, [r3]
 628 0044 FB60     		str	r3, [r7, #12]
 558:Drivers/STM32L4xx_HAL_Driver/Src/stm32l4xx_hal_smbus.c **** 
 559:Drivers/STM32L4xx_HAL_Driver/Src/stm32l4xx_hal_smbus.c ****     /* Reset I2C DNF bits [11:8] */
 560:Drivers/STM32L4xx_HAL_Driver/Src/stm32l4xx_hal_smbus.c ****     tmpreg &= ~(I2C_CR1_DNF);
 629              		.loc 1 560 12
 630 0046 FB68     		ldr	r3, [r7, #12]
 631 0048 23F47063 		bic	r3, r3, #3840
 632 004c FB60     		str	r3, [r7, #12]
 561:Drivers/STM32L4xx_HAL_Driver/Src/stm32l4xx_hal_smbus.c **** 
 562:Drivers/STM32L4xx_HAL_Driver/Src/stm32l4xx_hal_smbus.c ****     /* Set I2Cx DNF coefficient */
 563:Drivers/STM32L4xx_HAL_Driver/Src/stm32l4xx_hal_smbus.c ****     tmpreg |= DigitalFilter << I2C_CR1_DNF_Pos;
 633              		.loc 1 563 29
 634 004e 3B68     		ldr	r3, [r7]
 635 0050 1B02     		lsls	r3, r3, #8
 636              		.loc 1 563 12
 637 0052 FA68     		ldr	r2, [r7, #12]
ARM GAS  /tmp/ccysATpZ.s 			page 22


 638 0054 1343     		orrs	r3, r3, r2
 639 0056 FB60     		str	r3, [r7, #12]
 564:Drivers/STM32L4xx_HAL_Driver/Src/stm32l4xx_hal_smbus.c **** 
 565:Drivers/STM32L4xx_HAL_Driver/Src/stm32l4xx_hal_smbus.c ****     /* Store the new register value */
 566:Drivers/STM32L4xx_HAL_Driver/Src/stm32l4xx_hal_smbus.c ****     hsmbus->Instance->CR1 = tmpreg;
 640              		.loc 1 566 11
 641 0058 7B68     		ldr	r3, [r7, #4]
 642 005a 1B68     		ldr	r3, [r3]
 643              		.loc 1 566 27
 644 005c FA68     		ldr	r2, [r7, #12]
 645 005e 1A60     		str	r2, [r3]
 567:Drivers/STM32L4xx_HAL_Driver/Src/stm32l4xx_hal_smbus.c **** 
 568:Drivers/STM32L4xx_HAL_Driver/Src/stm32l4xx_hal_smbus.c ****     __HAL_SMBUS_ENABLE(hsmbus);
 646              		.loc 1 568 5
 647 0060 7B68     		ldr	r3, [r7, #4]
 648 0062 1B68     		ldr	r3, [r3]
 649 0064 1A68     		ldr	r2, [r3]
 650 0066 7B68     		ldr	r3, [r7, #4]
 651 0068 1B68     		ldr	r3, [r3]
 652 006a 42F00102 		orr	r2, r2, #1
 653 006e 1A60     		str	r2, [r3]
 569:Drivers/STM32L4xx_HAL_Driver/Src/stm32l4xx_hal_smbus.c **** 
 570:Drivers/STM32L4xx_HAL_Driver/Src/stm32l4xx_hal_smbus.c ****     hsmbus->State = HAL_SMBUS_STATE_READY;
 654              		.loc 1 570 19
 655 0070 7B68     		ldr	r3, [r7, #4]
 656 0072 0122     		movs	r2, #1
 657 0074 9A64     		str	r2, [r3, #72]
 571:Drivers/STM32L4xx_HAL_Driver/Src/stm32l4xx_hal_smbus.c **** 
 572:Drivers/STM32L4xx_HAL_Driver/Src/stm32l4xx_hal_smbus.c ****     /* Process Unlocked */
 573:Drivers/STM32L4xx_HAL_Driver/Src/stm32l4xx_hal_smbus.c ****     __HAL_UNLOCK(hsmbus);
 658              		.loc 1 573 5
 659 0076 7B68     		ldr	r3, [r7, #4]
 660 0078 0022     		movs	r2, #0
 661 007a 83F84420 		strb	r2, [r3, #68]
 574:Drivers/STM32L4xx_HAL_Driver/Src/stm32l4xx_hal_smbus.c **** 
 575:Drivers/STM32L4xx_HAL_Driver/Src/stm32l4xx_hal_smbus.c ****     return HAL_OK;
 662              		.loc 1 575 12
 663 007e 0023     		movs	r3, #0
 664 0080 00E0     		b	.L22
 665              	.L20:
 576:Drivers/STM32L4xx_HAL_Driver/Src/stm32l4xx_hal_smbus.c ****   }
 577:Drivers/STM32L4xx_HAL_Driver/Src/stm32l4xx_hal_smbus.c ****   else
 578:Drivers/STM32L4xx_HAL_Driver/Src/stm32l4xx_hal_smbus.c ****   {
 579:Drivers/STM32L4xx_HAL_Driver/Src/stm32l4xx_hal_smbus.c ****     return HAL_BUSY;
 666              		.loc 1 579 12
 667 0082 0223     		movs	r3, #2
 668              	.L22:
 580:Drivers/STM32L4xx_HAL_Driver/Src/stm32l4xx_hal_smbus.c ****   }
 581:Drivers/STM32L4xx_HAL_Driver/Src/stm32l4xx_hal_smbus.c **** }
 669              		.loc 1 581 1
 670 0084 1846     		mov	r0, r3
 671 0086 1437     		adds	r7, r7, #20
 672              		.cfi_def_cfa_offset 4
 673 0088 BD46     		mov	sp, r7
 674              		.cfi_def_cfa_register 13
 675              		@ sp needed
 676 008a 5DF8047B 		ldr	r7, [sp], #4
ARM GAS  /tmp/ccysATpZ.s 			page 23


 677              		.cfi_restore 7
 678              		.cfi_def_cfa_offset 0
 679 008e 7047     		bx	lr
 680              		.cfi_endproc
 681              	.LFE450:
 683              		.section	.text.HAL_SMBUS_Master_Transmit_IT,"ax",%progbits
 684              		.align	1
 685              		.global	HAL_SMBUS_Master_Transmit_IT
 686              		.syntax unified
 687              		.thumb
 688              		.thumb_func
 690              	HAL_SMBUS_Master_Transmit_IT:
 691              	.LFB451:
 582:Drivers/STM32L4xx_HAL_Driver/Src/stm32l4xx_hal_smbus.c **** 
 583:Drivers/STM32L4xx_HAL_Driver/Src/stm32l4xx_hal_smbus.c **** #if (USE_HAL_SMBUS_REGISTER_CALLBACKS == 1)
 584:Drivers/STM32L4xx_HAL_Driver/Src/stm32l4xx_hal_smbus.c **** /**
 585:Drivers/STM32L4xx_HAL_Driver/Src/stm32l4xx_hal_smbus.c ****   * @brief  Register a User SMBUS Callback
 586:Drivers/STM32L4xx_HAL_Driver/Src/stm32l4xx_hal_smbus.c ****   *         To be used instead of the weak predefined callback
 587:Drivers/STM32L4xx_HAL_Driver/Src/stm32l4xx_hal_smbus.c ****   * @note   The HAL_SMBUS_RegisterCallback() may be called before HAL_SMBUS_Init() in
 588:Drivers/STM32L4xx_HAL_Driver/Src/stm32l4xx_hal_smbus.c ****   *         HAL_SMBUS_STATE_RESET to register callbacks for HAL_SMBUS_MSPINIT_CB_ID and
 589:Drivers/STM32L4xx_HAL_Driver/Src/stm32l4xx_hal_smbus.c ****   *         HAL_SMBUS_MSPDEINIT_CB_ID.
 590:Drivers/STM32L4xx_HAL_Driver/Src/stm32l4xx_hal_smbus.c ****   * @param  hsmbus Pointer to a SMBUS_HandleTypeDef structure that contains
 591:Drivers/STM32L4xx_HAL_Driver/Src/stm32l4xx_hal_smbus.c ****   *                the configuration information for the specified SMBUS.
 592:Drivers/STM32L4xx_HAL_Driver/Src/stm32l4xx_hal_smbus.c ****   * @param  CallbackID ID of the callback to be registered
 593:Drivers/STM32L4xx_HAL_Driver/Src/stm32l4xx_hal_smbus.c ****   *         This parameter can be one of the following values:
 594:Drivers/STM32L4xx_HAL_Driver/Src/stm32l4xx_hal_smbus.c ****   *          @arg @ref HAL_SMBUS_MASTER_TX_COMPLETE_CB_ID Master Tx Transfer completed callback ID
 595:Drivers/STM32L4xx_HAL_Driver/Src/stm32l4xx_hal_smbus.c ****   *          @arg @ref HAL_SMBUS_MASTER_RX_COMPLETE_CB_ID Master Rx Transfer completed callback ID
 596:Drivers/STM32L4xx_HAL_Driver/Src/stm32l4xx_hal_smbus.c ****   *          @arg @ref HAL_SMBUS_SLAVE_TX_COMPLETE_CB_ID Slave Tx Transfer completed callback ID
 597:Drivers/STM32L4xx_HAL_Driver/Src/stm32l4xx_hal_smbus.c ****   *          @arg @ref HAL_SMBUS_SLAVE_RX_COMPLETE_CB_ID Slave Rx Transfer completed callback ID
 598:Drivers/STM32L4xx_HAL_Driver/Src/stm32l4xx_hal_smbus.c ****   *          @arg @ref HAL_SMBUS_LISTEN_COMPLETE_CB_ID Listen Complete callback ID
 599:Drivers/STM32L4xx_HAL_Driver/Src/stm32l4xx_hal_smbus.c ****   *          @arg @ref HAL_SMBUS_ERROR_CB_ID Error callback ID
 600:Drivers/STM32L4xx_HAL_Driver/Src/stm32l4xx_hal_smbus.c ****   *          @arg @ref HAL_SMBUS_MSPINIT_CB_ID MspInit callback ID
 601:Drivers/STM32L4xx_HAL_Driver/Src/stm32l4xx_hal_smbus.c ****   *          @arg @ref HAL_SMBUS_MSPDEINIT_CB_ID MspDeInit callback ID
 602:Drivers/STM32L4xx_HAL_Driver/Src/stm32l4xx_hal_smbus.c ****   * @param  pCallback pointer to the Callback function
 603:Drivers/STM32L4xx_HAL_Driver/Src/stm32l4xx_hal_smbus.c ****   * @retval HAL status
 604:Drivers/STM32L4xx_HAL_Driver/Src/stm32l4xx_hal_smbus.c ****   */
 605:Drivers/STM32L4xx_HAL_Driver/Src/stm32l4xx_hal_smbus.c **** HAL_StatusTypeDef HAL_SMBUS_RegisterCallback(SMBUS_HandleTypeDef *hsmbus,
 606:Drivers/STM32L4xx_HAL_Driver/Src/stm32l4xx_hal_smbus.c ****                                              HAL_SMBUS_CallbackIDTypeDef CallbackID,
 607:Drivers/STM32L4xx_HAL_Driver/Src/stm32l4xx_hal_smbus.c ****                                              pSMBUS_CallbackTypeDef pCallback)
 608:Drivers/STM32L4xx_HAL_Driver/Src/stm32l4xx_hal_smbus.c **** {
 609:Drivers/STM32L4xx_HAL_Driver/Src/stm32l4xx_hal_smbus.c ****   HAL_StatusTypeDef status = HAL_OK;
 610:Drivers/STM32L4xx_HAL_Driver/Src/stm32l4xx_hal_smbus.c **** 
 611:Drivers/STM32L4xx_HAL_Driver/Src/stm32l4xx_hal_smbus.c ****   if (pCallback == NULL)
 612:Drivers/STM32L4xx_HAL_Driver/Src/stm32l4xx_hal_smbus.c ****   {
 613:Drivers/STM32L4xx_HAL_Driver/Src/stm32l4xx_hal_smbus.c ****     /* Update the error code */
 614:Drivers/STM32L4xx_HAL_Driver/Src/stm32l4xx_hal_smbus.c ****     hsmbus->ErrorCode |= HAL_SMBUS_ERROR_INVALID_CALLBACK;
 615:Drivers/STM32L4xx_HAL_Driver/Src/stm32l4xx_hal_smbus.c **** 
 616:Drivers/STM32L4xx_HAL_Driver/Src/stm32l4xx_hal_smbus.c ****     return HAL_ERROR;
 617:Drivers/STM32L4xx_HAL_Driver/Src/stm32l4xx_hal_smbus.c ****   }
 618:Drivers/STM32L4xx_HAL_Driver/Src/stm32l4xx_hal_smbus.c **** 
 619:Drivers/STM32L4xx_HAL_Driver/Src/stm32l4xx_hal_smbus.c ****   if (HAL_SMBUS_STATE_READY == hsmbus->State)
 620:Drivers/STM32L4xx_HAL_Driver/Src/stm32l4xx_hal_smbus.c ****   {
 621:Drivers/STM32L4xx_HAL_Driver/Src/stm32l4xx_hal_smbus.c ****     switch (CallbackID)
 622:Drivers/STM32L4xx_HAL_Driver/Src/stm32l4xx_hal_smbus.c ****     {
 623:Drivers/STM32L4xx_HAL_Driver/Src/stm32l4xx_hal_smbus.c ****       case HAL_SMBUS_MASTER_TX_COMPLETE_CB_ID :
 624:Drivers/STM32L4xx_HAL_Driver/Src/stm32l4xx_hal_smbus.c ****         hsmbus->MasterTxCpltCallback = pCallback;
 625:Drivers/STM32L4xx_HAL_Driver/Src/stm32l4xx_hal_smbus.c ****         break;
ARM GAS  /tmp/ccysATpZ.s 			page 24


 626:Drivers/STM32L4xx_HAL_Driver/Src/stm32l4xx_hal_smbus.c **** 
 627:Drivers/STM32L4xx_HAL_Driver/Src/stm32l4xx_hal_smbus.c ****       case HAL_SMBUS_MASTER_RX_COMPLETE_CB_ID :
 628:Drivers/STM32L4xx_HAL_Driver/Src/stm32l4xx_hal_smbus.c ****         hsmbus->MasterRxCpltCallback = pCallback;
 629:Drivers/STM32L4xx_HAL_Driver/Src/stm32l4xx_hal_smbus.c ****         break;
 630:Drivers/STM32L4xx_HAL_Driver/Src/stm32l4xx_hal_smbus.c **** 
 631:Drivers/STM32L4xx_HAL_Driver/Src/stm32l4xx_hal_smbus.c ****       case HAL_SMBUS_SLAVE_TX_COMPLETE_CB_ID :
 632:Drivers/STM32L4xx_HAL_Driver/Src/stm32l4xx_hal_smbus.c ****         hsmbus->SlaveTxCpltCallback = pCallback;
 633:Drivers/STM32L4xx_HAL_Driver/Src/stm32l4xx_hal_smbus.c ****         break;
 634:Drivers/STM32L4xx_HAL_Driver/Src/stm32l4xx_hal_smbus.c **** 
 635:Drivers/STM32L4xx_HAL_Driver/Src/stm32l4xx_hal_smbus.c ****       case HAL_SMBUS_SLAVE_RX_COMPLETE_CB_ID :
 636:Drivers/STM32L4xx_HAL_Driver/Src/stm32l4xx_hal_smbus.c ****         hsmbus->SlaveRxCpltCallback = pCallback;
 637:Drivers/STM32L4xx_HAL_Driver/Src/stm32l4xx_hal_smbus.c ****         break;
 638:Drivers/STM32L4xx_HAL_Driver/Src/stm32l4xx_hal_smbus.c **** 
 639:Drivers/STM32L4xx_HAL_Driver/Src/stm32l4xx_hal_smbus.c ****       case HAL_SMBUS_LISTEN_COMPLETE_CB_ID :
 640:Drivers/STM32L4xx_HAL_Driver/Src/stm32l4xx_hal_smbus.c ****         hsmbus->ListenCpltCallback = pCallback;
 641:Drivers/STM32L4xx_HAL_Driver/Src/stm32l4xx_hal_smbus.c ****         break;
 642:Drivers/STM32L4xx_HAL_Driver/Src/stm32l4xx_hal_smbus.c **** 
 643:Drivers/STM32L4xx_HAL_Driver/Src/stm32l4xx_hal_smbus.c ****       case HAL_SMBUS_ERROR_CB_ID :
 644:Drivers/STM32L4xx_HAL_Driver/Src/stm32l4xx_hal_smbus.c ****         hsmbus->ErrorCallback = pCallback;
 645:Drivers/STM32L4xx_HAL_Driver/Src/stm32l4xx_hal_smbus.c ****         break;
 646:Drivers/STM32L4xx_HAL_Driver/Src/stm32l4xx_hal_smbus.c **** 
 647:Drivers/STM32L4xx_HAL_Driver/Src/stm32l4xx_hal_smbus.c ****       case HAL_SMBUS_MSPINIT_CB_ID :
 648:Drivers/STM32L4xx_HAL_Driver/Src/stm32l4xx_hal_smbus.c ****         hsmbus->MspInitCallback = pCallback;
 649:Drivers/STM32L4xx_HAL_Driver/Src/stm32l4xx_hal_smbus.c ****         break;
 650:Drivers/STM32L4xx_HAL_Driver/Src/stm32l4xx_hal_smbus.c **** 
 651:Drivers/STM32L4xx_HAL_Driver/Src/stm32l4xx_hal_smbus.c ****       case HAL_SMBUS_MSPDEINIT_CB_ID :
 652:Drivers/STM32L4xx_HAL_Driver/Src/stm32l4xx_hal_smbus.c ****         hsmbus->MspDeInitCallback = pCallback;
 653:Drivers/STM32L4xx_HAL_Driver/Src/stm32l4xx_hal_smbus.c ****         break;
 654:Drivers/STM32L4xx_HAL_Driver/Src/stm32l4xx_hal_smbus.c **** 
 655:Drivers/STM32L4xx_HAL_Driver/Src/stm32l4xx_hal_smbus.c ****       default :
 656:Drivers/STM32L4xx_HAL_Driver/Src/stm32l4xx_hal_smbus.c ****         /* Update the error code */
 657:Drivers/STM32L4xx_HAL_Driver/Src/stm32l4xx_hal_smbus.c ****         hsmbus->ErrorCode |= HAL_SMBUS_ERROR_INVALID_CALLBACK;
 658:Drivers/STM32L4xx_HAL_Driver/Src/stm32l4xx_hal_smbus.c **** 
 659:Drivers/STM32L4xx_HAL_Driver/Src/stm32l4xx_hal_smbus.c ****         /* Return error status */
 660:Drivers/STM32L4xx_HAL_Driver/Src/stm32l4xx_hal_smbus.c ****         status =  HAL_ERROR;
 661:Drivers/STM32L4xx_HAL_Driver/Src/stm32l4xx_hal_smbus.c ****         break;
 662:Drivers/STM32L4xx_HAL_Driver/Src/stm32l4xx_hal_smbus.c ****     }
 663:Drivers/STM32L4xx_HAL_Driver/Src/stm32l4xx_hal_smbus.c ****   }
 664:Drivers/STM32L4xx_HAL_Driver/Src/stm32l4xx_hal_smbus.c ****   else if (HAL_SMBUS_STATE_RESET == hsmbus->State)
 665:Drivers/STM32L4xx_HAL_Driver/Src/stm32l4xx_hal_smbus.c ****   {
 666:Drivers/STM32L4xx_HAL_Driver/Src/stm32l4xx_hal_smbus.c ****     switch (CallbackID)
 667:Drivers/STM32L4xx_HAL_Driver/Src/stm32l4xx_hal_smbus.c ****     {
 668:Drivers/STM32L4xx_HAL_Driver/Src/stm32l4xx_hal_smbus.c ****       case HAL_SMBUS_MSPINIT_CB_ID :
 669:Drivers/STM32L4xx_HAL_Driver/Src/stm32l4xx_hal_smbus.c ****         hsmbus->MspInitCallback = pCallback;
 670:Drivers/STM32L4xx_HAL_Driver/Src/stm32l4xx_hal_smbus.c ****         break;
 671:Drivers/STM32L4xx_HAL_Driver/Src/stm32l4xx_hal_smbus.c **** 
 672:Drivers/STM32L4xx_HAL_Driver/Src/stm32l4xx_hal_smbus.c ****       case HAL_SMBUS_MSPDEINIT_CB_ID :
 673:Drivers/STM32L4xx_HAL_Driver/Src/stm32l4xx_hal_smbus.c ****         hsmbus->MspDeInitCallback = pCallback;
 674:Drivers/STM32L4xx_HAL_Driver/Src/stm32l4xx_hal_smbus.c ****         break;
 675:Drivers/STM32L4xx_HAL_Driver/Src/stm32l4xx_hal_smbus.c **** 
 676:Drivers/STM32L4xx_HAL_Driver/Src/stm32l4xx_hal_smbus.c ****       default :
 677:Drivers/STM32L4xx_HAL_Driver/Src/stm32l4xx_hal_smbus.c ****         /* Update the error code */
 678:Drivers/STM32L4xx_HAL_Driver/Src/stm32l4xx_hal_smbus.c ****         hsmbus->ErrorCode |= HAL_SMBUS_ERROR_INVALID_CALLBACK;
 679:Drivers/STM32L4xx_HAL_Driver/Src/stm32l4xx_hal_smbus.c **** 
 680:Drivers/STM32L4xx_HAL_Driver/Src/stm32l4xx_hal_smbus.c ****         /* Return error status */
 681:Drivers/STM32L4xx_HAL_Driver/Src/stm32l4xx_hal_smbus.c ****         status =  HAL_ERROR;
 682:Drivers/STM32L4xx_HAL_Driver/Src/stm32l4xx_hal_smbus.c ****         break;
ARM GAS  /tmp/ccysATpZ.s 			page 25


 683:Drivers/STM32L4xx_HAL_Driver/Src/stm32l4xx_hal_smbus.c ****     }
 684:Drivers/STM32L4xx_HAL_Driver/Src/stm32l4xx_hal_smbus.c ****   }
 685:Drivers/STM32L4xx_HAL_Driver/Src/stm32l4xx_hal_smbus.c ****   else
 686:Drivers/STM32L4xx_HAL_Driver/Src/stm32l4xx_hal_smbus.c ****   {
 687:Drivers/STM32L4xx_HAL_Driver/Src/stm32l4xx_hal_smbus.c ****     /* Update the error code */
 688:Drivers/STM32L4xx_HAL_Driver/Src/stm32l4xx_hal_smbus.c ****     hsmbus->ErrorCode |= HAL_SMBUS_ERROR_INVALID_CALLBACK;
 689:Drivers/STM32L4xx_HAL_Driver/Src/stm32l4xx_hal_smbus.c **** 
 690:Drivers/STM32L4xx_HAL_Driver/Src/stm32l4xx_hal_smbus.c ****     /* Return error status */
 691:Drivers/STM32L4xx_HAL_Driver/Src/stm32l4xx_hal_smbus.c ****     status =  HAL_ERROR;
 692:Drivers/STM32L4xx_HAL_Driver/Src/stm32l4xx_hal_smbus.c ****   }
 693:Drivers/STM32L4xx_HAL_Driver/Src/stm32l4xx_hal_smbus.c **** 
 694:Drivers/STM32L4xx_HAL_Driver/Src/stm32l4xx_hal_smbus.c ****   return status;
 695:Drivers/STM32L4xx_HAL_Driver/Src/stm32l4xx_hal_smbus.c **** }
 696:Drivers/STM32L4xx_HAL_Driver/Src/stm32l4xx_hal_smbus.c **** 
 697:Drivers/STM32L4xx_HAL_Driver/Src/stm32l4xx_hal_smbus.c **** /**
 698:Drivers/STM32L4xx_HAL_Driver/Src/stm32l4xx_hal_smbus.c ****   * @brief  Unregister an SMBUS Callback
 699:Drivers/STM32L4xx_HAL_Driver/Src/stm32l4xx_hal_smbus.c ****   *         SMBUS callback is redirected to the weak predefined callback
 700:Drivers/STM32L4xx_HAL_Driver/Src/stm32l4xx_hal_smbus.c ****   * @note   The HAL_SMBUS_UnRegisterCallback() may be called before HAL_SMBUS_Init() in
 701:Drivers/STM32L4xx_HAL_Driver/Src/stm32l4xx_hal_smbus.c ****   *         HAL_SMBUS_STATE_RESET to un-register callbacks for HAL_SMBUS_MSPINIT_CB_ID and
 702:Drivers/STM32L4xx_HAL_Driver/Src/stm32l4xx_hal_smbus.c ****   *         HAL_SMBUS_MSPDEINIT_CB_ID
 703:Drivers/STM32L4xx_HAL_Driver/Src/stm32l4xx_hal_smbus.c ****   * @param  hsmbus Pointer to a SMBUS_HandleTypeDef structure that contains
 704:Drivers/STM32L4xx_HAL_Driver/Src/stm32l4xx_hal_smbus.c ****   *                the configuration information for the specified SMBUS.
 705:Drivers/STM32L4xx_HAL_Driver/Src/stm32l4xx_hal_smbus.c ****   * @param  CallbackID ID of the callback to be unregistered
 706:Drivers/STM32L4xx_HAL_Driver/Src/stm32l4xx_hal_smbus.c ****   *         This parameter can be one of the following values:
 707:Drivers/STM32L4xx_HAL_Driver/Src/stm32l4xx_hal_smbus.c ****   *         This parameter can be one of the following values:
 708:Drivers/STM32L4xx_HAL_Driver/Src/stm32l4xx_hal_smbus.c ****   *          @arg @ref HAL_SMBUS_MASTER_TX_COMPLETE_CB_ID Master Tx Transfer completed callback ID
 709:Drivers/STM32L4xx_HAL_Driver/Src/stm32l4xx_hal_smbus.c ****   *          @arg @ref HAL_SMBUS_MASTER_RX_COMPLETE_CB_ID Master Rx Transfer completed callback ID
 710:Drivers/STM32L4xx_HAL_Driver/Src/stm32l4xx_hal_smbus.c ****   *          @arg @ref HAL_SMBUS_SLAVE_TX_COMPLETE_CB_ID Slave Tx Transfer completed callback ID
 711:Drivers/STM32L4xx_HAL_Driver/Src/stm32l4xx_hal_smbus.c ****   *          @arg @ref HAL_SMBUS_SLAVE_RX_COMPLETE_CB_ID Slave Rx Transfer completed callback ID
 712:Drivers/STM32L4xx_HAL_Driver/Src/stm32l4xx_hal_smbus.c ****   *          @arg @ref HAL_SMBUS_LISTEN_COMPLETE_CB_ID Listen Complete callback ID
 713:Drivers/STM32L4xx_HAL_Driver/Src/stm32l4xx_hal_smbus.c ****   *          @arg @ref HAL_SMBUS_ERROR_CB_ID Error callback ID
 714:Drivers/STM32L4xx_HAL_Driver/Src/stm32l4xx_hal_smbus.c ****   *          @arg @ref HAL_SMBUS_MSPINIT_CB_ID MspInit callback ID
 715:Drivers/STM32L4xx_HAL_Driver/Src/stm32l4xx_hal_smbus.c ****   *          @arg @ref HAL_SMBUS_MSPDEINIT_CB_ID MspDeInit callback ID
 716:Drivers/STM32L4xx_HAL_Driver/Src/stm32l4xx_hal_smbus.c ****   * @retval HAL status
 717:Drivers/STM32L4xx_HAL_Driver/Src/stm32l4xx_hal_smbus.c ****   */
 718:Drivers/STM32L4xx_HAL_Driver/Src/stm32l4xx_hal_smbus.c **** HAL_StatusTypeDef HAL_SMBUS_UnRegisterCallback(SMBUS_HandleTypeDef *hsmbus,
 719:Drivers/STM32L4xx_HAL_Driver/Src/stm32l4xx_hal_smbus.c ****                                                HAL_SMBUS_CallbackIDTypeDef CallbackID)
 720:Drivers/STM32L4xx_HAL_Driver/Src/stm32l4xx_hal_smbus.c **** {
 721:Drivers/STM32L4xx_HAL_Driver/Src/stm32l4xx_hal_smbus.c ****   HAL_StatusTypeDef status = HAL_OK;
 722:Drivers/STM32L4xx_HAL_Driver/Src/stm32l4xx_hal_smbus.c **** 
 723:Drivers/STM32L4xx_HAL_Driver/Src/stm32l4xx_hal_smbus.c ****   if (HAL_SMBUS_STATE_READY == hsmbus->State)
 724:Drivers/STM32L4xx_HAL_Driver/Src/stm32l4xx_hal_smbus.c ****   {
 725:Drivers/STM32L4xx_HAL_Driver/Src/stm32l4xx_hal_smbus.c ****     switch (CallbackID)
 726:Drivers/STM32L4xx_HAL_Driver/Src/stm32l4xx_hal_smbus.c ****     {
 727:Drivers/STM32L4xx_HAL_Driver/Src/stm32l4xx_hal_smbus.c ****       case HAL_SMBUS_MASTER_TX_COMPLETE_CB_ID :
 728:Drivers/STM32L4xx_HAL_Driver/Src/stm32l4xx_hal_smbus.c ****         hsmbus->MasterTxCpltCallback = HAL_SMBUS_MasterTxCpltCallback; /* Legacy weak MasterTxCpltC
 729:Drivers/STM32L4xx_HAL_Driver/Src/stm32l4xx_hal_smbus.c ****         break;
 730:Drivers/STM32L4xx_HAL_Driver/Src/stm32l4xx_hal_smbus.c **** 
 731:Drivers/STM32L4xx_HAL_Driver/Src/stm32l4xx_hal_smbus.c ****       case HAL_SMBUS_MASTER_RX_COMPLETE_CB_ID :
 732:Drivers/STM32L4xx_HAL_Driver/Src/stm32l4xx_hal_smbus.c ****         hsmbus->MasterRxCpltCallback = HAL_SMBUS_MasterRxCpltCallback; /* Legacy weak MasterRxCpltC
 733:Drivers/STM32L4xx_HAL_Driver/Src/stm32l4xx_hal_smbus.c ****         break;
 734:Drivers/STM32L4xx_HAL_Driver/Src/stm32l4xx_hal_smbus.c **** 
 735:Drivers/STM32L4xx_HAL_Driver/Src/stm32l4xx_hal_smbus.c ****       case HAL_SMBUS_SLAVE_TX_COMPLETE_CB_ID :
 736:Drivers/STM32L4xx_HAL_Driver/Src/stm32l4xx_hal_smbus.c ****         hsmbus->SlaveTxCpltCallback = HAL_SMBUS_SlaveTxCpltCallback;   /* Legacy weak SlaveTxCpltCa
 737:Drivers/STM32L4xx_HAL_Driver/Src/stm32l4xx_hal_smbus.c ****         break;
 738:Drivers/STM32L4xx_HAL_Driver/Src/stm32l4xx_hal_smbus.c **** 
 739:Drivers/STM32L4xx_HAL_Driver/Src/stm32l4xx_hal_smbus.c ****       case HAL_SMBUS_SLAVE_RX_COMPLETE_CB_ID :
ARM GAS  /tmp/ccysATpZ.s 			page 26


 740:Drivers/STM32L4xx_HAL_Driver/Src/stm32l4xx_hal_smbus.c ****         hsmbus->SlaveRxCpltCallback = HAL_SMBUS_SlaveRxCpltCallback;   /* Legacy weak SlaveRxCpltCa
 741:Drivers/STM32L4xx_HAL_Driver/Src/stm32l4xx_hal_smbus.c ****         break;
 742:Drivers/STM32L4xx_HAL_Driver/Src/stm32l4xx_hal_smbus.c **** 
 743:Drivers/STM32L4xx_HAL_Driver/Src/stm32l4xx_hal_smbus.c ****       case HAL_SMBUS_LISTEN_COMPLETE_CB_ID :
 744:Drivers/STM32L4xx_HAL_Driver/Src/stm32l4xx_hal_smbus.c ****         hsmbus->ListenCpltCallback = HAL_SMBUS_ListenCpltCallback;     /* Legacy weak ListenCpltCal
 745:Drivers/STM32L4xx_HAL_Driver/Src/stm32l4xx_hal_smbus.c ****         break;
 746:Drivers/STM32L4xx_HAL_Driver/Src/stm32l4xx_hal_smbus.c **** 
 747:Drivers/STM32L4xx_HAL_Driver/Src/stm32l4xx_hal_smbus.c ****       case HAL_SMBUS_ERROR_CB_ID :
 748:Drivers/STM32L4xx_HAL_Driver/Src/stm32l4xx_hal_smbus.c ****         hsmbus->ErrorCallback = HAL_SMBUS_ErrorCallback;               /* Legacy weak ErrorCallback
 749:Drivers/STM32L4xx_HAL_Driver/Src/stm32l4xx_hal_smbus.c ****         break;
 750:Drivers/STM32L4xx_HAL_Driver/Src/stm32l4xx_hal_smbus.c **** 
 751:Drivers/STM32L4xx_HAL_Driver/Src/stm32l4xx_hal_smbus.c ****       case HAL_SMBUS_MSPINIT_CB_ID :
 752:Drivers/STM32L4xx_HAL_Driver/Src/stm32l4xx_hal_smbus.c ****         hsmbus->MspInitCallback = HAL_SMBUS_MspInit;                   /* Legacy weak MspInit      
 753:Drivers/STM32L4xx_HAL_Driver/Src/stm32l4xx_hal_smbus.c ****         break;
 754:Drivers/STM32L4xx_HAL_Driver/Src/stm32l4xx_hal_smbus.c **** 
 755:Drivers/STM32L4xx_HAL_Driver/Src/stm32l4xx_hal_smbus.c ****       case HAL_SMBUS_MSPDEINIT_CB_ID :
 756:Drivers/STM32L4xx_HAL_Driver/Src/stm32l4xx_hal_smbus.c ****         hsmbus->MspDeInitCallback = HAL_SMBUS_MspDeInit;               /* Legacy weak MspDeInit    
 757:Drivers/STM32L4xx_HAL_Driver/Src/stm32l4xx_hal_smbus.c ****         break;
 758:Drivers/STM32L4xx_HAL_Driver/Src/stm32l4xx_hal_smbus.c **** 
 759:Drivers/STM32L4xx_HAL_Driver/Src/stm32l4xx_hal_smbus.c ****       default :
 760:Drivers/STM32L4xx_HAL_Driver/Src/stm32l4xx_hal_smbus.c ****         /* Update the error code */
 761:Drivers/STM32L4xx_HAL_Driver/Src/stm32l4xx_hal_smbus.c ****         hsmbus->ErrorCode |= HAL_SMBUS_ERROR_INVALID_CALLBACK;
 762:Drivers/STM32L4xx_HAL_Driver/Src/stm32l4xx_hal_smbus.c **** 
 763:Drivers/STM32L4xx_HAL_Driver/Src/stm32l4xx_hal_smbus.c ****         /* Return error status */
 764:Drivers/STM32L4xx_HAL_Driver/Src/stm32l4xx_hal_smbus.c ****         status =  HAL_ERROR;
 765:Drivers/STM32L4xx_HAL_Driver/Src/stm32l4xx_hal_smbus.c ****         break;
 766:Drivers/STM32L4xx_HAL_Driver/Src/stm32l4xx_hal_smbus.c ****     }
 767:Drivers/STM32L4xx_HAL_Driver/Src/stm32l4xx_hal_smbus.c ****   }
 768:Drivers/STM32L4xx_HAL_Driver/Src/stm32l4xx_hal_smbus.c ****   else if (HAL_SMBUS_STATE_RESET == hsmbus->State)
 769:Drivers/STM32L4xx_HAL_Driver/Src/stm32l4xx_hal_smbus.c ****   {
 770:Drivers/STM32L4xx_HAL_Driver/Src/stm32l4xx_hal_smbus.c ****     switch (CallbackID)
 771:Drivers/STM32L4xx_HAL_Driver/Src/stm32l4xx_hal_smbus.c ****     {
 772:Drivers/STM32L4xx_HAL_Driver/Src/stm32l4xx_hal_smbus.c ****       case HAL_SMBUS_MSPINIT_CB_ID :
 773:Drivers/STM32L4xx_HAL_Driver/Src/stm32l4xx_hal_smbus.c ****         hsmbus->MspInitCallback = HAL_SMBUS_MspInit;                   /* Legacy weak MspInit      
 774:Drivers/STM32L4xx_HAL_Driver/Src/stm32l4xx_hal_smbus.c ****         break;
 775:Drivers/STM32L4xx_HAL_Driver/Src/stm32l4xx_hal_smbus.c **** 
 776:Drivers/STM32L4xx_HAL_Driver/Src/stm32l4xx_hal_smbus.c ****       case HAL_SMBUS_MSPDEINIT_CB_ID :
 777:Drivers/STM32L4xx_HAL_Driver/Src/stm32l4xx_hal_smbus.c ****         hsmbus->MspDeInitCallback = HAL_SMBUS_MspDeInit;               /* Legacy weak MspDeInit    
 778:Drivers/STM32L4xx_HAL_Driver/Src/stm32l4xx_hal_smbus.c ****         break;
 779:Drivers/STM32L4xx_HAL_Driver/Src/stm32l4xx_hal_smbus.c **** 
 780:Drivers/STM32L4xx_HAL_Driver/Src/stm32l4xx_hal_smbus.c ****       default :
 781:Drivers/STM32L4xx_HAL_Driver/Src/stm32l4xx_hal_smbus.c ****         /* Update the error code */
 782:Drivers/STM32L4xx_HAL_Driver/Src/stm32l4xx_hal_smbus.c ****         hsmbus->ErrorCode |= HAL_SMBUS_ERROR_INVALID_CALLBACK;
 783:Drivers/STM32L4xx_HAL_Driver/Src/stm32l4xx_hal_smbus.c **** 
 784:Drivers/STM32L4xx_HAL_Driver/Src/stm32l4xx_hal_smbus.c ****         /* Return error status */
 785:Drivers/STM32L4xx_HAL_Driver/Src/stm32l4xx_hal_smbus.c ****         status =  HAL_ERROR;
 786:Drivers/STM32L4xx_HAL_Driver/Src/stm32l4xx_hal_smbus.c ****         break;
 787:Drivers/STM32L4xx_HAL_Driver/Src/stm32l4xx_hal_smbus.c ****     }
 788:Drivers/STM32L4xx_HAL_Driver/Src/stm32l4xx_hal_smbus.c ****   }
 789:Drivers/STM32L4xx_HAL_Driver/Src/stm32l4xx_hal_smbus.c ****   else
 790:Drivers/STM32L4xx_HAL_Driver/Src/stm32l4xx_hal_smbus.c ****   {
 791:Drivers/STM32L4xx_HAL_Driver/Src/stm32l4xx_hal_smbus.c ****     /* Update the error code */
 792:Drivers/STM32L4xx_HAL_Driver/Src/stm32l4xx_hal_smbus.c ****     hsmbus->ErrorCode |= HAL_SMBUS_ERROR_INVALID_CALLBACK;
 793:Drivers/STM32L4xx_HAL_Driver/Src/stm32l4xx_hal_smbus.c **** 
 794:Drivers/STM32L4xx_HAL_Driver/Src/stm32l4xx_hal_smbus.c ****     /* Return error status */
 795:Drivers/STM32L4xx_HAL_Driver/Src/stm32l4xx_hal_smbus.c ****     status =  HAL_ERROR;
 796:Drivers/STM32L4xx_HAL_Driver/Src/stm32l4xx_hal_smbus.c ****   }
ARM GAS  /tmp/ccysATpZ.s 			page 27


 797:Drivers/STM32L4xx_HAL_Driver/Src/stm32l4xx_hal_smbus.c **** 
 798:Drivers/STM32L4xx_HAL_Driver/Src/stm32l4xx_hal_smbus.c ****   return status;
 799:Drivers/STM32L4xx_HAL_Driver/Src/stm32l4xx_hal_smbus.c **** }
 800:Drivers/STM32L4xx_HAL_Driver/Src/stm32l4xx_hal_smbus.c **** 
 801:Drivers/STM32L4xx_HAL_Driver/Src/stm32l4xx_hal_smbus.c **** /**
 802:Drivers/STM32L4xx_HAL_Driver/Src/stm32l4xx_hal_smbus.c ****   * @brief  Register the Slave Address Match SMBUS Callback
 803:Drivers/STM32L4xx_HAL_Driver/Src/stm32l4xx_hal_smbus.c ****   *         To be used instead of the weak HAL_SMBUS_AddrCallback() predefined callback
 804:Drivers/STM32L4xx_HAL_Driver/Src/stm32l4xx_hal_smbus.c ****   * @param  hsmbus Pointer to a SMBUS_HandleTypeDef structure that contains
 805:Drivers/STM32L4xx_HAL_Driver/Src/stm32l4xx_hal_smbus.c ****   *                the configuration information for the specified SMBUS.
 806:Drivers/STM32L4xx_HAL_Driver/Src/stm32l4xx_hal_smbus.c ****   * @param  pCallback pointer to the Address Match Callback function
 807:Drivers/STM32L4xx_HAL_Driver/Src/stm32l4xx_hal_smbus.c ****   * @retval HAL status
 808:Drivers/STM32L4xx_HAL_Driver/Src/stm32l4xx_hal_smbus.c ****   */
 809:Drivers/STM32L4xx_HAL_Driver/Src/stm32l4xx_hal_smbus.c **** HAL_StatusTypeDef HAL_SMBUS_RegisterAddrCallback(SMBUS_HandleTypeDef *hsmbus,
 810:Drivers/STM32L4xx_HAL_Driver/Src/stm32l4xx_hal_smbus.c ****                                                  pSMBUS_AddrCallbackTypeDef pCallback)
 811:Drivers/STM32L4xx_HAL_Driver/Src/stm32l4xx_hal_smbus.c **** {
 812:Drivers/STM32L4xx_HAL_Driver/Src/stm32l4xx_hal_smbus.c ****   HAL_StatusTypeDef status = HAL_OK;
 813:Drivers/STM32L4xx_HAL_Driver/Src/stm32l4xx_hal_smbus.c **** 
 814:Drivers/STM32L4xx_HAL_Driver/Src/stm32l4xx_hal_smbus.c ****   if (pCallback == NULL)
 815:Drivers/STM32L4xx_HAL_Driver/Src/stm32l4xx_hal_smbus.c ****   {
 816:Drivers/STM32L4xx_HAL_Driver/Src/stm32l4xx_hal_smbus.c ****     /* Update the error code */
 817:Drivers/STM32L4xx_HAL_Driver/Src/stm32l4xx_hal_smbus.c ****     hsmbus->ErrorCode |= HAL_SMBUS_ERROR_INVALID_CALLBACK;
 818:Drivers/STM32L4xx_HAL_Driver/Src/stm32l4xx_hal_smbus.c **** 
 819:Drivers/STM32L4xx_HAL_Driver/Src/stm32l4xx_hal_smbus.c ****     return HAL_ERROR;
 820:Drivers/STM32L4xx_HAL_Driver/Src/stm32l4xx_hal_smbus.c ****   }
 821:Drivers/STM32L4xx_HAL_Driver/Src/stm32l4xx_hal_smbus.c **** 
 822:Drivers/STM32L4xx_HAL_Driver/Src/stm32l4xx_hal_smbus.c ****   if (HAL_SMBUS_STATE_READY == hsmbus->State)
 823:Drivers/STM32L4xx_HAL_Driver/Src/stm32l4xx_hal_smbus.c ****   {
 824:Drivers/STM32L4xx_HAL_Driver/Src/stm32l4xx_hal_smbus.c ****     hsmbus->AddrCallback = pCallback;
 825:Drivers/STM32L4xx_HAL_Driver/Src/stm32l4xx_hal_smbus.c ****   }
 826:Drivers/STM32L4xx_HAL_Driver/Src/stm32l4xx_hal_smbus.c ****   else
 827:Drivers/STM32L4xx_HAL_Driver/Src/stm32l4xx_hal_smbus.c ****   {
 828:Drivers/STM32L4xx_HAL_Driver/Src/stm32l4xx_hal_smbus.c ****     /* Update the error code */
 829:Drivers/STM32L4xx_HAL_Driver/Src/stm32l4xx_hal_smbus.c ****     hsmbus->ErrorCode |= HAL_SMBUS_ERROR_INVALID_CALLBACK;
 830:Drivers/STM32L4xx_HAL_Driver/Src/stm32l4xx_hal_smbus.c **** 
 831:Drivers/STM32L4xx_HAL_Driver/Src/stm32l4xx_hal_smbus.c ****     /* Return error status */
 832:Drivers/STM32L4xx_HAL_Driver/Src/stm32l4xx_hal_smbus.c ****     status =  HAL_ERROR;
 833:Drivers/STM32L4xx_HAL_Driver/Src/stm32l4xx_hal_smbus.c ****   }
 834:Drivers/STM32L4xx_HAL_Driver/Src/stm32l4xx_hal_smbus.c **** 
 835:Drivers/STM32L4xx_HAL_Driver/Src/stm32l4xx_hal_smbus.c ****   return status;
 836:Drivers/STM32L4xx_HAL_Driver/Src/stm32l4xx_hal_smbus.c **** }
 837:Drivers/STM32L4xx_HAL_Driver/Src/stm32l4xx_hal_smbus.c **** 
 838:Drivers/STM32L4xx_HAL_Driver/Src/stm32l4xx_hal_smbus.c **** /**
 839:Drivers/STM32L4xx_HAL_Driver/Src/stm32l4xx_hal_smbus.c ****   * @brief  UnRegister the Slave Address Match SMBUS Callback
 840:Drivers/STM32L4xx_HAL_Driver/Src/stm32l4xx_hal_smbus.c ****   *         Info Ready SMBUS Callback is redirected to the weak HAL_SMBUS_AddrCallback() predefined
 841:Drivers/STM32L4xx_HAL_Driver/Src/stm32l4xx_hal_smbus.c ****   * @param  hsmbus Pointer to a SMBUS_HandleTypeDef structure that contains
 842:Drivers/STM32L4xx_HAL_Driver/Src/stm32l4xx_hal_smbus.c ****   *                the configuration information for the specified SMBUS.
 843:Drivers/STM32L4xx_HAL_Driver/Src/stm32l4xx_hal_smbus.c ****   * @retval HAL status
 844:Drivers/STM32L4xx_HAL_Driver/Src/stm32l4xx_hal_smbus.c ****   */
 845:Drivers/STM32L4xx_HAL_Driver/Src/stm32l4xx_hal_smbus.c **** HAL_StatusTypeDef HAL_SMBUS_UnRegisterAddrCallback(SMBUS_HandleTypeDef *hsmbus)
 846:Drivers/STM32L4xx_HAL_Driver/Src/stm32l4xx_hal_smbus.c **** {
 847:Drivers/STM32L4xx_HAL_Driver/Src/stm32l4xx_hal_smbus.c ****   HAL_StatusTypeDef status = HAL_OK;
 848:Drivers/STM32L4xx_HAL_Driver/Src/stm32l4xx_hal_smbus.c **** 
 849:Drivers/STM32L4xx_HAL_Driver/Src/stm32l4xx_hal_smbus.c ****   if (HAL_SMBUS_STATE_READY == hsmbus->State)
 850:Drivers/STM32L4xx_HAL_Driver/Src/stm32l4xx_hal_smbus.c ****   {
 851:Drivers/STM32L4xx_HAL_Driver/Src/stm32l4xx_hal_smbus.c ****     hsmbus->AddrCallback = HAL_SMBUS_AddrCallback; /* Legacy weak AddrCallback  */
 852:Drivers/STM32L4xx_HAL_Driver/Src/stm32l4xx_hal_smbus.c ****   }
 853:Drivers/STM32L4xx_HAL_Driver/Src/stm32l4xx_hal_smbus.c ****   else
ARM GAS  /tmp/ccysATpZ.s 			page 28


 854:Drivers/STM32L4xx_HAL_Driver/Src/stm32l4xx_hal_smbus.c ****   {
 855:Drivers/STM32L4xx_HAL_Driver/Src/stm32l4xx_hal_smbus.c ****     /* Update the error code */
 856:Drivers/STM32L4xx_HAL_Driver/Src/stm32l4xx_hal_smbus.c ****     hsmbus->ErrorCode |= HAL_SMBUS_ERROR_INVALID_CALLBACK;
 857:Drivers/STM32L4xx_HAL_Driver/Src/stm32l4xx_hal_smbus.c **** 
 858:Drivers/STM32L4xx_HAL_Driver/Src/stm32l4xx_hal_smbus.c ****     /* Return error status */
 859:Drivers/STM32L4xx_HAL_Driver/Src/stm32l4xx_hal_smbus.c ****     status =  HAL_ERROR;
 860:Drivers/STM32L4xx_HAL_Driver/Src/stm32l4xx_hal_smbus.c ****   }
 861:Drivers/STM32L4xx_HAL_Driver/Src/stm32l4xx_hal_smbus.c **** 
 862:Drivers/STM32L4xx_HAL_Driver/Src/stm32l4xx_hal_smbus.c ****   return status;
 863:Drivers/STM32L4xx_HAL_Driver/Src/stm32l4xx_hal_smbus.c **** }
 864:Drivers/STM32L4xx_HAL_Driver/Src/stm32l4xx_hal_smbus.c **** 
 865:Drivers/STM32L4xx_HAL_Driver/Src/stm32l4xx_hal_smbus.c **** #endif /* USE_HAL_SMBUS_REGISTER_CALLBACKS */
 866:Drivers/STM32L4xx_HAL_Driver/Src/stm32l4xx_hal_smbus.c **** 
 867:Drivers/STM32L4xx_HAL_Driver/Src/stm32l4xx_hal_smbus.c **** /**
 868:Drivers/STM32L4xx_HAL_Driver/Src/stm32l4xx_hal_smbus.c ****   * @}
 869:Drivers/STM32L4xx_HAL_Driver/Src/stm32l4xx_hal_smbus.c ****   */
 870:Drivers/STM32L4xx_HAL_Driver/Src/stm32l4xx_hal_smbus.c **** 
 871:Drivers/STM32L4xx_HAL_Driver/Src/stm32l4xx_hal_smbus.c **** /** @defgroup SMBUS_Exported_Functions_Group2 Input and Output operation functions
 872:Drivers/STM32L4xx_HAL_Driver/Src/stm32l4xx_hal_smbus.c ****   *  @brief   Data transfers functions
 873:Drivers/STM32L4xx_HAL_Driver/Src/stm32l4xx_hal_smbus.c ****   *
 874:Drivers/STM32L4xx_HAL_Driver/Src/stm32l4xx_hal_smbus.c **** @verbatim
 875:Drivers/STM32L4xx_HAL_Driver/Src/stm32l4xx_hal_smbus.c ****  ===============================================================================
 876:Drivers/STM32L4xx_HAL_Driver/Src/stm32l4xx_hal_smbus.c ****                       ##### IO operation functions #####
 877:Drivers/STM32L4xx_HAL_Driver/Src/stm32l4xx_hal_smbus.c ****  ===============================================================================
 878:Drivers/STM32L4xx_HAL_Driver/Src/stm32l4xx_hal_smbus.c ****     [..]
 879:Drivers/STM32L4xx_HAL_Driver/Src/stm32l4xx_hal_smbus.c ****     This subsection provides a set of functions allowing to manage the SMBUS data
 880:Drivers/STM32L4xx_HAL_Driver/Src/stm32l4xx_hal_smbus.c ****     transfers.
 881:Drivers/STM32L4xx_HAL_Driver/Src/stm32l4xx_hal_smbus.c **** 
 882:Drivers/STM32L4xx_HAL_Driver/Src/stm32l4xx_hal_smbus.c ****     (#) Blocking mode function to check if device is ready for usage is :
 883:Drivers/STM32L4xx_HAL_Driver/Src/stm32l4xx_hal_smbus.c ****         (++) HAL_SMBUS_IsDeviceReady()
 884:Drivers/STM32L4xx_HAL_Driver/Src/stm32l4xx_hal_smbus.c **** 
 885:Drivers/STM32L4xx_HAL_Driver/Src/stm32l4xx_hal_smbus.c ****     (#) There is only one mode of transfer:
 886:Drivers/STM32L4xx_HAL_Driver/Src/stm32l4xx_hal_smbus.c ****        (++) Non-Blocking mode : The communication is performed using Interrupts.
 887:Drivers/STM32L4xx_HAL_Driver/Src/stm32l4xx_hal_smbus.c ****             These functions return the status of the transfer startup.
 888:Drivers/STM32L4xx_HAL_Driver/Src/stm32l4xx_hal_smbus.c ****             The end of the data processing will be indicated through the
 889:Drivers/STM32L4xx_HAL_Driver/Src/stm32l4xx_hal_smbus.c ****             dedicated SMBUS IRQ when using Interrupt mode.
 890:Drivers/STM32L4xx_HAL_Driver/Src/stm32l4xx_hal_smbus.c **** 
 891:Drivers/STM32L4xx_HAL_Driver/Src/stm32l4xx_hal_smbus.c ****     (#) Non-Blocking mode functions with Interrupt are :
 892:Drivers/STM32L4xx_HAL_Driver/Src/stm32l4xx_hal_smbus.c ****         (++) HAL_SMBUS_Master_Transmit_IT()
 893:Drivers/STM32L4xx_HAL_Driver/Src/stm32l4xx_hal_smbus.c ****         (++) HAL_SMBUS_Master_Receive_IT()
 894:Drivers/STM32L4xx_HAL_Driver/Src/stm32l4xx_hal_smbus.c ****         (++) HAL_SMBUS_Slave_Transmit_IT()
 895:Drivers/STM32L4xx_HAL_Driver/Src/stm32l4xx_hal_smbus.c ****         (++) HAL_SMBUS_Slave_Receive_IT()
 896:Drivers/STM32L4xx_HAL_Driver/Src/stm32l4xx_hal_smbus.c ****         (++) HAL_SMBUS_EnableListen_IT() or alias HAL_SMBUS_EnableListen_IT()
 897:Drivers/STM32L4xx_HAL_Driver/Src/stm32l4xx_hal_smbus.c ****         (++) HAL_SMBUS_DisableListen_IT()
 898:Drivers/STM32L4xx_HAL_Driver/Src/stm32l4xx_hal_smbus.c ****         (++) HAL_SMBUS_EnableAlert_IT()
 899:Drivers/STM32L4xx_HAL_Driver/Src/stm32l4xx_hal_smbus.c ****         (++) HAL_SMBUS_DisableAlert_IT()
 900:Drivers/STM32L4xx_HAL_Driver/Src/stm32l4xx_hal_smbus.c **** 
 901:Drivers/STM32L4xx_HAL_Driver/Src/stm32l4xx_hal_smbus.c ****     (#) A set of Transfer Complete Callbacks are provided in non-Blocking mode:
 902:Drivers/STM32L4xx_HAL_Driver/Src/stm32l4xx_hal_smbus.c ****         (++) HAL_SMBUS_MasterTxCpltCallback()
 903:Drivers/STM32L4xx_HAL_Driver/Src/stm32l4xx_hal_smbus.c ****         (++) HAL_SMBUS_MasterRxCpltCallback()
 904:Drivers/STM32L4xx_HAL_Driver/Src/stm32l4xx_hal_smbus.c ****         (++) HAL_SMBUS_SlaveTxCpltCallback()
 905:Drivers/STM32L4xx_HAL_Driver/Src/stm32l4xx_hal_smbus.c ****         (++) HAL_SMBUS_SlaveRxCpltCallback()
 906:Drivers/STM32L4xx_HAL_Driver/Src/stm32l4xx_hal_smbus.c ****         (++) HAL_SMBUS_AddrCallback()
 907:Drivers/STM32L4xx_HAL_Driver/Src/stm32l4xx_hal_smbus.c ****         (++) HAL_SMBUS_ListenCpltCallback()
 908:Drivers/STM32L4xx_HAL_Driver/Src/stm32l4xx_hal_smbus.c ****         (++) HAL_SMBUS_ErrorCallback()
 909:Drivers/STM32L4xx_HAL_Driver/Src/stm32l4xx_hal_smbus.c **** 
 910:Drivers/STM32L4xx_HAL_Driver/Src/stm32l4xx_hal_smbus.c **** @endverbatim
ARM GAS  /tmp/ccysATpZ.s 			page 29


 911:Drivers/STM32L4xx_HAL_Driver/Src/stm32l4xx_hal_smbus.c ****   * @{
 912:Drivers/STM32L4xx_HAL_Driver/Src/stm32l4xx_hal_smbus.c ****   */
 913:Drivers/STM32L4xx_HAL_Driver/Src/stm32l4xx_hal_smbus.c **** 
 914:Drivers/STM32L4xx_HAL_Driver/Src/stm32l4xx_hal_smbus.c **** /**
 915:Drivers/STM32L4xx_HAL_Driver/Src/stm32l4xx_hal_smbus.c ****   * @brief  Transmit in master/host SMBUS mode an amount of data in non-blocking mode with Interrup
 916:Drivers/STM32L4xx_HAL_Driver/Src/stm32l4xx_hal_smbus.c ****   * @param  hsmbus Pointer to a SMBUS_HandleTypeDef structure that contains
 917:Drivers/STM32L4xx_HAL_Driver/Src/stm32l4xx_hal_smbus.c ****   *                the configuration information for the specified SMBUS.
 918:Drivers/STM32L4xx_HAL_Driver/Src/stm32l4xx_hal_smbus.c ****   * @param  DevAddress Target device address: The device 7 bits address value
 919:Drivers/STM32L4xx_HAL_Driver/Src/stm32l4xx_hal_smbus.c ****   *         in datasheet must be shifted to the left before calling the interface
 920:Drivers/STM32L4xx_HAL_Driver/Src/stm32l4xx_hal_smbus.c ****   * @param  pData Pointer to data buffer
 921:Drivers/STM32L4xx_HAL_Driver/Src/stm32l4xx_hal_smbus.c ****   * @param  Size Amount of data to be sent
 922:Drivers/STM32L4xx_HAL_Driver/Src/stm32l4xx_hal_smbus.c ****   * @param  XferOptions Options of Transfer, value of @ref SMBUS_XferOptions_definition
 923:Drivers/STM32L4xx_HAL_Driver/Src/stm32l4xx_hal_smbus.c ****   * @retval HAL status
 924:Drivers/STM32L4xx_HAL_Driver/Src/stm32l4xx_hal_smbus.c ****   */
 925:Drivers/STM32L4xx_HAL_Driver/Src/stm32l4xx_hal_smbus.c **** HAL_StatusTypeDef HAL_SMBUS_Master_Transmit_IT(SMBUS_HandleTypeDef *hsmbus, uint16_t DevAddress,
 926:Drivers/STM32L4xx_HAL_Driver/Src/stm32l4xx_hal_smbus.c ****                                                uint8_t *pData, uint16_t Size, uint32_t XferOptions)
 927:Drivers/STM32L4xx_HAL_Driver/Src/stm32l4xx_hal_smbus.c **** {
 692              		.loc 1 927 1
 693              		.cfi_startproc
 694              		@ args = 4, pretend = 0, frame = 24
 695              		@ frame_needed = 1, uses_anonymous_args = 0
 696 0000 80B5     		push	{r7, lr}
 697              		.cfi_def_cfa_offset 8
 698              		.cfi_offset 7, -8
 699              		.cfi_offset 14, -4
 700 0002 88B0     		sub	sp, sp, #32
 701              		.cfi_def_cfa_offset 40
 702 0004 02AF     		add	r7, sp, #8
 703              		.cfi_def_cfa 7, 32
 704 0006 F860     		str	r0, [r7, #12]
 705 0008 7A60     		str	r2, [r7, #4]
 706 000a 1A46     		mov	r2, r3
 707 000c 0B46     		mov	r3, r1	@ movhi
 708 000e 7B81     		strh	r3, [r7, #10]	@ movhi
 709 0010 1346     		mov	r3, r2	@ movhi
 710 0012 3B81     		strh	r3, [r7, #8]	@ movhi
 928:Drivers/STM32L4xx_HAL_Driver/Src/stm32l4xx_hal_smbus.c ****   uint32_t tmp;
 929:Drivers/STM32L4xx_HAL_Driver/Src/stm32l4xx_hal_smbus.c ****   uint32_t sizetoxfer;
 930:Drivers/STM32L4xx_HAL_Driver/Src/stm32l4xx_hal_smbus.c **** 
 931:Drivers/STM32L4xx_HAL_Driver/Src/stm32l4xx_hal_smbus.c ****   /* Check the parameters */
 932:Drivers/STM32L4xx_HAL_Driver/Src/stm32l4xx_hal_smbus.c ****   assert_param(IS_SMBUS_TRANSFER_OPTIONS_REQUEST(XferOptions));
 933:Drivers/STM32L4xx_HAL_Driver/Src/stm32l4xx_hal_smbus.c **** 
 934:Drivers/STM32L4xx_HAL_Driver/Src/stm32l4xx_hal_smbus.c ****   if (hsmbus->State == HAL_SMBUS_STATE_READY)
 711              		.loc 1 934 13
 712 0014 FB68     		ldr	r3, [r7, #12]
 713 0016 9B6C     		ldr	r3, [r3, #72]
 714              		.loc 1 934 6
 715 0018 012B     		cmp	r3, #1
 716 001a 40F0D380 		bne	.L24
 935:Drivers/STM32L4xx_HAL_Driver/Src/stm32l4xx_hal_smbus.c ****   {
 936:Drivers/STM32L4xx_HAL_Driver/Src/stm32l4xx_hal_smbus.c ****     /* Process Locked */
 937:Drivers/STM32L4xx_HAL_Driver/Src/stm32l4xx_hal_smbus.c ****     __HAL_LOCK(hsmbus);
 717              		.loc 1 937 5
 718 001e FB68     		ldr	r3, [r7, #12]
 719 0020 93F84430 		ldrb	r3, [r3, #68]	@ zero_extendqisi2
 720 0024 012B     		cmp	r3, #1
 721 0026 01D1     		bne	.L25
ARM GAS  /tmp/ccysATpZ.s 			page 30


 722              		.loc 1 937 5 is_stmt 0 discriminator 1
 723 0028 0223     		movs	r3, #2
 724              		.loc 1 937 5
 725 002a CCE0     		b	.L26
 726              	.L25:
 727              		.loc 1 937 5 discriminator 2
 728 002c FB68     		ldr	r3, [r7, #12]
 729 002e 0122     		movs	r2, #1
 730 0030 83F84420 		strb	r2, [r3, #68]
 938:Drivers/STM32L4xx_HAL_Driver/Src/stm32l4xx_hal_smbus.c **** 
 939:Drivers/STM32L4xx_HAL_Driver/Src/stm32l4xx_hal_smbus.c ****     hsmbus->State = HAL_SMBUS_STATE_MASTER_BUSY_TX;
 731              		.loc 1 939 19 is_stmt 1
 732 0034 FB68     		ldr	r3, [r7, #12]
 733 0036 1222     		movs	r2, #18
 734 0038 9A64     		str	r2, [r3, #72]
 940:Drivers/STM32L4xx_HAL_Driver/Src/stm32l4xx_hal_smbus.c ****     hsmbus->ErrorCode = HAL_SMBUS_ERROR_NONE;
 735              		.loc 1 940 23
 736 003a FB68     		ldr	r3, [r7, #12]
 737 003c 0022     		movs	r2, #0
 738 003e DA64     		str	r2, [r3, #76]
 941:Drivers/STM32L4xx_HAL_Driver/Src/stm32l4xx_hal_smbus.c ****     /* Prepare transfer parameters */
 942:Drivers/STM32L4xx_HAL_Driver/Src/stm32l4xx_hal_smbus.c ****     hsmbus->pBuffPtr = pData;
 739              		.loc 1 942 22
 740 0040 FB68     		ldr	r3, [r7, #12]
 741 0042 7A68     		ldr	r2, [r7, #4]
 742 0044 5A63     		str	r2, [r3, #52]
 943:Drivers/STM32L4xx_HAL_Driver/Src/stm32l4xx_hal_smbus.c ****     hsmbus->XferCount = Size;
 743              		.loc 1 943 23
 744 0046 FB68     		ldr	r3, [r7, #12]
 745 0048 3A89     		ldrh	r2, [r7, #8]	@ movhi
 746 004a 5A87     		strh	r2, [r3, #58]	@ movhi
 944:Drivers/STM32L4xx_HAL_Driver/Src/stm32l4xx_hal_smbus.c ****     hsmbus->XferOptions = XferOptions;
 747              		.loc 1 944 25
 748 004c FB68     		ldr	r3, [r7, #12]
 749 004e 3A6A     		ldr	r2, [r7, #32]
 750 0050 DA63     		str	r2, [r3, #60]
 945:Drivers/STM32L4xx_HAL_Driver/Src/stm32l4xx_hal_smbus.c **** 
 946:Drivers/STM32L4xx_HAL_Driver/Src/stm32l4xx_hal_smbus.c ****     /* In case of Quick command, remove autoend mode */
 947:Drivers/STM32L4xx_HAL_Driver/Src/stm32l4xx_hal_smbus.c ****     /* Manage the stop generation by software */
 948:Drivers/STM32L4xx_HAL_Driver/Src/stm32l4xx_hal_smbus.c ****     if (hsmbus->pBuffPtr == NULL)
 751              		.loc 1 948 15
 752 0052 FB68     		ldr	r3, [r7, #12]
 753 0054 5B6B     		ldr	r3, [r3, #52]
 754              		.loc 1 948 8
 755 0056 002B     		cmp	r3, #0
 756 0058 05D1     		bne	.L27
 949:Drivers/STM32L4xx_HAL_Driver/Src/stm32l4xx_hal_smbus.c ****     {
 950:Drivers/STM32L4xx_HAL_Driver/Src/stm32l4xx_hal_smbus.c ****       hsmbus->XferOptions &= ~SMBUS_AUTOEND_MODE;
 757              		.loc 1 950 13
 758 005a FB68     		ldr	r3, [r7, #12]
 759 005c DB6B     		ldr	r3, [r3, #60]
 760              		.loc 1 950 27
 761 005e 23F00072 		bic	r2, r3, #33554432
 762 0062 FB68     		ldr	r3, [r7, #12]
 763 0064 DA63     		str	r2, [r3, #60]
 764              	.L27:
 951:Drivers/STM32L4xx_HAL_Driver/Src/stm32l4xx_hal_smbus.c ****     }
ARM GAS  /tmp/ccysATpZ.s 			page 31


 952:Drivers/STM32L4xx_HAL_Driver/Src/stm32l4xx_hal_smbus.c **** 
 953:Drivers/STM32L4xx_HAL_Driver/Src/stm32l4xx_hal_smbus.c ****     if (Size > MAX_NBYTE_SIZE)
 765              		.loc 1 953 8
 766 0066 3B89     		ldrh	r3, [r7, #8]
 767 0068 FF2B     		cmp	r3, #255
 768 006a 03D9     		bls	.L28
 954:Drivers/STM32L4xx_HAL_Driver/Src/stm32l4xx_hal_smbus.c ****     {
 955:Drivers/STM32L4xx_HAL_Driver/Src/stm32l4xx_hal_smbus.c ****       hsmbus->XferSize = MAX_NBYTE_SIZE;
 769              		.loc 1 955 24
 770 006c FB68     		ldr	r3, [r7, #12]
 771 006e FF22     		movs	r2, #255
 772 0070 1A87     		strh	r2, [r3, #56]	@ movhi
 773 0072 02E0     		b	.L29
 774              	.L28:
 956:Drivers/STM32L4xx_HAL_Driver/Src/stm32l4xx_hal_smbus.c ****     }
 957:Drivers/STM32L4xx_HAL_Driver/Src/stm32l4xx_hal_smbus.c ****     else
 958:Drivers/STM32L4xx_HAL_Driver/Src/stm32l4xx_hal_smbus.c ****     {
 959:Drivers/STM32L4xx_HAL_Driver/Src/stm32l4xx_hal_smbus.c ****       hsmbus->XferSize = Size;
 775              		.loc 1 959 24
 776 0074 FB68     		ldr	r3, [r7, #12]
 777 0076 3A89     		ldrh	r2, [r7, #8]	@ movhi
 778 0078 1A87     		strh	r2, [r3, #56]	@ movhi
 779              	.L29:
 960:Drivers/STM32L4xx_HAL_Driver/Src/stm32l4xx_hal_smbus.c ****     }
 961:Drivers/STM32L4xx_HAL_Driver/Src/stm32l4xx_hal_smbus.c **** 
 962:Drivers/STM32L4xx_HAL_Driver/Src/stm32l4xx_hal_smbus.c ****     sizetoxfer = hsmbus->XferSize;
 780              		.loc 1 962 24
 781 007a FB68     		ldr	r3, [r7, #12]
 782 007c 1B8F     		ldrh	r3, [r3, #56]
 783              		.loc 1 962 16
 784 007e 7B61     		str	r3, [r7, #20]
 963:Drivers/STM32L4xx_HAL_Driver/Src/stm32l4xx_hal_smbus.c ****     if ((sizetoxfer > 0U) && ((XferOptions == SMBUS_FIRST_FRAME) ||
 785              		.loc 1 963 8
 786 0080 7B69     		ldr	r3, [r7, #20]
 787 0082 002B     		cmp	r3, #0
 788 0084 2DD0     		beq	.L30
 789              		.loc 1 963 27 discriminator 1
 790 0086 3B6A     		ldr	r3, [r7, #32]
 791 0088 002B     		cmp	r3, #0
 792 008a 0BD0     		beq	.L31
 793              		.loc 1 963 66 discriminator 2
 794 008c 3B6A     		ldr	r3, [r7, #32]
 795 008e B3F1007F 		cmp	r3, #33554432
 796 0092 07D0     		beq	.L31
 964:Drivers/STM32L4xx_HAL_Driver/Src/stm32l4xx_hal_smbus.c ****                               (XferOptions == SMBUS_FIRST_AND_LAST_FRAME_NO_PEC) ||
 797              		.loc 1 964 82
 798 0094 3B6A     		ldr	r3, [r7, #32]
 799 0096 B3F1806F 		cmp	r3, #67108864
 800 009a 03D0     		beq	.L31
 965:Drivers/STM32L4xx_HAL_Driver/Src/stm32l4xx_hal_smbus.c ****                               (XferOptions == SMBUS_FIRST_FRAME_WITH_PEC) ||
 801              		.loc 1 965 75
 802 009c 3B6A     		ldr	r3, [r7, #32]
 803 009e B3F1C06F 		cmp	r3, #100663296
 804 00a2 1ED1     		bne	.L30
 805              	.L31:
 966:Drivers/STM32L4xx_HAL_Driver/Src/stm32l4xx_hal_smbus.c ****                               (XferOptions == SMBUS_FIRST_AND_LAST_FRAME_WITH_PEC)))
 967:Drivers/STM32L4xx_HAL_Driver/Src/stm32l4xx_hal_smbus.c ****     {
ARM GAS  /tmp/ccysATpZ.s 			page 32


 968:Drivers/STM32L4xx_HAL_Driver/Src/stm32l4xx_hal_smbus.c ****       if (hsmbus->pBuffPtr != NULL)
 806              		.loc 1 968 17
 807 00a4 FB68     		ldr	r3, [r7, #12]
 808 00a6 5B6B     		ldr	r3, [r3, #52]
 809              		.loc 1 968 10
 810 00a8 002B     		cmp	r3, #0
 811 00aa 18D0     		beq	.L32
 969:Drivers/STM32L4xx_HAL_Driver/Src/stm32l4xx_hal_smbus.c ****       {
 970:Drivers/STM32L4xx_HAL_Driver/Src/stm32l4xx_hal_smbus.c ****         /* Preload TX register */
 971:Drivers/STM32L4xx_HAL_Driver/Src/stm32l4xx_hal_smbus.c ****         /* Write data to TXDR */
 972:Drivers/STM32L4xx_HAL_Driver/Src/stm32l4xx_hal_smbus.c ****         hsmbus->Instance->TXDR = *hsmbus->pBuffPtr;
 812              		.loc 1 972 41
 813 00ac FB68     		ldr	r3, [r7, #12]
 814 00ae 5B6B     		ldr	r3, [r3, #52]
 815              		.loc 1 972 34
 816 00b0 1A78     		ldrb	r2, [r3]	@ zero_extendqisi2
 817              		.loc 1 972 15
 818 00b2 FB68     		ldr	r3, [r7, #12]
 819 00b4 1B68     		ldr	r3, [r3]
 820              		.loc 1 972 32
 821 00b6 9A62     		str	r2, [r3, #40]
 973:Drivers/STM32L4xx_HAL_Driver/Src/stm32l4xx_hal_smbus.c **** 
 974:Drivers/STM32L4xx_HAL_Driver/Src/stm32l4xx_hal_smbus.c ****         /* Increment Buffer pointer */
 975:Drivers/STM32L4xx_HAL_Driver/Src/stm32l4xx_hal_smbus.c ****         hsmbus->pBuffPtr++;
 822              		.loc 1 975 15
 823 00b8 FB68     		ldr	r3, [r7, #12]
 824 00ba 5B6B     		ldr	r3, [r3, #52]
 825              		.loc 1 975 25
 826 00bc 5A1C     		adds	r2, r3, #1
 827 00be FB68     		ldr	r3, [r7, #12]
 828 00c0 5A63     		str	r2, [r3, #52]
 976:Drivers/STM32L4xx_HAL_Driver/Src/stm32l4xx_hal_smbus.c **** 
 977:Drivers/STM32L4xx_HAL_Driver/Src/stm32l4xx_hal_smbus.c ****         hsmbus->XferCount--;
 829              		.loc 1 977 15
 830 00c2 FB68     		ldr	r3, [r7, #12]
 831 00c4 5B8F     		ldrh	r3, [r3, #58]	@ movhi
 832 00c6 9BB2     		uxth	r3, r3
 833              		.loc 1 977 26
 834 00c8 013B     		subs	r3, r3, #1
 835 00ca 9AB2     		uxth	r2, r3
 836 00cc FB68     		ldr	r3, [r7, #12]
 837 00ce 5A87     		strh	r2, [r3, #58]	@ movhi
 978:Drivers/STM32L4xx_HAL_Driver/Src/stm32l4xx_hal_smbus.c ****         hsmbus->XferSize--;
 838              		.loc 1 978 15
 839 00d0 FB68     		ldr	r3, [r7, #12]
 840 00d2 1B8F     		ldrh	r3, [r3, #56]
 841              		.loc 1 978 25
 842 00d4 013B     		subs	r3, r3, #1
 843 00d6 9AB2     		uxth	r2, r3
 844 00d8 FB68     		ldr	r3, [r7, #12]
 845 00da 1A87     		strh	r2, [r3, #56]	@ movhi
 846 00dc 01E0     		b	.L30
 847              	.L32:
 979:Drivers/STM32L4xx_HAL_Driver/Src/stm32l4xx_hal_smbus.c ****       }
 980:Drivers/STM32L4xx_HAL_Driver/Src/stm32l4xx_hal_smbus.c ****       else
 981:Drivers/STM32L4xx_HAL_Driver/Src/stm32l4xx_hal_smbus.c ****       {
 982:Drivers/STM32L4xx_HAL_Driver/Src/stm32l4xx_hal_smbus.c ****         return HAL_ERROR;
ARM GAS  /tmp/ccysATpZ.s 			page 33


 848              		.loc 1 982 16
 849 00de 0123     		movs	r3, #1
 850 00e0 71E0     		b	.L26
 851              	.L30:
 983:Drivers/STM32L4xx_HAL_Driver/Src/stm32l4xx_hal_smbus.c ****       }
 984:Drivers/STM32L4xx_HAL_Driver/Src/stm32l4xx_hal_smbus.c ****     }
 985:Drivers/STM32L4xx_HAL_Driver/Src/stm32l4xx_hal_smbus.c **** 
 986:Drivers/STM32L4xx_HAL_Driver/Src/stm32l4xx_hal_smbus.c ****     /* Send Slave Address */
 987:Drivers/STM32L4xx_HAL_Driver/Src/stm32l4xx_hal_smbus.c ****     /* Set NBYTES to write and reload if size > MAX_NBYTE_SIZE and generate RESTART */
 988:Drivers/STM32L4xx_HAL_Driver/Src/stm32l4xx_hal_smbus.c ****     if ((sizetoxfer < hsmbus->XferCount) && (sizetoxfer == MAX_NBYTE_SIZE))
 852              		.loc 1 988 29
 853 00e2 FB68     		ldr	r3, [r7, #12]
 854 00e4 5B8F     		ldrh	r3, [r3, #58]	@ movhi
 855 00e6 9BB2     		uxth	r3, r3
 856 00e8 1A46     		mov	r2, r3
 857              		.loc 1 988 8
 858 00ea 7B69     		ldr	r3, [r7, #20]
 859 00ec 9342     		cmp	r3, r2
 860 00ee 11D2     		bcs	.L33
 861              		.loc 1 988 42 discriminator 1
 862 00f0 7B69     		ldr	r3, [r7, #20]
 863 00f2 FF2B     		cmp	r3, #255
 864 00f4 0ED1     		bne	.L33
 989:Drivers/STM32L4xx_HAL_Driver/Src/stm32l4xx_hal_smbus.c ****     {
 990:Drivers/STM32L4xx_HAL_Driver/Src/stm32l4xx_hal_smbus.c ****       SMBUS_TransferConfig(hsmbus, DevAddress, (uint8_t)sizetoxfer,
 865              		.loc 1 990 7
 866 00f6 7B69     		ldr	r3, [r7, #20]
 867 00f8 DAB2     		uxtb	r2, r3
 991:Drivers/STM32L4xx_HAL_Driver/Src/stm32l4xx_hal_smbus.c ****                            SMBUS_RELOAD_MODE | (hsmbus->XferOptions & SMBUS_SENDPEC_MODE),
 868              		.loc 1 991 55
 869 00fa FB68     		ldr	r3, [r7, #12]
 870 00fc DB6B     		ldr	r3, [r3, #60]
 871              		.loc 1 991 69
 872 00fe 03F08063 		and	r3, r3, #67108864
 990:Drivers/STM32L4xx_HAL_Driver/Src/stm32l4xx_hal_smbus.c ****                            SMBUS_RELOAD_MODE | (hsmbus->XferOptions & SMBUS_SENDPEC_MODE),
 873              		.loc 1 990 7
 874 0102 43F08073 		orr	r3, r3, #16777216
 875 0106 7989     		ldrh	r1, [r7, #10]
 876 0108 3148     		ldr	r0, .L41
 877 010a 0090     		str	r0, [sp]
 878 010c F868     		ldr	r0, [r7, #12]
 879 010e FFF7FEFF 		bl	SMBUS_TransferConfig
 880 0112 4DE0     		b	.L34
 881              	.L33:
 992:Drivers/STM32L4xx_HAL_Driver/Src/stm32l4xx_hal_smbus.c ****                            SMBUS_GENERATE_START_WRITE);
 993:Drivers/STM32L4xx_HAL_Driver/Src/stm32l4xx_hal_smbus.c ****     }
 994:Drivers/STM32L4xx_HAL_Driver/Src/stm32l4xx_hal_smbus.c ****     else
 995:Drivers/STM32L4xx_HAL_Driver/Src/stm32l4xx_hal_smbus.c ****     {
 996:Drivers/STM32L4xx_HAL_Driver/Src/stm32l4xx_hal_smbus.c ****       /* If transfer direction not change, do not generate Restart Condition */
 997:Drivers/STM32L4xx_HAL_Driver/Src/stm32l4xx_hal_smbus.c ****       /* Mean Previous state is same as current state */
 998:Drivers/STM32L4xx_HAL_Driver/Src/stm32l4xx_hal_smbus.c **** 
 999:Drivers/STM32L4xx_HAL_Driver/Src/stm32l4xx_hal_smbus.c ****       /* Store current volatile XferOptions, misra rule */
1000:Drivers/STM32L4xx_HAL_Driver/Src/stm32l4xx_hal_smbus.c ****       tmp = hsmbus->XferOptions;
 882              		.loc 1 1000 11
 883 0114 FB68     		ldr	r3, [r7, #12]
 884 0116 DB6B     		ldr	r3, [r3, #60]
 885 0118 3B61     		str	r3, [r7, #16]
ARM GAS  /tmp/ccysATpZ.s 			page 34


1001:Drivers/STM32L4xx_HAL_Driver/Src/stm32l4xx_hal_smbus.c **** 
1002:Drivers/STM32L4xx_HAL_Driver/Src/stm32l4xx_hal_smbus.c ****       if ((hsmbus->PreviousState == HAL_SMBUS_STATE_MASTER_BUSY_TX) && \
 886              		.loc 1 1002 18
 887 011a FB68     		ldr	r3, [r7, #12]
 888 011c 1B6C     		ldr	r3, [r3, #64]
 889              		.loc 1 1002 10
 890 011e 122B     		cmp	r3, #18
 891 0120 1ED1     		bne	.L35
1003:Drivers/STM32L4xx_HAL_Driver/Src/stm32l4xx_hal_smbus.c ****           (IS_SMBUS_TRANSFER_OTHER_OPTIONS_REQUEST(tmp) == 0))
 892              		.loc 1 1003 12
 893 0122 3B69     		ldr	r3, [r7, #16]
 894 0124 AA2B     		cmp	r3, #170
 895 0126 0BD0     		beq	.L36
 896              		.loc 1 1003 12 is_stmt 0 discriminator 2
 897 0128 3B69     		ldr	r3, [r7, #16]
 898 012a B3F52A0F 		cmp	r3, #11141120
 899 012e 07D0     		beq	.L36
 900              		.loc 1 1003 12 discriminator 4
 901 0130 3B69     		ldr	r3, [r7, #16]
 902 0132 B3F52A4F 		cmp	r3, #43520
 903 0136 03D0     		beq	.L36
 904              		.loc 1 1003 12 discriminator 6
 905 0138 3B69     		ldr	r3, [r7, #16]
 906 013a B3F12A4F 		cmp	r3, #-1442840576
 907 013e 01D1     		bne	.L37
 908              	.L36:
 909              		.loc 1 1003 12 discriminator 7
 910 0140 0123     		movs	r3, #1
 911              		.loc 1 1003 12
 912 0142 00E0     		b	.L38
 913              	.L37:
 914              		.loc 1 1003 12 discriminator 8
 915 0144 0023     		movs	r3, #0
 916              	.L38:
1002:Drivers/STM32L4xx_HAL_Driver/Src/stm32l4xx_hal_smbus.c ****           (IS_SMBUS_TRANSFER_OTHER_OPTIONS_REQUEST(tmp) == 0))
 917              		.loc 1 1002 69 is_stmt 1
 918 0146 002B     		cmp	r3, #0
 919 0148 0AD1     		bne	.L35
1004:Drivers/STM32L4xx_HAL_Driver/Src/stm32l4xx_hal_smbus.c ****       {
1005:Drivers/STM32L4xx_HAL_Driver/Src/stm32l4xx_hal_smbus.c ****         SMBUS_TransferConfig(hsmbus, DevAddress, (uint8_t)sizetoxfer, hsmbus->XferOptions,
 920              		.loc 1 1005 9
 921 014a 7B69     		ldr	r3, [r7, #20]
 922 014c DAB2     		uxtb	r2, r3
 923              		.loc 1 1005 77
 924 014e FB68     		ldr	r3, [r7, #12]
 925 0150 DB6B     		ldr	r3, [r3, #60]
 926              		.loc 1 1005 9
 927 0152 7989     		ldrh	r1, [r7, #10]
 928 0154 0020     		movs	r0, #0
 929 0156 0090     		str	r0, [sp]
 930 0158 F868     		ldr	r0, [r7, #12]
 931 015a FFF7FEFF 		bl	SMBUS_TransferConfig
 932 015e 0CE0     		b	.L39
 933              	.L35:
1006:Drivers/STM32L4xx_HAL_Driver/Src/stm32l4xx_hal_smbus.c ****                              SMBUS_NO_STARTSTOP);
1007:Drivers/STM32L4xx_HAL_Driver/Src/stm32l4xx_hal_smbus.c ****       }
1008:Drivers/STM32L4xx_HAL_Driver/Src/stm32l4xx_hal_smbus.c ****       /* Else transfer direction change, so generate Restart with new transfer direction */
ARM GAS  /tmp/ccysATpZ.s 			page 35


1009:Drivers/STM32L4xx_HAL_Driver/Src/stm32l4xx_hal_smbus.c ****       else
1010:Drivers/STM32L4xx_HAL_Driver/Src/stm32l4xx_hal_smbus.c ****       {
1011:Drivers/STM32L4xx_HAL_Driver/Src/stm32l4xx_hal_smbus.c ****         /* Convert OTHER_xxx XferOptions if any */
1012:Drivers/STM32L4xx_HAL_Driver/Src/stm32l4xx_hal_smbus.c ****         SMBUS_ConvertOtherXferOptions(hsmbus);
 934              		.loc 1 1012 9
 935 0160 F868     		ldr	r0, [r7, #12]
 936 0162 FFF7FEFF 		bl	SMBUS_ConvertOtherXferOptions
1013:Drivers/STM32L4xx_HAL_Driver/Src/stm32l4xx_hal_smbus.c **** 
1014:Drivers/STM32L4xx_HAL_Driver/Src/stm32l4xx_hal_smbus.c ****         /* Handle Transfer */
1015:Drivers/STM32L4xx_HAL_Driver/Src/stm32l4xx_hal_smbus.c ****         SMBUS_TransferConfig(hsmbus, DevAddress, (uint8_t)sizetoxfer,
 937              		.loc 1 1015 9
 938 0166 7B69     		ldr	r3, [r7, #20]
 939 0168 DAB2     		uxtb	r2, r3
1016:Drivers/STM32L4xx_HAL_Driver/Src/stm32l4xx_hal_smbus.c ****                              hsmbus->XferOptions,
 940              		.loc 1 1016 36
 941 016a FB68     		ldr	r3, [r7, #12]
 942 016c DB6B     		ldr	r3, [r3, #60]
1015:Drivers/STM32L4xx_HAL_Driver/Src/stm32l4xx_hal_smbus.c ****                              hsmbus->XferOptions,
 943              		.loc 1 1015 9
 944 016e 7989     		ldrh	r1, [r7, #10]
 945 0170 1748     		ldr	r0, .L41
 946 0172 0090     		str	r0, [sp]
 947 0174 F868     		ldr	r0, [r7, #12]
 948 0176 FFF7FEFF 		bl	SMBUS_TransferConfig
 949              	.L39:
1017:Drivers/STM32L4xx_HAL_Driver/Src/stm32l4xx_hal_smbus.c ****                              SMBUS_GENERATE_START_WRITE);
1018:Drivers/STM32L4xx_HAL_Driver/Src/stm32l4xx_hal_smbus.c ****       }
1019:Drivers/STM32L4xx_HAL_Driver/Src/stm32l4xx_hal_smbus.c **** 
1020:Drivers/STM32L4xx_HAL_Driver/Src/stm32l4xx_hal_smbus.c ****       /* If PEC mode is enable, size to transmit manage by SW part should be Size-1 byte, correspon
1021:Drivers/STM32L4xx_HAL_Driver/Src/stm32l4xx_hal_smbus.c ****       /* PEC byte is automatically sent by HW block, no need to manage it in Transmit process */
1022:Drivers/STM32L4xx_HAL_Driver/Src/stm32l4xx_hal_smbus.c ****       if (SMBUS_GET_PEC_MODE(hsmbus) != 0UL)
 950              		.loc 1 1022 11
 951 017a FB68     		ldr	r3, [r7, #12]
 952 017c 1B68     		ldr	r3, [r3]
 953 017e 5B68     		ldr	r3, [r3, #4]
 954 0180 03F08063 		and	r3, r3, #67108864
 955              		.loc 1 1022 10
 956 0184 002B     		cmp	r3, #0
 957 0186 13D0     		beq	.L34
1023:Drivers/STM32L4xx_HAL_Driver/Src/stm32l4xx_hal_smbus.c ****       {
1024:Drivers/STM32L4xx_HAL_Driver/Src/stm32l4xx_hal_smbus.c ****         if (hsmbus->XferSize > 0U)
 958              		.loc 1 1024 19
 959 0188 FB68     		ldr	r3, [r7, #12]
 960 018a 1B8F     		ldrh	r3, [r3, #56]
 961              		.loc 1 1024 12
 962 018c 002B     		cmp	r3, #0
 963 018e 0DD0     		beq	.L40
1025:Drivers/STM32L4xx_HAL_Driver/Src/stm32l4xx_hal_smbus.c ****         {
1026:Drivers/STM32L4xx_HAL_Driver/Src/stm32l4xx_hal_smbus.c ****           hsmbus->XferSize--;
 964              		.loc 1 1026 17
 965 0190 FB68     		ldr	r3, [r7, #12]
 966 0192 1B8F     		ldrh	r3, [r3, #56]
 967              		.loc 1 1026 27
 968 0194 013B     		subs	r3, r3, #1
 969 0196 9AB2     		uxth	r2, r3
 970 0198 FB68     		ldr	r3, [r7, #12]
 971 019a 1A87     		strh	r2, [r3, #56]	@ movhi
ARM GAS  /tmp/ccysATpZ.s 			page 36


1027:Drivers/STM32L4xx_HAL_Driver/Src/stm32l4xx_hal_smbus.c ****           hsmbus->XferCount--;
 972              		.loc 1 1027 17
 973 019c FB68     		ldr	r3, [r7, #12]
 974 019e 5B8F     		ldrh	r3, [r3, #58]	@ movhi
 975 01a0 9BB2     		uxth	r3, r3
 976              		.loc 1 1027 28
 977 01a2 013B     		subs	r3, r3, #1
 978 01a4 9AB2     		uxth	r2, r3
 979 01a6 FB68     		ldr	r3, [r7, #12]
 980 01a8 5A87     		strh	r2, [r3, #58]	@ movhi
 981 01aa 01E0     		b	.L34
 982              	.L40:
1028:Drivers/STM32L4xx_HAL_Driver/Src/stm32l4xx_hal_smbus.c ****         }
1029:Drivers/STM32L4xx_HAL_Driver/Src/stm32l4xx_hal_smbus.c ****         else
1030:Drivers/STM32L4xx_HAL_Driver/Src/stm32l4xx_hal_smbus.c ****         {
1031:Drivers/STM32L4xx_HAL_Driver/Src/stm32l4xx_hal_smbus.c ****           return HAL_ERROR;
 983              		.loc 1 1031 18
 984 01ac 0123     		movs	r3, #1
 985 01ae 0AE0     		b	.L26
 986              	.L34:
1032:Drivers/STM32L4xx_HAL_Driver/Src/stm32l4xx_hal_smbus.c ****         }
1033:Drivers/STM32L4xx_HAL_Driver/Src/stm32l4xx_hal_smbus.c ****       }
1034:Drivers/STM32L4xx_HAL_Driver/Src/stm32l4xx_hal_smbus.c ****     }
1035:Drivers/STM32L4xx_HAL_Driver/Src/stm32l4xx_hal_smbus.c **** 
1036:Drivers/STM32L4xx_HAL_Driver/Src/stm32l4xx_hal_smbus.c ****     /* Process Unlocked */
1037:Drivers/STM32L4xx_HAL_Driver/Src/stm32l4xx_hal_smbus.c ****     __HAL_UNLOCK(hsmbus);
 987              		.loc 1 1037 5
 988 01b0 FB68     		ldr	r3, [r7, #12]
 989 01b2 0022     		movs	r2, #0
 990 01b4 83F84420 		strb	r2, [r3, #68]
1038:Drivers/STM32L4xx_HAL_Driver/Src/stm32l4xx_hal_smbus.c **** 
1039:Drivers/STM32L4xx_HAL_Driver/Src/stm32l4xx_hal_smbus.c ****     /* Note : The SMBUS interrupts must be enabled after unlocking current process
1040:Drivers/STM32L4xx_HAL_Driver/Src/stm32l4xx_hal_smbus.c ****               to avoid the risk of SMBUS interrupt handle execution before current
1041:Drivers/STM32L4xx_HAL_Driver/Src/stm32l4xx_hal_smbus.c ****               process unlock */
1042:Drivers/STM32L4xx_HAL_Driver/Src/stm32l4xx_hal_smbus.c ****     SMBUS_Enable_IRQ(hsmbus, SMBUS_IT_TX);
 991              		.loc 1 1042 5
 992 01b8 F221     		movs	r1, #242
 993 01ba F868     		ldr	r0, [r7, #12]
 994 01bc FFF7FEFF 		bl	SMBUS_Enable_IRQ
1043:Drivers/STM32L4xx_HAL_Driver/Src/stm32l4xx_hal_smbus.c **** 
1044:Drivers/STM32L4xx_HAL_Driver/Src/stm32l4xx_hal_smbus.c ****     return HAL_OK;
 995              		.loc 1 1044 12
 996 01c0 0023     		movs	r3, #0
 997 01c2 00E0     		b	.L26
 998              	.L24:
1045:Drivers/STM32L4xx_HAL_Driver/Src/stm32l4xx_hal_smbus.c ****   }
1046:Drivers/STM32L4xx_HAL_Driver/Src/stm32l4xx_hal_smbus.c ****   else
1047:Drivers/STM32L4xx_HAL_Driver/Src/stm32l4xx_hal_smbus.c ****   {
1048:Drivers/STM32L4xx_HAL_Driver/Src/stm32l4xx_hal_smbus.c ****     return HAL_BUSY;
 999              		.loc 1 1048 12
 1000 01c4 0223     		movs	r3, #2
 1001              	.L26:
1049:Drivers/STM32L4xx_HAL_Driver/Src/stm32l4xx_hal_smbus.c ****   }
1050:Drivers/STM32L4xx_HAL_Driver/Src/stm32l4xx_hal_smbus.c **** }
 1002              		.loc 1 1050 1
 1003 01c6 1846     		mov	r0, r3
 1004 01c8 1837     		adds	r7, r7, #24
ARM GAS  /tmp/ccysATpZ.s 			page 37


 1005              		.cfi_def_cfa_offset 8
 1006 01ca BD46     		mov	sp, r7
 1007              		.cfi_def_cfa_register 13
 1008              		@ sp needed
 1009 01cc 80BD     		pop	{r7, pc}
 1010              	.L42:
 1011 01ce 00BF     		.align	2
 1012              	.L41:
 1013 01d0 00200080 		.word	-2147475456
 1014              		.cfi_endproc
 1015              	.LFE451:
 1017              		.section	.text.HAL_SMBUS_Master_Receive_IT,"ax",%progbits
 1018              		.align	1
 1019              		.global	HAL_SMBUS_Master_Receive_IT
 1020              		.syntax unified
 1021              		.thumb
 1022              		.thumb_func
 1024              	HAL_SMBUS_Master_Receive_IT:
 1025              	.LFB452:
1051:Drivers/STM32L4xx_HAL_Driver/Src/stm32l4xx_hal_smbus.c **** 
1052:Drivers/STM32L4xx_HAL_Driver/Src/stm32l4xx_hal_smbus.c **** /**
1053:Drivers/STM32L4xx_HAL_Driver/Src/stm32l4xx_hal_smbus.c ****   * @brief  Receive in master/host SMBUS mode an amount of data in non-blocking mode with Interrupt
1054:Drivers/STM32L4xx_HAL_Driver/Src/stm32l4xx_hal_smbus.c ****   * @param  hsmbus Pointer to a SMBUS_HandleTypeDef structure that contains
1055:Drivers/STM32L4xx_HAL_Driver/Src/stm32l4xx_hal_smbus.c ****   *                the configuration information for the specified SMBUS.
1056:Drivers/STM32L4xx_HAL_Driver/Src/stm32l4xx_hal_smbus.c ****   * @param  DevAddress Target device address: The device 7 bits address value
1057:Drivers/STM32L4xx_HAL_Driver/Src/stm32l4xx_hal_smbus.c ****   *         in datasheet must be shifted to the left before calling the interface
1058:Drivers/STM32L4xx_HAL_Driver/Src/stm32l4xx_hal_smbus.c ****   * @param  pData Pointer to data buffer
1059:Drivers/STM32L4xx_HAL_Driver/Src/stm32l4xx_hal_smbus.c ****   * @param  Size Amount of data to be sent
1060:Drivers/STM32L4xx_HAL_Driver/Src/stm32l4xx_hal_smbus.c ****   * @param  XferOptions Options of Transfer, value of @ref SMBUS_XferOptions_definition
1061:Drivers/STM32L4xx_HAL_Driver/Src/stm32l4xx_hal_smbus.c ****   * @retval HAL status
1062:Drivers/STM32L4xx_HAL_Driver/Src/stm32l4xx_hal_smbus.c ****   */
1063:Drivers/STM32L4xx_HAL_Driver/Src/stm32l4xx_hal_smbus.c **** HAL_StatusTypeDef HAL_SMBUS_Master_Receive_IT(SMBUS_HandleTypeDef *hsmbus, uint16_t DevAddress, uin
1064:Drivers/STM32L4xx_HAL_Driver/Src/stm32l4xx_hal_smbus.c ****                                               uint16_t Size, uint32_t XferOptions)
1065:Drivers/STM32L4xx_HAL_Driver/Src/stm32l4xx_hal_smbus.c **** {
 1026              		.loc 1 1065 1
 1027              		.cfi_startproc
 1028              		@ args = 4, pretend = 0, frame = 24
 1029              		@ frame_needed = 1, uses_anonymous_args = 0
 1030 0000 80B5     		push	{r7, lr}
 1031              		.cfi_def_cfa_offset 8
 1032              		.cfi_offset 7, -8
 1033              		.cfi_offset 14, -4
 1034 0002 88B0     		sub	sp, sp, #32
 1035              		.cfi_def_cfa_offset 40
 1036 0004 02AF     		add	r7, sp, #8
 1037              		.cfi_def_cfa 7, 32
 1038 0006 F860     		str	r0, [r7, #12]
 1039 0008 7A60     		str	r2, [r7, #4]
 1040 000a 1A46     		mov	r2, r3
 1041 000c 0B46     		mov	r3, r1	@ movhi
 1042 000e 7B81     		strh	r3, [r7, #10]	@ movhi
 1043 0010 1346     		mov	r3, r2	@ movhi
 1044 0012 3B81     		strh	r3, [r7, #8]	@ movhi
1066:Drivers/STM32L4xx_HAL_Driver/Src/stm32l4xx_hal_smbus.c ****   uint32_t tmp;
1067:Drivers/STM32L4xx_HAL_Driver/Src/stm32l4xx_hal_smbus.c **** 
1068:Drivers/STM32L4xx_HAL_Driver/Src/stm32l4xx_hal_smbus.c ****   /* Check the parameters */
1069:Drivers/STM32L4xx_HAL_Driver/Src/stm32l4xx_hal_smbus.c ****   assert_param(IS_SMBUS_TRANSFER_OPTIONS_REQUEST(XferOptions));
ARM GAS  /tmp/ccysATpZ.s 			page 38


1070:Drivers/STM32L4xx_HAL_Driver/Src/stm32l4xx_hal_smbus.c **** 
1071:Drivers/STM32L4xx_HAL_Driver/Src/stm32l4xx_hal_smbus.c ****   if (hsmbus->State == HAL_SMBUS_STATE_READY)
 1045              		.loc 1 1071 13
 1046 0014 FB68     		ldr	r3, [r7, #12]
 1047 0016 9B6C     		ldr	r3, [r3, #72]
 1048              		.loc 1 1071 6
 1049 0018 012B     		cmp	r3, #1
 1050 001a 40F08880 		bne	.L44
1072:Drivers/STM32L4xx_HAL_Driver/Src/stm32l4xx_hal_smbus.c ****   {
1073:Drivers/STM32L4xx_HAL_Driver/Src/stm32l4xx_hal_smbus.c ****     /* Process Locked */
1074:Drivers/STM32L4xx_HAL_Driver/Src/stm32l4xx_hal_smbus.c ****     __HAL_LOCK(hsmbus);
 1051              		.loc 1 1074 5
 1052 001e FB68     		ldr	r3, [r7, #12]
 1053 0020 93F84430 		ldrb	r3, [r3, #68]	@ zero_extendqisi2
 1054 0024 012B     		cmp	r3, #1
 1055 0026 01D1     		bne	.L45
 1056              		.loc 1 1074 5 is_stmt 0 discriminator 1
 1057 0028 0223     		movs	r3, #2
 1058              		.loc 1 1074 5
 1059 002a 81E0     		b	.L46
 1060              	.L45:
 1061              		.loc 1 1074 5 discriminator 2
 1062 002c FB68     		ldr	r3, [r7, #12]
 1063 002e 0122     		movs	r2, #1
 1064 0030 83F84420 		strb	r2, [r3, #68]
1075:Drivers/STM32L4xx_HAL_Driver/Src/stm32l4xx_hal_smbus.c **** 
1076:Drivers/STM32L4xx_HAL_Driver/Src/stm32l4xx_hal_smbus.c ****     hsmbus->State = HAL_SMBUS_STATE_MASTER_BUSY_RX;
 1065              		.loc 1 1076 19 is_stmt 1
 1066 0034 FB68     		ldr	r3, [r7, #12]
 1067 0036 2222     		movs	r2, #34
 1068 0038 9A64     		str	r2, [r3, #72]
1077:Drivers/STM32L4xx_HAL_Driver/Src/stm32l4xx_hal_smbus.c ****     hsmbus->ErrorCode = HAL_SMBUS_ERROR_NONE;
 1069              		.loc 1 1077 23
 1070 003a FB68     		ldr	r3, [r7, #12]
 1071 003c 0022     		movs	r2, #0
 1072 003e DA64     		str	r2, [r3, #76]
1078:Drivers/STM32L4xx_HAL_Driver/Src/stm32l4xx_hal_smbus.c **** 
1079:Drivers/STM32L4xx_HAL_Driver/Src/stm32l4xx_hal_smbus.c ****     /* Prepare transfer parameters */
1080:Drivers/STM32L4xx_HAL_Driver/Src/stm32l4xx_hal_smbus.c ****     hsmbus->pBuffPtr = pData;
 1073              		.loc 1 1080 22
 1074 0040 FB68     		ldr	r3, [r7, #12]
 1075 0042 7A68     		ldr	r2, [r7, #4]
 1076 0044 5A63     		str	r2, [r3, #52]
1081:Drivers/STM32L4xx_HAL_Driver/Src/stm32l4xx_hal_smbus.c ****     hsmbus->XferCount = Size;
 1077              		.loc 1 1081 23
 1078 0046 FB68     		ldr	r3, [r7, #12]
 1079 0048 3A89     		ldrh	r2, [r7, #8]	@ movhi
 1080 004a 5A87     		strh	r2, [r3, #58]	@ movhi
1082:Drivers/STM32L4xx_HAL_Driver/Src/stm32l4xx_hal_smbus.c ****     hsmbus->XferOptions = XferOptions;
 1081              		.loc 1 1082 25
 1082 004c FB68     		ldr	r3, [r7, #12]
 1083 004e 3A6A     		ldr	r2, [r7, #32]
 1084 0050 DA63     		str	r2, [r3, #60]
1083:Drivers/STM32L4xx_HAL_Driver/Src/stm32l4xx_hal_smbus.c **** 
1084:Drivers/STM32L4xx_HAL_Driver/Src/stm32l4xx_hal_smbus.c ****     /* In case of Quick command, remove autoend mode */
1085:Drivers/STM32L4xx_HAL_Driver/Src/stm32l4xx_hal_smbus.c ****     /* Manage the stop generation by software */
1086:Drivers/STM32L4xx_HAL_Driver/Src/stm32l4xx_hal_smbus.c ****     if (hsmbus->pBuffPtr == NULL)
ARM GAS  /tmp/ccysATpZ.s 			page 39


 1085              		.loc 1 1086 15
 1086 0052 FB68     		ldr	r3, [r7, #12]
 1087 0054 5B6B     		ldr	r3, [r3, #52]
 1088              		.loc 1 1086 8
 1089 0056 002B     		cmp	r3, #0
 1090 0058 05D1     		bne	.L47
1087:Drivers/STM32L4xx_HAL_Driver/Src/stm32l4xx_hal_smbus.c ****     {
1088:Drivers/STM32L4xx_HAL_Driver/Src/stm32l4xx_hal_smbus.c ****       hsmbus->XferOptions &= ~SMBUS_AUTOEND_MODE;
 1091              		.loc 1 1088 13
 1092 005a FB68     		ldr	r3, [r7, #12]
 1093 005c DB6B     		ldr	r3, [r3, #60]
 1094              		.loc 1 1088 27
 1095 005e 23F00072 		bic	r2, r3, #33554432
 1096 0062 FB68     		ldr	r3, [r7, #12]
 1097 0064 DA63     		str	r2, [r3, #60]
 1098              	.L47:
1089:Drivers/STM32L4xx_HAL_Driver/Src/stm32l4xx_hal_smbus.c ****     }
1090:Drivers/STM32L4xx_HAL_Driver/Src/stm32l4xx_hal_smbus.c **** 
1091:Drivers/STM32L4xx_HAL_Driver/Src/stm32l4xx_hal_smbus.c ****     if (Size > MAX_NBYTE_SIZE)
 1099              		.loc 1 1091 8
 1100 0066 3B89     		ldrh	r3, [r7, #8]
 1101 0068 FF2B     		cmp	r3, #255
 1102 006a 03D9     		bls	.L48
1092:Drivers/STM32L4xx_HAL_Driver/Src/stm32l4xx_hal_smbus.c ****     {
1093:Drivers/STM32L4xx_HAL_Driver/Src/stm32l4xx_hal_smbus.c ****       hsmbus->XferSize = MAX_NBYTE_SIZE;
 1103              		.loc 1 1093 24
 1104 006c FB68     		ldr	r3, [r7, #12]
 1105 006e FF22     		movs	r2, #255
 1106 0070 1A87     		strh	r2, [r3, #56]	@ movhi
 1107 0072 02E0     		b	.L49
 1108              	.L48:
1094:Drivers/STM32L4xx_HAL_Driver/Src/stm32l4xx_hal_smbus.c ****     }
1095:Drivers/STM32L4xx_HAL_Driver/Src/stm32l4xx_hal_smbus.c ****     else
1096:Drivers/STM32L4xx_HAL_Driver/Src/stm32l4xx_hal_smbus.c ****     {
1097:Drivers/STM32L4xx_HAL_Driver/Src/stm32l4xx_hal_smbus.c ****       hsmbus->XferSize = Size;
 1109              		.loc 1 1097 24
 1110 0074 FB68     		ldr	r3, [r7, #12]
 1111 0076 3A89     		ldrh	r2, [r7, #8]	@ movhi
 1112 0078 1A87     		strh	r2, [r3, #56]	@ movhi
 1113              	.L49:
1098:Drivers/STM32L4xx_HAL_Driver/Src/stm32l4xx_hal_smbus.c ****     }
1099:Drivers/STM32L4xx_HAL_Driver/Src/stm32l4xx_hal_smbus.c **** 
1100:Drivers/STM32L4xx_HAL_Driver/Src/stm32l4xx_hal_smbus.c ****     /* Send Slave Address */
1101:Drivers/STM32L4xx_HAL_Driver/Src/stm32l4xx_hal_smbus.c ****     /* Set NBYTES to write and reload if size > MAX_NBYTE_SIZE and generate RESTART */
1102:Drivers/STM32L4xx_HAL_Driver/Src/stm32l4xx_hal_smbus.c ****     if ((hsmbus->XferSize < hsmbus->XferCount) && (hsmbus->XferSize == MAX_NBYTE_SIZE))
 1114              		.loc 1 1102 16
 1115 007a FB68     		ldr	r3, [r7, #12]
 1116 007c 1A8F     		ldrh	r2, [r3, #56]
 1117              		.loc 1 1102 35
 1118 007e FB68     		ldr	r3, [r7, #12]
 1119 0080 5B8F     		ldrh	r3, [r3, #58]	@ movhi
 1120 0082 9BB2     		uxth	r3, r3
 1121              		.loc 1 1102 8
 1122 0084 9A42     		cmp	r2, r3
 1123 0086 13D2     		bcs	.L50
 1124              		.loc 1 1102 58 discriminator 1
 1125 0088 FB68     		ldr	r3, [r7, #12]
ARM GAS  /tmp/ccysATpZ.s 			page 40


 1126 008a 1B8F     		ldrh	r3, [r3, #56]
 1127              		.loc 1 1102 48 discriminator 1
 1128 008c FF2B     		cmp	r3, #255
 1129 008e 0FD1     		bne	.L50
1103:Drivers/STM32L4xx_HAL_Driver/Src/stm32l4xx_hal_smbus.c ****     {
1104:Drivers/STM32L4xx_HAL_Driver/Src/stm32l4xx_hal_smbus.c ****       SMBUS_TransferConfig(hsmbus, DevAddress, (uint8_t)hsmbus->XferSize,
 1130              		.loc 1 1104 63
 1131 0090 FB68     		ldr	r3, [r7, #12]
 1132 0092 1B8F     		ldrh	r3, [r3, #56]
 1133              		.loc 1 1104 7
 1134 0094 DAB2     		uxtb	r2, r3
1105:Drivers/STM32L4xx_HAL_Driver/Src/stm32l4xx_hal_smbus.c ****                            SMBUS_RELOAD_MODE  | (hsmbus->XferOptions & SMBUS_SENDPEC_MODE),
 1135              		.loc 1 1105 56
 1136 0096 FB68     		ldr	r3, [r7, #12]
 1137 0098 DB6B     		ldr	r3, [r3, #60]
 1138              		.loc 1 1105 70
 1139 009a 03F08063 		and	r3, r3, #67108864
1104:Drivers/STM32L4xx_HAL_Driver/Src/stm32l4xx_hal_smbus.c ****                            SMBUS_RELOAD_MODE  | (hsmbus->XferOptions & SMBUS_SENDPEC_MODE),
 1140              		.loc 1 1104 7
 1141 009e 43F08073 		orr	r3, r3, #16777216
 1142 00a2 7989     		ldrh	r1, [r7, #10]
 1143 00a4 2448     		ldr	r0, .L56
 1144 00a6 0090     		str	r0, [sp]
 1145 00a8 F868     		ldr	r0, [r7, #12]
 1146 00aa FFF7FEFF 		bl	SMBUS_TransferConfig
 1147 00ae 34E0     		b	.L51
 1148              	.L50:
1106:Drivers/STM32L4xx_HAL_Driver/Src/stm32l4xx_hal_smbus.c ****                            SMBUS_GENERATE_START_READ);
1107:Drivers/STM32L4xx_HAL_Driver/Src/stm32l4xx_hal_smbus.c ****     }
1108:Drivers/STM32L4xx_HAL_Driver/Src/stm32l4xx_hal_smbus.c ****     else
1109:Drivers/STM32L4xx_HAL_Driver/Src/stm32l4xx_hal_smbus.c ****     {
1110:Drivers/STM32L4xx_HAL_Driver/Src/stm32l4xx_hal_smbus.c ****       /* If transfer direction not change, do not generate Restart Condition */
1111:Drivers/STM32L4xx_HAL_Driver/Src/stm32l4xx_hal_smbus.c ****       /* Mean Previous state is same as current state */
1112:Drivers/STM32L4xx_HAL_Driver/Src/stm32l4xx_hal_smbus.c **** 
1113:Drivers/STM32L4xx_HAL_Driver/Src/stm32l4xx_hal_smbus.c ****       /* Store current volatile XferOptions, Misra rule */
1114:Drivers/STM32L4xx_HAL_Driver/Src/stm32l4xx_hal_smbus.c ****       tmp = hsmbus->XferOptions;
 1149              		.loc 1 1114 11
 1150 00b0 FB68     		ldr	r3, [r7, #12]
 1151 00b2 DB6B     		ldr	r3, [r3, #60]
 1152 00b4 7B61     		str	r3, [r7, #20]
1115:Drivers/STM32L4xx_HAL_Driver/Src/stm32l4xx_hal_smbus.c **** 
1116:Drivers/STM32L4xx_HAL_Driver/Src/stm32l4xx_hal_smbus.c ****       if ((hsmbus->PreviousState == HAL_SMBUS_STATE_MASTER_BUSY_RX) && \
 1153              		.loc 1 1116 18
 1154 00b6 FB68     		ldr	r3, [r7, #12]
 1155 00b8 1B6C     		ldr	r3, [r3, #64]
 1156              		.loc 1 1116 10
 1157 00ba 222B     		cmp	r3, #34
 1158 00bc 1FD1     		bne	.L52
1117:Drivers/STM32L4xx_HAL_Driver/Src/stm32l4xx_hal_smbus.c ****           (IS_SMBUS_TRANSFER_OTHER_OPTIONS_REQUEST(tmp) == 0))
 1159              		.loc 1 1117 12
 1160 00be 7B69     		ldr	r3, [r7, #20]
 1161 00c0 AA2B     		cmp	r3, #170
 1162 00c2 0BD0     		beq	.L53
 1163              		.loc 1 1117 12 is_stmt 0 discriminator 2
 1164 00c4 7B69     		ldr	r3, [r7, #20]
 1165 00c6 B3F52A0F 		cmp	r3, #11141120
 1166 00ca 07D0     		beq	.L53
ARM GAS  /tmp/ccysATpZ.s 			page 41


 1167              		.loc 1 1117 12 discriminator 4
 1168 00cc 7B69     		ldr	r3, [r7, #20]
 1169 00ce B3F52A4F 		cmp	r3, #43520
 1170 00d2 03D0     		beq	.L53
 1171              		.loc 1 1117 12 discriminator 6
 1172 00d4 7B69     		ldr	r3, [r7, #20]
 1173 00d6 B3F12A4F 		cmp	r3, #-1442840576
 1174 00da 01D1     		bne	.L54
 1175              	.L53:
 1176              		.loc 1 1117 12 discriminator 7
 1177 00dc 0123     		movs	r3, #1
 1178              		.loc 1 1117 12
 1179 00de 00E0     		b	.L55
 1180              	.L54:
 1181              		.loc 1 1117 12 discriminator 8
 1182 00e0 0023     		movs	r3, #0
 1183              	.L55:
1116:Drivers/STM32L4xx_HAL_Driver/Src/stm32l4xx_hal_smbus.c ****           (IS_SMBUS_TRANSFER_OTHER_OPTIONS_REQUEST(tmp) == 0))
 1184              		.loc 1 1116 69 is_stmt 1
 1185 00e2 002B     		cmp	r3, #0
 1186 00e4 0BD1     		bne	.L52
1118:Drivers/STM32L4xx_HAL_Driver/Src/stm32l4xx_hal_smbus.c ****       {
1119:Drivers/STM32L4xx_HAL_Driver/Src/stm32l4xx_hal_smbus.c ****         SMBUS_TransferConfig(hsmbus, DevAddress, (uint8_t)hsmbus->XferSize, hsmbus->XferOptions,
 1187              		.loc 1 1119 65
 1188 00e6 FB68     		ldr	r3, [r7, #12]
 1189 00e8 1B8F     		ldrh	r3, [r3, #56]
 1190              		.loc 1 1119 9
 1191 00ea DAB2     		uxtb	r2, r3
 1192              		.loc 1 1119 83
 1193 00ec FB68     		ldr	r3, [r7, #12]
 1194 00ee DB6B     		ldr	r3, [r3, #60]
 1195              		.loc 1 1119 9
 1196 00f0 7989     		ldrh	r1, [r7, #10]
 1197 00f2 0020     		movs	r0, #0
 1198 00f4 0090     		str	r0, [sp]
 1199 00f6 F868     		ldr	r0, [r7, #12]
 1200 00f8 FFF7FEFF 		bl	SMBUS_TransferConfig
 1201 00fc 0DE0     		b	.L51
 1202              	.L52:
1120:Drivers/STM32L4xx_HAL_Driver/Src/stm32l4xx_hal_smbus.c ****                              SMBUS_NO_STARTSTOP);
1121:Drivers/STM32L4xx_HAL_Driver/Src/stm32l4xx_hal_smbus.c ****       }
1122:Drivers/STM32L4xx_HAL_Driver/Src/stm32l4xx_hal_smbus.c ****       /* Else transfer direction change, so generate Restart with new transfer direction */
1123:Drivers/STM32L4xx_HAL_Driver/Src/stm32l4xx_hal_smbus.c ****       else
1124:Drivers/STM32L4xx_HAL_Driver/Src/stm32l4xx_hal_smbus.c ****       {
1125:Drivers/STM32L4xx_HAL_Driver/Src/stm32l4xx_hal_smbus.c ****         /* Convert OTHER_xxx XferOptions if any */
1126:Drivers/STM32L4xx_HAL_Driver/Src/stm32l4xx_hal_smbus.c ****         SMBUS_ConvertOtherXferOptions(hsmbus);
 1203              		.loc 1 1126 9
 1204 00fe F868     		ldr	r0, [r7, #12]
 1205 0100 FFF7FEFF 		bl	SMBUS_ConvertOtherXferOptions
1127:Drivers/STM32L4xx_HAL_Driver/Src/stm32l4xx_hal_smbus.c **** 
1128:Drivers/STM32L4xx_HAL_Driver/Src/stm32l4xx_hal_smbus.c ****         /* Handle Transfer */
1129:Drivers/STM32L4xx_HAL_Driver/Src/stm32l4xx_hal_smbus.c ****         SMBUS_TransferConfig(hsmbus, DevAddress, (uint8_t)hsmbus->XferSize,
 1206              		.loc 1 1129 65
 1207 0104 FB68     		ldr	r3, [r7, #12]
 1208 0106 1B8F     		ldrh	r3, [r3, #56]
 1209              		.loc 1 1129 9
 1210 0108 DAB2     		uxtb	r2, r3
ARM GAS  /tmp/ccysATpZ.s 			page 42


1130:Drivers/STM32L4xx_HAL_Driver/Src/stm32l4xx_hal_smbus.c ****                              hsmbus->XferOptions,
 1211              		.loc 1 1130 36
 1212 010a FB68     		ldr	r3, [r7, #12]
 1213 010c DB6B     		ldr	r3, [r3, #60]
1129:Drivers/STM32L4xx_HAL_Driver/Src/stm32l4xx_hal_smbus.c ****                              hsmbus->XferOptions,
 1214              		.loc 1 1129 9
 1215 010e 7989     		ldrh	r1, [r7, #10]
 1216 0110 0948     		ldr	r0, .L56
 1217 0112 0090     		str	r0, [sp]
 1218 0114 F868     		ldr	r0, [r7, #12]
 1219 0116 FFF7FEFF 		bl	SMBUS_TransferConfig
 1220              	.L51:
1131:Drivers/STM32L4xx_HAL_Driver/Src/stm32l4xx_hal_smbus.c ****                              SMBUS_GENERATE_START_READ);
1132:Drivers/STM32L4xx_HAL_Driver/Src/stm32l4xx_hal_smbus.c ****       }
1133:Drivers/STM32L4xx_HAL_Driver/Src/stm32l4xx_hal_smbus.c ****     }
1134:Drivers/STM32L4xx_HAL_Driver/Src/stm32l4xx_hal_smbus.c **** 
1135:Drivers/STM32L4xx_HAL_Driver/Src/stm32l4xx_hal_smbus.c ****     /* Process Unlocked */
1136:Drivers/STM32L4xx_HAL_Driver/Src/stm32l4xx_hal_smbus.c ****     __HAL_UNLOCK(hsmbus);
 1221              		.loc 1 1136 5
 1222 011a FB68     		ldr	r3, [r7, #12]
 1223 011c 0022     		movs	r2, #0
 1224 011e 83F84420 		strb	r2, [r3, #68]
1137:Drivers/STM32L4xx_HAL_Driver/Src/stm32l4xx_hal_smbus.c **** 
1138:Drivers/STM32L4xx_HAL_Driver/Src/stm32l4xx_hal_smbus.c ****     /* Note : The SMBUS interrupts must be enabled after unlocking current process
1139:Drivers/STM32L4xx_HAL_Driver/Src/stm32l4xx_hal_smbus.c ****               to avoid the risk of SMBUS interrupt handle execution before current
1140:Drivers/STM32L4xx_HAL_Driver/Src/stm32l4xx_hal_smbus.c ****               process unlock */
1141:Drivers/STM32L4xx_HAL_Driver/Src/stm32l4xx_hal_smbus.c ****     SMBUS_Enable_IRQ(hsmbus, SMBUS_IT_RX);
 1225              		.loc 1 1141 5
 1226 0122 D421     		movs	r1, #212
 1227 0124 F868     		ldr	r0, [r7, #12]
 1228 0126 FFF7FEFF 		bl	SMBUS_Enable_IRQ
1142:Drivers/STM32L4xx_HAL_Driver/Src/stm32l4xx_hal_smbus.c **** 
1143:Drivers/STM32L4xx_HAL_Driver/Src/stm32l4xx_hal_smbus.c ****     return HAL_OK;
 1229              		.loc 1 1143 12
 1230 012a 0023     		movs	r3, #0
 1231 012c 00E0     		b	.L46
 1232              	.L44:
1144:Drivers/STM32L4xx_HAL_Driver/Src/stm32l4xx_hal_smbus.c ****   }
1145:Drivers/STM32L4xx_HAL_Driver/Src/stm32l4xx_hal_smbus.c ****   else
1146:Drivers/STM32L4xx_HAL_Driver/Src/stm32l4xx_hal_smbus.c ****   {
1147:Drivers/STM32L4xx_HAL_Driver/Src/stm32l4xx_hal_smbus.c ****     return HAL_BUSY;
 1233              		.loc 1 1147 12
 1234 012e 0223     		movs	r3, #2
 1235              	.L46:
1148:Drivers/STM32L4xx_HAL_Driver/Src/stm32l4xx_hal_smbus.c ****   }
1149:Drivers/STM32L4xx_HAL_Driver/Src/stm32l4xx_hal_smbus.c **** }
 1236              		.loc 1 1149 1
 1237 0130 1846     		mov	r0, r3
 1238 0132 1837     		adds	r7, r7, #24
 1239              		.cfi_def_cfa_offset 8
 1240 0134 BD46     		mov	sp, r7
 1241              		.cfi_def_cfa_register 13
 1242              		@ sp needed
 1243 0136 80BD     		pop	{r7, pc}
 1244              	.L57:
 1245              		.align	2
 1246              	.L56:
ARM GAS  /tmp/ccysATpZ.s 			page 43


 1247 0138 00240080 		.word	-2147474432
 1248              		.cfi_endproc
 1249              	.LFE452:
 1251              		.section	.text.HAL_SMBUS_Master_Abort_IT,"ax",%progbits
 1252              		.align	1
 1253              		.global	HAL_SMBUS_Master_Abort_IT
 1254              		.syntax unified
 1255              		.thumb
 1256              		.thumb_func
 1258              	HAL_SMBUS_Master_Abort_IT:
 1259              	.LFB453:
1150:Drivers/STM32L4xx_HAL_Driver/Src/stm32l4xx_hal_smbus.c **** 
1151:Drivers/STM32L4xx_HAL_Driver/Src/stm32l4xx_hal_smbus.c **** /**
1152:Drivers/STM32L4xx_HAL_Driver/Src/stm32l4xx_hal_smbus.c ****   * @brief  Abort a master/host SMBUS process communication with Interrupt.
1153:Drivers/STM32L4xx_HAL_Driver/Src/stm32l4xx_hal_smbus.c ****   * @note   This abort can be called only if state is ready
1154:Drivers/STM32L4xx_HAL_Driver/Src/stm32l4xx_hal_smbus.c ****   * @param  hsmbus Pointer to a SMBUS_HandleTypeDef structure that contains
1155:Drivers/STM32L4xx_HAL_Driver/Src/stm32l4xx_hal_smbus.c ****   *                the configuration information for the specified SMBUS.
1156:Drivers/STM32L4xx_HAL_Driver/Src/stm32l4xx_hal_smbus.c ****   * @param  DevAddress Target device address: The device 7 bits address value
1157:Drivers/STM32L4xx_HAL_Driver/Src/stm32l4xx_hal_smbus.c ****   *         in datasheet must be shifted to the left before calling the interface
1158:Drivers/STM32L4xx_HAL_Driver/Src/stm32l4xx_hal_smbus.c ****   * @retval HAL status
1159:Drivers/STM32L4xx_HAL_Driver/Src/stm32l4xx_hal_smbus.c ****   */
1160:Drivers/STM32L4xx_HAL_Driver/Src/stm32l4xx_hal_smbus.c **** HAL_StatusTypeDef HAL_SMBUS_Master_Abort_IT(SMBUS_HandleTypeDef *hsmbus, uint16_t DevAddress)
1161:Drivers/STM32L4xx_HAL_Driver/Src/stm32l4xx_hal_smbus.c **** {
 1260              		.loc 1 1161 1
 1261              		.cfi_startproc
 1262              		@ args = 0, pretend = 0, frame = 8
 1263              		@ frame_needed = 1, uses_anonymous_args = 0
 1264 0000 80B5     		push	{r7, lr}
 1265              		.cfi_def_cfa_offset 8
 1266              		.cfi_offset 7, -8
 1267              		.cfi_offset 14, -4
 1268 0002 84B0     		sub	sp, sp, #16
 1269              		.cfi_def_cfa_offset 24
 1270 0004 02AF     		add	r7, sp, #8
 1271              		.cfi_def_cfa 7, 16
 1272 0006 7860     		str	r0, [r7, #4]
 1273 0008 0B46     		mov	r3, r1
 1274 000a 7B80     		strh	r3, [r7, #2]	@ movhi
1162:Drivers/STM32L4xx_HAL_Driver/Src/stm32l4xx_hal_smbus.c ****   if (hsmbus->State == HAL_SMBUS_STATE_READY)
 1275              		.loc 1 1162 13
 1276 000c 7B68     		ldr	r3, [r7, #4]
 1277 000e 9B6C     		ldr	r3, [r3, #72]
 1278              		.loc 1 1162 6
 1279 0010 012B     		cmp	r3, #1
 1280 0012 3FD1     		bne	.L59
1163:Drivers/STM32L4xx_HAL_Driver/Src/stm32l4xx_hal_smbus.c ****   {
1164:Drivers/STM32L4xx_HAL_Driver/Src/stm32l4xx_hal_smbus.c ****     /* Process Locked */
1165:Drivers/STM32L4xx_HAL_Driver/Src/stm32l4xx_hal_smbus.c ****     __HAL_LOCK(hsmbus);
 1281              		.loc 1 1165 5
 1282 0014 7B68     		ldr	r3, [r7, #4]
 1283 0016 93F84430 		ldrb	r3, [r3, #68]	@ zero_extendqisi2
 1284 001a 012B     		cmp	r3, #1
 1285 001c 01D1     		bne	.L60
 1286              		.loc 1 1165 5 is_stmt 0 discriminator 1
 1287 001e 0223     		movs	r3, #2
 1288              		.loc 1 1165 5
 1289 0020 39E0     		b	.L61
ARM GAS  /tmp/ccysATpZ.s 			page 44


 1290              	.L60:
 1291              		.loc 1 1165 5 discriminator 2
 1292 0022 7B68     		ldr	r3, [r7, #4]
 1293 0024 0122     		movs	r2, #1
 1294 0026 83F84420 		strb	r2, [r3, #68]
1166:Drivers/STM32L4xx_HAL_Driver/Src/stm32l4xx_hal_smbus.c **** 
1167:Drivers/STM32L4xx_HAL_Driver/Src/stm32l4xx_hal_smbus.c ****     /* Keep the same state as previous */
1168:Drivers/STM32L4xx_HAL_Driver/Src/stm32l4xx_hal_smbus.c ****     /* to perform as well the call of the corresponding end of transfer callback */
1169:Drivers/STM32L4xx_HAL_Driver/Src/stm32l4xx_hal_smbus.c ****     if (hsmbus->PreviousState == HAL_SMBUS_STATE_MASTER_BUSY_TX)
 1295              		.loc 1 1169 15 is_stmt 1
 1296 002a 7B68     		ldr	r3, [r7, #4]
 1297 002c 1B6C     		ldr	r3, [r3, #64]
 1298              		.loc 1 1169 8
 1299 002e 122B     		cmp	r3, #18
 1300 0030 03D1     		bne	.L62
1170:Drivers/STM32L4xx_HAL_Driver/Src/stm32l4xx_hal_smbus.c ****     {
1171:Drivers/STM32L4xx_HAL_Driver/Src/stm32l4xx_hal_smbus.c ****       hsmbus->State = HAL_SMBUS_STATE_MASTER_BUSY_TX;
 1301              		.loc 1 1171 21
 1302 0032 7B68     		ldr	r3, [r7, #4]
 1303 0034 1222     		movs	r2, #18
 1304 0036 9A64     		str	r2, [r3, #72]
 1305 0038 09E0     		b	.L63
 1306              	.L62:
1172:Drivers/STM32L4xx_HAL_Driver/Src/stm32l4xx_hal_smbus.c ****     }
1173:Drivers/STM32L4xx_HAL_Driver/Src/stm32l4xx_hal_smbus.c ****     else if (hsmbus->PreviousState == HAL_SMBUS_STATE_MASTER_BUSY_RX)
 1307              		.loc 1 1173 20
 1308 003a 7B68     		ldr	r3, [r7, #4]
 1309 003c 1B6C     		ldr	r3, [r3, #64]
 1310              		.loc 1 1173 13
 1311 003e 222B     		cmp	r3, #34
 1312 0040 03D1     		bne	.L64
1174:Drivers/STM32L4xx_HAL_Driver/Src/stm32l4xx_hal_smbus.c ****     {
1175:Drivers/STM32L4xx_HAL_Driver/Src/stm32l4xx_hal_smbus.c ****       hsmbus->State = HAL_SMBUS_STATE_MASTER_BUSY_RX;
 1313              		.loc 1 1175 21
 1314 0042 7B68     		ldr	r3, [r7, #4]
 1315 0044 2222     		movs	r2, #34
 1316 0046 9A64     		str	r2, [r3, #72]
 1317 0048 01E0     		b	.L63
 1318              	.L64:
1176:Drivers/STM32L4xx_HAL_Driver/Src/stm32l4xx_hal_smbus.c ****     }
1177:Drivers/STM32L4xx_HAL_Driver/Src/stm32l4xx_hal_smbus.c ****     else
1178:Drivers/STM32L4xx_HAL_Driver/Src/stm32l4xx_hal_smbus.c ****     {
1179:Drivers/STM32L4xx_HAL_Driver/Src/stm32l4xx_hal_smbus.c ****       /* Wrong usage of abort function */
1180:Drivers/STM32L4xx_HAL_Driver/Src/stm32l4xx_hal_smbus.c ****       /* This function should be used only in case of abort monitored by master device */
1181:Drivers/STM32L4xx_HAL_Driver/Src/stm32l4xx_hal_smbus.c ****       return HAL_ERROR;
 1319              		.loc 1 1181 14
 1320 004a 0123     		movs	r3, #1
 1321 004c 23E0     		b	.L61
 1322              	.L63:
1182:Drivers/STM32L4xx_HAL_Driver/Src/stm32l4xx_hal_smbus.c ****     }
1183:Drivers/STM32L4xx_HAL_Driver/Src/stm32l4xx_hal_smbus.c ****     hsmbus->ErrorCode = HAL_SMBUS_ERROR_NONE;
 1323              		.loc 1 1183 23
 1324 004e 7B68     		ldr	r3, [r7, #4]
 1325 0050 0022     		movs	r2, #0
 1326 0052 DA64     		str	r2, [r3, #76]
1184:Drivers/STM32L4xx_HAL_Driver/Src/stm32l4xx_hal_smbus.c **** 
1185:Drivers/STM32L4xx_HAL_Driver/Src/stm32l4xx_hal_smbus.c ****     /* Set NBYTES to 1 to generate a dummy read on SMBUS peripheral */
ARM GAS  /tmp/ccysATpZ.s 			page 45


1186:Drivers/STM32L4xx_HAL_Driver/Src/stm32l4xx_hal_smbus.c ****     /* Set AUTOEND mode, this will generate a NACK then STOP condition to abort the current transfe
1187:Drivers/STM32L4xx_HAL_Driver/Src/stm32l4xx_hal_smbus.c ****     SMBUS_TransferConfig(hsmbus, DevAddress, 1, SMBUS_AUTOEND_MODE, SMBUS_NO_STARTSTOP);
 1327              		.loc 1 1187 5
 1328 0054 7988     		ldrh	r1, [r7, #2]
 1329 0056 0023     		movs	r3, #0
 1330 0058 0093     		str	r3, [sp]
 1331 005a 4FF00073 		mov	r3, #33554432
 1332 005e 0122     		movs	r2, #1
 1333 0060 7868     		ldr	r0, [r7, #4]
 1334 0062 FFF7FEFF 		bl	SMBUS_TransferConfig
1188:Drivers/STM32L4xx_HAL_Driver/Src/stm32l4xx_hal_smbus.c **** 
1189:Drivers/STM32L4xx_HAL_Driver/Src/stm32l4xx_hal_smbus.c ****     /* Process Unlocked */
1190:Drivers/STM32L4xx_HAL_Driver/Src/stm32l4xx_hal_smbus.c ****     __HAL_UNLOCK(hsmbus);
 1335              		.loc 1 1190 5
 1336 0066 7B68     		ldr	r3, [r7, #4]
 1337 0068 0022     		movs	r2, #0
 1338 006a 83F84420 		strb	r2, [r3, #68]
1191:Drivers/STM32L4xx_HAL_Driver/Src/stm32l4xx_hal_smbus.c **** 
1192:Drivers/STM32L4xx_HAL_Driver/Src/stm32l4xx_hal_smbus.c ****     /* Note : The SMBUS interrupts must be enabled after unlocking current process
1193:Drivers/STM32L4xx_HAL_Driver/Src/stm32l4xx_hal_smbus.c ****               to avoid the risk of SMBUS interrupt handle execution before current
1194:Drivers/STM32L4xx_HAL_Driver/Src/stm32l4xx_hal_smbus.c ****               process unlock */
1195:Drivers/STM32L4xx_HAL_Driver/Src/stm32l4xx_hal_smbus.c ****     if (hsmbus->State == HAL_SMBUS_STATE_MASTER_BUSY_TX)
 1339              		.loc 1 1195 15
 1340 006e 7B68     		ldr	r3, [r7, #4]
 1341 0070 9B6C     		ldr	r3, [r3, #72]
 1342              		.loc 1 1195 8
 1343 0072 122B     		cmp	r3, #18
 1344 0074 04D1     		bne	.L65
1196:Drivers/STM32L4xx_HAL_Driver/Src/stm32l4xx_hal_smbus.c ****     {
1197:Drivers/STM32L4xx_HAL_Driver/Src/stm32l4xx_hal_smbus.c ****       SMBUS_Enable_IRQ(hsmbus, SMBUS_IT_TX);
 1345              		.loc 1 1197 7
 1346 0076 F221     		movs	r1, #242
 1347 0078 7868     		ldr	r0, [r7, #4]
 1348 007a FFF7FEFF 		bl	SMBUS_Enable_IRQ
 1349 007e 07E0     		b	.L66
 1350              	.L65:
1198:Drivers/STM32L4xx_HAL_Driver/Src/stm32l4xx_hal_smbus.c ****     }
1199:Drivers/STM32L4xx_HAL_Driver/Src/stm32l4xx_hal_smbus.c ****     else if (hsmbus->State == HAL_SMBUS_STATE_MASTER_BUSY_RX)
 1351              		.loc 1 1199 20
 1352 0080 7B68     		ldr	r3, [r7, #4]
 1353 0082 9B6C     		ldr	r3, [r3, #72]
 1354              		.loc 1 1199 13
 1355 0084 222B     		cmp	r3, #34
 1356 0086 03D1     		bne	.L66
1200:Drivers/STM32L4xx_HAL_Driver/Src/stm32l4xx_hal_smbus.c ****     {
1201:Drivers/STM32L4xx_HAL_Driver/Src/stm32l4xx_hal_smbus.c ****       SMBUS_Enable_IRQ(hsmbus, SMBUS_IT_RX);
 1357              		.loc 1 1201 7
 1358 0088 D421     		movs	r1, #212
 1359 008a 7868     		ldr	r0, [r7, #4]
 1360 008c FFF7FEFF 		bl	SMBUS_Enable_IRQ
 1361              	.L66:
1202:Drivers/STM32L4xx_HAL_Driver/Src/stm32l4xx_hal_smbus.c ****     }
1203:Drivers/STM32L4xx_HAL_Driver/Src/stm32l4xx_hal_smbus.c ****     else
1204:Drivers/STM32L4xx_HAL_Driver/Src/stm32l4xx_hal_smbus.c ****     {
1205:Drivers/STM32L4xx_HAL_Driver/Src/stm32l4xx_hal_smbus.c ****       /* Nothing to do */
1206:Drivers/STM32L4xx_HAL_Driver/Src/stm32l4xx_hal_smbus.c ****     }
1207:Drivers/STM32L4xx_HAL_Driver/Src/stm32l4xx_hal_smbus.c **** 
ARM GAS  /tmp/ccysATpZ.s 			page 46


1208:Drivers/STM32L4xx_HAL_Driver/Src/stm32l4xx_hal_smbus.c ****     return HAL_OK;
 1362              		.loc 1 1208 12
 1363 0090 0023     		movs	r3, #0
 1364 0092 00E0     		b	.L61
 1365              	.L59:
1209:Drivers/STM32L4xx_HAL_Driver/Src/stm32l4xx_hal_smbus.c ****   }
1210:Drivers/STM32L4xx_HAL_Driver/Src/stm32l4xx_hal_smbus.c ****   else
1211:Drivers/STM32L4xx_HAL_Driver/Src/stm32l4xx_hal_smbus.c ****   {
1212:Drivers/STM32L4xx_HAL_Driver/Src/stm32l4xx_hal_smbus.c ****     return HAL_BUSY;
 1366              		.loc 1 1212 12
 1367 0094 0223     		movs	r3, #2
 1368              	.L61:
1213:Drivers/STM32L4xx_HAL_Driver/Src/stm32l4xx_hal_smbus.c ****   }
1214:Drivers/STM32L4xx_HAL_Driver/Src/stm32l4xx_hal_smbus.c **** }
 1369              		.loc 1 1214 1
 1370 0096 1846     		mov	r0, r3
 1371 0098 0837     		adds	r7, r7, #8
 1372              		.cfi_def_cfa_offset 8
 1373 009a BD46     		mov	sp, r7
 1374              		.cfi_def_cfa_register 13
 1375              		@ sp needed
 1376 009c 80BD     		pop	{r7, pc}
 1377              		.cfi_endproc
 1378              	.LFE453:
 1380              		.section	.text.HAL_SMBUS_Slave_Transmit_IT,"ax",%progbits
 1381              		.align	1
 1382              		.global	HAL_SMBUS_Slave_Transmit_IT
 1383              		.syntax unified
 1384              		.thumb
 1385              		.thumb_func
 1387              	HAL_SMBUS_Slave_Transmit_IT:
 1388              	.LFB454:
1215:Drivers/STM32L4xx_HAL_Driver/Src/stm32l4xx_hal_smbus.c **** 
1216:Drivers/STM32L4xx_HAL_Driver/Src/stm32l4xx_hal_smbus.c **** /**
1217:Drivers/STM32L4xx_HAL_Driver/Src/stm32l4xx_hal_smbus.c ****   * @brief  Transmit in slave/device SMBUS mode an amount of data in non-blocking mode with Interru
1218:Drivers/STM32L4xx_HAL_Driver/Src/stm32l4xx_hal_smbus.c ****   * @param  hsmbus Pointer to a SMBUS_HandleTypeDef structure that contains
1219:Drivers/STM32L4xx_HAL_Driver/Src/stm32l4xx_hal_smbus.c ****   *                the configuration information for the specified SMBUS.
1220:Drivers/STM32L4xx_HAL_Driver/Src/stm32l4xx_hal_smbus.c ****   * @param  pData Pointer to data buffer
1221:Drivers/STM32L4xx_HAL_Driver/Src/stm32l4xx_hal_smbus.c ****   * @param  Size Amount of data to be sent
1222:Drivers/STM32L4xx_HAL_Driver/Src/stm32l4xx_hal_smbus.c ****   * @param  XferOptions Options of Transfer, value of @ref SMBUS_XferOptions_definition
1223:Drivers/STM32L4xx_HAL_Driver/Src/stm32l4xx_hal_smbus.c ****   * @retval HAL status
1224:Drivers/STM32L4xx_HAL_Driver/Src/stm32l4xx_hal_smbus.c ****   */
1225:Drivers/STM32L4xx_HAL_Driver/Src/stm32l4xx_hal_smbus.c **** HAL_StatusTypeDef HAL_SMBUS_Slave_Transmit_IT(SMBUS_HandleTypeDef *hsmbus, uint8_t *pData, uint16_t
1226:Drivers/STM32L4xx_HAL_Driver/Src/stm32l4xx_hal_smbus.c ****                                               uint32_t XferOptions)
1227:Drivers/STM32L4xx_HAL_Driver/Src/stm32l4xx_hal_smbus.c **** {
 1389              		.loc 1 1227 1
 1390              		.cfi_startproc
 1391              		@ args = 0, pretend = 0, frame = 16
 1392              		@ frame_needed = 1, uses_anonymous_args = 0
 1393 0000 80B5     		push	{r7, lr}
 1394              		.cfi_def_cfa_offset 8
 1395              		.cfi_offset 7, -8
 1396              		.cfi_offset 14, -4
 1397 0002 86B0     		sub	sp, sp, #24
 1398              		.cfi_def_cfa_offset 32
 1399 0004 02AF     		add	r7, sp, #8
 1400              		.cfi_def_cfa 7, 24
ARM GAS  /tmp/ccysATpZ.s 			page 47


 1401 0006 F860     		str	r0, [r7, #12]
 1402 0008 B960     		str	r1, [r7, #8]
 1403 000a 3B60     		str	r3, [r7]
 1404 000c 1346     		mov	r3, r2	@ movhi
 1405 000e FB80     		strh	r3, [r7, #6]	@ movhi
1228:Drivers/STM32L4xx_HAL_Driver/Src/stm32l4xx_hal_smbus.c ****   /* Check the parameters */
1229:Drivers/STM32L4xx_HAL_Driver/Src/stm32l4xx_hal_smbus.c ****   assert_param(IS_SMBUS_TRANSFER_OPTIONS_REQUEST(XferOptions));
1230:Drivers/STM32L4xx_HAL_Driver/Src/stm32l4xx_hal_smbus.c **** 
1231:Drivers/STM32L4xx_HAL_Driver/Src/stm32l4xx_hal_smbus.c ****   if ((hsmbus->State & HAL_SMBUS_STATE_LISTEN) == HAL_SMBUS_STATE_LISTEN)
 1406              		.loc 1 1231 14
 1407 0010 FB68     		ldr	r3, [r7, #12]
 1408 0012 9B6C     		ldr	r3, [r3, #72]
 1409              		.loc 1 1231 22
 1410 0014 03F00803 		and	r3, r3, #8
 1411              		.loc 1 1231 6
 1412 0018 082B     		cmp	r3, #8
 1413 001a 40F08F80 		bne	.L68
1232:Drivers/STM32L4xx_HAL_Driver/Src/stm32l4xx_hal_smbus.c ****   {
1233:Drivers/STM32L4xx_HAL_Driver/Src/stm32l4xx_hal_smbus.c ****     if ((pData == NULL) || (Size == 0UL))
 1414              		.loc 1 1233 8
 1415 001e BB68     		ldr	r3, [r7, #8]
 1416 0020 002B     		cmp	r3, #0
 1417 0022 02D0     		beq	.L69
 1418              		.loc 1 1233 25 discriminator 1
 1419 0024 FB88     		ldrh	r3, [r7, #6]
 1420 0026 002B     		cmp	r3, #0
 1421 0028 05D1     		bne	.L70
 1422              	.L69:
1234:Drivers/STM32L4xx_HAL_Driver/Src/stm32l4xx_hal_smbus.c ****     {
1235:Drivers/STM32L4xx_HAL_Driver/Src/stm32l4xx_hal_smbus.c ****       hsmbus->ErrorCode = HAL_SMBUS_ERROR_INVALID_PARAM;
 1423              		.loc 1 1235 25
 1424 002a FB68     		ldr	r3, [r7, #12]
 1425 002c 4FF40072 		mov	r2, #512
 1426 0030 DA64     		str	r2, [r3, #76]
1236:Drivers/STM32L4xx_HAL_Driver/Src/stm32l4xx_hal_smbus.c ****       return HAL_ERROR;
 1427              		.loc 1 1236 14
 1428 0032 0123     		movs	r3, #1
 1429 0034 83E0     		b	.L71
 1430              	.L70:
1237:Drivers/STM32L4xx_HAL_Driver/Src/stm32l4xx_hal_smbus.c ****     }
1238:Drivers/STM32L4xx_HAL_Driver/Src/stm32l4xx_hal_smbus.c **** 
1239:Drivers/STM32L4xx_HAL_Driver/Src/stm32l4xx_hal_smbus.c ****     /* Disable Interrupts, to prevent preemption during treatment in case of multicall */
1240:Drivers/STM32L4xx_HAL_Driver/Src/stm32l4xx_hal_smbus.c ****     SMBUS_Disable_IRQ(hsmbus, SMBUS_IT_ADDR | SMBUS_IT_TX);
 1431              		.loc 1 1240 5
 1432 0036 FA21     		movs	r1, #250
 1433 0038 F868     		ldr	r0, [r7, #12]
 1434 003a FFF7FEFF 		bl	SMBUS_Disable_IRQ
1241:Drivers/STM32L4xx_HAL_Driver/Src/stm32l4xx_hal_smbus.c **** 
1242:Drivers/STM32L4xx_HAL_Driver/Src/stm32l4xx_hal_smbus.c ****     /* Process Locked */
1243:Drivers/STM32L4xx_HAL_Driver/Src/stm32l4xx_hal_smbus.c ****     __HAL_LOCK(hsmbus);
 1435              		.loc 1 1243 5
 1436 003e FB68     		ldr	r3, [r7, #12]
 1437 0040 93F84430 		ldrb	r3, [r3, #68]	@ zero_extendqisi2
 1438 0044 012B     		cmp	r3, #1
 1439 0046 01D1     		bne	.L72
 1440              		.loc 1 1243 5 is_stmt 0 discriminator 1
 1441 0048 0223     		movs	r3, #2
ARM GAS  /tmp/ccysATpZ.s 			page 48


 1442              		.loc 1 1243 5
 1443 004a 78E0     		b	.L71
 1444              	.L72:
 1445              		.loc 1 1243 5 discriminator 2
 1446 004c FB68     		ldr	r3, [r7, #12]
 1447 004e 0122     		movs	r2, #1
 1448 0050 83F84420 		strb	r2, [r3, #68]
1244:Drivers/STM32L4xx_HAL_Driver/Src/stm32l4xx_hal_smbus.c **** 
1245:Drivers/STM32L4xx_HAL_Driver/Src/stm32l4xx_hal_smbus.c ****     hsmbus->State = (HAL_SMBUS_STATE_SLAVE_BUSY_TX | HAL_SMBUS_STATE_LISTEN);
 1449              		.loc 1 1245 19 is_stmt 1
 1450 0054 FB68     		ldr	r3, [r7, #12]
 1451 0056 3A22     		movs	r2, #58
 1452 0058 9A64     		str	r2, [r3, #72]
1246:Drivers/STM32L4xx_HAL_Driver/Src/stm32l4xx_hal_smbus.c ****     hsmbus->ErrorCode = HAL_SMBUS_ERROR_NONE;
 1453              		.loc 1 1246 23
 1454 005a FB68     		ldr	r3, [r7, #12]
 1455 005c 0022     		movs	r2, #0
 1456 005e DA64     		str	r2, [r3, #76]
1247:Drivers/STM32L4xx_HAL_Driver/Src/stm32l4xx_hal_smbus.c **** 
1248:Drivers/STM32L4xx_HAL_Driver/Src/stm32l4xx_hal_smbus.c ****     /* Set SBC bit to manage Acknowledge at each bit */
1249:Drivers/STM32L4xx_HAL_Driver/Src/stm32l4xx_hal_smbus.c ****     hsmbus->Instance->CR1 |= I2C_CR1_SBC;
 1457              		.loc 1 1249 11
 1458 0060 FB68     		ldr	r3, [r7, #12]
 1459 0062 1B68     		ldr	r3, [r3]
 1460              		.loc 1 1249 21
 1461 0064 1A68     		ldr	r2, [r3]
 1462              		.loc 1 1249 11
 1463 0066 FB68     		ldr	r3, [r7, #12]
 1464 0068 1B68     		ldr	r3, [r3]
 1465              		.loc 1 1249 27
 1466 006a 42F48032 		orr	r2, r2, #65536
 1467 006e 1A60     		str	r2, [r3]
1250:Drivers/STM32L4xx_HAL_Driver/Src/stm32l4xx_hal_smbus.c **** 
1251:Drivers/STM32L4xx_HAL_Driver/Src/stm32l4xx_hal_smbus.c ****     /* Enable Address Acknowledge */
1252:Drivers/STM32L4xx_HAL_Driver/Src/stm32l4xx_hal_smbus.c ****     hsmbus->Instance->CR2 &= ~I2C_CR2_NACK;
 1468              		.loc 1 1252 11
 1469 0070 FB68     		ldr	r3, [r7, #12]
 1470 0072 1B68     		ldr	r3, [r3]
 1471              		.loc 1 1252 21
 1472 0074 5A68     		ldr	r2, [r3, #4]
 1473              		.loc 1 1252 11
 1474 0076 FB68     		ldr	r3, [r7, #12]
 1475 0078 1B68     		ldr	r3, [r3]
 1476              		.loc 1 1252 27
 1477 007a 22F40042 		bic	r2, r2, #32768
 1478 007e 5A60     		str	r2, [r3, #4]
1253:Drivers/STM32L4xx_HAL_Driver/Src/stm32l4xx_hal_smbus.c **** 
1254:Drivers/STM32L4xx_HAL_Driver/Src/stm32l4xx_hal_smbus.c ****     /* Prepare transfer parameters */
1255:Drivers/STM32L4xx_HAL_Driver/Src/stm32l4xx_hal_smbus.c ****     hsmbus->pBuffPtr = pData;
 1479              		.loc 1 1255 22
 1480 0080 FB68     		ldr	r3, [r7, #12]
 1481 0082 BA68     		ldr	r2, [r7, #8]
 1482 0084 5A63     		str	r2, [r3, #52]
1256:Drivers/STM32L4xx_HAL_Driver/Src/stm32l4xx_hal_smbus.c ****     hsmbus->XferCount = Size;
 1483              		.loc 1 1256 23
 1484 0086 FB68     		ldr	r3, [r7, #12]
 1485 0088 FA88     		ldrh	r2, [r7, #6]	@ movhi
ARM GAS  /tmp/ccysATpZ.s 			page 49


 1486 008a 5A87     		strh	r2, [r3, #58]	@ movhi
1257:Drivers/STM32L4xx_HAL_Driver/Src/stm32l4xx_hal_smbus.c ****     hsmbus->XferOptions = XferOptions;
 1487              		.loc 1 1257 25
 1488 008c FB68     		ldr	r3, [r7, #12]
 1489 008e 3A68     		ldr	r2, [r7]
 1490 0090 DA63     		str	r2, [r3, #60]
1258:Drivers/STM32L4xx_HAL_Driver/Src/stm32l4xx_hal_smbus.c **** 
1259:Drivers/STM32L4xx_HAL_Driver/Src/stm32l4xx_hal_smbus.c ****     /* Convert OTHER_xxx XferOptions if any */
1260:Drivers/STM32L4xx_HAL_Driver/Src/stm32l4xx_hal_smbus.c ****     SMBUS_ConvertOtherXferOptions(hsmbus);
 1491              		.loc 1 1260 5
 1492 0092 F868     		ldr	r0, [r7, #12]
 1493 0094 FFF7FEFF 		bl	SMBUS_ConvertOtherXferOptions
1261:Drivers/STM32L4xx_HAL_Driver/Src/stm32l4xx_hal_smbus.c **** 
1262:Drivers/STM32L4xx_HAL_Driver/Src/stm32l4xx_hal_smbus.c ****     if (Size > MAX_NBYTE_SIZE)
 1494              		.loc 1 1262 8
 1495 0098 FB88     		ldrh	r3, [r7, #6]
 1496 009a FF2B     		cmp	r3, #255
 1497 009c 03D9     		bls	.L73
1263:Drivers/STM32L4xx_HAL_Driver/Src/stm32l4xx_hal_smbus.c ****     {
1264:Drivers/STM32L4xx_HAL_Driver/Src/stm32l4xx_hal_smbus.c ****       hsmbus->XferSize = MAX_NBYTE_SIZE;
 1498              		.loc 1 1264 24
 1499 009e FB68     		ldr	r3, [r7, #12]
 1500 00a0 FF22     		movs	r2, #255
 1501 00a2 1A87     		strh	r2, [r3, #56]	@ movhi
 1502 00a4 02E0     		b	.L74
 1503              	.L73:
1265:Drivers/STM32L4xx_HAL_Driver/Src/stm32l4xx_hal_smbus.c ****     }
1266:Drivers/STM32L4xx_HAL_Driver/Src/stm32l4xx_hal_smbus.c ****     else
1267:Drivers/STM32L4xx_HAL_Driver/Src/stm32l4xx_hal_smbus.c ****     {
1268:Drivers/STM32L4xx_HAL_Driver/Src/stm32l4xx_hal_smbus.c ****       hsmbus->XferSize = Size;
 1504              		.loc 1 1268 24
 1505 00a6 FB68     		ldr	r3, [r7, #12]
 1506 00a8 FA88     		ldrh	r2, [r7, #6]	@ movhi
 1507 00aa 1A87     		strh	r2, [r3, #56]	@ movhi
 1508              	.L74:
1269:Drivers/STM32L4xx_HAL_Driver/Src/stm32l4xx_hal_smbus.c ****     }
1270:Drivers/STM32L4xx_HAL_Driver/Src/stm32l4xx_hal_smbus.c **** 
1271:Drivers/STM32L4xx_HAL_Driver/Src/stm32l4xx_hal_smbus.c ****     /* Set NBYTES to write and reload if size > MAX_NBYTE_SIZE and generate RESTART */
1272:Drivers/STM32L4xx_HAL_Driver/Src/stm32l4xx_hal_smbus.c ****     if ((hsmbus->XferSize < hsmbus->XferCount) && (hsmbus->XferSize == MAX_NBYTE_SIZE))
 1509              		.loc 1 1272 16
 1510 00ac FB68     		ldr	r3, [r7, #12]
 1511 00ae 1A8F     		ldrh	r2, [r3, #56]
 1512              		.loc 1 1272 35
 1513 00b0 FB68     		ldr	r3, [r7, #12]
 1514 00b2 5B8F     		ldrh	r3, [r3, #58]	@ movhi
 1515 00b4 9BB2     		uxth	r3, r3
 1516              		.loc 1 1272 8
 1517 00b6 9A42     		cmp	r2, r3
 1518 00b8 13D2     		bcs	.L75
 1519              		.loc 1 1272 58 discriminator 1
 1520 00ba FB68     		ldr	r3, [r7, #12]
 1521 00bc 1B8F     		ldrh	r3, [r3, #56]
 1522              		.loc 1 1272 48 discriminator 1
 1523 00be FF2B     		cmp	r3, #255
 1524 00c0 0FD1     		bne	.L75
1273:Drivers/STM32L4xx_HAL_Driver/Src/stm32l4xx_hal_smbus.c ****     {
1274:Drivers/STM32L4xx_HAL_Driver/Src/stm32l4xx_hal_smbus.c ****       SMBUS_TransferConfig(hsmbus, 0, (uint8_t)hsmbus->XferSize,
ARM GAS  /tmp/ccysATpZ.s 			page 50


 1525              		.loc 1 1274 54
 1526 00c2 FB68     		ldr	r3, [r7, #12]
 1527 00c4 1B8F     		ldrh	r3, [r3, #56]
 1528              		.loc 1 1274 7
 1529 00c6 DAB2     		uxtb	r2, r3
1275:Drivers/STM32L4xx_HAL_Driver/Src/stm32l4xx_hal_smbus.c ****                            SMBUS_RELOAD_MODE | (hsmbus->XferOptions & SMBUS_SENDPEC_MODE),
 1530              		.loc 1 1275 55
 1531 00c8 FB68     		ldr	r3, [r7, #12]
 1532 00ca DB6B     		ldr	r3, [r3, #60]
 1533              		.loc 1 1275 69
 1534 00cc 03F08063 		and	r3, r3, #67108864
1274:Drivers/STM32L4xx_HAL_Driver/Src/stm32l4xx_hal_smbus.c ****                            SMBUS_RELOAD_MODE | (hsmbus->XferOptions & SMBUS_SENDPEC_MODE),
 1535              		.loc 1 1274 7
 1536 00d0 43F08073 		orr	r3, r3, #16777216
 1537 00d4 0021     		movs	r1, #0
 1538 00d6 0091     		str	r1, [sp]
 1539 00d8 0021     		movs	r1, #0
 1540 00da F868     		ldr	r0, [r7, #12]
 1541 00dc FFF7FEFF 		bl	SMBUS_TransferConfig
 1542 00e0 1EE0     		b	.L76
 1543              	.L75:
1276:Drivers/STM32L4xx_HAL_Driver/Src/stm32l4xx_hal_smbus.c ****                            SMBUS_NO_STARTSTOP);
1277:Drivers/STM32L4xx_HAL_Driver/Src/stm32l4xx_hal_smbus.c ****     }
1278:Drivers/STM32L4xx_HAL_Driver/Src/stm32l4xx_hal_smbus.c ****     else
1279:Drivers/STM32L4xx_HAL_Driver/Src/stm32l4xx_hal_smbus.c ****     {
1280:Drivers/STM32L4xx_HAL_Driver/Src/stm32l4xx_hal_smbus.c ****       /* Set NBYTE to transmit */
1281:Drivers/STM32L4xx_HAL_Driver/Src/stm32l4xx_hal_smbus.c ****       SMBUS_TransferConfig(hsmbus, 0, (uint8_t)hsmbus->XferSize, hsmbus->XferOptions,
 1544              		.loc 1 1281 54
 1545 00e2 FB68     		ldr	r3, [r7, #12]
 1546 00e4 1B8F     		ldrh	r3, [r3, #56]
 1547              		.loc 1 1281 7
 1548 00e6 DAB2     		uxtb	r2, r3
 1549              		.loc 1 1281 72
 1550 00e8 FB68     		ldr	r3, [r7, #12]
 1551 00ea DB6B     		ldr	r3, [r3, #60]
 1552              		.loc 1 1281 7
 1553 00ec 0021     		movs	r1, #0
 1554 00ee 0091     		str	r1, [sp]
 1555 00f0 0021     		movs	r1, #0
 1556 00f2 F868     		ldr	r0, [r7, #12]
 1557 00f4 FFF7FEFF 		bl	SMBUS_TransferConfig
1282:Drivers/STM32L4xx_HAL_Driver/Src/stm32l4xx_hal_smbus.c ****                            SMBUS_NO_STARTSTOP);
1283:Drivers/STM32L4xx_HAL_Driver/Src/stm32l4xx_hal_smbus.c **** 
1284:Drivers/STM32L4xx_HAL_Driver/Src/stm32l4xx_hal_smbus.c ****       /* If PEC mode is enable, size to transmit should be Size-1 byte, corresponding to PEC byte *
1285:Drivers/STM32L4xx_HAL_Driver/Src/stm32l4xx_hal_smbus.c ****       /* PEC byte is automatically sent by HW block, no need to manage it in Transmit process */
1286:Drivers/STM32L4xx_HAL_Driver/Src/stm32l4xx_hal_smbus.c ****       if (SMBUS_GET_PEC_MODE(hsmbus) != 0UL)
 1558              		.loc 1 1286 11
 1559 00f8 FB68     		ldr	r3, [r7, #12]
 1560 00fa 1B68     		ldr	r3, [r3]
 1561 00fc 5B68     		ldr	r3, [r3, #4]
 1562 00fe 03F08063 		and	r3, r3, #67108864
 1563              		.loc 1 1286 10
 1564 0102 002B     		cmp	r3, #0
 1565 0104 0CD0     		beq	.L76
1287:Drivers/STM32L4xx_HAL_Driver/Src/stm32l4xx_hal_smbus.c ****       {
1288:Drivers/STM32L4xx_HAL_Driver/Src/stm32l4xx_hal_smbus.c ****         hsmbus->XferSize--;
 1566              		.loc 1 1288 15
ARM GAS  /tmp/ccysATpZ.s 			page 51


 1567 0106 FB68     		ldr	r3, [r7, #12]
 1568 0108 1B8F     		ldrh	r3, [r3, #56]
 1569              		.loc 1 1288 25
 1570 010a 013B     		subs	r3, r3, #1
 1571 010c 9AB2     		uxth	r2, r3
 1572 010e FB68     		ldr	r3, [r7, #12]
 1573 0110 1A87     		strh	r2, [r3, #56]	@ movhi
1289:Drivers/STM32L4xx_HAL_Driver/Src/stm32l4xx_hal_smbus.c ****         hsmbus->XferCount--;
 1574              		.loc 1 1289 15
 1575 0112 FB68     		ldr	r3, [r7, #12]
 1576 0114 5B8F     		ldrh	r3, [r3, #58]	@ movhi
 1577 0116 9BB2     		uxth	r3, r3
 1578              		.loc 1 1289 26
 1579 0118 013B     		subs	r3, r3, #1
 1580 011a 9AB2     		uxth	r2, r3
 1581 011c FB68     		ldr	r3, [r7, #12]
 1582 011e 5A87     		strh	r2, [r3, #58]	@ movhi
 1583              	.L76:
1290:Drivers/STM32L4xx_HAL_Driver/Src/stm32l4xx_hal_smbus.c ****       }
1291:Drivers/STM32L4xx_HAL_Driver/Src/stm32l4xx_hal_smbus.c ****     }
1292:Drivers/STM32L4xx_HAL_Driver/Src/stm32l4xx_hal_smbus.c **** 
1293:Drivers/STM32L4xx_HAL_Driver/Src/stm32l4xx_hal_smbus.c ****     /* Clear ADDR flag after prepare the transfer parameters */
1294:Drivers/STM32L4xx_HAL_Driver/Src/stm32l4xx_hal_smbus.c ****     /* This action will generate an acknowledge to the HOST */
1295:Drivers/STM32L4xx_HAL_Driver/Src/stm32l4xx_hal_smbus.c ****     __HAL_SMBUS_CLEAR_FLAG(hsmbus, SMBUS_FLAG_ADDR);
 1584              		.loc 1 1295 5
 1585 0120 FB68     		ldr	r3, [r7, #12]
 1586 0122 1B68     		ldr	r3, [r3]
 1587 0124 0822     		movs	r2, #8
 1588 0126 DA61     		str	r2, [r3, #28]
1296:Drivers/STM32L4xx_HAL_Driver/Src/stm32l4xx_hal_smbus.c **** 
1297:Drivers/STM32L4xx_HAL_Driver/Src/stm32l4xx_hal_smbus.c ****     /* Process Unlocked */
1298:Drivers/STM32L4xx_HAL_Driver/Src/stm32l4xx_hal_smbus.c ****     __HAL_UNLOCK(hsmbus);
 1589              		.loc 1 1298 5
 1590 0128 FB68     		ldr	r3, [r7, #12]
 1591 012a 0022     		movs	r2, #0
 1592 012c 83F84420 		strb	r2, [r3, #68]
1299:Drivers/STM32L4xx_HAL_Driver/Src/stm32l4xx_hal_smbus.c **** 
1300:Drivers/STM32L4xx_HAL_Driver/Src/stm32l4xx_hal_smbus.c ****     /* Note : The SMBUS interrupts must be enabled after unlocking current process
1301:Drivers/STM32L4xx_HAL_Driver/Src/stm32l4xx_hal_smbus.c ****               to avoid the risk of SMBUS interrupt handle execution before current
1302:Drivers/STM32L4xx_HAL_Driver/Src/stm32l4xx_hal_smbus.c ****               process unlock */
1303:Drivers/STM32L4xx_HAL_Driver/Src/stm32l4xx_hal_smbus.c ****     /* REnable ADDR interrupt */
1304:Drivers/STM32L4xx_HAL_Driver/Src/stm32l4xx_hal_smbus.c ****     SMBUS_Enable_IRQ(hsmbus, SMBUS_IT_TX | SMBUS_IT_ADDR);
 1593              		.loc 1 1304 5
 1594 0130 FA21     		movs	r1, #250
 1595 0132 F868     		ldr	r0, [r7, #12]
 1596 0134 FFF7FEFF 		bl	SMBUS_Enable_IRQ
1305:Drivers/STM32L4xx_HAL_Driver/Src/stm32l4xx_hal_smbus.c **** 
1306:Drivers/STM32L4xx_HAL_Driver/Src/stm32l4xx_hal_smbus.c ****     return HAL_OK;
 1597              		.loc 1 1306 12
 1598 0138 0023     		movs	r3, #0
 1599 013a 00E0     		b	.L71
 1600              	.L68:
1307:Drivers/STM32L4xx_HAL_Driver/Src/stm32l4xx_hal_smbus.c ****   }
1308:Drivers/STM32L4xx_HAL_Driver/Src/stm32l4xx_hal_smbus.c ****   else
1309:Drivers/STM32L4xx_HAL_Driver/Src/stm32l4xx_hal_smbus.c ****   {
1310:Drivers/STM32L4xx_HAL_Driver/Src/stm32l4xx_hal_smbus.c ****     return HAL_BUSY;
 1601              		.loc 1 1310 12
ARM GAS  /tmp/ccysATpZ.s 			page 52


 1602 013c 0223     		movs	r3, #2
 1603              	.L71:
1311:Drivers/STM32L4xx_HAL_Driver/Src/stm32l4xx_hal_smbus.c ****   }
1312:Drivers/STM32L4xx_HAL_Driver/Src/stm32l4xx_hal_smbus.c **** }
 1604              		.loc 1 1312 1
 1605 013e 1846     		mov	r0, r3
 1606 0140 1037     		adds	r7, r7, #16
 1607              		.cfi_def_cfa_offset 8
 1608 0142 BD46     		mov	sp, r7
 1609              		.cfi_def_cfa_register 13
 1610              		@ sp needed
 1611 0144 80BD     		pop	{r7, pc}
 1612              		.cfi_endproc
 1613              	.LFE454:
 1615              		.section	.text.HAL_SMBUS_Slave_Receive_IT,"ax",%progbits
 1616              		.align	1
 1617              		.global	HAL_SMBUS_Slave_Receive_IT
 1618              		.syntax unified
 1619              		.thumb
 1620              		.thumb_func
 1622              	HAL_SMBUS_Slave_Receive_IT:
 1623              	.LFB455:
1313:Drivers/STM32L4xx_HAL_Driver/Src/stm32l4xx_hal_smbus.c **** 
1314:Drivers/STM32L4xx_HAL_Driver/Src/stm32l4xx_hal_smbus.c **** /**
1315:Drivers/STM32L4xx_HAL_Driver/Src/stm32l4xx_hal_smbus.c ****   * @brief  Receive in slave/device SMBUS mode an amount of data in non-blocking mode with Interrup
1316:Drivers/STM32L4xx_HAL_Driver/Src/stm32l4xx_hal_smbus.c ****   * @param  hsmbus Pointer to a SMBUS_HandleTypeDef structure that contains
1317:Drivers/STM32L4xx_HAL_Driver/Src/stm32l4xx_hal_smbus.c ****   *                the configuration information for the specified SMBUS.
1318:Drivers/STM32L4xx_HAL_Driver/Src/stm32l4xx_hal_smbus.c ****   * @param  pData Pointer to data buffer
1319:Drivers/STM32L4xx_HAL_Driver/Src/stm32l4xx_hal_smbus.c ****   * @param  Size Amount of data to be sent
1320:Drivers/STM32L4xx_HAL_Driver/Src/stm32l4xx_hal_smbus.c ****   * @param  XferOptions Options of Transfer, value of @ref SMBUS_XferOptions_definition
1321:Drivers/STM32L4xx_HAL_Driver/Src/stm32l4xx_hal_smbus.c ****   * @retval HAL status
1322:Drivers/STM32L4xx_HAL_Driver/Src/stm32l4xx_hal_smbus.c ****   */
1323:Drivers/STM32L4xx_HAL_Driver/Src/stm32l4xx_hal_smbus.c **** HAL_StatusTypeDef HAL_SMBUS_Slave_Receive_IT(SMBUS_HandleTypeDef *hsmbus, uint8_t *pData, uint16_t 
1324:Drivers/STM32L4xx_HAL_Driver/Src/stm32l4xx_hal_smbus.c ****                                              uint32_t XferOptions)
1325:Drivers/STM32L4xx_HAL_Driver/Src/stm32l4xx_hal_smbus.c **** {
 1624              		.loc 1 1325 1
 1625              		.cfi_startproc
 1626              		@ args = 0, pretend = 0, frame = 16
 1627              		@ frame_needed = 1, uses_anonymous_args = 0
 1628 0000 80B5     		push	{r7, lr}
 1629              		.cfi_def_cfa_offset 8
 1630              		.cfi_offset 7, -8
 1631              		.cfi_offset 14, -4
 1632 0002 86B0     		sub	sp, sp, #24
 1633              		.cfi_def_cfa_offset 32
 1634 0004 02AF     		add	r7, sp, #8
 1635              		.cfi_def_cfa 7, 24
 1636 0006 F860     		str	r0, [r7, #12]
 1637 0008 B960     		str	r1, [r7, #8]
 1638 000a 3B60     		str	r3, [r7]
 1639 000c 1346     		mov	r3, r2	@ movhi
 1640 000e FB80     		strh	r3, [r7, #6]	@ movhi
1326:Drivers/STM32L4xx_HAL_Driver/Src/stm32l4xx_hal_smbus.c ****   /* Check the parameters */
1327:Drivers/STM32L4xx_HAL_Driver/Src/stm32l4xx_hal_smbus.c ****   assert_param(IS_SMBUS_TRANSFER_OPTIONS_REQUEST(XferOptions));
1328:Drivers/STM32L4xx_HAL_Driver/Src/stm32l4xx_hal_smbus.c **** 
1329:Drivers/STM32L4xx_HAL_Driver/Src/stm32l4xx_hal_smbus.c ****   if ((hsmbus->State & HAL_SMBUS_STATE_LISTEN) == HAL_SMBUS_STATE_LISTEN)
 1641              		.loc 1 1329 14
ARM GAS  /tmp/ccysATpZ.s 			page 53


 1642 0010 FB68     		ldr	r3, [r7, #12]
 1643 0012 9B6C     		ldr	r3, [r3, #72]
 1644              		.loc 1 1329 22
 1645 0014 03F00803 		and	r3, r3, #8
 1646              		.loc 1 1329 6
 1647 0018 082B     		cmp	r3, #8
 1648 001a 73D1     		bne	.L78
1330:Drivers/STM32L4xx_HAL_Driver/Src/stm32l4xx_hal_smbus.c ****   {
1331:Drivers/STM32L4xx_HAL_Driver/Src/stm32l4xx_hal_smbus.c ****     if ((pData == NULL) || (Size == 0UL))
 1649              		.loc 1 1331 8
 1650 001c BB68     		ldr	r3, [r7, #8]
 1651 001e 002B     		cmp	r3, #0
 1652 0020 02D0     		beq	.L79
 1653              		.loc 1 1331 25 discriminator 1
 1654 0022 FB88     		ldrh	r3, [r7, #6]
 1655 0024 002B     		cmp	r3, #0
 1656 0026 05D1     		bne	.L80
 1657              	.L79:
1332:Drivers/STM32L4xx_HAL_Driver/Src/stm32l4xx_hal_smbus.c ****     {
1333:Drivers/STM32L4xx_HAL_Driver/Src/stm32l4xx_hal_smbus.c ****       hsmbus->ErrorCode = HAL_SMBUS_ERROR_INVALID_PARAM;
 1658              		.loc 1 1333 25
 1659 0028 FB68     		ldr	r3, [r7, #12]
 1660 002a 4FF40072 		mov	r2, #512
 1661 002e DA64     		str	r2, [r3, #76]
1334:Drivers/STM32L4xx_HAL_Driver/Src/stm32l4xx_hal_smbus.c ****       return HAL_ERROR;
 1662              		.loc 1 1334 14
 1663 0030 0123     		movs	r3, #1
 1664 0032 68E0     		b	.L81
 1665              	.L80:
1335:Drivers/STM32L4xx_HAL_Driver/Src/stm32l4xx_hal_smbus.c ****     }
1336:Drivers/STM32L4xx_HAL_Driver/Src/stm32l4xx_hal_smbus.c **** 
1337:Drivers/STM32L4xx_HAL_Driver/Src/stm32l4xx_hal_smbus.c ****     /* Disable Interrupts, to prevent preemption during treatment in case of multicall */
1338:Drivers/STM32L4xx_HAL_Driver/Src/stm32l4xx_hal_smbus.c ****     SMBUS_Disable_IRQ(hsmbus, SMBUS_IT_ADDR | SMBUS_IT_RX);
 1666              		.loc 1 1338 5
 1667 0034 FC21     		movs	r1, #252
 1668 0036 F868     		ldr	r0, [r7, #12]
 1669 0038 FFF7FEFF 		bl	SMBUS_Disable_IRQ
1339:Drivers/STM32L4xx_HAL_Driver/Src/stm32l4xx_hal_smbus.c **** 
1340:Drivers/STM32L4xx_HAL_Driver/Src/stm32l4xx_hal_smbus.c ****     /* Process Locked */
1341:Drivers/STM32L4xx_HAL_Driver/Src/stm32l4xx_hal_smbus.c ****     __HAL_LOCK(hsmbus);
 1670              		.loc 1 1341 5
 1671 003c FB68     		ldr	r3, [r7, #12]
 1672 003e 93F84430 		ldrb	r3, [r3, #68]	@ zero_extendqisi2
 1673 0042 012B     		cmp	r3, #1
 1674 0044 01D1     		bne	.L82
 1675              		.loc 1 1341 5 is_stmt 0 discriminator 1
 1676 0046 0223     		movs	r3, #2
 1677              		.loc 1 1341 5
 1678 0048 5DE0     		b	.L81
 1679              	.L82:
 1680              		.loc 1 1341 5 discriminator 2
 1681 004a FB68     		ldr	r3, [r7, #12]
 1682 004c 0122     		movs	r2, #1
 1683 004e 83F84420 		strb	r2, [r3, #68]
1342:Drivers/STM32L4xx_HAL_Driver/Src/stm32l4xx_hal_smbus.c **** 
1343:Drivers/STM32L4xx_HAL_Driver/Src/stm32l4xx_hal_smbus.c ****     hsmbus->State = (HAL_SMBUS_STATE_SLAVE_BUSY_RX | HAL_SMBUS_STATE_LISTEN);
 1684              		.loc 1 1343 19 is_stmt 1
ARM GAS  /tmp/ccysATpZ.s 			page 54


 1685 0052 FB68     		ldr	r3, [r7, #12]
 1686 0054 4A22     		movs	r2, #74
 1687 0056 9A64     		str	r2, [r3, #72]
1344:Drivers/STM32L4xx_HAL_Driver/Src/stm32l4xx_hal_smbus.c ****     hsmbus->ErrorCode = HAL_SMBUS_ERROR_NONE;
 1688              		.loc 1 1344 23
 1689 0058 FB68     		ldr	r3, [r7, #12]
 1690 005a 0022     		movs	r2, #0
 1691 005c DA64     		str	r2, [r3, #76]
1345:Drivers/STM32L4xx_HAL_Driver/Src/stm32l4xx_hal_smbus.c **** 
1346:Drivers/STM32L4xx_HAL_Driver/Src/stm32l4xx_hal_smbus.c ****     /* Set SBC bit to manage Acknowledge at each bit */
1347:Drivers/STM32L4xx_HAL_Driver/Src/stm32l4xx_hal_smbus.c ****     hsmbus->Instance->CR1 |= I2C_CR1_SBC;
 1692              		.loc 1 1347 11
 1693 005e FB68     		ldr	r3, [r7, #12]
 1694 0060 1B68     		ldr	r3, [r3]
 1695              		.loc 1 1347 21
 1696 0062 1A68     		ldr	r2, [r3]
 1697              		.loc 1 1347 11
 1698 0064 FB68     		ldr	r3, [r7, #12]
 1699 0066 1B68     		ldr	r3, [r3]
 1700              		.loc 1 1347 27
 1701 0068 42F48032 		orr	r2, r2, #65536
 1702 006c 1A60     		str	r2, [r3]
1348:Drivers/STM32L4xx_HAL_Driver/Src/stm32l4xx_hal_smbus.c **** 
1349:Drivers/STM32L4xx_HAL_Driver/Src/stm32l4xx_hal_smbus.c ****     /* Enable Address Acknowledge */
1350:Drivers/STM32L4xx_HAL_Driver/Src/stm32l4xx_hal_smbus.c ****     hsmbus->Instance->CR2 &= ~I2C_CR2_NACK;
 1703              		.loc 1 1350 11
 1704 006e FB68     		ldr	r3, [r7, #12]
 1705 0070 1B68     		ldr	r3, [r3]
 1706              		.loc 1 1350 21
 1707 0072 5A68     		ldr	r2, [r3, #4]
 1708              		.loc 1 1350 11
 1709 0074 FB68     		ldr	r3, [r7, #12]
 1710 0076 1B68     		ldr	r3, [r3]
 1711              		.loc 1 1350 27
 1712 0078 22F40042 		bic	r2, r2, #32768
 1713 007c 5A60     		str	r2, [r3, #4]
1351:Drivers/STM32L4xx_HAL_Driver/Src/stm32l4xx_hal_smbus.c **** 
1352:Drivers/STM32L4xx_HAL_Driver/Src/stm32l4xx_hal_smbus.c ****     /* Prepare transfer parameters */
1353:Drivers/STM32L4xx_HAL_Driver/Src/stm32l4xx_hal_smbus.c ****     hsmbus->pBuffPtr = pData;
 1714              		.loc 1 1353 22
 1715 007e FB68     		ldr	r3, [r7, #12]
 1716 0080 BA68     		ldr	r2, [r7, #8]
 1717 0082 5A63     		str	r2, [r3, #52]
1354:Drivers/STM32L4xx_HAL_Driver/Src/stm32l4xx_hal_smbus.c ****     hsmbus->XferSize = Size;
 1718              		.loc 1 1354 22
 1719 0084 FB68     		ldr	r3, [r7, #12]
 1720 0086 FA88     		ldrh	r2, [r7, #6]	@ movhi
 1721 0088 1A87     		strh	r2, [r3, #56]	@ movhi
1355:Drivers/STM32L4xx_HAL_Driver/Src/stm32l4xx_hal_smbus.c ****     hsmbus->XferCount = Size;
 1722              		.loc 1 1355 23
 1723 008a FB68     		ldr	r3, [r7, #12]
 1724 008c FA88     		ldrh	r2, [r7, #6]	@ movhi
 1725 008e 5A87     		strh	r2, [r3, #58]	@ movhi
1356:Drivers/STM32L4xx_HAL_Driver/Src/stm32l4xx_hal_smbus.c ****     hsmbus->XferOptions = XferOptions;
 1726              		.loc 1 1356 25
 1727 0090 FB68     		ldr	r3, [r7, #12]
 1728 0092 3A68     		ldr	r2, [r7]
ARM GAS  /tmp/ccysATpZ.s 			page 55


 1729 0094 DA63     		str	r2, [r3, #60]
1357:Drivers/STM32L4xx_HAL_Driver/Src/stm32l4xx_hal_smbus.c **** 
1358:Drivers/STM32L4xx_HAL_Driver/Src/stm32l4xx_hal_smbus.c ****     /* Convert OTHER_xxx XferOptions if any */
1359:Drivers/STM32L4xx_HAL_Driver/Src/stm32l4xx_hal_smbus.c ****     SMBUS_ConvertOtherXferOptions(hsmbus);
 1730              		.loc 1 1359 5
 1731 0096 F868     		ldr	r0, [r7, #12]
 1732 0098 FFF7FEFF 		bl	SMBUS_ConvertOtherXferOptions
1360:Drivers/STM32L4xx_HAL_Driver/Src/stm32l4xx_hal_smbus.c **** 
1361:Drivers/STM32L4xx_HAL_Driver/Src/stm32l4xx_hal_smbus.c ****     /* Set NBYTE to receive */
1362:Drivers/STM32L4xx_HAL_Driver/Src/stm32l4xx_hal_smbus.c ****     /* If XferSize equal "1", or XferSize equal "2" with PEC requested (mean 1 data byte + 1 PEC by
1363:Drivers/STM32L4xx_HAL_Driver/Src/stm32l4xx_hal_smbus.c ****     /* no need to set RELOAD bit mode, a ACK will be automatically generated in that case */
1364:Drivers/STM32L4xx_HAL_Driver/Src/stm32l4xx_hal_smbus.c ****     /* else need to set RELOAD bit mode to generate an automatic ACK at each byte Received */
1365:Drivers/STM32L4xx_HAL_Driver/Src/stm32l4xx_hal_smbus.c ****     /* This RELOAD bit will be reset for last BYTE to be receive in SMBUS_Slave_ISR */
1366:Drivers/STM32L4xx_HAL_Driver/Src/stm32l4xx_hal_smbus.c ****     if (((SMBUS_GET_PEC_MODE(hsmbus) != 0UL) && (hsmbus->XferSize == 2U)) || (hsmbus->XferSize == 1
 1733              		.loc 1 1366 11
 1734 009c FB68     		ldr	r3, [r7, #12]
 1735 009e 1B68     		ldr	r3, [r3]
 1736 00a0 5B68     		ldr	r3, [r3, #4]
 1737 00a2 03F08063 		and	r3, r3, #67108864
 1738              		.loc 1 1366 8
 1739 00a6 002B     		cmp	r3, #0
 1740 00a8 03D0     		beq	.L83
 1741              		.loc 1 1366 56 discriminator 1
 1742 00aa FB68     		ldr	r3, [r7, #12]
 1743 00ac 1B8F     		ldrh	r3, [r3, #56]
 1744              		.loc 1 1366 46 discriminator 1
 1745 00ae 022B     		cmp	r3, #2
 1746 00b0 03D0     		beq	.L84
 1747              	.L83:
 1748              		.loc 1 1366 85 discriminator 3
 1749 00b2 FB68     		ldr	r3, [r7, #12]
 1750 00b4 1B8F     		ldrh	r3, [r3, #56]
 1751              		.loc 1 1366 75 discriminator 3
 1752 00b6 012B     		cmp	r3, #1
 1753 00b8 0BD1     		bne	.L85
 1754              	.L84:
1367:Drivers/STM32L4xx_HAL_Driver/Src/stm32l4xx_hal_smbus.c ****     {
1368:Drivers/STM32L4xx_HAL_Driver/Src/stm32l4xx_hal_smbus.c ****       SMBUS_TransferConfig(hsmbus, 0, (uint8_t)hsmbus->XferSize, hsmbus->XferOptions,
 1755              		.loc 1 1368 54
 1756 00ba FB68     		ldr	r3, [r7, #12]
 1757 00bc 1B8F     		ldrh	r3, [r3, #56]
 1758              		.loc 1 1368 7
 1759 00be DAB2     		uxtb	r2, r3
 1760              		.loc 1 1368 72
 1761 00c0 FB68     		ldr	r3, [r7, #12]
 1762 00c2 DB6B     		ldr	r3, [r3, #60]
 1763              		.loc 1 1368 7
 1764 00c4 0021     		movs	r1, #0
 1765 00c6 0091     		str	r1, [sp]
 1766 00c8 0021     		movs	r1, #0
 1767 00ca F868     		ldr	r0, [r7, #12]
 1768 00cc FFF7FEFF 		bl	SMBUS_TransferConfig
 1769 00d0 0AE0     		b	.L86
 1770              	.L85:
1369:Drivers/STM32L4xx_HAL_Driver/Src/stm32l4xx_hal_smbus.c ****                            SMBUS_NO_STARTSTOP);
1370:Drivers/STM32L4xx_HAL_Driver/Src/stm32l4xx_hal_smbus.c ****     }
1371:Drivers/STM32L4xx_HAL_Driver/Src/stm32l4xx_hal_smbus.c ****     else
ARM GAS  /tmp/ccysATpZ.s 			page 56


1372:Drivers/STM32L4xx_HAL_Driver/Src/stm32l4xx_hal_smbus.c ****     {
1373:Drivers/STM32L4xx_HAL_Driver/Src/stm32l4xx_hal_smbus.c ****       SMBUS_TransferConfig(hsmbus, 0, 1, hsmbus->XferOptions | SMBUS_RELOAD_MODE, SMBUS_NO_STARTSTO
 1771              		.loc 1 1373 48
 1772 00d2 FB68     		ldr	r3, [r7, #12]
 1773 00d4 DB6B     		ldr	r3, [r3, #60]
 1774              		.loc 1 1373 7
 1775 00d6 43F08073 		orr	r3, r3, #16777216
 1776 00da 0022     		movs	r2, #0
 1777 00dc 0092     		str	r2, [sp]
 1778 00de 0122     		movs	r2, #1
 1779 00e0 0021     		movs	r1, #0
 1780 00e2 F868     		ldr	r0, [r7, #12]
 1781 00e4 FFF7FEFF 		bl	SMBUS_TransferConfig
 1782              	.L86:
1374:Drivers/STM32L4xx_HAL_Driver/Src/stm32l4xx_hal_smbus.c ****     }
1375:Drivers/STM32L4xx_HAL_Driver/Src/stm32l4xx_hal_smbus.c **** 
1376:Drivers/STM32L4xx_HAL_Driver/Src/stm32l4xx_hal_smbus.c ****     /* Clear ADDR flag after prepare the transfer parameters */
1377:Drivers/STM32L4xx_HAL_Driver/Src/stm32l4xx_hal_smbus.c ****     /* This action will generate an acknowledge to the HOST */
1378:Drivers/STM32L4xx_HAL_Driver/Src/stm32l4xx_hal_smbus.c ****     __HAL_SMBUS_CLEAR_FLAG(hsmbus, SMBUS_FLAG_ADDR);
 1783              		.loc 1 1378 5
 1784 00e8 FB68     		ldr	r3, [r7, #12]
 1785 00ea 1B68     		ldr	r3, [r3]
 1786 00ec 0822     		movs	r2, #8
 1787 00ee DA61     		str	r2, [r3, #28]
1379:Drivers/STM32L4xx_HAL_Driver/Src/stm32l4xx_hal_smbus.c **** 
1380:Drivers/STM32L4xx_HAL_Driver/Src/stm32l4xx_hal_smbus.c ****     /* Process Unlocked */
1381:Drivers/STM32L4xx_HAL_Driver/Src/stm32l4xx_hal_smbus.c ****     __HAL_UNLOCK(hsmbus);
 1788              		.loc 1 1381 5
 1789 00f0 FB68     		ldr	r3, [r7, #12]
 1790 00f2 0022     		movs	r2, #0
 1791 00f4 83F84420 		strb	r2, [r3, #68]
1382:Drivers/STM32L4xx_HAL_Driver/Src/stm32l4xx_hal_smbus.c **** 
1383:Drivers/STM32L4xx_HAL_Driver/Src/stm32l4xx_hal_smbus.c ****     /* Note : The SMBUS interrupts must be enabled after unlocking current process
1384:Drivers/STM32L4xx_HAL_Driver/Src/stm32l4xx_hal_smbus.c ****               to avoid the risk of SMBUS interrupt handle execution before current
1385:Drivers/STM32L4xx_HAL_Driver/Src/stm32l4xx_hal_smbus.c ****               process unlock */
1386:Drivers/STM32L4xx_HAL_Driver/Src/stm32l4xx_hal_smbus.c ****     /* REnable ADDR interrupt */
1387:Drivers/STM32L4xx_HAL_Driver/Src/stm32l4xx_hal_smbus.c ****     SMBUS_Enable_IRQ(hsmbus, SMBUS_IT_RX | SMBUS_IT_ADDR);
 1792              		.loc 1 1387 5
 1793 00f8 FC21     		movs	r1, #252
 1794 00fa F868     		ldr	r0, [r7, #12]
 1795 00fc FFF7FEFF 		bl	SMBUS_Enable_IRQ
1388:Drivers/STM32L4xx_HAL_Driver/Src/stm32l4xx_hal_smbus.c **** 
1389:Drivers/STM32L4xx_HAL_Driver/Src/stm32l4xx_hal_smbus.c ****     return HAL_OK;
 1796              		.loc 1 1389 12
 1797 0100 0023     		movs	r3, #0
 1798 0102 00E0     		b	.L81
 1799              	.L78:
1390:Drivers/STM32L4xx_HAL_Driver/Src/stm32l4xx_hal_smbus.c ****   }
1391:Drivers/STM32L4xx_HAL_Driver/Src/stm32l4xx_hal_smbus.c ****   else
1392:Drivers/STM32L4xx_HAL_Driver/Src/stm32l4xx_hal_smbus.c ****   {
1393:Drivers/STM32L4xx_HAL_Driver/Src/stm32l4xx_hal_smbus.c ****     return HAL_BUSY;
 1800              		.loc 1 1393 12
 1801 0104 0223     		movs	r3, #2
 1802              	.L81:
1394:Drivers/STM32L4xx_HAL_Driver/Src/stm32l4xx_hal_smbus.c ****   }
1395:Drivers/STM32L4xx_HAL_Driver/Src/stm32l4xx_hal_smbus.c **** }
 1803              		.loc 1 1395 1
ARM GAS  /tmp/ccysATpZ.s 			page 57


 1804 0106 1846     		mov	r0, r3
 1805 0108 1037     		adds	r7, r7, #16
 1806              		.cfi_def_cfa_offset 8
 1807 010a BD46     		mov	sp, r7
 1808              		.cfi_def_cfa_register 13
 1809              		@ sp needed
 1810 010c 80BD     		pop	{r7, pc}
 1811              		.cfi_endproc
 1812              	.LFE455:
 1814              		.section	.text.HAL_SMBUS_EnableListen_IT,"ax",%progbits
 1815              		.align	1
 1816              		.global	HAL_SMBUS_EnableListen_IT
 1817              		.syntax unified
 1818              		.thumb
 1819              		.thumb_func
 1821              	HAL_SMBUS_EnableListen_IT:
 1822              	.LFB456:
1396:Drivers/STM32L4xx_HAL_Driver/Src/stm32l4xx_hal_smbus.c **** 
1397:Drivers/STM32L4xx_HAL_Driver/Src/stm32l4xx_hal_smbus.c **** /**
1398:Drivers/STM32L4xx_HAL_Driver/Src/stm32l4xx_hal_smbus.c ****   * @brief  Enable the Address listen mode with Interrupt.
1399:Drivers/STM32L4xx_HAL_Driver/Src/stm32l4xx_hal_smbus.c ****   * @param  hsmbus Pointer to a SMBUS_HandleTypeDef structure that contains
1400:Drivers/STM32L4xx_HAL_Driver/Src/stm32l4xx_hal_smbus.c ****   *                the configuration information for the specified SMBUS.
1401:Drivers/STM32L4xx_HAL_Driver/Src/stm32l4xx_hal_smbus.c ****   * @retval HAL status
1402:Drivers/STM32L4xx_HAL_Driver/Src/stm32l4xx_hal_smbus.c ****   */
1403:Drivers/STM32L4xx_HAL_Driver/Src/stm32l4xx_hal_smbus.c **** HAL_StatusTypeDef HAL_SMBUS_EnableListen_IT(SMBUS_HandleTypeDef *hsmbus)
1404:Drivers/STM32L4xx_HAL_Driver/Src/stm32l4xx_hal_smbus.c **** {
 1823              		.loc 1 1404 1
 1824              		.cfi_startproc
 1825              		@ args = 0, pretend = 0, frame = 8
 1826              		@ frame_needed = 1, uses_anonymous_args = 0
 1827 0000 80B5     		push	{r7, lr}
 1828              		.cfi_def_cfa_offset 8
 1829              		.cfi_offset 7, -8
 1830              		.cfi_offset 14, -4
 1831 0002 82B0     		sub	sp, sp, #8
 1832              		.cfi_def_cfa_offset 16
 1833 0004 00AF     		add	r7, sp, #0
 1834              		.cfi_def_cfa_register 7
 1835 0006 7860     		str	r0, [r7, #4]
1405:Drivers/STM32L4xx_HAL_Driver/Src/stm32l4xx_hal_smbus.c ****   hsmbus->State = HAL_SMBUS_STATE_LISTEN;
 1836              		.loc 1 1405 17
 1837 0008 7B68     		ldr	r3, [r7, #4]
 1838 000a 0822     		movs	r2, #8
 1839 000c 9A64     		str	r2, [r3, #72]
1406:Drivers/STM32L4xx_HAL_Driver/Src/stm32l4xx_hal_smbus.c **** 
1407:Drivers/STM32L4xx_HAL_Driver/Src/stm32l4xx_hal_smbus.c ****   /* Enable the Address Match interrupt */
1408:Drivers/STM32L4xx_HAL_Driver/Src/stm32l4xx_hal_smbus.c ****   SMBUS_Enable_IRQ(hsmbus, SMBUS_IT_ADDR);
 1840              		.loc 1 1408 3
 1841 000e 3821     		movs	r1, #56
 1842 0010 7868     		ldr	r0, [r7, #4]
 1843 0012 FFF7FEFF 		bl	SMBUS_Enable_IRQ
1409:Drivers/STM32L4xx_HAL_Driver/Src/stm32l4xx_hal_smbus.c **** 
1410:Drivers/STM32L4xx_HAL_Driver/Src/stm32l4xx_hal_smbus.c ****   return HAL_OK;
 1844              		.loc 1 1410 10
 1845 0016 0023     		movs	r3, #0
1411:Drivers/STM32L4xx_HAL_Driver/Src/stm32l4xx_hal_smbus.c **** }
 1846              		.loc 1 1411 1
ARM GAS  /tmp/ccysATpZ.s 			page 58


 1847 0018 1846     		mov	r0, r3
 1848 001a 0837     		adds	r7, r7, #8
 1849              		.cfi_def_cfa_offset 8
 1850 001c BD46     		mov	sp, r7
 1851              		.cfi_def_cfa_register 13
 1852              		@ sp needed
 1853 001e 80BD     		pop	{r7, pc}
 1854              		.cfi_endproc
 1855              	.LFE456:
 1857              		.section	.text.HAL_SMBUS_DisableListen_IT,"ax",%progbits
 1858              		.align	1
 1859              		.global	HAL_SMBUS_DisableListen_IT
 1860              		.syntax unified
 1861              		.thumb
 1862              		.thumb_func
 1864              	HAL_SMBUS_DisableListen_IT:
 1865              	.LFB457:
1412:Drivers/STM32L4xx_HAL_Driver/Src/stm32l4xx_hal_smbus.c **** 
1413:Drivers/STM32L4xx_HAL_Driver/Src/stm32l4xx_hal_smbus.c **** /**
1414:Drivers/STM32L4xx_HAL_Driver/Src/stm32l4xx_hal_smbus.c ****   * @brief  Disable the Address listen mode with Interrupt.
1415:Drivers/STM32L4xx_HAL_Driver/Src/stm32l4xx_hal_smbus.c ****   * @param  hsmbus Pointer to a SMBUS_HandleTypeDef structure that contains
1416:Drivers/STM32L4xx_HAL_Driver/Src/stm32l4xx_hal_smbus.c ****   *                the configuration information for the specified SMBUS.
1417:Drivers/STM32L4xx_HAL_Driver/Src/stm32l4xx_hal_smbus.c ****   * @retval HAL status
1418:Drivers/STM32L4xx_HAL_Driver/Src/stm32l4xx_hal_smbus.c ****   */
1419:Drivers/STM32L4xx_HAL_Driver/Src/stm32l4xx_hal_smbus.c **** HAL_StatusTypeDef HAL_SMBUS_DisableListen_IT(SMBUS_HandleTypeDef *hsmbus)
1420:Drivers/STM32L4xx_HAL_Driver/Src/stm32l4xx_hal_smbus.c **** {
 1866              		.loc 1 1420 1
 1867              		.cfi_startproc
 1868              		@ args = 0, pretend = 0, frame = 8
 1869              		@ frame_needed = 1, uses_anonymous_args = 0
 1870 0000 80B5     		push	{r7, lr}
 1871              		.cfi_def_cfa_offset 8
 1872              		.cfi_offset 7, -8
 1873              		.cfi_offset 14, -4
 1874 0002 82B0     		sub	sp, sp, #8
 1875              		.cfi_def_cfa_offset 16
 1876 0004 00AF     		add	r7, sp, #0
 1877              		.cfi_def_cfa_register 7
 1878 0006 7860     		str	r0, [r7, #4]
1421:Drivers/STM32L4xx_HAL_Driver/Src/stm32l4xx_hal_smbus.c ****   /* Disable Address listen mode only if a transfer is not ongoing */
1422:Drivers/STM32L4xx_HAL_Driver/Src/stm32l4xx_hal_smbus.c ****   if (hsmbus->State == HAL_SMBUS_STATE_LISTEN)
 1879              		.loc 1 1422 13
 1880 0008 7B68     		ldr	r3, [r7, #4]
 1881 000a 9B6C     		ldr	r3, [r3, #72]
 1882              		.loc 1 1422 6
 1883 000c 082B     		cmp	r3, #8
 1884 000e 08D1     		bne	.L90
1423:Drivers/STM32L4xx_HAL_Driver/Src/stm32l4xx_hal_smbus.c ****   {
1424:Drivers/STM32L4xx_HAL_Driver/Src/stm32l4xx_hal_smbus.c ****     hsmbus->State = HAL_SMBUS_STATE_READY;
 1885              		.loc 1 1424 19
 1886 0010 7B68     		ldr	r3, [r7, #4]
 1887 0012 0122     		movs	r2, #1
 1888 0014 9A64     		str	r2, [r3, #72]
1425:Drivers/STM32L4xx_HAL_Driver/Src/stm32l4xx_hal_smbus.c **** 
1426:Drivers/STM32L4xx_HAL_Driver/Src/stm32l4xx_hal_smbus.c ****     /* Disable the Address Match interrupt */
1427:Drivers/STM32L4xx_HAL_Driver/Src/stm32l4xx_hal_smbus.c ****     SMBUS_Disable_IRQ(hsmbus, SMBUS_IT_ADDR);
 1889              		.loc 1 1427 5
ARM GAS  /tmp/ccysATpZ.s 			page 59


 1890 0016 3821     		movs	r1, #56
 1891 0018 7868     		ldr	r0, [r7, #4]
 1892 001a FFF7FEFF 		bl	SMBUS_Disable_IRQ
1428:Drivers/STM32L4xx_HAL_Driver/Src/stm32l4xx_hal_smbus.c **** 
1429:Drivers/STM32L4xx_HAL_Driver/Src/stm32l4xx_hal_smbus.c ****     return HAL_OK;
 1893              		.loc 1 1429 12
 1894 001e 0023     		movs	r3, #0
 1895 0020 00E0     		b	.L91
 1896              	.L90:
1430:Drivers/STM32L4xx_HAL_Driver/Src/stm32l4xx_hal_smbus.c ****   }
1431:Drivers/STM32L4xx_HAL_Driver/Src/stm32l4xx_hal_smbus.c ****   else
1432:Drivers/STM32L4xx_HAL_Driver/Src/stm32l4xx_hal_smbus.c ****   {
1433:Drivers/STM32L4xx_HAL_Driver/Src/stm32l4xx_hal_smbus.c ****     return HAL_BUSY;
 1897              		.loc 1 1433 12
 1898 0022 0223     		movs	r3, #2
 1899              	.L91:
1434:Drivers/STM32L4xx_HAL_Driver/Src/stm32l4xx_hal_smbus.c ****   }
1435:Drivers/STM32L4xx_HAL_Driver/Src/stm32l4xx_hal_smbus.c **** }
 1900              		.loc 1 1435 1
 1901 0024 1846     		mov	r0, r3
 1902 0026 0837     		adds	r7, r7, #8
 1903              		.cfi_def_cfa_offset 8
 1904 0028 BD46     		mov	sp, r7
 1905              		.cfi_def_cfa_register 13
 1906              		@ sp needed
 1907 002a 80BD     		pop	{r7, pc}
 1908              		.cfi_endproc
 1909              	.LFE457:
 1911              		.section	.text.HAL_SMBUS_EnableAlert_IT,"ax",%progbits
 1912              		.align	1
 1913              		.global	HAL_SMBUS_EnableAlert_IT
 1914              		.syntax unified
 1915              		.thumb
 1916              		.thumb_func
 1918              	HAL_SMBUS_EnableAlert_IT:
 1919              	.LFB458:
1436:Drivers/STM32L4xx_HAL_Driver/Src/stm32l4xx_hal_smbus.c **** 
1437:Drivers/STM32L4xx_HAL_Driver/Src/stm32l4xx_hal_smbus.c **** /**
1438:Drivers/STM32L4xx_HAL_Driver/Src/stm32l4xx_hal_smbus.c ****   * @brief  Enable the SMBUS alert mode with Interrupt.
1439:Drivers/STM32L4xx_HAL_Driver/Src/stm32l4xx_hal_smbus.c ****   * @param  hsmbus Pointer to a SMBUS_HandleTypeDef structure that contains
1440:Drivers/STM32L4xx_HAL_Driver/Src/stm32l4xx_hal_smbus.c ****   *                the configuration information for the specified SMBUSx peripheral.
1441:Drivers/STM32L4xx_HAL_Driver/Src/stm32l4xx_hal_smbus.c ****   * @retval HAL status
1442:Drivers/STM32L4xx_HAL_Driver/Src/stm32l4xx_hal_smbus.c ****   */
1443:Drivers/STM32L4xx_HAL_Driver/Src/stm32l4xx_hal_smbus.c **** HAL_StatusTypeDef HAL_SMBUS_EnableAlert_IT(SMBUS_HandleTypeDef *hsmbus)
1444:Drivers/STM32L4xx_HAL_Driver/Src/stm32l4xx_hal_smbus.c **** {
 1920              		.loc 1 1444 1
 1921              		.cfi_startproc
 1922              		@ args = 0, pretend = 0, frame = 8
 1923              		@ frame_needed = 1, uses_anonymous_args = 0
 1924 0000 80B5     		push	{r7, lr}
 1925              		.cfi_def_cfa_offset 8
 1926              		.cfi_offset 7, -8
 1927              		.cfi_offset 14, -4
 1928 0002 82B0     		sub	sp, sp, #8
 1929              		.cfi_def_cfa_offset 16
 1930 0004 00AF     		add	r7, sp, #0
 1931              		.cfi_def_cfa_register 7
ARM GAS  /tmp/ccysATpZ.s 			page 60


 1932 0006 7860     		str	r0, [r7, #4]
1445:Drivers/STM32L4xx_HAL_Driver/Src/stm32l4xx_hal_smbus.c ****   /* Enable SMBus alert */
1446:Drivers/STM32L4xx_HAL_Driver/Src/stm32l4xx_hal_smbus.c ****   hsmbus->Instance->CR1 |= I2C_CR1_ALERTEN;
 1933              		.loc 1 1446 9
 1934 0008 7B68     		ldr	r3, [r7, #4]
 1935 000a 1B68     		ldr	r3, [r3]
 1936              		.loc 1 1446 19
 1937 000c 1A68     		ldr	r2, [r3]
 1938              		.loc 1 1446 9
 1939 000e 7B68     		ldr	r3, [r7, #4]
 1940 0010 1B68     		ldr	r3, [r3]
 1941              		.loc 1 1446 25
 1942 0012 42F48002 		orr	r2, r2, #4194304
 1943 0016 1A60     		str	r2, [r3]
1447:Drivers/STM32L4xx_HAL_Driver/Src/stm32l4xx_hal_smbus.c **** 
1448:Drivers/STM32L4xx_HAL_Driver/Src/stm32l4xx_hal_smbus.c ****   /* Clear ALERT flag */
1449:Drivers/STM32L4xx_HAL_Driver/Src/stm32l4xx_hal_smbus.c ****   __HAL_SMBUS_CLEAR_FLAG(hsmbus, SMBUS_FLAG_ALERT);
 1944              		.loc 1 1449 3
 1945 0018 7B68     		ldr	r3, [r7, #4]
 1946 001a 1B68     		ldr	r3, [r3]
 1947 001c 4FF40052 		mov	r2, #8192
 1948 0020 DA61     		str	r2, [r3, #28]
1450:Drivers/STM32L4xx_HAL_Driver/Src/stm32l4xx_hal_smbus.c **** 
1451:Drivers/STM32L4xx_HAL_Driver/Src/stm32l4xx_hal_smbus.c ****   /* Enable Alert Interrupt */
1452:Drivers/STM32L4xx_HAL_Driver/Src/stm32l4xx_hal_smbus.c ****   SMBUS_Enable_IRQ(hsmbus, SMBUS_IT_ALERT);
 1949              		.loc 1 1452 3
 1950 0022 8021     		movs	r1, #128
 1951 0024 7868     		ldr	r0, [r7, #4]
 1952 0026 FFF7FEFF 		bl	SMBUS_Enable_IRQ
1453:Drivers/STM32L4xx_HAL_Driver/Src/stm32l4xx_hal_smbus.c **** 
1454:Drivers/STM32L4xx_HAL_Driver/Src/stm32l4xx_hal_smbus.c ****   return HAL_OK;
 1953              		.loc 1 1454 10
 1954 002a 0023     		movs	r3, #0
1455:Drivers/STM32L4xx_HAL_Driver/Src/stm32l4xx_hal_smbus.c **** }
 1955              		.loc 1 1455 1
 1956 002c 1846     		mov	r0, r3
 1957 002e 0837     		adds	r7, r7, #8
 1958              		.cfi_def_cfa_offset 8
 1959 0030 BD46     		mov	sp, r7
 1960              		.cfi_def_cfa_register 13
 1961              		@ sp needed
 1962 0032 80BD     		pop	{r7, pc}
 1963              		.cfi_endproc
 1964              	.LFE458:
 1966              		.section	.text.HAL_SMBUS_DisableAlert_IT,"ax",%progbits
 1967              		.align	1
 1968              		.global	HAL_SMBUS_DisableAlert_IT
 1969              		.syntax unified
 1970              		.thumb
 1971              		.thumb_func
 1973              	HAL_SMBUS_DisableAlert_IT:
 1974              	.LFB459:
1456:Drivers/STM32L4xx_HAL_Driver/Src/stm32l4xx_hal_smbus.c **** /**
1457:Drivers/STM32L4xx_HAL_Driver/Src/stm32l4xx_hal_smbus.c ****   * @brief  Disable the SMBUS alert mode with Interrupt.
1458:Drivers/STM32L4xx_HAL_Driver/Src/stm32l4xx_hal_smbus.c ****   * @param  hsmbus Pointer to a SMBUS_HandleTypeDef structure that contains
1459:Drivers/STM32L4xx_HAL_Driver/Src/stm32l4xx_hal_smbus.c ****   *                the configuration information for the specified SMBUSx peripheral.
1460:Drivers/STM32L4xx_HAL_Driver/Src/stm32l4xx_hal_smbus.c ****   * @retval HAL status
ARM GAS  /tmp/ccysATpZ.s 			page 61


1461:Drivers/STM32L4xx_HAL_Driver/Src/stm32l4xx_hal_smbus.c ****   */
1462:Drivers/STM32L4xx_HAL_Driver/Src/stm32l4xx_hal_smbus.c **** HAL_StatusTypeDef HAL_SMBUS_DisableAlert_IT(SMBUS_HandleTypeDef *hsmbus)
1463:Drivers/STM32L4xx_HAL_Driver/Src/stm32l4xx_hal_smbus.c **** {
 1975              		.loc 1 1463 1
 1976              		.cfi_startproc
 1977              		@ args = 0, pretend = 0, frame = 8
 1978              		@ frame_needed = 1, uses_anonymous_args = 0
 1979 0000 80B5     		push	{r7, lr}
 1980              		.cfi_def_cfa_offset 8
 1981              		.cfi_offset 7, -8
 1982              		.cfi_offset 14, -4
 1983 0002 82B0     		sub	sp, sp, #8
 1984              		.cfi_def_cfa_offset 16
 1985 0004 00AF     		add	r7, sp, #0
 1986              		.cfi_def_cfa_register 7
 1987 0006 7860     		str	r0, [r7, #4]
1464:Drivers/STM32L4xx_HAL_Driver/Src/stm32l4xx_hal_smbus.c ****   /* Enable SMBus alert */
1465:Drivers/STM32L4xx_HAL_Driver/Src/stm32l4xx_hal_smbus.c ****   hsmbus->Instance->CR1 &= ~I2C_CR1_ALERTEN;
 1988              		.loc 1 1465 9
 1989 0008 7B68     		ldr	r3, [r7, #4]
 1990 000a 1B68     		ldr	r3, [r3]
 1991              		.loc 1 1465 19
 1992 000c 1A68     		ldr	r2, [r3]
 1993              		.loc 1 1465 9
 1994 000e 7B68     		ldr	r3, [r7, #4]
 1995 0010 1B68     		ldr	r3, [r3]
 1996              		.loc 1 1465 25
 1997 0012 22F48002 		bic	r2, r2, #4194304
 1998 0016 1A60     		str	r2, [r3]
1466:Drivers/STM32L4xx_HAL_Driver/Src/stm32l4xx_hal_smbus.c **** 
1467:Drivers/STM32L4xx_HAL_Driver/Src/stm32l4xx_hal_smbus.c ****   /* Disable Alert Interrupt */
1468:Drivers/STM32L4xx_HAL_Driver/Src/stm32l4xx_hal_smbus.c ****   SMBUS_Disable_IRQ(hsmbus, SMBUS_IT_ALERT);
 1999              		.loc 1 1468 3
 2000 0018 8021     		movs	r1, #128
 2001 001a 7868     		ldr	r0, [r7, #4]
 2002 001c FFF7FEFF 		bl	SMBUS_Disable_IRQ
1469:Drivers/STM32L4xx_HAL_Driver/Src/stm32l4xx_hal_smbus.c **** 
1470:Drivers/STM32L4xx_HAL_Driver/Src/stm32l4xx_hal_smbus.c ****   return HAL_OK;
 2003              		.loc 1 1470 10
 2004 0020 0023     		movs	r3, #0
1471:Drivers/STM32L4xx_HAL_Driver/Src/stm32l4xx_hal_smbus.c **** }
 2005              		.loc 1 1471 1
 2006 0022 1846     		mov	r0, r3
 2007 0024 0837     		adds	r7, r7, #8
 2008              		.cfi_def_cfa_offset 8
 2009 0026 BD46     		mov	sp, r7
 2010              		.cfi_def_cfa_register 13
 2011              		@ sp needed
 2012 0028 80BD     		pop	{r7, pc}
 2013              		.cfi_endproc
 2014              	.LFE459:
 2016              		.section	.text.HAL_SMBUS_IsDeviceReady,"ax",%progbits
 2017              		.align	1
 2018              		.global	HAL_SMBUS_IsDeviceReady
 2019              		.syntax unified
 2020              		.thumb
 2021              		.thumb_func
ARM GAS  /tmp/ccysATpZ.s 			page 62


 2023              	HAL_SMBUS_IsDeviceReady:
 2024              	.LFB460:
1472:Drivers/STM32L4xx_HAL_Driver/Src/stm32l4xx_hal_smbus.c **** 
1473:Drivers/STM32L4xx_HAL_Driver/Src/stm32l4xx_hal_smbus.c **** /**
1474:Drivers/STM32L4xx_HAL_Driver/Src/stm32l4xx_hal_smbus.c ****   * @brief  Check if target device is ready for communication.
1475:Drivers/STM32L4xx_HAL_Driver/Src/stm32l4xx_hal_smbus.c ****   * @param  hsmbus Pointer to a SMBUS_HandleTypeDef structure that contains
1476:Drivers/STM32L4xx_HAL_Driver/Src/stm32l4xx_hal_smbus.c ****   *                the configuration information for the specified SMBUS.
1477:Drivers/STM32L4xx_HAL_Driver/Src/stm32l4xx_hal_smbus.c ****   * @param  DevAddress Target device address: The device 7 bits address value
1478:Drivers/STM32L4xx_HAL_Driver/Src/stm32l4xx_hal_smbus.c ****   *         in datasheet must be shifted to the left before calling the interface
1479:Drivers/STM32L4xx_HAL_Driver/Src/stm32l4xx_hal_smbus.c ****   * @param  Trials Number of trials
1480:Drivers/STM32L4xx_HAL_Driver/Src/stm32l4xx_hal_smbus.c ****   * @param  Timeout Timeout duration
1481:Drivers/STM32L4xx_HAL_Driver/Src/stm32l4xx_hal_smbus.c ****   * @retval HAL status
1482:Drivers/STM32L4xx_HAL_Driver/Src/stm32l4xx_hal_smbus.c ****   */
1483:Drivers/STM32L4xx_HAL_Driver/Src/stm32l4xx_hal_smbus.c **** HAL_StatusTypeDef HAL_SMBUS_IsDeviceReady(SMBUS_HandleTypeDef *hsmbus, uint16_t DevAddress, uint32_
1484:Drivers/STM32L4xx_HAL_Driver/Src/stm32l4xx_hal_smbus.c ****                                           uint32_t Timeout)
1485:Drivers/STM32L4xx_HAL_Driver/Src/stm32l4xx_hal_smbus.c **** {
 2025              		.loc 1 1485 1
 2026              		.cfi_startproc
 2027              		@ args = 0, pretend = 0, frame = 32
 2028              		@ frame_needed = 1, uses_anonymous_args = 0
 2029 0000 80B5     		push	{r7, lr}
 2030              		.cfi_def_cfa_offset 8
 2031              		.cfi_offset 7, -8
 2032              		.cfi_offset 14, -4
 2033 0002 88B0     		sub	sp, sp, #32
 2034              		.cfi_def_cfa_offset 40
 2035 0004 00AF     		add	r7, sp, #0
 2036              		.cfi_def_cfa_register 7
 2037 0006 F860     		str	r0, [r7, #12]
 2038 0008 7A60     		str	r2, [r7, #4]
 2039 000a 3B60     		str	r3, [r7]
 2040 000c 0B46     		mov	r3, r1	@ movhi
 2041 000e 7B81     		strh	r3, [r7, #10]	@ movhi
1486:Drivers/STM32L4xx_HAL_Driver/Src/stm32l4xx_hal_smbus.c ****   uint32_t tickstart;
1487:Drivers/STM32L4xx_HAL_Driver/Src/stm32l4xx_hal_smbus.c **** 
1488:Drivers/STM32L4xx_HAL_Driver/Src/stm32l4xx_hal_smbus.c ****   __IO uint32_t SMBUS_Trials = 0UL;
 2042              		.loc 1 1488 17
 2043 0010 0023     		movs	r3, #0
 2044 0012 7B61     		str	r3, [r7, #20]
1489:Drivers/STM32L4xx_HAL_Driver/Src/stm32l4xx_hal_smbus.c **** 
1490:Drivers/STM32L4xx_HAL_Driver/Src/stm32l4xx_hal_smbus.c ****   FlagStatus tmp1;
1491:Drivers/STM32L4xx_HAL_Driver/Src/stm32l4xx_hal_smbus.c ****   FlagStatus tmp2;
1492:Drivers/STM32L4xx_HAL_Driver/Src/stm32l4xx_hal_smbus.c **** 
1493:Drivers/STM32L4xx_HAL_Driver/Src/stm32l4xx_hal_smbus.c ****   if (hsmbus->State == HAL_SMBUS_STATE_READY)
 2045              		.loc 1 1493 13
 2046 0014 FB68     		ldr	r3, [r7, #12]
 2047 0016 9B6C     		ldr	r3, [r3, #72]
 2048              		.loc 1 1493 6
 2049 0018 012B     		cmp	r3, #1
 2050 001a 40F0D080 		bne	.L97
1494:Drivers/STM32L4xx_HAL_Driver/Src/stm32l4xx_hal_smbus.c ****   {
1495:Drivers/STM32L4xx_HAL_Driver/Src/stm32l4xx_hal_smbus.c ****     if (__HAL_SMBUS_GET_FLAG(hsmbus, SMBUS_FLAG_BUSY) != RESET)
 2051              		.loc 1 1495 9
 2052 001e FB68     		ldr	r3, [r7, #12]
 2053 0020 1B68     		ldr	r3, [r3]
 2054 0022 9B69     		ldr	r3, [r3, #24]
 2055 0024 03F40043 		and	r3, r3, #32768
ARM GAS  /tmp/ccysATpZ.s 			page 63


 2056              		.loc 1 1495 8
 2057 0028 B3F5004F 		cmp	r3, #32768
 2058 002c 01D1     		bne	.L98
1496:Drivers/STM32L4xx_HAL_Driver/Src/stm32l4xx_hal_smbus.c ****     {
1497:Drivers/STM32L4xx_HAL_Driver/Src/stm32l4xx_hal_smbus.c ****       return HAL_BUSY;
 2059              		.loc 1 1497 14
 2060 002e 0223     		movs	r3, #2
 2061 0030 C6E0     		b	.L99
 2062              	.L98:
1498:Drivers/STM32L4xx_HAL_Driver/Src/stm32l4xx_hal_smbus.c ****     }
1499:Drivers/STM32L4xx_HAL_Driver/Src/stm32l4xx_hal_smbus.c **** 
1500:Drivers/STM32L4xx_HAL_Driver/Src/stm32l4xx_hal_smbus.c ****     /* Process Locked */
1501:Drivers/STM32L4xx_HAL_Driver/Src/stm32l4xx_hal_smbus.c ****     __HAL_LOCK(hsmbus);
 2063              		.loc 1 1501 5
 2064 0032 FB68     		ldr	r3, [r7, #12]
 2065 0034 93F84430 		ldrb	r3, [r3, #68]	@ zero_extendqisi2
 2066 0038 012B     		cmp	r3, #1
 2067 003a 01D1     		bne	.L100
 2068              		.loc 1 1501 5 is_stmt 0 discriminator 1
 2069 003c 0223     		movs	r3, #2
 2070              		.loc 1 1501 5
 2071 003e BFE0     		b	.L99
 2072              	.L100:
 2073              		.loc 1 1501 5 discriminator 2
 2074 0040 FB68     		ldr	r3, [r7, #12]
 2075 0042 0122     		movs	r2, #1
 2076 0044 83F84420 		strb	r2, [r3, #68]
1502:Drivers/STM32L4xx_HAL_Driver/Src/stm32l4xx_hal_smbus.c **** 
1503:Drivers/STM32L4xx_HAL_Driver/Src/stm32l4xx_hal_smbus.c ****     hsmbus->State = HAL_SMBUS_STATE_BUSY;
 2077              		.loc 1 1503 19 is_stmt 1
 2078 0048 FB68     		ldr	r3, [r7, #12]
 2079 004a 0222     		movs	r2, #2
 2080 004c 9A64     		str	r2, [r3, #72]
1504:Drivers/STM32L4xx_HAL_Driver/Src/stm32l4xx_hal_smbus.c ****     hsmbus->ErrorCode = HAL_SMBUS_ERROR_NONE;
 2081              		.loc 1 1504 23
 2082 004e FB68     		ldr	r3, [r7, #12]
 2083 0050 0022     		movs	r2, #0
 2084 0052 DA64     		str	r2, [r3, #76]
 2085              	.L111:
1505:Drivers/STM32L4xx_HAL_Driver/Src/stm32l4xx_hal_smbus.c **** 
1506:Drivers/STM32L4xx_HAL_Driver/Src/stm32l4xx_hal_smbus.c ****     do
1507:Drivers/STM32L4xx_HAL_Driver/Src/stm32l4xx_hal_smbus.c ****     {
1508:Drivers/STM32L4xx_HAL_Driver/Src/stm32l4xx_hal_smbus.c ****       /* Generate Start */
1509:Drivers/STM32L4xx_HAL_Driver/Src/stm32l4xx_hal_smbus.c ****       hsmbus->Instance->CR2 = SMBUS_GENERATE_START(hsmbus->Init.AddressingMode, DevAddress);
 2086              		.loc 1 1509 31
 2087 0054 FB68     		ldr	r3, [r7, #12]
 2088 0056 1B69     		ldr	r3, [r3, #16]
 2089 0058 012B     		cmp	r3, #1
 2090 005a 07D1     		bne	.L101
 2091              		.loc 1 1509 31 is_stmt 0 discriminator 1
 2092 005c 7B89     		ldrh	r3, [r7, #10]
 2093 005e C3F30903 		ubfx	r3, r3, #0, #10
 2094 0062 43F00073 		orr	r3, r3, #33554432
 2095 0066 43F40053 		orr	r3, r3, #8192
 2096 006a 04E0     		b	.L102
 2097              	.L101:
 2098              		.loc 1 1509 31 discriminator 2
ARM GAS  /tmp/ccysATpZ.s 			page 64


 2099 006c 7B89     		ldrh	r3, [r7, #10]
 2100 006e C3F30903 		ubfx	r3, r3, #0, #10
 2101 0072 43F42053 		orr	r3, r3, #10240
 2102              	.L102:
 2103              		.loc 1 1509 13 is_stmt 1 discriminator 4
 2104 0076 FA68     		ldr	r2, [r7, #12]
 2105 0078 1268     		ldr	r2, [r2]
 2106              		.loc 1 1509 29 discriminator 4
 2107 007a 5360     		str	r3, [r2, #4]
1510:Drivers/STM32L4xx_HAL_Driver/Src/stm32l4xx_hal_smbus.c **** 
1511:Drivers/STM32L4xx_HAL_Driver/Src/stm32l4xx_hal_smbus.c ****       /* No need to Check TC flag, with AUTOEND mode the stop is automatically generated */
1512:Drivers/STM32L4xx_HAL_Driver/Src/stm32l4xx_hal_smbus.c ****       /* Wait until STOPF flag is set or a NACK flag is set*/
1513:Drivers/STM32L4xx_HAL_Driver/Src/stm32l4xx_hal_smbus.c ****       tickstart = HAL_GetTick();
 2108              		.loc 1 1513 19
 2109 007c FFF7FEFF 		bl	HAL_GetTick
 2110 0080 B861     		str	r0, [r7, #24]
1514:Drivers/STM32L4xx_HAL_Driver/Src/stm32l4xx_hal_smbus.c **** 
1515:Drivers/STM32L4xx_HAL_Driver/Src/stm32l4xx_hal_smbus.c ****       tmp1 = __HAL_SMBUS_GET_FLAG(hsmbus, SMBUS_FLAG_STOPF);
 2111              		.loc 1 1515 14
 2112 0082 FB68     		ldr	r3, [r7, #12]
 2113 0084 1B68     		ldr	r3, [r3]
 2114 0086 9B69     		ldr	r3, [r3, #24]
 2115 0088 03F02003 		and	r3, r3, #32
 2116 008c 202B     		cmp	r3, #32
 2117 008e 0CBF     		ite	eq
 2118 0090 0123     		moveq	r3, #1
 2119 0092 0023     		movne	r3, #0
 2120 0094 DBB2     		uxtb	r3, r3
 2121              		.loc 1 1515 12
 2122 0096 FB77     		strb	r3, [r7, #31]
1516:Drivers/STM32L4xx_HAL_Driver/Src/stm32l4xx_hal_smbus.c ****       tmp2 = __HAL_SMBUS_GET_FLAG(hsmbus, SMBUS_FLAG_AF);
 2123              		.loc 1 1516 14
 2124 0098 FB68     		ldr	r3, [r7, #12]
 2125 009a 1B68     		ldr	r3, [r3]
 2126 009c 9B69     		ldr	r3, [r3, #24]
 2127 009e 03F01003 		and	r3, r3, #16
 2128 00a2 102B     		cmp	r3, #16
 2129 00a4 0CBF     		ite	eq
 2130 00a6 0123     		moveq	r3, #1
 2131 00a8 0023     		movne	r3, #0
 2132 00aa DBB2     		uxtb	r3, r3
 2133              		.loc 1 1516 12
 2134 00ac BB77     		strb	r3, [r7, #30]
1517:Drivers/STM32L4xx_HAL_Driver/Src/stm32l4xx_hal_smbus.c **** 
1518:Drivers/STM32L4xx_HAL_Driver/Src/stm32l4xx_hal_smbus.c ****       while ((tmp1 == RESET) && (tmp2 == RESET))
 2135              		.loc 1 1518 13
 2136 00ae 33E0     		b	.L103
 2137              	.L107:
1519:Drivers/STM32L4xx_HAL_Driver/Src/stm32l4xx_hal_smbus.c ****       {
1520:Drivers/STM32L4xx_HAL_Driver/Src/stm32l4xx_hal_smbus.c ****         if (Timeout != HAL_MAX_DELAY)
 2138              		.loc 1 1520 12
 2139 00b0 3B68     		ldr	r3, [r7]
 2140 00b2 B3F1FF3F 		cmp	r3, #-1
 2141 00b6 19D0     		beq	.L104
1521:Drivers/STM32L4xx_HAL_Driver/Src/stm32l4xx_hal_smbus.c ****         {
1522:Drivers/STM32L4xx_HAL_Driver/Src/stm32l4xx_hal_smbus.c ****           if (((HAL_GetTick() - tickstart) > Timeout) || (Timeout == 0UL))
 2142              		.loc 1 1522 17
ARM GAS  /tmp/ccysATpZ.s 			page 65


 2143 00b8 FFF7FEFF 		bl	HAL_GetTick
 2144 00bc 0246     		mov	r2, r0
 2145              		.loc 1 1522 31 discriminator 1
 2146 00be BB69     		ldr	r3, [r7, #24]
 2147 00c0 D31A     		subs	r3, r2, r3
 2148              		.loc 1 1522 14 discriminator 1
 2149 00c2 3A68     		ldr	r2, [r7]
 2150 00c4 9A42     		cmp	r2, r3
 2151 00c6 02D3     		bcc	.L105
 2152              		.loc 1 1522 55 discriminator 1
 2153 00c8 3B68     		ldr	r3, [r7]
 2154 00ca 002B     		cmp	r3, #0
 2155 00cc 0ED1     		bne	.L104
 2156              	.L105:
1523:Drivers/STM32L4xx_HAL_Driver/Src/stm32l4xx_hal_smbus.c ****           {
1524:Drivers/STM32L4xx_HAL_Driver/Src/stm32l4xx_hal_smbus.c ****             /* Device is ready */
1525:Drivers/STM32L4xx_HAL_Driver/Src/stm32l4xx_hal_smbus.c ****             hsmbus->State = HAL_SMBUS_STATE_READY;
 2157              		.loc 1 1525 27
 2158 00ce FB68     		ldr	r3, [r7, #12]
 2159 00d0 0122     		movs	r2, #1
 2160 00d2 9A64     		str	r2, [r3, #72]
1526:Drivers/STM32L4xx_HAL_Driver/Src/stm32l4xx_hal_smbus.c **** 
1527:Drivers/STM32L4xx_HAL_Driver/Src/stm32l4xx_hal_smbus.c ****             /* Update SMBUS error code */
1528:Drivers/STM32L4xx_HAL_Driver/Src/stm32l4xx_hal_smbus.c ****             hsmbus->ErrorCode |= HAL_SMBUS_ERROR_HALTIMEOUT;
 2161              		.loc 1 1528 19
 2162 00d4 FB68     		ldr	r3, [r7, #12]
 2163 00d6 DB6C     		ldr	r3, [r3, #76]
 2164              		.loc 1 1528 31
 2165 00d8 43F01002 		orr	r2, r3, #16
 2166 00dc FB68     		ldr	r3, [r7, #12]
 2167 00de DA64     		str	r2, [r3, #76]
1529:Drivers/STM32L4xx_HAL_Driver/Src/stm32l4xx_hal_smbus.c **** 
1530:Drivers/STM32L4xx_HAL_Driver/Src/stm32l4xx_hal_smbus.c ****             /* Process Unlocked */
1531:Drivers/STM32L4xx_HAL_Driver/Src/stm32l4xx_hal_smbus.c ****             __HAL_UNLOCK(hsmbus);
 2168              		.loc 1 1531 13
 2169 00e0 FB68     		ldr	r3, [r7, #12]
 2170 00e2 0022     		movs	r2, #0
 2171 00e4 83F84420 		strb	r2, [r3, #68]
1532:Drivers/STM32L4xx_HAL_Driver/Src/stm32l4xx_hal_smbus.c ****             return HAL_ERROR;
 2172              		.loc 1 1532 20
 2173 00e8 0123     		movs	r3, #1
 2174 00ea 69E0     		b	.L99
 2175              	.L104:
1533:Drivers/STM32L4xx_HAL_Driver/Src/stm32l4xx_hal_smbus.c ****           }
1534:Drivers/STM32L4xx_HAL_Driver/Src/stm32l4xx_hal_smbus.c ****         }
1535:Drivers/STM32L4xx_HAL_Driver/Src/stm32l4xx_hal_smbus.c **** 
1536:Drivers/STM32L4xx_HAL_Driver/Src/stm32l4xx_hal_smbus.c ****         tmp1 = __HAL_SMBUS_GET_FLAG(hsmbus, SMBUS_FLAG_STOPF);
 2176              		.loc 1 1536 16
 2177 00ec FB68     		ldr	r3, [r7, #12]
 2178 00ee 1B68     		ldr	r3, [r3]
 2179 00f0 9B69     		ldr	r3, [r3, #24]
 2180 00f2 03F02003 		and	r3, r3, #32
 2181 00f6 202B     		cmp	r3, #32
 2182 00f8 0CBF     		ite	eq
 2183 00fa 0123     		moveq	r3, #1
 2184 00fc 0023     		movne	r3, #0
 2185 00fe DBB2     		uxtb	r3, r3
ARM GAS  /tmp/ccysATpZ.s 			page 66


 2186              		.loc 1 1536 14
 2187 0100 FB77     		strb	r3, [r7, #31]
1537:Drivers/STM32L4xx_HAL_Driver/Src/stm32l4xx_hal_smbus.c ****         tmp2 = __HAL_SMBUS_GET_FLAG(hsmbus, SMBUS_FLAG_AF);
 2188              		.loc 1 1537 16
 2189 0102 FB68     		ldr	r3, [r7, #12]
 2190 0104 1B68     		ldr	r3, [r3]
 2191 0106 9B69     		ldr	r3, [r3, #24]
 2192 0108 03F01003 		and	r3, r3, #16
 2193 010c 102B     		cmp	r3, #16
 2194 010e 0CBF     		ite	eq
 2195 0110 0123     		moveq	r3, #1
 2196 0112 0023     		movne	r3, #0
 2197 0114 DBB2     		uxtb	r3, r3
 2198              		.loc 1 1537 14
 2199 0116 BB77     		strb	r3, [r7, #30]
 2200              	.L103:
1518:Drivers/STM32L4xx_HAL_Driver/Src/stm32l4xx_hal_smbus.c ****       {
 2201              		.loc 1 1518 30
 2202 0118 FB7F     		ldrb	r3, [r7, #31]	@ zero_extendqisi2
 2203 011a 002B     		cmp	r3, #0
 2204 011c 02D1     		bne	.L106
1518:Drivers/STM32L4xx_HAL_Driver/Src/stm32l4xx_hal_smbus.c ****       {
 2205              		.loc 1 1518 30 is_stmt 0 discriminator 1
 2206 011e BB7F     		ldrb	r3, [r7, #30]	@ zero_extendqisi2
 2207 0120 002B     		cmp	r3, #0
 2208 0122 C5D0     		beq	.L107
 2209              	.L106:
1538:Drivers/STM32L4xx_HAL_Driver/Src/stm32l4xx_hal_smbus.c ****       }
1539:Drivers/STM32L4xx_HAL_Driver/Src/stm32l4xx_hal_smbus.c **** 
1540:Drivers/STM32L4xx_HAL_Driver/Src/stm32l4xx_hal_smbus.c ****       /* Check if the NACKF flag has not been set */
1541:Drivers/STM32L4xx_HAL_Driver/Src/stm32l4xx_hal_smbus.c ****       if (__HAL_SMBUS_GET_FLAG(hsmbus, SMBUS_FLAG_AF) == RESET)
 2210              		.loc 1 1541 11 is_stmt 1
 2211 0124 FB68     		ldr	r3, [r7, #12]
 2212 0126 1B68     		ldr	r3, [r3]
 2213 0128 9B69     		ldr	r3, [r3, #24]
 2214 012a 03F01003 		and	r3, r3, #16
 2215              		.loc 1 1541 10
 2216 012e 102B     		cmp	r3, #16
 2217 0130 1DD0     		beq	.L108
1542:Drivers/STM32L4xx_HAL_Driver/Src/stm32l4xx_hal_smbus.c ****       {
1543:Drivers/STM32L4xx_HAL_Driver/Src/stm32l4xx_hal_smbus.c ****         /* Wait until STOPF flag is reset */
1544:Drivers/STM32L4xx_HAL_Driver/Src/stm32l4xx_hal_smbus.c ****         if (SMBUS_WaitOnFlagUntilTimeout(hsmbus, SMBUS_FLAG_STOPF, RESET, Timeout) != HAL_OK)
 2218              		.loc 1 1544 13
 2219 0132 3B68     		ldr	r3, [r7]
 2220 0134 0022     		movs	r2, #0
 2221 0136 2021     		movs	r1, #32
 2222 0138 F868     		ldr	r0, [r7, #12]
 2223 013a FFF7FEFF 		bl	SMBUS_WaitOnFlagUntilTimeout
 2224 013e 0346     		mov	r3, r0
 2225              		.loc 1 1544 12 discriminator 1
 2226 0140 002B     		cmp	r3, #0
 2227 0142 07D0     		beq	.L109
1545:Drivers/STM32L4xx_HAL_Driver/Src/stm32l4xx_hal_smbus.c ****         {
1546:Drivers/STM32L4xx_HAL_Driver/Src/stm32l4xx_hal_smbus.c ****           /* A non acknowledge appear during STOP Flag waiting process, a new trial must be perform
1547:Drivers/STM32L4xx_HAL_Driver/Src/stm32l4xx_hal_smbus.c ****           /* Clear STOP Flag */
1548:Drivers/STM32L4xx_HAL_Driver/Src/stm32l4xx_hal_smbus.c ****           __HAL_SMBUS_CLEAR_FLAG(hsmbus, SMBUS_FLAG_STOPF);
 2228              		.loc 1 1548 11
ARM GAS  /tmp/ccysATpZ.s 			page 67


 2229 0144 FB68     		ldr	r3, [r7, #12]
 2230 0146 1B68     		ldr	r3, [r3]
 2231 0148 2022     		movs	r2, #32
 2232 014a DA61     		str	r2, [r3, #28]
1549:Drivers/STM32L4xx_HAL_Driver/Src/stm32l4xx_hal_smbus.c **** 
1550:Drivers/STM32L4xx_HAL_Driver/Src/stm32l4xx_hal_smbus.c ****           /* Reset the error code for next trial */
1551:Drivers/STM32L4xx_HAL_Driver/Src/stm32l4xx_hal_smbus.c ****           hsmbus->ErrorCode = HAL_SMBUS_ERROR_NONE;
 2233              		.loc 1 1551 29
 2234 014c FB68     		ldr	r3, [r7, #12]
 2235 014e 0022     		movs	r2, #0
 2236 0150 DA64     		str	r2, [r3, #76]
 2237 0152 1DE0     		b	.L110
 2238              	.L109:
1552:Drivers/STM32L4xx_HAL_Driver/Src/stm32l4xx_hal_smbus.c ****         }
1553:Drivers/STM32L4xx_HAL_Driver/Src/stm32l4xx_hal_smbus.c ****         else
1554:Drivers/STM32L4xx_HAL_Driver/Src/stm32l4xx_hal_smbus.c ****         {
1555:Drivers/STM32L4xx_HAL_Driver/Src/stm32l4xx_hal_smbus.c ****           /* A acknowledge appear during STOP Flag waiting process, this mean that device respond t
1556:Drivers/STM32L4xx_HAL_Driver/Src/stm32l4xx_hal_smbus.c **** 
1557:Drivers/STM32L4xx_HAL_Driver/Src/stm32l4xx_hal_smbus.c ****           /* Clear STOP Flag */
1558:Drivers/STM32L4xx_HAL_Driver/Src/stm32l4xx_hal_smbus.c ****           __HAL_SMBUS_CLEAR_FLAG(hsmbus, SMBUS_FLAG_STOPF);
 2239              		.loc 1 1558 11
 2240 0154 FB68     		ldr	r3, [r7, #12]
 2241 0156 1B68     		ldr	r3, [r3]
 2242 0158 2022     		movs	r2, #32
 2243 015a DA61     		str	r2, [r3, #28]
1559:Drivers/STM32L4xx_HAL_Driver/Src/stm32l4xx_hal_smbus.c **** 
1560:Drivers/STM32L4xx_HAL_Driver/Src/stm32l4xx_hal_smbus.c ****           /* Device is ready */
1561:Drivers/STM32L4xx_HAL_Driver/Src/stm32l4xx_hal_smbus.c ****           hsmbus->State = HAL_SMBUS_STATE_READY;
 2244              		.loc 1 1561 25
 2245 015c FB68     		ldr	r3, [r7, #12]
 2246 015e 0122     		movs	r2, #1
 2247 0160 9A64     		str	r2, [r3, #72]
1562:Drivers/STM32L4xx_HAL_Driver/Src/stm32l4xx_hal_smbus.c **** 
1563:Drivers/STM32L4xx_HAL_Driver/Src/stm32l4xx_hal_smbus.c ****           /* Process Unlocked */
1564:Drivers/STM32L4xx_HAL_Driver/Src/stm32l4xx_hal_smbus.c ****           __HAL_UNLOCK(hsmbus);
 2248              		.loc 1 1564 11
 2249 0162 FB68     		ldr	r3, [r7, #12]
 2250 0164 0022     		movs	r2, #0
 2251 0166 83F84420 		strb	r2, [r3, #68]
1565:Drivers/STM32L4xx_HAL_Driver/Src/stm32l4xx_hal_smbus.c **** 
1566:Drivers/STM32L4xx_HAL_Driver/Src/stm32l4xx_hal_smbus.c ****           return HAL_OK;
 2252              		.loc 1 1566 18
 2253 016a 0023     		movs	r3, #0
 2254 016c 28E0     		b	.L99
 2255              	.L108:
1567:Drivers/STM32L4xx_HAL_Driver/Src/stm32l4xx_hal_smbus.c ****         }
1568:Drivers/STM32L4xx_HAL_Driver/Src/stm32l4xx_hal_smbus.c ****       }
1569:Drivers/STM32L4xx_HAL_Driver/Src/stm32l4xx_hal_smbus.c ****       else
1570:Drivers/STM32L4xx_HAL_Driver/Src/stm32l4xx_hal_smbus.c ****       {
1571:Drivers/STM32L4xx_HAL_Driver/Src/stm32l4xx_hal_smbus.c ****         /* A non acknowledge is detected, this mean that device not respond to its address,
1572:Drivers/STM32L4xx_HAL_Driver/Src/stm32l4xx_hal_smbus.c ****            a new trial must be performed */
1573:Drivers/STM32L4xx_HAL_Driver/Src/stm32l4xx_hal_smbus.c **** 
1574:Drivers/STM32L4xx_HAL_Driver/Src/stm32l4xx_hal_smbus.c ****         /* Clear NACK Flag */
1575:Drivers/STM32L4xx_HAL_Driver/Src/stm32l4xx_hal_smbus.c ****         __HAL_SMBUS_CLEAR_FLAG(hsmbus, SMBUS_FLAG_AF);
 2256              		.loc 1 1575 9
 2257 016e FB68     		ldr	r3, [r7, #12]
 2258 0170 1B68     		ldr	r3, [r3]
ARM GAS  /tmp/ccysATpZ.s 			page 68


 2259 0172 1022     		movs	r2, #16
 2260 0174 DA61     		str	r2, [r3, #28]
1576:Drivers/STM32L4xx_HAL_Driver/Src/stm32l4xx_hal_smbus.c **** 
1577:Drivers/STM32L4xx_HAL_Driver/Src/stm32l4xx_hal_smbus.c ****         /* Wait until STOPF flag is reset */
1578:Drivers/STM32L4xx_HAL_Driver/Src/stm32l4xx_hal_smbus.c ****         if (SMBUS_WaitOnFlagUntilTimeout(hsmbus, SMBUS_FLAG_STOPF, RESET, Timeout) == HAL_OK)
 2261              		.loc 1 1578 13
 2262 0176 3B68     		ldr	r3, [r7]
 2263 0178 0022     		movs	r2, #0
 2264 017a 2021     		movs	r1, #32
 2265 017c F868     		ldr	r0, [r7, #12]
 2266 017e FFF7FEFF 		bl	SMBUS_WaitOnFlagUntilTimeout
 2267 0182 0346     		mov	r3, r0
 2268              		.loc 1 1578 12 discriminator 1
 2269 0184 002B     		cmp	r3, #0
 2270 0186 03D1     		bne	.L110
1579:Drivers/STM32L4xx_HAL_Driver/Src/stm32l4xx_hal_smbus.c ****         {
1580:Drivers/STM32L4xx_HAL_Driver/Src/stm32l4xx_hal_smbus.c ****           /* Clear STOP Flag, auto generated with autoend*/
1581:Drivers/STM32L4xx_HAL_Driver/Src/stm32l4xx_hal_smbus.c ****           __HAL_SMBUS_CLEAR_FLAG(hsmbus, SMBUS_FLAG_STOPF);
 2271              		.loc 1 1581 11
 2272 0188 FB68     		ldr	r3, [r7, #12]
 2273 018a 1B68     		ldr	r3, [r3]
 2274 018c 2022     		movs	r2, #32
 2275 018e DA61     		str	r2, [r3, #28]
 2276              	.L110:
1582:Drivers/STM32L4xx_HAL_Driver/Src/stm32l4xx_hal_smbus.c ****         }
1583:Drivers/STM32L4xx_HAL_Driver/Src/stm32l4xx_hal_smbus.c ****       }
1584:Drivers/STM32L4xx_HAL_Driver/Src/stm32l4xx_hal_smbus.c **** 
1585:Drivers/STM32L4xx_HAL_Driver/Src/stm32l4xx_hal_smbus.c ****       /* Increment Trials */
1586:Drivers/STM32L4xx_HAL_Driver/Src/stm32l4xx_hal_smbus.c ****       SMBUS_Trials++;
 2277              		.loc 1 1586 19
 2278 0190 7B69     		ldr	r3, [r7, #20]
 2279 0192 0133     		adds	r3, r3, #1
 2280 0194 7B61     		str	r3, [r7, #20]
1587:Drivers/STM32L4xx_HAL_Driver/Src/stm32l4xx_hal_smbus.c ****     } while (SMBUS_Trials < Trials);
 2281              		.loc 1 1587 27
 2282 0196 7B69     		ldr	r3, [r7, #20]
 2283 0198 7A68     		ldr	r2, [r7, #4]
 2284 019a 9A42     		cmp	r2, r3
 2285 019c 3FF65AAF 		bhi	.L111
1588:Drivers/STM32L4xx_HAL_Driver/Src/stm32l4xx_hal_smbus.c **** 
1589:Drivers/STM32L4xx_HAL_Driver/Src/stm32l4xx_hal_smbus.c ****     /* Update SMBUS state */
1590:Drivers/STM32L4xx_HAL_Driver/Src/stm32l4xx_hal_smbus.c ****     hsmbus->State = HAL_SMBUS_STATE_READY;
 2286              		.loc 1 1590 19
 2287 01a0 FB68     		ldr	r3, [r7, #12]
 2288 01a2 0122     		movs	r2, #1
 2289 01a4 9A64     		str	r2, [r3, #72]
1591:Drivers/STM32L4xx_HAL_Driver/Src/stm32l4xx_hal_smbus.c **** 
1592:Drivers/STM32L4xx_HAL_Driver/Src/stm32l4xx_hal_smbus.c ****     /* Update SMBUS error code */
1593:Drivers/STM32L4xx_HAL_Driver/Src/stm32l4xx_hal_smbus.c ****     hsmbus->ErrorCode |= HAL_SMBUS_ERROR_HALTIMEOUT;
 2290              		.loc 1 1593 11
 2291 01a6 FB68     		ldr	r3, [r7, #12]
 2292 01a8 DB6C     		ldr	r3, [r3, #76]
 2293              		.loc 1 1593 23
 2294 01aa 43F01002 		orr	r2, r3, #16
 2295 01ae FB68     		ldr	r3, [r7, #12]
 2296 01b0 DA64     		str	r2, [r3, #76]
1594:Drivers/STM32L4xx_HAL_Driver/Src/stm32l4xx_hal_smbus.c **** 
ARM GAS  /tmp/ccysATpZ.s 			page 69


1595:Drivers/STM32L4xx_HAL_Driver/Src/stm32l4xx_hal_smbus.c ****     /* Process Unlocked */
1596:Drivers/STM32L4xx_HAL_Driver/Src/stm32l4xx_hal_smbus.c ****     __HAL_UNLOCK(hsmbus);
 2297              		.loc 1 1596 5
 2298 01b2 FB68     		ldr	r3, [r7, #12]
 2299 01b4 0022     		movs	r2, #0
 2300 01b6 83F84420 		strb	r2, [r3, #68]
1597:Drivers/STM32L4xx_HAL_Driver/Src/stm32l4xx_hal_smbus.c **** 
1598:Drivers/STM32L4xx_HAL_Driver/Src/stm32l4xx_hal_smbus.c ****     return HAL_ERROR;
 2301              		.loc 1 1598 12
 2302 01ba 0123     		movs	r3, #1
 2303 01bc 00E0     		b	.L99
 2304              	.L97:
1599:Drivers/STM32L4xx_HAL_Driver/Src/stm32l4xx_hal_smbus.c ****   }
1600:Drivers/STM32L4xx_HAL_Driver/Src/stm32l4xx_hal_smbus.c ****   else
1601:Drivers/STM32L4xx_HAL_Driver/Src/stm32l4xx_hal_smbus.c ****   {
1602:Drivers/STM32L4xx_HAL_Driver/Src/stm32l4xx_hal_smbus.c ****     return HAL_BUSY;
 2305              		.loc 1 1602 12
 2306 01be 0223     		movs	r3, #2
 2307              	.L99:
1603:Drivers/STM32L4xx_HAL_Driver/Src/stm32l4xx_hal_smbus.c ****   }
1604:Drivers/STM32L4xx_HAL_Driver/Src/stm32l4xx_hal_smbus.c **** }
 2308              		.loc 1 1604 1
 2309 01c0 1846     		mov	r0, r3
 2310 01c2 2037     		adds	r7, r7, #32
 2311              		.cfi_def_cfa_offset 8
 2312 01c4 BD46     		mov	sp, r7
 2313              		.cfi_def_cfa_register 13
 2314              		@ sp needed
 2315 01c6 80BD     		pop	{r7, pc}
 2316              		.cfi_endproc
 2317              	.LFE460:
 2319              		.section	.text.HAL_SMBUS_EV_IRQHandler,"ax",%progbits
 2320              		.align	1
 2321              		.global	HAL_SMBUS_EV_IRQHandler
 2322              		.syntax unified
 2323              		.thumb
 2324              		.thumb_func
 2326              	HAL_SMBUS_EV_IRQHandler:
 2327              	.LFB461:
1605:Drivers/STM32L4xx_HAL_Driver/Src/stm32l4xx_hal_smbus.c **** /**
1606:Drivers/STM32L4xx_HAL_Driver/Src/stm32l4xx_hal_smbus.c ****   * @}
1607:Drivers/STM32L4xx_HAL_Driver/Src/stm32l4xx_hal_smbus.c ****   */
1608:Drivers/STM32L4xx_HAL_Driver/Src/stm32l4xx_hal_smbus.c **** 
1609:Drivers/STM32L4xx_HAL_Driver/Src/stm32l4xx_hal_smbus.c **** /** @defgroup SMBUS_IRQ_Handler_and_Callbacks IRQ Handler and Callbacks
1610:Drivers/STM32L4xx_HAL_Driver/Src/stm32l4xx_hal_smbus.c ****   * @{
1611:Drivers/STM32L4xx_HAL_Driver/Src/stm32l4xx_hal_smbus.c ****   */
1612:Drivers/STM32L4xx_HAL_Driver/Src/stm32l4xx_hal_smbus.c **** 
1613:Drivers/STM32L4xx_HAL_Driver/Src/stm32l4xx_hal_smbus.c **** /**
1614:Drivers/STM32L4xx_HAL_Driver/Src/stm32l4xx_hal_smbus.c ****   * @brief  Handle SMBUS event interrupt request.
1615:Drivers/STM32L4xx_HAL_Driver/Src/stm32l4xx_hal_smbus.c ****   * @param  hsmbus Pointer to a SMBUS_HandleTypeDef structure that contains
1616:Drivers/STM32L4xx_HAL_Driver/Src/stm32l4xx_hal_smbus.c ****   *                the configuration information for the specified SMBUS.
1617:Drivers/STM32L4xx_HAL_Driver/Src/stm32l4xx_hal_smbus.c ****   * @retval None
1618:Drivers/STM32L4xx_HAL_Driver/Src/stm32l4xx_hal_smbus.c ****   */
1619:Drivers/STM32L4xx_HAL_Driver/Src/stm32l4xx_hal_smbus.c **** void HAL_SMBUS_EV_IRQHandler(SMBUS_HandleTypeDef *hsmbus)
1620:Drivers/STM32L4xx_HAL_Driver/Src/stm32l4xx_hal_smbus.c **** {
 2328              		.loc 1 1620 1
 2329              		.cfi_startproc
ARM GAS  /tmp/ccysATpZ.s 			page 70


 2330              		@ args = 0, pretend = 0, frame = 16
 2331              		@ frame_needed = 1, uses_anonymous_args = 0
 2332 0000 80B5     		push	{r7, lr}
 2333              		.cfi_def_cfa_offset 8
 2334              		.cfi_offset 7, -8
 2335              		.cfi_offset 14, -4
 2336 0002 84B0     		sub	sp, sp, #16
 2337              		.cfi_def_cfa_offset 24
 2338 0004 00AF     		add	r7, sp, #0
 2339              		.cfi_def_cfa_register 7
 2340 0006 7860     		str	r0, [r7, #4]
1621:Drivers/STM32L4xx_HAL_Driver/Src/stm32l4xx_hal_smbus.c ****   /* Use a local variable to store the current ISR flags */
1622:Drivers/STM32L4xx_HAL_Driver/Src/stm32l4xx_hal_smbus.c ****   /* This action will avoid a wrong treatment due to ISR flags change during interrupt handler */
1623:Drivers/STM32L4xx_HAL_Driver/Src/stm32l4xx_hal_smbus.c ****   uint32_t tmpisrvalue = READ_REG(hsmbus->Instance->ISR);
 2341              		.loc 1 1623 26
 2342 0008 7B68     		ldr	r3, [r7, #4]
 2343 000a 1B68     		ldr	r3, [r3]
 2344              		.loc 1 1623 12
 2345 000c 9B69     		ldr	r3, [r3, #24]
 2346 000e FB60     		str	r3, [r7, #12]
1624:Drivers/STM32L4xx_HAL_Driver/Src/stm32l4xx_hal_smbus.c ****   uint32_t tmpcr1value = READ_REG(hsmbus->Instance->CR1);
 2347              		.loc 1 1624 26
 2348 0010 7B68     		ldr	r3, [r7, #4]
 2349 0012 1B68     		ldr	r3, [r3]
 2350              		.loc 1 1624 12
 2351 0014 1B68     		ldr	r3, [r3]
 2352 0016 BB60     		str	r3, [r7, #8]
1625:Drivers/STM32L4xx_HAL_Driver/Src/stm32l4xx_hal_smbus.c **** 
1626:Drivers/STM32L4xx_HAL_Driver/Src/stm32l4xx_hal_smbus.c ****   /* SMBUS in mode Transmitter ---------------------------------------------------*/
1627:Drivers/STM32L4xx_HAL_Driver/Src/stm32l4xx_hal_smbus.c ****   if ((SMBUS_CHECK_IT_SOURCE(tmpcr1value, (SMBUS_IT_TCI | SMBUS_IT_STOPI |
 2353              		.loc 1 1627 8
 2354 0018 BB68     		ldr	r3, [r7, #8]
 2355 001a 03F07203 		and	r3, r3, #114
 2356              		.loc 1 1627 6
 2357 001e 722B     		cmp	r3, #114
 2358 0020 32D1     		bne	.L113
1628:Drivers/STM32L4xx_HAL_Driver/Src/stm32l4xx_hal_smbus.c ****                                            SMBUS_IT_NACKI | SMBUS_IT_TXI)) != RESET) &&
1629:Drivers/STM32L4xx_HAL_Driver/Src/stm32l4xx_hal_smbus.c ****       ((SMBUS_CHECK_FLAG(tmpisrvalue, SMBUS_FLAG_TXIS) != RESET) ||
 2359              		.loc 1 1629 9
 2360 0022 FB68     		ldr	r3, [r7, #12]
 2361 0024 5B08     		lsrs	r3, r3, #1
 2362 0026 03F00103 		and	r3, r3, #1
1628:Drivers/STM32L4xx_HAL_Driver/Src/stm32l4xx_hal_smbus.c ****                                            SMBUS_IT_NACKI | SMBUS_IT_TXI)) != RESET) &&
 2363              		.loc 1 1628 86
 2364 002a 002B     		cmp	r3, #0
 2365 002c 17D1     		bne	.L114
1630:Drivers/STM32L4xx_HAL_Driver/Src/stm32l4xx_hal_smbus.c ****        (SMBUS_CHECK_FLAG(tmpisrvalue, SMBUS_FLAG_TCR) != RESET) ||
 2366              		.loc 1 1630 9
 2367 002e FB68     		ldr	r3, [r7, #12]
 2368 0030 DB09     		lsrs	r3, r3, #7
 2369 0032 03F00103 		and	r3, r3, #1
1629:Drivers/STM32L4xx_HAL_Driver/Src/stm32l4xx_hal_smbus.c ****        (SMBUS_CHECK_FLAG(tmpisrvalue, SMBUS_FLAG_TCR) != RESET) ||
 2370              		.loc 1 1629 66
 2371 0036 002B     		cmp	r3, #0
 2372 0038 11D1     		bne	.L114
1631:Drivers/STM32L4xx_HAL_Driver/Src/stm32l4xx_hal_smbus.c ****        (SMBUS_CHECK_FLAG(tmpisrvalue, SMBUS_FLAG_TC) != RESET) ||
 2373              		.loc 1 1631 9
ARM GAS  /tmp/ccysATpZ.s 			page 71


 2374 003a FB68     		ldr	r3, [r7, #12]
 2375 003c 9B09     		lsrs	r3, r3, #6
 2376 003e 03F00103 		and	r3, r3, #1
1630:Drivers/STM32L4xx_HAL_Driver/Src/stm32l4xx_hal_smbus.c ****        (SMBUS_CHECK_FLAG(tmpisrvalue, SMBUS_FLAG_TCR) != RESET) ||
 2377              		.loc 1 1630 65
 2378 0042 002B     		cmp	r3, #0
 2379 0044 0BD1     		bne	.L114
1632:Drivers/STM32L4xx_HAL_Driver/Src/stm32l4xx_hal_smbus.c ****        (SMBUS_CHECK_FLAG(tmpisrvalue, SMBUS_FLAG_STOPF) != RESET) ||
 2380              		.loc 1 1632 9
 2381 0046 FB68     		ldr	r3, [r7, #12]
 2382 0048 5B09     		lsrs	r3, r3, #5
 2383 004a 03F00103 		and	r3, r3, #1
1631:Drivers/STM32L4xx_HAL_Driver/Src/stm32l4xx_hal_smbus.c ****        (SMBUS_CHECK_FLAG(tmpisrvalue, SMBUS_FLAG_TC) != RESET) ||
 2384              		.loc 1 1631 64
 2385 004e 002B     		cmp	r3, #0
 2386 0050 05D1     		bne	.L114
1633:Drivers/STM32L4xx_HAL_Driver/Src/stm32l4xx_hal_smbus.c ****        (SMBUS_CHECK_FLAG(tmpisrvalue, SMBUS_FLAG_AF) != RESET)))
 2387              		.loc 1 1633 9
 2388 0052 FB68     		ldr	r3, [r7, #12]
 2389 0054 1B09     		lsrs	r3, r3, #4
 2390 0056 03F00103 		and	r3, r3, #1
1632:Drivers/STM32L4xx_HAL_Driver/Src/stm32l4xx_hal_smbus.c ****        (SMBUS_CHECK_FLAG(tmpisrvalue, SMBUS_FLAG_STOPF) != RESET) ||
 2391              		.loc 1 1632 67
 2392 005a 002B     		cmp	r3, #0
 2393 005c 14D0     		beq	.L113
 2394              	.L114:
1634:Drivers/STM32L4xx_HAL_Driver/Src/stm32l4xx_hal_smbus.c ****   {
1635:Drivers/STM32L4xx_HAL_Driver/Src/stm32l4xx_hal_smbus.c ****     /* Slave mode selected */
1636:Drivers/STM32L4xx_HAL_Driver/Src/stm32l4xx_hal_smbus.c ****     if ((hsmbus->State & HAL_SMBUS_STATE_SLAVE_BUSY_TX) == HAL_SMBUS_STATE_SLAVE_BUSY_TX)
 2395              		.loc 1 1636 16
 2396 005e 7B68     		ldr	r3, [r7, #4]
 2397 0060 9B6C     		ldr	r3, [r3, #72]
 2398              		.loc 1 1636 24
 2399 0062 03F03203 		and	r3, r3, #50
 2400              		.loc 1 1636 8
 2401 0066 322B     		cmp	r3, #50
 2402 0068 04D1     		bne	.L115
1637:Drivers/STM32L4xx_HAL_Driver/Src/stm32l4xx_hal_smbus.c ****     {
1638:Drivers/STM32L4xx_HAL_Driver/Src/stm32l4xx_hal_smbus.c ****       (void)SMBUS_Slave_ISR(hsmbus, tmpisrvalue);
 2403              		.loc 1 1638 13
 2404 006a F968     		ldr	r1, [r7, #12]
 2405 006c 7868     		ldr	r0, [r7, #4]
 2406 006e FFF7FEFF 		bl	SMBUS_Slave_ISR
 2407 0072 09E0     		b	.L113
 2408              	.L115:
1639:Drivers/STM32L4xx_HAL_Driver/Src/stm32l4xx_hal_smbus.c ****     }
1640:Drivers/STM32L4xx_HAL_Driver/Src/stm32l4xx_hal_smbus.c ****     /* Master mode selected */
1641:Drivers/STM32L4xx_HAL_Driver/Src/stm32l4xx_hal_smbus.c ****     else if ((hsmbus->State & HAL_SMBUS_STATE_MASTER_BUSY_TX) == HAL_SMBUS_STATE_MASTER_BUSY_TX)
 2409              		.loc 1 1641 21
 2410 0074 7B68     		ldr	r3, [r7, #4]
 2411 0076 9B6C     		ldr	r3, [r3, #72]
 2412              		.loc 1 1641 29
 2413 0078 03F01203 		and	r3, r3, #18
 2414              		.loc 1 1641 13
 2415 007c 122B     		cmp	r3, #18
 2416 007e 03D1     		bne	.L113
1642:Drivers/STM32L4xx_HAL_Driver/Src/stm32l4xx_hal_smbus.c ****     {
ARM GAS  /tmp/ccysATpZ.s 			page 72


1643:Drivers/STM32L4xx_HAL_Driver/Src/stm32l4xx_hal_smbus.c ****       (void)SMBUS_Master_ISR(hsmbus, tmpisrvalue);
 2417              		.loc 1 1643 13
 2418 0080 F968     		ldr	r1, [r7, #12]
 2419 0082 7868     		ldr	r0, [r7, #4]
 2420 0084 FFF7FEFF 		bl	SMBUS_Master_ISR
 2421              	.L113:
1644:Drivers/STM32L4xx_HAL_Driver/Src/stm32l4xx_hal_smbus.c ****     }
1645:Drivers/STM32L4xx_HAL_Driver/Src/stm32l4xx_hal_smbus.c ****     else
1646:Drivers/STM32L4xx_HAL_Driver/Src/stm32l4xx_hal_smbus.c ****     {
1647:Drivers/STM32L4xx_HAL_Driver/Src/stm32l4xx_hal_smbus.c ****       /* Nothing to do */
1648:Drivers/STM32L4xx_HAL_Driver/Src/stm32l4xx_hal_smbus.c ****     }
1649:Drivers/STM32L4xx_HAL_Driver/Src/stm32l4xx_hal_smbus.c ****   }
1650:Drivers/STM32L4xx_HAL_Driver/Src/stm32l4xx_hal_smbus.c **** 
1651:Drivers/STM32L4xx_HAL_Driver/Src/stm32l4xx_hal_smbus.c ****   /* SMBUS in mode Receiver ----------------------------------------------------*/
1652:Drivers/STM32L4xx_HAL_Driver/Src/stm32l4xx_hal_smbus.c ****   if ((SMBUS_CHECK_IT_SOURCE(tmpcr1value, (SMBUS_IT_TCI | SMBUS_IT_STOPI |
 2422              		.loc 1 1652 8
 2423 0088 BB68     		ldr	r3, [r7, #8]
 2424 008a 03F07403 		and	r3, r3, #116
 2425              		.loc 1 1652 6
 2426 008e 742B     		cmp	r3, #116
 2427 0090 32D1     		bne	.L116
1653:Drivers/STM32L4xx_HAL_Driver/Src/stm32l4xx_hal_smbus.c ****                                            SMBUS_IT_NACKI | SMBUS_IT_RXI)) != RESET) &&
1654:Drivers/STM32L4xx_HAL_Driver/Src/stm32l4xx_hal_smbus.c ****       ((SMBUS_CHECK_FLAG(tmpisrvalue, SMBUS_FLAG_RXNE) != RESET) ||
 2428              		.loc 1 1654 9
 2429 0092 FB68     		ldr	r3, [r7, #12]
 2430 0094 9B08     		lsrs	r3, r3, #2
 2431 0096 03F00103 		and	r3, r3, #1
1653:Drivers/STM32L4xx_HAL_Driver/Src/stm32l4xx_hal_smbus.c ****                                            SMBUS_IT_NACKI | SMBUS_IT_RXI)) != RESET) &&
 2432              		.loc 1 1653 86
 2433 009a 002B     		cmp	r3, #0
 2434 009c 17D1     		bne	.L117
1655:Drivers/STM32L4xx_HAL_Driver/Src/stm32l4xx_hal_smbus.c ****        (SMBUS_CHECK_FLAG(tmpisrvalue, SMBUS_FLAG_TCR) != RESET) ||
 2435              		.loc 1 1655 9
 2436 009e FB68     		ldr	r3, [r7, #12]
 2437 00a0 DB09     		lsrs	r3, r3, #7
 2438 00a2 03F00103 		and	r3, r3, #1
1654:Drivers/STM32L4xx_HAL_Driver/Src/stm32l4xx_hal_smbus.c ****        (SMBUS_CHECK_FLAG(tmpisrvalue, SMBUS_FLAG_TCR) != RESET) ||
 2439              		.loc 1 1654 66
 2440 00a6 002B     		cmp	r3, #0
 2441 00a8 11D1     		bne	.L117
1656:Drivers/STM32L4xx_HAL_Driver/Src/stm32l4xx_hal_smbus.c ****        (SMBUS_CHECK_FLAG(tmpisrvalue, SMBUS_FLAG_TC) != RESET) ||
 2442              		.loc 1 1656 9
 2443 00aa FB68     		ldr	r3, [r7, #12]
 2444 00ac 9B09     		lsrs	r3, r3, #6
 2445 00ae 03F00103 		and	r3, r3, #1
1655:Drivers/STM32L4xx_HAL_Driver/Src/stm32l4xx_hal_smbus.c ****        (SMBUS_CHECK_FLAG(tmpisrvalue, SMBUS_FLAG_TCR) != RESET) ||
 2446              		.loc 1 1655 65
 2447 00b2 002B     		cmp	r3, #0
 2448 00b4 0BD1     		bne	.L117
1657:Drivers/STM32L4xx_HAL_Driver/Src/stm32l4xx_hal_smbus.c ****        (SMBUS_CHECK_FLAG(tmpisrvalue, SMBUS_FLAG_STOPF) != RESET) ||
 2449              		.loc 1 1657 9
 2450 00b6 FB68     		ldr	r3, [r7, #12]
 2451 00b8 5B09     		lsrs	r3, r3, #5
 2452 00ba 03F00103 		and	r3, r3, #1
1656:Drivers/STM32L4xx_HAL_Driver/Src/stm32l4xx_hal_smbus.c ****        (SMBUS_CHECK_FLAG(tmpisrvalue, SMBUS_FLAG_TC) != RESET) ||
 2453              		.loc 1 1656 64
 2454 00be 002B     		cmp	r3, #0
ARM GAS  /tmp/ccysATpZ.s 			page 73


 2455 00c0 05D1     		bne	.L117
1658:Drivers/STM32L4xx_HAL_Driver/Src/stm32l4xx_hal_smbus.c ****        (SMBUS_CHECK_FLAG(tmpisrvalue, SMBUS_FLAG_AF) != RESET)))
 2456              		.loc 1 1658 9
 2457 00c2 FB68     		ldr	r3, [r7, #12]
 2458 00c4 1B09     		lsrs	r3, r3, #4
 2459 00c6 03F00103 		and	r3, r3, #1
1657:Drivers/STM32L4xx_HAL_Driver/Src/stm32l4xx_hal_smbus.c ****        (SMBUS_CHECK_FLAG(tmpisrvalue, SMBUS_FLAG_STOPF) != RESET) ||
 2460              		.loc 1 1657 67
 2461 00ca 002B     		cmp	r3, #0
 2462 00cc 14D0     		beq	.L116
 2463              	.L117:
1659:Drivers/STM32L4xx_HAL_Driver/Src/stm32l4xx_hal_smbus.c ****   {
1660:Drivers/STM32L4xx_HAL_Driver/Src/stm32l4xx_hal_smbus.c ****     /* Slave mode selected */
1661:Drivers/STM32L4xx_HAL_Driver/Src/stm32l4xx_hal_smbus.c ****     if ((hsmbus->State & HAL_SMBUS_STATE_SLAVE_BUSY_RX) == HAL_SMBUS_STATE_SLAVE_BUSY_RX)
 2464              		.loc 1 1661 16
 2465 00ce 7B68     		ldr	r3, [r7, #4]
 2466 00d0 9B6C     		ldr	r3, [r3, #72]
 2467              		.loc 1 1661 24
 2468 00d2 03F04203 		and	r3, r3, #66
 2469              		.loc 1 1661 8
 2470 00d6 422B     		cmp	r3, #66
 2471 00d8 04D1     		bne	.L118
1662:Drivers/STM32L4xx_HAL_Driver/Src/stm32l4xx_hal_smbus.c ****     {
1663:Drivers/STM32L4xx_HAL_Driver/Src/stm32l4xx_hal_smbus.c ****       (void)SMBUS_Slave_ISR(hsmbus, tmpisrvalue);
 2472              		.loc 1 1663 13
 2473 00da F968     		ldr	r1, [r7, #12]
 2474 00dc 7868     		ldr	r0, [r7, #4]
 2475 00de FFF7FEFF 		bl	SMBUS_Slave_ISR
 2476 00e2 09E0     		b	.L116
 2477              	.L118:
1664:Drivers/STM32L4xx_HAL_Driver/Src/stm32l4xx_hal_smbus.c ****     }
1665:Drivers/STM32L4xx_HAL_Driver/Src/stm32l4xx_hal_smbus.c ****     /* Master mode selected */
1666:Drivers/STM32L4xx_HAL_Driver/Src/stm32l4xx_hal_smbus.c ****     else if ((hsmbus->State & HAL_SMBUS_STATE_MASTER_BUSY_RX) == HAL_SMBUS_STATE_MASTER_BUSY_RX)
 2478              		.loc 1 1666 21
 2479 00e4 7B68     		ldr	r3, [r7, #4]
 2480 00e6 9B6C     		ldr	r3, [r3, #72]
 2481              		.loc 1 1666 29
 2482 00e8 03F02203 		and	r3, r3, #34
 2483              		.loc 1 1666 13
 2484 00ec 222B     		cmp	r3, #34
 2485 00ee 03D1     		bne	.L116
1667:Drivers/STM32L4xx_HAL_Driver/Src/stm32l4xx_hal_smbus.c ****     {
1668:Drivers/STM32L4xx_HAL_Driver/Src/stm32l4xx_hal_smbus.c ****       (void)SMBUS_Master_ISR(hsmbus, tmpisrvalue);
 2486              		.loc 1 1668 13
 2487 00f0 F968     		ldr	r1, [r7, #12]
 2488 00f2 7868     		ldr	r0, [r7, #4]
 2489 00f4 FFF7FEFF 		bl	SMBUS_Master_ISR
 2490              	.L116:
1669:Drivers/STM32L4xx_HAL_Driver/Src/stm32l4xx_hal_smbus.c ****     }
1670:Drivers/STM32L4xx_HAL_Driver/Src/stm32l4xx_hal_smbus.c ****     else
1671:Drivers/STM32L4xx_HAL_Driver/Src/stm32l4xx_hal_smbus.c ****     {
1672:Drivers/STM32L4xx_HAL_Driver/Src/stm32l4xx_hal_smbus.c ****       /* Nothing to do */
1673:Drivers/STM32L4xx_HAL_Driver/Src/stm32l4xx_hal_smbus.c ****     }
1674:Drivers/STM32L4xx_HAL_Driver/Src/stm32l4xx_hal_smbus.c ****   }
1675:Drivers/STM32L4xx_HAL_Driver/Src/stm32l4xx_hal_smbus.c **** 
1676:Drivers/STM32L4xx_HAL_Driver/Src/stm32l4xx_hal_smbus.c ****   /* SMBUS in mode Listener Only --------------------------------------------------*/
1677:Drivers/STM32L4xx_HAL_Driver/Src/stm32l4xx_hal_smbus.c ****   if (((SMBUS_CHECK_IT_SOURCE(tmpcr1value, SMBUS_IT_ADDRI) != RESET) ||
ARM GAS  /tmp/ccysATpZ.s 			page 74


 2491              		.loc 1 1677 9
 2492 00f8 BB68     		ldr	r3, [r7, #8]
 2493 00fa DB08     		lsrs	r3, r3, #3
 2494 00fc 03F00103 		and	r3, r3, #1
 2495              		.loc 1 1677 6
 2496 0100 002B     		cmp	r3, #0
 2497 0102 0BD1     		bne	.L119
1678:Drivers/STM32L4xx_HAL_Driver/Src/stm32l4xx_hal_smbus.c ****        (SMBUS_CHECK_IT_SOURCE(tmpcr1value, SMBUS_IT_STOPI) != RESET) ||
 2498              		.loc 1 1678 9
 2499 0104 BB68     		ldr	r3, [r7, #8]
 2500 0106 5B09     		lsrs	r3, r3, #5
 2501 0108 03F00103 		and	r3, r3, #1
1677:Drivers/STM32L4xx_HAL_Driver/Src/stm32l4xx_hal_smbus.c ****        (SMBUS_CHECK_IT_SOURCE(tmpcr1value, SMBUS_IT_STOPI) != RESET) ||
 2502              		.loc 1 1677 70 discriminator 1
 2503 010c 002B     		cmp	r3, #0
 2504 010e 05D1     		bne	.L119
1679:Drivers/STM32L4xx_HAL_Driver/Src/stm32l4xx_hal_smbus.c ****        (SMBUS_CHECK_IT_SOURCE(tmpcr1value, SMBUS_IT_NACKI) != RESET)) &&
 2505              		.loc 1 1679 9
 2506 0110 BB68     		ldr	r3, [r7, #8]
 2507 0112 1B09     		lsrs	r3, r3, #4
 2508 0114 03F00103 		and	r3, r3, #1
1678:Drivers/STM32L4xx_HAL_Driver/Src/stm32l4xx_hal_smbus.c ****        (SMBUS_CHECK_IT_SOURCE(tmpcr1value, SMBUS_IT_STOPI) != RESET) ||
 2509              		.loc 1 1678 70
 2510 0118 002B     		cmp	r3, #0
 2511 011a 1BD0     		beq	.L122
 2512              	.L119:
1680:Drivers/STM32L4xx_HAL_Driver/Src/stm32l4xx_hal_smbus.c ****       ((SMBUS_CHECK_FLAG(tmpisrvalue, SMBUS_FLAG_ADDR) != RESET) ||
 2513              		.loc 1 1680 9
 2514 011c FB68     		ldr	r3, [r7, #12]
 2515 011e DB08     		lsrs	r3, r3, #3
 2516 0120 03F00103 		and	r3, r3, #1
1679:Drivers/STM32L4xx_HAL_Driver/Src/stm32l4xx_hal_smbus.c ****        (SMBUS_CHECK_IT_SOURCE(tmpcr1value, SMBUS_IT_NACKI) != RESET)) &&
 2517              		.loc 1 1679 71
 2518 0124 002B     		cmp	r3, #0
 2519 0126 0BD1     		bne	.L121
1681:Drivers/STM32L4xx_HAL_Driver/Src/stm32l4xx_hal_smbus.c ****        (SMBUS_CHECK_FLAG(tmpisrvalue, SMBUS_FLAG_STOPF) != RESET) ||
 2520              		.loc 1 1681 9
 2521 0128 FB68     		ldr	r3, [r7, #12]
 2522 012a 5B09     		lsrs	r3, r3, #5
 2523 012c 03F00103 		and	r3, r3, #1
1680:Drivers/STM32L4xx_HAL_Driver/Src/stm32l4xx_hal_smbus.c ****       ((SMBUS_CHECK_FLAG(tmpisrvalue, SMBUS_FLAG_ADDR) != RESET) ||
 2524              		.loc 1 1680 66
 2525 0130 002B     		cmp	r3, #0
 2526 0132 05D1     		bne	.L121
1682:Drivers/STM32L4xx_HAL_Driver/Src/stm32l4xx_hal_smbus.c ****        (SMBUS_CHECK_FLAG(tmpisrvalue, SMBUS_FLAG_AF) != RESET)))
 2527              		.loc 1 1682 9
 2528 0134 FB68     		ldr	r3, [r7, #12]
 2529 0136 1B09     		lsrs	r3, r3, #4
 2530 0138 03F00103 		and	r3, r3, #1
1681:Drivers/STM32L4xx_HAL_Driver/Src/stm32l4xx_hal_smbus.c ****        (SMBUS_CHECK_FLAG(tmpisrvalue, SMBUS_FLAG_STOPF) != RESET) ||
 2531              		.loc 1 1681 67
 2532 013c 002B     		cmp	r3, #0
 2533 013e 09D0     		beq	.L122
 2534              	.L121:
1683:Drivers/STM32L4xx_HAL_Driver/Src/stm32l4xx_hal_smbus.c ****   {
1684:Drivers/STM32L4xx_HAL_Driver/Src/stm32l4xx_hal_smbus.c ****     if ((hsmbus->State & HAL_SMBUS_STATE_LISTEN) == HAL_SMBUS_STATE_LISTEN)
 2535              		.loc 1 1684 16
ARM GAS  /tmp/ccysATpZ.s 			page 75


 2536 0140 7B68     		ldr	r3, [r7, #4]
 2537 0142 9B6C     		ldr	r3, [r3, #72]
 2538              		.loc 1 1684 24
 2539 0144 03F00803 		and	r3, r3, #8
 2540              		.loc 1 1684 8
 2541 0148 082B     		cmp	r3, #8
 2542 014a 03D1     		bne	.L122
1685:Drivers/STM32L4xx_HAL_Driver/Src/stm32l4xx_hal_smbus.c ****     {
1686:Drivers/STM32L4xx_HAL_Driver/Src/stm32l4xx_hal_smbus.c ****       (void)SMBUS_Slave_ISR(hsmbus, tmpisrvalue);
 2543              		.loc 1 1686 13
 2544 014c F968     		ldr	r1, [r7, #12]
 2545 014e 7868     		ldr	r0, [r7, #4]
 2546 0150 FFF7FEFF 		bl	SMBUS_Slave_ISR
 2547              	.L122:
1687:Drivers/STM32L4xx_HAL_Driver/Src/stm32l4xx_hal_smbus.c ****     }
1688:Drivers/STM32L4xx_HAL_Driver/Src/stm32l4xx_hal_smbus.c ****   }
1689:Drivers/STM32L4xx_HAL_Driver/Src/stm32l4xx_hal_smbus.c **** }
 2548              		.loc 1 1689 1
 2549 0154 00BF     		nop
 2550 0156 1037     		adds	r7, r7, #16
 2551              		.cfi_def_cfa_offset 8
 2552 0158 BD46     		mov	sp, r7
 2553              		.cfi_def_cfa_register 13
 2554              		@ sp needed
 2555 015a 80BD     		pop	{r7, pc}
 2556              		.cfi_endproc
 2557              	.LFE461:
 2559              		.section	.text.HAL_SMBUS_ER_IRQHandler,"ax",%progbits
 2560              		.align	1
 2561              		.global	HAL_SMBUS_ER_IRQHandler
 2562              		.syntax unified
 2563              		.thumb
 2564              		.thumb_func
 2566              	HAL_SMBUS_ER_IRQHandler:
 2567              	.LFB462:
1690:Drivers/STM32L4xx_HAL_Driver/Src/stm32l4xx_hal_smbus.c **** 
1691:Drivers/STM32L4xx_HAL_Driver/Src/stm32l4xx_hal_smbus.c **** /**
1692:Drivers/STM32L4xx_HAL_Driver/Src/stm32l4xx_hal_smbus.c ****   * @brief  Handle SMBUS error interrupt request.
1693:Drivers/STM32L4xx_HAL_Driver/Src/stm32l4xx_hal_smbus.c ****   * @param  hsmbus Pointer to a SMBUS_HandleTypeDef structure that contains
1694:Drivers/STM32L4xx_HAL_Driver/Src/stm32l4xx_hal_smbus.c ****   *                the configuration information for the specified SMBUS.
1695:Drivers/STM32L4xx_HAL_Driver/Src/stm32l4xx_hal_smbus.c ****   * @retval None
1696:Drivers/STM32L4xx_HAL_Driver/Src/stm32l4xx_hal_smbus.c ****   */
1697:Drivers/STM32L4xx_HAL_Driver/Src/stm32l4xx_hal_smbus.c **** void HAL_SMBUS_ER_IRQHandler(SMBUS_HandleTypeDef *hsmbus)
1698:Drivers/STM32L4xx_HAL_Driver/Src/stm32l4xx_hal_smbus.c **** {
 2568              		.loc 1 1698 1
 2569              		.cfi_startproc
 2570              		@ args = 0, pretend = 0, frame = 8
 2571              		@ frame_needed = 1, uses_anonymous_args = 0
 2572 0000 80B5     		push	{r7, lr}
 2573              		.cfi_def_cfa_offset 8
 2574              		.cfi_offset 7, -8
 2575              		.cfi_offset 14, -4
 2576 0002 82B0     		sub	sp, sp, #8
 2577              		.cfi_def_cfa_offset 16
 2578 0004 00AF     		add	r7, sp, #0
 2579              		.cfi_def_cfa_register 7
 2580 0006 7860     		str	r0, [r7, #4]
ARM GAS  /tmp/ccysATpZ.s 			page 76


1699:Drivers/STM32L4xx_HAL_Driver/Src/stm32l4xx_hal_smbus.c ****   SMBUS_ITErrorHandler(hsmbus);
 2581              		.loc 1 1699 3
 2582 0008 7868     		ldr	r0, [r7, #4]
 2583 000a FFF7FEFF 		bl	SMBUS_ITErrorHandler
1700:Drivers/STM32L4xx_HAL_Driver/Src/stm32l4xx_hal_smbus.c **** }
 2584              		.loc 1 1700 1
 2585 000e 00BF     		nop
 2586 0010 0837     		adds	r7, r7, #8
 2587              		.cfi_def_cfa_offset 8
 2588 0012 BD46     		mov	sp, r7
 2589              		.cfi_def_cfa_register 13
 2590              		@ sp needed
 2591 0014 80BD     		pop	{r7, pc}
 2592              		.cfi_endproc
 2593              	.LFE462:
 2595              		.section	.text.HAL_SMBUS_MasterTxCpltCallback,"ax",%progbits
 2596              		.align	1
 2597              		.weak	HAL_SMBUS_MasterTxCpltCallback
 2598              		.syntax unified
 2599              		.thumb
 2600              		.thumb_func
 2602              	HAL_SMBUS_MasterTxCpltCallback:
 2603              	.LFB463:
1701:Drivers/STM32L4xx_HAL_Driver/Src/stm32l4xx_hal_smbus.c **** 
1702:Drivers/STM32L4xx_HAL_Driver/Src/stm32l4xx_hal_smbus.c **** /**
1703:Drivers/STM32L4xx_HAL_Driver/Src/stm32l4xx_hal_smbus.c ****   * @brief  Master Tx Transfer completed callback.
1704:Drivers/STM32L4xx_HAL_Driver/Src/stm32l4xx_hal_smbus.c ****   * @param  hsmbus Pointer to a SMBUS_HandleTypeDef structure that contains
1705:Drivers/STM32L4xx_HAL_Driver/Src/stm32l4xx_hal_smbus.c ****   *                the configuration information for the specified SMBUS.
1706:Drivers/STM32L4xx_HAL_Driver/Src/stm32l4xx_hal_smbus.c ****   * @retval None
1707:Drivers/STM32L4xx_HAL_Driver/Src/stm32l4xx_hal_smbus.c ****   */
1708:Drivers/STM32L4xx_HAL_Driver/Src/stm32l4xx_hal_smbus.c **** __weak void HAL_SMBUS_MasterTxCpltCallback(SMBUS_HandleTypeDef *hsmbus)
1709:Drivers/STM32L4xx_HAL_Driver/Src/stm32l4xx_hal_smbus.c **** {
 2604              		.loc 1 1709 1
 2605              		.cfi_startproc
 2606              		@ args = 0, pretend = 0, frame = 8
 2607              		@ frame_needed = 1, uses_anonymous_args = 0
 2608              		@ link register save eliminated.
 2609 0000 80B4     		push	{r7}
 2610              		.cfi_def_cfa_offset 4
 2611              		.cfi_offset 7, -4
 2612 0002 83B0     		sub	sp, sp, #12
 2613              		.cfi_def_cfa_offset 16
 2614 0004 00AF     		add	r7, sp, #0
 2615              		.cfi_def_cfa_register 7
 2616 0006 7860     		str	r0, [r7, #4]
1710:Drivers/STM32L4xx_HAL_Driver/Src/stm32l4xx_hal_smbus.c ****   /* Prevent unused argument(s) compilation warning */
1711:Drivers/STM32L4xx_HAL_Driver/Src/stm32l4xx_hal_smbus.c ****   UNUSED(hsmbus);
1712:Drivers/STM32L4xx_HAL_Driver/Src/stm32l4xx_hal_smbus.c **** 
1713:Drivers/STM32L4xx_HAL_Driver/Src/stm32l4xx_hal_smbus.c ****   /* NOTE : This function should not be modified, when the callback is needed,
1714:Drivers/STM32L4xx_HAL_Driver/Src/stm32l4xx_hal_smbus.c ****             the HAL_SMBUS_MasterTxCpltCallback() could be implemented in the user file
1715:Drivers/STM32L4xx_HAL_Driver/Src/stm32l4xx_hal_smbus.c ****    */
1716:Drivers/STM32L4xx_HAL_Driver/Src/stm32l4xx_hal_smbus.c **** }
 2617              		.loc 1 1716 1
 2618 0008 00BF     		nop
 2619 000a 0C37     		adds	r7, r7, #12
 2620              		.cfi_def_cfa_offset 4
 2621 000c BD46     		mov	sp, r7
ARM GAS  /tmp/ccysATpZ.s 			page 77


 2622              		.cfi_def_cfa_register 13
 2623              		@ sp needed
 2624 000e 5DF8047B 		ldr	r7, [sp], #4
 2625              		.cfi_restore 7
 2626              		.cfi_def_cfa_offset 0
 2627 0012 7047     		bx	lr
 2628              		.cfi_endproc
 2629              	.LFE463:
 2631              		.section	.text.HAL_SMBUS_MasterRxCpltCallback,"ax",%progbits
 2632              		.align	1
 2633              		.weak	HAL_SMBUS_MasterRxCpltCallback
 2634              		.syntax unified
 2635              		.thumb
 2636              		.thumb_func
 2638              	HAL_SMBUS_MasterRxCpltCallback:
 2639              	.LFB464:
1717:Drivers/STM32L4xx_HAL_Driver/Src/stm32l4xx_hal_smbus.c **** 
1718:Drivers/STM32L4xx_HAL_Driver/Src/stm32l4xx_hal_smbus.c **** /**
1719:Drivers/STM32L4xx_HAL_Driver/Src/stm32l4xx_hal_smbus.c ****   * @brief  Master Rx Transfer completed callback.
1720:Drivers/STM32L4xx_HAL_Driver/Src/stm32l4xx_hal_smbus.c ****   * @param  hsmbus Pointer to a SMBUS_HandleTypeDef structure that contains
1721:Drivers/STM32L4xx_HAL_Driver/Src/stm32l4xx_hal_smbus.c ****   *                the configuration information for the specified SMBUS.
1722:Drivers/STM32L4xx_HAL_Driver/Src/stm32l4xx_hal_smbus.c ****   * @retval None
1723:Drivers/STM32L4xx_HAL_Driver/Src/stm32l4xx_hal_smbus.c ****   */
1724:Drivers/STM32L4xx_HAL_Driver/Src/stm32l4xx_hal_smbus.c **** __weak void HAL_SMBUS_MasterRxCpltCallback(SMBUS_HandleTypeDef *hsmbus)
1725:Drivers/STM32L4xx_HAL_Driver/Src/stm32l4xx_hal_smbus.c **** {
 2640              		.loc 1 1725 1
 2641              		.cfi_startproc
 2642              		@ args = 0, pretend = 0, frame = 8
 2643              		@ frame_needed = 1, uses_anonymous_args = 0
 2644              		@ link register save eliminated.
 2645 0000 80B4     		push	{r7}
 2646              		.cfi_def_cfa_offset 4
 2647              		.cfi_offset 7, -4
 2648 0002 83B0     		sub	sp, sp, #12
 2649              		.cfi_def_cfa_offset 16
 2650 0004 00AF     		add	r7, sp, #0
 2651              		.cfi_def_cfa_register 7
 2652 0006 7860     		str	r0, [r7, #4]
1726:Drivers/STM32L4xx_HAL_Driver/Src/stm32l4xx_hal_smbus.c ****   /* Prevent unused argument(s) compilation warning */
1727:Drivers/STM32L4xx_HAL_Driver/Src/stm32l4xx_hal_smbus.c ****   UNUSED(hsmbus);
1728:Drivers/STM32L4xx_HAL_Driver/Src/stm32l4xx_hal_smbus.c **** 
1729:Drivers/STM32L4xx_HAL_Driver/Src/stm32l4xx_hal_smbus.c ****   /* NOTE : This function should not be modified, when the callback is needed,
1730:Drivers/STM32L4xx_HAL_Driver/Src/stm32l4xx_hal_smbus.c ****             the HAL_SMBUS_MasterRxCpltCallback() could be implemented in the user file
1731:Drivers/STM32L4xx_HAL_Driver/Src/stm32l4xx_hal_smbus.c ****    */
1732:Drivers/STM32L4xx_HAL_Driver/Src/stm32l4xx_hal_smbus.c **** }
 2653              		.loc 1 1732 1
 2654 0008 00BF     		nop
 2655 000a 0C37     		adds	r7, r7, #12
 2656              		.cfi_def_cfa_offset 4
 2657 000c BD46     		mov	sp, r7
 2658              		.cfi_def_cfa_register 13
 2659              		@ sp needed
 2660 000e 5DF8047B 		ldr	r7, [sp], #4
 2661              		.cfi_restore 7
 2662              		.cfi_def_cfa_offset 0
 2663 0012 7047     		bx	lr
 2664              		.cfi_endproc
ARM GAS  /tmp/ccysATpZ.s 			page 78


 2665              	.LFE464:
 2667              		.section	.text.HAL_SMBUS_SlaveTxCpltCallback,"ax",%progbits
 2668              		.align	1
 2669              		.weak	HAL_SMBUS_SlaveTxCpltCallback
 2670              		.syntax unified
 2671              		.thumb
 2672              		.thumb_func
 2674              	HAL_SMBUS_SlaveTxCpltCallback:
 2675              	.LFB465:
1733:Drivers/STM32L4xx_HAL_Driver/Src/stm32l4xx_hal_smbus.c **** 
1734:Drivers/STM32L4xx_HAL_Driver/Src/stm32l4xx_hal_smbus.c **** /** @brief  Slave Tx Transfer completed callback.
1735:Drivers/STM32L4xx_HAL_Driver/Src/stm32l4xx_hal_smbus.c ****   * @param  hsmbus Pointer to a SMBUS_HandleTypeDef structure that contains
1736:Drivers/STM32L4xx_HAL_Driver/Src/stm32l4xx_hal_smbus.c ****   *                the configuration information for the specified SMBUS.
1737:Drivers/STM32L4xx_HAL_Driver/Src/stm32l4xx_hal_smbus.c ****   * @retval None
1738:Drivers/STM32L4xx_HAL_Driver/Src/stm32l4xx_hal_smbus.c ****   */
1739:Drivers/STM32L4xx_HAL_Driver/Src/stm32l4xx_hal_smbus.c **** __weak void HAL_SMBUS_SlaveTxCpltCallback(SMBUS_HandleTypeDef *hsmbus)
1740:Drivers/STM32L4xx_HAL_Driver/Src/stm32l4xx_hal_smbus.c **** {
 2676              		.loc 1 1740 1
 2677              		.cfi_startproc
 2678              		@ args = 0, pretend = 0, frame = 8
 2679              		@ frame_needed = 1, uses_anonymous_args = 0
 2680              		@ link register save eliminated.
 2681 0000 80B4     		push	{r7}
 2682              		.cfi_def_cfa_offset 4
 2683              		.cfi_offset 7, -4
 2684 0002 83B0     		sub	sp, sp, #12
 2685              		.cfi_def_cfa_offset 16
 2686 0004 00AF     		add	r7, sp, #0
 2687              		.cfi_def_cfa_register 7
 2688 0006 7860     		str	r0, [r7, #4]
1741:Drivers/STM32L4xx_HAL_Driver/Src/stm32l4xx_hal_smbus.c ****   /* Prevent unused argument(s) compilation warning */
1742:Drivers/STM32L4xx_HAL_Driver/Src/stm32l4xx_hal_smbus.c ****   UNUSED(hsmbus);
1743:Drivers/STM32L4xx_HAL_Driver/Src/stm32l4xx_hal_smbus.c **** 
1744:Drivers/STM32L4xx_HAL_Driver/Src/stm32l4xx_hal_smbus.c ****   /* NOTE : This function should not be modified, when the callback is needed,
1745:Drivers/STM32L4xx_HAL_Driver/Src/stm32l4xx_hal_smbus.c ****             the HAL_SMBUS_SlaveTxCpltCallback() could be implemented in the user file
1746:Drivers/STM32L4xx_HAL_Driver/Src/stm32l4xx_hal_smbus.c ****    */
1747:Drivers/STM32L4xx_HAL_Driver/Src/stm32l4xx_hal_smbus.c **** }
 2689              		.loc 1 1747 1
 2690 0008 00BF     		nop
 2691 000a 0C37     		adds	r7, r7, #12
 2692              		.cfi_def_cfa_offset 4
 2693 000c BD46     		mov	sp, r7
 2694              		.cfi_def_cfa_register 13
 2695              		@ sp needed
 2696 000e 5DF8047B 		ldr	r7, [sp], #4
 2697              		.cfi_restore 7
 2698              		.cfi_def_cfa_offset 0
 2699 0012 7047     		bx	lr
 2700              		.cfi_endproc
 2701              	.LFE465:
 2703              		.section	.text.HAL_SMBUS_SlaveRxCpltCallback,"ax",%progbits
 2704              		.align	1
 2705              		.weak	HAL_SMBUS_SlaveRxCpltCallback
 2706              		.syntax unified
 2707              		.thumb
 2708              		.thumb_func
 2710              	HAL_SMBUS_SlaveRxCpltCallback:
ARM GAS  /tmp/ccysATpZ.s 			page 79


 2711              	.LFB466:
1748:Drivers/STM32L4xx_HAL_Driver/Src/stm32l4xx_hal_smbus.c **** 
1749:Drivers/STM32L4xx_HAL_Driver/Src/stm32l4xx_hal_smbus.c **** /**
1750:Drivers/STM32L4xx_HAL_Driver/Src/stm32l4xx_hal_smbus.c ****   * @brief  Slave Rx Transfer completed callback.
1751:Drivers/STM32L4xx_HAL_Driver/Src/stm32l4xx_hal_smbus.c ****   * @param  hsmbus Pointer to a SMBUS_HandleTypeDef structure that contains
1752:Drivers/STM32L4xx_HAL_Driver/Src/stm32l4xx_hal_smbus.c ****   *                the configuration information for the specified SMBUS.
1753:Drivers/STM32L4xx_HAL_Driver/Src/stm32l4xx_hal_smbus.c ****   * @retval None
1754:Drivers/STM32L4xx_HAL_Driver/Src/stm32l4xx_hal_smbus.c ****   */
1755:Drivers/STM32L4xx_HAL_Driver/Src/stm32l4xx_hal_smbus.c **** __weak void HAL_SMBUS_SlaveRxCpltCallback(SMBUS_HandleTypeDef *hsmbus)
1756:Drivers/STM32L4xx_HAL_Driver/Src/stm32l4xx_hal_smbus.c **** {
 2712              		.loc 1 1756 1
 2713              		.cfi_startproc
 2714              		@ args = 0, pretend = 0, frame = 8
 2715              		@ frame_needed = 1, uses_anonymous_args = 0
 2716              		@ link register save eliminated.
 2717 0000 80B4     		push	{r7}
 2718              		.cfi_def_cfa_offset 4
 2719              		.cfi_offset 7, -4
 2720 0002 83B0     		sub	sp, sp, #12
 2721              		.cfi_def_cfa_offset 16
 2722 0004 00AF     		add	r7, sp, #0
 2723              		.cfi_def_cfa_register 7
 2724 0006 7860     		str	r0, [r7, #4]
1757:Drivers/STM32L4xx_HAL_Driver/Src/stm32l4xx_hal_smbus.c ****   /* Prevent unused argument(s) compilation warning */
1758:Drivers/STM32L4xx_HAL_Driver/Src/stm32l4xx_hal_smbus.c ****   UNUSED(hsmbus);
1759:Drivers/STM32L4xx_HAL_Driver/Src/stm32l4xx_hal_smbus.c **** 
1760:Drivers/STM32L4xx_HAL_Driver/Src/stm32l4xx_hal_smbus.c ****   /* NOTE : This function should not be modified, when the callback is needed,
1761:Drivers/STM32L4xx_HAL_Driver/Src/stm32l4xx_hal_smbus.c ****             the HAL_SMBUS_SlaveRxCpltCallback() could be implemented in the user file
1762:Drivers/STM32L4xx_HAL_Driver/Src/stm32l4xx_hal_smbus.c ****    */
1763:Drivers/STM32L4xx_HAL_Driver/Src/stm32l4xx_hal_smbus.c **** }
 2725              		.loc 1 1763 1
 2726 0008 00BF     		nop
 2727 000a 0C37     		adds	r7, r7, #12
 2728              		.cfi_def_cfa_offset 4
 2729 000c BD46     		mov	sp, r7
 2730              		.cfi_def_cfa_register 13
 2731              		@ sp needed
 2732 000e 5DF8047B 		ldr	r7, [sp], #4
 2733              		.cfi_restore 7
 2734              		.cfi_def_cfa_offset 0
 2735 0012 7047     		bx	lr
 2736              		.cfi_endproc
 2737              	.LFE466:
 2739              		.section	.text.HAL_SMBUS_AddrCallback,"ax",%progbits
 2740              		.align	1
 2741              		.weak	HAL_SMBUS_AddrCallback
 2742              		.syntax unified
 2743              		.thumb
 2744              		.thumb_func
 2746              	HAL_SMBUS_AddrCallback:
 2747              	.LFB467:
1764:Drivers/STM32L4xx_HAL_Driver/Src/stm32l4xx_hal_smbus.c **** 
1765:Drivers/STM32L4xx_HAL_Driver/Src/stm32l4xx_hal_smbus.c **** /**
1766:Drivers/STM32L4xx_HAL_Driver/Src/stm32l4xx_hal_smbus.c ****   * @brief  Slave Address Match callback.
1767:Drivers/STM32L4xx_HAL_Driver/Src/stm32l4xx_hal_smbus.c ****   * @param  hsmbus Pointer to a SMBUS_HandleTypeDef structure that contains
1768:Drivers/STM32L4xx_HAL_Driver/Src/stm32l4xx_hal_smbus.c ****   *                the configuration information for the specified SMBUS.
1769:Drivers/STM32L4xx_HAL_Driver/Src/stm32l4xx_hal_smbus.c ****   * @param  TransferDirection Master request Transfer Direction (Write/Read)
ARM GAS  /tmp/ccysATpZ.s 			page 80


1770:Drivers/STM32L4xx_HAL_Driver/Src/stm32l4xx_hal_smbus.c ****   * @param  AddrMatchCode Address Match Code
1771:Drivers/STM32L4xx_HAL_Driver/Src/stm32l4xx_hal_smbus.c ****   * @retval None
1772:Drivers/STM32L4xx_HAL_Driver/Src/stm32l4xx_hal_smbus.c ****   */
1773:Drivers/STM32L4xx_HAL_Driver/Src/stm32l4xx_hal_smbus.c **** __weak void HAL_SMBUS_AddrCallback(SMBUS_HandleTypeDef *hsmbus, uint8_t TransferDirection,
1774:Drivers/STM32L4xx_HAL_Driver/Src/stm32l4xx_hal_smbus.c ****                                    uint16_t AddrMatchCode)
1775:Drivers/STM32L4xx_HAL_Driver/Src/stm32l4xx_hal_smbus.c **** {
 2748              		.loc 1 1775 1
 2749              		.cfi_startproc
 2750              		@ args = 0, pretend = 0, frame = 8
 2751              		@ frame_needed = 1, uses_anonymous_args = 0
 2752              		@ link register save eliminated.
 2753 0000 80B4     		push	{r7}
 2754              		.cfi_def_cfa_offset 4
 2755              		.cfi_offset 7, -4
 2756 0002 83B0     		sub	sp, sp, #12
 2757              		.cfi_def_cfa_offset 16
 2758 0004 00AF     		add	r7, sp, #0
 2759              		.cfi_def_cfa_register 7
 2760 0006 7860     		str	r0, [r7, #4]
 2761 0008 0B46     		mov	r3, r1
 2762 000a FB70     		strb	r3, [r7, #3]
 2763 000c 1346     		mov	r3, r2	@ movhi
 2764 000e 3B80     		strh	r3, [r7]	@ movhi
1776:Drivers/STM32L4xx_HAL_Driver/Src/stm32l4xx_hal_smbus.c ****   /* Prevent unused argument(s) compilation warning */
1777:Drivers/STM32L4xx_HAL_Driver/Src/stm32l4xx_hal_smbus.c ****   UNUSED(hsmbus);
1778:Drivers/STM32L4xx_HAL_Driver/Src/stm32l4xx_hal_smbus.c ****   UNUSED(TransferDirection);
1779:Drivers/STM32L4xx_HAL_Driver/Src/stm32l4xx_hal_smbus.c ****   UNUSED(AddrMatchCode);
1780:Drivers/STM32L4xx_HAL_Driver/Src/stm32l4xx_hal_smbus.c **** 
1781:Drivers/STM32L4xx_HAL_Driver/Src/stm32l4xx_hal_smbus.c ****   /* NOTE : This function should not be modified, when the callback is needed,
1782:Drivers/STM32L4xx_HAL_Driver/Src/stm32l4xx_hal_smbus.c ****             the HAL_SMBUS_AddrCallback() could be implemented in the user file
1783:Drivers/STM32L4xx_HAL_Driver/Src/stm32l4xx_hal_smbus.c ****    */
1784:Drivers/STM32L4xx_HAL_Driver/Src/stm32l4xx_hal_smbus.c **** }
 2765              		.loc 1 1784 1
 2766 0010 00BF     		nop
 2767 0012 0C37     		adds	r7, r7, #12
 2768              		.cfi_def_cfa_offset 4
 2769 0014 BD46     		mov	sp, r7
 2770              		.cfi_def_cfa_register 13
 2771              		@ sp needed
 2772 0016 5DF8047B 		ldr	r7, [sp], #4
 2773              		.cfi_restore 7
 2774              		.cfi_def_cfa_offset 0
 2775 001a 7047     		bx	lr
 2776              		.cfi_endproc
 2777              	.LFE467:
 2779              		.section	.text.HAL_SMBUS_ListenCpltCallback,"ax",%progbits
 2780              		.align	1
 2781              		.weak	HAL_SMBUS_ListenCpltCallback
 2782              		.syntax unified
 2783              		.thumb
 2784              		.thumb_func
 2786              	HAL_SMBUS_ListenCpltCallback:
 2787              	.LFB468:
1785:Drivers/STM32L4xx_HAL_Driver/Src/stm32l4xx_hal_smbus.c **** 
1786:Drivers/STM32L4xx_HAL_Driver/Src/stm32l4xx_hal_smbus.c **** /**
1787:Drivers/STM32L4xx_HAL_Driver/Src/stm32l4xx_hal_smbus.c ****   * @brief  Listen Complete callback.
1788:Drivers/STM32L4xx_HAL_Driver/Src/stm32l4xx_hal_smbus.c ****   * @param  hsmbus Pointer to a SMBUS_HandleTypeDef structure that contains
ARM GAS  /tmp/ccysATpZ.s 			page 81


1789:Drivers/STM32L4xx_HAL_Driver/Src/stm32l4xx_hal_smbus.c ****   *                the configuration information for the specified SMBUS.
1790:Drivers/STM32L4xx_HAL_Driver/Src/stm32l4xx_hal_smbus.c ****   * @retval None
1791:Drivers/STM32L4xx_HAL_Driver/Src/stm32l4xx_hal_smbus.c ****   */
1792:Drivers/STM32L4xx_HAL_Driver/Src/stm32l4xx_hal_smbus.c **** __weak void HAL_SMBUS_ListenCpltCallback(SMBUS_HandleTypeDef *hsmbus)
1793:Drivers/STM32L4xx_HAL_Driver/Src/stm32l4xx_hal_smbus.c **** {
 2788              		.loc 1 1793 1
 2789              		.cfi_startproc
 2790              		@ args = 0, pretend = 0, frame = 8
 2791              		@ frame_needed = 1, uses_anonymous_args = 0
 2792              		@ link register save eliminated.
 2793 0000 80B4     		push	{r7}
 2794              		.cfi_def_cfa_offset 4
 2795              		.cfi_offset 7, -4
 2796 0002 83B0     		sub	sp, sp, #12
 2797              		.cfi_def_cfa_offset 16
 2798 0004 00AF     		add	r7, sp, #0
 2799              		.cfi_def_cfa_register 7
 2800 0006 7860     		str	r0, [r7, #4]
1794:Drivers/STM32L4xx_HAL_Driver/Src/stm32l4xx_hal_smbus.c ****   /* Prevent unused argument(s) compilation warning */
1795:Drivers/STM32L4xx_HAL_Driver/Src/stm32l4xx_hal_smbus.c ****   UNUSED(hsmbus);
1796:Drivers/STM32L4xx_HAL_Driver/Src/stm32l4xx_hal_smbus.c **** 
1797:Drivers/STM32L4xx_HAL_Driver/Src/stm32l4xx_hal_smbus.c ****   /* NOTE : This function should not be modified, when the callback is needed,
1798:Drivers/STM32L4xx_HAL_Driver/Src/stm32l4xx_hal_smbus.c ****             the HAL_SMBUS_ListenCpltCallback() could be implemented in the user file
1799:Drivers/STM32L4xx_HAL_Driver/Src/stm32l4xx_hal_smbus.c ****    */
1800:Drivers/STM32L4xx_HAL_Driver/Src/stm32l4xx_hal_smbus.c **** }
 2801              		.loc 1 1800 1
 2802 0008 00BF     		nop
 2803 000a 0C37     		adds	r7, r7, #12
 2804              		.cfi_def_cfa_offset 4
 2805 000c BD46     		mov	sp, r7
 2806              		.cfi_def_cfa_register 13
 2807              		@ sp needed
 2808 000e 5DF8047B 		ldr	r7, [sp], #4
 2809              		.cfi_restore 7
 2810              		.cfi_def_cfa_offset 0
 2811 0012 7047     		bx	lr
 2812              		.cfi_endproc
 2813              	.LFE468:
 2815              		.section	.text.HAL_SMBUS_ErrorCallback,"ax",%progbits
 2816              		.align	1
 2817              		.weak	HAL_SMBUS_ErrorCallback
 2818              		.syntax unified
 2819              		.thumb
 2820              		.thumb_func
 2822              	HAL_SMBUS_ErrorCallback:
 2823              	.LFB469:
1801:Drivers/STM32L4xx_HAL_Driver/Src/stm32l4xx_hal_smbus.c **** 
1802:Drivers/STM32L4xx_HAL_Driver/Src/stm32l4xx_hal_smbus.c **** /**
1803:Drivers/STM32L4xx_HAL_Driver/Src/stm32l4xx_hal_smbus.c ****   * @brief  SMBUS error callback.
1804:Drivers/STM32L4xx_HAL_Driver/Src/stm32l4xx_hal_smbus.c ****   * @param  hsmbus Pointer to a SMBUS_HandleTypeDef structure that contains
1805:Drivers/STM32L4xx_HAL_Driver/Src/stm32l4xx_hal_smbus.c ****   *                the configuration information for the specified SMBUS.
1806:Drivers/STM32L4xx_HAL_Driver/Src/stm32l4xx_hal_smbus.c ****   * @retval None
1807:Drivers/STM32L4xx_HAL_Driver/Src/stm32l4xx_hal_smbus.c ****   */
1808:Drivers/STM32L4xx_HAL_Driver/Src/stm32l4xx_hal_smbus.c **** __weak void HAL_SMBUS_ErrorCallback(SMBUS_HandleTypeDef *hsmbus)
1809:Drivers/STM32L4xx_HAL_Driver/Src/stm32l4xx_hal_smbus.c **** {
 2824              		.loc 1 1809 1
 2825              		.cfi_startproc
ARM GAS  /tmp/ccysATpZ.s 			page 82


 2826              		@ args = 0, pretend = 0, frame = 8
 2827              		@ frame_needed = 1, uses_anonymous_args = 0
 2828              		@ link register save eliminated.
 2829 0000 80B4     		push	{r7}
 2830              		.cfi_def_cfa_offset 4
 2831              		.cfi_offset 7, -4
 2832 0002 83B0     		sub	sp, sp, #12
 2833              		.cfi_def_cfa_offset 16
 2834 0004 00AF     		add	r7, sp, #0
 2835              		.cfi_def_cfa_register 7
 2836 0006 7860     		str	r0, [r7, #4]
1810:Drivers/STM32L4xx_HAL_Driver/Src/stm32l4xx_hal_smbus.c ****   /* Prevent unused argument(s) compilation warning */
1811:Drivers/STM32L4xx_HAL_Driver/Src/stm32l4xx_hal_smbus.c ****   UNUSED(hsmbus);
1812:Drivers/STM32L4xx_HAL_Driver/Src/stm32l4xx_hal_smbus.c **** 
1813:Drivers/STM32L4xx_HAL_Driver/Src/stm32l4xx_hal_smbus.c ****   /* NOTE : This function should not be modified, when the callback is needed,
1814:Drivers/STM32L4xx_HAL_Driver/Src/stm32l4xx_hal_smbus.c ****             the HAL_SMBUS_ErrorCallback() could be implemented in the user file
1815:Drivers/STM32L4xx_HAL_Driver/Src/stm32l4xx_hal_smbus.c ****    */
1816:Drivers/STM32L4xx_HAL_Driver/Src/stm32l4xx_hal_smbus.c **** }
 2837              		.loc 1 1816 1
 2838 0008 00BF     		nop
 2839 000a 0C37     		adds	r7, r7, #12
 2840              		.cfi_def_cfa_offset 4
 2841 000c BD46     		mov	sp, r7
 2842              		.cfi_def_cfa_register 13
 2843              		@ sp needed
 2844 000e 5DF8047B 		ldr	r7, [sp], #4
 2845              		.cfi_restore 7
 2846              		.cfi_def_cfa_offset 0
 2847 0012 7047     		bx	lr
 2848              		.cfi_endproc
 2849              	.LFE469:
 2851              		.section	.text.HAL_SMBUS_GetState,"ax",%progbits
 2852              		.align	1
 2853              		.global	HAL_SMBUS_GetState
 2854              		.syntax unified
 2855              		.thumb
 2856              		.thumb_func
 2858              	HAL_SMBUS_GetState:
 2859              	.LFB470:
1817:Drivers/STM32L4xx_HAL_Driver/Src/stm32l4xx_hal_smbus.c **** 
1818:Drivers/STM32L4xx_HAL_Driver/Src/stm32l4xx_hal_smbus.c **** /**
1819:Drivers/STM32L4xx_HAL_Driver/Src/stm32l4xx_hal_smbus.c ****   * @}
1820:Drivers/STM32L4xx_HAL_Driver/Src/stm32l4xx_hal_smbus.c ****   */
1821:Drivers/STM32L4xx_HAL_Driver/Src/stm32l4xx_hal_smbus.c **** 
1822:Drivers/STM32L4xx_HAL_Driver/Src/stm32l4xx_hal_smbus.c **** /** @defgroup SMBUS_Exported_Functions_Group3 Peripheral State and Errors functions
1823:Drivers/STM32L4xx_HAL_Driver/Src/stm32l4xx_hal_smbus.c ****   *  @brief   Peripheral State and Errors functions
1824:Drivers/STM32L4xx_HAL_Driver/Src/stm32l4xx_hal_smbus.c ****   *
1825:Drivers/STM32L4xx_HAL_Driver/Src/stm32l4xx_hal_smbus.c **** @verbatim
1826:Drivers/STM32L4xx_HAL_Driver/Src/stm32l4xx_hal_smbus.c ****  ===============================================================================
1827:Drivers/STM32L4xx_HAL_Driver/Src/stm32l4xx_hal_smbus.c ****             ##### Peripheral State and Errors functions #####
1828:Drivers/STM32L4xx_HAL_Driver/Src/stm32l4xx_hal_smbus.c ****  ===============================================================================
1829:Drivers/STM32L4xx_HAL_Driver/Src/stm32l4xx_hal_smbus.c ****     [..]
1830:Drivers/STM32L4xx_HAL_Driver/Src/stm32l4xx_hal_smbus.c ****     This subsection permits to get in run-time the status of the peripheral
1831:Drivers/STM32L4xx_HAL_Driver/Src/stm32l4xx_hal_smbus.c ****     and the data flow.
1832:Drivers/STM32L4xx_HAL_Driver/Src/stm32l4xx_hal_smbus.c **** 
1833:Drivers/STM32L4xx_HAL_Driver/Src/stm32l4xx_hal_smbus.c **** @endverbatim
1834:Drivers/STM32L4xx_HAL_Driver/Src/stm32l4xx_hal_smbus.c ****   * @{
ARM GAS  /tmp/ccysATpZ.s 			page 83


1835:Drivers/STM32L4xx_HAL_Driver/Src/stm32l4xx_hal_smbus.c ****   */
1836:Drivers/STM32L4xx_HAL_Driver/Src/stm32l4xx_hal_smbus.c **** 
1837:Drivers/STM32L4xx_HAL_Driver/Src/stm32l4xx_hal_smbus.c **** /**
1838:Drivers/STM32L4xx_HAL_Driver/Src/stm32l4xx_hal_smbus.c ****   * @brief  Return the SMBUS handle state.
1839:Drivers/STM32L4xx_HAL_Driver/Src/stm32l4xx_hal_smbus.c ****   * @param  hsmbus Pointer to a SMBUS_HandleTypeDef structure that contains
1840:Drivers/STM32L4xx_HAL_Driver/Src/stm32l4xx_hal_smbus.c ****   *                the configuration information for the specified SMBUS.
1841:Drivers/STM32L4xx_HAL_Driver/Src/stm32l4xx_hal_smbus.c ****   * @retval HAL state
1842:Drivers/STM32L4xx_HAL_Driver/Src/stm32l4xx_hal_smbus.c ****   */
1843:Drivers/STM32L4xx_HAL_Driver/Src/stm32l4xx_hal_smbus.c **** uint32_t HAL_SMBUS_GetState(const SMBUS_HandleTypeDef *hsmbus)
1844:Drivers/STM32L4xx_HAL_Driver/Src/stm32l4xx_hal_smbus.c **** {
 2860              		.loc 1 1844 1
 2861              		.cfi_startproc
 2862              		@ args = 0, pretend = 0, frame = 8
 2863              		@ frame_needed = 1, uses_anonymous_args = 0
 2864              		@ link register save eliminated.
 2865 0000 80B4     		push	{r7}
 2866              		.cfi_def_cfa_offset 4
 2867              		.cfi_offset 7, -4
 2868 0002 83B0     		sub	sp, sp, #12
 2869              		.cfi_def_cfa_offset 16
 2870 0004 00AF     		add	r7, sp, #0
 2871              		.cfi_def_cfa_register 7
 2872 0006 7860     		str	r0, [r7, #4]
1845:Drivers/STM32L4xx_HAL_Driver/Src/stm32l4xx_hal_smbus.c ****   /* Return SMBUS handle state */
1846:Drivers/STM32L4xx_HAL_Driver/Src/stm32l4xx_hal_smbus.c ****   return hsmbus->State;
 2873              		.loc 1 1846 16
 2874 0008 7B68     		ldr	r3, [r7, #4]
 2875 000a 9B6C     		ldr	r3, [r3, #72]
1847:Drivers/STM32L4xx_HAL_Driver/Src/stm32l4xx_hal_smbus.c **** }
 2876              		.loc 1 1847 1
 2877 000c 1846     		mov	r0, r3
 2878 000e 0C37     		adds	r7, r7, #12
 2879              		.cfi_def_cfa_offset 4
 2880 0010 BD46     		mov	sp, r7
 2881              		.cfi_def_cfa_register 13
 2882              		@ sp needed
 2883 0012 5DF8047B 		ldr	r7, [sp], #4
 2884              		.cfi_restore 7
 2885              		.cfi_def_cfa_offset 0
 2886 0016 7047     		bx	lr
 2887              		.cfi_endproc
 2888              	.LFE470:
 2890              		.section	.text.HAL_SMBUS_GetError,"ax",%progbits
 2891              		.align	1
 2892              		.global	HAL_SMBUS_GetError
 2893              		.syntax unified
 2894              		.thumb
 2895              		.thumb_func
 2897              	HAL_SMBUS_GetError:
 2898              	.LFB471:
1848:Drivers/STM32L4xx_HAL_Driver/Src/stm32l4xx_hal_smbus.c **** 
1849:Drivers/STM32L4xx_HAL_Driver/Src/stm32l4xx_hal_smbus.c **** /**
1850:Drivers/STM32L4xx_HAL_Driver/Src/stm32l4xx_hal_smbus.c ****   * @brief  Return the SMBUS error code.
1851:Drivers/STM32L4xx_HAL_Driver/Src/stm32l4xx_hal_smbus.c ****   * @param  hsmbus Pointer to a SMBUS_HandleTypeDef structure that contains
1852:Drivers/STM32L4xx_HAL_Driver/Src/stm32l4xx_hal_smbus.c ****   *              the configuration information for the specified SMBUS.
1853:Drivers/STM32L4xx_HAL_Driver/Src/stm32l4xx_hal_smbus.c ****   * @retval SMBUS Error Code
1854:Drivers/STM32L4xx_HAL_Driver/Src/stm32l4xx_hal_smbus.c ****   */
ARM GAS  /tmp/ccysATpZ.s 			page 84


1855:Drivers/STM32L4xx_HAL_Driver/Src/stm32l4xx_hal_smbus.c **** uint32_t HAL_SMBUS_GetError(const SMBUS_HandleTypeDef *hsmbus)
1856:Drivers/STM32L4xx_HAL_Driver/Src/stm32l4xx_hal_smbus.c **** {
 2899              		.loc 1 1856 1
 2900              		.cfi_startproc
 2901              		@ args = 0, pretend = 0, frame = 8
 2902              		@ frame_needed = 1, uses_anonymous_args = 0
 2903              		@ link register save eliminated.
 2904 0000 80B4     		push	{r7}
 2905              		.cfi_def_cfa_offset 4
 2906              		.cfi_offset 7, -4
 2907 0002 83B0     		sub	sp, sp, #12
 2908              		.cfi_def_cfa_offset 16
 2909 0004 00AF     		add	r7, sp, #0
 2910              		.cfi_def_cfa_register 7
 2911 0006 7860     		str	r0, [r7, #4]
1857:Drivers/STM32L4xx_HAL_Driver/Src/stm32l4xx_hal_smbus.c ****   return hsmbus->ErrorCode;
 2912              		.loc 1 1857 16
 2913 0008 7B68     		ldr	r3, [r7, #4]
 2914 000a DB6C     		ldr	r3, [r3, #76]
1858:Drivers/STM32L4xx_HAL_Driver/Src/stm32l4xx_hal_smbus.c **** }
 2915              		.loc 1 1858 1
 2916 000c 1846     		mov	r0, r3
 2917 000e 0C37     		adds	r7, r7, #12
 2918              		.cfi_def_cfa_offset 4
 2919 0010 BD46     		mov	sp, r7
 2920              		.cfi_def_cfa_register 13
 2921              		@ sp needed
 2922 0012 5DF8047B 		ldr	r7, [sp], #4
 2923              		.cfi_restore 7
 2924              		.cfi_def_cfa_offset 0
 2925 0016 7047     		bx	lr
 2926              		.cfi_endproc
 2927              	.LFE471:
 2929              		.section	.text.SMBUS_Master_ISR,"ax",%progbits
 2930              		.align	1
 2931              		.syntax unified
 2932              		.thumb
 2933              		.thumb_func
 2935              	SMBUS_Master_ISR:
 2936              	.LFB472:
1859:Drivers/STM32L4xx_HAL_Driver/Src/stm32l4xx_hal_smbus.c **** 
1860:Drivers/STM32L4xx_HAL_Driver/Src/stm32l4xx_hal_smbus.c **** /**
1861:Drivers/STM32L4xx_HAL_Driver/Src/stm32l4xx_hal_smbus.c ****   * @}
1862:Drivers/STM32L4xx_HAL_Driver/Src/stm32l4xx_hal_smbus.c ****   */
1863:Drivers/STM32L4xx_HAL_Driver/Src/stm32l4xx_hal_smbus.c **** 
1864:Drivers/STM32L4xx_HAL_Driver/Src/stm32l4xx_hal_smbus.c **** /**
1865:Drivers/STM32L4xx_HAL_Driver/Src/stm32l4xx_hal_smbus.c ****   * @}
1866:Drivers/STM32L4xx_HAL_Driver/Src/stm32l4xx_hal_smbus.c ****   */
1867:Drivers/STM32L4xx_HAL_Driver/Src/stm32l4xx_hal_smbus.c **** 
1868:Drivers/STM32L4xx_HAL_Driver/Src/stm32l4xx_hal_smbus.c **** /** @addtogroup SMBUS_Private_Functions SMBUS Private Functions
1869:Drivers/STM32L4xx_HAL_Driver/Src/stm32l4xx_hal_smbus.c ****   *  @brief   Data transfers Private functions
1870:Drivers/STM32L4xx_HAL_Driver/Src/stm32l4xx_hal_smbus.c ****   * @{
1871:Drivers/STM32L4xx_HAL_Driver/Src/stm32l4xx_hal_smbus.c ****   */
1872:Drivers/STM32L4xx_HAL_Driver/Src/stm32l4xx_hal_smbus.c **** 
1873:Drivers/STM32L4xx_HAL_Driver/Src/stm32l4xx_hal_smbus.c **** /**
1874:Drivers/STM32L4xx_HAL_Driver/Src/stm32l4xx_hal_smbus.c ****   * @brief  Interrupt Sub-Routine which handle the Interrupt Flags Master Mode.
1875:Drivers/STM32L4xx_HAL_Driver/Src/stm32l4xx_hal_smbus.c ****   * @param  hsmbus Pointer to a SMBUS_HandleTypeDef structure that contains
ARM GAS  /tmp/ccysATpZ.s 			page 85


1876:Drivers/STM32L4xx_HAL_Driver/Src/stm32l4xx_hal_smbus.c ****   *                the configuration information for the specified SMBUS.
1877:Drivers/STM32L4xx_HAL_Driver/Src/stm32l4xx_hal_smbus.c ****   * @param  StatusFlags Value of Interrupt Flags.
1878:Drivers/STM32L4xx_HAL_Driver/Src/stm32l4xx_hal_smbus.c ****   * @retval HAL status
1879:Drivers/STM32L4xx_HAL_Driver/Src/stm32l4xx_hal_smbus.c ****   */
1880:Drivers/STM32L4xx_HAL_Driver/Src/stm32l4xx_hal_smbus.c **** static HAL_StatusTypeDef SMBUS_Master_ISR(SMBUS_HandleTypeDef *hsmbus, uint32_t StatusFlags)
1881:Drivers/STM32L4xx_HAL_Driver/Src/stm32l4xx_hal_smbus.c **** {
 2937              		.loc 1 1881 1
 2938              		.cfi_startproc
 2939              		@ args = 0, pretend = 0, frame = 16
 2940              		@ frame_needed = 1, uses_anonymous_args = 0
 2941 0000 80B5     		push	{r7, lr}
 2942              		.cfi_def_cfa_offset 8
 2943              		.cfi_offset 7, -8
 2944              		.cfi_offset 14, -4
 2945 0002 86B0     		sub	sp, sp, #24
 2946              		.cfi_def_cfa_offset 32
 2947 0004 02AF     		add	r7, sp, #8
 2948              		.cfi_def_cfa 7, 24
 2949 0006 7860     		str	r0, [r7, #4]
 2950 0008 3960     		str	r1, [r7]
1882:Drivers/STM32L4xx_HAL_Driver/Src/stm32l4xx_hal_smbus.c ****   uint16_t DevAddress;
1883:Drivers/STM32L4xx_HAL_Driver/Src/stm32l4xx_hal_smbus.c **** 
1884:Drivers/STM32L4xx_HAL_Driver/Src/stm32l4xx_hal_smbus.c ****   /* Process Locked */
1885:Drivers/STM32L4xx_HAL_Driver/Src/stm32l4xx_hal_smbus.c ****   __HAL_LOCK(hsmbus);
 2951              		.loc 1 1885 3
 2952 000a 7B68     		ldr	r3, [r7, #4]
 2953 000c 93F84430 		ldrb	r3, [r3, #68]	@ zero_extendqisi2
 2954 0010 012B     		cmp	r3, #1
 2955 0012 01D1     		bne	.L136
 2956              		.loc 1 1885 3 is_stmt 0 discriminator 1
 2957 0014 0223     		movs	r3, #2
 2958              		.loc 1 1885 3
 2959 0016 C8E1     		b	.L137
 2960              	.L136:
 2961              		.loc 1 1885 3 discriminator 2
 2962 0018 7B68     		ldr	r3, [r7, #4]
 2963 001a 0122     		movs	r2, #1
 2964 001c 83F84420 		strb	r2, [r3, #68]
1886:Drivers/STM32L4xx_HAL_Driver/Src/stm32l4xx_hal_smbus.c **** 
1887:Drivers/STM32L4xx_HAL_Driver/Src/stm32l4xx_hal_smbus.c ****   if (SMBUS_CHECK_FLAG(StatusFlags, SMBUS_FLAG_AF) != RESET)
 2965              		.loc 1 1887 7 is_stmt 1
 2966 0020 3B68     		ldr	r3, [r7]
 2967 0022 1B09     		lsrs	r3, r3, #4
 2968 0024 03F00103 		and	r3, r3, #1
 2969              		.loc 1 1887 6
 2970 0028 002B     		cmp	r3, #0
 2971 002a 14D0     		beq	.L138
1888:Drivers/STM32L4xx_HAL_Driver/Src/stm32l4xx_hal_smbus.c ****   {
1889:Drivers/STM32L4xx_HAL_Driver/Src/stm32l4xx_hal_smbus.c ****     /* Clear NACK Flag */
1890:Drivers/STM32L4xx_HAL_Driver/Src/stm32l4xx_hal_smbus.c ****     __HAL_SMBUS_CLEAR_FLAG(hsmbus, SMBUS_FLAG_AF);
 2972              		.loc 1 1890 5
 2973 002c 7B68     		ldr	r3, [r7, #4]
 2974 002e 1B68     		ldr	r3, [r3]
 2975 0030 1022     		movs	r2, #16
 2976 0032 DA61     		str	r2, [r3, #28]
1891:Drivers/STM32L4xx_HAL_Driver/Src/stm32l4xx_hal_smbus.c **** 
1892:Drivers/STM32L4xx_HAL_Driver/Src/stm32l4xx_hal_smbus.c ****     /* Set corresponding Error Code */
ARM GAS  /tmp/ccysATpZ.s 			page 86


1893:Drivers/STM32L4xx_HAL_Driver/Src/stm32l4xx_hal_smbus.c ****     /* No need to generate STOP, it is automatically done */
1894:Drivers/STM32L4xx_HAL_Driver/Src/stm32l4xx_hal_smbus.c ****     hsmbus->ErrorCode |= HAL_SMBUS_ERROR_ACKF;
 2977              		.loc 1 1894 11
 2978 0034 7B68     		ldr	r3, [r7, #4]
 2979 0036 DB6C     		ldr	r3, [r3, #76]
 2980              		.loc 1 1894 23
 2981 0038 43F00402 		orr	r2, r3, #4
 2982 003c 7B68     		ldr	r3, [r7, #4]
 2983 003e DA64     		str	r2, [r3, #76]
1895:Drivers/STM32L4xx_HAL_Driver/Src/stm32l4xx_hal_smbus.c **** 
1896:Drivers/STM32L4xx_HAL_Driver/Src/stm32l4xx_hal_smbus.c ****     /* Flush TX register */
1897:Drivers/STM32L4xx_HAL_Driver/Src/stm32l4xx_hal_smbus.c ****     SMBUS_Flush_TXDR(hsmbus);
 2984              		.loc 1 1897 5
 2985 0040 7868     		ldr	r0, [r7, #4]
 2986 0042 FFF7FEFF 		bl	SMBUS_Flush_TXDR
1898:Drivers/STM32L4xx_HAL_Driver/Src/stm32l4xx_hal_smbus.c **** 
1899:Drivers/STM32L4xx_HAL_Driver/Src/stm32l4xx_hal_smbus.c ****     /* Process Unlocked */
1900:Drivers/STM32L4xx_HAL_Driver/Src/stm32l4xx_hal_smbus.c ****     __HAL_UNLOCK(hsmbus);
 2987              		.loc 1 1900 5
 2988 0046 7B68     		ldr	r3, [r7, #4]
 2989 0048 0022     		movs	r2, #0
 2990 004a 83F84420 		strb	r2, [r3, #68]
1901:Drivers/STM32L4xx_HAL_Driver/Src/stm32l4xx_hal_smbus.c **** 
1902:Drivers/STM32L4xx_HAL_Driver/Src/stm32l4xx_hal_smbus.c ****     /* Call the Error callback to inform upper layer */
1903:Drivers/STM32L4xx_HAL_Driver/Src/stm32l4xx_hal_smbus.c **** #if (USE_HAL_SMBUS_REGISTER_CALLBACKS == 1)
1904:Drivers/STM32L4xx_HAL_Driver/Src/stm32l4xx_hal_smbus.c ****     hsmbus->ErrorCallback(hsmbus);
1905:Drivers/STM32L4xx_HAL_Driver/Src/stm32l4xx_hal_smbus.c **** #else
1906:Drivers/STM32L4xx_HAL_Driver/Src/stm32l4xx_hal_smbus.c ****     HAL_SMBUS_ErrorCallback(hsmbus);
 2991              		.loc 1 1906 5
 2992 004e 7868     		ldr	r0, [r7, #4]
 2993 0050 FFF7FEFF 		bl	HAL_SMBUS_ErrorCallback
 2994 0054 A4E1     		b	.L139
 2995              	.L138:
1907:Drivers/STM32L4xx_HAL_Driver/Src/stm32l4xx_hal_smbus.c **** #endif /* USE_HAL_SMBUS_REGISTER_CALLBACKS */
1908:Drivers/STM32L4xx_HAL_Driver/Src/stm32l4xx_hal_smbus.c ****   }
1909:Drivers/STM32L4xx_HAL_Driver/Src/stm32l4xx_hal_smbus.c ****   else if (SMBUS_CHECK_FLAG(StatusFlags, SMBUS_FLAG_STOPF) != RESET)
 2996              		.loc 1 1909 12
 2997 0056 3B68     		ldr	r3, [r7]
 2998 0058 5B09     		lsrs	r3, r3, #5
 2999 005a 03F00103 		and	r3, r3, #1
 3000              		.loc 1 1909 11
 3001 005e 002B     		cmp	r3, #0
 3002 0060 7AD0     		beq	.L140
1910:Drivers/STM32L4xx_HAL_Driver/Src/stm32l4xx_hal_smbus.c ****   {
1911:Drivers/STM32L4xx_HAL_Driver/Src/stm32l4xx_hal_smbus.c ****     /* Check and treat errors if errors occurs during STOP process */
1912:Drivers/STM32L4xx_HAL_Driver/Src/stm32l4xx_hal_smbus.c ****     SMBUS_ITErrorHandler(hsmbus);
 3003              		.loc 1 1912 5
 3004 0062 7868     		ldr	r0, [r7, #4]
 3005 0064 FFF7FEFF 		bl	SMBUS_ITErrorHandler
1913:Drivers/STM32L4xx_HAL_Driver/Src/stm32l4xx_hal_smbus.c **** 
1914:Drivers/STM32L4xx_HAL_Driver/Src/stm32l4xx_hal_smbus.c ****     /* Call the corresponding callback to inform upper layer of End of Transfer */
1915:Drivers/STM32L4xx_HAL_Driver/Src/stm32l4xx_hal_smbus.c ****     if (hsmbus->State == HAL_SMBUS_STATE_MASTER_BUSY_TX)
 3006              		.loc 1 1915 15
 3007 0068 7B68     		ldr	r3, [r7, #4]
 3008 006a 9B6C     		ldr	r3, [r3, #72]
 3009              		.loc 1 1915 8
 3010 006c 122B     		cmp	r3, #18
ARM GAS  /tmp/ccysATpZ.s 			page 87


 3011 006e 2DD1     		bne	.L141
1916:Drivers/STM32L4xx_HAL_Driver/Src/stm32l4xx_hal_smbus.c ****     {
1917:Drivers/STM32L4xx_HAL_Driver/Src/stm32l4xx_hal_smbus.c ****       /* Disable Interrupt */
1918:Drivers/STM32L4xx_HAL_Driver/Src/stm32l4xx_hal_smbus.c ****       SMBUS_Disable_IRQ(hsmbus, SMBUS_IT_TX);
 3012              		.loc 1 1918 7
 3013 0070 F221     		movs	r1, #242
 3014 0072 7868     		ldr	r0, [r7, #4]
 3015 0074 FFF7FEFF 		bl	SMBUS_Disable_IRQ
1919:Drivers/STM32L4xx_HAL_Driver/Src/stm32l4xx_hal_smbus.c **** 
1920:Drivers/STM32L4xx_HAL_Driver/Src/stm32l4xx_hal_smbus.c ****       /* Clear STOP Flag */
1921:Drivers/STM32L4xx_HAL_Driver/Src/stm32l4xx_hal_smbus.c ****       __HAL_SMBUS_CLEAR_FLAG(hsmbus, SMBUS_FLAG_STOPF);
 3016              		.loc 1 1921 7
 3017 0078 7B68     		ldr	r3, [r7, #4]
 3018 007a 1B68     		ldr	r3, [r3]
 3019 007c 2022     		movs	r2, #32
 3020 007e DA61     		str	r2, [r3, #28]
1922:Drivers/STM32L4xx_HAL_Driver/Src/stm32l4xx_hal_smbus.c **** 
1923:Drivers/STM32L4xx_HAL_Driver/Src/stm32l4xx_hal_smbus.c ****       /* Clear Configuration Register 2 */
1924:Drivers/STM32L4xx_HAL_Driver/Src/stm32l4xx_hal_smbus.c ****       SMBUS_RESET_CR2(hsmbus);
 3021              		.loc 1 1924 7
 3022 0080 7B68     		ldr	r3, [r7, #4]
 3023 0082 1B68     		ldr	r3, [r3]
 3024 0084 5968     		ldr	r1, [r3, #4]
 3025 0086 7B68     		ldr	r3, [r7, #4]
 3026 0088 1A68     		ldr	r2, [r3]
 3027 008a 914B     		ldr	r3, .L154
 3028 008c 0B40     		ands	r3, r3, r1
 3029 008e 5360     		str	r3, [r2, #4]
1925:Drivers/STM32L4xx_HAL_Driver/Src/stm32l4xx_hal_smbus.c **** 
1926:Drivers/STM32L4xx_HAL_Driver/Src/stm32l4xx_hal_smbus.c ****       /* Flush remaining data in Fifo register in case of error occurs before TXEmpty */
1927:Drivers/STM32L4xx_HAL_Driver/Src/stm32l4xx_hal_smbus.c ****       /* Disable the selected SMBUS peripheral */
1928:Drivers/STM32L4xx_HAL_Driver/Src/stm32l4xx_hal_smbus.c ****       __HAL_SMBUS_DISABLE(hsmbus);
 3030              		.loc 1 1928 7
 3031 0090 7B68     		ldr	r3, [r7, #4]
 3032 0092 1B68     		ldr	r3, [r3]
 3033 0094 1A68     		ldr	r2, [r3]
 3034 0096 7B68     		ldr	r3, [r7, #4]
 3035 0098 1B68     		ldr	r3, [r3]
 3036 009a 22F00102 		bic	r2, r2, #1
 3037 009e 1A60     		str	r2, [r3]
1929:Drivers/STM32L4xx_HAL_Driver/Src/stm32l4xx_hal_smbus.c **** 
1930:Drivers/STM32L4xx_HAL_Driver/Src/stm32l4xx_hal_smbus.c ****       hsmbus->PreviousState = HAL_SMBUS_STATE_READY;
 3038              		.loc 1 1930 29
 3039 00a0 7B68     		ldr	r3, [r7, #4]
 3040 00a2 0122     		movs	r2, #1
 3041 00a4 1A64     		str	r2, [r3, #64]
1931:Drivers/STM32L4xx_HAL_Driver/Src/stm32l4xx_hal_smbus.c ****       hsmbus->State = HAL_SMBUS_STATE_READY;
 3042              		.loc 1 1931 21
 3043 00a6 7B68     		ldr	r3, [r7, #4]
 3044 00a8 0122     		movs	r2, #1
 3045 00aa 9A64     		str	r2, [r3, #72]
1932:Drivers/STM32L4xx_HAL_Driver/Src/stm32l4xx_hal_smbus.c **** 
1933:Drivers/STM32L4xx_HAL_Driver/Src/stm32l4xx_hal_smbus.c ****       /* Process Unlocked */
1934:Drivers/STM32L4xx_HAL_Driver/Src/stm32l4xx_hal_smbus.c ****       __HAL_UNLOCK(hsmbus);
 3046              		.loc 1 1934 7
 3047 00ac 7B68     		ldr	r3, [r7, #4]
 3048 00ae 0022     		movs	r2, #0
ARM GAS  /tmp/ccysATpZ.s 			page 88


 3049 00b0 83F84420 		strb	r2, [r3, #68]
1935:Drivers/STM32L4xx_HAL_Driver/Src/stm32l4xx_hal_smbus.c **** 
1936:Drivers/STM32L4xx_HAL_Driver/Src/stm32l4xx_hal_smbus.c ****       /* Re-enable the selected SMBUS peripheral */
1937:Drivers/STM32L4xx_HAL_Driver/Src/stm32l4xx_hal_smbus.c ****       __HAL_SMBUS_ENABLE(hsmbus);
 3050              		.loc 1 1937 7
 3051 00b4 7B68     		ldr	r3, [r7, #4]
 3052 00b6 1B68     		ldr	r3, [r3]
 3053 00b8 1A68     		ldr	r2, [r3]
 3054 00ba 7B68     		ldr	r3, [r7, #4]
 3055 00bc 1B68     		ldr	r3, [r3]
 3056 00be 42F00102 		orr	r2, r2, #1
 3057 00c2 1A60     		str	r2, [r3]
1938:Drivers/STM32L4xx_HAL_Driver/Src/stm32l4xx_hal_smbus.c **** 
1939:Drivers/STM32L4xx_HAL_Driver/Src/stm32l4xx_hal_smbus.c ****       /* Call the corresponding callback to inform upper layer of End of Transfer */
1940:Drivers/STM32L4xx_HAL_Driver/Src/stm32l4xx_hal_smbus.c **** #if (USE_HAL_SMBUS_REGISTER_CALLBACKS == 1)
1941:Drivers/STM32L4xx_HAL_Driver/Src/stm32l4xx_hal_smbus.c ****       hsmbus->MasterTxCpltCallback(hsmbus);
1942:Drivers/STM32L4xx_HAL_Driver/Src/stm32l4xx_hal_smbus.c **** #else
1943:Drivers/STM32L4xx_HAL_Driver/Src/stm32l4xx_hal_smbus.c ****       HAL_SMBUS_MasterTxCpltCallback(hsmbus);
 3058              		.loc 1 1943 7
 3059 00c4 7868     		ldr	r0, [r7, #4]
 3060 00c6 FFF7FEFF 		bl	HAL_SMBUS_MasterTxCpltCallback
 3061 00ca 69E1     		b	.L139
 3062              	.L141:
1944:Drivers/STM32L4xx_HAL_Driver/Src/stm32l4xx_hal_smbus.c **** #endif /* USE_HAL_SMBUS_REGISTER_CALLBACKS */
1945:Drivers/STM32L4xx_HAL_Driver/Src/stm32l4xx_hal_smbus.c ****     }
1946:Drivers/STM32L4xx_HAL_Driver/Src/stm32l4xx_hal_smbus.c ****     else if (hsmbus->State == HAL_SMBUS_STATE_MASTER_BUSY_RX)
 3063              		.loc 1 1946 20
 3064 00cc 7B68     		ldr	r3, [r7, #4]
 3065 00ce 9B6C     		ldr	r3, [r3, #72]
 3066              		.loc 1 1946 13
 3067 00d0 222B     		cmp	r3, #34
 3068 00d2 40F06581 		bne	.L139
1947:Drivers/STM32L4xx_HAL_Driver/Src/stm32l4xx_hal_smbus.c ****     {
1948:Drivers/STM32L4xx_HAL_Driver/Src/stm32l4xx_hal_smbus.c ****       /* Store Last receive data if any */
1949:Drivers/STM32L4xx_HAL_Driver/Src/stm32l4xx_hal_smbus.c ****       if (SMBUS_CHECK_FLAG(StatusFlags, SMBUS_FLAG_RXNE) != RESET)
 3069              		.loc 1 1949 11
 3070 00d6 3B68     		ldr	r3, [r7]
 3071 00d8 9B08     		lsrs	r3, r3, #2
 3072 00da 03F00103 		and	r3, r3, #1
 3073              		.loc 1 1949 10
 3074 00de 002B     		cmp	r3, #0
 3075 00e0 1CD0     		beq	.L142
1950:Drivers/STM32L4xx_HAL_Driver/Src/stm32l4xx_hal_smbus.c ****       {
1951:Drivers/STM32L4xx_HAL_Driver/Src/stm32l4xx_hal_smbus.c ****         /* Read data from RXDR */
1952:Drivers/STM32L4xx_HAL_Driver/Src/stm32l4xx_hal_smbus.c ****         *hsmbus->pBuffPtr = (uint8_t)(hsmbus->Instance->RXDR);
 3076              		.loc 1 1952 45
 3077 00e2 7B68     		ldr	r3, [r7, #4]
 3078 00e4 1B68     		ldr	r3, [r3]
 3079              		.loc 1 1952 55
 3080 00e6 5A6A     		ldr	r2, [r3, #36]
 3081              		.loc 1 1952 16
 3082 00e8 7B68     		ldr	r3, [r7, #4]
 3083 00ea 5B6B     		ldr	r3, [r3, #52]
 3084              		.loc 1 1952 29
 3085 00ec D2B2     		uxtb	r2, r2
 3086              		.loc 1 1952 27
 3087 00ee 1A70     		strb	r2, [r3]
ARM GAS  /tmp/ccysATpZ.s 			page 89


1953:Drivers/STM32L4xx_HAL_Driver/Src/stm32l4xx_hal_smbus.c **** 
1954:Drivers/STM32L4xx_HAL_Driver/Src/stm32l4xx_hal_smbus.c ****         /* Increment Buffer pointer */
1955:Drivers/STM32L4xx_HAL_Driver/Src/stm32l4xx_hal_smbus.c ****         hsmbus->pBuffPtr++;
 3088              		.loc 1 1955 15
 3089 00f0 7B68     		ldr	r3, [r7, #4]
 3090 00f2 5B6B     		ldr	r3, [r3, #52]
 3091              		.loc 1 1955 25
 3092 00f4 5A1C     		adds	r2, r3, #1
 3093 00f6 7B68     		ldr	r3, [r7, #4]
 3094 00f8 5A63     		str	r2, [r3, #52]
1956:Drivers/STM32L4xx_HAL_Driver/Src/stm32l4xx_hal_smbus.c **** 
1957:Drivers/STM32L4xx_HAL_Driver/Src/stm32l4xx_hal_smbus.c ****         if (hsmbus->XferSize > 0U)
 3095              		.loc 1 1957 19
 3096 00fa 7B68     		ldr	r3, [r7, #4]
 3097 00fc 1B8F     		ldrh	r3, [r3, #56]
 3098              		.loc 1 1957 12
 3099 00fe 002B     		cmp	r3, #0
 3100 0100 0CD0     		beq	.L142
1958:Drivers/STM32L4xx_HAL_Driver/Src/stm32l4xx_hal_smbus.c ****         {
1959:Drivers/STM32L4xx_HAL_Driver/Src/stm32l4xx_hal_smbus.c ****           hsmbus->XferSize--;
 3101              		.loc 1 1959 17
 3102 0102 7B68     		ldr	r3, [r7, #4]
 3103 0104 1B8F     		ldrh	r3, [r3, #56]
 3104              		.loc 1 1959 27
 3105 0106 013B     		subs	r3, r3, #1
 3106 0108 9AB2     		uxth	r2, r3
 3107 010a 7B68     		ldr	r3, [r7, #4]
 3108 010c 1A87     		strh	r2, [r3, #56]	@ movhi
1960:Drivers/STM32L4xx_HAL_Driver/Src/stm32l4xx_hal_smbus.c ****           hsmbus->XferCount--;
 3109              		.loc 1 1960 17
 3110 010e 7B68     		ldr	r3, [r7, #4]
 3111 0110 5B8F     		ldrh	r3, [r3, #58]	@ movhi
 3112 0112 9BB2     		uxth	r3, r3
 3113              		.loc 1 1960 28
 3114 0114 013B     		subs	r3, r3, #1
 3115 0116 9AB2     		uxth	r2, r3
 3116 0118 7B68     		ldr	r3, [r7, #4]
 3117 011a 5A87     		strh	r2, [r3, #58]	@ movhi
 3118              	.L142:
1961:Drivers/STM32L4xx_HAL_Driver/Src/stm32l4xx_hal_smbus.c ****         }
1962:Drivers/STM32L4xx_HAL_Driver/Src/stm32l4xx_hal_smbus.c ****       }
1963:Drivers/STM32L4xx_HAL_Driver/Src/stm32l4xx_hal_smbus.c **** 
1964:Drivers/STM32L4xx_HAL_Driver/Src/stm32l4xx_hal_smbus.c ****       /* Disable Interrupt */
1965:Drivers/STM32L4xx_HAL_Driver/Src/stm32l4xx_hal_smbus.c ****       SMBUS_Disable_IRQ(hsmbus, SMBUS_IT_RX);
 3119              		.loc 1 1965 7
 3120 011c D421     		movs	r1, #212
 3121 011e 7868     		ldr	r0, [r7, #4]
 3122 0120 FFF7FEFF 		bl	SMBUS_Disable_IRQ
1966:Drivers/STM32L4xx_HAL_Driver/Src/stm32l4xx_hal_smbus.c **** 
1967:Drivers/STM32L4xx_HAL_Driver/Src/stm32l4xx_hal_smbus.c ****       /* Clear STOP Flag */
1968:Drivers/STM32L4xx_HAL_Driver/Src/stm32l4xx_hal_smbus.c ****       __HAL_SMBUS_CLEAR_FLAG(hsmbus, SMBUS_FLAG_STOPF);
 3123              		.loc 1 1968 7
 3124 0124 7B68     		ldr	r3, [r7, #4]
 3125 0126 1B68     		ldr	r3, [r3]
 3126 0128 2022     		movs	r2, #32
 3127 012a DA61     		str	r2, [r3, #28]
1969:Drivers/STM32L4xx_HAL_Driver/Src/stm32l4xx_hal_smbus.c **** 
ARM GAS  /tmp/ccysATpZ.s 			page 90


1970:Drivers/STM32L4xx_HAL_Driver/Src/stm32l4xx_hal_smbus.c ****       /* Clear Configuration Register 2 */
1971:Drivers/STM32L4xx_HAL_Driver/Src/stm32l4xx_hal_smbus.c ****       SMBUS_RESET_CR2(hsmbus);
 3128              		.loc 1 1971 7
 3129 012c 7B68     		ldr	r3, [r7, #4]
 3130 012e 1B68     		ldr	r3, [r3]
 3131 0130 5968     		ldr	r1, [r3, #4]
 3132 0132 7B68     		ldr	r3, [r7, #4]
 3133 0134 1A68     		ldr	r2, [r3]
 3134 0136 664B     		ldr	r3, .L154
 3135 0138 0B40     		ands	r3, r3, r1
 3136 013a 5360     		str	r3, [r2, #4]
1972:Drivers/STM32L4xx_HAL_Driver/Src/stm32l4xx_hal_smbus.c **** 
1973:Drivers/STM32L4xx_HAL_Driver/Src/stm32l4xx_hal_smbus.c ****       hsmbus->PreviousState = HAL_SMBUS_STATE_READY;
 3137              		.loc 1 1973 29
 3138 013c 7B68     		ldr	r3, [r7, #4]
 3139 013e 0122     		movs	r2, #1
 3140 0140 1A64     		str	r2, [r3, #64]
1974:Drivers/STM32L4xx_HAL_Driver/Src/stm32l4xx_hal_smbus.c ****       hsmbus->State = HAL_SMBUS_STATE_READY;
 3141              		.loc 1 1974 21
 3142 0142 7B68     		ldr	r3, [r7, #4]
 3143 0144 0122     		movs	r2, #1
 3144 0146 9A64     		str	r2, [r3, #72]
1975:Drivers/STM32L4xx_HAL_Driver/Src/stm32l4xx_hal_smbus.c **** 
1976:Drivers/STM32L4xx_HAL_Driver/Src/stm32l4xx_hal_smbus.c ****       /* Process Unlocked */
1977:Drivers/STM32L4xx_HAL_Driver/Src/stm32l4xx_hal_smbus.c ****       __HAL_UNLOCK(hsmbus);
 3145              		.loc 1 1977 7
 3146 0148 7B68     		ldr	r3, [r7, #4]
 3147 014a 0022     		movs	r2, #0
 3148 014c 83F84420 		strb	r2, [r3, #68]
1978:Drivers/STM32L4xx_HAL_Driver/Src/stm32l4xx_hal_smbus.c **** 
1979:Drivers/STM32L4xx_HAL_Driver/Src/stm32l4xx_hal_smbus.c ****       /* Call the corresponding callback to inform upper layer of End of Transfer */
1980:Drivers/STM32L4xx_HAL_Driver/Src/stm32l4xx_hal_smbus.c **** #if (USE_HAL_SMBUS_REGISTER_CALLBACKS == 1)
1981:Drivers/STM32L4xx_HAL_Driver/Src/stm32l4xx_hal_smbus.c ****       hsmbus->MasterRxCpltCallback(hsmbus);
1982:Drivers/STM32L4xx_HAL_Driver/Src/stm32l4xx_hal_smbus.c **** #else
1983:Drivers/STM32L4xx_HAL_Driver/Src/stm32l4xx_hal_smbus.c ****       HAL_SMBUS_MasterRxCpltCallback(hsmbus);
 3149              		.loc 1 1983 7
 3150 0150 7868     		ldr	r0, [r7, #4]
 3151 0152 FFF7FEFF 		bl	HAL_SMBUS_MasterRxCpltCallback
 3152 0156 23E1     		b	.L139
 3153              	.L140:
1984:Drivers/STM32L4xx_HAL_Driver/Src/stm32l4xx_hal_smbus.c **** #endif /* USE_HAL_SMBUS_REGISTER_CALLBACKS */
1985:Drivers/STM32L4xx_HAL_Driver/Src/stm32l4xx_hal_smbus.c ****     }
1986:Drivers/STM32L4xx_HAL_Driver/Src/stm32l4xx_hal_smbus.c ****     else
1987:Drivers/STM32L4xx_HAL_Driver/Src/stm32l4xx_hal_smbus.c ****     {
1988:Drivers/STM32L4xx_HAL_Driver/Src/stm32l4xx_hal_smbus.c ****       /* Nothing to do */
1989:Drivers/STM32L4xx_HAL_Driver/Src/stm32l4xx_hal_smbus.c ****     }
1990:Drivers/STM32L4xx_HAL_Driver/Src/stm32l4xx_hal_smbus.c ****   }
1991:Drivers/STM32L4xx_HAL_Driver/Src/stm32l4xx_hal_smbus.c ****   else if (SMBUS_CHECK_FLAG(StatusFlags, SMBUS_FLAG_RXNE) != RESET)
 3154              		.loc 1 1991 12
 3155 0158 3B68     		ldr	r3, [r7]
 3156 015a 9B08     		lsrs	r3, r3, #2
 3157 015c 03F00103 		and	r3, r3, #1
 3158              		.loc 1 1991 11
 3159 0160 002B     		cmp	r3, #0
 3160 0162 19D0     		beq	.L143
1992:Drivers/STM32L4xx_HAL_Driver/Src/stm32l4xx_hal_smbus.c ****   {
1993:Drivers/STM32L4xx_HAL_Driver/Src/stm32l4xx_hal_smbus.c ****     /* Read data from RXDR */
ARM GAS  /tmp/ccysATpZ.s 			page 91


1994:Drivers/STM32L4xx_HAL_Driver/Src/stm32l4xx_hal_smbus.c ****     *hsmbus->pBuffPtr = (uint8_t)(hsmbus->Instance->RXDR);
 3161              		.loc 1 1994 41
 3162 0164 7B68     		ldr	r3, [r7, #4]
 3163 0166 1B68     		ldr	r3, [r3]
 3164              		.loc 1 1994 51
 3165 0168 5A6A     		ldr	r2, [r3, #36]
 3166              		.loc 1 1994 12
 3167 016a 7B68     		ldr	r3, [r7, #4]
 3168 016c 5B6B     		ldr	r3, [r3, #52]
 3169              		.loc 1 1994 25
 3170 016e D2B2     		uxtb	r2, r2
 3171              		.loc 1 1994 23
 3172 0170 1A70     		strb	r2, [r3]
1995:Drivers/STM32L4xx_HAL_Driver/Src/stm32l4xx_hal_smbus.c **** 
1996:Drivers/STM32L4xx_HAL_Driver/Src/stm32l4xx_hal_smbus.c ****     /* Increment Buffer pointer */
1997:Drivers/STM32L4xx_HAL_Driver/Src/stm32l4xx_hal_smbus.c ****     hsmbus->pBuffPtr++;
 3173              		.loc 1 1997 11
 3174 0172 7B68     		ldr	r3, [r7, #4]
 3175 0174 5B6B     		ldr	r3, [r3, #52]
 3176              		.loc 1 1997 21
 3177 0176 5A1C     		adds	r2, r3, #1
 3178 0178 7B68     		ldr	r3, [r7, #4]
 3179 017a 5A63     		str	r2, [r3, #52]
1998:Drivers/STM32L4xx_HAL_Driver/Src/stm32l4xx_hal_smbus.c **** 
1999:Drivers/STM32L4xx_HAL_Driver/Src/stm32l4xx_hal_smbus.c ****     /* Increment Size counter */
2000:Drivers/STM32L4xx_HAL_Driver/Src/stm32l4xx_hal_smbus.c ****     hsmbus->XferSize--;
 3180              		.loc 1 2000 11
 3181 017c 7B68     		ldr	r3, [r7, #4]
 3182 017e 1B8F     		ldrh	r3, [r3, #56]
 3183              		.loc 1 2000 21
 3184 0180 013B     		subs	r3, r3, #1
 3185 0182 9AB2     		uxth	r2, r3
 3186 0184 7B68     		ldr	r3, [r7, #4]
 3187 0186 1A87     		strh	r2, [r3, #56]	@ movhi
2001:Drivers/STM32L4xx_HAL_Driver/Src/stm32l4xx_hal_smbus.c ****     hsmbus->XferCount--;
 3188              		.loc 1 2001 11
 3189 0188 7B68     		ldr	r3, [r7, #4]
 3190 018a 5B8F     		ldrh	r3, [r3, #58]	@ movhi
 3191 018c 9BB2     		uxth	r3, r3
 3192              		.loc 1 2001 22
 3193 018e 013B     		subs	r3, r3, #1
 3194 0190 9AB2     		uxth	r2, r3
 3195 0192 7B68     		ldr	r3, [r7, #4]
 3196 0194 5A87     		strh	r2, [r3, #58]	@ movhi
 3197 0196 03E1     		b	.L139
 3198              	.L143:
2002:Drivers/STM32L4xx_HAL_Driver/Src/stm32l4xx_hal_smbus.c ****   }
2003:Drivers/STM32L4xx_HAL_Driver/Src/stm32l4xx_hal_smbus.c ****   else if (SMBUS_CHECK_FLAG(StatusFlags, SMBUS_FLAG_TXIS) != RESET)
 3199              		.loc 1 2003 12
 3200 0198 3B68     		ldr	r3, [r7]
 3201 019a 5B08     		lsrs	r3, r3, #1
 3202 019c 03F00103 		and	r3, r3, #1
 3203              		.loc 1 2003 11
 3204 01a0 002B     		cmp	r3, #0
 3205 01a2 18D0     		beq	.L144
2004:Drivers/STM32L4xx_HAL_Driver/Src/stm32l4xx_hal_smbus.c ****   {
2005:Drivers/STM32L4xx_HAL_Driver/Src/stm32l4xx_hal_smbus.c ****     /* Write data to TXDR */
ARM GAS  /tmp/ccysATpZ.s 			page 92


2006:Drivers/STM32L4xx_HAL_Driver/Src/stm32l4xx_hal_smbus.c ****     hsmbus->Instance->TXDR = *hsmbus->pBuffPtr;
 3206              		.loc 1 2006 37
 3207 01a4 7B68     		ldr	r3, [r7, #4]
 3208 01a6 5B6B     		ldr	r3, [r3, #52]
 3209              		.loc 1 2006 30
 3210 01a8 1A78     		ldrb	r2, [r3]	@ zero_extendqisi2
 3211              		.loc 1 2006 11
 3212 01aa 7B68     		ldr	r3, [r7, #4]
 3213 01ac 1B68     		ldr	r3, [r3]
 3214              		.loc 1 2006 28
 3215 01ae 9A62     		str	r2, [r3, #40]
2007:Drivers/STM32L4xx_HAL_Driver/Src/stm32l4xx_hal_smbus.c **** 
2008:Drivers/STM32L4xx_HAL_Driver/Src/stm32l4xx_hal_smbus.c ****     /* Increment Buffer pointer */
2009:Drivers/STM32L4xx_HAL_Driver/Src/stm32l4xx_hal_smbus.c ****     hsmbus->pBuffPtr++;
 3216              		.loc 1 2009 11
 3217 01b0 7B68     		ldr	r3, [r7, #4]
 3218 01b2 5B6B     		ldr	r3, [r3, #52]
 3219              		.loc 1 2009 21
 3220 01b4 5A1C     		adds	r2, r3, #1
 3221 01b6 7B68     		ldr	r3, [r7, #4]
 3222 01b8 5A63     		str	r2, [r3, #52]
2010:Drivers/STM32L4xx_HAL_Driver/Src/stm32l4xx_hal_smbus.c **** 
2011:Drivers/STM32L4xx_HAL_Driver/Src/stm32l4xx_hal_smbus.c ****     /* Increment Size counter */
2012:Drivers/STM32L4xx_HAL_Driver/Src/stm32l4xx_hal_smbus.c ****     hsmbus->XferSize--;
 3223              		.loc 1 2012 11
 3224 01ba 7B68     		ldr	r3, [r7, #4]
 3225 01bc 1B8F     		ldrh	r3, [r3, #56]
 3226              		.loc 1 2012 21
 3227 01be 013B     		subs	r3, r3, #1
 3228 01c0 9AB2     		uxth	r2, r3
 3229 01c2 7B68     		ldr	r3, [r7, #4]
 3230 01c4 1A87     		strh	r2, [r3, #56]	@ movhi
2013:Drivers/STM32L4xx_HAL_Driver/Src/stm32l4xx_hal_smbus.c ****     hsmbus->XferCount--;
 3231              		.loc 1 2013 11
 3232 01c6 7B68     		ldr	r3, [r7, #4]
 3233 01c8 5B8F     		ldrh	r3, [r3, #58]	@ movhi
 3234 01ca 9BB2     		uxth	r3, r3
 3235              		.loc 1 2013 22
 3236 01cc 013B     		subs	r3, r3, #1
 3237 01ce 9AB2     		uxth	r2, r3
 3238 01d0 7B68     		ldr	r3, [r7, #4]
 3239 01d2 5A87     		strh	r2, [r3, #58]	@ movhi
 3240 01d4 E4E0     		b	.L139
 3241              	.L144:
2014:Drivers/STM32L4xx_HAL_Driver/Src/stm32l4xx_hal_smbus.c ****   }
2015:Drivers/STM32L4xx_HAL_Driver/Src/stm32l4xx_hal_smbus.c ****   else if (SMBUS_CHECK_FLAG(StatusFlags, SMBUS_FLAG_TCR) != RESET)
 3242              		.loc 1 2015 12
 3243 01d6 3B68     		ldr	r3, [r7]
 3244 01d8 DB09     		lsrs	r3, r3, #7
 3245 01da 03F00103 		and	r3, r3, #1
 3246              		.loc 1 2015 11
 3247 01de 002B     		cmp	r3, #0
 3248 01e0 00F08F80 		beq	.L145
2016:Drivers/STM32L4xx_HAL_Driver/Src/stm32l4xx_hal_smbus.c ****   {
2017:Drivers/STM32L4xx_HAL_Driver/Src/stm32l4xx_hal_smbus.c ****     if ((hsmbus->XferCount != 0U) && (hsmbus->XferSize == 0U))
 3249              		.loc 1 2017 16
 3250 01e4 7B68     		ldr	r3, [r7, #4]
ARM GAS  /tmp/ccysATpZ.s 			page 93


 3251 01e6 5B8F     		ldrh	r3, [r3, #58]	@ movhi
 3252 01e8 9BB2     		uxth	r3, r3
 3253              		.loc 1 2017 8
 3254 01ea 002B     		cmp	r3, #0
 3255 01ec 46D0     		beq	.L146
 3256              		.loc 1 2017 45 discriminator 1
 3257 01ee 7B68     		ldr	r3, [r7, #4]
 3258 01f0 1B8F     		ldrh	r3, [r3, #56]
 3259              		.loc 1 2017 35 discriminator 1
 3260 01f2 002B     		cmp	r3, #0
 3261 01f4 42D1     		bne	.L146
2018:Drivers/STM32L4xx_HAL_Driver/Src/stm32l4xx_hal_smbus.c ****     {
2019:Drivers/STM32L4xx_HAL_Driver/Src/stm32l4xx_hal_smbus.c ****       DevAddress = (uint16_t)(hsmbus->Instance->CR2 & I2C_CR2_SADD);
 3262              		.loc 1 2019 37
 3263 01f6 7B68     		ldr	r3, [r7, #4]
 3264 01f8 1B68     		ldr	r3, [r3]
 3265              		.loc 1 2019 47
 3266 01fa 5B68     		ldr	r3, [r3, #4]
 3267              		.loc 1 2019 20
 3268 01fc 9BB2     		uxth	r3, r3
 3269              		.loc 1 2019 18
 3270 01fe C3F30903 		ubfx	r3, r3, #0, #10
 3271 0202 FB81     		strh	r3, [r7, #14]	@ movhi
2020:Drivers/STM32L4xx_HAL_Driver/Src/stm32l4xx_hal_smbus.c **** 
2021:Drivers/STM32L4xx_HAL_Driver/Src/stm32l4xx_hal_smbus.c ****       if (hsmbus->XferCount > MAX_NBYTE_SIZE)
 3272              		.loc 1 2021 17
 3273 0204 7B68     		ldr	r3, [r7, #4]
 3274 0206 5B8F     		ldrh	r3, [r3, #58]	@ movhi
 3275 0208 9BB2     		uxth	r3, r3
 3276              		.loc 1 2021 10
 3277 020a FF2B     		cmp	r3, #255
 3278 020c 10D9     		bls	.L147
2022:Drivers/STM32L4xx_HAL_Driver/Src/stm32l4xx_hal_smbus.c ****       {
2023:Drivers/STM32L4xx_HAL_Driver/Src/stm32l4xx_hal_smbus.c ****         SMBUS_TransferConfig(hsmbus, DevAddress, MAX_NBYTE_SIZE,
2024:Drivers/STM32L4xx_HAL_Driver/Src/stm32l4xx_hal_smbus.c ****                              (SMBUS_RELOAD_MODE | (hsmbus->XferOptions & SMBUS_SENDPEC_MODE)),
 3279              		.loc 1 2024 58
 3280 020e 7B68     		ldr	r3, [r7, #4]
 3281 0210 DB6B     		ldr	r3, [r3, #60]
 3282              		.loc 1 2024 72
 3283 0212 03F08063 		and	r3, r3, #67108864
2023:Drivers/STM32L4xx_HAL_Driver/Src/stm32l4xx_hal_smbus.c ****                              (SMBUS_RELOAD_MODE | (hsmbus->XferOptions & SMBUS_SENDPEC_MODE)),
 3284              		.loc 1 2023 9
 3285 0216 43F08073 		orr	r3, r3, #16777216
 3286 021a F989     		ldrh	r1, [r7, #14]
 3287 021c 0022     		movs	r2, #0
 3288 021e 0092     		str	r2, [sp]
 3289 0220 FF22     		movs	r2, #255
 3290 0222 7868     		ldr	r0, [r7, #4]
 3291 0224 FFF7FEFF 		bl	SMBUS_TransferConfig
2025:Drivers/STM32L4xx_HAL_Driver/Src/stm32l4xx_hal_smbus.c ****                              SMBUS_NO_STARTSTOP);
2026:Drivers/STM32L4xx_HAL_Driver/Src/stm32l4xx_hal_smbus.c ****         hsmbus->XferSize = MAX_NBYTE_SIZE;
 3292              		.loc 1 2026 26
 3293 0228 7B68     		ldr	r3, [r7, #4]
 3294 022a FF22     		movs	r2, #255
 3295 022c 1A87     		strh	r2, [r3, #56]	@ movhi
2021:Drivers/STM32L4xx_HAL_Driver/Src/stm32l4xx_hal_smbus.c ****       {
 3296              		.loc 1 2021 10
ARM GAS  /tmp/ccysATpZ.s 			page 94


 3297 022e B6E0     		b	.L153
 3298              	.L147:
2027:Drivers/STM32L4xx_HAL_Driver/Src/stm32l4xx_hal_smbus.c ****       }
2028:Drivers/STM32L4xx_HAL_Driver/Src/stm32l4xx_hal_smbus.c ****       else
2029:Drivers/STM32L4xx_HAL_Driver/Src/stm32l4xx_hal_smbus.c ****       {
2030:Drivers/STM32L4xx_HAL_Driver/Src/stm32l4xx_hal_smbus.c ****         hsmbus->XferSize = hsmbus->XferCount;
 3299              		.loc 1 2030 34
 3300 0230 7B68     		ldr	r3, [r7, #4]
 3301 0232 5B8F     		ldrh	r3, [r3, #58]	@ movhi
 3302 0234 9AB2     		uxth	r2, r3
 3303              		.loc 1 2030 26
 3304 0236 7B68     		ldr	r3, [r7, #4]
 3305 0238 1A87     		strh	r2, [r3, #56]	@ movhi
2031:Drivers/STM32L4xx_HAL_Driver/Src/stm32l4xx_hal_smbus.c ****         SMBUS_TransferConfig(hsmbus, DevAddress, (uint8_t)hsmbus->XferSize, hsmbus->XferOptions,
 3306              		.loc 1 2031 65
 3307 023a 7B68     		ldr	r3, [r7, #4]
 3308 023c 1B8F     		ldrh	r3, [r3, #56]
 3309              		.loc 1 2031 9
 3310 023e DAB2     		uxtb	r2, r3
 3311              		.loc 1 2031 83
 3312 0240 7B68     		ldr	r3, [r7, #4]
 3313 0242 DB6B     		ldr	r3, [r3, #60]
 3314              		.loc 1 2031 9
 3315 0244 F989     		ldrh	r1, [r7, #14]
 3316 0246 0020     		movs	r0, #0
 3317 0248 0090     		str	r0, [sp]
 3318 024a 7868     		ldr	r0, [r7, #4]
 3319 024c FFF7FEFF 		bl	SMBUS_TransferConfig
2032:Drivers/STM32L4xx_HAL_Driver/Src/stm32l4xx_hal_smbus.c ****                              SMBUS_NO_STARTSTOP);
2033:Drivers/STM32L4xx_HAL_Driver/Src/stm32l4xx_hal_smbus.c ****         /* If PEC mode is enable, size to transmit should be Size-1 byte, corresponding to PEC byte
2034:Drivers/STM32L4xx_HAL_Driver/Src/stm32l4xx_hal_smbus.c ****         /* PEC byte is automatically sent by HW block, no need to manage it in Transmit process */
2035:Drivers/STM32L4xx_HAL_Driver/Src/stm32l4xx_hal_smbus.c ****         if (SMBUS_GET_PEC_MODE(hsmbus) != 0UL)
 3320              		.loc 1 2035 13
 3321 0250 7B68     		ldr	r3, [r7, #4]
 3322 0252 1B68     		ldr	r3, [r3]
 3323 0254 5B68     		ldr	r3, [r3, #4]
 3324 0256 03F08063 		and	r3, r3, #67108864
 3325              		.loc 1 2035 12
 3326 025a 002B     		cmp	r3, #0
 3327 025c 00F09F80 		beq	.L153
2036:Drivers/STM32L4xx_HAL_Driver/Src/stm32l4xx_hal_smbus.c ****         {
2037:Drivers/STM32L4xx_HAL_Driver/Src/stm32l4xx_hal_smbus.c ****           hsmbus->XferSize--;
 3328              		.loc 1 2037 17
 3329 0260 7B68     		ldr	r3, [r7, #4]
 3330 0262 1B8F     		ldrh	r3, [r3, #56]
 3331              		.loc 1 2037 27
 3332 0264 013B     		subs	r3, r3, #1
 3333 0266 9AB2     		uxth	r2, r3
 3334 0268 7B68     		ldr	r3, [r7, #4]
 3335 026a 1A87     		strh	r2, [r3, #56]	@ movhi
2038:Drivers/STM32L4xx_HAL_Driver/Src/stm32l4xx_hal_smbus.c ****           hsmbus->XferCount--;
 3336              		.loc 1 2038 17
 3337 026c 7B68     		ldr	r3, [r7, #4]
 3338 026e 5B8F     		ldrh	r3, [r3, #58]	@ movhi
 3339 0270 9BB2     		uxth	r3, r3
 3340              		.loc 1 2038 28
 3341 0272 013B     		subs	r3, r3, #1
ARM GAS  /tmp/ccysATpZ.s 			page 95


 3342 0274 9AB2     		uxth	r2, r3
 3343 0276 7B68     		ldr	r3, [r7, #4]
 3344 0278 5A87     		strh	r2, [r3, #58]	@ movhi
2021:Drivers/STM32L4xx_HAL_Driver/Src/stm32l4xx_hal_smbus.c ****       {
 3345              		.loc 1 2021 10
 3346 027a 90E0     		b	.L153
 3347              	.L146:
2039:Drivers/STM32L4xx_HAL_Driver/Src/stm32l4xx_hal_smbus.c ****         }
2040:Drivers/STM32L4xx_HAL_Driver/Src/stm32l4xx_hal_smbus.c ****       }
2041:Drivers/STM32L4xx_HAL_Driver/Src/stm32l4xx_hal_smbus.c ****     }
2042:Drivers/STM32L4xx_HAL_Driver/Src/stm32l4xx_hal_smbus.c ****     else if ((hsmbus->XferCount == 0U) && (hsmbus->XferSize == 0U))
 3348              		.loc 1 2042 21
 3349 027c 7B68     		ldr	r3, [r7, #4]
 3350 027e 5B8F     		ldrh	r3, [r3, #58]	@ movhi
 3351 0280 9BB2     		uxth	r3, r3
 3352              		.loc 1 2042 13
 3353 0282 002B     		cmp	r3, #0
 3354 0284 40F08C80 		bne	.L139
 3355              		.loc 1 2042 50 discriminator 1
 3356 0288 7B68     		ldr	r3, [r7, #4]
 3357 028a 1B8F     		ldrh	r3, [r3, #56]
 3358              		.loc 1 2042 40 discriminator 1
 3359 028c 002B     		cmp	r3, #0
 3360 028e 40F08780 		bne	.L139
2043:Drivers/STM32L4xx_HAL_Driver/Src/stm32l4xx_hal_smbus.c ****     {
2044:Drivers/STM32L4xx_HAL_Driver/Src/stm32l4xx_hal_smbus.c ****       /* Call TxCpltCallback() if no stop mode is set */
2045:Drivers/STM32L4xx_HAL_Driver/Src/stm32l4xx_hal_smbus.c ****       if (SMBUS_GET_STOP_MODE(hsmbus) != SMBUS_AUTOEND_MODE)
 3361              		.loc 1 2045 11
 3362 0292 7B68     		ldr	r3, [r7, #4]
 3363 0294 1B68     		ldr	r3, [r3]
 3364 0296 5B68     		ldr	r3, [r3, #4]
 3365 0298 03F00073 		and	r3, r3, #33554432
 3366              		.loc 1 2045 10
 3367 029c B3F1007F 		cmp	r3, #33554432
 3368 02a0 7ED0     		beq	.L139
2046:Drivers/STM32L4xx_HAL_Driver/Src/stm32l4xx_hal_smbus.c ****       {
2047:Drivers/STM32L4xx_HAL_Driver/Src/stm32l4xx_hal_smbus.c ****         /* Call the corresponding callback to inform upper layer of End of Transfer */
2048:Drivers/STM32L4xx_HAL_Driver/Src/stm32l4xx_hal_smbus.c ****         if (hsmbus->State == HAL_SMBUS_STATE_MASTER_BUSY_TX)
 3369              		.loc 1 2048 19
 3370 02a2 7B68     		ldr	r3, [r7, #4]
 3371 02a4 9B6C     		ldr	r3, [r3, #72]
 3372              		.loc 1 2048 12
 3373 02a6 122B     		cmp	r3, #18
 3374 02a8 14D1     		bne	.L150
2049:Drivers/STM32L4xx_HAL_Driver/Src/stm32l4xx_hal_smbus.c ****         {
2050:Drivers/STM32L4xx_HAL_Driver/Src/stm32l4xx_hal_smbus.c ****           /* Disable Interrupt */
2051:Drivers/STM32L4xx_HAL_Driver/Src/stm32l4xx_hal_smbus.c ****           SMBUS_Disable_IRQ(hsmbus, SMBUS_IT_TX);
 3375              		.loc 1 2051 11
 3376 02aa F221     		movs	r1, #242
 3377 02ac 7868     		ldr	r0, [r7, #4]
 3378 02ae FFF7FEFF 		bl	SMBUS_Disable_IRQ
2052:Drivers/STM32L4xx_HAL_Driver/Src/stm32l4xx_hal_smbus.c ****           hsmbus->PreviousState = hsmbus->State;
 3379              		.loc 1 2052 41
 3380 02b2 7B68     		ldr	r3, [r7, #4]
 3381 02b4 9A6C     		ldr	r2, [r3, #72]
 3382              		.loc 1 2052 33
 3383 02b6 7B68     		ldr	r3, [r7, #4]
ARM GAS  /tmp/ccysATpZ.s 			page 96


 3384 02b8 1A64     		str	r2, [r3, #64]
2053:Drivers/STM32L4xx_HAL_Driver/Src/stm32l4xx_hal_smbus.c ****           hsmbus->State = HAL_SMBUS_STATE_READY;
 3385              		.loc 1 2053 25
 3386 02ba 7B68     		ldr	r3, [r7, #4]
 3387 02bc 0122     		movs	r2, #1
 3388 02be 9A64     		str	r2, [r3, #72]
2054:Drivers/STM32L4xx_HAL_Driver/Src/stm32l4xx_hal_smbus.c **** 
2055:Drivers/STM32L4xx_HAL_Driver/Src/stm32l4xx_hal_smbus.c ****           /* Process Unlocked */
2056:Drivers/STM32L4xx_HAL_Driver/Src/stm32l4xx_hal_smbus.c ****           __HAL_UNLOCK(hsmbus);
 3389              		.loc 1 2056 11
 3390 02c0 7B68     		ldr	r3, [r7, #4]
 3391 02c2 0022     		movs	r2, #0
 3392 02c4 83F84420 		strb	r2, [r3, #68]
2057:Drivers/STM32L4xx_HAL_Driver/Src/stm32l4xx_hal_smbus.c **** 
2058:Drivers/STM32L4xx_HAL_Driver/Src/stm32l4xx_hal_smbus.c ****           /* Call the corresponding callback to inform upper layer of End of Transfer */
2059:Drivers/STM32L4xx_HAL_Driver/Src/stm32l4xx_hal_smbus.c **** #if (USE_HAL_SMBUS_REGISTER_CALLBACKS == 1)
2060:Drivers/STM32L4xx_HAL_Driver/Src/stm32l4xx_hal_smbus.c ****           hsmbus->MasterTxCpltCallback(hsmbus);
2061:Drivers/STM32L4xx_HAL_Driver/Src/stm32l4xx_hal_smbus.c **** #else
2062:Drivers/STM32L4xx_HAL_Driver/Src/stm32l4xx_hal_smbus.c ****           HAL_SMBUS_MasterTxCpltCallback(hsmbus);
 3393              		.loc 1 2062 11
 3394 02c8 7868     		ldr	r0, [r7, #4]
 3395 02ca FFF7FEFF 		bl	HAL_SMBUS_MasterTxCpltCallback
 3396 02ce 67E0     		b	.L139
 3397              	.L155:
 3398              		.align	2
 3399              	.L154:
 3400 02d0 00E800FE 		.word	-33495040
 3401              	.L150:
2063:Drivers/STM32L4xx_HAL_Driver/Src/stm32l4xx_hal_smbus.c **** #endif /* USE_HAL_SMBUS_REGISTER_CALLBACKS */
2064:Drivers/STM32L4xx_HAL_Driver/Src/stm32l4xx_hal_smbus.c ****         }
2065:Drivers/STM32L4xx_HAL_Driver/Src/stm32l4xx_hal_smbus.c ****         else if (hsmbus->State == HAL_SMBUS_STATE_MASTER_BUSY_RX)
 3402              		.loc 1 2065 24
 3403 02d4 7B68     		ldr	r3, [r7, #4]
 3404 02d6 9B6C     		ldr	r3, [r3, #72]
 3405              		.loc 1 2065 17
 3406 02d8 222B     		cmp	r3, #34
 3407 02da 61D1     		bne	.L139
2066:Drivers/STM32L4xx_HAL_Driver/Src/stm32l4xx_hal_smbus.c ****         {
2067:Drivers/STM32L4xx_HAL_Driver/Src/stm32l4xx_hal_smbus.c ****           SMBUS_Disable_IRQ(hsmbus, SMBUS_IT_RX);
 3408              		.loc 1 2067 11
 3409 02dc D421     		movs	r1, #212
 3410 02de 7868     		ldr	r0, [r7, #4]
 3411 02e0 FFF7FEFF 		bl	SMBUS_Disable_IRQ
2068:Drivers/STM32L4xx_HAL_Driver/Src/stm32l4xx_hal_smbus.c ****           hsmbus->PreviousState = hsmbus->State;
 3412              		.loc 1 2068 41
 3413 02e4 7B68     		ldr	r3, [r7, #4]
 3414 02e6 9A6C     		ldr	r2, [r3, #72]
 3415              		.loc 1 2068 33
 3416 02e8 7B68     		ldr	r3, [r7, #4]
 3417 02ea 1A64     		str	r2, [r3, #64]
2069:Drivers/STM32L4xx_HAL_Driver/Src/stm32l4xx_hal_smbus.c ****           hsmbus->State = HAL_SMBUS_STATE_READY;
 3418              		.loc 1 2069 25
 3419 02ec 7B68     		ldr	r3, [r7, #4]
 3420 02ee 0122     		movs	r2, #1
 3421 02f0 9A64     		str	r2, [r3, #72]
2070:Drivers/STM32L4xx_HAL_Driver/Src/stm32l4xx_hal_smbus.c **** 
2071:Drivers/STM32L4xx_HAL_Driver/Src/stm32l4xx_hal_smbus.c ****           /* Process Unlocked */
ARM GAS  /tmp/ccysATpZ.s 			page 97


2072:Drivers/STM32L4xx_HAL_Driver/Src/stm32l4xx_hal_smbus.c ****           __HAL_UNLOCK(hsmbus);
 3422              		.loc 1 2072 11
 3423 02f2 7B68     		ldr	r3, [r7, #4]
 3424 02f4 0022     		movs	r2, #0
 3425 02f6 83F84420 		strb	r2, [r3, #68]
2073:Drivers/STM32L4xx_HAL_Driver/Src/stm32l4xx_hal_smbus.c **** 
2074:Drivers/STM32L4xx_HAL_Driver/Src/stm32l4xx_hal_smbus.c ****           /* Call the corresponding callback to inform upper layer of End of Transfer */
2075:Drivers/STM32L4xx_HAL_Driver/Src/stm32l4xx_hal_smbus.c **** #if (USE_HAL_SMBUS_REGISTER_CALLBACKS == 1)
2076:Drivers/STM32L4xx_HAL_Driver/Src/stm32l4xx_hal_smbus.c ****           hsmbus->MasterRxCpltCallback(hsmbus);
2077:Drivers/STM32L4xx_HAL_Driver/Src/stm32l4xx_hal_smbus.c **** #else
2078:Drivers/STM32L4xx_HAL_Driver/Src/stm32l4xx_hal_smbus.c ****           HAL_SMBUS_MasterRxCpltCallback(hsmbus);
 3426              		.loc 1 2078 11
 3427 02fa 7868     		ldr	r0, [r7, #4]
 3428 02fc FFF7FEFF 		bl	HAL_SMBUS_MasterRxCpltCallback
 3429 0300 4EE0     		b	.L139
 3430              	.L145:
2079:Drivers/STM32L4xx_HAL_Driver/Src/stm32l4xx_hal_smbus.c **** #endif /* USE_HAL_SMBUS_REGISTER_CALLBACKS */
2080:Drivers/STM32L4xx_HAL_Driver/Src/stm32l4xx_hal_smbus.c ****         }
2081:Drivers/STM32L4xx_HAL_Driver/Src/stm32l4xx_hal_smbus.c ****         else
2082:Drivers/STM32L4xx_HAL_Driver/Src/stm32l4xx_hal_smbus.c ****         {
2083:Drivers/STM32L4xx_HAL_Driver/Src/stm32l4xx_hal_smbus.c ****           /* Nothing to do */
2084:Drivers/STM32L4xx_HAL_Driver/Src/stm32l4xx_hal_smbus.c ****         }
2085:Drivers/STM32L4xx_HAL_Driver/Src/stm32l4xx_hal_smbus.c ****       }
2086:Drivers/STM32L4xx_HAL_Driver/Src/stm32l4xx_hal_smbus.c ****     }
2087:Drivers/STM32L4xx_HAL_Driver/Src/stm32l4xx_hal_smbus.c ****     else
2088:Drivers/STM32L4xx_HAL_Driver/Src/stm32l4xx_hal_smbus.c ****     {
2089:Drivers/STM32L4xx_HAL_Driver/Src/stm32l4xx_hal_smbus.c ****       /* Nothing to do */
2090:Drivers/STM32L4xx_HAL_Driver/Src/stm32l4xx_hal_smbus.c ****     }
2091:Drivers/STM32L4xx_HAL_Driver/Src/stm32l4xx_hal_smbus.c ****   }
2092:Drivers/STM32L4xx_HAL_Driver/Src/stm32l4xx_hal_smbus.c ****   else if (SMBUS_CHECK_FLAG(StatusFlags, SMBUS_FLAG_TC) != RESET)
 3431              		.loc 1 2092 12
 3432 0302 3B68     		ldr	r3, [r7]
 3433 0304 9B09     		lsrs	r3, r3, #6
 3434 0306 03F00103 		and	r3, r3, #1
 3435              		.loc 1 2092 11
 3436 030a 002B     		cmp	r3, #0
 3437 030c 48D0     		beq	.L139
2093:Drivers/STM32L4xx_HAL_Driver/Src/stm32l4xx_hal_smbus.c ****   {
2094:Drivers/STM32L4xx_HAL_Driver/Src/stm32l4xx_hal_smbus.c ****     if (hsmbus->XferCount == 0U)
 3438              		.loc 1 2094 15
 3439 030e 7B68     		ldr	r3, [r7, #4]
 3440 0310 5B8F     		ldrh	r3, [r3, #58]	@ movhi
 3441 0312 9BB2     		uxth	r3, r3
 3442              		.loc 1 2094 8
 3443 0314 002B     		cmp	r3, #0
 3444 0316 43D1     		bne	.L139
2095:Drivers/STM32L4xx_HAL_Driver/Src/stm32l4xx_hal_smbus.c ****     {
2096:Drivers/STM32L4xx_HAL_Driver/Src/stm32l4xx_hal_smbus.c ****       /* Specific use case for Quick command */
2097:Drivers/STM32L4xx_HAL_Driver/Src/stm32l4xx_hal_smbus.c ****       if (hsmbus->pBuffPtr == NULL)
 3445              		.loc 1 2097 17
 3446 0318 7B68     		ldr	r3, [r7, #4]
 3447 031a 5B6B     		ldr	r3, [r3, #52]
 3448              		.loc 1 2097 10
 3449 031c 002B     		cmp	r3, #0
 3450 031e 08D1     		bne	.L151
2098:Drivers/STM32L4xx_HAL_Driver/Src/stm32l4xx_hal_smbus.c ****       {
2099:Drivers/STM32L4xx_HAL_Driver/Src/stm32l4xx_hal_smbus.c ****         /* Generate a Stop command */
ARM GAS  /tmp/ccysATpZ.s 			page 98


2100:Drivers/STM32L4xx_HAL_Driver/Src/stm32l4xx_hal_smbus.c ****         hsmbus->Instance->CR2 |= I2C_CR2_STOP;
 3451              		.loc 1 2100 15
 3452 0320 7B68     		ldr	r3, [r7, #4]
 3453 0322 1B68     		ldr	r3, [r3]
 3454              		.loc 1 2100 25
 3455 0324 5A68     		ldr	r2, [r3, #4]
 3456              		.loc 1 2100 15
 3457 0326 7B68     		ldr	r3, [r7, #4]
 3458 0328 1B68     		ldr	r3, [r3]
 3459              		.loc 1 2100 31
 3460 032a 42F48042 		orr	r2, r2, #16384
 3461 032e 5A60     		str	r2, [r3, #4]
 3462 0330 36E0     		b	.L139
 3463              	.L151:
2101:Drivers/STM32L4xx_HAL_Driver/Src/stm32l4xx_hal_smbus.c ****       }
2102:Drivers/STM32L4xx_HAL_Driver/Src/stm32l4xx_hal_smbus.c ****       /* Call TxCpltCallback() if no stop mode is set */
2103:Drivers/STM32L4xx_HAL_Driver/Src/stm32l4xx_hal_smbus.c ****       else if (SMBUS_GET_STOP_MODE(hsmbus) != SMBUS_AUTOEND_MODE)
 3464              		.loc 1 2103 16
 3465 0332 7B68     		ldr	r3, [r7, #4]
 3466 0334 1B68     		ldr	r3, [r3]
 3467 0336 5B68     		ldr	r3, [r3, #4]
 3468 0338 03F00073 		and	r3, r3, #33554432
 3469              		.loc 1 2103 15
 3470 033c B3F1007F 		cmp	r3, #33554432
 3471 0340 2ED0     		beq	.L139
2104:Drivers/STM32L4xx_HAL_Driver/Src/stm32l4xx_hal_smbus.c ****       {
2105:Drivers/STM32L4xx_HAL_Driver/Src/stm32l4xx_hal_smbus.c ****         /* No Generate Stop, to permit restart mode */
2106:Drivers/STM32L4xx_HAL_Driver/Src/stm32l4xx_hal_smbus.c ****         /* The stop will be done at the end of transfer, when SMBUS_AUTOEND_MODE enable */
2107:Drivers/STM32L4xx_HAL_Driver/Src/stm32l4xx_hal_smbus.c **** 
2108:Drivers/STM32L4xx_HAL_Driver/Src/stm32l4xx_hal_smbus.c ****         /* Call the corresponding callback to inform upper layer of End of Transfer */
2109:Drivers/STM32L4xx_HAL_Driver/Src/stm32l4xx_hal_smbus.c ****         if (hsmbus->State == HAL_SMBUS_STATE_MASTER_BUSY_TX)
 3472              		.loc 1 2109 19
 3473 0342 7B68     		ldr	r3, [r7, #4]
 3474 0344 9B6C     		ldr	r3, [r3, #72]
 3475              		.loc 1 2109 12
 3476 0346 122B     		cmp	r3, #18
 3477 0348 12D1     		bne	.L152
2110:Drivers/STM32L4xx_HAL_Driver/Src/stm32l4xx_hal_smbus.c ****         {
2111:Drivers/STM32L4xx_HAL_Driver/Src/stm32l4xx_hal_smbus.c ****           /* Disable Interrupt */
2112:Drivers/STM32L4xx_HAL_Driver/Src/stm32l4xx_hal_smbus.c ****           SMBUS_Disable_IRQ(hsmbus, SMBUS_IT_TX);
 3478              		.loc 1 2112 11
 3479 034a F221     		movs	r1, #242
 3480 034c 7868     		ldr	r0, [r7, #4]
 3481 034e FFF7FEFF 		bl	SMBUS_Disable_IRQ
2113:Drivers/STM32L4xx_HAL_Driver/Src/stm32l4xx_hal_smbus.c ****           hsmbus->PreviousState = hsmbus->State;
 3482              		.loc 1 2113 41
 3483 0352 7B68     		ldr	r3, [r7, #4]
 3484 0354 9A6C     		ldr	r2, [r3, #72]
 3485              		.loc 1 2113 33
 3486 0356 7B68     		ldr	r3, [r7, #4]
 3487 0358 1A64     		str	r2, [r3, #64]
2114:Drivers/STM32L4xx_HAL_Driver/Src/stm32l4xx_hal_smbus.c ****           hsmbus->State = HAL_SMBUS_STATE_READY;
 3488              		.loc 1 2114 25
 3489 035a 7B68     		ldr	r3, [r7, #4]
 3490 035c 0122     		movs	r2, #1
 3491 035e 9A64     		str	r2, [r3, #72]
2115:Drivers/STM32L4xx_HAL_Driver/Src/stm32l4xx_hal_smbus.c **** 
ARM GAS  /tmp/ccysATpZ.s 			page 99


2116:Drivers/STM32L4xx_HAL_Driver/Src/stm32l4xx_hal_smbus.c ****           /* Process Unlocked */
2117:Drivers/STM32L4xx_HAL_Driver/Src/stm32l4xx_hal_smbus.c ****           __HAL_UNLOCK(hsmbus);
 3492              		.loc 1 2117 11
 3493 0360 7B68     		ldr	r3, [r7, #4]
 3494 0362 0022     		movs	r2, #0
 3495 0364 83F84420 		strb	r2, [r3, #68]
2118:Drivers/STM32L4xx_HAL_Driver/Src/stm32l4xx_hal_smbus.c **** 
2119:Drivers/STM32L4xx_HAL_Driver/Src/stm32l4xx_hal_smbus.c ****           /* Call the corresponding callback to inform upper layer of End of Transfer */
2120:Drivers/STM32L4xx_HAL_Driver/Src/stm32l4xx_hal_smbus.c **** #if (USE_HAL_SMBUS_REGISTER_CALLBACKS == 1)
2121:Drivers/STM32L4xx_HAL_Driver/Src/stm32l4xx_hal_smbus.c ****           hsmbus->MasterTxCpltCallback(hsmbus);
2122:Drivers/STM32L4xx_HAL_Driver/Src/stm32l4xx_hal_smbus.c **** #else
2123:Drivers/STM32L4xx_HAL_Driver/Src/stm32l4xx_hal_smbus.c ****           HAL_SMBUS_MasterTxCpltCallback(hsmbus);
 3496              		.loc 1 2123 11
 3497 0368 7868     		ldr	r0, [r7, #4]
 3498 036a FFF7FEFF 		bl	HAL_SMBUS_MasterTxCpltCallback
 3499 036e 17E0     		b	.L139
 3500              	.L152:
2124:Drivers/STM32L4xx_HAL_Driver/Src/stm32l4xx_hal_smbus.c **** #endif /* USE_HAL_SMBUS_REGISTER_CALLBACKS */
2125:Drivers/STM32L4xx_HAL_Driver/Src/stm32l4xx_hal_smbus.c ****         }
2126:Drivers/STM32L4xx_HAL_Driver/Src/stm32l4xx_hal_smbus.c ****         else if (hsmbus->State == HAL_SMBUS_STATE_MASTER_BUSY_RX)
 3501              		.loc 1 2126 24
 3502 0370 7B68     		ldr	r3, [r7, #4]
 3503 0372 9B6C     		ldr	r3, [r3, #72]
 3504              		.loc 1 2126 17
 3505 0374 222B     		cmp	r3, #34
 3506 0376 13D1     		bne	.L139
2127:Drivers/STM32L4xx_HAL_Driver/Src/stm32l4xx_hal_smbus.c ****         {
2128:Drivers/STM32L4xx_HAL_Driver/Src/stm32l4xx_hal_smbus.c ****           SMBUS_Disable_IRQ(hsmbus, SMBUS_IT_RX);
 3507              		.loc 1 2128 11
 3508 0378 D421     		movs	r1, #212
 3509 037a 7868     		ldr	r0, [r7, #4]
 3510 037c FFF7FEFF 		bl	SMBUS_Disable_IRQ
2129:Drivers/STM32L4xx_HAL_Driver/Src/stm32l4xx_hal_smbus.c ****           hsmbus->PreviousState = hsmbus->State;
 3511              		.loc 1 2129 41
 3512 0380 7B68     		ldr	r3, [r7, #4]
 3513 0382 9A6C     		ldr	r2, [r3, #72]
 3514              		.loc 1 2129 33
 3515 0384 7B68     		ldr	r3, [r7, #4]
 3516 0386 1A64     		str	r2, [r3, #64]
2130:Drivers/STM32L4xx_HAL_Driver/Src/stm32l4xx_hal_smbus.c ****           hsmbus->State = HAL_SMBUS_STATE_READY;
 3517              		.loc 1 2130 25
 3518 0388 7B68     		ldr	r3, [r7, #4]
 3519 038a 0122     		movs	r2, #1
 3520 038c 9A64     		str	r2, [r3, #72]
2131:Drivers/STM32L4xx_HAL_Driver/Src/stm32l4xx_hal_smbus.c **** 
2132:Drivers/STM32L4xx_HAL_Driver/Src/stm32l4xx_hal_smbus.c ****           /* Process Unlocked */
2133:Drivers/STM32L4xx_HAL_Driver/Src/stm32l4xx_hal_smbus.c ****           __HAL_UNLOCK(hsmbus);
 3521              		.loc 1 2133 11
 3522 038e 7B68     		ldr	r3, [r7, #4]
 3523 0390 0022     		movs	r2, #0
 3524 0392 83F84420 		strb	r2, [r3, #68]
2134:Drivers/STM32L4xx_HAL_Driver/Src/stm32l4xx_hal_smbus.c **** 
2135:Drivers/STM32L4xx_HAL_Driver/Src/stm32l4xx_hal_smbus.c ****           /* Call the corresponding callback to inform upper layer of End of Transfer */
2136:Drivers/STM32L4xx_HAL_Driver/Src/stm32l4xx_hal_smbus.c **** #if (USE_HAL_SMBUS_REGISTER_CALLBACKS == 1)
2137:Drivers/STM32L4xx_HAL_Driver/Src/stm32l4xx_hal_smbus.c ****           hsmbus->MasterRxCpltCallback(hsmbus);
2138:Drivers/STM32L4xx_HAL_Driver/Src/stm32l4xx_hal_smbus.c **** #else
2139:Drivers/STM32L4xx_HAL_Driver/Src/stm32l4xx_hal_smbus.c ****           HAL_SMBUS_MasterRxCpltCallback(hsmbus);
ARM GAS  /tmp/ccysATpZ.s 			page 100


 3525              		.loc 1 2139 11
 3526 0396 7868     		ldr	r0, [r7, #4]
 3527 0398 FFF7FEFF 		bl	HAL_SMBUS_MasterRxCpltCallback
 3528 039c 00E0     		b	.L139
 3529              	.L153:
2021:Drivers/STM32L4xx_HAL_Driver/Src/stm32l4xx_hal_smbus.c ****       {
 3530              		.loc 1 2021 10
 3531 039e 00BF     		nop
 3532              	.L139:
2140:Drivers/STM32L4xx_HAL_Driver/Src/stm32l4xx_hal_smbus.c **** #endif /* USE_HAL_SMBUS_REGISTER_CALLBACKS */
2141:Drivers/STM32L4xx_HAL_Driver/Src/stm32l4xx_hal_smbus.c ****         }
2142:Drivers/STM32L4xx_HAL_Driver/Src/stm32l4xx_hal_smbus.c ****         else
2143:Drivers/STM32L4xx_HAL_Driver/Src/stm32l4xx_hal_smbus.c ****         {
2144:Drivers/STM32L4xx_HAL_Driver/Src/stm32l4xx_hal_smbus.c ****           /* Nothing to do */
2145:Drivers/STM32L4xx_HAL_Driver/Src/stm32l4xx_hal_smbus.c ****         }
2146:Drivers/STM32L4xx_HAL_Driver/Src/stm32l4xx_hal_smbus.c ****       }
2147:Drivers/STM32L4xx_HAL_Driver/Src/stm32l4xx_hal_smbus.c ****       else
2148:Drivers/STM32L4xx_HAL_Driver/Src/stm32l4xx_hal_smbus.c ****       {
2149:Drivers/STM32L4xx_HAL_Driver/Src/stm32l4xx_hal_smbus.c ****         /* Nothing to do */
2150:Drivers/STM32L4xx_HAL_Driver/Src/stm32l4xx_hal_smbus.c ****       }
2151:Drivers/STM32L4xx_HAL_Driver/Src/stm32l4xx_hal_smbus.c ****     }
2152:Drivers/STM32L4xx_HAL_Driver/Src/stm32l4xx_hal_smbus.c ****   }
2153:Drivers/STM32L4xx_HAL_Driver/Src/stm32l4xx_hal_smbus.c ****   else
2154:Drivers/STM32L4xx_HAL_Driver/Src/stm32l4xx_hal_smbus.c ****   {
2155:Drivers/STM32L4xx_HAL_Driver/Src/stm32l4xx_hal_smbus.c ****     /* Nothing to do */
2156:Drivers/STM32L4xx_HAL_Driver/Src/stm32l4xx_hal_smbus.c ****   }
2157:Drivers/STM32L4xx_HAL_Driver/Src/stm32l4xx_hal_smbus.c **** 
2158:Drivers/STM32L4xx_HAL_Driver/Src/stm32l4xx_hal_smbus.c ****   /* Process Unlocked */
2159:Drivers/STM32L4xx_HAL_Driver/Src/stm32l4xx_hal_smbus.c ****   __HAL_UNLOCK(hsmbus);
 3533              		.loc 1 2159 3
 3534 03a0 7B68     		ldr	r3, [r7, #4]
 3535 03a2 0022     		movs	r2, #0
 3536 03a4 83F84420 		strb	r2, [r3, #68]
2160:Drivers/STM32L4xx_HAL_Driver/Src/stm32l4xx_hal_smbus.c **** 
2161:Drivers/STM32L4xx_HAL_Driver/Src/stm32l4xx_hal_smbus.c ****   return HAL_OK;
 3537              		.loc 1 2161 10
 3538 03a8 0023     		movs	r3, #0
 3539              	.L137:
2162:Drivers/STM32L4xx_HAL_Driver/Src/stm32l4xx_hal_smbus.c **** }
 3540              		.loc 1 2162 1
 3541 03aa 1846     		mov	r0, r3
 3542 03ac 1037     		adds	r7, r7, #16
 3543              		.cfi_def_cfa_offset 8
 3544 03ae BD46     		mov	sp, r7
 3545              		.cfi_def_cfa_register 13
 3546              		@ sp needed
 3547 03b0 80BD     		pop	{r7, pc}
 3548              		.cfi_endproc
 3549              	.LFE472:
 3551 03b2 00BF     		.section	.text.SMBUS_Slave_ISR,"ax",%progbits
 3552              		.align	1
 3553              		.syntax unified
 3554              		.thumb
 3555              		.thumb_func
 3557              	SMBUS_Slave_ISR:
 3558              	.LFB473:
2163:Drivers/STM32L4xx_HAL_Driver/Src/stm32l4xx_hal_smbus.c **** /**
ARM GAS  /tmp/ccysATpZ.s 			page 101


2164:Drivers/STM32L4xx_HAL_Driver/Src/stm32l4xx_hal_smbus.c ****   * @brief  Interrupt Sub-Routine which handle the Interrupt Flags Slave Mode.
2165:Drivers/STM32L4xx_HAL_Driver/Src/stm32l4xx_hal_smbus.c ****   * @param  hsmbus Pointer to a SMBUS_HandleTypeDef structure that contains
2166:Drivers/STM32L4xx_HAL_Driver/Src/stm32l4xx_hal_smbus.c ****   *                the configuration information for the specified SMBUS.
2167:Drivers/STM32L4xx_HAL_Driver/Src/stm32l4xx_hal_smbus.c ****   * @param  StatusFlags Value of Interrupt Flags.
2168:Drivers/STM32L4xx_HAL_Driver/Src/stm32l4xx_hal_smbus.c ****   * @retval HAL status
2169:Drivers/STM32L4xx_HAL_Driver/Src/stm32l4xx_hal_smbus.c ****   */
2170:Drivers/STM32L4xx_HAL_Driver/Src/stm32l4xx_hal_smbus.c **** static HAL_StatusTypeDef SMBUS_Slave_ISR(SMBUS_HandleTypeDef *hsmbus, uint32_t StatusFlags)
2171:Drivers/STM32L4xx_HAL_Driver/Src/stm32l4xx_hal_smbus.c **** {
 3559              		.loc 1 2171 1
 3560              		.cfi_startproc
 3561              		@ args = 0, pretend = 0, frame = 16
 3562              		@ frame_needed = 1, uses_anonymous_args = 0
 3563 0000 80B5     		push	{r7, lr}
 3564              		.cfi_def_cfa_offset 8
 3565              		.cfi_offset 7, -8
 3566              		.cfi_offset 14, -4
 3567 0002 86B0     		sub	sp, sp, #24
 3568              		.cfi_def_cfa_offset 32
 3569 0004 02AF     		add	r7, sp, #8
 3570              		.cfi_def_cfa 7, 24
 3571 0006 7860     		str	r0, [r7, #4]
 3572 0008 3960     		str	r1, [r7]
2172:Drivers/STM32L4xx_HAL_Driver/Src/stm32l4xx_hal_smbus.c ****   uint8_t TransferDirection;
2173:Drivers/STM32L4xx_HAL_Driver/Src/stm32l4xx_hal_smbus.c ****   uint16_t SlaveAddrCode;
2174:Drivers/STM32L4xx_HAL_Driver/Src/stm32l4xx_hal_smbus.c **** 
2175:Drivers/STM32L4xx_HAL_Driver/Src/stm32l4xx_hal_smbus.c ****   /* Process Locked */
2176:Drivers/STM32L4xx_HAL_Driver/Src/stm32l4xx_hal_smbus.c ****   __HAL_LOCK(hsmbus);
 3573              		.loc 1 2176 3
 3574 000a 7B68     		ldr	r3, [r7, #4]
 3575 000c 93F84430 		ldrb	r3, [r3, #68]	@ zero_extendqisi2
 3576 0010 012B     		cmp	r3, #1
 3577 0012 01D1     		bne	.L157
 3578              		.loc 1 2176 3 is_stmt 0 discriminator 1
 3579 0014 0223     		movs	r3, #2
 3580              		.loc 1 2176 3
 3581 0016 CEE1     		b	.L158
 3582              	.L157:
 3583              		.loc 1 2176 3 discriminator 2
 3584 0018 7B68     		ldr	r3, [r7, #4]
 3585 001a 0122     		movs	r2, #1
 3586 001c 83F84420 		strb	r2, [r3, #68]
2177:Drivers/STM32L4xx_HAL_Driver/Src/stm32l4xx_hal_smbus.c **** 
2178:Drivers/STM32L4xx_HAL_Driver/Src/stm32l4xx_hal_smbus.c ****   if (SMBUS_CHECK_FLAG(StatusFlags, SMBUS_FLAG_AF) != RESET)
 3587              		.loc 1 2178 7 is_stmt 1
 3588 0020 3B68     		ldr	r3, [r7]
 3589 0022 1B09     		lsrs	r3, r3, #4
 3590 0024 03F00103 		and	r3, r3, #1
 3591              		.loc 1 2178 6
 3592 0028 002B     		cmp	r3, #0
 3593 002a 39D0     		beq	.L159
2179:Drivers/STM32L4xx_HAL_Driver/Src/stm32l4xx_hal_smbus.c ****   {
2180:Drivers/STM32L4xx_HAL_Driver/Src/stm32l4xx_hal_smbus.c ****     /* Check that SMBUS transfer finished */
2181:Drivers/STM32L4xx_HAL_Driver/Src/stm32l4xx_hal_smbus.c ****     /* if yes, normal usecase, a NACK is sent by the HOST when Transfer is finished */
2182:Drivers/STM32L4xx_HAL_Driver/Src/stm32l4xx_hal_smbus.c ****     /* Mean XferCount == 0*/
2183:Drivers/STM32L4xx_HAL_Driver/Src/stm32l4xx_hal_smbus.c ****     /* So clear Flag NACKF only */
2184:Drivers/STM32L4xx_HAL_Driver/Src/stm32l4xx_hal_smbus.c ****     if (hsmbus->XferCount == 0U)
 3594              		.loc 1 2184 15
ARM GAS  /tmp/ccysATpZ.s 			page 102


 3595 002c 7B68     		ldr	r3, [r7, #4]
 3596 002e 5B8F     		ldrh	r3, [r3, #58]	@ movhi
 3597 0030 9BB2     		uxth	r3, r3
 3598              		.loc 1 2184 8
 3599 0032 002B     		cmp	r3, #0
 3600 0034 0BD1     		bne	.L160
2185:Drivers/STM32L4xx_HAL_Driver/Src/stm32l4xx_hal_smbus.c ****     {
2186:Drivers/STM32L4xx_HAL_Driver/Src/stm32l4xx_hal_smbus.c ****       /* Clear NACK Flag */
2187:Drivers/STM32L4xx_HAL_Driver/Src/stm32l4xx_hal_smbus.c ****       __HAL_SMBUS_CLEAR_FLAG(hsmbus, SMBUS_FLAG_AF);
 3601              		.loc 1 2187 7
 3602 0036 7B68     		ldr	r3, [r7, #4]
 3603 0038 1B68     		ldr	r3, [r3]
 3604 003a 1022     		movs	r2, #16
 3605 003c DA61     		str	r2, [r3, #28]
2188:Drivers/STM32L4xx_HAL_Driver/Src/stm32l4xx_hal_smbus.c **** 
2189:Drivers/STM32L4xx_HAL_Driver/Src/stm32l4xx_hal_smbus.c ****       /* Flush TX register */
2190:Drivers/STM32L4xx_HAL_Driver/Src/stm32l4xx_hal_smbus.c ****       SMBUS_Flush_TXDR(hsmbus);
 3606              		.loc 1 2190 7
 3607 003e 7868     		ldr	r0, [r7, #4]
 3608 0040 FFF7FEFF 		bl	SMBUS_Flush_TXDR
2191:Drivers/STM32L4xx_HAL_Driver/Src/stm32l4xx_hal_smbus.c **** 
2192:Drivers/STM32L4xx_HAL_Driver/Src/stm32l4xx_hal_smbus.c ****       /* Process Unlocked */
2193:Drivers/STM32L4xx_HAL_Driver/Src/stm32l4xx_hal_smbus.c ****       __HAL_UNLOCK(hsmbus);
 3609              		.loc 1 2193 7
 3610 0044 7B68     		ldr	r3, [r7, #4]
 3611 0046 0022     		movs	r2, #0
 3612 0048 83F84420 		strb	r2, [r3, #68]
 3613 004c 4DE1     		b	.L161
 3614              	.L160:
2194:Drivers/STM32L4xx_HAL_Driver/Src/stm32l4xx_hal_smbus.c ****     }
2195:Drivers/STM32L4xx_HAL_Driver/Src/stm32l4xx_hal_smbus.c ****     else
2196:Drivers/STM32L4xx_HAL_Driver/Src/stm32l4xx_hal_smbus.c ****     {
2197:Drivers/STM32L4xx_HAL_Driver/Src/stm32l4xx_hal_smbus.c ****       /* if no, error usecase, a Non-Acknowledge of last Data is generated by the HOST*/
2198:Drivers/STM32L4xx_HAL_Driver/Src/stm32l4xx_hal_smbus.c ****       /* Clear NACK Flag */
2199:Drivers/STM32L4xx_HAL_Driver/Src/stm32l4xx_hal_smbus.c ****       __HAL_SMBUS_CLEAR_FLAG(hsmbus, SMBUS_FLAG_AF);
 3615              		.loc 1 2199 7
 3616 004e 7B68     		ldr	r3, [r7, #4]
 3617 0050 1B68     		ldr	r3, [r3]
 3618 0052 1022     		movs	r2, #16
 3619 0054 DA61     		str	r2, [r3, #28]
2200:Drivers/STM32L4xx_HAL_Driver/Src/stm32l4xx_hal_smbus.c **** 
2201:Drivers/STM32L4xx_HAL_Driver/Src/stm32l4xx_hal_smbus.c ****       /* Set HAL State to "Idle" State, mean to LISTEN state */
2202:Drivers/STM32L4xx_HAL_Driver/Src/stm32l4xx_hal_smbus.c ****       /* So reset Slave Busy state */
2203:Drivers/STM32L4xx_HAL_Driver/Src/stm32l4xx_hal_smbus.c ****       hsmbus->PreviousState = hsmbus->State;
 3620              		.loc 1 2203 37
 3621 0056 7B68     		ldr	r3, [r7, #4]
 3622 0058 9A6C     		ldr	r2, [r3, #72]
 3623              		.loc 1 2203 29
 3624 005a 7B68     		ldr	r3, [r7, #4]
 3625 005c 1A64     		str	r2, [r3, #64]
2204:Drivers/STM32L4xx_HAL_Driver/Src/stm32l4xx_hal_smbus.c ****       hsmbus->State &= ~((uint32_t)HAL_SMBUS_STATE_SLAVE_BUSY_TX);
 3626              		.loc 1 2204 13
 3627 005e 7B68     		ldr	r3, [r7, #4]
 3628 0060 9B6C     		ldr	r3, [r3, #72]
 3629              		.loc 1 2204 21
 3630 0062 23F03202 		bic	r2, r3, #50
 3631 0066 7B68     		ldr	r3, [r7, #4]
ARM GAS  /tmp/ccysATpZ.s 			page 103


 3632 0068 9A64     		str	r2, [r3, #72]
2205:Drivers/STM32L4xx_HAL_Driver/Src/stm32l4xx_hal_smbus.c ****       hsmbus->State &= ~((uint32_t)HAL_SMBUS_STATE_SLAVE_BUSY_RX);
 3633              		.loc 1 2205 13
 3634 006a 7B68     		ldr	r3, [r7, #4]
 3635 006c 9B6C     		ldr	r3, [r3, #72]
 3636              		.loc 1 2205 21
 3637 006e 23F04202 		bic	r2, r3, #66
 3638 0072 7B68     		ldr	r3, [r7, #4]
 3639 0074 9A64     		str	r2, [r3, #72]
2206:Drivers/STM32L4xx_HAL_Driver/Src/stm32l4xx_hal_smbus.c **** 
2207:Drivers/STM32L4xx_HAL_Driver/Src/stm32l4xx_hal_smbus.c ****       /* Disable RX/TX Interrupts, keep only ADDR Interrupt */
2208:Drivers/STM32L4xx_HAL_Driver/Src/stm32l4xx_hal_smbus.c ****       SMBUS_Disable_IRQ(hsmbus, SMBUS_IT_RX | SMBUS_IT_TX);
 3640              		.loc 1 2208 7
 3641 0076 F621     		movs	r1, #246
 3642 0078 7868     		ldr	r0, [r7, #4]
 3643 007a FFF7FEFF 		bl	SMBUS_Disable_IRQ
2209:Drivers/STM32L4xx_HAL_Driver/Src/stm32l4xx_hal_smbus.c **** 
2210:Drivers/STM32L4xx_HAL_Driver/Src/stm32l4xx_hal_smbus.c ****       /* Set ErrorCode corresponding to a Non-Acknowledge */
2211:Drivers/STM32L4xx_HAL_Driver/Src/stm32l4xx_hal_smbus.c ****       hsmbus->ErrorCode |= HAL_SMBUS_ERROR_ACKF;
 3644              		.loc 1 2211 13
 3645 007e 7B68     		ldr	r3, [r7, #4]
 3646 0080 DB6C     		ldr	r3, [r3, #76]
 3647              		.loc 1 2211 25
 3648 0082 43F00402 		orr	r2, r3, #4
 3649 0086 7B68     		ldr	r3, [r7, #4]
 3650 0088 DA64     		str	r2, [r3, #76]
2212:Drivers/STM32L4xx_HAL_Driver/Src/stm32l4xx_hal_smbus.c **** 
2213:Drivers/STM32L4xx_HAL_Driver/Src/stm32l4xx_hal_smbus.c ****       /* Flush TX register */
2214:Drivers/STM32L4xx_HAL_Driver/Src/stm32l4xx_hal_smbus.c ****       SMBUS_Flush_TXDR(hsmbus);
 3651              		.loc 1 2214 7
 3652 008a 7868     		ldr	r0, [r7, #4]
 3653 008c FFF7FEFF 		bl	SMBUS_Flush_TXDR
2215:Drivers/STM32L4xx_HAL_Driver/Src/stm32l4xx_hal_smbus.c **** 
2216:Drivers/STM32L4xx_HAL_Driver/Src/stm32l4xx_hal_smbus.c ****       /* Process Unlocked */
2217:Drivers/STM32L4xx_HAL_Driver/Src/stm32l4xx_hal_smbus.c ****       __HAL_UNLOCK(hsmbus);
 3654              		.loc 1 2217 7
 3655 0090 7B68     		ldr	r3, [r7, #4]
 3656 0092 0022     		movs	r2, #0
 3657 0094 83F84420 		strb	r2, [r3, #68]
2218:Drivers/STM32L4xx_HAL_Driver/Src/stm32l4xx_hal_smbus.c **** 
2219:Drivers/STM32L4xx_HAL_Driver/Src/stm32l4xx_hal_smbus.c ****       /* Call the Error callback to inform upper layer */
2220:Drivers/STM32L4xx_HAL_Driver/Src/stm32l4xx_hal_smbus.c **** #if (USE_HAL_SMBUS_REGISTER_CALLBACKS == 1)
2221:Drivers/STM32L4xx_HAL_Driver/Src/stm32l4xx_hal_smbus.c ****       hsmbus->ErrorCallback(hsmbus);
2222:Drivers/STM32L4xx_HAL_Driver/Src/stm32l4xx_hal_smbus.c **** #else
2223:Drivers/STM32L4xx_HAL_Driver/Src/stm32l4xx_hal_smbus.c ****       HAL_SMBUS_ErrorCallback(hsmbus);
 3658              		.loc 1 2223 7
 3659 0098 7868     		ldr	r0, [r7, #4]
 3660 009a FFF7FEFF 		bl	HAL_SMBUS_ErrorCallback
 3661 009e 24E1     		b	.L161
 3662              	.L159:
2224:Drivers/STM32L4xx_HAL_Driver/Src/stm32l4xx_hal_smbus.c **** #endif /* USE_HAL_SMBUS_REGISTER_CALLBACKS */
2225:Drivers/STM32L4xx_HAL_Driver/Src/stm32l4xx_hal_smbus.c ****     }
2226:Drivers/STM32L4xx_HAL_Driver/Src/stm32l4xx_hal_smbus.c ****   }
2227:Drivers/STM32L4xx_HAL_Driver/Src/stm32l4xx_hal_smbus.c ****   else if (SMBUS_CHECK_FLAG(StatusFlags, SMBUS_FLAG_ADDR) != RESET)
 3663              		.loc 1 2227 12
 3664 00a0 3B68     		ldr	r3, [r7]
 3665 00a2 DB08     		lsrs	r3, r3, #3
ARM GAS  /tmp/ccysATpZ.s 			page 104


 3666 00a4 03F00103 		and	r3, r3, #1
 3667              		.loc 1 2227 11
 3668 00a8 002B     		cmp	r3, #0
 3669 00aa 22D0     		beq	.L162
2228:Drivers/STM32L4xx_HAL_Driver/Src/stm32l4xx_hal_smbus.c ****   {
2229:Drivers/STM32L4xx_HAL_Driver/Src/stm32l4xx_hal_smbus.c ****     TransferDirection = (uint8_t)(SMBUS_GET_DIR(hsmbus));
 3670              		.loc 1 2229 35
 3671 00ac 7B68     		ldr	r3, [r7, #4]
 3672 00ae 1B68     		ldr	r3, [r3]
 3673 00b0 9B69     		ldr	r3, [r3, #24]
 3674 00b2 1B0C     		lsrs	r3, r3, #16
 3675              		.loc 1 2229 25
 3676 00b4 DBB2     		uxtb	r3, r3
 3677              		.loc 1 2229 23
 3678 00b6 03F00103 		and	r3, r3, #1
 3679 00ba FB73     		strb	r3, [r7, #15]
2230:Drivers/STM32L4xx_HAL_Driver/Src/stm32l4xx_hal_smbus.c ****     SlaveAddrCode = (uint16_t)(SMBUS_GET_ADDR_MATCH(hsmbus));
 3680              		.loc 1 2230 32
 3681 00bc 7B68     		ldr	r3, [r7, #4]
 3682 00be 1B68     		ldr	r3, [r3]
 3683 00c0 9B69     		ldr	r3, [r3, #24]
 3684 00c2 5B0C     		lsrs	r3, r3, #17
 3685              		.loc 1 2230 21
 3686 00c4 9BB2     		uxth	r3, r3
 3687              		.loc 1 2230 19
 3688 00c6 03F07F03 		and	r3, r3, #127
 3689 00ca BB81     		strh	r3, [r7, #12]	@ movhi
2231:Drivers/STM32L4xx_HAL_Driver/Src/stm32l4xx_hal_smbus.c **** 
2232:Drivers/STM32L4xx_HAL_Driver/Src/stm32l4xx_hal_smbus.c ****     /* Disable ADDR interrupt to prevent multiple ADDRInterrupt*/
2233:Drivers/STM32L4xx_HAL_Driver/Src/stm32l4xx_hal_smbus.c ****     /* Other ADDRInterrupt will be treat in next Listen usecase */
2234:Drivers/STM32L4xx_HAL_Driver/Src/stm32l4xx_hal_smbus.c ****     __HAL_SMBUS_DISABLE_IT(hsmbus, SMBUS_IT_ADDRI);
 3690              		.loc 1 2234 5
 3691 00cc 7B68     		ldr	r3, [r7, #4]
 3692 00ce 1B68     		ldr	r3, [r3]
 3693 00d0 1A68     		ldr	r2, [r3]
 3694 00d2 7B68     		ldr	r3, [r7, #4]
 3695 00d4 1B68     		ldr	r3, [r3]
 3696 00d6 22F00802 		bic	r2, r2, #8
 3697 00da 1A60     		str	r2, [r3]
2235:Drivers/STM32L4xx_HAL_Driver/Src/stm32l4xx_hal_smbus.c **** 
2236:Drivers/STM32L4xx_HAL_Driver/Src/stm32l4xx_hal_smbus.c ****     /* Process Unlocked */
2237:Drivers/STM32L4xx_HAL_Driver/Src/stm32l4xx_hal_smbus.c ****     __HAL_UNLOCK(hsmbus);
 3698              		.loc 1 2237 5
 3699 00dc 7B68     		ldr	r3, [r7, #4]
 3700 00de 0022     		movs	r2, #0
 3701 00e0 83F84420 		strb	r2, [r3, #68]
2238:Drivers/STM32L4xx_HAL_Driver/Src/stm32l4xx_hal_smbus.c **** 
2239:Drivers/STM32L4xx_HAL_Driver/Src/stm32l4xx_hal_smbus.c ****     /* Call Slave Addr callback */
2240:Drivers/STM32L4xx_HAL_Driver/Src/stm32l4xx_hal_smbus.c **** #if (USE_HAL_SMBUS_REGISTER_CALLBACKS == 1)
2241:Drivers/STM32L4xx_HAL_Driver/Src/stm32l4xx_hal_smbus.c ****     hsmbus->AddrCallback(hsmbus, TransferDirection, SlaveAddrCode);
2242:Drivers/STM32L4xx_HAL_Driver/Src/stm32l4xx_hal_smbus.c **** #else
2243:Drivers/STM32L4xx_HAL_Driver/Src/stm32l4xx_hal_smbus.c ****     HAL_SMBUS_AddrCallback(hsmbus, TransferDirection, SlaveAddrCode);
 3702              		.loc 1 2243 5
 3703 00e4 BA89     		ldrh	r2, [r7, #12]
 3704 00e6 FB7B     		ldrb	r3, [r7, #15]	@ zero_extendqisi2
 3705 00e8 1946     		mov	r1, r3
 3706 00ea 7868     		ldr	r0, [r7, #4]
ARM GAS  /tmp/ccysATpZ.s 			page 105


 3707 00ec FFF7FEFF 		bl	HAL_SMBUS_AddrCallback
 3708 00f0 FBE0     		b	.L161
 3709              	.L162:
2244:Drivers/STM32L4xx_HAL_Driver/Src/stm32l4xx_hal_smbus.c **** #endif /* USE_HAL_SMBUS_REGISTER_CALLBACKS */
2245:Drivers/STM32L4xx_HAL_Driver/Src/stm32l4xx_hal_smbus.c ****   }
2246:Drivers/STM32L4xx_HAL_Driver/Src/stm32l4xx_hal_smbus.c ****   else if ((SMBUS_CHECK_FLAG(StatusFlags, SMBUS_FLAG_RXNE) != RESET) ||
 3710              		.loc 1 2246 13
 3711 00f2 3B68     		ldr	r3, [r7]
 3712 00f4 9B08     		lsrs	r3, r3, #2
 3713 00f6 03F00103 		and	r3, r3, #1
 3714              		.loc 1 2246 11
 3715 00fa 002B     		cmp	r3, #0
 3716 00fc 06D1     		bne	.L163
2247:Drivers/STM32L4xx_HAL_Driver/Src/stm32l4xx_hal_smbus.c ****            (SMBUS_CHECK_FLAG(StatusFlags, SMBUS_FLAG_TCR) != RESET))
 3717              		.loc 1 2247 13
 3718 00fe 3B68     		ldr	r3, [r7]
 3719 0100 DB09     		lsrs	r3, r3, #7
 3720 0102 03F00103 		and	r3, r3, #1
2246:Drivers/STM32L4xx_HAL_Driver/Src/stm32l4xx_hal_smbus.c ****            (SMBUS_CHECK_FLAG(StatusFlags, SMBUS_FLAG_TCR) != RESET))
 3721              		.loc 1 2246 70 discriminator 1
 3722 0106 002B     		cmp	r3, #0
 3723 0108 00F0B080 		beq	.L164
 3724              	.L163:
2248:Drivers/STM32L4xx_HAL_Driver/Src/stm32l4xx_hal_smbus.c ****   {
2249:Drivers/STM32L4xx_HAL_Driver/Src/stm32l4xx_hal_smbus.c ****     if ((hsmbus->State & HAL_SMBUS_STATE_SLAVE_BUSY_RX) == HAL_SMBUS_STATE_SLAVE_BUSY_RX)
 3725              		.loc 1 2249 16
 3726 010c 7B68     		ldr	r3, [r7, #4]
 3727 010e 9B6C     		ldr	r3, [r3, #72]
 3728              		.loc 1 2249 24
 3729 0110 03F04203 		and	r3, r3, #66
 3730              		.loc 1 2249 8
 3731 0114 422B     		cmp	r3, #66
 3732 0116 5ED1     		bne	.L165
2250:Drivers/STM32L4xx_HAL_Driver/Src/stm32l4xx_hal_smbus.c ****     {
2251:Drivers/STM32L4xx_HAL_Driver/Src/stm32l4xx_hal_smbus.c ****       /* Read data from RXDR */
2252:Drivers/STM32L4xx_HAL_Driver/Src/stm32l4xx_hal_smbus.c ****       *hsmbus->pBuffPtr = (uint8_t)(hsmbus->Instance->RXDR);
 3733              		.loc 1 2252 43
 3734 0118 7B68     		ldr	r3, [r7, #4]
 3735 011a 1B68     		ldr	r3, [r3]
 3736              		.loc 1 2252 53
 3737 011c 5A6A     		ldr	r2, [r3, #36]
 3738              		.loc 1 2252 14
 3739 011e 7B68     		ldr	r3, [r7, #4]
 3740 0120 5B6B     		ldr	r3, [r3, #52]
 3741              		.loc 1 2252 27
 3742 0122 D2B2     		uxtb	r2, r2
 3743              		.loc 1 2252 25
 3744 0124 1A70     		strb	r2, [r3]
2253:Drivers/STM32L4xx_HAL_Driver/Src/stm32l4xx_hal_smbus.c **** 
2254:Drivers/STM32L4xx_HAL_Driver/Src/stm32l4xx_hal_smbus.c ****       /* Increment Buffer pointer */
2255:Drivers/STM32L4xx_HAL_Driver/Src/stm32l4xx_hal_smbus.c ****       hsmbus->pBuffPtr++;
 3745              		.loc 1 2255 13
 3746 0126 7B68     		ldr	r3, [r7, #4]
 3747 0128 5B6B     		ldr	r3, [r3, #52]
 3748              		.loc 1 2255 23
 3749 012a 5A1C     		adds	r2, r3, #1
 3750 012c 7B68     		ldr	r3, [r7, #4]
ARM GAS  /tmp/ccysATpZ.s 			page 106


 3751 012e 5A63     		str	r2, [r3, #52]
2256:Drivers/STM32L4xx_HAL_Driver/Src/stm32l4xx_hal_smbus.c **** 
2257:Drivers/STM32L4xx_HAL_Driver/Src/stm32l4xx_hal_smbus.c ****       hsmbus->XferSize--;
 3752              		.loc 1 2257 13
 3753 0130 7B68     		ldr	r3, [r7, #4]
 3754 0132 1B8F     		ldrh	r3, [r3, #56]
 3755              		.loc 1 2257 23
 3756 0134 013B     		subs	r3, r3, #1
 3757 0136 9AB2     		uxth	r2, r3
 3758 0138 7B68     		ldr	r3, [r7, #4]
 3759 013a 1A87     		strh	r2, [r3, #56]	@ movhi
2258:Drivers/STM32L4xx_HAL_Driver/Src/stm32l4xx_hal_smbus.c ****       hsmbus->XferCount--;
 3760              		.loc 1 2258 13
 3761 013c 7B68     		ldr	r3, [r7, #4]
 3762 013e 5B8F     		ldrh	r3, [r3, #58]	@ movhi
 3763 0140 9BB2     		uxth	r3, r3
 3764              		.loc 1 2258 24
 3765 0142 013B     		subs	r3, r3, #1
 3766 0144 9AB2     		uxth	r2, r3
 3767 0146 7B68     		ldr	r3, [r7, #4]
 3768 0148 5A87     		strh	r2, [r3, #58]	@ movhi
2259:Drivers/STM32L4xx_HAL_Driver/Src/stm32l4xx_hal_smbus.c **** 
2260:Drivers/STM32L4xx_HAL_Driver/Src/stm32l4xx_hal_smbus.c ****       if (hsmbus->XferCount == 1U)
 3769              		.loc 1 2260 17
 3770 014a 7B68     		ldr	r3, [r7, #4]
 3771 014c 5B8F     		ldrh	r3, [r3, #58]	@ movhi
 3772 014e 9BB2     		uxth	r3, r3
 3773              		.loc 1 2260 10
 3774 0150 012B     		cmp	r3, #1
 3775 0152 0FD1     		bne	.L166
2261:Drivers/STM32L4xx_HAL_Driver/Src/stm32l4xx_hal_smbus.c ****       {
2262:Drivers/STM32L4xx_HAL_Driver/Src/stm32l4xx_hal_smbus.c ****         /* Receive last Byte, can be PEC byte in case of PEC BYTE enabled */
2263:Drivers/STM32L4xx_HAL_Driver/Src/stm32l4xx_hal_smbus.c ****         /* or only the last Byte of Transfer */
2264:Drivers/STM32L4xx_HAL_Driver/Src/stm32l4xx_hal_smbus.c ****         /* So reset the RELOAD bit mode */
2265:Drivers/STM32L4xx_HAL_Driver/Src/stm32l4xx_hal_smbus.c ****         hsmbus->XferOptions &= ~SMBUS_RELOAD_MODE;
 3776              		.loc 1 2265 15
 3777 0154 7B68     		ldr	r3, [r7, #4]
 3778 0156 DB6B     		ldr	r3, [r3, #60]
 3779              		.loc 1 2265 29
 3780 0158 23F08072 		bic	r2, r3, #16777216
 3781 015c 7B68     		ldr	r3, [r7, #4]
 3782 015e DA63     		str	r2, [r3, #60]
2266:Drivers/STM32L4xx_HAL_Driver/Src/stm32l4xx_hal_smbus.c ****         SMBUS_TransferConfig(hsmbus, 0, 1, hsmbus->XferOptions, SMBUS_NO_STARTSTOP);
 3783              		.loc 1 2266 50
 3784 0160 7B68     		ldr	r3, [r7, #4]
 3785 0162 DB6B     		ldr	r3, [r3, #60]
 3786              		.loc 1 2266 9
 3787 0164 0022     		movs	r2, #0
 3788 0166 0092     		str	r2, [sp]
 3789 0168 0122     		movs	r2, #1
 3790 016a 0021     		movs	r1, #0
 3791 016c 7868     		ldr	r0, [r7, #4]
 3792 016e FFF7FEFF 		bl	SMBUS_TransferConfig
2249:Drivers/STM32L4xx_HAL_Driver/Src/stm32l4xx_hal_smbus.c ****     {
 3793              		.loc 1 2249 8
 3794 0172 B9E0     		b	.L173
 3795              	.L166:
ARM GAS  /tmp/ccysATpZ.s 			page 107


2267:Drivers/STM32L4xx_HAL_Driver/Src/stm32l4xx_hal_smbus.c ****       }
2268:Drivers/STM32L4xx_HAL_Driver/Src/stm32l4xx_hal_smbus.c ****       else if (hsmbus->XferCount == 0U)
 3796              		.loc 1 2268 22
 3797 0174 7B68     		ldr	r3, [r7, #4]
 3798 0176 5B8F     		ldrh	r3, [r3, #58]	@ movhi
 3799 0178 9BB2     		uxth	r3, r3
 3800              		.loc 1 2268 15
 3801 017a 002B     		cmp	r3, #0
 3802 017c 15D1     		bne	.L168
2269:Drivers/STM32L4xx_HAL_Driver/Src/stm32l4xx_hal_smbus.c ****       {
2270:Drivers/STM32L4xx_HAL_Driver/Src/stm32l4xx_hal_smbus.c ****         /* Last Byte is received, disable Interrupt */
2271:Drivers/STM32L4xx_HAL_Driver/Src/stm32l4xx_hal_smbus.c ****         SMBUS_Disable_IRQ(hsmbus, SMBUS_IT_RX);
 3803              		.loc 1 2271 9
 3804 017e D421     		movs	r1, #212
 3805 0180 7868     		ldr	r0, [r7, #4]
 3806 0182 FFF7FEFF 		bl	SMBUS_Disable_IRQ
2272:Drivers/STM32L4xx_HAL_Driver/Src/stm32l4xx_hal_smbus.c **** 
2273:Drivers/STM32L4xx_HAL_Driver/Src/stm32l4xx_hal_smbus.c ****         /* Remove HAL_SMBUS_STATE_SLAVE_BUSY_RX, keep only HAL_SMBUS_STATE_LISTEN */
2274:Drivers/STM32L4xx_HAL_Driver/Src/stm32l4xx_hal_smbus.c ****         hsmbus->PreviousState = hsmbus->State;
 3807              		.loc 1 2274 39
 3808 0186 7B68     		ldr	r3, [r7, #4]
 3809 0188 9A6C     		ldr	r2, [r3, #72]
 3810              		.loc 1 2274 31
 3811 018a 7B68     		ldr	r3, [r7, #4]
 3812 018c 1A64     		str	r2, [r3, #64]
2275:Drivers/STM32L4xx_HAL_Driver/Src/stm32l4xx_hal_smbus.c ****         hsmbus->State &= ~((uint32_t)HAL_SMBUS_STATE_SLAVE_BUSY_RX);
 3813              		.loc 1 2275 15
 3814 018e 7B68     		ldr	r3, [r7, #4]
 3815 0190 9B6C     		ldr	r3, [r3, #72]
 3816              		.loc 1 2275 23
 3817 0192 23F04202 		bic	r2, r3, #66
 3818 0196 7B68     		ldr	r3, [r7, #4]
 3819 0198 9A64     		str	r2, [r3, #72]
2276:Drivers/STM32L4xx_HAL_Driver/Src/stm32l4xx_hal_smbus.c **** 
2277:Drivers/STM32L4xx_HAL_Driver/Src/stm32l4xx_hal_smbus.c ****         /* Process Unlocked */
2278:Drivers/STM32L4xx_HAL_Driver/Src/stm32l4xx_hal_smbus.c ****         __HAL_UNLOCK(hsmbus);
 3820              		.loc 1 2278 9
 3821 019a 7B68     		ldr	r3, [r7, #4]
 3822 019c 0022     		movs	r2, #0
 3823 019e 83F84420 		strb	r2, [r3, #68]
2279:Drivers/STM32L4xx_HAL_Driver/Src/stm32l4xx_hal_smbus.c **** 
2280:Drivers/STM32L4xx_HAL_Driver/Src/stm32l4xx_hal_smbus.c ****         /* Call the corresponding callback to inform upper layer of End of Transfer */
2281:Drivers/STM32L4xx_HAL_Driver/Src/stm32l4xx_hal_smbus.c **** #if (USE_HAL_SMBUS_REGISTER_CALLBACKS == 1)
2282:Drivers/STM32L4xx_HAL_Driver/Src/stm32l4xx_hal_smbus.c ****         hsmbus->SlaveRxCpltCallback(hsmbus);
2283:Drivers/STM32L4xx_HAL_Driver/Src/stm32l4xx_hal_smbus.c **** #else
2284:Drivers/STM32L4xx_HAL_Driver/Src/stm32l4xx_hal_smbus.c ****         HAL_SMBUS_SlaveRxCpltCallback(hsmbus);
 3824              		.loc 1 2284 9
 3825 01a2 7868     		ldr	r0, [r7, #4]
 3826 01a4 FFF7FEFF 		bl	HAL_SMBUS_SlaveRxCpltCallback
2249:Drivers/STM32L4xx_HAL_Driver/Src/stm32l4xx_hal_smbus.c ****     {
 3827              		.loc 1 2249 8
 3828 01a8 9EE0     		b	.L173
 3829              	.L168:
2285:Drivers/STM32L4xx_HAL_Driver/Src/stm32l4xx_hal_smbus.c **** #endif /* USE_HAL_SMBUS_REGISTER_CALLBACKS */
2286:Drivers/STM32L4xx_HAL_Driver/Src/stm32l4xx_hal_smbus.c ****       }
2287:Drivers/STM32L4xx_HAL_Driver/Src/stm32l4xx_hal_smbus.c ****       else
2288:Drivers/STM32L4xx_HAL_Driver/Src/stm32l4xx_hal_smbus.c ****       {
ARM GAS  /tmp/ccysATpZ.s 			page 108


2289:Drivers/STM32L4xx_HAL_Driver/Src/stm32l4xx_hal_smbus.c ****         /* Set Reload for next Bytes */
2290:Drivers/STM32L4xx_HAL_Driver/Src/stm32l4xx_hal_smbus.c ****         SMBUS_TransferConfig(hsmbus, 0, 1,
2291:Drivers/STM32L4xx_HAL_Driver/Src/stm32l4xx_hal_smbus.c ****                              SMBUS_RELOAD_MODE  | (hsmbus->XferOptions & SMBUS_SENDPEC_MODE),
 3830              		.loc 1 2291 58
 3831 01aa 7B68     		ldr	r3, [r7, #4]
 3832 01ac DB6B     		ldr	r3, [r3, #60]
 3833              		.loc 1 2291 72
 3834 01ae 03F08063 		and	r3, r3, #67108864
2290:Drivers/STM32L4xx_HAL_Driver/Src/stm32l4xx_hal_smbus.c ****                              SMBUS_RELOAD_MODE  | (hsmbus->XferOptions & SMBUS_SENDPEC_MODE),
 3835              		.loc 1 2290 9
 3836 01b2 43F08073 		orr	r3, r3, #16777216
 3837 01b6 0022     		movs	r2, #0
 3838 01b8 0092     		str	r2, [sp]
 3839 01ba 0122     		movs	r2, #1
 3840 01bc 0021     		movs	r1, #0
 3841 01be 7868     		ldr	r0, [r7, #4]
 3842 01c0 FFF7FEFF 		bl	SMBUS_TransferConfig
2292:Drivers/STM32L4xx_HAL_Driver/Src/stm32l4xx_hal_smbus.c ****                              SMBUS_NO_STARTSTOP);
2293:Drivers/STM32L4xx_HAL_Driver/Src/stm32l4xx_hal_smbus.c **** 
2294:Drivers/STM32L4xx_HAL_Driver/Src/stm32l4xx_hal_smbus.c ****         /* Ack last Byte Read */
2295:Drivers/STM32L4xx_HAL_Driver/Src/stm32l4xx_hal_smbus.c ****         hsmbus->Instance->CR2 &= ~I2C_CR2_NACK;
 3843              		.loc 1 2295 15
 3844 01c4 7B68     		ldr	r3, [r7, #4]
 3845 01c6 1B68     		ldr	r3, [r3]
 3846              		.loc 1 2295 25
 3847 01c8 5A68     		ldr	r2, [r3, #4]
 3848              		.loc 1 2295 15
 3849 01ca 7B68     		ldr	r3, [r7, #4]
 3850 01cc 1B68     		ldr	r3, [r3]
 3851              		.loc 1 2295 31
 3852 01ce 22F40042 		bic	r2, r2, #32768
 3853 01d2 5A60     		str	r2, [r3, #4]
2249:Drivers/STM32L4xx_HAL_Driver/Src/stm32l4xx_hal_smbus.c ****     {
 3854              		.loc 1 2249 8
 3855 01d4 88E0     		b	.L173
 3856              	.L165:
2296:Drivers/STM32L4xx_HAL_Driver/Src/stm32l4xx_hal_smbus.c ****       }
2297:Drivers/STM32L4xx_HAL_Driver/Src/stm32l4xx_hal_smbus.c ****     }
2298:Drivers/STM32L4xx_HAL_Driver/Src/stm32l4xx_hal_smbus.c ****     else if ((hsmbus->State & HAL_SMBUS_STATE_SLAVE_BUSY_TX) == HAL_SMBUS_STATE_SLAVE_BUSY_TX)
 3857              		.loc 1 2298 21
 3858 01d6 7B68     		ldr	r3, [r7, #4]
 3859 01d8 9B6C     		ldr	r3, [r3, #72]
 3860              		.loc 1 2298 29
 3861 01da 03F03203 		and	r3, r3, #50
 3862              		.loc 1 2298 13
 3863 01de 322B     		cmp	r3, #50
 3864 01e0 40F08280 		bne	.L173
2299:Drivers/STM32L4xx_HAL_Driver/Src/stm32l4xx_hal_smbus.c ****     {
2300:Drivers/STM32L4xx_HAL_Driver/Src/stm32l4xx_hal_smbus.c ****       if ((hsmbus->XferCount != 0U) && (hsmbus->XferSize == 0U))
 3865              		.loc 1 2300 18
 3866 01e4 7B68     		ldr	r3, [r7, #4]
 3867 01e6 5B8F     		ldrh	r3, [r3, #58]	@ movhi
 3868 01e8 9BB2     		uxth	r3, r3
 3869              		.loc 1 2300 10
 3870 01ea 002B     		cmp	r3, #0
 3871 01ec 7CD0     		beq	.L173
 3872              		.loc 1 2300 47 discriminator 1
ARM GAS  /tmp/ccysATpZ.s 			page 109


 3873 01ee 7B68     		ldr	r3, [r7, #4]
 3874 01f0 1B8F     		ldrh	r3, [r3, #56]
 3875              		.loc 1 2300 37 discriminator 1
 3876 01f2 002B     		cmp	r3, #0
 3877 01f4 78D1     		bne	.L173
2301:Drivers/STM32L4xx_HAL_Driver/Src/stm32l4xx_hal_smbus.c ****       {
2302:Drivers/STM32L4xx_HAL_Driver/Src/stm32l4xx_hal_smbus.c ****         if (hsmbus->XferCount > MAX_NBYTE_SIZE)
 3878              		.loc 1 2302 19
 3879 01f6 7B68     		ldr	r3, [r7, #4]
 3880 01f8 5B8F     		ldrh	r3, [r3, #58]	@ movhi
 3881 01fa 9BB2     		uxth	r3, r3
 3882              		.loc 1 2302 12
 3883 01fc FF2B     		cmp	r3, #255
 3884 01fe 10D9     		bls	.L169
2303:Drivers/STM32L4xx_HAL_Driver/Src/stm32l4xx_hal_smbus.c ****         {
2304:Drivers/STM32L4xx_HAL_Driver/Src/stm32l4xx_hal_smbus.c ****           SMBUS_TransferConfig(hsmbus, 0, MAX_NBYTE_SIZE,
2305:Drivers/STM32L4xx_HAL_Driver/Src/stm32l4xx_hal_smbus.c ****                                (SMBUS_RELOAD_MODE | (hsmbus->XferOptions & SMBUS_SENDPEC_MODE)),
 3885              		.loc 1 2305 60
 3886 0200 7B68     		ldr	r3, [r7, #4]
 3887 0202 DB6B     		ldr	r3, [r3, #60]
 3888              		.loc 1 2305 74
 3889 0204 03F08063 		and	r3, r3, #67108864
2304:Drivers/STM32L4xx_HAL_Driver/Src/stm32l4xx_hal_smbus.c ****                                (SMBUS_RELOAD_MODE | (hsmbus->XferOptions & SMBUS_SENDPEC_MODE)),
 3890              		.loc 1 2304 11
 3891 0208 43F08073 		orr	r3, r3, #16777216
 3892 020c 0022     		movs	r2, #0
 3893 020e 0092     		str	r2, [sp]
 3894 0210 FF22     		movs	r2, #255
 3895 0212 0021     		movs	r1, #0
 3896 0214 7868     		ldr	r0, [r7, #4]
 3897 0216 FFF7FEFF 		bl	SMBUS_TransferConfig
2306:Drivers/STM32L4xx_HAL_Driver/Src/stm32l4xx_hal_smbus.c ****                                SMBUS_NO_STARTSTOP);
2307:Drivers/STM32L4xx_HAL_Driver/Src/stm32l4xx_hal_smbus.c ****           hsmbus->XferSize = MAX_NBYTE_SIZE;
 3898              		.loc 1 2307 28
 3899 021a 7B68     		ldr	r3, [r7, #4]
 3900 021c FF22     		movs	r2, #255
 3901 021e 1A87     		strh	r2, [r3, #56]	@ movhi
2249:Drivers/STM32L4xx_HAL_Driver/Src/stm32l4xx_hal_smbus.c ****     {
 3902              		.loc 1 2249 8
 3903 0220 62E0     		b	.L173
 3904              	.L169:
2308:Drivers/STM32L4xx_HAL_Driver/Src/stm32l4xx_hal_smbus.c ****         }
2309:Drivers/STM32L4xx_HAL_Driver/Src/stm32l4xx_hal_smbus.c ****         else
2310:Drivers/STM32L4xx_HAL_Driver/Src/stm32l4xx_hal_smbus.c ****         {
2311:Drivers/STM32L4xx_HAL_Driver/Src/stm32l4xx_hal_smbus.c ****           hsmbus->XferSize = hsmbus->XferCount;
 3905              		.loc 1 2311 36
 3906 0222 7B68     		ldr	r3, [r7, #4]
 3907 0224 5B8F     		ldrh	r3, [r3, #58]	@ movhi
 3908 0226 9AB2     		uxth	r2, r3
 3909              		.loc 1 2311 28
 3910 0228 7B68     		ldr	r3, [r7, #4]
 3911 022a 1A87     		strh	r2, [r3, #56]	@ movhi
2312:Drivers/STM32L4xx_HAL_Driver/Src/stm32l4xx_hal_smbus.c ****           SMBUS_TransferConfig(hsmbus, 0, (uint8_t)hsmbus->XferSize, hsmbus->XferOptions,
 3912              		.loc 1 2312 58
 3913 022c 7B68     		ldr	r3, [r7, #4]
 3914 022e 1B8F     		ldrh	r3, [r3, #56]
 3915              		.loc 1 2312 11
ARM GAS  /tmp/ccysATpZ.s 			page 110


 3916 0230 DAB2     		uxtb	r2, r3
 3917              		.loc 1 2312 76
 3918 0232 7B68     		ldr	r3, [r7, #4]
 3919 0234 DB6B     		ldr	r3, [r3, #60]
 3920              		.loc 1 2312 11
 3921 0236 0021     		movs	r1, #0
 3922 0238 0091     		str	r1, [sp]
 3923 023a 0021     		movs	r1, #0
 3924 023c 7868     		ldr	r0, [r7, #4]
 3925 023e FFF7FEFF 		bl	SMBUS_TransferConfig
2313:Drivers/STM32L4xx_HAL_Driver/Src/stm32l4xx_hal_smbus.c ****                                SMBUS_NO_STARTSTOP);
2314:Drivers/STM32L4xx_HAL_Driver/Src/stm32l4xx_hal_smbus.c ****           /* If PEC mode is enable, size to transmit should be Size-1 byte, corresponding to PEC by
2315:Drivers/STM32L4xx_HAL_Driver/Src/stm32l4xx_hal_smbus.c ****           /* PEC byte is automatically sent by HW block, no need to manage it in Transmit process *
2316:Drivers/STM32L4xx_HAL_Driver/Src/stm32l4xx_hal_smbus.c ****           if (SMBUS_GET_PEC_MODE(hsmbus) != 0UL)
 3926              		.loc 1 2316 15
 3927 0242 7B68     		ldr	r3, [r7, #4]
 3928 0244 1B68     		ldr	r3, [r3]
 3929 0246 5B68     		ldr	r3, [r3, #4]
 3930 0248 03F08063 		and	r3, r3, #67108864
 3931              		.loc 1 2316 14
 3932 024c 002B     		cmp	r3, #0
 3933 024e 4BD0     		beq	.L173
2317:Drivers/STM32L4xx_HAL_Driver/Src/stm32l4xx_hal_smbus.c ****           {
2318:Drivers/STM32L4xx_HAL_Driver/Src/stm32l4xx_hal_smbus.c ****             hsmbus->XferSize--;
 3934              		.loc 1 2318 19
 3935 0250 7B68     		ldr	r3, [r7, #4]
 3936 0252 1B8F     		ldrh	r3, [r3, #56]
 3937              		.loc 1 2318 29
 3938 0254 013B     		subs	r3, r3, #1
 3939 0256 9AB2     		uxth	r2, r3
 3940 0258 7B68     		ldr	r3, [r7, #4]
 3941 025a 1A87     		strh	r2, [r3, #56]	@ movhi
2319:Drivers/STM32L4xx_HAL_Driver/Src/stm32l4xx_hal_smbus.c ****             hsmbus->XferCount--;
 3942              		.loc 1 2319 19
 3943 025c 7B68     		ldr	r3, [r7, #4]
 3944 025e 5B8F     		ldrh	r3, [r3, #58]	@ movhi
 3945 0260 9BB2     		uxth	r3, r3
 3946              		.loc 1 2319 30
 3947 0262 013B     		subs	r3, r3, #1
 3948 0264 9AB2     		uxth	r2, r3
 3949 0266 7B68     		ldr	r3, [r7, #4]
 3950 0268 5A87     		strh	r2, [r3, #58]	@ movhi
2249:Drivers/STM32L4xx_HAL_Driver/Src/stm32l4xx_hal_smbus.c ****     {
 3951              		.loc 1 2249 8
 3952 026a 3DE0     		b	.L173
 3953              	.L164:
2320:Drivers/STM32L4xx_HAL_Driver/Src/stm32l4xx_hal_smbus.c ****           }
2321:Drivers/STM32L4xx_HAL_Driver/Src/stm32l4xx_hal_smbus.c ****         }
2322:Drivers/STM32L4xx_HAL_Driver/Src/stm32l4xx_hal_smbus.c ****       }
2323:Drivers/STM32L4xx_HAL_Driver/Src/stm32l4xx_hal_smbus.c ****     }
2324:Drivers/STM32L4xx_HAL_Driver/Src/stm32l4xx_hal_smbus.c ****     else
2325:Drivers/STM32L4xx_HAL_Driver/Src/stm32l4xx_hal_smbus.c ****     {
2326:Drivers/STM32L4xx_HAL_Driver/Src/stm32l4xx_hal_smbus.c ****       /* Nothing to do */
2327:Drivers/STM32L4xx_HAL_Driver/Src/stm32l4xx_hal_smbus.c ****     }
2328:Drivers/STM32L4xx_HAL_Driver/Src/stm32l4xx_hal_smbus.c ****   }
2329:Drivers/STM32L4xx_HAL_Driver/Src/stm32l4xx_hal_smbus.c ****   else if (SMBUS_CHECK_FLAG(StatusFlags, SMBUS_FLAG_TXIS) != RESET)
 3954              		.loc 1 2329 12
ARM GAS  /tmp/ccysATpZ.s 			page 111


 3955 026c 3B68     		ldr	r3, [r7]
 3956 026e 5B08     		lsrs	r3, r3, #1
 3957 0270 03F00103 		and	r3, r3, #1
 3958              		.loc 1 2329 11
 3959 0274 002B     		cmp	r3, #0
 3960 0276 38D0     		beq	.L161
2330:Drivers/STM32L4xx_HAL_Driver/Src/stm32l4xx_hal_smbus.c ****   {
2331:Drivers/STM32L4xx_HAL_Driver/Src/stm32l4xx_hal_smbus.c ****     /* Write data to TXDR only if XferCount not reach "0" */
2332:Drivers/STM32L4xx_HAL_Driver/Src/stm32l4xx_hal_smbus.c ****     /* A TXIS flag can be set, during STOP treatment      */
2333:Drivers/STM32L4xx_HAL_Driver/Src/stm32l4xx_hal_smbus.c ****     /* Check if all Data have already been sent */
2334:Drivers/STM32L4xx_HAL_Driver/Src/stm32l4xx_hal_smbus.c ****     /* If it is the case, this last write in TXDR is not sent, correspond to a dummy TXIS event */
2335:Drivers/STM32L4xx_HAL_Driver/Src/stm32l4xx_hal_smbus.c ****     if (hsmbus->XferCount > 0U)
 3961              		.loc 1 2335 15
 3962 0278 7B68     		ldr	r3, [r7, #4]
 3963 027a 5B8F     		ldrh	r3, [r3, #58]	@ movhi
 3964 027c 9BB2     		uxth	r3, r3
 3965              		.loc 1 2335 8
 3966 027e 002B     		cmp	r3, #0
 3967 0280 17D0     		beq	.L170
2336:Drivers/STM32L4xx_HAL_Driver/Src/stm32l4xx_hal_smbus.c ****     {
2337:Drivers/STM32L4xx_HAL_Driver/Src/stm32l4xx_hal_smbus.c ****       /* Write data to TXDR */
2338:Drivers/STM32L4xx_HAL_Driver/Src/stm32l4xx_hal_smbus.c ****       hsmbus->Instance->TXDR = *hsmbus->pBuffPtr;
 3968              		.loc 1 2338 39
 3969 0282 7B68     		ldr	r3, [r7, #4]
 3970 0284 5B6B     		ldr	r3, [r3, #52]
 3971              		.loc 1 2338 32
 3972 0286 1A78     		ldrb	r2, [r3]	@ zero_extendqisi2
 3973              		.loc 1 2338 13
 3974 0288 7B68     		ldr	r3, [r7, #4]
 3975 028a 1B68     		ldr	r3, [r3]
 3976              		.loc 1 2338 30
 3977 028c 9A62     		str	r2, [r3, #40]
2339:Drivers/STM32L4xx_HAL_Driver/Src/stm32l4xx_hal_smbus.c **** 
2340:Drivers/STM32L4xx_HAL_Driver/Src/stm32l4xx_hal_smbus.c ****       /* Increment Buffer pointer */
2341:Drivers/STM32L4xx_HAL_Driver/Src/stm32l4xx_hal_smbus.c ****       hsmbus->pBuffPtr++;
 3978              		.loc 1 2341 13
 3979 028e 7B68     		ldr	r3, [r7, #4]
 3980 0290 5B6B     		ldr	r3, [r3, #52]
 3981              		.loc 1 2341 23
 3982 0292 5A1C     		adds	r2, r3, #1
 3983 0294 7B68     		ldr	r3, [r7, #4]
 3984 0296 5A63     		str	r2, [r3, #52]
2342:Drivers/STM32L4xx_HAL_Driver/Src/stm32l4xx_hal_smbus.c **** 
2343:Drivers/STM32L4xx_HAL_Driver/Src/stm32l4xx_hal_smbus.c ****       hsmbus->XferCount--;
 3985              		.loc 1 2343 13
 3986 0298 7B68     		ldr	r3, [r7, #4]
 3987 029a 5B8F     		ldrh	r3, [r3, #58]	@ movhi
 3988 029c 9BB2     		uxth	r3, r3
 3989              		.loc 1 2343 24
 3990 029e 013B     		subs	r3, r3, #1
 3991 02a0 9AB2     		uxth	r2, r3
 3992 02a2 7B68     		ldr	r3, [r7, #4]
 3993 02a4 5A87     		strh	r2, [r3, #58]	@ movhi
2344:Drivers/STM32L4xx_HAL_Driver/Src/stm32l4xx_hal_smbus.c ****       hsmbus->XferSize--;
 3994              		.loc 1 2344 13
 3995 02a6 7B68     		ldr	r3, [r7, #4]
 3996 02a8 1B8F     		ldrh	r3, [r3, #56]
ARM GAS  /tmp/ccysATpZ.s 			page 112


 3997              		.loc 1 2344 23
 3998 02aa 013B     		subs	r3, r3, #1
 3999 02ac 9AB2     		uxth	r2, r3
 4000 02ae 7B68     		ldr	r3, [r7, #4]
 4001 02b0 1A87     		strh	r2, [r3, #56]	@ movhi
 4002              	.L170:
2345:Drivers/STM32L4xx_HAL_Driver/Src/stm32l4xx_hal_smbus.c ****     }
2346:Drivers/STM32L4xx_HAL_Driver/Src/stm32l4xx_hal_smbus.c **** 
2347:Drivers/STM32L4xx_HAL_Driver/Src/stm32l4xx_hal_smbus.c ****     if (hsmbus->XferCount == 0U)
 4003              		.loc 1 2347 15
 4004 02b2 7B68     		ldr	r3, [r7, #4]
 4005 02b4 5B8F     		ldrh	r3, [r3, #58]	@ movhi
 4006 02b6 9BB2     		uxth	r3, r3
 4007              		.loc 1 2347 8
 4008 02b8 002B     		cmp	r3, #0
 4009 02ba 16D1     		bne	.L161
2348:Drivers/STM32L4xx_HAL_Driver/Src/stm32l4xx_hal_smbus.c ****     {
2349:Drivers/STM32L4xx_HAL_Driver/Src/stm32l4xx_hal_smbus.c ****       /* Last Byte is Transmitted */
2350:Drivers/STM32L4xx_HAL_Driver/Src/stm32l4xx_hal_smbus.c ****       /* Remove HAL_SMBUS_STATE_SLAVE_BUSY_TX, keep only HAL_SMBUS_STATE_LISTEN */
2351:Drivers/STM32L4xx_HAL_Driver/Src/stm32l4xx_hal_smbus.c ****       SMBUS_Disable_IRQ(hsmbus, SMBUS_IT_TX);
 4010              		.loc 1 2351 7
 4011 02bc F221     		movs	r1, #242
 4012 02be 7868     		ldr	r0, [r7, #4]
 4013 02c0 FFF7FEFF 		bl	SMBUS_Disable_IRQ
2352:Drivers/STM32L4xx_HAL_Driver/Src/stm32l4xx_hal_smbus.c ****       hsmbus->PreviousState = hsmbus->State;
 4014              		.loc 1 2352 37
 4015 02c4 7B68     		ldr	r3, [r7, #4]
 4016 02c6 9A6C     		ldr	r2, [r3, #72]
 4017              		.loc 1 2352 29
 4018 02c8 7B68     		ldr	r3, [r7, #4]
 4019 02ca 1A64     		str	r2, [r3, #64]
2353:Drivers/STM32L4xx_HAL_Driver/Src/stm32l4xx_hal_smbus.c ****       hsmbus->State &= ~((uint32_t)HAL_SMBUS_STATE_SLAVE_BUSY_TX);
 4020              		.loc 1 2353 13
 4021 02cc 7B68     		ldr	r3, [r7, #4]
 4022 02ce 9B6C     		ldr	r3, [r3, #72]
 4023              		.loc 1 2353 21
 4024 02d0 23F03202 		bic	r2, r3, #50
 4025 02d4 7B68     		ldr	r3, [r7, #4]
 4026 02d6 9A64     		str	r2, [r3, #72]
2354:Drivers/STM32L4xx_HAL_Driver/Src/stm32l4xx_hal_smbus.c **** 
2355:Drivers/STM32L4xx_HAL_Driver/Src/stm32l4xx_hal_smbus.c ****       /* Process Unlocked */
2356:Drivers/STM32L4xx_HAL_Driver/Src/stm32l4xx_hal_smbus.c ****       __HAL_UNLOCK(hsmbus);
 4027              		.loc 1 2356 7
 4028 02d8 7B68     		ldr	r3, [r7, #4]
 4029 02da 0022     		movs	r2, #0
 4030 02dc 83F84420 		strb	r2, [r3, #68]
2357:Drivers/STM32L4xx_HAL_Driver/Src/stm32l4xx_hal_smbus.c **** 
2358:Drivers/STM32L4xx_HAL_Driver/Src/stm32l4xx_hal_smbus.c ****       /* Call the corresponding callback to inform upper layer of End of Transfer */
2359:Drivers/STM32L4xx_HAL_Driver/Src/stm32l4xx_hal_smbus.c **** #if (USE_HAL_SMBUS_REGISTER_CALLBACKS == 1)
2360:Drivers/STM32L4xx_HAL_Driver/Src/stm32l4xx_hal_smbus.c ****       hsmbus->SlaveTxCpltCallback(hsmbus);
2361:Drivers/STM32L4xx_HAL_Driver/Src/stm32l4xx_hal_smbus.c **** #else
2362:Drivers/STM32L4xx_HAL_Driver/Src/stm32l4xx_hal_smbus.c ****       HAL_SMBUS_SlaveTxCpltCallback(hsmbus);
 4031              		.loc 1 2362 7
 4032 02e0 7868     		ldr	r0, [r7, #4]
 4033 02e2 FFF7FEFF 		bl	HAL_SMBUS_SlaveTxCpltCallback
 4034 02e6 00E0     		b	.L161
 4035              	.L173:
ARM GAS  /tmp/ccysATpZ.s 			page 113


2249:Drivers/STM32L4xx_HAL_Driver/Src/stm32l4xx_hal_smbus.c ****     {
 4036              		.loc 1 2249 8
 4037 02e8 00BF     		nop
 4038              	.L161:
2363:Drivers/STM32L4xx_HAL_Driver/Src/stm32l4xx_hal_smbus.c **** #endif /* USE_HAL_SMBUS_REGISTER_CALLBACKS */
2364:Drivers/STM32L4xx_HAL_Driver/Src/stm32l4xx_hal_smbus.c ****     }
2365:Drivers/STM32L4xx_HAL_Driver/Src/stm32l4xx_hal_smbus.c ****   }
2366:Drivers/STM32L4xx_HAL_Driver/Src/stm32l4xx_hal_smbus.c ****   else
2367:Drivers/STM32L4xx_HAL_Driver/Src/stm32l4xx_hal_smbus.c ****   {
2368:Drivers/STM32L4xx_HAL_Driver/Src/stm32l4xx_hal_smbus.c ****     /* Nothing to do */
2369:Drivers/STM32L4xx_HAL_Driver/Src/stm32l4xx_hal_smbus.c ****   }
2370:Drivers/STM32L4xx_HAL_Driver/Src/stm32l4xx_hal_smbus.c **** 
2371:Drivers/STM32L4xx_HAL_Driver/Src/stm32l4xx_hal_smbus.c ****   /* Check if STOPF is set */
2372:Drivers/STM32L4xx_HAL_Driver/Src/stm32l4xx_hal_smbus.c ****   if (SMBUS_CHECK_FLAG(StatusFlags, SMBUS_FLAG_STOPF) != RESET)
 4039              		.loc 1 2372 7
 4040 02ea 3B68     		ldr	r3, [r7]
 4041 02ec 5B09     		lsrs	r3, r3, #5
 4042 02ee 03F00103 		and	r3, r3, #1
 4043              		.loc 1 2372 6
 4044 02f2 002B     		cmp	r3, #0
 4045 02f4 5AD0     		beq	.L171
2373:Drivers/STM32L4xx_HAL_Driver/Src/stm32l4xx_hal_smbus.c ****   {
2374:Drivers/STM32L4xx_HAL_Driver/Src/stm32l4xx_hal_smbus.c ****     if ((hsmbus->State & HAL_SMBUS_STATE_LISTEN) == HAL_SMBUS_STATE_LISTEN)
 4046              		.loc 1 2374 16
 4047 02f6 7B68     		ldr	r3, [r7, #4]
 4048 02f8 9B6C     		ldr	r3, [r3, #72]
 4049              		.loc 1 2374 24
 4050 02fa 03F00803 		and	r3, r3, #8
 4051              		.loc 1 2374 8
 4052 02fe 082B     		cmp	r3, #8
 4053 0300 54D1     		bne	.L171
2375:Drivers/STM32L4xx_HAL_Driver/Src/stm32l4xx_hal_smbus.c ****     {
2376:Drivers/STM32L4xx_HAL_Driver/Src/stm32l4xx_hal_smbus.c ****       /* Store Last receive data if any */
2377:Drivers/STM32L4xx_HAL_Driver/Src/stm32l4xx_hal_smbus.c ****       if (__HAL_SMBUS_GET_FLAG(hsmbus, SMBUS_FLAG_RXNE) != RESET)
 4054              		.loc 1 2377 11
 4055 0302 7B68     		ldr	r3, [r7, #4]
 4056 0304 1B68     		ldr	r3, [r3]
 4057 0306 9B69     		ldr	r3, [r3, #24]
 4058 0308 03F00403 		and	r3, r3, #4
 4059              		.loc 1 2377 10
 4060 030c 042B     		cmp	r3, #4
 4061 030e 1CD1     		bne	.L172
2378:Drivers/STM32L4xx_HAL_Driver/Src/stm32l4xx_hal_smbus.c ****       {
2379:Drivers/STM32L4xx_HAL_Driver/Src/stm32l4xx_hal_smbus.c ****         /* Read data from RXDR */
2380:Drivers/STM32L4xx_HAL_Driver/Src/stm32l4xx_hal_smbus.c ****         *hsmbus->pBuffPtr = (uint8_t)(hsmbus->Instance->RXDR);
 4062              		.loc 1 2380 45
 4063 0310 7B68     		ldr	r3, [r7, #4]
 4064 0312 1B68     		ldr	r3, [r3]
 4065              		.loc 1 2380 55
 4066 0314 5A6A     		ldr	r2, [r3, #36]
 4067              		.loc 1 2380 16
 4068 0316 7B68     		ldr	r3, [r7, #4]
 4069 0318 5B6B     		ldr	r3, [r3, #52]
 4070              		.loc 1 2380 29
 4071 031a D2B2     		uxtb	r2, r2
 4072              		.loc 1 2380 27
 4073 031c 1A70     		strb	r2, [r3]
ARM GAS  /tmp/ccysATpZ.s 			page 114


2381:Drivers/STM32L4xx_HAL_Driver/Src/stm32l4xx_hal_smbus.c **** 
2382:Drivers/STM32L4xx_HAL_Driver/Src/stm32l4xx_hal_smbus.c ****         /* Increment Buffer pointer */
2383:Drivers/STM32L4xx_HAL_Driver/Src/stm32l4xx_hal_smbus.c ****         hsmbus->pBuffPtr++;
 4074              		.loc 1 2383 15
 4075 031e 7B68     		ldr	r3, [r7, #4]
 4076 0320 5B6B     		ldr	r3, [r3, #52]
 4077              		.loc 1 2383 25
 4078 0322 5A1C     		adds	r2, r3, #1
 4079 0324 7B68     		ldr	r3, [r7, #4]
 4080 0326 5A63     		str	r2, [r3, #52]
2384:Drivers/STM32L4xx_HAL_Driver/Src/stm32l4xx_hal_smbus.c **** 
2385:Drivers/STM32L4xx_HAL_Driver/Src/stm32l4xx_hal_smbus.c ****         if (hsmbus->XferSize > 0U)
 4081              		.loc 1 2385 19
 4082 0328 7B68     		ldr	r3, [r7, #4]
 4083 032a 1B8F     		ldrh	r3, [r3, #56]
 4084              		.loc 1 2385 12
 4085 032c 002B     		cmp	r3, #0
 4086 032e 0CD0     		beq	.L172
2386:Drivers/STM32L4xx_HAL_Driver/Src/stm32l4xx_hal_smbus.c ****         {
2387:Drivers/STM32L4xx_HAL_Driver/Src/stm32l4xx_hal_smbus.c ****           hsmbus->XferSize--;
 4087              		.loc 1 2387 17
 4088 0330 7B68     		ldr	r3, [r7, #4]
 4089 0332 1B8F     		ldrh	r3, [r3, #56]
 4090              		.loc 1 2387 27
 4091 0334 013B     		subs	r3, r3, #1
 4092 0336 9AB2     		uxth	r2, r3
 4093 0338 7B68     		ldr	r3, [r7, #4]
 4094 033a 1A87     		strh	r2, [r3, #56]	@ movhi
2388:Drivers/STM32L4xx_HAL_Driver/Src/stm32l4xx_hal_smbus.c ****           hsmbus->XferCount--;
 4095              		.loc 1 2388 17
 4096 033c 7B68     		ldr	r3, [r7, #4]
 4097 033e 5B8F     		ldrh	r3, [r3, #58]	@ movhi
 4098 0340 9BB2     		uxth	r3, r3
 4099              		.loc 1 2388 28
 4100 0342 013B     		subs	r3, r3, #1
 4101 0344 9AB2     		uxth	r2, r3
 4102 0346 7B68     		ldr	r3, [r7, #4]
 4103 0348 5A87     		strh	r2, [r3, #58]	@ movhi
 4104              	.L172:
2389:Drivers/STM32L4xx_HAL_Driver/Src/stm32l4xx_hal_smbus.c ****         }
2390:Drivers/STM32L4xx_HAL_Driver/Src/stm32l4xx_hal_smbus.c ****       }
2391:Drivers/STM32L4xx_HAL_Driver/Src/stm32l4xx_hal_smbus.c **** 
2392:Drivers/STM32L4xx_HAL_Driver/Src/stm32l4xx_hal_smbus.c ****       /* Disable RX and TX Interrupts */
2393:Drivers/STM32L4xx_HAL_Driver/Src/stm32l4xx_hal_smbus.c ****       SMBUS_Disable_IRQ(hsmbus, SMBUS_IT_RX | SMBUS_IT_TX);
 4105              		.loc 1 2393 7
 4106 034a F621     		movs	r1, #246
 4107 034c 7868     		ldr	r0, [r7, #4]
 4108 034e FFF7FEFF 		bl	SMBUS_Disable_IRQ
2394:Drivers/STM32L4xx_HAL_Driver/Src/stm32l4xx_hal_smbus.c **** 
2395:Drivers/STM32L4xx_HAL_Driver/Src/stm32l4xx_hal_smbus.c ****       /* Disable ADDR Interrupt */
2396:Drivers/STM32L4xx_HAL_Driver/Src/stm32l4xx_hal_smbus.c ****       SMBUS_Disable_IRQ(hsmbus, SMBUS_IT_ADDR);
 4109              		.loc 1 2396 7
 4110 0352 3821     		movs	r1, #56
 4111 0354 7868     		ldr	r0, [r7, #4]
 4112 0356 FFF7FEFF 		bl	SMBUS_Disable_IRQ
2397:Drivers/STM32L4xx_HAL_Driver/Src/stm32l4xx_hal_smbus.c **** 
2398:Drivers/STM32L4xx_HAL_Driver/Src/stm32l4xx_hal_smbus.c ****       /* Disable Address Acknowledge */
ARM GAS  /tmp/ccysATpZ.s 			page 115


2399:Drivers/STM32L4xx_HAL_Driver/Src/stm32l4xx_hal_smbus.c ****       hsmbus->Instance->CR2 |= I2C_CR2_NACK;
 4113              		.loc 1 2399 13
 4114 035a 7B68     		ldr	r3, [r7, #4]
 4115 035c 1B68     		ldr	r3, [r3]
 4116              		.loc 1 2399 23
 4117 035e 5A68     		ldr	r2, [r3, #4]
 4118              		.loc 1 2399 13
 4119 0360 7B68     		ldr	r3, [r7, #4]
 4120 0362 1B68     		ldr	r3, [r3]
 4121              		.loc 1 2399 29
 4122 0364 42F40042 		orr	r2, r2, #32768
 4123 0368 5A60     		str	r2, [r3, #4]
2400:Drivers/STM32L4xx_HAL_Driver/Src/stm32l4xx_hal_smbus.c **** 
2401:Drivers/STM32L4xx_HAL_Driver/Src/stm32l4xx_hal_smbus.c ****       /* Clear Configuration Register 2 */
2402:Drivers/STM32L4xx_HAL_Driver/Src/stm32l4xx_hal_smbus.c ****       SMBUS_RESET_CR2(hsmbus);
 4124              		.loc 1 2402 7
 4125 036a 7B68     		ldr	r3, [r7, #4]
 4126 036c 1B68     		ldr	r3, [r3]
 4127 036e 5968     		ldr	r1, [r3, #4]
 4128 0370 7B68     		ldr	r3, [r7, #4]
 4129 0372 1A68     		ldr	r2, [r3]
 4130 0374 124B     		ldr	r3, .L174
 4131 0376 0B40     		ands	r3, r3, r1
 4132 0378 5360     		str	r3, [r2, #4]
2403:Drivers/STM32L4xx_HAL_Driver/Src/stm32l4xx_hal_smbus.c **** 
2404:Drivers/STM32L4xx_HAL_Driver/Src/stm32l4xx_hal_smbus.c ****       /* Clear STOP Flag */
2405:Drivers/STM32L4xx_HAL_Driver/Src/stm32l4xx_hal_smbus.c ****       __HAL_SMBUS_CLEAR_FLAG(hsmbus, SMBUS_FLAG_STOPF);
 4133              		.loc 1 2405 7
 4134 037a 7B68     		ldr	r3, [r7, #4]
 4135 037c 1B68     		ldr	r3, [r3]
 4136 037e 2022     		movs	r2, #32
 4137 0380 DA61     		str	r2, [r3, #28]
2406:Drivers/STM32L4xx_HAL_Driver/Src/stm32l4xx_hal_smbus.c **** 
2407:Drivers/STM32L4xx_HAL_Driver/Src/stm32l4xx_hal_smbus.c ****       /* Clear ADDR flag */
2408:Drivers/STM32L4xx_HAL_Driver/Src/stm32l4xx_hal_smbus.c ****       __HAL_SMBUS_CLEAR_FLAG(hsmbus, SMBUS_FLAG_ADDR);
 4138              		.loc 1 2408 7
 4139 0382 7B68     		ldr	r3, [r7, #4]
 4140 0384 1B68     		ldr	r3, [r3]
 4141 0386 0822     		movs	r2, #8
 4142 0388 DA61     		str	r2, [r3, #28]
2409:Drivers/STM32L4xx_HAL_Driver/Src/stm32l4xx_hal_smbus.c **** 
2410:Drivers/STM32L4xx_HAL_Driver/Src/stm32l4xx_hal_smbus.c ****       hsmbus->XferOptions = 0;
 4143              		.loc 1 2410 27
 4144 038a 7B68     		ldr	r3, [r7, #4]
 4145 038c 0022     		movs	r2, #0
 4146 038e DA63     		str	r2, [r3, #60]
2411:Drivers/STM32L4xx_HAL_Driver/Src/stm32l4xx_hal_smbus.c ****       hsmbus->PreviousState = hsmbus->State;
 4147              		.loc 1 2411 37
 4148 0390 7B68     		ldr	r3, [r7, #4]
 4149 0392 9A6C     		ldr	r2, [r3, #72]
 4150              		.loc 1 2411 29
 4151 0394 7B68     		ldr	r3, [r7, #4]
 4152 0396 1A64     		str	r2, [r3, #64]
2412:Drivers/STM32L4xx_HAL_Driver/Src/stm32l4xx_hal_smbus.c ****       hsmbus->State = HAL_SMBUS_STATE_READY;
 4153              		.loc 1 2412 21
 4154 0398 7B68     		ldr	r3, [r7, #4]
 4155 039a 0122     		movs	r2, #1
ARM GAS  /tmp/ccysATpZ.s 			page 116


 4156 039c 9A64     		str	r2, [r3, #72]
2413:Drivers/STM32L4xx_HAL_Driver/Src/stm32l4xx_hal_smbus.c **** 
2414:Drivers/STM32L4xx_HAL_Driver/Src/stm32l4xx_hal_smbus.c ****       /* Process Unlocked */
2415:Drivers/STM32L4xx_HAL_Driver/Src/stm32l4xx_hal_smbus.c ****       __HAL_UNLOCK(hsmbus);
 4157              		.loc 1 2415 7
 4158 039e 7B68     		ldr	r3, [r7, #4]
 4159 03a0 0022     		movs	r2, #0
 4160 03a2 83F84420 		strb	r2, [r3, #68]
2416:Drivers/STM32L4xx_HAL_Driver/Src/stm32l4xx_hal_smbus.c **** 
2417:Drivers/STM32L4xx_HAL_Driver/Src/stm32l4xx_hal_smbus.c ****       /* Call the Listen Complete callback, to inform upper layer of the end of Listen usecase */
2418:Drivers/STM32L4xx_HAL_Driver/Src/stm32l4xx_hal_smbus.c **** #if (USE_HAL_SMBUS_REGISTER_CALLBACKS == 1)
2419:Drivers/STM32L4xx_HAL_Driver/Src/stm32l4xx_hal_smbus.c ****       hsmbus->ListenCpltCallback(hsmbus);
2420:Drivers/STM32L4xx_HAL_Driver/Src/stm32l4xx_hal_smbus.c **** #else
2421:Drivers/STM32L4xx_HAL_Driver/Src/stm32l4xx_hal_smbus.c ****       HAL_SMBUS_ListenCpltCallback(hsmbus);
 4161              		.loc 1 2421 7
 4162 03a6 7868     		ldr	r0, [r7, #4]
 4163 03a8 FFF7FEFF 		bl	HAL_SMBUS_ListenCpltCallback
 4164              	.L171:
2422:Drivers/STM32L4xx_HAL_Driver/Src/stm32l4xx_hal_smbus.c **** #endif /* USE_HAL_SMBUS_REGISTER_CALLBACKS */
2423:Drivers/STM32L4xx_HAL_Driver/Src/stm32l4xx_hal_smbus.c ****     }
2424:Drivers/STM32L4xx_HAL_Driver/Src/stm32l4xx_hal_smbus.c ****   }
2425:Drivers/STM32L4xx_HAL_Driver/Src/stm32l4xx_hal_smbus.c **** 
2426:Drivers/STM32L4xx_HAL_Driver/Src/stm32l4xx_hal_smbus.c ****   /* Process Unlocked */
2427:Drivers/STM32L4xx_HAL_Driver/Src/stm32l4xx_hal_smbus.c ****   __HAL_UNLOCK(hsmbus);
 4165              		.loc 1 2427 3
 4166 03ac 7B68     		ldr	r3, [r7, #4]
 4167 03ae 0022     		movs	r2, #0
 4168 03b0 83F84420 		strb	r2, [r3, #68]
2428:Drivers/STM32L4xx_HAL_Driver/Src/stm32l4xx_hal_smbus.c **** 
2429:Drivers/STM32L4xx_HAL_Driver/Src/stm32l4xx_hal_smbus.c ****   return HAL_OK;
 4169              		.loc 1 2429 10
 4170 03b4 0023     		movs	r3, #0
 4171              	.L158:
2430:Drivers/STM32L4xx_HAL_Driver/Src/stm32l4xx_hal_smbus.c **** }
 4172              		.loc 1 2430 1
 4173 03b6 1846     		mov	r0, r3
 4174 03b8 1037     		adds	r7, r7, #16
 4175              		.cfi_def_cfa_offset 8
 4176 03ba BD46     		mov	sp, r7
 4177              		.cfi_def_cfa_register 13
 4178              		@ sp needed
 4179 03bc 80BD     		pop	{r7, pc}
 4180              	.L175:
 4181 03be 00BF     		.align	2
 4182              	.L174:
 4183 03c0 00E800FE 		.word	-33495040
 4184              		.cfi_endproc
 4185              	.LFE473:
 4187              		.section	.text.SMBUS_Enable_IRQ,"ax",%progbits
 4188              		.align	1
 4189              		.syntax unified
 4190              		.thumb
 4191              		.thumb_func
 4193              	SMBUS_Enable_IRQ:
 4194              	.LFB474:
2431:Drivers/STM32L4xx_HAL_Driver/Src/stm32l4xx_hal_smbus.c **** /**
2432:Drivers/STM32L4xx_HAL_Driver/Src/stm32l4xx_hal_smbus.c ****   * @brief  Manage the enabling of Interrupts.
ARM GAS  /tmp/ccysATpZ.s 			page 117


2433:Drivers/STM32L4xx_HAL_Driver/Src/stm32l4xx_hal_smbus.c ****   * @param  hsmbus Pointer to a SMBUS_HandleTypeDef structure that contains
2434:Drivers/STM32L4xx_HAL_Driver/Src/stm32l4xx_hal_smbus.c ****   *                the configuration information for the specified SMBUS.
2435:Drivers/STM32L4xx_HAL_Driver/Src/stm32l4xx_hal_smbus.c ****   * @param  InterruptRequest Value of @ref SMBUS_Interrupt_configuration_definition.
2436:Drivers/STM32L4xx_HAL_Driver/Src/stm32l4xx_hal_smbus.c ****   * @retval HAL status
2437:Drivers/STM32L4xx_HAL_Driver/Src/stm32l4xx_hal_smbus.c ****   */
2438:Drivers/STM32L4xx_HAL_Driver/Src/stm32l4xx_hal_smbus.c **** static void SMBUS_Enable_IRQ(SMBUS_HandleTypeDef *hsmbus, uint32_t InterruptRequest)
2439:Drivers/STM32L4xx_HAL_Driver/Src/stm32l4xx_hal_smbus.c **** {
 4195              		.loc 1 2439 1
 4196              		.cfi_startproc
 4197              		@ args = 0, pretend = 0, frame = 16
 4198              		@ frame_needed = 1, uses_anonymous_args = 0
 4199              		@ link register save eliminated.
 4200 0000 80B4     		push	{r7}
 4201              		.cfi_def_cfa_offset 4
 4202              		.cfi_offset 7, -4
 4203 0002 85B0     		sub	sp, sp, #20
 4204              		.cfi_def_cfa_offset 24
 4205 0004 00AF     		add	r7, sp, #0
 4206              		.cfi_def_cfa_register 7
 4207 0006 7860     		str	r0, [r7, #4]
 4208 0008 3960     		str	r1, [r7]
2440:Drivers/STM32L4xx_HAL_Driver/Src/stm32l4xx_hal_smbus.c ****   uint32_t tmpisr = 0UL;
 4209              		.loc 1 2440 12
 4210 000a 0023     		movs	r3, #0
 4211 000c FB60     		str	r3, [r7, #12]
2441:Drivers/STM32L4xx_HAL_Driver/Src/stm32l4xx_hal_smbus.c **** 
2442:Drivers/STM32L4xx_HAL_Driver/Src/stm32l4xx_hal_smbus.c ****   if ((InterruptRequest & SMBUS_IT_ALERT) == SMBUS_IT_ALERT)
 4212              		.loc 1 2442 25
 4213 000e 3B68     		ldr	r3, [r7]
 4214 0010 03F08003 		and	r3, r3, #128
 4215              		.loc 1 2442 6
 4216 0014 002B     		cmp	r3, #0
 4217 0016 03D0     		beq	.L177
2443:Drivers/STM32L4xx_HAL_Driver/Src/stm32l4xx_hal_smbus.c ****   {
2444:Drivers/STM32L4xx_HAL_Driver/Src/stm32l4xx_hal_smbus.c ****     /* Enable ERR interrupt */
2445:Drivers/STM32L4xx_HAL_Driver/Src/stm32l4xx_hal_smbus.c ****     tmpisr |= SMBUS_IT_ERRI;
 4218              		.loc 1 2445 12
 4219 0018 FB68     		ldr	r3, [r7, #12]
 4220 001a 43F08003 		orr	r3, r3, #128
 4221 001e FB60     		str	r3, [r7, #12]
 4222              	.L177:
2446:Drivers/STM32L4xx_HAL_Driver/Src/stm32l4xx_hal_smbus.c ****   }
2447:Drivers/STM32L4xx_HAL_Driver/Src/stm32l4xx_hal_smbus.c **** 
2448:Drivers/STM32L4xx_HAL_Driver/Src/stm32l4xx_hal_smbus.c ****   if ((InterruptRequest & SMBUS_IT_ADDR) == SMBUS_IT_ADDR)
 4223              		.loc 1 2448 25
 4224 0020 3B68     		ldr	r3, [r7]
 4225 0022 03F03803 		and	r3, r3, #56
 4226              		.loc 1 2448 6
 4227 0026 382B     		cmp	r3, #56
 4228 0028 03D1     		bne	.L178
2449:Drivers/STM32L4xx_HAL_Driver/Src/stm32l4xx_hal_smbus.c ****   {
2450:Drivers/STM32L4xx_HAL_Driver/Src/stm32l4xx_hal_smbus.c ****     /* Enable ADDR, STOP interrupt */
2451:Drivers/STM32L4xx_HAL_Driver/Src/stm32l4xx_hal_smbus.c ****     tmpisr |= SMBUS_IT_ADDRI | SMBUS_IT_STOPI | SMBUS_IT_NACKI | SMBUS_IT_ERRI;
 4229              		.loc 1 2451 12
 4230 002a FB68     		ldr	r3, [r7, #12]
 4231 002c 43F0B803 		orr	r3, r3, #184
 4232 0030 FB60     		str	r3, [r7, #12]
ARM GAS  /tmp/ccysATpZ.s 			page 118


 4233              	.L178:
2452:Drivers/STM32L4xx_HAL_Driver/Src/stm32l4xx_hal_smbus.c ****   }
2453:Drivers/STM32L4xx_HAL_Driver/Src/stm32l4xx_hal_smbus.c **** 
2454:Drivers/STM32L4xx_HAL_Driver/Src/stm32l4xx_hal_smbus.c ****   if ((InterruptRequest & SMBUS_IT_TX) == SMBUS_IT_TX)
 4234              		.loc 1 2454 25
 4235 0032 3B68     		ldr	r3, [r7]
 4236 0034 03F0F203 		and	r3, r3, #242
 4237              		.loc 1 2454 6
 4238 0038 F22B     		cmp	r3, #242
 4239 003a 03D1     		bne	.L179
2455:Drivers/STM32L4xx_HAL_Driver/Src/stm32l4xx_hal_smbus.c ****   {
2456:Drivers/STM32L4xx_HAL_Driver/Src/stm32l4xx_hal_smbus.c ****     /* Enable ERR, TC, STOP, NACK, RXI interrupt */
2457:Drivers/STM32L4xx_HAL_Driver/Src/stm32l4xx_hal_smbus.c ****     tmpisr |= SMBUS_IT_ERRI | SMBUS_IT_TCI | SMBUS_IT_STOPI | SMBUS_IT_NACKI | SMBUS_IT_TXI;
 4240              		.loc 1 2457 12
 4241 003c FB68     		ldr	r3, [r7, #12]
 4242 003e 43F0F203 		orr	r3, r3, #242
 4243 0042 FB60     		str	r3, [r7, #12]
 4244              	.L179:
2458:Drivers/STM32L4xx_HAL_Driver/Src/stm32l4xx_hal_smbus.c ****   }
2459:Drivers/STM32L4xx_HAL_Driver/Src/stm32l4xx_hal_smbus.c **** 
2460:Drivers/STM32L4xx_HAL_Driver/Src/stm32l4xx_hal_smbus.c ****   if ((InterruptRequest & SMBUS_IT_RX) == SMBUS_IT_RX)
 4245              		.loc 1 2460 25
 4246 0044 3B68     		ldr	r3, [r7]
 4247 0046 03F0D403 		and	r3, r3, #212
 4248              		.loc 1 2460 6
 4249 004a D42B     		cmp	r3, #212
 4250 004c 03D1     		bne	.L180
2461:Drivers/STM32L4xx_HAL_Driver/Src/stm32l4xx_hal_smbus.c ****   {
2462:Drivers/STM32L4xx_HAL_Driver/Src/stm32l4xx_hal_smbus.c ****     /* Enable ERR, TC, STOP, NACK, TXI interrupt */
2463:Drivers/STM32L4xx_HAL_Driver/Src/stm32l4xx_hal_smbus.c ****     tmpisr |= SMBUS_IT_ERRI | SMBUS_IT_TCI | SMBUS_IT_STOPI | SMBUS_IT_NACKI | SMBUS_IT_RXI;
 4251              		.loc 1 2463 12
 4252 004e FB68     		ldr	r3, [r7, #12]
 4253 0050 43F0F403 		orr	r3, r3, #244
 4254 0054 FB60     		str	r3, [r7, #12]
 4255              	.L180:
2464:Drivers/STM32L4xx_HAL_Driver/Src/stm32l4xx_hal_smbus.c ****   }
2465:Drivers/STM32L4xx_HAL_Driver/Src/stm32l4xx_hal_smbus.c **** 
2466:Drivers/STM32L4xx_HAL_Driver/Src/stm32l4xx_hal_smbus.c ****   /* Enable interrupts only at the end */
2467:Drivers/STM32L4xx_HAL_Driver/Src/stm32l4xx_hal_smbus.c ****   /* to avoid the risk of SMBUS interrupt handle execution before */
2468:Drivers/STM32L4xx_HAL_Driver/Src/stm32l4xx_hal_smbus.c ****   /* all interrupts requested done */
2469:Drivers/STM32L4xx_HAL_Driver/Src/stm32l4xx_hal_smbus.c ****   __HAL_SMBUS_ENABLE_IT(hsmbus, tmpisr);
 4256              		.loc 1 2469 3
 4257 0056 7B68     		ldr	r3, [r7, #4]
 4258 0058 1B68     		ldr	r3, [r3]
 4259 005a 1968     		ldr	r1, [r3]
 4260 005c 7B68     		ldr	r3, [r7, #4]
 4261 005e 1B68     		ldr	r3, [r3]
 4262 0060 FA68     		ldr	r2, [r7, #12]
 4263 0062 0A43     		orrs	r2, r2, r1
 4264 0064 1A60     		str	r2, [r3]
2470:Drivers/STM32L4xx_HAL_Driver/Src/stm32l4xx_hal_smbus.c **** }
 4265              		.loc 1 2470 1
 4266 0066 00BF     		nop
 4267 0068 1437     		adds	r7, r7, #20
 4268              		.cfi_def_cfa_offset 4
 4269 006a BD46     		mov	sp, r7
 4270              		.cfi_def_cfa_register 13
ARM GAS  /tmp/ccysATpZ.s 			page 119


 4271              		@ sp needed
 4272 006c 5DF8047B 		ldr	r7, [sp], #4
 4273              		.cfi_restore 7
 4274              		.cfi_def_cfa_offset 0
 4275 0070 7047     		bx	lr
 4276              		.cfi_endproc
 4277              	.LFE474:
 4279              		.section	.text.SMBUS_Disable_IRQ,"ax",%progbits
 4280              		.align	1
 4281              		.syntax unified
 4282              		.thumb
 4283              		.thumb_func
 4285              	SMBUS_Disable_IRQ:
 4286              	.LFB475:
2471:Drivers/STM32L4xx_HAL_Driver/Src/stm32l4xx_hal_smbus.c **** /**
2472:Drivers/STM32L4xx_HAL_Driver/Src/stm32l4xx_hal_smbus.c ****   * @brief  Manage the disabling of Interrupts.
2473:Drivers/STM32L4xx_HAL_Driver/Src/stm32l4xx_hal_smbus.c ****   * @param  hsmbus Pointer to a SMBUS_HandleTypeDef structure that contains
2474:Drivers/STM32L4xx_HAL_Driver/Src/stm32l4xx_hal_smbus.c ****   *                the configuration information for the specified SMBUS.
2475:Drivers/STM32L4xx_HAL_Driver/Src/stm32l4xx_hal_smbus.c ****   * @param  InterruptRequest Value of @ref SMBUS_Interrupt_configuration_definition.
2476:Drivers/STM32L4xx_HAL_Driver/Src/stm32l4xx_hal_smbus.c ****   * @retval HAL status
2477:Drivers/STM32L4xx_HAL_Driver/Src/stm32l4xx_hal_smbus.c ****   */
2478:Drivers/STM32L4xx_HAL_Driver/Src/stm32l4xx_hal_smbus.c **** static void SMBUS_Disable_IRQ(SMBUS_HandleTypeDef *hsmbus, uint32_t InterruptRequest)
2479:Drivers/STM32L4xx_HAL_Driver/Src/stm32l4xx_hal_smbus.c **** {
 4287              		.loc 1 2479 1
 4288              		.cfi_startproc
 4289              		@ args = 0, pretend = 0, frame = 16
 4290              		@ frame_needed = 1, uses_anonymous_args = 0
 4291              		@ link register save eliminated.
 4292 0000 80B4     		push	{r7}
 4293              		.cfi_def_cfa_offset 4
 4294              		.cfi_offset 7, -4
 4295 0002 85B0     		sub	sp, sp, #20
 4296              		.cfi_def_cfa_offset 24
 4297 0004 00AF     		add	r7, sp, #0
 4298              		.cfi_def_cfa_register 7
 4299 0006 7860     		str	r0, [r7, #4]
 4300 0008 3960     		str	r1, [r7]
2480:Drivers/STM32L4xx_HAL_Driver/Src/stm32l4xx_hal_smbus.c ****   uint32_t tmpisr = 0UL;
 4301              		.loc 1 2480 12
 4302 000a 0023     		movs	r3, #0
 4303 000c FB60     		str	r3, [r7, #12]
2481:Drivers/STM32L4xx_HAL_Driver/Src/stm32l4xx_hal_smbus.c ****   uint32_t tmpstate = hsmbus->State;
 4304              		.loc 1 2481 12
 4305 000e 7B68     		ldr	r3, [r7, #4]
 4306 0010 9B6C     		ldr	r3, [r3, #72]
 4307 0012 BB60     		str	r3, [r7, #8]
2482:Drivers/STM32L4xx_HAL_Driver/Src/stm32l4xx_hal_smbus.c **** 
2483:Drivers/STM32L4xx_HAL_Driver/Src/stm32l4xx_hal_smbus.c ****   if ((tmpstate == HAL_SMBUS_STATE_READY) && ((InterruptRequest & SMBUS_IT_ALERT) == SMBUS_IT_ALERT
 4308              		.loc 1 2483 6
 4309 0014 BB68     		ldr	r3, [r7, #8]
 4310 0016 012B     		cmp	r3, #1
 4311 0018 08D1     		bne	.L182
 4312              		.loc 1 2483 65 discriminator 1
 4313 001a 3B68     		ldr	r3, [r7]
 4314 001c 03F08003 		and	r3, r3, #128
 4315              		.loc 1 2483 43 discriminator 1
 4316 0020 002B     		cmp	r3, #0
ARM GAS  /tmp/ccysATpZ.s 			page 120


 4317 0022 03D0     		beq	.L182
2484:Drivers/STM32L4xx_HAL_Driver/Src/stm32l4xx_hal_smbus.c ****   {
2485:Drivers/STM32L4xx_HAL_Driver/Src/stm32l4xx_hal_smbus.c ****     /* Disable ERR interrupt */
2486:Drivers/STM32L4xx_HAL_Driver/Src/stm32l4xx_hal_smbus.c ****     tmpisr |= SMBUS_IT_ERRI;
 4318              		.loc 1 2486 12
 4319 0024 FB68     		ldr	r3, [r7, #12]
 4320 0026 43F08003 		orr	r3, r3, #128
 4321 002a FB60     		str	r3, [r7, #12]
 4322              	.L182:
2487:Drivers/STM32L4xx_HAL_Driver/Src/stm32l4xx_hal_smbus.c ****   }
2488:Drivers/STM32L4xx_HAL_Driver/Src/stm32l4xx_hal_smbus.c **** 
2489:Drivers/STM32L4xx_HAL_Driver/Src/stm32l4xx_hal_smbus.c ****   if ((InterruptRequest & SMBUS_IT_TX) == SMBUS_IT_TX)
 4323              		.loc 1 2489 25
 4324 002c 3B68     		ldr	r3, [r7]
 4325 002e 03F0F203 		and	r3, r3, #242
 4326              		.loc 1 2489 6
 4327 0032 F22B     		cmp	r3, #242
 4328 0034 1CD1     		bne	.L183
2490:Drivers/STM32L4xx_HAL_Driver/Src/stm32l4xx_hal_smbus.c ****   {
2491:Drivers/STM32L4xx_HAL_Driver/Src/stm32l4xx_hal_smbus.c ****     /* Disable TC, STOP, NACK and TXI interrupt */
2492:Drivers/STM32L4xx_HAL_Driver/Src/stm32l4xx_hal_smbus.c ****     tmpisr |= SMBUS_IT_TCI | SMBUS_IT_TXI;
 4329              		.loc 1 2492 12
 4330 0036 FB68     		ldr	r3, [r7, #12]
 4331 0038 43F04203 		orr	r3, r3, #66
 4332 003c FB60     		str	r3, [r7, #12]
2493:Drivers/STM32L4xx_HAL_Driver/Src/stm32l4xx_hal_smbus.c **** 
2494:Drivers/STM32L4xx_HAL_Driver/Src/stm32l4xx_hal_smbus.c ****     if ((SMBUS_GET_ALERT_ENABLED(hsmbus) == 0UL)
 4333              		.loc 1 2494 10
 4334 003e 7B68     		ldr	r3, [r7, #4]
 4335 0040 1B68     		ldr	r3, [r3]
 4336 0042 1B68     		ldr	r3, [r3]
 4337 0044 03F48003 		and	r3, r3, #4194304
 4338              		.loc 1 2494 8
 4339 0048 002B     		cmp	r3, #0
 4340 004a 08D1     		bne	.L184
2495:Drivers/STM32L4xx_HAL_Driver/Src/stm32l4xx_hal_smbus.c ****         && ((tmpstate & HAL_SMBUS_STATE_LISTEN) != HAL_SMBUS_STATE_LISTEN))
 4341              		.loc 1 2495 23
 4342 004c BB68     		ldr	r3, [r7, #8]
 4343 004e 03F00803 		and	r3, r3, #8
 4344              		.loc 1 2495 9
 4345 0052 002B     		cmp	r3, #0
 4346 0054 03D1     		bne	.L184
2496:Drivers/STM32L4xx_HAL_Driver/Src/stm32l4xx_hal_smbus.c ****     {
2497:Drivers/STM32L4xx_HAL_Driver/Src/stm32l4xx_hal_smbus.c ****       /* Disable ERR interrupt */
2498:Drivers/STM32L4xx_HAL_Driver/Src/stm32l4xx_hal_smbus.c ****       tmpisr |= SMBUS_IT_ERRI;
 4347              		.loc 1 2498 14
 4348 0056 FB68     		ldr	r3, [r7, #12]
 4349 0058 43F08003 		orr	r3, r3, #128
 4350 005c FB60     		str	r3, [r7, #12]
 4351              	.L184:
2499:Drivers/STM32L4xx_HAL_Driver/Src/stm32l4xx_hal_smbus.c ****     }
2500:Drivers/STM32L4xx_HAL_Driver/Src/stm32l4xx_hal_smbus.c **** 
2501:Drivers/STM32L4xx_HAL_Driver/Src/stm32l4xx_hal_smbus.c ****     if ((tmpstate & HAL_SMBUS_STATE_LISTEN) != HAL_SMBUS_STATE_LISTEN)
 4352              		.loc 1 2501 19
 4353 005e BB68     		ldr	r3, [r7, #8]
 4354 0060 03F00803 		and	r3, r3, #8
 4355              		.loc 1 2501 8
ARM GAS  /tmp/ccysATpZ.s 			page 121


 4356 0064 002B     		cmp	r3, #0
 4357 0066 03D1     		bne	.L183
2502:Drivers/STM32L4xx_HAL_Driver/Src/stm32l4xx_hal_smbus.c ****     {
2503:Drivers/STM32L4xx_HAL_Driver/Src/stm32l4xx_hal_smbus.c ****       /* Disable STOP and NACK interrupt */
2504:Drivers/STM32L4xx_HAL_Driver/Src/stm32l4xx_hal_smbus.c ****       tmpisr |= SMBUS_IT_STOPI | SMBUS_IT_NACKI;
 4358              		.loc 1 2504 14
 4359 0068 FB68     		ldr	r3, [r7, #12]
 4360 006a 43F03003 		orr	r3, r3, #48
 4361 006e FB60     		str	r3, [r7, #12]
 4362              	.L183:
2505:Drivers/STM32L4xx_HAL_Driver/Src/stm32l4xx_hal_smbus.c ****     }
2506:Drivers/STM32L4xx_HAL_Driver/Src/stm32l4xx_hal_smbus.c ****   }
2507:Drivers/STM32L4xx_HAL_Driver/Src/stm32l4xx_hal_smbus.c **** 
2508:Drivers/STM32L4xx_HAL_Driver/Src/stm32l4xx_hal_smbus.c ****   if ((InterruptRequest & SMBUS_IT_RX) == SMBUS_IT_RX)
 4363              		.loc 1 2508 25
 4364 0070 3B68     		ldr	r3, [r7]
 4365 0072 03F0D403 		and	r3, r3, #212
 4366              		.loc 1 2508 6
 4367 0076 D42B     		cmp	r3, #212
 4368 0078 1CD1     		bne	.L185
2509:Drivers/STM32L4xx_HAL_Driver/Src/stm32l4xx_hal_smbus.c ****   {
2510:Drivers/STM32L4xx_HAL_Driver/Src/stm32l4xx_hal_smbus.c ****     /* Disable TC, STOP, NACK and RXI interrupt */
2511:Drivers/STM32L4xx_HAL_Driver/Src/stm32l4xx_hal_smbus.c ****     tmpisr |= SMBUS_IT_TCI | SMBUS_IT_RXI;
 4369              		.loc 1 2511 12
 4370 007a FB68     		ldr	r3, [r7, #12]
 4371 007c 43F04403 		orr	r3, r3, #68
 4372 0080 FB60     		str	r3, [r7, #12]
2512:Drivers/STM32L4xx_HAL_Driver/Src/stm32l4xx_hal_smbus.c **** 
2513:Drivers/STM32L4xx_HAL_Driver/Src/stm32l4xx_hal_smbus.c ****     if ((SMBUS_GET_ALERT_ENABLED(hsmbus) == 0UL)
 4373              		.loc 1 2513 10
 4374 0082 7B68     		ldr	r3, [r7, #4]
 4375 0084 1B68     		ldr	r3, [r3]
 4376 0086 1B68     		ldr	r3, [r3]
 4377 0088 03F48003 		and	r3, r3, #4194304
 4378              		.loc 1 2513 8
 4379 008c 002B     		cmp	r3, #0
 4380 008e 08D1     		bne	.L186
2514:Drivers/STM32L4xx_HAL_Driver/Src/stm32l4xx_hal_smbus.c ****         && ((tmpstate & HAL_SMBUS_STATE_LISTEN) != HAL_SMBUS_STATE_LISTEN))
 4381              		.loc 1 2514 23
 4382 0090 BB68     		ldr	r3, [r7, #8]
 4383 0092 03F00803 		and	r3, r3, #8
 4384              		.loc 1 2514 9
 4385 0096 002B     		cmp	r3, #0
 4386 0098 03D1     		bne	.L186
2515:Drivers/STM32L4xx_HAL_Driver/Src/stm32l4xx_hal_smbus.c ****     {
2516:Drivers/STM32L4xx_HAL_Driver/Src/stm32l4xx_hal_smbus.c ****       /* Disable ERR interrupt */
2517:Drivers/STM32L4xx_HAL_Driver/Src/stm32l4xx_hal_smbus.c ****       tmpisr |= SMBUS_IT_ERRI;
 4387              		.loc 1 2517 14
 4388 009a FB68     		ldr	r3, [r7, #12]
 4389 009c 43F08003 		orr	r3, r3, #128
 4390 00a0 FB60     		str	r3, [r7, #12]
 4391              	.L186:
2518:Drivers/STM32L4xx_HAL_Driver/Src/stm32l4xx_hal_smbus.c ****     }
2519:Drivers/STM32L4xx_HAL_Driver/Src/stm32l4xx_hal_smbus.c **** 
2520:Drivers/STM32L4xx_HAL_Driver/Src/stm32l4xx_hal_smbus.c ****     if ((tmpstate & HAL_SMBUS_STATE_LISTEN) != HAL_SMBUS_STATE_LISTEN)
 4392              		.loc 1 2520 19
 4393 00a2 BB68     		ldr	r3, [r7, #8]
ARM GAS  /tmp/ccysATpZ.s 			page 122


 4394 00a4 03F00803 		and	r3, r3, #8
 4395              		.loc 1 2520 8
 4396 00a8 002B     		cmp	r3, #0
 4397 00aa 03D1     		bne	.L185
2521:Drivers/STM32L4xx_HAL_Driver/Src/stm32l4xx_hal_smbus.c ****     {
2522:Drivers/STM32L4xx_HAL_Driver/Src/stm32l4xx_hal_smbus.c ****       /* Disable STOP and NACK interrupt */
2523:Drivers/STM32L4xx_HAL_Driver/Src/stm32l4xx_hal_smbus.c ****       tmpisr |= SMBUS_IT_STOPI | SMBUS_IT_NACKI;
 4398              		.loc 1 2523 14
 4399 00ac FB68     		ldr	r3, [r7, #12]
 4400 00ae 43F03003 		orr	r3, r3, #48
 4401 00b2 FB60     		str	r3, [r7, #12]
 4402              	.L185:
2524:Drivers/STM32L4xx_HAL_Driver/Src/stm32l4xx_hal_smbus.c ****     }
2525:Drivers/STM32L4xx_HAL_Driver/Src/stm32l4xx_hal_smbus.c ****   }
2526:Drivers/STM32L4xx_HAL_Driver/Src/stm32l4xx_hal_smbus.c **** 
2527:Drivers/STM32L4xx_HAL_Driver/Src/stm32l4xx_hal_smbus.c ****   if ((InterruptRequest & SMBUS_IT_ADDR) == SMBUS_IT_ADDR)
 4403              		.loc 1 2527 25
 4404 00b4 3B68     		ldr	r3, [r7]
 4405 00b6 03F03803 		and	r3, r3, #56
 4406              		.loc 1 2527 6
 4407 00ba 382B     		cmp	r3, #56
 4408 00bc 0ED1     		bne	.L187
2528:Drivers/STM32L4xx_HAL_Driver/Src/stm32l4xx_hal_smbus.c ****   {
2529:Drivers/STM32L4xx_HAL_Driver/Src/stm32l4xx_hal_smbus.c ****     /* Disable ADDR, STOP and NACK interrupt */
2530:Drivers/STM32L4xx_HAL_Driver/Src/stm32l4xx_hal_smbus.c ****     tmpisr |= SMBUS_IT_ADDRI | SMBUS_IT_STOPI | SMBUS_IT_NACKI;
 4409              		.loc 1 2530 12
 4410 00be FB68     		ldr	r3, [r7, #12]
 4411 00c0 43F03803 		orr	r3, r3, #56
 4412 00c4 FB60     		str	r3, [r7, #12]
2531:Drivers/STM32L4xx_HAL_Driver/Src/stm32l4xx_hal_smbus.c **** 
2532:Drivers/STM32L4xx_HAL_Driver/Src/stm32l4xx_hal_smbus.c ****     if (SMBUS_GET_ALERT_ENABLED(hsmbus) == 0UL)
 4413              		.loc 1 2532 9
 4414 00c6 7B68     		ldr	r3, [r7, #4]
 4415 00c8 1B68     		ldr	r3, [r3]
 4416 00ca 1B68     		ldr	r3, [r3]
 4417 00cc 03F48003 		and	r3, r3, #4194304
 4418              		.loc 1 2532 8
 4419 00d0 002B     		cmp	r3, #0
 4420 00d2 03D1     		bne	.L187
2533:Drivers/STM32L4xx_HAL_Driver/Src/stm32l4xx_hal_smbus.c ****     {
2534:Drivers/STM32L4xx_HAL_Driver/Src/stm32l4xx_hal_smbus.c ****       /* Disable ERR interrupt */
2535:Drivers/STM32L4xx_HAL_Driver/Src/stm32l4xx_hal_smbus.c ****       tmpisr |= SMBUS_IT_ERRI;
 4421              		.loc 1 2535 14
 4422 00d4 FB68     		ldr	r3, [r7, #12]
 4423 00d6 43F08003 		orr	r3, r3, #128
 4424 00da FB60     		str	r3, [r7, #12]
 4425              	.L187:
2536:Drivers/STM32L4xx_HAL_Driver/Src/stm32l4xx_hal_smbus.c ****     }
2537:Drivers/STM32L4xx_HAL_Driver/Src/stm32l4xx_hal_smbus.c ****   }
2538:Drivers/STM32L4xx_HAL_Driver/Src/stm32l4xx_hal_smbus.c **** 
2539:Drivers/STM32L4xx_HAL_Driver/Src/stm32l4xx_hal_smbus.c ****   /* Disable interrupts only at the end */
2540:Drivers/STM32L4xx_HAL_Driver/Src/stm32l4xx_hal_smbus.c ****   /* to avoid a breaking situation like at "t" time */
2541:Drivers/STM32L4xx_HAL_Driver/Src/stm32l4xx_hal_smbus.c ****   /* all disable interrupts request are not done */
2542:Drivers/STM32L4xx_HAL_Driver/Src/stm32l4xx_hal_smbus.c ****   __HAL_SMBUS_DISABLE_IT(hsmbus, tmpisr);
 4426              		.loc 1 2542 3
 4427 00dc 7B68     		ldr	r3, [r7, #4]
 4428 00de 1B68     		ldr	r3, [r3]
ARM GAS  /tmp/ccysATpZ.s 			page 123


 4429 00e0 1968     		ldr	r1, [r3]
 4430 00e2 FB68     		ldr	r3, [r7, #12]
 4431 00e4 DA43     		mvns	r2, r3
 4432 00e6 7B68     		ldr	r3, [r7, #4]
 4433 00e8 1B68     		ldr	r3, [r3]
 4434 00ea 0A40     		ands	r2, r2, r1
 4435 00ec 1A60     		str	r2, [r3]
2543:Drivers/STM32L4xx_HAL_Driver/Src/stm32l4xx_hal_smbus.c **** }
 4436              		.loc 1 2543 1
 4437 00ee 00BF     		nop
 4438 00f0 1437     		adds	r7, r7, #20
 4439              		.cfi_def_cfa_offset 4
 4440 00f2 BD46     		mov	sp, r7
 4441              		.cfi_def_cfa_register 13
 4442              		@ sp needed
 4443 00f4 5DF8047B 		ldr	r7, [sp], #4
 4444              		.cfi_restore 7
 4445              		.cfi_def_cfa_offset 0
 4446 00f8 7047     		bx	lr
 4447              		.cfi_endproc
 4448              	.LFE475:
 4450              		.section	.text.SMBUS_ITErrorHandler,"ax",%progbits
 4451              		.align	1
 4452              		.syntax unified
 4453              		.thumb
 4454              		.thumb_func
 4456              	SMBUS_ITErrorHandler:
 4457              	.LFB476:
2544:Drivers/STM32L4xx_HAL_Driver/Src/stm32l4xx_hal_smbus.c **** 
2545:Drivers/STM32L4xx_HAL_Driver/Src/stm32l4xx_hal_smbus.c **** /**
2546:Drivers/STM32L4xx_HAL_Driver/Src/stm32l4xx_hal_smbus.c ****   * @brief  SMBUS interrupts error handler.
2547:Drivers/STM32L4xx_HAL_Driver/Src/stm32l4xx_hal_smbus.c ****   * @param  hsmbus SMBUS handle.
2548:Drivers/STM32L4xx_HAL_Driver/Src/stm32l4xx_hal_smbus.c ****   * @retval None
2549:Drivers/STM32L4xx_HAL_Driver/Src/stm32l4xx_hal_smbus.c ****   */
2550:Drivers/STM32L4xx_HAL_Driver/Src/stm32l4xx_hal_smbus.c **** static void SMBUS_ITErrorHandler(SMBUS_HandleTypeDef *hsmbus)
2551:Drivers/STM32L4xx_HAL_Driver/Src/stm32l4xx_hal_smbus.c **** {
 4458              		.loc 1 2551 1
 4459              		.cfi_startproc
 4460              		@ args = 0, pretend = 0, frame = 24
 4461              		@ frame_needed = 1, uses_anonymous_args = 0
 4462 0000 80B5     		push	{r7, lr}
 4463              		.cfi_def_cfa_offset 8
 4464              		.cfi_offset 7, -8
 4465              		.cfi_offset 14, -4
 4466 0002 86B0     		sub	sp, sp, #24
 4467              		.cfi_def_cfa_offset 32
 4468 0004 00AF     		add	r7, sp, #0
 4469              		.cfi_def_cfa_register 7
 4470 0006 7860     		str	r0, [r7, #4]
2552:Drivers/STM32L4xx_HAL_Driver/Src/stm32l4xx_hal_smbus.c ****   uint32_t itflags   = READ_REG(hsmbus->Instance->ISR);
 4471              		.loc 1 2552 24
 4472 0008 7B68     		ldr	r3, [r7, #4]
 4473 000a 1B68     		ldr	r3, [r3]
 4474              		.loc 1 2552 12
 4475 000c 9B69     		ldr	r3, [r3, #24]
 4476 000e 7B61     		str	r3, [r7, #20]
2553:Drivers/STM32L4xx_HAL_Driver/Src/stm32l4xx_hal_smbus.c ****   uint32_t itsources = READ_REG(hsmbus->Instance->CR1);
ARM GAS  /tmp/ccysATpZ.s 			page 124


 4477              		.loc 1 2553 24
 4478 0010 7B68     		ldr	r3, [r7, #4]
 4479 0012 1B68     		ldr	r3, [r3]
 4480              		.loc 1 2553 12
 4481 0014 1B68     		ldr	r3, [r3]
 4482 0016 3B61     		str	r3, [r7, #16]
2554:Drivers/STM32L4xx_HAL_Driver/Src/stm32l4xx_hal_smbus.c ****   uint32_t tmpstate;
2555:Drivers/STM32L4xx_HAL_Driver/Src/stm32l4xx_hal_smbus.c ****   uint32_t tmperror;
2556:Drivers/STM32L4xx_HAL_Driver/Src/stm32l4xx_hal_smbus.c **** 
2557:Drivers/STM32L4xx_HAL_Driver/Src/stm32l4xx_hal_smbus.c ****   /* SMBUS Bus error interrupt occurred ------------------------------------*/
2558:Drivers/STM32L4xx_HAL_Driver/Src/stm32l4xx_hal_smbus.c ****   if (((itflags & SMBUS_FLAG_BERR) == SMBUS_FLAG_BERR) && \
 4483              		.loc 1 2558 17
 4484 0018 7B69     		ldr	r3, [r7, #20]
 4485 001a 03F48073 		and	r3, r3, #256
 4486              		.loc 1 2558 6
 4487 001e 002B     		cmp	r3, #0
 4488 0020 0FD0     		beq	.L189
2559:Drivers/STM32L4xx_HAL_Driver/Src/stm32l4xx_hal_smbus.c ****       ((itsources & SMBUS_IT_ERRI) == SMBUS_IT_ERRI))
 4489              		.loc 1 2559 19
 4490 0022 3B69     		ldr	r3, [r7, #16]
 4491 0024 03F08003 		and	r3, r3, #128
2558:Drivers/STM32L4xx_HAL_Driver/Src/stm32l4xx_hal_smbus.c ****       ((itsources & SMBUS_IT_ERRI) == SMBUS_IT_ERRI))
 4492              		.loc 1 2558 56 discriminator 1
 4493 0028 002B     		cmp	r3, #0
 4494 002a 0AD0     		beq	.L189
2560:Drivers/STM32L4xx_HAL_Driver/Src/stm32l4xx_hal_smbus.c ****   {
2561:Drivers/STM32L4xx_HAL_Driver/Src/stm32l4xx_hal_smbus.c ****     hsmbus->ErrorCode |= HAL_SMBUS_ERROR_BERR;
 4495              		.loc 1 2561 11
 4496 002c 7B68     		ldr	r3, [r7, #4]
 4497 002e DB6C     		ldr	r3, [r3, #76]
 4498              		.loc 1 2561 23
 4499 0030 43F00102 		orr	r2, r3, #1
 4500 0034 7B68     		ldr	r3, [r7, #4]
 4501 0036 DA64     		str	r2, [r3, #76]
2562:Drivers/STM32L4xx_HAL_Driver/Src/stm32l4xx_hal_smbus.c **** 
2563:Drivers/STM32L4xx_HAL_Driver/Src/stm32l4xx_hal_smbus.c ****     /* Clear BERR flag */
2564:Drivers/STM32L4xx_HAL_Driver/Src/stm32l4xx_hal_smbus.c ****     __HAL_SMBUS_CLEAR_FLAG(hsmbus, SMBUS_FLAG_BERR);
 4502              		.loc 1 2564 5
 4503 0038 7B68     		ldr	r3, [r7, #4]
 4504 003a 1B68     		ldr	r3, [r3]
 4505 003c 4FF48072 		mov	r2, #256
 4506 0040 DA61     		str	r2, [r3, #28]
 4507              	.L189:
2565:Drivers/STM32L4xx_HAL_Driver/Src/stm32l4xx_hal_smbus.c ****   }
2566:Drivers/STM32L4xx_HAL_Driver/Src/stm32l4xx_hal_smbus.c **** 
2567:Drivers/STM32L4xx_HAL_Driver/Src/stm32l4xx_hal_smbus.c ****   /* SMBUS Over-Run/Under-Run interrupt occurred ----------------------------------------*/
2568:Drivers/STM32L4xx_HAL_Driver/Src/stm32l4xx_hal_smbus.c ****   if (((itflags & SMBUS_FLAG_OVR) == SMBUS_FLAG_OVR) && \
 4508              		.loc 1 2568 17
 4509 0042 7B69     		ldr	r3, [r7, #20]
 4510 0044 03F48063 		and	r3, r3, #1024
 4511              		.loc 1 2568 6
 4512 0048 002B     		cmp	r3, #0
 4513 004a 0FD0     		beq	.L190
2569:Drivers/STM32L4xx_HAL_Driver/Src/stm32l4xx_hal_smbus.c ****       ((itsources & SMBUS_IT_ERRI) == SMBUS_IT_ERRI))
 4514              		.loc 1 2569 19
 4515 004c 3B69     		ldr	r3, [r7, #16]
 4516 004e 03F08003 		and	r3, r3, #128
ARM GAS  /tmp/ccysATpZ.s 			page 125


2568:Drivers/STM32L4xx_HAL_Driver/Src/stm32l4xx_hal_smbus.c ****       ((itsources & SMBUS_IT_ERRI) == SMBUS_IT_ERRI))
 4517              		.loc 1 2568 54 discriminator 1
 4518 0052 002B     		cmp	r3, #0
 4519 0054 0AD0     		beq	.L190
2570:Drivers/STM32L4xx_HAL_Driver/Src/stm32l4xx_hal_smbus.c ****   {
2571:Drivers/STM32L4xx_HAL_Driver/Src/stm32l4xx_hal_smbus.c ****     hsmbus->ErrorCode |= HAL_SMBUS_ERROR_OVR;
 4520              		.loc 1 2571 11
 4521 0056 7B68     		ldr	r3, [r7, #4]
 4522 0058 DB6C     		ldr	r3, [r3, #76]
 4523              		.loc 1 2571 23
 4524 005a 43F00802 		orr	r2, r3, #8
 4525 005e 7B68     		ldr	r3, [r7, #4]
 4526 0060 DA64     		str	r2, [r3, #76]
2572:Drivers/STM32L4xx_HAL_Driver/Src/stm32l4xx_hal_smbus.c **** 
2573:Drivers/STM32L4xx_HAL_Driver/Src/stm32l4xx_hal_smbus.c ****     /* Clear OVR flag */
2574:Drivers/STM32L4xx_HAL_Driver/Src/stm32l4xx_hal_smbus.c ****     __HAL_SMBUS_CLEAR_FLAG(hsmbus, SMBUS_FLAG_OVR);
 4527              		.loc 1 2574 5
 4528 0062 7B68     		ldr	r3, [r7, #4]
 4529 0064 1B68     		ldr	r3, [r3]
 4530 0066 4FF48062 		mov	r2, #1024
 4531 006a DA61     		str	r2, [r3, #28]
 4532              	.L190:
2575:Drivers/STM32L4xx_HAL_Driver/Src/stm32l4xx_hal_smbus.c ****   }
2576:Drivers/STM32L4xx_HAL_Driver/Src/stm32l4xx_hal_smbus.c **** 
2577:Drivers/STM32L4xx_HAL_Driver/Src/stm32l4xx_hal_smbus.c ****   /* SMBUS Arbitration Loss error interrupt occurred ------------------------------------*/
2578:Drivers/STM32L4xx_HAL_Driver/Src/stm32l4xx_hal_smbus.c ****   if (((itflags & SMBUS_FLAG_ARLO) == SMBUS_FLAG_ARLO) && \
 4533              		.loc 1 2578 17
 4534 006c 7B69     		ldr	r3, [r7, #20]
 4535 006e 03F40073 		and	r3, r3, #512
 4536              		.loc 1 2578 6
 4537 0072 002B     		cmp	r3, #0
 4538 0074 0FD0     		beq	.L191
2579:Drivers/STM32L4xx_HAL_Driver/Src/stm32l4xx_hal_smbus.c ****       ((itsources & SMBUS_IT_ERRI) == SMBUS_IT_ERRI))
 4539              		.loc 1 2579 19
 4540 0076 3B69     		ldr	r3, [r7, #16]
 4541 0078 03F08003 		and	r3, r3, #128
2578:Drivers/STM32L4xx_HAL_Driver/Src/stm32l4xx_hal_smbus.c ****       ((itsources & SMBUS_IT_ERRI) == SMBUS_IT_ERRI))
 4542              		.loc 1 2578 56 discriminator 1
 4543 007c 002B     		cmp	r3, #0
 4544 007e 0AD0     		beq	.L191
2580:Drivers/STM32L4xx_HAL_Driver/Src/stm32l4xx_hal_smbus.c ****   {
2581:Drivers/STM32L4xx_HAL_Driver/Src/stm32l4xx_hal_smbus.c ****     hsmbus->ErrorCode |= HAL_SMBUS_ERROR_ARLO;
 4545              		.loc 1 2581 11
 4546 0080 7B68     		ldr	r3, [r7, #4]
 4547 0082 DB6C     		ldr	r3, [r3, #76]
 4548              		.loc 1 2581 23
 4549 0084 43F00202 		orr	r2, r3, #2
 4550 0088 7B68     		ldr	r3, [r7, #4]
 4551 008a DA64     		str	r2, [r3, #76]
2582:Drivers/STM32L4xx_HAL_Driver/Src/stm32l4xx_hal_smbus.c **** 
2583:Drivers/STM32L4xx_HAL_Driver/Src/stm32l4xx_hal_smbus.c ****     /* Clear ARLO flag */
2584:Drivers/STM32L4xx_HAL_Driver/Src/stm32l4xx_hal_smbus.c ****     __HAL_SMBUS_CLEAR_FLAG(hsmbus, SMBUS_FLAG_ARLO);
 4552              		.loc 1 2584 5
 4553 008c 7B68     		ldr	r3, [r7, #4]
 4554 008e 1B68     		ldr	r3, [r3]
 4555 0090 4FF40072 		mov	r2, #512
 4556 0094 DA61     		str	r2, [r3, #28]
ARM GAS  /tmp/ccysATpZ.s 			page 126


 4557              	.L191:
2585:Drivers/STM32L4xx_HAL_Driver/Src/stm32l4xx_hal_smbus.c ****   }
2586:Drivers/STM32L4xx_HAL_Driver/Src/stm32l4xx_hal_smbus.c **** 
2587:Drivers/STM32L4xx_HAL_Driver/Src/stm32l4xx_hal_smbus.c ****   /* SMBUS Timeout error interrupt occurred ---------------------------------------------*/
2588:Drivers/STM32L4xx_HAL_Driver/Src/stm32l4xx_hal_smbus.c ****   if (((itflags & SMBUS_FLAG_TIMEOUT) == SMBUS_FLAG_TIMEOUT) && \
 4558              		.loc 1 2588 17
 4559 0096 7B69     		ldr	r3, [r7, #20]
 4560 0098 03F48053 		and	r3, r3, #4096
 4561              		.loc 1 2588 6
 4562 009c 002B     		cmp	r3, #0
 4563 009e 0FD0     		beq	.L192
2589:Drivers/STM32L4xx_HAL_Driver/Src/stm32l4xx_hal_smbus.c ****       ((itsources & SMBUS_IT_ERRI) == SMBUS_IT_ERRI))
 4564              		.loc 1 2589 19
 4565 00a0 3B69     		ldr	r3, [r7, #16]
 4566 00a2 03F08003 		and	r3, r3, #128
2588:Drivers/STM32L4xx_HAL_Driver/Src/stm32l4xx_hal_smbus.c ****       ((itsources & SMBUS_IT_ERRI) == SMBUS_IT_ERRI))
 4567              		.loc 1 2588 62 discriminator 1
 4568 00a6 002B     		cmp	r3, #0
 4569 00a8 0AD0     		beq	.L192
2590:Drivers/STM32L4xx_HAL_Driver/Src/stm32l4xx_hal_smbus.c ****   {
2591:Drivers/STM32L4xx_HAL_Driver/Src/stm32l4xx_hal_smbus.c ****     hsmbus->ErrorCode |= HAL_SMBUS_ERROR_BUSTIMEOUT;
 4570              		.loc 1 2591 11
 4571 00aa 7B68     		ldr	r3, [r7, #4]
 4572 00ac DB6C     		ldr	r3, [r3, #76]
 4573              		.loc 1 2591 23
 4574 00ae 43F02002 		orr	r2, r3, #32
 4575 00b2 7B68     		ldr	r3, [r7, #4]
 4576 00b4 DA64     		str	r2, [r3, #76]
2592:Drivers/STM32L4xx_HAL_Driver/Src/stm32l4xx_hal_smbus.c **** 
2593:Drivers/STM32L4xx_HAL_Driver/Src/stm32l4xx_hal_smbus.c ****     /* Clear TIMEOUT flag */
2594:Drivers/STM32L4xx_HAL_Driver/Src/stm32l4xx_hal_smbus.c ****     __HAL_SMBUS_CLEAR_FLAG(hsmbus, SMBUS_FLAG_TIMEOUT);
 4577              		.loc 1 2594 5
 4578 00b6 7B68     		ldr	r3, [r7, #4]
 4579 00b8 1B68     		ldr	r3, [r3]
 4580 00ba 4FF48052 		mov	r2, #4096
 4581 00be DA61     		str	r2, [r3, #28]
 4582              	.L192:
2595:Drivers/STM32L4xx_HAL_Driver/Src/stm32l4xx_hal_smbus.c ****   }
2596:Drivers/STM32L4xx_HAL_Driver/Src/stm32l4xx_hal_smbus.c **** 
2597:Drivers/STM32L4xx_HAL_Driver/Src/stm32l4xx_hal_smbus.c ****   /* SMBUS Alert error interrupt occurred -----------------------------------------------*/
2598:Drivers/STM32L4xx_HAL_Driver/Src/stm32l4xx_hal_smbus.c ****   if (((itflags & SMBUS_FLAG_ALERT) == SMBUS_FLAG_ALERT) && \
 4583              		.loc 1 2598 17
 4584 00c0 7B69     		ldr	r3, [r7, #20]
 4585 00c2 03F40053 		and	r3, r3, #8192
 4586              		.loc 1 2598 6
 4587 00c6 002B     		cmp	r3, #0
 4588 00c8 0FD0     		beq	.L193
2599:Drivers/STM32L4xx_HAL_Driver/Src/stm32l4xx_hal_smbus.c ****       ((itsources & SMBUS_IT_ERRI) == SMBUS_IT_ERRI))
 4589              		.loc 1 2599 19
 4590 00ca 3B69     		ldr	r3, [r7, #16]
 4591 00cc 03F08003 		and	r3, r3, #128
2598:Drivers/STM32L4xx_HAL_Driver/Src/stm32l4xx_hal_smbus.c ****       ((itsources & SMBUS_IT_ERRI) == SMBUS_IT_ERRI))
 4592              		.loc 1 2598 58 discriminator 1
 4593 00d0 002B     		cmp	r3, #0
 4594 00d2 0AD0     		beq	.L193
2600:Drivers/STM32L4xx_HAL_Driver/Src/stm32l4xx_hal_smbus.c ****   {
2601:Drivers/STM32L4xx_HAL_Driver/Src/stm32l4xx_hal_smbus.c ****     hsmbus->ErrorCode |= HAL_SMBUS_ERROR_ALERT;
ARM GAS  /tmp/ccysATpZ.s 			page 127


 4595              		.loc 1 2601 11
 4596 00d4 7B68     		ldr	r3, [r7, #4]
 4597 00d6 DB6C     		ldr	r3, [r3, #76]
 4598              		.loc 1 2601 23
 4599 00d8 43F04002 		orr	r2, r3, #64
 4600 00dc 7B68     		ldr	r3, [r7, #4]
 4601 00de DA64     		str	r2, [r3, #76]
2602:Drivers/STM32L4xx_HAL_Driver/Src/stm32l4xx_hal_smbus.c **** 
2603:Drivers/STM32L4xx_HAL_Driver/Src/stm32l4xx_hal_smbus.c ****     /* Clear ALERT flag */
2604:Drivers/STM32L4xx_HAL_Driver/Src/stm32l4xx_hal_smbus.c ****     __HAL_SMBUS_CLEAR_FLAG(hsmbus, SMBUS_FLAG_ALERT);
 4602              		.loc 1 2604 5
 4603 00e0 7B68     		ldr	r3, [r7, #4]
 4604 00e2 1B68     		ldr	r3, [r3]
 4605 00e4 4FF40052 		mov	r2, #8192
 4606 00e8 DA61     		str	r2, [r3, #28]
 4607              	.L193:
2605:Drivers/STM32L4xx_HAL_Driver/Src/stm32l4xx_hal_smbus.c ****   }
2606:Drivers/STM32L4xx_HAL_Driver/Src/stm32l4xx_hal_smbus.c **** 
2607:Drivers/STM32L4xx_HAL_Driver/Src/stm32l4xx_hal_smbus.c ****   /* SMBUS Packet Error Check error interrupt occurred ----------------------------------*/
2608:Drivers/STM32L4xx_HAL_Driver/Src/stm32l4xx_hal_smbus.c ****   if (((itflags & SMBUS_FLAG_PECERR) == SMBUS_FLAG_PECERR) && \
 4608              		.loc 1 2608 17
 4609 00ea 7B69     		ldr	r3, [r7, #20]
 4610 00ec 03F40063 		and	r3, r3, #2048
 4611              		.loc 1 2608 6
 4612 00f0 002B     		cmp	r3, #0
 4613 00f2 0FD0     		beq	.L194
2609:Drivers/STM32L4xx_HAL_Driver/Src/stm32l4xx_hal_smbus.c ****       ((itsources & SMBUS_IT_ERRI) == SMBUS_IT_ERRI))
 4614              		.loc 1 2609 19
 4615 00f4 3B69     		ldr	r3, [r7, #16]
 4616 00f6 03F08003 		and	r3, r3, #128
2608:Drivers/STM32L4xx_HAL_Driver/Src/stm32l4xx_hal_smbus.c ****       ((itsources & SMBUS_IT_ERRI) == SMBUS_IT_ERRI))
 4617              		.loc 1 2608 60 discriminator 1
 4618 00fa 002B     		cmp	r3, #0
 4619 00fc 0AD0     		beq	.L194
2610:Drivers/STM32L4xx_HAL_Driver/Src/stm32l4xx_hal_smbus.c ****   {
2611:Drivers/STM32L4xx_HAL_Driver/Src/stm32l4xx_hal_smbus.c ****     hsmbus->ErrorCode |= HAL_SMBUS_ERROR_PECERR;
 4620              		.loc 1 2611 11
 4621 00fe 7B68     		ldr	r3, [r7, #4]
 4622 0100 DB6C     		ldr	r3, [r3, #76]
 4623              		.loc 1 2611 23
 4624 0102 43F08002 		orr	r2, r3, #128
 4625 0106 7B68     		ldr	r3, [r7, #4]
 4626 0108 DA64     		str	r2, [r3, #76]
2612:Drivers/STM32L4xx_HAL_Driver/Src/stm32l4xx_hal_smbus.c **** 
2613:Drivers/STM32L4xx_HAL_Driver/Src/stm32l4xx_hal_smbus.c ****     /* Clear PEC error flag */
2614:Drivers/STM32L4xx_HAL_Driver/Src/stm32l4xx_hal_smbus.c ****     __HAL_SMBUS_CLEAR_FLAG(hsmbus, SMBUS_FLAG_PECERR);
 4627              		.loc 1 2614 5
 4628 010a 7B68     		ldr	r3, [r7, #4]
 4629 010c 1B68     		ldr	r3, [r3]
 4630 010e 4FF40062 		mov	r2, #2048
 4631 0112 DA61     		str	r2, [r3, #28]
 4632              	.L194:
2615:Drivers/STM32L4xx_HAL_Driver/Src/stm32l4xx_hal_smbus.c ****   }
2616:Drivers/STM32L4xx_HAL_Driver/Src/stm32l4xx_hal_smbus.c **** 
2617:Drivers/STM32L4xx_HAL_Driver/Src/stm32l4xx_hal_smbus.c ****   if (hsmbus->ErrorCode != HAL_SMBUS_ERROR_NONE)
 4633              		.loc 1 2617 13
 4634 0114 7B68     		ldr	r3, [r7, #4]
ARM GAS  /tmp/ccysATpZ.s 			page 128


 4635 0116 DB6C     		ldr	r3, [r3, #76]
 4636              		.loc 1 2617 6
 4637 0118 002B     		cmp	r3, #0
 4638 011a 02D0     		beq	.L195
2618:Drivers/STM32L4xx_HAL_Driver/Src/stm32l4xx_hal_smbus.c ****   {
2619:Drivers/STM32L4xx_HAL_Driver/Src/stm32l4xx_hal_smbus.c ****     /* Flush TX register */
2620:Drivers/STM32L4xx_HAL_Driver/Src/stm32l4xx_hal_smbus.c ****     SMBUS_Flush_TXDR(hsmbus);
 4639              		.loc 1 2620 5
 4640 011c 7868     		ldr	r0, [r7, #4]
 4641 011e FFF7FEFF 		bl	SMBUS_Flush_TXDR
 4642              	.L195:
2621:Drivers/STM32L4xx_HAL_Driver/Src/stm32l4xx_hal_smbus.c ****   }
2622:Drivers/STM32L4xx_HAL_Driver/Src/stm32l4xx_hal_smbus.c **** 
2623:Drivers/STM32L4xx_HAL_Driver/Src/stm32l4xx_hal_smbus.c ****   /* Store current volatile hsmbus->ErrorCode, misra rule */
2624:Drivers/STM32L4xx_HAL_Driver/Src/stm32l4xx_hal_smbus.c ****   tmperror = hsmbus->ErrorCode;
 4643              		.loc 1 2624 12
 4644 0122 7B68     		ldr	r3, [r7, #4]
 4645 0124 DB6C     		ldr	r3, [r3, #76]
 4646 0126 FB60     		str	r3, [r7, #12]
2625:Drivers/STM32L4xx_HAL_Driver/Src/stm32l4xx_hal_smbus.c **** 
2626:Drivers/STM32L4xx_HAL_Driver/Src/stm32l4xx_hal_smbus.c ****   /* Call the Error Callback in case of Error detected */
2627:Drivers/STM32L4xx_HAL_Driver/Src/stm32l4xx_hal_smbus.c ****   if ((tmperror != HAL_SMBUS_ERROR_NONE) && (tmperror != HAL_SMBUS_ERROR_ACKF))
 4647              		.loc 1 2627 6
 4648 0128 FB68     		ldr	r3, [r7, #12]
 4649 012a 002B     		cmp	r3, #0
 4650 012c 1DD0     		beq	.L199
 4651              		.loc 1 2627 42 discriminator 1
 4652 012e FB68     		ldr	r3, [r7, #12]
 4653 0130 042B     		cmp	r3, #4
 4654 0132 1AD0     		beq	.L199
2628:Drivers/STM32L4xx_HAL_Driver/Src/stm32l4xx_hal_smbus.c ****   {
2629:Drivers/STM32L4xx_HAL_Driver/Src/stm32l4xx_hal_smbus.c ****     /* Do not Reset the HAL state in case of ALERT error */
2630:Drivers/STM32L4xx_HAL_Driver/Src/stm32l4xx_hal_smbus.c ****     if ((tmperror & HAL_SMBUS_ERROR_ALERT) != HAL_SMBUS_ERROR_ALERT)
 4655              		.loc 1 2630 19
 4656 0134 FB68     		ldr	r3, [r7, #12]
 4657 0136 03F04003 		and	r3, r3, #64
 4658              		.loc 1 2630 8
 4659 013a 002B     		cmp	r3, #0
 4660 013c 12D1     		bne	.L197
2631:Drivers/STM32L4xx_HAL_Driver/Src/stm32l4xx_hal_smbus.c ****     {
2632:Drivers/STM32L4xx_HAL_Driver/Src/stm32l4xx_hal_smbus.c ****       /* Store current volatile hsmbus->State, misra rule */
2633:Drivers/STM32L4xx_HAL_Driver/Src/stm32l4xx_hal_smbus.c ****       tmpstate = hsmbus->State;
 4661              		.loc 1 2633 16
 4662 013e 7B68     		ldr	r3, [r7, #4]
 4663 0140 9B6C     		ldr	r3, [r3, #72]
 4664 0142 BB60     		str	r3, [r7, #8]
2634:Drivers/STM32L4xx_HAL_Driver/Src/stm32l4xx_hal_smbus.c **** 
2635:Drivers/STM32L4xx_HAL_Driver/Src/stm32l4xx_hal_smbus.c ****       if (((tmpstate & HAL_SMBUS_STATE_SLAVE_BUSY_TX) == HAL_SMBUS_STATE_SLAVE_BUSY_TX)
 4665              		.loc 1 2635 22
 4666 0144 BB68     		ldr	r3, [r7, #8]
 4667 0146 03F03203 		and	r3, r3, #50
 4668              		.loc 1 2635 10
 4669 014a 322B     		cmp	r3, #50
 4670 014c 04D0     		beq	.L198
2636:Drivers/STM32L4xx_HAL_Driver/Src/stm32l4xx_hal_smbus.c ****           || ((tmpstate & HAL_SMBUS_STATE_SLAVE_BUSY_RX) == HAL_SMBUS_STATE_SLAVE_BUSY_RX))
 4671              		.loc 1 2636 25
 4672 014e BB68     		ldr	r3, [r7, #8]
ARM GAS  /tmp/ccysATpZ.s 			page 129


 4673 0150 03F04203 		and	r3, r3, #66
 4674              		.loc 1 2636 11
 4675 0154 422B     		cmp	r3, #66
 4676 0156 05D1     		bne	.L197
 4677              	.L198:
2637:Drivers/STM32L4xx_HAL_Driver/Src/stm32l4xx_hal_smbus.c ****       {
2638:Drivers/STM32L4xx_HAL_Driver/Src/stm32l4xx_hal_smbus.c ****         /* Reset only HAL_SMBUS_STATE_SLAVE_BUSY_XX */
2639:Drivers/STM32L4xx_HAL_Driver/Src/stm32l4xx_hal_smbus.c ****         /* keep HAL_SMBUS_STATE_LISTEN if set */
2640:Drivers/STM32L4xx_HAL_Driver/Src/stm32l4xx_hal_smbus.c ****         hsmbus->PreviousState = HAL_SMBUS_STATE_READY;
 4678              		.loc 1 2640 31
 4679 0158 7B68     		ldr	r3, [r7, #4]
 4680 015a 0122     		movs	r2, #1
 4681 015c 1A64     		str	r2, [r3, #64]
2641:Drivers/STM32L4xx_HAL_Driver/Src/stm32l4xx_hal_smbus.c ****         hsmbus->State = HAL_SMBUS_STATE_LISTEN;
 4682              		.loc 1 2641 23
 4683 015e 7B68     		ldr	r3, [r7, #4]
 4684 0160 0822     		movs	r2, #8
 4685 0162 9A64     		str	r2, [r3, #72]
 4686              	.L197:
2642:Drivers/STM32L4xx_HAL_Driver/Src/stm32l4xx_hal_smbus.c ****       }
2643:Drivers/STM32L4xx_HAL_Driver/Src/stm32l4xx_hal_smbus.c ****     }
2644:Drivers/STM32L4xx_HAL_Driver/Src/stm32l4xx_hal_smbus.c **** 
2645:Drivers/STM32L4xx_HAL_Driver/Src/stm32l4xx_hal_smbus.c ****     /* Call the Error callback to inform upper layer */
2646:Drivers/STM32L4xx_HAL_Driver/Src/stm32l4xx_hal_smbus.c **** #if (USE_HAL_SMBUS_REGISTER_CALLBACKS == 1)
2647:Drivers/STM32L4xx_HAL_Driver/Src/stm32l4xx_hal_smbus.c ****     hsmbus->ErrorCallback(hsmbus);
2648:Drivers/STM32L4xx_HAL_Driver/Src/stm32l4xx_hal_smbus.c **** #else
2649:Drivers/STM32L4xx_HAL_Driver/Src/stm32l4xx_hal_smbus.c ****     HAL_SMBUS_ErrorCallback(hsmbus);
 4687              		.loc 1 2649 5
 4688 0164 7868     		ldr	r0, [r7, #4]
 4689 0166 FFF7FEFF 		bl	HAL_SMBUS_ErrorCallback
 4690              	.L199:
2650:Drivers/STM32L4xx_HAL_Driver/Src/stm32l4xx_hal_smbus.c **** #endif /* USE_HAL_SMBUS_REGISTER_CALLBACKS */
2651:Drivers/STM32L4xx_HAL_Driver/Src/stm32l4xx_hal_smbus.c ****   }
2652:Drivers/STM32L4xx_HAL_Driver/Src/stm32l4xx_hal_smbus.c **** }
 4691              		.loc 1 2652 1
 4692 016a 00BF     		nop
 4693 016c 1837     		adds	r7, r7, #24
 4694              		.cfi_def_cfa_offset 8
 4695 016e BD46     		mov	sp, r7
 4696              		.cfi_def_cfa_register 13
 4697              		@ sp needed
 4698 0170 80BD     		pop	{r7, pc}
 4699              		.cfi_endproc
 4700              	.LFE476:
 4702              		.section	.text.SMBUS_WaitOnFlagUntilTimeout,"ax",%progbits
 4703              		.align	1
 4704              		.syntax unified
 4705              		.thumb
 4706              		.thumb_func
 4708              	SMBUS_WaitOnFlagUntilTimeout:
 4709              	.LFB477:
2653:Drivers/STM32L4xx_HAL_Driver/Src/stm32l4xx_hal_smbus.c **** 
2654:Drivers/STM32L4xx_HAL_Driver/Src/stm32l4xx_hal_smbus.c **** /**
2655:Drivers/STM32L4xx_HAL_Driver/Src/stm32l4xx_hal_smbus.c ****   * @brief  Handle SMBUS Communication Timeout.
2656:Drivers/STM32L4xx_HAL_Driver/Src/stm32l4xx_hal_smbus.c ****   * @param  hsmbus Pointer to a SMBUS_HandleTypeDef structure that contains
2657:Drivers/STM32L4xx_HAL_Driver/Src/stm32l4xx_hal_smbus.c ****   *                the configuration information for the specified SMBUS.
2658:Drivers/STM32L4xx_HAL_Driver/Src/stm32l4xx_hal_smbus.c ****   * @param  Flag Specifies the SMBUS flag to check.
ARM GAS  /tmp/ccysATpZ.s 			page 130


2659:Drivers/STM32L4xx_HAL_Driver/Src/stm32l4xx_hal_smbus.c ****   * @param  Status The new Flag status (SET or RESET).
2660:Drivers/STM32L4xx_HAL_Driver/Src/stm32l4xx_hal_smbus.c ****   * @param  Timeout Timeout duration
2661:Drivers/STM32L4xx_HAL_Driver/Src/stm32l4xx_hal_smbus.c ****   * @retval HAL status
2662:Drivers/STM32L4xx_HAL_Driver/Src/stm32l4xx_hal_smbus.c ****   */
2663:Drivers/STM32L4xx_HAL_Driver/Src/stm32l4xx_hal_smbus.c **** static HAL_StatusTypeDef SMBUS_WaitOnFlagUntilTimeout(SMBUS_HandleTypeDef *hsmbus, uint32_t Flag,
2664:Drivers/STM32L4xx_HAL_Driver/Src/stm32l4xx_hal_smbus.c ****                                                       FlagStatus Status, uint32_t Timeout)
2665:Drivers/STM32L4xx_HAL_Driver/Src/stm32l4xx_hal_smbus.c **** {
 4710              		.loc 1 2665 1
 4711              		.cfi_startproc
 4712              		@ args = 0, pretend = 0, frame = 24
 4713              		@ frame_needed = 1, uses_anonymous_args = 0
 4714 0000 80B5     		push	{r7, lr}
 4715              		.cfi_def_cfa_offset 8
 4716              		.cfi_offset 7, -8
 4717              		.cfi_offset 14, -4
 4718 0002 86B0     		sub	sp, sp, #24
 4719              		.cfi_def_cfa_offset 32
 4720 0004 00AF     		add	r7, sp, #0
 4721              		.cfi_def_cfa_register 7
 4722 0006 F860     		str	r0, [r7, #12]
 4723 0008 B960     		str	r1, [r7, #8]
 4724 000a 3B60     		str	r3, [r7]
 4725 000c 1346     		mov	r3, r2
 4726 000e FB71     		strb	r3, [r7, #7]
2666:Drivers/STM32L4xx_HAL_Driver/Src/stm32l4xx_hal_smbus.c ****   uint32_t tickstart = HAL_GetTick();
 4727              		.loc 1 2666 24
 4728 0010 FFF7FEFF 		bl	HAL_GetTick
 4729 0014 7861     		str	r0, [r7, #20]
2667:Drivers/STM32L4xx_HAL_Driver/Src/stm32l4xx_hal_smbus.c **** 
2668:Drivers/STM32L4xx_HAL_Driver/Src/stm32l4xx_hal_smbus.c ****   /* Wait until flag is set */
2669:Drivers/STM32L4xx_HAL_Driver/Src/stm32l4xx_hal_smbus.c ****   while ((FlagStatus)(__HAL_SMBUS_GET_FLAG(hsmbus, Flag)) == Status)
 4730              		.loc 1 2669 9
 4731 0016 21E0     		b	.L202
 4732              	.L205:
2670:Drivers/STM32L4xx_HAL_Driver/Src/stm32l4xx_hal_smbus.c ****   {
2671:Drivers/STM32L4xx_HAL_Driver/Src/stm32l4xx_hal_smbus.c ****     /* Check for the Timeout */
2672:Drivers/STM32L4xx_HAL_Driver/Src/stm32l4xx_hal_smbus.c ****     if (Timeout != HAL_MAX_DELAY)
 4733              		.loc 1 2672 8
 4734 0018 3B68     		ldr	r3, [r7]
 4735 001a B3F1FF3F 		cmp	r3, #-1
 4736 001e 1DD0     		beq	.L202
2673:Drivers/STM32L4xx_HAL_Driver/Src/stm32l4xx_hal_smbus.c ****     {
2674:Drivers/STM32L4xx_HAL_Driver/Src/stm32l4xx_hal_smbus.c ****       if (((HAL_GetTick() - tickstart) > Timeout) || (Timeout == 0UL))
 4737              		.loc 1 2674 13
 4738 0020 FFF7FEFF 		bl	HAL_GetTick
 4739 0024 0246     		mov	r2, r0
 4740              		.loc 1 2674 27 discriminator 1
 4741 0026 7B69     		ldr	r3, [r7, #20]
 4742 0028 D31A     		subs	r3, r2, r3
 4743              		.loc 1 2674 10 discriminator 1
 4744 002a 3A68     		ldr	r2, [r7]
 4745 002c 9A42     		cmp	r2, r3
 4746 002e 02D3     		bcc	.L203
 4747              		.loc 1 2674 51 discriminator 1
 4748 0030 3B68     		ldr	r3, [r7]
 4749 0032 002B     		cmp	r3, #0
 4750 0034 12D1     		bne	.L202
ARM GAS  /tmp/ccysATpZ.s 			page 131


 4751              	.L203:
2675:Drivers/STM32L4xx_HAL_Driver/Src/stm32l4xx_hal_smbus.c ****       {
2676:Drivers/STM32L4xx_HAL_Driver/Src/stm32l4xx_hal_smbus.c ****         hsmbus->PreviousState = hsmbus->State;
 4752              		.loc 1 2676 39
 4753 0036 FB68     		ldr	r3, [r7, #12]
 4754 0038 9A6C     		ldr	r2, [r3, #72]
 4755              		.loc 1 2676 31
 4756 003a FB68     		ldr	r3, [r7, #12]
 4757 003c 1A64     		str	r2, [r3, #64]
2677:Drivers/STM32L4xx_HAL_Driver/Src/stm32l4xx_hal_smbus.c ****         hsmbus->State = HAL_SMBUS_STATE_READY;
 4758              		.loc 1 2677 23
 4759 003e FB68     		ldr	r3, [r7, #12]
 4760 0040 0122     		movs	r2, #1
 4761 0042 9A64     		str	r2, [r3, #72]
2678:Drivers/STM32L4xx_HAL_Driver/Src/stm32l4xx_hal_smbus.c **** 
2679:Drivers/STM32L4xx_HAL_Driver/Src/stm32l4xx_hal_smbus.c ****         /* Update SMBUS error code */
2680:Drivers/STM32L4xx_HAL_Driver/Src/stm32l4xx_hal_smbus.c ****         hsmbus->ErrorCode |= HAL_SMBUS_ERROR_HALTIMEOUT;
 4762              		.loc 1 2680 15
 4763 0044 FB68     		ldr	r3, [r7, #12]
 4764 0046 DB6C     		ldr	r3, [r3, #76]
 4765              		.loc 1 2680 27
 4766 0048 43F01002 		orr	r2, r3, #16
 4767 004c FB68     		ldr	r3, [r7, #12]
 4768 004e DA64     		str	r2, [r3, #76]
2681:Drivers/STM32L4xx_HAL_Driver/Src/stm32l4xx_hal_smbus.c **** 
2682:Drivers/STM32L4xx_HAL_Driver/Src/stm32l4xx_hal_smbus.c ****         /* Process Unlocked */
2683:Drivers/STM32L4xx_HAL_Driver/Src/stm32l4xx_hal_smbus.c ****         __HAL_UNLOCK(hsmbus);
 4769              		.loc 1 2683 9
 4770 0050 FB68     		ldr	r3, [r7, #12]
 4771 0052 0022     		movs	r2, #0
 4772 0054 83F84420 		strb	r2, [r3, #68]
2684:Drivers/STM32L4xx_HAL_Driver/Src/stm32l4xx_hal_smbus.c **** 
2685:Drivers/STM32L4xx_HAL_Driver/Src/stm32l4xx_hal_smbus.c ****         return HAL_ERROR;
 4773              		.loc 1 2685 16
 4774 0058 0123     		movs	r3, #1
 4775 005a 11E0     		b	.L204
 4776              	.L202:
2669:Drivers/STM32L4xx_HAL_Driver/Src/stm32l4xx_hal_smbus.c ****   {
 4777              		.loc 1 2669 23
 4778 005c FB68     		ldr	r3, [r7, #12]
 4779 005e 1B68     		ldr	r3, [r3]
 4780 0060 9B69     		ldr	r3, [r3, #24]
2669:Drivers/STM32L4xx_HAL_Driver/Src/stm32l4xx_hal_smbus.c ****   {
 4781              		.loc 1 2669 10
 4782 0062 DA43     		mvns	r2, r3
 4783 0064 BB68     		ldr	r3, [r7, #8]
 4784 0066 1340     		ands	r3, r3, r2
 4785 0068 C3F31003 		ubfx	r3, r3, #0, #17
 4786 006c 002B     		cmp	r3, #0
 4787 006e 0CBF     		ite	eq
 4788 0070 0123     		moveq	r3, #1
 4789 0072 0023     		movne	r3, #0
 4790 0074 DBB2     		uxtb	r3, r3
 4791 0076 1A46     		mov	r2, r3
2669:Drivers/STM32L4xx_HAL_Driver/Src/stm32l4xx_hal_smbus.c ****   {
 4792              		.loc 1 2669 59
 4793 0078 FB79     		ldrb	r3, [r7, #7]	@ zero_extendqisi2
ARM GAS  /tmp/ccysATpZ.s 			page 132


 4794 007a 9A42     		cmp	r2, r3
 4795 007c CCD0     		beq	.L205
2686:Drivers/STM32L4xx_HAL_Driver/Src/stm32l4xx_hal_smbus.c ****       }
2687:Drivers/STM32L4xx_HAL_Driver/Src/stm32l4xx_hal_smbus.c ****     }
2688:Drivers/STM32L4xx_HAL_Driver/Src/stm32l4xx_hal_smbus.c ****   }
2689:Drivers/STM32L4xx_HAL_Driver/Src/stm32l4xx_hal_smbus.c **** 
2690:Drivers/STM32L4xx_HAL_Driver/Src/stm32l4xx_hal_smbus.c ****   return HAL_OK;
 4796              		.loc 1 2690 10
 4797 007e 0023     		movs	r3, #0
 4798              	.L204:
2691:Drivers/STM32L4xx_HAL_Driver/Src/stm32l4xx_hal_smbus.c **** }
 4799              		.loc 1 2691 1
 4800 0080 1846     		mov	r0, r3
 4801 0082 1837     		adds	r7, r7, #24
 4802              		.cfi_def_cfa_offset 8
 4803 0084 BD46     		mov	sp, r7
 4804              		.cfi_def_cfa_register 13
 4805              		@ sp needed
 4806 0086 80BD     		pop	{r7, pc}
 4807              		.cfi_endproc
 4808              	.LFE477:
 4810              		.section	.text.SMBUS_Flush_TXDR,"ax",%progbits
 4811              		.align	1
 4812              		.syntax unified
 4813              		.thumb
 4814              		.thumb_func
 4816              	SMBUS_Flush_TXDR:
 4817              	.LFB478:
2692:Drivers/STM32L4xx_HAL_Driver/Src/stm32l4xx_hal_smbus.c **** 
2693:Drivers/STM32L4xx_HAL_Driver/Src/stm32l4xx_hal_smbus.c **** /**
2694:Drivers/STM32L4xx_HAL_Driver/Src/stm32l4xx_hal_smbus.c ****   * @brief  SMBUS Tx data register flush process.
2695:Drivers/STM32L4xx_HAL_Driver/Src/stm32l4xx_hal_smbus.c ****   * @param  hsmbus SMBUS handle.
2696:Drivers/STM32L4xx_HAL_Driver/Src/stm32l4xx_hal_smbus.c ****   * @retval None
2697:Drivers/STM32L4xx_HAL_Driver/Src/stm32l4xx_hal_smbus.c ****   */
2698:Drivers/STM32L4xx_HAL_Driver/Src/stm32l4xx_hal_smbus.c **** static void SMBUS_Flush_TXDR(SMBUS_HandleTypeDef *hsmbus)
2699:Drivers/STM32L4xx_HAL_Driver/Src/stm32l4xx_hal_smbus.c **** {
 4818              		.loc 1 2699 1
 4819              		.cfi_startproc
 4820              		@ args = 0, pretend = 0, frame = 8
 4821              		@ frame_needed = 1, uses_anonymous_args = 0
 4822              		@ link register save eliminated.
 4823 0000 80B4     		push	{r7}
 4824              		.cfi_def_cfa_offset 4
 4825              		.cfi_offset 7, -4
 4826 0002 83B0     		sub	sp, sp, #12
 4827              		.cfi_def_cfa_offset 16
 4828 0004 00AF     		add	r7, sp, #0
 4829              		.cfi_def_cfa_register 7
 4830 0006 7860     		str	r0, [r7, #4]
2700:Drivers/STM32L4xx_HAL_Driver/Src/stm32l4xx_hal_smbus.c ****   /* If a pending TXIS flag is set */
2701:Drivers/STM32L4xx_HAL_Driver/Src/stm32l4xx_hal_smbus.c ****   /* Write a dummy data in TXDR to clear it */
2702:Drivers/STM32L4xx_HAL_Driver/Src/stm32l4xx_hal_smbus.c ****   if (__HAL_SMBUS_GET_FLAG(hsmbus, SMBUS_FLAG_TXIS) != RESET)
 4831              		.loc 1 2702 7
 4832 0008 7B68     		ldr	r3, [r7, #4]
 4833 000a 1B68     		ldr	r3, [r3]
 4834 000c 9B69     		ldr	r3, [r3, #24]
 4835 000e 03F00203 		and	r3, r3, #2
ARM GAS  /tmp/ccysATpZ.s 			page 133


 4836              		.loc 1 2702 6
 4837 0012 022B     		cmp	r3, #2
 4838 0014 03D1     		bne	.L207
2703:Drivers/STM32L4xx_HAL_Driver/Src/stm32l4xx_hal_smbus.c ****   {
2704:Drivers/STM32L4xx_HAL_Driver/Src/stm32l4xx_hal_smbus.c ****     hsmbus->Instance->TXDR = 0x00U;
 4839              		.loc 1 2704 11
 4840 0016 7B68     		ldr	r3, [r7, #4]
 4841 0018 1B68     		ldr	r3, [r3]
 4842              		.loc 1 2704 28
 4843 001a 0022     		movs	r2, #0
 4844 001c 9A62     		str	r2, [r3, #40]
 4845              	.L207:
2705:Drivers/STM32L4xx_HAL_Driver/Src/stm32l4xx_hal_smbus.c ****   }
2706:Drivers/STM32L4xx_HAL_Driver/Src/stm32l4xx_hal_smbus.c **** 
2707:Drivers/STM32L4xx_HAL_Driver/Src/stm32l4xx_hal_smbus.c ****   /* Flush TX register if not empty */
2708:Drivers/STM32L4xx_HAL_Driver/Src/stm32l4xx_hal_smbus.c ****   if (__HAL_SMBUS_GET_FLAG(hsmbus, SMBUS_FLAG_TXE) == RESET)
 4846              		.loc 1 2708 7
 4847 001e 7B68     		ldr	r3, [r7, #4]
 4848 0020 1B68     		ldr	r3, [r3]
 4849 0022 9B69     		ldr	r3, [r3, #24]
 4850 0024 03F00103 		and	r3, r3, #1
 4851              		.loc 1 2708 6
 4852 0028 012B     		cmp	r3, #1
 4853 002a 07D0     		beq	.L209
2709:Drivers/STM32L4xx_HAL_Driver/Src/stm32l4xx_hal_smbus.c ****   {
2710:Drivers/STM32L4xx_HAL_Driver/Src/stm32l4xx_hal_smbus.c ****     __HAL_SMBUS_CLEAR_FLAG(hsmbus, SMBUS_FLAG_TXE);
 4854              		.loc 1 2710 5
 4855 002c 7B68     		ldr	r3, [r7, #4]
 4856 002e 1B68     		ldr	r3, [r3]
 4857 0030 9A69     		ldr	r2, [r3, #24]
 4858 0032 7B68     		ldr	r3, [r7, #4]
 4859 0034 1B68     		ldr	r3, [r3]
 4860 0036 42F00102 		orr	r2, r2, #1
 4861 003a 9A61     		str	r2, [r3, #24]
 4862              	.L209:
2711:Drivers/STM32L4xx_HAL_Driver/Src/stm32l4xx_hal_smbus.c ****   }
2712:Drivers/STM32L4xx_HAL_Driver/Src/stm32l4xx_hal_smbus.c **** }
 4863              		.loc 1 2712 1
 4864 003c 00BF     		nop
 4865 003e 0C37     		adds	r7, r7, #12
 4866              		.cfi_def_cfa_offset 4
 4867 0040 BD46     		mov	sp, r7
 4868              		.cfi_def_cfa_register 13
 4869              		@ sp needed
 4870 0042 5DF8047B 		ldr	r7, [sp], #4
 4871              		.cfi_restore 7
 4872              		.cfi_def_cfa_offset 0
 4873 0046 7047     		bx	lr
 4874              		.cfi_endproc
 4875              	.LFE478:
 4877              		.section	.text.SMBUS_TransferConfig,"ax",%progbits
 4878              		.align	1
 4879              		.syntax unified
 4880              		.thumb
 4881              		.thumb_func
 4883              	SMBUS_TransferConfig:
 4884              	.LFB479:
ARM GAS  /tmp/ccysATpZ.s 			page 134


2713:Drivers/STM32L4xx_HAL_Driver/Src/stm32l4xx_hal_smbus.c **** 
2714:Drivers/STM32L4xx_HAL_Driver/Src/stm32l4xx_hal_smbus.c **** /**
2715:Drivers/STM32L4xx_HAL_Driver/Src/stm32l4xx_hal_smbus.c ****   * @brief  Handle SMBUSx communication when starting transfer or during transfer (TC or TCR flag a
2716:Drivers/STM32L4xx_HAL_Driver/Src/stm32l4xx_hal_smbus.c ****   * @param  hsmbus SMBUS handle.
2717:Drivers/STM32L4xx_HAL_Driver/Src/stm32l4xx_hal_smbus.c ****   * @param  DevAddress specifies the slave address to be programmed.
2718:Drivers/STM32L4xx_HAL_Driver/Src/stm32l4xx_hal_smbus.c ****   * @param  Size specifies the number of bytes to be programmed.
2719:Drivers/STM32L4xx_HAL_Driver/Src/stm32l4xx_hal_smbus.c ****   *   This parameter must be a value between 0 and 255.
2720:Drivers/STM32L4xx_HAL_Driver/Src/stm32l4xx_hal_smbus.c ****   * @param  Mode New state of the SMBUS START condition generation.
2721:Drivers/STM32L4xx_HAL_Driver/Src/stm32l4xx_hal_smbus.c ****   *   This parameter can be one or a combination  of the following values:
2722:Drivers/STM32L4xx_HAL_Driver/Src/stm32l4xx_hal_smbus.c ****   *     @arg @ref SMBUS_RELOAD_MODE Enable Reload mode.
2723:Drivers/STM32L4xx_HAL_Driver/Src/stm32l4xx_hal_smbus.c ****   *     @arg @ref SMBUS_AUTOEND_MODE Enable Automatic end mode.
2724:Drivers/STM32L4xx_HAL_Driver/Src/stm32l4xx_hal_smbus.c ****   *     @arg @ref SMBUS_SOFTEND_MODE Enable Software end mode and Reload mode.
2725:Drivers/STM32L4xx_HAL_Driver/Src/stm32l4xx_hal_smbus.c ****   *     @arg @ref SMBUS_SENDPEC_MODE Enable Packet Error Calculation mode.
2726:Drivers/STM32L4xx_HAL_Driver/Src/stm32l4xx_hal_smbus.c ****   * @param  Request New state of the SMBUS START condition generation.
2727:Drivers/STM32L4xx_HAL_Driver/Src/stm32l4xx_hal_smbus.c ****   *   This parameter can be one of the following values:
2728:Drivers/STM32L4xx_HAL_Driver/Src/stm32l4xx_hal_smbus.c ****   *     @arg @ref SMBUS_NO_STARTSTOP Don't Generate stop and start condition.
2729:Drivers/STM32L4xx_HAL_Driver/Src/stm32l4xx_hal_smbus.c ****   *     @arg @ref SMBUS_GENERATE_STOP Generate stop condition (Size should be set to 0).
2730:Drivers/STM32L4xx_HAL_Driver/Src/stm32l4xx_hal_smbus.c ****   *     @arg @ref SMBUS_GENERATE_START_READ Generate Restart for read request.
2731:Drivers/STM32L4xx_HAL_Driver/Src/stm32l4xx_hal_smbus.c ****   *     @arg @ref SMBUS_GENERATE_START_WRITE Generate Restart for write request.
2732:Drivers/STM32L4xx_HAL_Driver/Src/stm32l4xx_hal_smbus.c ****   * @retval None
2733:Drivers/STM32L4xx_HAL_Driver/Src/stm32l4xx_hal_smbus.c ****   */
2734:Drivers/STM32L4xx_HAL_Driver/Src/stm32l4xx_hal_smbus.c **** static void SMBUS_TransferConfig(SMBUS_HandleTypeDef *hsmbus,  uint16_t DevAddress, uint8_t Size,
2735:Drivers/STM32L4xx_HAL_Driver/Src/stm32l4xx_hal_smbus.c ****                                  uint32_t Mode, uint32_t Request)
2736:Drivers/STM32L4xx_HAL_Driver/Src/stm32l4xx_hal_smbus.c **** {
 4885              		.loc 1 2736 1
 4886              		.cfi_startproc
 4887              		@ args = 4, pretend = 0, frame = 16
 4888              		@ frame_needed = 1, uses_anonymous_args = 0
 4889              		@ link register save eliminated.
 4890 0000 80B4     		push	{r7}
 4891              		.cfi_def_cfa_offset 4
 4892              		.cfi_offset 7, -4
 4893 0002 85B0     		sub	sp, sp, #20
 4894              		.cfi_def_cfa_offset 24
 4895 0004 00AF     		add	r7, sp, #0
 4896              		.cfi_def_cfa_register 7
 4897 0006 F860     		str	r0, [r7, #12]
 4898 0008 7B60     		str	r3, [r7, #4]
 4899 000a 0B46     		mov	r3, r1	@ movhi
 4900 000c 7B81     		strh	r3, [r7, #10]	@ movhi
 4901 000e 1346     		mov	r3, r2
 4902 0010 7B72     		strb	r3, [r7, #9]
2737:Drivers/STM32L4xx_HAL_Driver/Src/stm32l4xx_hal_smbus.c ****   /* Check the parameters */
2738:Drivers/STM32L4xx_HAL_Driver/Src/stm32l4xx_hal_smbus.c ****   assert_param(IS_SMBUS_ALL_INSTANCE(hsmbus->Instance));
2739:Drivers/STM32L4xx_HAL_Driver/Src/stm32l4xx_hal_smbus.c ****   assert_param(IS_SMBUS_TRANSFER_MODE(Mode));
2740:Drivers/STM32L4xx_HAL_Driver/Src/stm32l4xx_hal_smbus.c ****   assert_param(IS_SMBUS_TRANSFER_REQUEST(Request));
2741:Drivers/STM32L4xx_HAL_Driver/Src/stm32l4xx_hal_smbus.c **** 
2742:Drivers/STM32L4xx_HAL_Driver/Src/stm32l4xx_hal_smbus.c ****   /* update CR2 register */
2743:Drivers/STM32L4xx_HAL_Driver/Src/stm32l4xx_hal_smbus.c ****   MODIFY_REG(hsmbus->Instance->CR2,
 4903              		.loc 1 2743 3
 4904 0012 FB68     		ldr	r3, [r7, #12]
 4905 0014 1B68     		ldr	r3, [r3]
 4906 0016 5A68     		ldr	r2, [r3, #4]
 4907 0018 BB69     		ldr	r3, [r7, #24]
 4908 001a 5B0D     		lsrs	r3, r3, #21
 4909 001c 03F48061 		and	r1, r3, #1024
 4910 0020 0D4B     		ldr	r3, .L211
ARM GAS  /tmp/ccysATpZ.s 			page 135


 4911 0022 0B43     		orrs	r3, r3, r1
 4912 0024 DB43     		mvns	r3, r3
 4913 0026 02EA0301 		and	r1, r2, r3
 4914 002a 7B89     		ldrh	r3, [r7, #10]
 4915 002c C3F30902 		ubfx	r2, r3, #0, #10
 4916 0030 7B7A     		ldrb	r3, [r7, #9]	@ zero_extendqisi2
 4917 0032 1B04     		lsls	r3, r3, #16
 4918 0034 03F47F03 		and	r3, r3, #16711680
 4919 0038 1A43     		orrs	r2, r2, r3
 4920 003a 7B68     		ldr	r3, [r7, #4]
 4921 003c 1A43     		orrs	r2, r2, r3
 4922 003e BB69     		ldr	r3, [r7, #24]
 4923 0040 1A43     		orrs	r2, r2, r3
 4924 0042 FB68     		ldr	r3, [r7, #12]
 4925 0044 1B68     		ldr	r3, [r3]
 4926 0046 0A43     		orrs	r2, r2, r1
 4927 0048 5A60     		str	r2, [r3, #4]
2744:Drivers/STM32L4xx_HAL_Driver/Src/stm32l4xx_hal_smbus.c ****              ((I2C_CR2_SADD | I2C_CR2_NBYTES | I2C_CR2_RELOAD | I2C_CR2_AUTOEND | \
2745:Drivers/STM32L4xx_HAL_Driver/Src/stm32l4xx_hal_smbus.c ****                (I2C_CR2_RD_WRN & (uint32_t)(Request >> (31UL - I2C_CR2_RD_WRN_Pos))) | \
2746:Drivers/STM32L4xx_HAL_Driver/Src/stm32l4xx_hal_smbus.c ****                I2C_CR2_START | I2C_CR2_STOP | I2C_CR2_PECBYTE)), \
2747:Drivers/STM32L4xx_HAL_Driver/Src/stm32l4xx_hal_smbus.c ****              (uint32_t)(((uint32_t)DevAddress & I2C_CR2_SADD) | \
2748:Drivers/STM32L4xx_HAL_Driver/Src/stm32l4xx_hal_smbus.c ****                         (((uint32_t)Size << I2C_CR2_NBYTES_Pos) & I2C_CR2_NBYTES) | \
2749:Drivers/STM32L4xx_HAL_Driver/Src/stm32l4xx_hal_smbus.c ****                         (uint32_t)Mode | (uint32_t)Request));
2750:Drivers/STM32L4xx_HAL_Driver/Src/stm32l4xx_hal_smbus.c **** }
 4928              		.loc 1 2750 1
 4929 004a 00BF     		nop
 4930 004c 1437     		adds	r7, r7, #20
 4931              		.cfi_def_cfa_offset 4
 4932 004e BD46     		mov	sp, r7
 4933              		.cfi_def_cfa_register 13
 4934              		@ sp needed
 4935 0050 5DF8047B 		ldr	r7, [sp], #4
 4936              		.cfi_restore 7
 4937              		.cfi_def_cfa_offset 0
 4938 0054 7047     		bx	lr
 4939              	.L212:
 4940 0056 00BF     		.align	2
 4941              	.L211:
 4942 0058 FF63FF07 		.word	134177791
 4943              		.cfi_endproc
 4944              	.LFE479:
 4946              		.section	.text.SMBUS_ConvertOtherXferOptions,"ax",%progbits
 4947              		.align	1
 4948              		.syntax unified
 4949              		.thumb
 4950              		.thumb_func
 4952              	SMBUS_ConvertOtherXferOptions:
 4953              	.LFB480:
2751:Drivers/STM32L4xx_HAL_Driver/Src/stm32l4xx_hal_smbus.c **** 
2752:Drivers/STM32L4xx_HAL_Driver/Src/stm32l4xx_hal_smbus.c **** /**
2753:Drivers/STM32L4xx_HAL_Driver/Src/stm32l4xx_hal_smbus.c ****   * @brief  Convert SMBUSx OTHER_xxx XferOptions to functional XferOptions.
2754:Drivers/STM32L4xx_HAL_Driver/Src/stm32l4xx_hal_smbus.c ****   * @param  hsmbus SMBUS handle.
2755:Drivers/STM32L4xx_HAL_Driver/Src/stm32l4xx_hal_smbus.c ****   * @retval None
2756:Drivers/STM32L4xx_HAL_Driver/Src/stm32l4xx_hal_smbus.c ****   */
2757:Drivers/STM32L4xx_HAL_Driver/Src/stm32l4xx_hal_smbus.c **** static void SMBUS_ConvertOtherXferOptions(SMBUS_HandleTypeDef *hsmbus)
2758:Drivers/STM32L4xx_HAL_Driver/Src/stm32l4xx_hal_smbus.c **** {
 4954              		.loc 1 2758 1
ARM GAS  /tmp/ccysATpZ.s 			page 136


 4955              		.cfi_startproc
 4956              		@ args = 0, pretend = 0, frame = 8
 4957              		@ frame_needed = 1, uses_anonymous_args = 0
 4958              		@ link register save eliminated.
 4959 0000 80B4     		push	{r7}
 4960              		.cfi_def_cfa_offset 4
 4961              		.cfi_offset 7, -4
 4962 0002 83B0     		sub	sp, sp, #12
 4963              		.cfi_def_cfa_offset 16
 4964 0004 00AF     		add	r7, sp, #0
 4965              		.cfi_def_cfa_register 7
 4966 0006 7860     		str	r0, [r7, #4]
2759:Drivers/STM32L4xx_HAL_Driver/Src/stm32l4xx_hal_smbus.c ****   /* if user set XferOptions to SMBUS_OTHER_FRAME_NO_PEC   */
2760:Drivers/STM32L4xx_HAL_Driver/Src/stm32l4xx_hal_smbus.c ****   /* it request implicitly to generate a restart condition */
2761:Drivers/STM32L4xx_HAL_Driver/Src/stm32l4xx_hal_smbus.c ****   /* set XferOptions to SMBUS_FIRST_FRAME                  */
2762:Drivers/STM32L4xx_HAL_Driver/Src/stm32l4xx_hal_smbus.c ****   if (hsmbus->XferOptions == SMBUS_OTHER_FRAME_NO_PEC)
 4967              		.loc 1 2762 13
 4968 0008 7B68     		ldr	r3, [r7, #4]
 4969 000a DB6B     		ldr	r3, [r3, #60]
 4970              		.loc 1 2762 6
 4971 000c AA2B     		cmp	r3, #170
 4972 000e 03D1     		bne	.L214
2763:Drivers/STM32L4xx_HAL_Driver/Src/stm32l4xx_hal_smbus.c ****   {
2764:Drivers/STM32L4xx_HAL_Driver/Src/stm32l4xx_hal_smbus.c ****     hsmbus->XferOptions = SMBUS_FIRST_FRAME;
 4973              		.loc 1 2764 25
 4974 0010 7B68     		ldr	r3, [r7, #4]
 4975 0012 0022     		movs	r2, #0
 4976 0014 DA63     		str	r2, [r3, #60]
2765:Drivers/STM32L4xx_HAL_Driver/Src/stm32l4xx_hal_smbus.c ****   }
2766:Drivers/STM32L4xx_HAL_Driver/Src/stm32l4xx_hal_smbus.c ****   /* else if user set XferOptions to SMBUS_OTHER_FRAME_WITH_PEC */
2767:Drivers/STM32L4xx_HAL_Driver/Src/stm32l4xx_hal_smbus.c ****   /* it request implicitly to generate a restart condition      */
2768:Drivers/STM32L4xx_HAL_Driver/Src/stm32l4xx_hal_smbus.c ****   /* set XferOptions to SMBUS_FIRST_FRAME | SMBUS_SENDPEC_MODE  */
2769:Drivers/STM32L4xx_HAL_Driver/Src/stm32l4xx_hal_smbus.c ****   else if (hsmbus->XferOptions == SMBUS_OTHER_FRAME_WITH_PEC)
2770:Drivers/STM32L4xx_HAL_Driver/Src/stm32l4xx_hal_smbus.c ****   {
2771:Drivers/STM32L4xx_HAL_Driver/Src/stm32l4xx_hal_smbus.c ****     hsmbus->XferOptions = SMBUS_FIRST_FRAME | SMBUS_SENDPEC_MODE;
2772:Drivers/STM32L4xx_HAL_Driver/Src/stm32l4xx_hal_smbus.c ****   }
2773:Drivers/STM32L4xx_HAL_Driver/Src/stm32l4xx_hal_smbus.c ****   /* else if user set XferOptions to SMBUS_OTHER_AND_LAST_FRAME_NO_PEC */
2774:Drivers/STM32L4xx_HAL_Driver/Src/stm32l4xx_hal_smbus.c ****   /* it request implicitly to generate a restart condition             */
2775:Drivers/STM32L4xx_HAL_Driver/Src/stm32l4xx_hal_smbus.c ****   /* then generate a stop condition at the end of transfer             */
2776:Drivers/STM32L4xx_HAL_Driver/Src/stm32l4xx_hal_smbus.c ****   /* set XferOptions to SMBUS_FIRST_AND_LAST_FRAME_NO_PEC              */
2777:Drivers/STM32L4xx_HAL_Driver/Src/stm32l4xx_hal_smbus.c ****   else if (hsmbus->XferOptions == SMBUS_OTHER_AND_LAST_FRAME_NO_PEC)
2778:Drivers/STM32L4xx_HAL_Driver/Src/stm32l4xx_hal_smbus.c ****   {
2779:Drivers/STM32L4xx_HAL_Driver/Src/stm32l4xx_hal_smbus.c ****     hsmbus->XferOptions = SMBUS_FIRST_AND_LAST_FRAME_NO_PEC;
2780:Drivers/STM32L4xx_HAL_Driver/Src/stm32l4xx_hal_smbus.c ****   }
2781:Drivers/STM32L4xx_HAL_Driver/Src/stm32l4xx_hal_smbus.c ****   /* else if user set XferOptions to SMBUS_OTHER_AND_LAST_FRAME_WITH_PEC */
2782:Drivers/STM32L4xx_HAL_Driver/Src/stm32l4xx_hal_smbus.c ****   /* it request implicitly to generate a restart condition               */
2783:Drivers/STM32L4xx_HAL_Driver/Src/stm32l4xx_hal_smbus.c ****   /* then generate a stop condition at the end of transfer               */
2784:Drivers/STM32L4xx_HAL_Driver/Src/stm32l4xx_hal_smbus.c ****   /* set XferOptions to SMBUS_FIRST_AND_LAST_FRAME_WITH_PEC              */
2785:Drivers/STM32L4xx_HAL_Driver/Src/stm32l4xx_hal_smbus.c ****   else if (hsmbus->XferOptions == SMBUS_OTHER_AND_LAST_FRAME_WITH_PEC)
2786:Drivers/STM32L4xx_HAL_Driver/Src/stm32l4xx_hal_smbus.c ****   {
2787:Drivers/STM32L4xx_HAL_Driver/Src/stm32l4xx_hal_smbus.c ****     hsmbus->XferOptions = SMBUS_FIRST_AND_LAST_FRAME_WITH_PEC;
2788:Drivers/STM32L4xx_HAL_Driver/Src/stm32l4xx_hal_smbus.c ****   }
2789:Drivers/STM32L4xx_HAL_Driver/Src/stm32l4xx_hal_smbus.c ****   else
2790:Drivers/STM32L4xx_HAL_Driver/Src/stm32l4xx_hal_smbus.c ****   {
2791:Drivers/STM32L4xx_HAL_Driver/Src/stm32l4xx_hal_smbus.c ****     /* Nothing to do */
2792:Drivers/STM32L4xx_HAL_Driver/Src/stm32l4xx_hal_smbus.c ****   }
2793:Drivers/STM32L4xx_HAL_Driver/Src/stm32l4xx_hal_smbus.c **** }
ARM GAS  /tmp/ccysATpZ.s 			page 137


 4977              		.loc 1 2793 1
 4978 0016 1CE0     		b	.L218
 4979              	.L214:
2769:Drivers/STM32L4xx_HAL_Driver/Src/stm32l4xx_hal_smbus.c ****   {
 4980              		.loc 1 2769 18
 4981 0018 7B68     		ldr	r3, [r7, #4]
 4982 001a DB6B     		ldr	r3, [r3, #60]
2769:Drivers/STM32L4xx_HAL_Driver/Src/stm32l4xx_hal_smbus.c ****   {
 4983              		.loc 1 2769 11
 4984 001c B3F52A4F 		cmp	r3, #43520
 4985 0020 04D1     		bne	.L216
2771:Drivers/STM32L4xx_HAL_Driver/Src/stm32l4xx_hal_smbus.c ****   }
 4986              		.loc 1 2771 25
 4987 0022 7B68     		ldr	r3, [r7, #4]
 4988 0024 4FF08062 		mov	r2, #67108864
 4989 0028 DA63     		str	r2, [r3, #60]
 4990              		.loc 1 2793 1
 4991 002a 12E0     		b	.L218
 4992              	.L216:
2777:Drivers/STM32L4xx_HAL_Driver/Src/stm32l4xx_hal_smbus.c ****   {
 4993              		.loc 1 2777 18
 4994 002c 7B68     		ldr	r3, [r7, #4]
 4995 002e DB6B     		ldr	r3, [r3, #60]
2777:Drivers/STM32L4xx_HAL_Driver/Src/stm32l4xx_hal_smbus.c ****   {
 4996              		.loc 1 2777 11
 4997 0030 B3F52A0F 		cmp	r3, #11141120
 4998 0034 04D1     		bne	.L217
2779:Drivers/STM32L4xx_HAL_Driver/Src/stm32l4xx_hal_smbus.c ****   }
 4999              		.loc 1 2779 25
 5000 0036 7B68     		ldr	r3, [r7, #4]
 5001 0038 4FF00072 		mov	r2, #33554432
 5002 003c DA63     		str	r2, [r3, #60]
 5003              		.loc 1 2793 1
 5004 003e 08E0     		b	.L218
 5005              	.L217:
2785:Drivers/STM32L4xx_HAL_Driver/Src/stm32l4xx_hal_smbus.c ****   {
 5006              		.loc 1 2785 18
 5007 0040 7B68     		ldr	r3, [r7, #4]
 5008 0042 DB6B     		ldr	r3, [r3, #60]
2785:Drivers/STM32L4xx_HAL_Driver/Src/stm32l4xx_hal_smbus.c ****   {
 5009              		.loc 1 2785 11
 5010 0044 B3F12A4F 		cmp	r3, #-1442840576
 5011 0048 03D1     		bne	.L218
2787:Drivers/STM32L4xx_HAL_Driver/Src/stm32l4xx_hal_smbus.c ****   }
 5012              		.loc 1 2787 25
 5013 004a 7B68     		ldr	r3, [r7, #4]
 5014 004c 4FF0C062 		mov	r2, #100663296
 5015 0050 DA63     		str	r2, [r3, #60]
 5016              	.L218:
 5017              		.loc 1 2793 1
 5018 0052 00BF     		nop
 5019 0054 0C37     		adds	r7, r7, #12
 5020              		.cfi_def_cfa_offset 4
 5021 0056 BD46     		mov	sp, r7
 5022              		.cfi_def_cfa_register 13
 5023              		@ sp needed
 5024 0058 5DF8047B 		ldr	r7, [sp], #4
ARM GAS  /tmp/ccysATpZ.s 			page 138


 5025              		.cfi_restore 7
 5026              		.cfi_def_cfa_offset 0
 5027 005c 7047     		bx	lr
 5028              		.cfi_endproc
 5029              	.LFE480:
 5031              		.text
 5032              	.Letext0:
 5033              		.file 2 "/usr/lib/gcc/arm-none-eabi/13.2.1/include/stdint.h"
 5034              		.file 3 "Drivers/CMSIS/Device/ST/STM32L4xx/Include/stm32l475xx.h"
 5035              		.file 4 "Drivers/CMSIS/Device/ST/STM32L4xx/Include/stm32l4xx.h"
 5036              		.file 5 "Drivers/STM32L4xx_HAL_Driver/Inc/stm32l4xx_hal_def.h"
 5037              		.file 6 "Drivers/STM32L4xx_HAL_Driver/Inc/stm32l4xx_hal_smbus.h"
 5038              		.file 7 "Drivers/STM32L4xx_HAL_Driver/Inc/stm32l4xx_ll_dma.h"
 5039              		.file 8 "Drivers/STM32L4xx_HAL_Driver/Inc/stm32l4xx_hal.h"
ARM GAS  /tmp/ccysATpZ.s 			page 139


DEFINED SYMBOLS
                            *ABS*:00000000 stm32l4xx_hal_smbus.c
     /tmp/ccysATpZ.s:21     .rodata.CHANNEL_OFFSET_TAB:00000000 $d
     /tmp/ccysATpZ.s:24     .rodata.CHANNEL_OFFSET_TAB:00000000 CHANNEL_OFFSET_TAB
     /tmp/ccysATpZ.s:27     .text.HAL_SMBUS_Init:00000000 $t
     /tmp/ccysATpZ.s:33     .text.HAL_SMBUS_Init:00000000 HAL_SMBUS_Init
     /tmp/ccysATpZ.s:388    .text.HAL_SMBUS_MspInit:00000000 HAL_SMBUS_MspInit
     /tmp/ccysATpZ.s:307    .text.HAL_SMBUS_DeInit:00000000 $t
     /tmp/ccysATpZ.s:313    .text.HAL_SMBUS_DeInit:00000000 HAL_SMBUS_DeInit
     /tmp/ccysATpZ.s:424    .text.HAL_SMBUS_MspDeInit:00000000 HAL_SMBUS_MspDeInit
     /tmp/ccysATpZ.s:382    .text.HAL_SMBUS_MspInit:00000000 $t
     /tmp/ccysATpZ.s:418    .text.HAL_SMBUS_MspDeInit:00000000 $t
     /tmp/ccysATpZ.s:454    .text.HAL_SMBUS_ConfigAnalogFilter:00000000 $t
     /tmp/ccysATpZ.s:460    .text.HAL_SMBUS_ConfigAnalogFilter:00000000 HAL_SMBUS_ConfigAnalogFilter
     /tmp/ccysATpZ.s:569    .text.HAL_SMBUS_ConfigDigitalFilter:00000000 $t
     /tmp/ccysATpZ.s:575    .text.HAL_SMBUS_ConfigDigitalFilter:00000000 HAL_SMBUS_ConfigDigitalFilter
     /tmp/ccysATpZ.s:684    .text.HAL_SMBUS_Master_Transmit_IT:00000000 $t
     /tmp/ccysATpZ.s:690    .text.HAL_SMBUS_Master_Transmit_IT:00000000 HAL_SMBUS_Master_Transmit_IT
     /tmp/ccysATpZ.s:4883   .text.SMBUS_TransferConfig:00000000 SMBUS_TransferConfig
     /tmp/ccysATpZ.s:4952   .text.SMBUS_ConvertOtherXferOptions:00000000 SMBUS_ConvertOtherXferOptions
     /tmp/ccysATpZ.s:4193   .text.SMBUS_Enable_IRQ:00000000 SMBUS_Enable_IRQ
     /tmp/ccysATpZ.s:1013   .text.HAL_SMBUS_Master_Transmit_IT:000001d0 $d
     /tmp/ccysATpZ.s:1018   .text.HAL_SMBUS_Master_Receive_IT:00000000 $t
     /tmp/ccysATpZ.s:1024   .text.HAL_SMBUS_Master_Receive_IT:00000000 HAL_SMBUS_Master_Receive_IT
     /tmp/ccysATpZ.s:1247   .text.HAL_SMBUS_Master_Receive_IT:00000138 $d
     /tmp/ccysATpZ.s:1252   .text.HAL_SMBUS_Master_Abort_IT:00000000 $t
     /tmp/ccysATpZ.s:1258   .text.HAL_SMBUS_Master_Abort_IT:00000000 HAL_SMBUS_Master_Abort_IT
     /tmp/ccysATpZ.s:1381   .text.HAL_SMBUS_Slave_Transmit_IT:00000000 $t
     /tmp/ccysATpZ.s:1387   .text.HAL_SMBUS_Slave_Transmit_IT:00000000 HAL_SMBUS_Slave_Transmit_IT
     /tmp/ccysATpZ.s:4285   .text.SMBUS_Disable_IRQ:00000000 SMBUS_Disable_IRQ
     /tmp/ccysATpZ.s:1616   .text.HAL_SMBUS_Slave_Receive_IT:00000000 $t
     /tmp/ccysATpZ.s:1622   .text.HAL_SMBUS_Slave_Receive_IT:00000000 HAL_SMBUS_Slave_Receive_IT
     /tmp/ccysATpZ.s:1815   .text.HAL_SMBUS_EnableListen_IT:00000000 $t
     /tmp/ccysATpZ.s:1821   .text.HAL_SMBUS_EnableListen_IT:00000000 HAL_SMBUS_EnableListen_IT
     /tmp/ccysATpZ.s:1858   .text.HAL_SMBUS_DisableListen_IT:00000000 $t
     /tmp/ccysATpZ.s:1864   .text.HAL_SMBUS_DisableListen_IT:00000000 HAL_SMBUS_DisableListen_IT
     /tmp/ccysATpZ.s:1912   .text.HAL_SMBUS_EnableAlert_IT:00000000 $t
     /tmp/ccysATpZ.s:1918   .text.HAL_SMBUS_EnableAlert_IT:00000000 HAL_SMBUS_EnableAlert_IT
     /tmp/ccysATpZ.s:1967   .text.HAL_SMBUS_DisableAlert_IT:00000000 $t
     /tmp/ccysATpZ.s:1973   .text.HAL_SMBUS_DisableAlert_IT:00000000 HAL_SMBUS_DisableAlert_IT
     /tmp/ccysATpZ.s:2017   .text.HAL_SMBUS_IsDeviceReady:00000000 $t
     /tmp/ccysATpZ.s:2023   .text.HAL_SMBUS_IsDeviceReady:00000000 HAL_SMBUS_IsDeviceReady
     /tmp/ccysATpZ.s:4708   .text.SMBUS_WaitOnFlagUntilTimeout:00000000 SMBUS_WaitOnFlagUntilTimeout
     /tmp/ccysATpZ.s:2320   .text.HAL_SMBUS_EV_IRQHandler:00000000 $t
     /tmp/ccysATpZ.s:2326   .text.HAL_SMBUS_EV_IRQHandler:00000000 HAL_SMBUS_EV_IRQHandler
     /tmp/ccysATpZ.s:3557   .text.SMBUS_Slave_ISR:00000000 SMBUS_Slave_ISR
     /tmp/ccysATpZ.s:2935   .text.SMBUS_Master_ISR:00000000 SMBUS_Master_ISR
     /tmp/ccysATpZ.s:2560   .text.HAL_SMBUS_ER_IRQHandler:00000000 $t
     /tmp/ccysATpZ.s:2566   .text.HAL_SMBUS_ER_IRQHandler:00000000 HAL_SMBUS_ER_IRQHandler
     /tmp/ccysATpZ.s:4456   .text.SMBUS_ITErrorHandler:00000000 SMBUS_ITErrorHandler
     /tmp/ccysATpZ.s:2596   .text.HAL_SMBUS_MasterTxCpltCallback:00000000 $t
     /tmp/ccysATpZ.s:2602   .text.HAL_SMBUS_MasterTxCpltCallback:00000000 HAL_SMBUS_MasterTxCpltCallback
     /tmp/ccysATpZ.s:2632   .text.HAL_SMBUS_MasterRxCpltCallback:00000000 $t
     /tmp/ccysATpZ.s:2638   .text.HAL_SMBUS_MasterRxCpltCallback:00000000 HAL_SMBUS_MasterRxCpltCallback
     /tmp/ccysATpZ.s:2668   .text.HAL_SMBUS_SlaveTxCpltCallback:00000000 $t
     /tmp/ccysATpZ.s:2674   .text.HAL_SMBUS_SlaveTxCpltCallback:00000000 HAL_SMBUS_SlaveTxCpltCallback
     /tmp/ccysATpZ.s:2704   .text.HAL_SMBUS_SlaveRxCpltCallback:00000000 $t
ARM GAS  /tmp/ccysATpZ.s 			page 140


     /tmp/ccysATpZ.s:2710   .text.HAL_SMBUS_SlaveRxCpltCallback:00000000 HAL_SMBUS_SlaveRxCpltCallback
     /tmp/ccysATpZ.s:2740   .text.HAL_SMBUS_AddrCallback:00000000 $t
     /tmp/ccysATpZ.s:2746   .text.HAL_SMBUS_AddrCallback:00000000 HAL_SMBUS_AddrCallback
     /tmp/ccysATpZ.s:2780   .text.HAL_SMBUS_ListenCpltCallback:00000000 $t
     /tmp/ccysATpZ.s:2786   .text.HAL_SMBUS_ListenCpltCallback:00000000 HAL_SMBUS_ListenCpltCallback
     /tmp/ccysATpZ.s:2816   .text.HAL_SMBUS_ErrorCallback:00000000 $t
     /tmp/ccysATpZ.s:2822   .text.HAL_SMBUS_ErrorCallback:00000000 HAL_SMBUS_ErrorCallback
     /tmp/ccysATpZ.s:2852   .text.HAL_SMBUS_GetState:00000000 $t
     /tmp/ccysATpZ.s:2858   .text.HAL_SMBUS_GetState:00000000 HAL_SMBUS_GetState
     /tmp/ccysATpZ.s:2891   .text.HAL_SMBUS_GetError:00000000 $t
     /tmp/ccysATpZ.s:2897   .text.HAL_SMBUS_GetError:00000000 HAL_SMBUS_GetError
     /tmp/ccysATpZ.s:2930   .text.SMBUS_Master_ISR:00000000 $t
     /tmp/ccysATpZ.s:4816   .text.SMBUS_Flush_TXDR:00000000 SMBUS_Flush_TXDR
     /tmp/ccysATpZ.s:3400   .text.SMBUS_Master_ISR:000002d0 $d
     /tmp/ccysATpZ.s:3403   .text.SMBUS_Master_ISR:000002d4 $t
     /tmp/ccysATpZ.s:3552   .text.SMBUS_Slave_ISR:00000000 $t
     /tmp/ccysATpZ.s:4183   .text.SMBUS_Slave_ISR:000003c0 $d
     /tmp/ccysATpZ.s:4188   .text.SMBUS_Enable_IRQ:00000000 $t
     /tmp/ccysATpZ.s:4280   .text.SMBUS_Disable_IRQ:00000000 $t
     /tmp/ccysATpZ.s:4451   .text.SMBUS_ITErrorHandler:00000000 $t
     /tmp/ccysATpZ.s:4703   .text.SMBUS_WaitOnFlagUntilTimeout:00000000 $t
     /tmp/ccysATpZ.s:4811   .text.SMBUS_Flush_TXDR:00000000 $t
     /tmp/ccysATpZ.s:4878   .text.SMBUS_TransferConfig:00000000 $t
     /tmp/ccysATpZ.s:4942   .text.SMBUS_TransferConfig:00000058 $d
     /tmp/ccysATpZ.s:4947   .text.SMBUS_ConvertOtherXferOptions:00000000 $t
                           .group:00000000 wm4.0.e7b64c2c371cf922f2c8028878d5c18e
                           .group:00000000 wm4.stm32l4xx_hal_conf.h.23.286c2f63aaa73ed97ffb4d26f7caa6e9
                           .group:00000000 wm4.stm32l4xx.h.38.9f5830373ca31b8a3cd182fdc6c7b69a
                           .group:00000000 wm4.stm32l475xx.h.34.2f1a75aed66751e299f09004aef64973
                           .group:00000000 wm4.stdint.h.29.6d480f4ba0f60596e88234283d42444f
                           .group:00000000 wm4.cmsis_version.h.32.46e8eccfa2cfeaae11d008bb2823a3ed
                           .group:00000000 wm4.core_cm4.h.66.e4ff136c4a17abc46741866f64f8e729
                           .group:00000000 wm4.cmsis_gcc.h.26.78077cef1206e937f7b56043ffca496a
                           .group:00000000 wm4.core_cm4.h.174.fcddd62df80231752fa39eb9b61dadfe
                           .group:00000000 wm4.mpu_armv7.h.32.4049752bb5792d4e15357775e9506cfc
                           .group:00000000 wm4.stm32l475xx.h.423.4d783859c9ac66890c9807dd7bd3a4db
                           .group:00000000 wm4.stm32l4xx.h.196.f5ae8047c57b6175c94f246ef967a286
                           .group:00000000 wm4.stm32_hal_legacy.h.22.08b8350ccf512ba8d98002fb33e7cbe5
                           .group:00000000 wm4.stddef.h.39.0dc9006b34572d4d9cae4c8b422c4971
                           .group:00000000 wm4.stm32l4xx_hal_def.h.58.1058a33f7217e935f2a6b51956d66a69
                           .group:00000000 wm4.stm32l4xx_hal_rcc.h.156.ab8eecc4e10f4827a2aa75d3549a356d
                           .group:00000000 wm4.stm32l4xx_hal_rcc_ex.h.20.4a82a27d561b6d42fa16a54f82e29067
                           .group:00000000 wm4.stm32l4xx_hal_gpio.h.21.2d2b1fd6aa6afa7b6dcc89cf752a9a25
                           .group:00000000 wm4.stm32l4xx_hal_gpio_ex.h.21.7ea705f5185dd3c6b8ea336f2858cd46
                           .group:00000000 wm4.stm32l4xx_ll_dma.h.21.b30e7f48d60d1fc53041ec1e3fd6e54a
                           .group:00000000 wm4.stm32l4xx_hal_dma.h.166.54a7f8d65cee6f051d541dc010387b5a
                           .group:00000000 wm4.stm32l4xx_hal_dfsdm.h.21.6785e38d00075079c7f2e5657def82ae
                           .group:00000000 wm4.stm32l4xx_hal_cortex.h.21.cb491126bd2d6f44e90b66f27acb8434
                           .group:00000000 wm4.stm32l4xx_ll_adc.h.21.0c578f71501c74365c67044efed214d6
                           .group:00000000 wm4.stm32l4xx_hal_adc.h.411.68f60682cdb20556089756a482f23764
                           .group:00000000 wm4.stm32l4xx_hal_adc_ex.h.21.7b82cb80166a21dfa8cb3e2fa8f8e654
                           .group:00000000 wm4.stm32l4xx_hal_can.h.21.5019586d8e7137c0cec16eb1f9d6677b
                           .group:00000000 wm4.stm32l4xx_ll_exti.h.21.d866eff070d6f999af2ce4ea60aa40ac
                           .group:00000000 wm4.stm32l4xx_hal_comp.h.87.7f14cb673a463359c83faa552328844d
                           .group:00000000 wm4.stm32l4xx_hal_crc.h.21.4c36a140cca35e6a8e478e76c6ad98e3
                           .group:00000000 wm4.stm32l4xx_hal_crc_ex.h.21.9cc3dead436542d416ee5572c231a242
                           .group:00000000 wm4.stm32l4xx_hal_dac.h.21.69feba704135531cf3d9b92de27b71d5
ARM GAS  /tmp/ccysATpZ.s 			page 141


                           .group:00000000 wm4.stm32l4xx_hal_dac_ex.h.21.c86699169bead5415cc3e94027b67df4
                           .group:00000000 wm4.stm32l4xx_hal_exti.h.21.242e0410874d91d6d7523948fff74125
                           .group:00000000 wm4.stm32l4xx_hal_firewall.h.21.7ed44f4228fcc2ef96d2177dd8632645
                           .group:00000000 wm4.stm32l4xx_hal_flash.h.20.5e337018ccfa211b4afe888a79aae9f5
                           .group:00000000 wm4.stm32l4xx_hal_flash.h.846.0445f6ea07a3f9aac82891c8687d96fb
                           .group:00000000 wm4.stm32l4xx_ll_usb.h.21.5b5e42fb72a33dd326d7b20064953946
                           .group:00000000 wm4.stm32l4xx_hal_hcd.h.107.73f2fd24f57e8822da5cc86bd5ad3dfd
                           .group:00000000 wm4.stm32l4xx_hal_i2c.h.21.e7fc2065051c77019a818818e4a637d8
                           .group:00000000 wm4.stm32l4xx_hal_i2c_ex.h.21.ad4ad4e558d4fec06df87d163a6927d7
                           .group:00000000 wm4.stm32l4xx_hal_i2c.h.737.fa3908c81294cf0f9894ae336466002c
                           .group:00000000 wm4.stm32l4xx_hal_irda.h.21.136c042f9eef333167a549cc099df0c9
                           .group:00000000 wm4.stm32l4xx_hal_irda_ex.h.21.e0ada4e6d2b2cadfb512dd3c8ac0a637
                           .group:00000000 wm4.stm32l4xx_hal_iwdg.h.21.f94ca75f2fe1ebc7a2a8d0f5b58d8430
                           .group:00000000 wm4.stm32l4xx_hal_lptim.h.21.78222ea6639fc8c02789d293a048991e
                           .group:00000000 wm4.stm32l4xx_ll_sdmmc.h.21.65a5a8696b6ca7b87cc93d218084d702
                           .group:00000000 wm4.stm32l4xx_hal_mmc.h.69.8f4159f0a88ef1ebc33c58a8f10362b9
                           .group:00000000 wm4.stm32l4xx_ll_fmc.h.21.156a244c55010643ee92c6119049cb68
                           .group:00000000 wm4.stm32l4xx_hal_nand.h.176.9bfeac6e4e757991088bbd0df44e2be9
                           .group:00000000 wm4.stm32l4xx_hal_nor.h.21.d47e91e825f466bbac02fac0a7845a7a
                           .group:00000000 wm4.stm32l4xx_hal_opamp.h.21.9d841e1eaccee939f247b3f973f8af5f
                           .group:00000000 wm4.stm32l4xx_hal_pcd.h.169.addb1fac652268a18a0707cfcb5e2e47
                           .group:00000000 wm4.stm32l4xx_hal_pwr.h.21.7ddab2caa97243c36e496eca17b27618
                           .group:00000000 wm4.stm32l4xx_hal_pwr_ex.h.21.65ad8bbdbcb1950d945c0de10f22dc80
                           .group:00000000 wm4.stm32l4xx_hal_qspi.h.21.0291dad4eaa82101f2f77d76315c9b12
                           .group:00000000 wm4.stm32l4xx_hal_rng.h.21.96593715bdeab0c74ac9dfc538fb2feb
                           .group:00000000 wm4.stm32l4xx_hal_rtc.h.21.9da6b1aeebde99930891f803cb7f9678
                           .group:00000000 wm4.stm32l4xx_hal_rtc_ex.h.21.c692539378320719c7f2a2da1ca64502
                           .group:00000000 wm4.stm32l4xx_hal_rtc.h.999.c8bd9450c783628bd606ecb31bea5cc9
                           .group:00000000 wm4.stm32l4xx_hal_sai.h.21.c1165aaf2bbde65fae28ed4817be5cc5
                           .group:00000000 wm4.stm32l4xx_hal_sd.h.21.b395c90a87e82f7e8d77d4a518036063
                           .group:00000000 wm4.stm32l4xx_hal_smartcard.h.21.423c3ad63e0df35b864303e89e6d253c
                           .group:00000000 wm4.stm32l4xx_hal_smartcard_ex.h.21.801a2ce9252a785aec000b3fc7667a74
                           .group:00000000 wm4.stm32l4xx_hal_smbus.h.21.7480adb16468bfdce819ee591f21299e
                           .group:00000000 wm4.stm32l4xx_hal_smbus_ex.h.21.bdc715f5f6fb6612a871d3c03c3b871f
                           .group:00000000 wm4.stm32l4xx_hal_spi.h.21.3b51f9f7b241962f6b3483c47a43334f
                           .group:00000000 wm4.stm32l4xx_hal_sram.h.21.285210181e158bddc1cdde63dde572fd
                           .group:00000000 wm4.stm32l4xx_hal_swpmi.h.21.787f994f40b117a62aad9a6dd408b8fc
                           .group:00000000 wm4.stm32l4xx_hal_tim.h.21.d190832030e7505384ad081daa7ba8d6
                           .group:00000000 wm4.stm32l4xx_hal_tim_ex.h.21.1d0860218366ee9f64a97fd8af0ddee1
                           .group:00000000 wm4.stm32l4xx_hal_tsc.h.21.e9010049847ea38297d4b95a5ede0d8c
                           .group:00000000 wm4.stm32l4xx_hal_uart.h.21.480c0a64ca01596a921cda9dceb01df4
                           .group:00000000 wm4.stm32l4xx_hal_uart_ex.h.21.d793e64693c93af07c90464aef42bd83
                           .group:00000000 wm4.stm32l4xx_hal_usart.h.21.561c0058e33cb8df6671dcd29d5d25f9
                           .group:00000000 wm4.stm32l4xx_hal_usart_ex.h.21.111da650523691ebc80d64103d7b26e5
                           .group:00000000 wm4.stm32l4xx_hal_wwdg.h.21.073aa79d58120ae4fb8590c46b210051
                           .group:00000000 wm4.stm32l4xx_hal.h.75.d364b3778b3801d2f66bb409c48d396d

UNDEFINED SYMBOLS
HAL_GetTick
