ARM GAS  /tmp/ccmvJbBK.s 			page 1


   1              		.cpu cortex-m4
   2              		.arch armv7e-m
   3              		.fpu fpv4-sp-d16
   4              		.eabi_attribute 27, 1
   5              		.eabi_attribute 28, 1
   6              		.eabi_attribute 20, 1
   7              		.eabi_attribute 21, 1
   8              		.eabi_attribute 23, 3
   9              		.eabi_attribute 24, 1
  10              		.eabi_attribute 25, 1
  11              		.eabi_attribute 26, 1
  12              		.eabi_attribute 30, 6
  13              		.eabi_attribute 34, 1
  14              		.eabi_attribute 18, 4
  15              		.file	"stm32l475e_iot01_tsensor.c"
  16              		.text
  17              	.Ltext0:
  18              		.cfi_sections	.debug_frame
  19              		.file 1 "Drivers/BSP/B-L475E-IOT01/stm32l475e_iot01_tsensor.c"
  20              		.section	.rodata.CHANNEL_OFFSET_TAB,"a"
  21              		.align	2
  24              	CHANNEL_OFFSET_TAB:
  25 0000 081C3044 		.ascii	"\010\0340DXl\200"
  25      586C80
  26              		.section	.bss.tsensor_drv,"aw",%nobits
  27              		.align	2
  30              	tsensor_drv:
  31 0000 00000000 		.space	4
  32              		.section	.text.BSP_TSENSOR_Init,"ax",%progbits
  33              		.align	1
  34              		.global	BSP_TSENSOR_Init
  35              		.syntax unified
  36              		.thumb
  37              		.thumb_func
  39              	BSP_TSENSOR_Init:
  40              	.LFB445:
   1:Drivers/BSP/B-L475E-IOT01/stm32l475e_iot01_tsensor.c **** /**
   2:Drivers/BSP/B-L475E-IOT01/stm32l475e_iot01_tsensor.c ****   ******************************************************************************
   3:Drivers/BSP/B-L475E-IOT01/stm32l475e_iot01_tsensor.c ****   * @file    stm32l475e_iot01_tsensor.c
   4:Drivers/BSP/B-L475E-IOT01/stm32l475e_iot01_tsensor.c ****   * @author  MCD Application Team
   5:Drivers/BSP/B-L475E-IOT01/stm32l475e_iot01_tsensor.c ****   * @brief   This file provides a set of functions needed to manage the temperature sensor
   6:Drivers/BSP/B-L475E-IOT01/stm32l475e_iot01_tsensor.c ****   ******************************************************************************
   7:Drivers/BSP/B-L475E-IOT01/stm32l475e_iot01_tsensor.c ****   * @attention
   8:Drivers/BSP/B-L475E-IOT01/stm32l475e_iot01_tsensor.c ****   *
   9:Drivers/BSP/B-L475E-IOT01/stm32l475e_iot01_tsensor.c ****   * Copyright (c) 2017 STMicroelectronics.
  10:Drivers/BSP/B-L475E-IOT01/stm32l475e_iot01_tsensor.c ****   * All rights reserved.
  11:Drivers/BSP/B-L475E-IOT01/stm32l475e_iot01_tsensor.c ****   *
  12:Drivers/BSP/B-L475E-IOT01/stm32l475e_iot01_tsensor.c ****   * This software is licensed under terms that can be found in the LICENSE file
  13:Drivers/BSP/B-L475E-IOT01/stm32l475e_iot01_tsensor.c ****   * in the root directory of this software component.
  14:Drivers/BSP/B-L475E-IOT01/stm32l475e_iot01_tsensor.c ****   * If no LICENSE file comes with this software, it is provided AS-IS.
  15:Drivers/BSP/B-L475E-IOT01/stm32l475e_iot01_tsensor.c ****   *
  16:Drivers/BSP/B-L475E-IOT01/stm32l475e_iot01_tsensor.c ****   ******************************************************************************
  17:Drivers/BSP/B-L475E-IOT01/stm32l475e_iot01_tsensor.c ****   */
  18:Drivers/BSP/B-L475E-IOT01/stm32l475e_iot01_tsensor.c **** 
  19:Drivers/BSP/B-L475E-IOT01/stm32l475e_iot01_tsensor.c **** /* Includes ------------------------------------------------------------------*/
  20:Drivers/BSP/B-L475E-IOT01/stm32l475e_iot01_tsensor.c **** #include "stm32l475e_iot01_tsensor.h"
  21:Drivers/BSP/B-L475E-IOT01/stm32l475e_iot01_tsensor.c **** 
ARM GAS  /tmp/ccmvJbBK.s 			page 2


  22:Drivers/BSP/B-L475E-IOT01/stm32l475e_iot01_tsensor.c **** /** @addtogroup BSP
  23:Drivers/BSP/B-L475E-IOT01/stm32l475e_iot01_tsensor.c ****   * @{
  24:Drivers/BSP/B-L475E-IOT01/stm32l475e_iot01_tsensor.c ****   */ 
  25:Drivers/BSP/B-L475E-IOT01/stm32l475e_iot01_tsensor.c **** 
  26:Drivers/BSP/B-L475E-IOT01/stm32l475e_iot01_tsensor.c **** /** @addtogroup STM32L475E_IOT01
  27:Drivers/BSP/B-L475E-IOT01/stm32l475e_iot01_tsensor.c ****   * @{
  28:Drivers/BSP/B-L475E-IOT01/stm32l475e_iot01_tsensor.c ****   */
  29:Drivers/BSP/B-L475E-IOT01/stm32l475e_iot01_tsensor.c **** 
  30:Drivers/BSP/B-L475E-IOT01/stm32l475e_iot01_tsensor.c **** /** @defgroup STM32L475E_IOT01_TEMPERATURE TEMPERATURE
  31:Drivers/BSP/B-L475E-IOT01/stm32l475e_iot01_tsensor.c ****   * @{
  32:Drivers/BSP/B-L475E-IOT01/stm32l475e_iot01_tsensor.c ****   */
  33:Drivers/BSP/B-L475E-IOT01/stm32l475e_iot01_tsensor.c **** 
  34:Drivers/BSP/B-L475E-IOT01/stm32l475e_iot01_tsensor.c **** /** @defgroup STM32L475E_IOT01_TEMPERATURE_Private_Variables TEMPERATURE Private Variables 
  35:Drivers/BSP/B-L475E-IOT01/stm32l475e_iot01_tsensor.c ****   * @{
  36:Drivers/BSP/B-L475E-IOT01/stm32l475e_iot01_tsensor.c ****   */ 
  37:Drivers/BSP/B-L475E-IOT01/stm32l475e_iot01_tsensor.c **** static TSENSOR_DrvTypeDef *tsensor_drv;  
  38:Drivers/BSP/B-L475E-IOT01/stm32l475e_iot01_tsensor.c **** /**
  39:Drivers/BSP/B-L475E-IOT01/stm32l475e_iot01_tsensor.c ****   * @}
  40:Drivers/BSP/B-L475E-IOT01/stm32l475e_iot01_tsensor.c ****   */
  41:Drivers/BSP/B-L475E-IOT01/stm32l475e_iot01_tsensor.c **** 
  42:Drivers/BSP/B-L475E-IOT01/stm32l475e_iot01_tsensor.c **** /** @defgroup STM32L475E_IOT01_TEMPERATURE_Private_Functions TEMPERATURE Private Functions
  43:Drivers/BSP/B-L475E-IOT01/stm32l475e_iot01_tsensor.c ****   * @{
  44:Drivers/BSP/B-L475E-IOT01/stm32l475e_iot01_tsensor.c ****   */
  45:Drivers/BSP/B-L475E-IOT01/stm32l475e_iot01_tsensor.c **** 
  46:Drivers/BSP/B-L475E-IOT01/stm32l475e_iot01_tsensor.c **** /**
  47:Drivers/BSP/B-L475E-IOT01/stm32l475e_iot01_tsensor.c ****   * @brief  Initializes peripherals used by the I2C Temperature Sensor driver.
  48:Drivers/BSP/B-L475E-IOT01/stm32l475e_iot01_tsensor.c ****   * @retval TSENSOR status
  49:Drivers/BSP/B-L475E-IOT01/stm32l475e_iot01_tsensor.c ****   */
  50:Drivers/BSP/B-L475E-IOT01/stm32l475e_iot01_tsensor.c **** uint32_t BSP_TSENSOR_Init(void)
  51:Drivers/BSP/B-L475E-IOT01/stm32l475e_iot01_tsensor.c **** {  
  41              		.loc 1 51 1
  42              		.cfi_startproc
  43              		@ args = 0, pretend = 0, frame = 8
  44              		@ frame_needed = 1, uses_anonymous_args = 0
  45 0000 80B5     		push	{r7, lr}
  46              		.cfi_def_cfa_offset 8
  47              		.cfi_offset 7, -8
  48              		.cfi_offset 14, -4
  49 0002 82B0     		sub	sp, sp, #8
  50              		.cfi_def_cfa_offset 16
  51 0004 00AF     		add	r7, sp, #0
  52              		.cfi_def_cfa_register 7
  52:Drivers/BSP/B-L475E-IOT01/stm32l475e_iot01_tsensor.c ****   uint8_t ret = TSENSOR_ERROR;
  53              		.loc 1 52 11
  54 0006 0123     		movs	r3, #1
  55 0008 FB71     		strb	r3, [r7, #7]
  53:Drivers/BSP/B-L475E-IOT01/stm32l475e_iot01_tsensor.c **** 
  54:Drivers/BSP/B-L475E-IOT01/stm32l475e_iot01_tsensor.c **** #ifdef USE_LPS22HB_TEMP
  55:Drivers/BSP/B-L475E-IOT01/stm32l475e_iot01_tsensor.c ****   tsensor_drv = &LPS22HB_T_Drv;
  56:Drivers/BSP/B-L475E-IOT01/stm32l475e_iot01_tsensor.c **** #else /* USE_HTS221_TEMP */
  57:Drivers/BSP/B-L475E-IOT01/stm32l475e_iot01_tsensor.c ****   tsensor_drv = &HTS221_T_Drv; 
  56              		.loc 1 57 15
  57 000a 094B     		ldr	r3, .L3
  58 000c 094A     		ldr	r2, .L3+4
  59 000e 1A60     		str	r2, [r3]
  58:Drivers/BSP/B-L475E-IOT01/stm32l475e_iot01_tsensor.c **** #endif
  59:Drivers/BSP/B-L475E-IOT01/stm32l475e_iot01_tsensor.c **** 
ARM GAS  /tmp/ccmvJbBK.s 			page 3


  60:Drivers/BSP/B-L475E-IOT01/stm32l475e_iot01_tsensor.c ****   /* Low level init */
  61:Drivers/BSP/B-L475E-IOT01/stm32l475e_iot01_tsensor.c ****   SENSOR_IO_Init();
  60              		.loc 1 61 3
  61 0010 FFF7FEFF 		bl	SENSOR_IO_Init
  62:Drivers/BSP/B-L475E-IOT01/stm32l475e_iot01_tsensor.c **** 
  63:Drivers/BSP/B-L475E-IOT01/stm32l475e_iot01_tsensor.c ****   /* TSENSOR Init */   
  64:Drivers/BSP/B-L475E-IOT01/stm32l475e_iot01_tsensor.c ****   tsensor_drv->Init(TSENSOR_I2C_ADDRESS, NULL);
  62              		.loc 1 64 14
  63 0014 064B     		ldr	r3, .L3
  64 0016 1B68     		ldr	r3, [r3]
  65 0018 1B68     		ldr	r3, [r3]
  66              		.loc 1 64 3
  67 001a 0021     		movs	r1, #0
  68 001c BE20     		movs	r0, #190
  69 001e 9847     		blx	r3
  70              	.LVL0:
  65:Drivers/BSP/B-L475E-IOT01/stm32l475e_iot01_tsensor.c **** 
  66:Drivers/BSP/B-L475E-IOT01/stm32l475e_iot01_tsensor.c ****   ret = TSENSOR_OK;
  71              		.loc 1 66 7
  72 0020 0023     		movs	r3, #0
  73 0022 FB71     		strb	r3, [r7, #7]
  67:Drivers/BSP/B-L475E-IOT01/stm32l475e_iot01_tsensor.c ****   
  68:Drivers/BSP/B-L475E-IOT01/stm32l475e_iot01_tsensor.c ****   return ret;
  74              		.loc 1 68 10
  75 0024 FB79     		ldrb	r3, [r7, #7]	@ zero_extendqisi2
  69:Drivers/BSP/B-L475E-IOT01/stm32l475e_iot01_tsensor.c **** }
  76              		.loc 1 69 1
  77 0026 1846     		mov	r0, r3
  78 0028 0837     		adds	r7, r7, #8
  79              		.cfi_def_cfa_offset 8
  80 002a BD46     		mov	sp, r7
  81              		.cfi_def_cfa_register 13
  82              		@ sp needed
  83 002c 80BD     		pop	{r7, pc}
  84              	.L4:
  85 002e 00BF     		.align	2
  86              	.L3:
  87 0030 00000000 		.word	tsensor_drv
  88 0034 00000000 		.word	HTS221_T_Drv
  89              		.cfi_endproc
  90              	.LFE445:
  92              		.section	.text.BSP_TSENSOR_ReadTemp,"ax",%progbits
  93              		.align	1
  94              		.global	BSP_TSENSOR_ReadTemp
  95              		.syntax unified
  96              		.thumb
  97              		.thumb_func
  99              	BSP_TSENSOR_ReadTemp:
 100              	.LFB446:
  70:Drivers/BSP/B-L475E-IOT01/stm32l475e_iot01_tsensor.c **** 
  71:Drivers/BSP/B-L475E-IOT01/stm32l475e_iot01_tsensor.c **** /**
  72:Drivers/BSP/B-L475E-IOT01/stm32l475e_iot01_tsensor.c ****   * @brief  Read Temperature register of TS751.
  73:Drivers/BSP/B-L475E-IOT01/stm32l475e_iot01_tsensor.c ****   * @retval STTS751 measured temperature value.
  74:Drivers/BSP/B-L475E-IOT01/stm32l475e_iot01_tsensor.c ****   */
  75:Drivers/BSP/B-L475E-IOT01/stm32l475e_iot01_tsensor.c **** float BSP_TSENSOR_ReadTemp(void)
  76:Drivers/BSP/B-L475E-IOT01/stm32l475e_iot01_tsensor.c **** { 
 101              		.loc 1 76 1
ARM GAS  /tmp/ccmvJbBK.s 			page 4


 102              		.cfi_startproc
 103              		@ args = 0, pretend = 0, frame = 0
 104              		@ frame_needed = 1, uses_anonymous_args = 0
 105 0000 80B5     		push	{r7, lr}
 106              		.cfi_def_cfa_offset 8
 107              		.cfi_offset 7, -8
 108              		.cfi_offset 14, -4
 109 0002 00AF     		add	r7, sp, #0
 110              		.cfi_def_cfa_register 7
  77:Drivers/BSP/B-L475E-IOT01/stm32l475e_iot01_tsensor.c ****   return tsensor_drv->ReadTemp(TSENSOR_I2C_ADDRESS);
 111              		.loc 1 77 21
 112 0004 044B     		ldr	r3, .L7
 113 0006 1B68     		ldr	r3, [r3]
 114 0008 DB68     		ldr	r3, [r3, #12]
 115              		.loc 1 77 10
 116 000a BE20     		movs	r0, #190
 117 000c 9847     		blx	r3
 118              	.LVL1:
 119 000e F0EE407A 		vmov.f32	s15, s0
  78:Drivers/BSP/B-L475E-IOT01/stm32l475e_iot01_tsensor.c **** }
 120              		.loc 1 78 1
 121 0012 B0EE670A 		vmov.f32	s0, s15
 122 0016 80BD     		pop	{r7, pc}
 123              	.L8:
 124              		.align	2
 125              	.L7:
 126 0018 00000000 		.word	tsensor_drv
 127              		.cfi_endproc
 128              	.LFE446:
 130              		.text
 131              	.Letext0:
 132              		.file 2 "/usr/lib/gcc/arm-none-eabi/13.2.1/include/stdint.h"
 133              		.file 3 "Drivers/BSP/B-L475E-IOT01/../Components/hts221/../Common/tsensor.h"
 134              		.file 4 "Drivers/STM32L4xx_HAL_Driver/Inc/stm32l4xx_ll_dma.h"
 135              		.file 5 "Drivers/BSP/B-L475E-IOT01/../Components/hts221/hts221.h"
 136              		.file 6 "Drivers/BSP/B-L475E-IOT01/stm32l475e_iot01_tsensor.h"
ARM GAS  /tmp/ccmvJbBK.s 			page 5


DEFINED SYMBOLS
                            *ABS*:00000000 stm32l475e_iot01_tsensor.c
     /tmp/ccmvJbBK.s:21     .rodata.CHANNEL_OFFSET_TAB:00000000 $d
     /tmp/ccmvJbBK.s:24     .rodata.CHANNEL_OFFSET_TAB:00000000 CHANNEL_OFFSET_TAB
     /tmp/ccmvJbBK.s:27     .bss.tsensor_drv:00000000 $d
     /tmp/ccmvJbBK.s:30     .bss.tsensor_drv:00000000 tsensor_drv
     /tmp/ccmvJbBK.s:33     .text.BSP_TSENSOR_Init:00000000 $t
     /tmp/ccmvJbBK.s:39     .text.BSP_TSENSOR_Init:00000000 BSP_TSENSOR_Init
     /tmp/ccmvJbBK.s:87     .text.BSP_TSENSOR_Init:00000030 $d
     /tmp/ccmvJbBK.s:93     .text.BSP_TSENSOR_ReadTemp:00000000 $t
     /tmp/ccmvJbBK.s:99     .text.BSP_TSENSOR_ReadTemp:00000000 BSP_TSENSOR_ReadTemp
     /tmp/ccmvJbBK.s:126    .text.BSP_TSENSOR_ReadTemp:00000018 $d
                           .group:00000000 wm4.0.e7b64c2c371cf922f2c8028878d5c18e
                           .group:00000000 wm4.stm32l4xx_hal_conf.h.23.286c2f63aaa73ed97ffb4d26f7caa6e9
                           .group:00000000 wm4.stm32l4xx.h.38.9f5830373ca31b8a3cd182fdc6c7b69a
                           .group:00000000 wm4.stm32l475xx.h.34.2f1a75aed66751e299f09004aef64973
                           .group:00000000 wm4.stdint.h.29.6d480f4ba0f60596e88234283d42444f
                           .group:00000000 wm4.cmsis_version.h.32.46e8eccfa2cfeaae11d008bb2823a3ed
                           .group:00000000 wm4.core_cm4.h.66.e4ff136c4a17abc46741866f64f8e729
                           .group:00000000 wm4.cmsis_gcc.h.26.78077cef1206e937f7b56043ffca496a
                           .group:00000000 wm4.core_cm4.h.174.fcddd62df80231752fa39eb9b61dadfe
                           .group:00000000 wm4.mpu_armv7.h.32.4049752bb5792d4e15357775e9506cfc
                           .group:00000000 wm4.stm32l475xx.h.423.4d783859c9ac66890c9807dd7bd3a4db
                           .group:00000000 wm4.stm32l4xx.h.196.f5ae8047c57b6175c94f246ef967a286
                           .group:00000000 wm4.stm32_hal_legacy.h.22.08b8350ccf512ba8d98002fb33e7cbe5
                           .group:00000000 wm4.stddef.h.39.0dc9006b34572d4d9cae4c8b422c4971
                           .group:00000000 wm4.stm32l4xx_hal_def.h.58.1058a33f7217e935f2a6b51956d66a69
                           .group:00000000 wm4.stm32l4xx_hal_rcc.h.156.ab8eecc4e10f4827a2aa75d3549a356d
                           .group:00000000 wm4.stm32l4xx_hal_rcc_ex.h.20.4a82a27d561b6d42fa16a54f82e29067
                           .group:00000000 wm4.stm32l4xx_hal_gpio.h.21.2d2b1fd6aa6afa7b6dcc89cf752a9a25
                           .group:00000000 wm4.stm32l4xx_hal_gpio_ex.h.21.7ea705f5185dd3c6b8ea336f2858cd46
                           .group:00000000 wm4.stm32l4xx_ll_dma.h.21.b30e7f48d60d1fc53041ec1e3fd6e54a
                           .group:00000000 wm4.stm32l4xx_hal_dma.h.166.54a7f8d65cee6f051d541dc010387b5a
                           .group:00000000 wm4.stm32l4xx_hal_dfsdm.h.21.6785e38d00075079c7f2e5657def82ae
                           .group:00000000 wm4.stm32l4xx_hal_cortex.h.21.cb491126bd2d6f44e90b66f27acb8434
                           .group:00000000 wm4.stm32l4xx_ll_adc.h.21.0c578f71501c74365c67044efed214d6
                           .group:00000000 wm4.stm32l4xx_hal_adc.h.411.68f60682cdb20556089756a482f23764
                           .group:00000000 wm4.stm32l4xx_hal_adc_ex.h.21.7b82cb80166a21dfa8cb3e2fa8f8e654
                           .group:00000000 wm4.stm32l4xx_hal_can.h.21.5019586d8e7137c0cec16eb1f9d6677b
                           .group:00000000 wm4.stm32l4xx_ll_exti.h.21.d866eff070d6f999af2ce4ea60aa40ac
                           .group:00000000 wm4.stm32l4xx_hal_comp.h.87.7f14cb673a463359c83faa552328844d
                           .group:00000000 wm4.stm32l4xx_hal_crc.h.21.4c36a140cca35e6a8e478e76c6ad98e3
                           .group:00000000 wm4.stm32l4xx_hal_crc_ex.h.21.9cc3dead436542d416ee5572c231a242
                           .group:00000000 wm4.stm32l4xx_hal_dac.h.21.69feba704135531cf3d9b92de27b71d5
                           .group:00000000 wm4.stm32l4xx_hal_dac_ex.h.21.c86699169bead5415cc3e94027b67df4
                           .group:00000000 wm4.stm32l4xx_hal_exti.h.21.242e0410874d91d6d7523948fff74125
                           .group:00000000 wm4.stm32l4xx_hal_firewall.h.21.7ed44f4228fcc2ef96d2177dd8632645
                           .group:00000000 wm4.stm32l4xx_hal_flash.h.20.5e337018ccfa211b4afe888a79aae9f5
                           .group:00000000 wm4.stm32l4xx_hal_flash.h.846.0445f6ea07a3f9aac82891c8687d96fb
                           .group:00000000 wm4.stm32l4xx_ll_usb.h.21.5b5e42fb72a33dd326d7b20064953946
                           .group:00000000 wm4.stm32l4xx_hal_hcd.h.107.73f2fd24f57e8822da5cc86bd5ad3dfd
                           .group:00000000 wm4.stm32l4xx_hal_i2c.h.21.e7fc2065051c77019a818818e4a637d8
                           .group:00000000 wm4.stm32l4xx_hal_i2c_ex.h.21.ad4ad4e558d4fec06df87d163a6927d7
                           .group:00000000 wm4.stm32l4xx_hal_i2c.h.737.fa3908c81294cf0f9894ae336466002c
                           .group:00000000 wm4.stm32l4xx_hal_irda.h.21.136c042f9eef333167a549cc099df0c9
                           .group:00000000 wm4.stm32l4xx_hal_irda_ex.h.21.e0ada4e6d2b2cadfb512dd3c8ac0a637
                           .group:00000000 wm4.stm32l4xx_hal_iwdg.h.21.f94ca75f2fe1ebc7a2a8d0f5b58d8430
ARM GAS  /tmp/ccmvJbBK.s 			page 6


                           .group:00000000 wm4.stm32l4xx_hal_lptim.h.21.78222ea6639fc8c02789d293a048991e
                           .group:00000000 wm4.stm32l4xx_ll_sdmmc.h.21.65a5a8696b6ca7b87cc93d218084d702
                           .group:00000000 wm4.stm32l4xx_hal_mmc.h.69.8f4159f0a88ef1ebc33c58a8f10362b9
                           .group:00000000 wm4.stm32l4xx_ll_fmc.h.21.156a244c55010643ee92c6119049cb68
                           .group:00000000 wm4.stm32l4xx_hal_nand.h.176.9bfeac6e4e757991088bbd0df44e2be9
                           .group:00000000 wm4.stm32l4xx_hal_nor.h.21.d47e91e825f466bbac02fac0a7845a7a
                           .group:00000000 wm4.stm32l4xx_hal_opamp.h.21.9d841e1eaccee939f247b3f973f8af5f
                           .group:00000000 wm4.stm32l4xx_hal_pcd.h.169.addb1fac652268a18a0707cfcb5e2e47
                           .group:00000000 wm4.stm32l4xx_hal_pwr.h.21.7ddab2caa97243c36e496eca17b27618
                           .group:00000000 wm4.stm32l4xx_hal_pwr_ex.h.21.65ad8bbdbcb1950d945c0de10f22dc80
                           .group:00000000 wm4.stm32l4xx_hal_qspi.h.21.0291dad4eaa82101f2f77d76315c9b12
                           .group:00000000 wm4.stm32l4xx_hal_rng.h.21.96593715bdeab0c74ac9dfc538fb2feb
                           .group:00000000 wm4.stm32l4xx_hal_rtc.h.21.9da6b1aeebde99930891f803cb7f9678
                           .group:00000000 wm4.stm32l4xx_hal_rtc_ex.h.21.c692539378320719c7f2a2da1ca64502
                           .group:00000000 wm4.stm32l4xx_hal_rtc.h.999.c8bd9450c783628bd606ecb31bea5cc9
                           .group:00000000 wm4.stm32l4xx_hal_sai.h.21.c1165aaf2bbde65fae28ed4817be5cc5
                           .group:00000000 wm4.stm32l4xx_hal_sd.h.21.b395c90a87e82f7e8d77d4a518036063
                           .group:00000000 wm4.stm32l4xx_hal_smartcard.h.21.423c3ad63e0df35b864303e89e6d253c
                           .group:00000000 wm4.stm32l4xx_hal_smartcard_ex.h.21.801a2ce9252a785aec000b3fc7667a74
                           .group:00000000 wm4.stm32l4xx_hal_smbus.h.21.7480adb16468bfdce819ee591f21299e
                           .group:00000000 wm4.stm32l4xx_hal_smbus_ex.h.21.bdc715f5f6fb6612a871d3c03c3b871f
                           .group:00000000 wm4.stm32l4xx_hal_spi.h.21.3b51f9f7b241962f6b3483c47a43334f
                           .group:00000000 wm4.stm32l4xx_hal_sram.h.21.285210181e158bddc1cdde63dde572fd
                           .group:00000000 wm4.stm32l4xx_hal_swpmi.h.21.787f994f40b117a62aad9a6dd408b8fc
                           .group:00000000 wm4.stm32l4xx_hal_tim.h.21.d190832030e7505384ad081daa7ba8d6
                           .group:00000000 wm4.stm32l4xx_hal_tim_ex.h.21.1d0860218366ee9f64a97fd8af0ddee1
                           .group:00000000 wm4.stm32l4xx_hal_tsc.h.21.e9010049847ea38297d4b95a5ede0d8c
                           .group:00000000 wm4.stm32l4xx_hal_uart.h.21.480c0a64ca01596a921cda9dceb01df4
                           .group:00000000 wm4.stm32l4xx_hal_uart_ex.h.21.d793e64693c93af07c90464aef42bd83
                           .group:00000000 wm4.stm32l4xx_hal_usart.h.21.561c0058e33cb8df6671dcd29d5d25f9
                           .group:00000000 wm4.stm32l4xx_hal_usart_ex.h.21.111da650523691ebc80d64103d7b26e5
                           .group:00000000 wm4.stm32l4xx_hal_wwdg.h.21.073aa79d58120ae4fb8590c46b210051
                           .group:00000000 wm4.stm32l4xx_hal.h.75.d364b3778b3801d2f66bb409c48d396d
                           .group:00000000 wm4.stm32l475e_iot01.h.80.22fc749436d27c2cc4f18c5952914e12
                           .group:00000000 wm4.hts221.h.51.fd53383cb96522c923d40b9fb673afae

UNDEFINED SYMBOLS
SENSOR_IO_Init
HTS221_T_Drv
