ARM GAS  /tmp/cckJv99E.s 			page 1


   1              		.cpu cortex-m4
   2              		.arch armv7e-m
   3              		.fpu fpv4-sp-d16
   4              		.eabi_attribute 27, 1
   5              		.eabi_attribute 28, 1
   6              		.eabi_attribute 20, 1
   7              		.eabi_attribute 21, 1
   8              		.eabi_attribute 23, 3
   9              		.eabi_attribute 24, 1
  10              		.eabi_attribute 25, 1
  11              		.eabi_attribute 26, 1
  12              		.eabi_attribute 30, 6
  13              		.eabi_attribute 34, 1
  14              		.eabi_attribute 18, 4
  15              		.file	"stm32l4xx_hal_comp.c"
  16              		.text
  17              	.Ltext0:
  18              		.cfi_sections	.debug_frame
  19              		.file 1 "Drivers/STM32L4xx_HAL_Driver/Src/stm32l4xx_hal_comp.c"
  20              		.section	.rodata.CHANNEL_OFFSET_TAB,"a"
  21              		.align	2
  24              	CHANNEL_OFFSET_TAB:
  25 0000 081C3044 		.ascii	"\010\0340DXl\200"
  25      586C80
  26              		.section	.text.LL_EXTI_EnableIT_0_31,"ax",%progbits
  27              		.align	1
  28              		.syntax unified
  29              		.thumb
  30              		.thumb_func
  32              	LL_EXTI_EnableIT_0_31:
  33              	.LFB413:
  34              		.file 2 "Drivers/STM32L4xx_HAL_Driver/Inc/stm32l4xx_ll_exti.h"
   1:Drivers/STM32L4xx_HAL_Driver/Inc/stm32l4xx_ll_exti.h **** /**
   2:Drivers/STM32L4xx_HAL_Driver/Inc/stm32l4xx_ll_exti.h ****   ******************************************************************************
   3:Drivers/STM32L4xx_HAL_Driver/Inc/stm32l4xx_ll_exti.h ****   * @file    stm32l4xx_ll_exti.h
   4:Drivers/STM32L4xx_HAL_Driver/Inc/stm32l4xx_ll_exti.h ****   * @author  MCD Application Team
   5:Drivers/STM32L4xx_HAL_Driver/Inc/stm32l4xx_ll_exti.h ****   * @brief   Header file of EXTI LL module.
   6:Drivers/STM32L4xx_HAL_Driver/Inc/stm32l4xx_ll_exti.h ****   ******************************************************************************
   7:Drivers/STM32L4xx_HAL_Driver/Inc/stm32l4xx_ll_exti.h ****   * @attention
   8:Drivers/STM32L4xx_HAL_Driver/Inc/stm32l4xx_ll_exti.h ****   *
   9:Drivers/STM32L4xx_HAL_Driver/Inc/stm32l4xx_ll_exti.h ****   * Copyright (c) 2017 STMicroelectronics.
  10:Drivers/STM32L4xx_HAL_Driver/Inc/stm32l4xx_ll_exti.h ****   * All rights reserved.
  11:Drivers/STM32L4xx_HAL_Driver/Inc/stm32l4xx_ll_exti.h ****   *
  12:Drivers/STM32L4xx_HAL_Driver/Inc/stm32l4xx_ll_exti.h ****   * This software is licensed under terms that can be found in the LICENSE file
  13:Drivers/STM32L4xx_HAL_Driver/Inc/stm32l4xx_ll_exti.h ****   * in the root directory of this software component.
  14:Drivers/STM32L4xx_HAL_Driver/Inc/stm32l4xx_ll_exti.h ****   * If no LICENSE file comes with this software, it is provided AS-IS.
  15:Drivers/STM32L4xx_HAL_Driver/Inc/stm32l4xx_ll_exti.h ****   *
  16:Drivers/STM32L4xx_HAL_Driver/Inc/stm32l4xx_ll_exti.h ****   ******************************************************************************
  17:Drivers/STM32L4xx_HAL_Driver/Inc/stm32l4xx_ll_exti.h ****   */
  18:Drivers/STM32L4xx_HAL_Driver/Inc/stm32l4xx_ll_exti.h **** 
  19:Drivers/STM32L4xx_HAL_Driver/Inc/stm32l4xx_ll_exti.h **** /* Define to prevent recursive inclusion -------------------------------------*/
  20:Drivers/STM32L4xx_HAL_Driver/Inc/stm32l4xx_ll_exti.h **** #ifndef STM32L4xx_LL_EXTI_H
  21:Drivers/STM32L4xx_HAL_Driver/Inc/stm32l4xx_ll_exti.h **** #define STM32L4xx_LL_EXTI_H
  22:Drivers/STM32L4xx_HAL_Driver/Inc/stm32l4xx_ll_exti.h **** 
  23:Drivers/STM32L4xx_HAL_Driver/Inc/stm32l4xx_ll_exti.h **** #ifdef __cplusplus
  24:Drivers/STM32L4xx_HAL_Driver/Inc/stm32l4xx_ll_exti.h **** extern "C" {
  25:Drivers/STM32L4xx_HAL_Driver/Inc/stm32l4xx_ll_exti.h **** #endif
ARM GAS  /tmp/cckJv99E.s 			page 2


  26:Drivers/STM32L4xx_HAL_Driver/Inc/stm32l4xx_ll_exti.h **** 
  27:Drivers/STM32L4xx_HAL_Driver/Inc/stm32l4xx_ll_exti.h **** /* Includes ------------------------------------------------------------------*/
  28:Drivers/STM32L4xx_HAL_Driver/Inc/stm32l4xx_ll_exti.h **** #include "stm32l4xx.h"
  29:Drivers/STM32L4xx_HAL_Driver/Inc/stm32l4xx_ll_exti.h **** 
  30:Drivers/STM32L4xx_HAL_Driver/Inc/stm32l4xx_ll_exti.h **** /** @addtogroup STM32L4xx_LL_Driver
  31:Drivers/STM32L4xx_HAL_Driver/Inc/stm32l4xx_ll_exti.h ****   * @{
  32:Drivers/STM32L4xx_HAL_Driver/Inc/stm32l4xx_ll_exti.h ****   */
  33:Drivers/STM32L4xx_HAL_Driver/Inc/stm32l4xx_ll_exti.h **** 
  34:Drivers/STM32L4xx_HAL_Driver/Inc/stm32l4xx_ll_exti.h **** #if defined (EXTI)
  35:Drivers/STM32L4xx_HAL_Driver/Inc/stm32l4xx_ll_exti.h **** 
  36:Drivers/STM32L4xx_HAL_Driver/Inc/stm32l4xx_ll_exti.h **** /** @defgroup EXTI_LL EXTI
  37:Drivers/STM32L4xx_HAL_Driver/Inc/stm32l4xx_ll_exti.h ****   * @{
  38:Drivers/STM32L4xx_HAL_Driver/Inc/stm32l4xx_ll_exti.h ****   */
  39:Drivers/STM32L4xx_HAL_Driver/Inc/stm32l4xx_ll_exti.h **** 
  40:Drivers/STM32L4xx_HAL_Driver/Inc/stm32l4xx_ll_exti.h **** /* Private types -------------------------------------------------------------*/
  41:Drivers/STM32L4xx_HAL_Driver/Inc/stm32l4xx_ll_exti.h **** /* Private variables ---------------------------------------------------------*/
  42:Drivers/STM32L4xx_HAL_Driver/Inc/stm32l4xx_ll_exti.h **** /* Private constants ---------------------------------------------------------*/
  43:Drivers/STM32L4xx_HAL_Driver/Inc/stm32l4xx_ll_exti.h **** /* Private Macros ------------------------------------------------------------*/
  44:Drivers/STM32L4xx_HAL_Driver/Inc/stm32l4xx_ll_exti.h **** #if defined(USE_FULL_LL_DRIVER)
  45:Drivers/STM32L4xx_HAL_Driver/Inc/stm32l4xx_ll_exti.h **** /** @defgroup EXTI_LL_Private_Macros EXTI Private Macros
  46:Drivers/STM32L4xx_HAL_Driver/Inc/stm32l4xx_ll_exti.h ****   * @{
  47:Drivers/STM32L4xx_HAL_Driver/Inc/stm32l4xx_ll_exti.h ****   */
  48:Drivers/STM32L4xx_HAL_Driver/Inc/stm32l4xx_ll_exti.h **** /**
  49:Drivers/STM32L4xx_HAL_Driver/Inc/stm32l4xx_ll_exti.h ****   * @}
  50:Drivers/STM32L4xx_HAL_Driver/Inc/stm32l4xx_ll_exti.h ****   */
  51:Drivers/STM32L4xx_HAL_Driver/Inc/stm32l4xx_ll_exti.h **** #endif /*USE_FULL_LL_DRIVER*/
  52:Drivers/STM32L4xx_HAL_Driver/Inc/stm32l4xx_ll_exti.h **** /* Exported types ------------------------------------------------------------*/
  53:Drivers/STM32L4xx_HAL_Driver/Inc/stm32l4xx_ll_exti.h **** #if defined(USE_FULL_LL_DRIVER)
  54:Drivers/STM32L4xx_HAL_Driver/Inc/stm32l4xx_ll_exti.h **** /** @defgroup EXTI_LL_ES_INIT EXTI Exported Init structure
  55:Drivers/STM32L4xx_HAL_Driver/Inc/stm32l4xx_ll_exti.h ****   * @{
  56:Drivers/STM32L4xx_HAL_Driver/Inc/stm32l4xx_ll_exti.h ****   */
  57:Drivers/STM32L4xx_HAL_Driver/Inc/stm32l4xx_ll_exti.h **** typedef struct
  58:Drivers/STM32L4xx_HAL_Driver/Inc/stm32l4xx_ll_exti.h **** {
  59:Drivers/STM32L4xx_HAL_Driver/Inc/stm32l4xx_ll_exti.h **** 
  60:Drivers/STM32L4xx_HAL_Driver/Inc/stm32l4xx_ll_exti.h ****   uint32_t Line_0_31;           /*!< Specifies the EXTI lines to be enabled or disabled for Lines i
  61:Drivers/STM32L4xx_HAL_Driver/Inc/stm32l4xx_ll_exti.h ****                                      This parameter can be any combination of @ref EXTI_LL_EC_LINE 
  62:Drivers/STM32L4xx_HAL_Driver/Inc/stm32l4xx_ll_exti.h **** 
  63:Drivers/STM32L4xx_HAL_Driver/Inc/stm32l4xx_ll_exti.h ****   uint32_t Line_32_63;          /*!< Specifies the EXTI lines to be enabled or disabled for Lines i
  64:Drivers/STM32L4xx_HAL_Driver/Inc/stm32l4xx_ll_exti.h ****                                      This parameter can be any combination of @ref EXTI_LL_EC_LINE 
  65:Drivers/STM32L4xx_HAL_Driver/Inc/stm32l4xx_ll_exti.h **** 
  66:Drivers/STM32L4xx_HAL_Driver/Inc/stm32l4xx_ll_exti.h ****   FunctionalState LineCommand;  /*!< Specifies the new state of the selected EXTI lines.
  67:Drivers/STM32L4xx_HAL_Driver/Inc/stm32l4xx_ll_exti.h ****                                      This parameter can be set either to ENABLE or DISABLE */
  68:Drivers/STM32L4xx_HAL_Driver/Inc/stm32l4xx_ll_exti.h **** 
  69:Drivers/STM32L4xx_HAL_Driver/Inc/stm32l4xx_ll_exti.h ****   uint8_t Mode;                 /*!< Specifies the mode for the EXTI lines.
  70:Drivers/STM32L4xx_HAL_Driver/Inc/stm32l4xx_ll_exti.h ****                                      This parameter can be a value of @ref EXTI_LL_EC_MODE. */
  71:Drivers/STM32L4xx_HAL_Driver/Inc/stm32l4xx_ll_exti.h **** 
  72:Drivers/STM32L4xx_HAL_Driver/Inc/stm32l4xx_ll_exti.h ****   uint8_t Trigger;              /*!< Specifies the trigger signal active edge for the EXTI lines.
  73:Drivers/STM32L4xx_HAL_Driver/Inc/stm32l4xx_ll_exti.h ****                                      This parameter can be a value of @ref EXTI_LL_EC_TRIGGER. */
  74:Drivers/STM32L4xx_HAL_Driver/Inc/stm32l4xx_ll_exti.h **** } LL_EXTI_InitTypeDef;
  75:Drivers/STM32L4xx_HAL_Driver/Inc/stm32l4xx_ll_exti.h **** 
  76:Drivers/STM32L4xx_HAL_Driver/Inc/stm32l4xx_ll_exti.h **** /**
  77:Drivers/STM32L4xx_HAL_Driver/Inc/stm32l4xx_ll_exti.h ****   * @}
  78:Drivers/STM32L4xx_HAL_Driver/Inc/stm32l4xx_ll_exti.h ****   */
  79:Drivers/STM32L4xx_HAL_Driver/Inc/stm32l4xx_ll_exti.h **** #endif /*USE_FULL_LL_DRIVER*/
  80:Drivers/STM32L4xx_HAL_Driver/Inc/stm32l4xx_ll_exti.h **** 
  81:Drivers/STM32L4xx_HAL_Driver/Inc/stm32l4xx_ll_exti.h **** /* Exported constants --------------------------------------------------------*/
  82:Drivers/STM32L4xx_HAL_Driver/Inc/stm32l4xx_ll_exti.h **** /** @defgroup EXTI_LL_Exported_Constants EXTI Exported Constants
ARM GAS  /tmp/cckJv99E.s 			page 3


  83:Drivers/STM32L4xx_HAL_Driver/Inc/stm32l4xx_ll_exti.h ****   * @{
  84:Drivers/STM32L4xx_HAL_Driver/Inc/stm32l4xx_ll_exti.h ****   */
  85:Drivers/STM32L4xx_HAL_Driver/Inc/stm32l4xx_ll_exti.h **** 
  86:Drivers/STM32L4xx_HAL_Driver/Inc/stm32l4xx_ll_exti.h **** /** @defgroup EXTI_LL_EC_LINE LINE
  87:Drivers/STM32L4xx_HAL_Driver/Inc/stm32l4xx_ll_exti.h ****   * @{
  88:Drivers/STM32L4xx_HAL_Driver/Inc/stm32l4xx_ll_exti.h ****   */
  89:Drivers/STM32L4xx_HAL_Driver/Inc/stm32l4xx_ll_exti.h **** #define LL_EXTI_LINE_0                 EXTI_IMR1_IM0           /*!< Extended line 0 */
  90:Drivers/STM32L4xx_HAL_Driver/Inc/stm32l4xx_ll_exti.h **** #define LL_EXTI_LINE_1                 EXTI_IMR1_IM1           /*!< Extended line 1 */
  91:Drivers/STM32L4xx_HAL_Driver/Inc/stm32l4xx_ll_exti.h **** #define LL_EXTI_LINE_2                 EXTI_IMR1_IM2           /*!< Extended line 2 */
  92:Drivers/STM32L4xx_HAL_Driver/Inc/stm32l4xx_ll_exti.h **** #define LL_EXTI_LINE_3                 EXTI_IMR1_IM3           /*!< Extended line 3 */
  93:Drivers/STM32L4xx_HAL_Driver/Inc/stm32l4xx_ll_exti.h **** #define LL_EXTI_LINE_4                 EXTI_IMR1_IM4           /*!< Extended line 4 */
  94:Drivers/STM32L4xx_HAL_Driver/Inc/stm32l4xx_ll_exti.h **** #define LL_EXTI_LINE_5                 EXTI_IMR1_IM5           /*!< Extended line 5 */
  95:Drivers/STM32L4xx_HAL_Driver/Inc/stm32l4xx_ll_exti.h **** #define LL_EXTI_LINE_6                 EXTI_IMR1_IM6           /*!< Extended line 6 */
  96:Drivers/STM32L4xx_HAL_Driver/Inc/stm32l4xx_ll_exti.h **** #define LL_EXTI_LINE_7                 EXTI_IMR1_IM7           /*!< Extended line 7 */
  97:Drivers/STM32L4xx_HAL_Driver/Inc/stm32l4xx_ll_exti.h **** #define LL_EXTI_LINE_8                 EXTI_IMR1_IM8           /*!< Extended line 8 */
  98:Drivers/STM32L4xx_HAL_Driver/Inc/stm32l4xx_ll_exti.h **** #define LL_EXTI_LINE_9                 EXTI_IMR1_IM9           /*!< Extended line 9 */
  99:Drivers/STM32L4xx_HAL_Driver/Inc/stm32l4xx_ll_exti.h **** #define LL_EXTI_LINE_10                EXTI_IMR1_IM10          /*!< Extended line 10 */
 100:Drivers/STM32L4xx_HAL_Driver/Inc/stm32l4xx_ll_exti.h **** #define LL_EXTI_LINE_11                EXTI_IMR1_IM11          /*!< Extended line 11 */
 101:Drivers/STM32L4xx_HAL_Driver/Inc/stm32l4xx_ll_exti.h **** #define LL_EXTI_LINE_12                EXTI_IMR1_IM12          /*!< Extended line 12 */
 102:Drivers/STM32L4xx_HAL_Driver/Inc/stm32l4xx_ll_exti.h **** #define LL_EXTI_LINE_13                EXTI_IMR1_IM13          /*!< Extended line 13 */
 103:Drivers/STM32L4xx_HAL_Driver/Inc/stm32l4xx_ll_exti.h **** #define LL_EXTI_LINE_14                EXTI_IMR1_IM14          /*!< Extended line 14 */
 104:Drivers/STM32L4xx_HAL_Driver/Inc/stm32l4xx_ll_exti.h **** #define LL_EXTI_LINE_15                EXTI_IMR1_IM15          /*!< Extended line 15 */
 105:Drivers/STM32L4xx_HAL_Driver/Inc/stm32l4xx_ll_exti.h **** #if defined(EXTI_IMR1_IM16)
 106:Drivers/STM32L4xx_HAL_Driver/Inc/stm32l4xx_ll_exti.h **** #define LL_EXTI_LINE_16                EXTI_IMR1_IM16          /*!< Extended line 16 */
 107:Drivers/STM32L4xx_HAL_Driver/Inc/stm32l4xx_ll_exti.h **** #endif
 108:Drivers/STM32L4xx_HAL_Driver/Inc/stm32l4xx_ll_exti.h **** #define LL_EXTI_LINE_17                EXTI_IMR1_IM17          /*!< Extended line 17 */
 109:Drivers/STM32L4xx_HAL_Driver/Inc/stm32l4xx_ll_exti.h **** #if defined(EXTI_IMR1_IM18)
 110:Drivers/STM32L4xx_HAL_Driver/Inc/stm32l4xx_ll_exti.h **** #define LL_EXTI_LINE_18                EXTI_IMR1_IM18          /*!< Extended line 18 */
 111:Drivers/STM32L4xx_HAL_Driver/Inc/stm32l4xx_ll_exti.h **** #endif
 112:Drivers/STM32L4xx_HAL_Driver/Inc/stm32l4xx_ll_exti.h **** #define LL_EXTI_LINE_19                EXTI_IMR1_IM19          /*!< Extended line 19 */
 113:Drivers/STM32L4xx_HAL_Driver/Inc/stm32l4xx_ll_exti.h **** #if defined(EXTI_IMR1_IM20)
 114:Drivers/STM32L4xx_HAL_Driver/Inc/stm32l4xx_ll_exti.h **** #define LL_EXTI_LINE_20                EXTI_IMR1_IM20          /*!< Extended line 20 */
 115:Drivers/STM32L4xx_HAL_Driver/Inc/stm32l4xx_ll_exti.h **** #endif
 116:Drivers/STM32L4xx_HAL_Driver/Inc/stm32l4xx_ll_exti.h **** #if defined(EXTI_IMR1_IM21)
 117:Drivers/STM32L4xx_HAL_Driver/Inc/stm32l4xx_ll_exti.h **** #define LL_EXTI_LINE_21                EXTI_IMR1_IM21          /*!< Extended line 21 */
 118:Drivers/STM32L4xx_HAL_Driver/Inc/stm32l4xx_ll_exti.h **** #endif
 119:Drivers/STM32L4xx_HAL_Driver/Inc/stm32l4xx_ll_exti.h **** #if defined(EXTI_IMR1_IM22)
 120:Drivers/STM32L4xx_HAL_Driver/Inc/stm32l4xx_ll_exti.h **** #define LL_EXTI_LINE_22                EXTI_IMR1_IM22          /*!< Extended line 22 */
 121:Drivers/STM32L4xx_HAL_Driver/Inc/stm32l4xx_ll_exti.h **** #endif
 122:Drivers/STM32L4xx_HAL_Driver/Inc/stm32l4xx_ll_exti.h **** #define LL_EXTI_LINE_23                EXTI_IMR1_IM23          /*!< Extended line 23 */
 123:Drivers/STM32L4xx_HAL_Driver/Inc/stm32l4xx_ll_exti.h **** #if defined(EXTI_IMR1_IM24)
 124:Drivers/STM32L4xx_HAL_Driver/Inc/stm32l4xx_ll_exti.h **** #define LL_EXTI_LINE_24                EXTI_IMR1_IM24          /*!< Extended line 24 */
 125:Drivers/STM32L4xx_HAL_Driver/Inc/stm32l4xx_ll_exti.h **** #endif
 126:Drivers/STM32L4xx_HAL_Driver/Inc/stm32l4xx_ll_exti.h **** #if defined(EXTI_IMR1_IM25)
 127:Drivers/STM32L4xx_HAL_Driver/Inc/stm32l4xx_ll_exti.h **** #define LL_EXTI_LINE_25                EXTI_IMR1_IM25          /*!< Extended line 25 */
 128:Drivers/STM32L4xx_HAL_Driver/Inc/stm32l4xx_ll_exti.h **** #endif
 129:Drivers/STM32L4xx_HAL_Driver/Inc/stm32l4xx_ll_exti.h **** #if defined(EXTI_IMR1_IM26)
 130:Drivers/STM32L4xx_HAL_Driver/Inc/stm32l4xx_ll_exti.h **** #define LL_EXTI_LINE_26                EXTI_IMR1_IM26          /*!< Extended line 26 */
 131:Drivers/STM32L4xx_HAL_Driver/Inc/stm32l4xx_ll_exti.h **** #endif
 132:Drivers/STM32L4xx_HAL_Driver/Inc/stm32l4xx_ll_exti.h **** #if defined(EXTI_IMR1_IM27)
 133:Drivers/STM32L4xx_HAL_Driver/Inc/stm32l4xx_ll_exti.h **** #define LL_EXTI_LINE_27                EXTI_IMR1_IM27          /*!< Extended line 27 */
 134:Drivers/STM32L4xx_HAL_Driver/Inc/stm32l4xx_ll_exti.h **** #endif
 135:Drivers/STM32L4xx_HAL_Driver/Inc/stm32l4xx_ll_exti.h **** #if defined(EXTI_IMR1_IM28)
 136:Drivers/STM32L4xx_HAL_Driver/Inc/stm32l4xx_ll_exti.h **** #define LL_EXTI_LINE_28                EXTI_IMR1_IM28          /*!< Extended line 28 */
 137:Drivers/STM32L4xx_HAL_Driver/Inc/stm32l4xx_ll_exti.h **** #endif
 138:Drivers/STM32L4xx_HAL_Driver/Inc/stm32l4xx_ll_exti.h **** #if defined(EXTI_IMR1_IM29)
 139:Drivers/STM32L4xx_HAL_Driver/Inc/stm32l4xx_ll_exti.h **** #define LL_EXTI_LINE_29                EXTI_IMR1_IM29          /*!< Extended line 29 */
ARM GAS  /tmp/cckJv99E.s 			page 4


 140:Drivers/STM32L4xx_HAL_Driver/Inc/stm32l4xx_ll_exti.h **** #endif
 141:Drivers/STM32L4xx_HAL_Driver/Inc/stm32l4xx_ll_exti.h **** #if defined(EXTI_IMR1_IM30)
 142:Drivers/STM32L4xx_HAL_Driver/Inc/stm32l4xx_ll_exti.h **** #define LL_EXTI_LINE_30                EXTI_IMR1_IM30          /*!< Extended line 30 */
 143:Drivers/STM32L4xx_HAL_Driver/Inc/stm32l4xx_ll_exti.h **** #endif
 144:Drivers/STM32L4xx_HAL_Driver/Inc/stm32l4xx_ll_exti.h **** #if defined(EXTI_IMR1_IM31)
 145:Drivers/STM32L4xx_HAL_Driver/Inc/stm32l4xx_ll_exti.h **** #define LL_EXTI_LINE_31                EXTI_IMR1_IM31          /*!< Extended line 31 */
 146:Drivers/STM32L4xx_HAL_Driver/Inc/stm32l4xx_ll_exti.h **** #endif
 147:Drivers/STM32L4xx_HAL_Driver/Inc/stm32l4xx_ll_exti.h **** #define LL_EXTI_LINE_ALL_0_31          EXTI_IMR1_IM            /*!< All Extended line not reserved*
 148:Drivers/STM32L4xx_HAL_Driver/Inc/stm32l4xx_ll_exti.h **** 
 149:Drivers/STM32L4xx_HAL_Driver/Inc/stm32l4xx_ll_exti.h **** #define LL_EXTI_LINE_32                EXTI_IMR2_IM32          /*!< Extended line 32 */
 150:Drivers/STM32L4xx_HAL_Driver/Inc/stm32l4xx_ll_exti.h **** #if defined(EXTI_IMR2_IM33)
 151:Drivers/STM32L4xx_HAL_Driver/Inc/stm32l4xx_ll_exti.h **** #define LL_EXTI_LINE_33                EXTI_IMR2_IM33          /*!< Extended line 33 */
 152:Drivers/STM32L4xx_HAL_Driver/Inc/stm32l4xx_ll_exti.h **** #endif
 153:Drivers/STM32L4xx_HAL_Driver/Inc/stm32l4xx_ll_exti.h **** #if defined(EXTI_IMR2_IM34)
 154:Drivers/STM32L4xx_HAL_Driver/Inc/stm32l4xx_ll_exti.h **** #define LL_EXTI_LINE_34                EXTI_IMR2_IM34          /*!< Extended line 34 */
 155:Drivers/STM32L4xx_HAL_Driver/Inc/stm32l4xx_ll_exti.h **** #endif
 156:Drivers/STM32L4xx_HAL_Driver/Inc/stm32l4xx_ll_exti.h **** #if defined(EXTI_IMR2_IM35)
 157:Drivers/STM32L4xx_HAL_Driver/Inc/stm32l4xx_ll_exti.h **** #define LL_EXTI_LINE_35                EXTI_IMR2_IM35          /*!< Extended line 35 */
 158:Drivers/STM32L4xx_HAL_Driver/Inc/stm32l4xx_ll_exti.h **** #endif
 159:Drivers/STM32L4xx_HAL_Driver/Inc/stm32l4xx_ll_exti.h **** #if defined(EXTI_IMR2_IM36)
 160:Drivers/STM32L4xx_HAL_Driver/Inc/stm32l4xx_ll_exti.h **** #define LL_EXTI_LINE_36                EXTI_IMR2_IM36          /*!< Extended line 36 */
 161:Drivers/STM32L4xx_HAL_Driver/Inc/stm32l4xx_ll_exti.h **** #endif
 162:Drivers/STM32L4xx_HAL_Driver/Inc/stm32l4xx_ll_exti.h **** #if defined(EXTI_IMR2_IM37)
 163:Drivers/STM32L4xx_HAL_Driver/Inc/stm32l4xx_ll_exti.h **** #define LL_EXTI_LINE_37                EXTI_IMR2_IM37          /*!< Extended line 37 */
 164:Drivers/STM32L4xx_HAL_Driver/Inc/stm32l4xx_ll_exti.h **** #endif
 165:Drivers/STM32L4xx_HAL_Driver/Inc/stm32l4xx_ll_exti.h **** #if defined(EXTI_IMR2_IM38)
 166:Drivers/STM32L4xx_HAL_Driver/Inc/stm32l4xx_ll_exti.h **** #define LL_EXTI_LINE_38                EXTI_IMR2_IM38          /*!< Extended line 38 */
 167:Drivers/STM32L4xx_HAL_Driver/Inc/stm32l4xx_ll_exti.h **** #endif
 168:Drivers/STM32L4xx_HAL_Driver/Inc/stm32l4xx_ll_exti.h **** #if defined(EXTI_IMR2_IM39)
 169:Drivers/STM32L4xx_HAL_Driver/Inc/stm32l4xx_ll_exti.h **** #define LL_EXTI_LINE_39                EXTI_IMR2_IM39          /*!< Extended line 39 */
 170:Drivers/STM32L4xx_HAL_Driver/Inc/stm32l4xx_ll_exti.h **** #endif
 171:Drivers/STM32L4xx_HAL_Driver/Inc/stm32l4xx_ll_exti.h **** #if defined(EXTI_IMR2_IM40)
 172:Drivers/STM32L4xx_HAL_Driver/Inc/stm32l4xx_ll_exti.h **** #define LL_EXTI_LINE_40                EXTI_IMR2_IM40          /*!< Extended line 40 */
 173:Drivers/STM32L4xx_HAL_Driver/Inc/stm32l4xx_ll_exti.h **** #endif
 174:Drivers/STM32L4xx_HAL_Driver/Inc/stm32l4xx_ll_exti.h **** #define LL_EXTI_LINE_ALL_32_63         EXTI_IMR2_IM            /*!< All Extended line not reserved*
 175:Drivers/STM32L4xx_HAL_Driver/Inc/stm32l4xx_ll_exti.h **** 
 176:Drivers/STM32L4xx_HAL_Driver/Inc/stm32l4xx_ll_exti.h **** 
 177:Drivers/STM32L4xx_HAL_Driver/Inc/stm32l4xx_ll_exti.h **** #define LL_EXTI_LINE_ALL               (0xFFFFFFFFU)  /*!< All Extended line */
 178:Drivers/STM32L4xx_HAL_Driver/Inc/stm32l4xx_ll_exti.h **** 
 179:Drivers/STM32L4xx_HAL_Driver/Inc/stm32l4xx_ll_exti.h **** #if defined(USE_FULL_LL_DRIVER)
 180:Drivers/STM32L4xx_HAL_Driver/Inc/stm32l4xx_ll_exti.h **** #define LL_EXTI_LINE_NONE              (0x00000000U)  /*!< None Extended line */
 181:Drivers/STM32L4xx_HAL_Driver/Inc/stm32l4xx_ll_exti.h **** #endif /*USE_FULL_LL_DRIVER*/
 182:Drivers/STM32L4xx_HAL_Driver/Inc/stm32l4xx_ll_exti.h **** 
 183:Drivers/STM32L4xx_HAL_Driver/Inc/stm32l4xx_ll_exti.h **** /**
 184:Drivers/STM32L4xx_HAL_Driver/Inc/stm32l4xx_ll_exti.h ****   * @}
 185:Drivers/STM32L4xx_HAL_Driver/Inc/stm32l4xx_ll_exti.h ****   */
 186:Drivers/STM32L4xx_HAL_Driver/Inc/stm32l4xx_ll_exti.h **** 
 187:Drivers/STM32L4xx_HAL_Driver/Inc/stm32l4xx_ll_exti.h **** 
 188:Drivers/STM32L4xx_HAL_Driver/Inc/stm32l4xx_ll_exti.h **** #if defined(USE_FULL_LL_DRIVER)
 189:Drivers/STM32L4xx_HAL_Driver/Inc/stm32l4xx_ll_exti.h **** 
 190:Drivers/STM32L4xx_HAL_Driver/Inc/stm32l4xx_ll_exti.h **** /** @defgroup EXTI_LL_EC_MODE Mode
 191:Drivers/STM32L4xx_HAL_Driver/Inc/stm32l4xx_ll_exti.h ****   * @{
 192:Drivers/STM32L4xx_HAL_Driver/Inc/stm32l4xx_ll_exti.h ****   */
 193:Drivers/STM32L4xx_HAL_Driver/Inc/stm32l4xx_ll_exti.h **** #define LL_EXTI_MODE_IT                 ((uint8_t)0x00U) /*!< Interrupt Mode */
 194:Drivers/STM32L4xx_HAL_Driver/Inc/stm32l4xx_ll_exti.h **** #define LL_EXTI_MODE_EVENT              ((uint8_t)0x01U) /*!< Event Mode */
 195:Drivers/STM32L4xx_HAL_Driver/Inc/stm32l4xx_ll_exti.h **** #define LL_EXTI_MODE_IT_EVENT           ((uint8_t)0x02U) /*!< Interrupt & Event Mode */
 196:Drivers/STM32L4xx_HAL_Driver/Inc/stm32l4xx_ll_exti.h **** /**
ARM GAS  /tmp/cckJv99E.s 			page 5


 197:Drivers/STM32L4xx_HAL_Driver/Inc/stm32l4xx_ll_exti.h ****   * @}
 198:Drivers/STM32L4xx_HAL_Driver/Inc/stm32l4xx_ll_exti.h ****   */
 199:Drivers/STM32L4xx_HAL_Driver/Inc/stm32l4xx_ll_exti.h **** 
 200:Drivers/STM32L4xx_HAL_Driver/Inc/stm32l4xx_ll_exti.h **** /** @defgroup EXTI_LL_EC_TRIGGER Edge Trigger
 201:Drivers/STM32L4xx_HAL_Driver/Inc/stm32l4xx_ll_exti.h ****   * @{
 202:Drivers/STM32L4xx_HAL_Driver/Inc/stm32l4xx_ll_exti.h ****   */
 203:Drivers/STM32L4xx_HAL_Driver/Inc/stm32l4xx_ll_exti.h **** #define LL_EXTI_TRIGGER_NONE            ((uint8_t)0x00U) /*!< No Trigger Mode */
 204:Drivers/STM32L4xx_HAL_Driver/Inc/stm32l4xx_ll_exti.h **** #define LL_EXTI_TRIGGER_RISING          ((uint8_t)0x01U) /*!< Trigger Rising Mode */
 205:Drivers/STM32L4xx_HAL_Driver/Inc/stm32l4xx_ll_exti.h **** #define LL_EXTI_TRIGGER_FALLING         ((uint8_t)0x02U) /*!< Trigger Falling Mode */
 206:Drivers/STM32L4xx_HAL_Driver/Inc/stm32l4xx_ll_exti.h **** #define LL_EXTI_TRIGGER_RISING_FALLING  ((uint8_t)0x03U) /*!< Trigger Rising & Falling Mode */
 207:Drivers/STM32L4xx_HAL_Driver/Inc/stm32l4xx_ll_exti.h **** 
 208:Drivers/STM32L4xx_HAL_Driver/Inc/stm32l4xx_ll_exti.h **** /**
 209:Drivers/STM32L4xx_HAL_Driver/Inc/stm32l4xx_ll_exti.h ****   * @}
 210:Drivers/STM32L4xx_HAL_Driver/Inc/stm32l4xx_ll_exti.h ****   */
 211:Drivers/STM32L4xx_HAL_Driver/Inc/stm32l4xx_ll_exti.h **** 
 212:Drivers/STM32L4xx_HAL_Driver/Inc/stm32l4xx_ll_exti.h **** 
 213:Drivers/STM32L4xx_HAL_Driver/Inc/stm32l4xx_ll_exti.h **** #endif /*USE_FULL_LL_DRIVER*/
 214:Drivers/STM32L4xx_HAL_Driver/Inc/stm32l4xx_ll_exti.h **** 
 215:Drivers/STM32L4xx_HAL_Driver/Inc/stm32l4xx_ll_exti.h **** 
 216:Drivers/STM32L4xx_HAL_Driver/Inc/stm32l4xx_ll_exti.h **** /**
 217:Drivers/STM32L4xx_HAL_Driver/Inc/stm32l4xx_ll_exti.h ****   * @}
 218:Drivers/STM32L4xx_HAL_Driver/Inc/stm32l4xx_ll_exti.h ****   */
 219:Drivers/STM32L4xx_HAL_Driver/Inc/stm32l4xx_ll_exti.h **** 
 220:Drivers/STM32L4xx_HAL_Driver/Inc/stm32l4xx_ll_exti.h **** /* Exported macro ------------------------------------------------------------*/
 221:Drivers/STM32L4xx_HAL_Driver/Inc/stm32l4xx_ll_exti.h **** /** @defgroup EXTI_LL_Exported_Macros EXTI Exported Macros
 222:Drivers/STM32L4xx_HAL_Driver/Inc/stm32l4xx_ll_exti.h ****   * @{
 223:Drivers/STM32L4xx_HAL_Driver/Inc/stm32l4xx_ll_exti.h ****   */
 224:Drivers/STM32L4xx_HAL_Driver/Inc/stm32l4xx_ll_exti.h **** 
 225:Drivers/STM32L4xx_HAL_Driver/Inc/stm32l4xx_ll_exti.h **** /** @defgroup EXTI_LL_EM_WRITE_READ Common Write and read registers Macros
 226:Drivers/STM32L4xx_HAL_Driver/Inc/stm32l4xx_ll_exti.h ****   * @{
 227:Drivers/STM32L4xx_HAL_Driver/Inc/stm32l4xx_ll_exti.h ****   */
 228:Drivers/STM32L4xx_HAL_Driver/Inc/stm32l4xx_ll_exti.h **** 
 229:Drivers/STM32L4xx_HAL_Driver/Inc/stm32l4xx_ll_exti.h **** /**
 230:Drivers/STM32L4xx_HAL_Driver/Inc/stm32l4xx_ll_exti.h ****   * @brief  Write a value in EXTI register
 231:Drivers/STM32L4xx_HAL_Driver/Inc/stm32l4xx_ll_exti.h ****   * @param  __REG__ Register to be written
 232:Drivers/STM32L4xx_HAL_Driver/Inc/stm32l4xx_ll_exti.h ****   * @param  __VALUE__ Value to be written in the register
 233:Drivers/STM32L4xx_HAL_Driver/Inc/stm32l4xx_ll_exti.h ****   * @retval None
 234:Drivers/STM32L4xx_HAL_Driver/Inc/stm32l4xx_ll_exti.h ****   */
 235:Drivers/STM32L4xx_HAL_Driver/Inc/stm32l4xx_ll_exti.h **** #define LL_EXTI_WriteReg(__REG__, __VALUE__) WRITE_REG(EXTI->__REG__, (__VALUE__))
 236:Drivers/STM32L4xx_HAL_Driver/Inc/stm32l4xx_ll_exti.h **** 
 237:Drivers/STM32L4xx_HAL_Driver/Inc/stm32l4xx_ll_exti.h **** /**
 238:Drivers/STM32L4xx_HAL_Driver/Inc/stm32l4xx_ll_exti.h ****   * @brief  Read a value in EXTI register
 239:Drivers/STM32L4xx_HAL_Driver/Inc/stm32l4xx_ll_exti.h ****   * @param  __REG__ Register to be read
 240:Drivers/STM32L4xx_HAL_Driver/Inc/stm32l4xx_ll_exti.h ****   * @retval Register value
 241:Drivers/STM32L4xx_HAL_Driver/Inc/stm32l4xx_ll_exti.h ****   */
 242:Drivers/STM32L4xx_HAL_Driver/Inc/stm32l4xx_ll_exti.h **** #define LL_EXTI_ReadReg(__REG__) READ_REG(EXTI->__REG__)
 243:Drivers/STM32L4xx_HAL_Driver/Inc/stm32l4xx_ll_exti.h **** /**
 244:Drivers/STM32L4xx_HAL_Driver/Inc/stm32l4xx_ll_exti.h ****   * @}
 245:Drivers/STM32L4xx_HAL_Driver/Inc/stm32l4xx_ll_exti.h ****   */
 246:Drivers/STM32L4xx_HAL_Driver/Inc/stm32l4xx_ll_exti.h **** 
 247:Drivers/STM32L4xx_HAL_Driver/Inc/stm32l4xx_ll_exti.h **** 
 248:Drivers/STM32L4xx_HAL_Driver/Inc/stm32l4xx_ll_exti.h **** /**
 249:Drivers/STM32L4xx_HAL_Driver/Inc/stm32l4xx_ll_exti.h ****   * @}
 250:Drivers/STM32L4xx_HAL_Driver/Inc/stm32l4xx_ll_exti.h ****   */
 251:Drivers/STM32L4xx_HAL_Driver/Inc/stm32l4xx_ll_exti.h **** 
 252:Drivers/STM32L4xx_HAL_Driver/Inc/stm32l4xx_ll_exti.h **** 
 253:Drivers/STM32L4xx_HAL_Driver/Inc/stm32l4xx_ll_exti.h **** 
ARM GAS  /tmp/cckJv99E.s 			page 6


 254:Drivers/STM32L4xx_HAL_Driver/Inc/stm32l4xx_ll_exti.h **** /* Exported functions --------------------------------------------------------*/
 255:Drivers/STM32L4xx_HAL_Driver/Inc/stm32l4xx_ll_exti.h **** /** @defgroup EXTI_LL_Exported_Functions EXTI Exported Functions
 256:Drivers/STM32L4xx_HAL_Driver/Inc/stm32l4xx_ll_exti.h ****  * @{
 257:Drivers/STM32L4xx_HAL_Driver/Inc/stm32l4xx_ll_exti.h ****  */
 258:Drivers/STM32L4xx_HAL_Driver/Inc/stm32l4xx_ll_exti.h **** /** @defgroup EXTI_LL_EF_IT_Management IT_Management
 259:Drivers/STM32L4xx_HAL_Driver/Inc/stm32l4xx_ll_exti.h ****   * @{
 260:Drivers/STM32L4xx_HAL_Driver/Inc/stm32l4xx_ll_exti.h ****   */
 261:Drivers/STM32L4xx_HAL_Driver/Inc/stm32l4xx_ll_exti.h **** 
 262:Drivers/STM32L4xx_HAL_Driver/Inc/stm32l4xx_ll_exti.h **** /**
 263:Drivers/STM32L4xx_HAL_Driver/Inc/stm32l4xx_ll_exti.h ****   * @brief  Enable ExtiLine Interrupt request for Lines in range 0 to 31
 264:Drivers/STM32L4xx_HAL_Driver/Inc/stm32l4xx_ll_exti.h ****   * @note The reset value for the direct or internal lines (see RM)
 265:Drivers/STM32L4xx_HAL_Driver/Inc/stm32l4xx_ll_exti.h ****   *       is set to 1 in order to enable the interrupt by default.
 266:Drivers/STM32L4xx_HAL_Driver/Inc/stm32l4xx_ll_exti.h ****   *       Bits are set automatically at Power on.
 267:Drivers/STM32L4xx_HAL_Driver/Inc/stm32l4xx_ll_exti.h ****   * @rmtoll IMR1         IMx           LL_EXTI_EnableIT_0_31
 268:Drivers/STM32L4xx_HAL_Driver/Inc/stm32l4xx_ll_exti.h ****   * @param  ExtiLine This parameter can be one of the following values:
 269:Drivers/STM32L4xx_HAL_Driver/Inc/stm32l4xx_ll_exti.h ****   *         @arg @ref LL_EXTI_LINE_0
 270:Drivers/STM32L4xx_HAL_Driver/Inc/stm32l4xx_ll_exti.h ****   *         @arg @ref LL_EXTI_LINE_1
 271:Drivers/STM32L4xx_HAL_Driver/Inc/stm32l4xx_ll_exti.h ****   *         @arg @ref LL_EXTI_LINE_2
 272:Drivers/STM32L4xx_HAL_Driver/Inc/stm32l4xx_ll_exti.h ****   *         @arg @ref LL_EXTI_LINE_3
 273:Drivers/STM32L4xx_HAL_Driver/Inc/stm32l4xx_ll_exti.h ****   *         @arg @ref LL_EXTI_LINE_4
 274:Drivers/STM32L4xx_HAL_Driver/Inc/stm32l4xx_ll_exti.h ****   *         @arg @ref LL_EXTI_LINE_5
 275:Drivers/STM32L4xx_HAL_Driver/Inc/stm32l4xx_ll_exti.h ****   *         @arg @ref LL_EXTI_LINE_6
 276:Drivers/STM32L4xx_HAL_Driver/Inc/stm32l4xx_ll_exti.h ****   *         @arg @ref LL_EXTI_LINE_7
 277:Drivers/STM32L4xx_HAL_Driver/Inc/stm32l4xx_ll_exti.h ****   *         @arg @ref LL_EXTI_LINE_8
 278:Drivers/STM32L4xx_HAL_Driver/Inc/stm32l4xx_ll_exti.h ****   *         @arg @ref LL_EXTI_LINE_9
 279:Drivers/STM32L4xx_HAL_Driver/Inc/stm32l4xx_ll_exti.h ****   *         @arg @ref LL_EXTI_LINE_10
 280:Drivers/STM32L4xx_HAL_Driver/Inc/stm32l4xx_ll_exti.h ****   *         @arg @ref LL_EXTI_LINE_11
 281:Drivers/STM32L4xx_HAL_Driver/Inc/stm32l4xx_ll_exti.h ****   *         @arg @ref LL_EXTI_LINE_12
 282:Drivers/STM32L4xx_HAL_Driver/Inc/stm32l4xx_ll_exti.h ****   *         @arg @ref LL_EXTI_LINE_13
 283:Drivers/STM32L4xx_HAL_Driver/Inc/stm32l4xx_ll_exti.h ****   *         @arg @ref LL_EXTI_LINE_14
 284:Drivers/STM32L4xx_HAL_Driver/Inc/stm32l4xx_ll_exti.h ****   *         @arg @ref LL_EXTI_LINE_15
 285:Drivers/STM32L4xx_HAL_Driver/Inc/stm32l4xx_ll_exti.h ****   *         @arg @ref LL_EXTI_LINE_16
 286:Drivers/STM32L4xx_HAL_Driver/Inc/stm32l4xx_ll_exti.h ****   *         @arg @ref LL_EXTI_LINE_17
 287:Drivers/STM32L4xx_HAL_Driver/Inc/stm32l4xx_ll_exti.h ****   *         @arg @ref LL_EXTI_LINE_18
 288:Drivers/STM32L4xx_HAL_Driver/Inc/stm32l4xx_ll_exti.h ****   *         @arg @ref LL_EXTI_LINE_19
 289:Drivers/STM32L4xx_HAL_Driver/Inc/stm32l4xx_ll_exti.h ****   *         @arg @ref LL_EXTI_LINE_20
 290:Drivers/STM32L4xx_HAL_Driver/Inc/stm32l4xx_ll_exti.h ****   *         @arg @ref LL_EXTI_LINE_21
 291:Drivers/STM32L4xx_HAL_Driver/Inc/stm32l4xx_ll_exti.h ****   *         @arg @ref LL_EXTI_LINE_22
 292:Drivers/STM32L4xx_HAL_Driver/Inc/stm32l4xx_ll_exti.h ****   *         @arg @ref LL_EXTI_LINE_23
 293:Drivers/STM32L4xx_HAL_Driver/Inc/stm32l4xx_ll_exti.h ****   *         @arg @ref LL_EXTI_LINE_24
 294:Drivers/STM32L4xx_HAL_Driver/Inc/stm32l4xx_ll_exti.h ****   *         @arg @ref LL_EXTI_LINE_25
 295:Drivers/STM32L4xx_HAL_Driver/Inc/stm32l4xx_ll_exti.h ****   *         @arg @ref LL_EXTI_LINE_26
 296:Drivers/STM32L4xx_HAL_Driver/Inc/stm32l4xx_ll_exti.h ****   *         @arg @ref LL_EXTI_LINE_27
 297:Drivers/STM32L4xx_HAL_Driver/Inc/stm32l4xx_ll_exti.h ****   *         @arg @ref LL_EXTI_LINE_28
 298:Drivers/STM32L4xx_HAL_Driver/Inc/stm32l4xx_ll_exti.h ****   *         @arg @ref LL_EXTI_LINE_29
 299:Drivers/STM32L4xx_HAL_Driver/Inc/stm32l4xx_ll_exti.h ****   *         @arg @ref LL_EXTI_LINE_30
 300:Drivers/STM32L4xx_HAL_Driver/Inc/stm32l4xx_ll_exti.h ****   *         @arg @ref LL_EXTI_LINE_31
 301:Drivers/STM32L4xx_HAL_Driver/Inc/stm32l4xx_ll_exti.h ****   *         @arg @ref LL_EXTI_LINE_ALL_0_31
 302:Drivers/STM32L4xx_HAL_Driver/Inc/stm32l4xx_ll_exti.h ****   * @note   Please check each device line mapping for EXTI Line availability
 303:Drivers/STM32L4xx_HAL_Driver/Inc/stm32l4xx_ll_exti.h ****   * @retval None
 304:Drivers/STM32L4xx_HAL_Driver/Inc/stm32l4xx_ll_exti.h ****   */
 305:Drivers/STM32L4xx_HAL_Driver/Inc/stm32l4xx_ll_exti.h **** __STATIC_INLINE void LL_EXTI_EnableIT_0_31(uint32_t ExtiLine)
 306:Drivers/STM32L4xx_HAL_Driver/Inc/stm32l4xx_ll_exti.h **** {
  35              		.loc 2 306 1
  36              		.cfi_startproc
  37              		@ args = 0, pretend = 0, frame = 8
  38              		@ frame_needed = 1, uses_anonymous_args = 0
ARM GAS  /tmp/cckJv99E.s 			page 7


  39              		@ link register save eliminated.
  40 0000 80B4     		push	{r7}
  41              		.cfi_def_cfa_offset 4
  42              		.cfi_offset 7, -4
  43 0002 83B0     		sub	sp, sp, #12
  44              		.cfi_def_cfa_offset 16
  45 0004 00AF     		add	r7, sp, #0
  46              		.cfi_def_cfa_register 7
  47 0006 7860     		str	r0, [r7, #4]
 307:Drivers/STM32L4xx_HAL_Driver/Inc/stm32l4xx_ll_exti.h ****   SET_BIT(EXTI->IMR1, ExtiLine);
  48              		.loc 2 307 3
  49 0008 054B     		ldr	r3, .L2
  50 000a 1A68     		ldr	r2, [r3]
  51 000c 0449     		ldr	r1, .L2
  52 000e 7B68     		ldr	r3, [r7, #4]
  53 0010 1343     		orrs	r3, r3, r2
  54 0012 0B60     		str	r3, [r1]
 308:Drivers/STM32L4xx_HAL_Driver/Inc/stm32l4xx_ll_exti.h **** }
  55              		.loc 2 308 1
  56 0014 00BF     		nop
  57 0016 0C37     		adds	r7, r7, #12
  58              		.cfi_def_cfa_offset 4
  59 0018 BD46     		mov	sp, r7
  60              		.cfi_def_cfa_register 13
  61              		@ sp needed
  62 001a 5DF8047B 		ldr	r7, [sp], #4
  63              		.cfi_restore 7
  64              		.cfi_def_cfa_offset 0
  65 001e 7047     		bx	lr
  66              	.L3:
  67              		.align	2
  68              	.L2:
  69 0020 00040140 		.word	1073808384
  70              		.cfi_endproc
  71              	.LFE413:
  73              		.section	.text.LL_EXTI_DisableIT_0_31,"ax",%progbits
  74              		.align	1
  75              		.syntax unified
  76              		.thumb
  77              		.thumb_func
  79              	LL_EXTI_DisableIT_0_31:
  80              	.LFB415:
 309:Drivers/STM32L4xx_HAL_Driver/Inc/stm32l4xx_ll_exti.h **** /**
 310:Drivers/STM32L4xx_HAL_Driver/Inc/stm32l4xx_ll_exti.h ****   * @brief  Enable ExtiLine Interrupt request for Lines in range 32 to 63
 311:Drivers/STM32L4xx_HAL_Driver/Inc/stm32l4xx_ll_exti.h ****   * @note The reset value for the direct lines (lines from 32 to 34, line
 312:Drivers/STM32L4xx_HAL_Driver/Inc/stm32l4xx_ll_exti.h ****   *       39) is set to 1 in order to enable the interrupt by default.
 313:Drivers/STM32L4xx_HAL_Driver/Inc/stm32l4xx_ll_exti.h ****   *       Bits are set automatically at Power on.
 314:Drivers/STM32L4xx_HAL_Driver/Inc/stm32l4xx_ll_exti.h ****   * @rmtoll IMR2         IMx           LL_EXTI_EnableIT_32_63
 315:Drivers/STM32L4xx_HAL_Driver/Inc/stm32l4xx_ll_exti.h ****   * @param  ExtiLine This parameter can be one of the following values:
 316:Drivers/STM32L4xx_HAL_Driver/Inc/stm32l4xx_ll_exti.h ****   *         @arg @ref LL_EXTI_LINE_32
 317:Drivers/STM32L4xx_HAL_Driver/Inc/stm32l4xx_ll_exti.h ****   *         @arg @ref LL_EXTI_LINE_33
 318:Drivers/STM32L4xx_HAL_Driver/Inc/stm32l4xx_ll_exti.h ****   *         @arg @ref LL_EXTI_LINE_34(*)
 319:Drivers/STM32L4xx_HAL_Driver/Inc/stm32l4xx_ll_exti.h ****   *         @arg @ref LL_EXTI_LINE_35
 320:Drivers/STM32L4xx_HAL_Driver/Inc/stm32l4xx_ll_exti.h ****   *         @arg @ref LL_EXTI_LINE_36
 321:Drivers/STM32L4xx_HAL_Driver/Inc/stm32l4xx_ll_exti.h ****   *         @arg @ref LL_EXTI_LINE_37
 322:Drivers/STM32L4xx_HAL_Driver/Inc/stm32l4xx_ll_exti.h ****   *         @arg @ref LL_EXTI_LINE_38
 323:Drivers/STM32L4xx_HAL_Driver/Inc/stm32l4xx_ll_exti.h ****   *         @arg @ref LL_EXTI_LINE_39(*)
ARM GAS  /tmp/cckJv99E.s 			page 8


 324:Drivers/STM32L4xx_HAL_Driver/Inc/stm32l4xx_ll_exti.h ****   *         @arg @ref LL_EXTI_LINE_40(*)
 325:Drivers/STM32L4xx_HAL_Driver/Inc/stm32l4xx_ll_exti.h ****   *         @arg @ref LL_EXTI_LINE_ALL_32_63
 326:Drivers/STM32L4xx_HAL_Driver/Inc/stm32l4xx_ll_exti.h ****   * @note   (*): Available in some devices
 327:Drivers/STM32L4xx_HAL_Driver/Inc/stm32l4xx_ll_exti.h ****   * @retval None
 328:Drivers/STM32L4xx_HAL_Driver/Inc/stm32l4xx_ll_exti.h ****   */
 329:Drivers/STM32L4xx_HAL_Driver/Inc/stm32l4xx_ll_exti.h **** __STATIC_INLINE void LL_EXTI_EnableIT_32_63(uint32_t ExtiLine)
 330:Drivers/STM32L4xx_HAL_Driver/Inc/stm32l4xx_ll_exti.h **** {
 331:Drivers/STM32L4xx_HAL_Driver/Inc/stm32l4xx_ll_exti.h ****   SET_BIT(EXTI->IMR2, ExtiLine);
 332:Drivers/STM32L4xx_HAL_Driver/Inc/stm32l4xx_ll_exti.h **** }
 333:Drivers/STM32L4xx_HAL_Driver/Inc/stm32l4xx_ll_exti.h **** 
 334:Drivers/STM32L4xx_HAL_Driver/Inc/stm32l4xx_ll_exti.h **** /**
 335:Drivers/STM32L4xx_HAL_Driver/Inc/stm32l4xx_ll_exti.h ****   * @brief  Disable ExtiLine Interrupt request for Lines in range 0 to 31
 336:Drivers/STM32L4xx_HAL_Driver/Inc/stm32l4xx_ll_exti.h ****   * @note The reset value for the direct or internal lines (see RM)
 337:Drivers/STM32L4xx_HAL_Driver/Inc/stm32l4xx_ll_exti.h ****   *       is set to 1 in order to enable the interrupt by default.
 338:Drivers/STM32L4xx_HAL_Driver/Inc/stm32l4xx_ll_exti.h ****   *       Bits are set automatically at Power on.
 339:Drivers/STM32L4xx_HAL_Driver/Inc/stm32l4xx_ll_exti.h ****   * @rmtoll IMR1         IMx           LL_EXTI_DisableIT_0_31
 340:Drivers/STM32L4xx_HAL_Driver/Inc/stm32l4xx_ll_exti.h ****   * @param  ExtiLine This parameter can be one of the following values:
 341:Drivers/STM32L4xx_HAL_Driver/Inc/stm32l4xx_ll_exti.h ****   *         @arg @ref LL_EXTI_LINE_0
 342:Drivers/STM32L4xx_HAL_Driver/Inc/stm32l4xx_ll_exti.h ****   *         @arg @ref LL_EXTI_LINE_1
 343:Drivers/STM32L4xx_HAL_Driver/Inc/stm32l4xx_ll_exti.h ****   *         @arg @ref LL_EXTI_LINE_2
 344:Drivers/STM32L4xx_HAL_Driver/Inc/stm32l4xx_ll_exti.h ****   *         @arg @ref LL_EXTI_LINE_3
 345:Drivers/STM32L4xx_HAL_Driver/Inc/stm32l4xx_ll_exti.h ****   *         @arg @ref LL_EXTI_LINE_4
 346:Drivers/STM32L4xx_HAL_Driver/Inc/stm32l4xx_ll_exti.h ****   *         @arg @ref LL_EXTI_LINE_5
 347:Drivers/STM32L4xx_HAL_Driver/Inc/stm32l4xx_ll_exti.h ****   *         @arg @ref LL_EXTI_LINE_6
 348:Drivers/STM32L4xx_HAL_Driver/Inc/stm32l4xx_ll_exti.h ****   *         @arg @ref LL_EXTI_LINE_7
 349:Drivers/STM32L4xx_HAL_Driver/Inc/stm32l4xx_ll_exti.h ****   *         @arg @ref LL_EXTI_LINE_8
 350:Drivers/STM32L4xx_HAL_Driver/Inc/stm32l4xx_ll_exti.h ****   *         @arg @ref LL_EXTI_LINE_9
 351:Drivers/STM32L4xx_HAL_Driver/Inc/stm32l4xx_ll_exti.h ****   *         @arg @ref LL_EXTI_LINE_10
 352:Drivers/STM32L4xx_HAL_Driver/Inc/stm32l4xx_ll_exti.h ****   *         @arg @ref LL_EXTI_LINE_11
 353:Drivers/STM32L4xx_HAL_Driver/Inc/stm32l4xx_ll_exti.h ****   *         @arg @ref LL_EXTI_LINE_12
 354:Drivers/STM32L4xx_HAL_Driver/Inc/stm32l4xx_ll_exti.h ****   *         @arg @ref LL_EXTI_LINE_13
 355:Drivers/STM32L4xx_HAL_Driver/Inc/stm32l4xx_ll_exti.h ****   *         @arg @ref LL_EXTI_LINE_14
 356:Drivers/STM32L4xx_HAL_Driver/Inc/stm32l4xx_ll_exti.h ****   *         @arg @ref LL_EXTI_LINE_15
 357:Drivers/STM32L4xx_HAL_Driver/Inc/stm32l4xx_ll_exti.h ****   *         @arg @ref LL_EXTI_LINE_16
 358:Drivers/STM32L4xx_HAL_Driver/Inc/stm32l4xx_ll_exti.h ****   *         @arg @ref LL_EXTI_LINE_17
 359:Drivers/STM32L4xx_HAL_Driver/Inc/stm32l4xx_ll_exti.h ****   *         @arg @ref LL_EXTI_LINE_18
 360:Drivers/STM32L4xx_HAL_Driver/Inc/stm32l4xx_ll_exti.h ****   *         @arg @ref LL_EXTI_LINE_19
 361:Drivers/STM32L4xx_HAL_Driver/Inc/stm32l4xx_ll_exti.h ****   *         @arg @ref LL_EXTI_LINE_20
 362:Drivers/STM32L4xx_HAL_Driver/Inc/stm32l4xx_ll_exti.h ****   *         @arg @ref LL_EXTI_LINE_21
 363:Drivers/STM32L4xx_HAL_Driver/Inc/stm32l4xx_ll_exti.h ****   *         @arg @ref LL_EXTI_LINE_22
 364:Drivers/STM32L4xx_HAL_Driver/Inc/stm32l4xx_ll_exti.h ****   *         @arg @ref LL_EXTI_LINE_23
 365:Drivers/STM32L4xx_HAL_Driver/Inc/stm32l4xx_ll_exti.h ****   *         @arg @ref LL_EXTI_LINE_24
 366:Drivers/STM32L4xx_HAL_Driver/Inc/stm32l4xx_ll_exti.h ****   *         @arg @ref LL_EXTI_LINE_25
 367:Drivers/STM32L4xx_HAL_Driver/Inc/stm32l4xx_ll_exti.h ****   *         @arg @ref LL_EXTI_LINE_26
 368:Drivers/STM32L4xx_HAL_Driver/Inc/stm32l4xx_ll_exti.h ****   *         @arg @ref LL_EXTI_LINE_27
 369:Drivers/STM32L4xx_HAL_Driver/Inc/stm32l4xx_ll_exti.h ****   *         @arg @ref LL_EXTI_LINE_28
 370:Drivers/STM32L4xx_HAL_Driver/Inc/stm32l4xx_ll_exti.h ****   *         @arg @ref LL_EXTI_LINE_29
 371:Drivers/STM32L4xx_HAL_Driver/Inc/stm32l4xx_ll_exti.h ****   *         @arg @ref LL_EXTI_LINE_30
 372:Drivers/STM32L4xx_HAL_Driver/Inc/stm32l4xx_ll_exti.h ****   *         @arg @ref LL_EXTI_LINE_31
 373:Drivers/STM32L4xx_HAL_Driver/Inc/stm32l4xx_ll_exti.h ****   *         @arg @ref LL_EXTI_LINE_ALL_0_31
 374:Drivers/STM32L4xx_HAL_Driver/Inc/stm32l4xx_ll_exti.h ****   * @note   Please check each device line mapping for EXTI Line availability
 375:Drivers/STM32L4xx_HAL_Driver/Inc/stm32l4xx_ll_exti.h ****   * @retval None
 376:Drivers/STM32L4xx_HAL_Driver/Inc/stm32l4xx_ll_exti.h ****   */
 377:Drivers/STM32L4xx_HAL_Driver/Inc/stm32l4xx_ll_exti.h **** __STATIC_INLINE void LL_EXTI_DisableIT_0_31(uint32_t ExtiLine)
 378:Drivers/STM32L4xx_HAL_Driver/Inc/stm32l4xx_ll_exti.h **** {
  81              		.loc 2 378 1
  82              		.cfi_startproc
ARM GAS  /tmp/cckJv99E.s 			page 9


  83              		@ args = 0, pretend = 0, frame = 8
  84              		@ frame_needed = 1, uses_anonymous_args = 0
  85              		@ link register save eliminated.
  86 0000 80B4     		push	{r7}
  87              		.cfi_def_cfa_offset 4
  88              		.cfi_offset 7, -4
  89 0002 83B0     		sub	sp, sp, #12
  90              		.cfi_def_cfa_offset 16
  91 0004 00AF     		add	r7, sp, #0
  92              		.cfi_def_cfa_register 7
  93 0006 7860     		str	r0, [r7, #4]
 379:Drivers/STM32L4xx_HAL_Driver/Inc/stm32l4xx_ll_exti.h ****   CLEAR_BIT(EXTI->IMR1, ExtiLine);
  94              		.loc 2 379 3
  95 0008 064B     		ldr	r3, .L5
  96 000a 1A68     		ldr	r2, [r3]
  97 000c 7B68     		ldr	r3, [r7, #4]
  98 000e DB43     		mvns	r3, r3
  99 0010 0449     		ldr	r1, .L5
 100 0012 1340     		ands	r3, r3, r2
 101 0014 0B60     		str	r3, [r1]
 380:Drivers/STM32L4xx_HAL_Driver/Inc/stm32l4xx_ll_exti.h **** }
 102              		.loc 2 380 1
 103 0016 00BF     		nop
 104 0018 0C37     		adds	r7, r7, #12
 105              		.cfi_def_cfa_offset 4
 106 001a BD46     		mov	sp, r7
 107              		.cfi_def_cfa_register 13
 108              		@ sp needed
 109 001c 5DF8047B 		ldr	r7, [sp], #4
 110              		.cfi_restore 7
 111              		.cfi_def_cfa_offset 0
 112 0020 7047     		bx	lr
 113              	.L6:
 114 0022 00BF     		.align	2
 115              	.L5:
 116 0024 00040140 		.word	1073808384
 117              		.cfi_endproc
 118              	.LFE415:
 120              		.section	.text.LL_EXTI_EnableEvent_0_31,"ax",%progbits
 121              		.align	1
 122              		.syntax unified
 123              		.thumb
 124              		.thumb_func
 126              	LL_EXTI_EnableEvent_0_31:
 127              	.LFB419:
 381:Drivers/STM32L4xx_HAL_Driver/Inc/stm32l4xx_ll_exti.h **** 
 382:Drivers/STM32L4xx_HAL_Driver/Inc/stm32l4xx_ll_exti.h **** /**
 383:Drivers/STM32L4xx_HAL_Driver/Inc/stm32l4xx_ll_exti.h ****   * @brief  Disable ExtiLine Interrupt request for Lines in range 32 to 63
 384:Drivers/STM32L4xx_HAL_Driver/Inc/stm32l4xx_ll_exti.h ****   * @note The reset value for the direct lines (lines from 32 to 34, line
 385:Drivers/STM32L4xx_HAL_Driver/Inc/stm32l4xx_ll_exti.h ****   *       39) is set to 1 in order to enable the interrupt by default.
 386:Drivers/STM32L4xx_HAL_Driver/Inc/stm32l4xx_ll_exti.h ****   *       Bits are set automatically at Power on.
 387:Drivers/STM32L4xx_HAL_Driver/Inc/stm32l4xx_ll_exti.h ****   * @rmtoll IMR2         IMx           LL_EXTI_DisableIT_32_63
 388:Drivers/STM32L4xx_HAL_Driver/Inc/stm32l4xx_ll_exti.h ****   * @param  ExtiLine This parameter can be one of the following values:
 389:Drivers/STM32L4xx_HAL_Driver/Inc/stm32l4xx_ll_exti.h ****   *         @arg @ref LL_EXTI_LINE_32
 390:Drivers/STM32L4xx_HAL_Driver/Inc/stm32l4xx_ll_exti.h ****   *         @arg @ref LL_EXTI_LINE_33
 391:Drivers/STM32L4xx_HAL_Driver/Inc/stm32l4xx_ll_exti.h ****   *         @arg @ref LL_EXTI_LINE_34(*)
 392:Drivers/STM32L4xx_HAL_Driver/Inc/stm32l4xx_ll_exti.h ****   *         @arg @ref LL_EXTI_LINE_35
ARM GAS  /tmp/cckJv99E.s 			page 10


 393:Drivers/STM32L4xx_HAL_Driver/Inc/stm32l4xx_ll_exti.h ****   *         @arg @ref LL_EXTI_LINE_36
 394:Drivers/STM32L4xx_HAL_Driver/Inc/stm32l4xx_ll_exti.h ****   *         @arg @ref LL_EXTI_LINE_37
 395:Drivers/STM32L4xx_HAL_Driver/Inc/stm32l4xx_ll_exti.h ****   *         @arg @ref LL_EXTI_LINE_38
 396:Drivers/STM32L4xx_HAL_Driver/Inc/stm32l4xx_ll_exti.h ****   *         @arg @ref LL_EXTI_LINE_39(*)
 397:Drivers/STM32L4xx_HAL_Driver/Inc/stm32l4xx_ll_exti.h ****   *         @arg @ref LL_EXTI_LINE_40(*)
 398:Drivers/STM32L4xx_HAL_Driver/Inc/stm32l4xx_ll_exti.h ****   *         @arg @ref LL_EXTI_LINE_ALL_32_63
 399:Drivers/STM32L4xx_HAL_Driver/Inc/stm32l4xx_ll_exti.h ****   * @note   (*): Available in some devices
 400:Drivers/STM32L4xx_HAL_Driver/Inc/stm32l4xx_ll_exti.h ****   * @retval None
 401:Drivers/STM32L4xx_HAL_Driver/Inc/stm32l4xx_ll_exti.h ****   */
 402:Drivers/STM32L4xx_HAL_Driver/Inc/stm32l4xx_ll_exti.h **** __STATIC_INLINE void LL_EXTI_DisableIT_32_63(uint32_t ExtiLine)
 403:Drivers/STM32L4xx_HAL_Driver/Inc/stm32l4xx_ll_exti.h **** {
 404:Drivers/STM32L4xx_HAL_Driver/Inc/stm32l4xx_ll_exti.h ****   CLEAR_BIT(EXTI->IMR2, ExtiLine);
 405:Drivers/STM32L4xx_HAL_Driver/Inc/stm32l4xx_ll_exti.h **** }
 406:Drivers/STM32L4xx_HAL_Driver/Inc/stm32l4xx_ll_exti.h **** 
 407:Drivers/STM32L4xx_HAL_Driver/Inc/stm32l4xx_ll_exti.h **** /**
 408:Drivers/STM32L4xx_HAL_Driver/Inc/stm32l4xx_ll_exti.h ****   * @brief  Indicate if ExtiLine Interrupt request is enabled for Lines in range 0 to 31
 409:Drivers/STM32L4xx_HAL_Driver/Inc/stm32l4xx_ll_exti.h ****   * @note The reset value for the direct or internal lines (see RM)
 410:Drivers/STM32L4xx_HAL_Driver/Inc/stm32l4xx_ll_exti.h ****   *       is set to 1 in order to enable the interrupt by default.
 411:Drivers/STM32L4xx_HAL_Driver/Inc/stm32l4xx_ll_exti.h ****   *       Bits are set automatically at Power on.
 412:Drivers/STM32L4xx_HAL_Driver/Inc/stm32l4xx_ll_exti.h ****   * @rmtoll IMR1         IMx           LL_EXTI_IsEnabledIT_0_31
 413:Drivers/STM32L4xx_HAL_Driver/Inc/stm32l4xx_ll_exti.h ****   * @param  ExtiLine This parameter can be one of the following values:
 414:Drivers/STM32L4xx_HAL_Driver/Inc/stm32l4xx_ll_exti.h ****   *         @arg @ref LL_EXTI_LINE_0
 415:Drivers/STM32L4xx_HAL_Driver/Inc/stm32l4xx_ll_exti.h ****   *         @arg @ref LL_EXTI_LINE_1
 416:Drivers/STM32L4xx_HAL_Driver/Inc/stm32l4xx_ll_exti.h ****   *         @arg @ref LL_EXTI_LINE_2
 417:Drivers/STM32L4xx_HAL_Driver/Inc/stm32l4xx_ll_exti.h ****   *         @arg @ref LL_EXTI_LINE_3
 418:Drivers/STM32L4xx_HAL_Driver/Inc/stm32l4xx_ll_exti.h ****   *         @arg @ref LL_EXTI_LINE_4
 419:Drivers/STM32L4xx_HAL_Driver/Inc/stm32l4xx_ll_exti.h ****   *         @arg @ref LL_EXTI_LINE_5
 420:Drivers/STM32L4xx_HAL_Driver/Inc/stm32l4xx_ll_exti.h ****   *         @arg @ref LL_EXTI_LINE_6
 421:Drivers/STM32L4xx_HAL_Driver/Inc/stm32l4xx_ll_exti.h ****   *         @arg @ref LL_EXTI_LINE_7
 422:Drivers/STM32L4xx_HAL_Driver/Inc/stm32l4xx_ll_exti.h ****   *         @arg @ref LL_EXTI_LINE_8
 423:Drivers/STM32L4xx_HAL_Driver/Inc/stm32l4xx_ll_exti.h ****   *         @arg @ref LL_EXTI_LINE_9
 424:Drivers/STM32L4xx_HAL_Driver/Inc/stm32l4xx_ll_exti.h ****   *         @arg @ref LL_EXTI_LINE_10
 425:Drivers/STM32L4xx_HAL_Driver/Inc/stm32l4xx_ll_exti.h ****   *         @arg @ref LL_EXTI_LINE_11
 426:Drivers/STM32L4xx_HAL_Driver/Inc/stm32l4xx_ll_exti.h ****   *         @arg @ref LL_EXTI_LINE_12
 427:Drivers/STM32L4xx_HAL_Driver/Inc/stm32l4xx_ll_exti.h ****   *         @arg @ref LL_EXTI_LINE_13
 428:Drivers/STM32L4xx_HAL_Driver/Inc/stm32l4xx_ll_exti.h ****   *         @arg @ref LL_EXTI_LINE_14
 429:Drivers/STM32L4xx_HAL_Driver/Inc/stm32l4xx_ll_exti.h ****   *         @arg @ref LL_EXTI_LINE_15
 430:Drivers/STM32L4xx_HAL_Driver/Inc/stm32l4xx_ll_exti.h ****   *         @arg @ref LL_EXTI_LINE_16
 431:Drivers/STM32L4xx_HAL_Driver/Inc/stm32l4xx_ll_exti.h ****   *         @arg @ref LL_EXTI_LINE_17
 432:Drivers/STM32L4xx_HAL_Driver/Inc/stm32l4xx_ll_exti.h ****   *         @arg @ref LL_EXTI_LINE_18
 433:Drivers/STM32L4xx_HAL_Driver/Inc/stm32l4xx_ll_exti.h ****   *         @arg @ref LL_EXTI_LINE_19
 434:Drivers/STM32L4xx_HAL_Driver/Inc/stm32l4xx_ll_exti.h ****   *         @arg @ref LL_EXTI_LINE_20
 435:Drivers/STM32L4xx_HAL_Driver/Inc/stm32l4xx_ll_exti.h ****   *         @arg @ref LL_EXTI_LINE_21
 436:Drivers/STM32L4xx_HAL_Driver/Inc/stm32l4xx_ll_exti.h ****   *         @arg @ref LL_EXTI_LINE_22
 437:Drivers/STM32L4xx_HAL_Driver/Inc/stm32l4xx_ll_exti.h ****   *         @arg @ref LL_EXTI_LINE_23
 438:Drivers/STM32L4xx_HAL_Driver/Inc/stm32l4xx_ll_exti.h ****   *         @arg @ref LL_EXTI_LINE_24
 439:Drivers/STM32L4xx_HAL_Driver/Inc/stm32l4xx_ll_exti.h ****   *         @arg @ref LL_EXTI_LINE_25
 440:Drivers/STM32L4xx_HAL_Driver/Inc/stm32l4xx_ll_exti.h ****   *         @arg @ref LL_EXTI_LINE_26
 441:Drivers/STM32L4xx_HAL_Driver/Inc/stm32l4xx_ll_exti.h ****   *         @arg @ref LL_EXTI_LINE_27
 442:Drivers/STM32L4xx_HAL_Driver/Inc/stm32l4xx_ll_exti.h ****   *         @arg @ref LL_EXTI_LINE_28
 443:Drivers/STM32L4xx_HAL_Driver/Inc/stm32l4xx_ll_exti.h ****   *         @arg @ref LL_EXTI_LINE_29
 444:Drivers/STM32L4xx_HAL_Driver/Inc/stm32l4xx_ll_exti.h ****   *         @arg @ref LL_EXTI_LINE_30
 445:Drivers/STM32L4xx_HAL_Driver/Inc/stm32l4xx_ll_exti.h ****   *         @arg @ref LL_EXTI_LINE_31
 446:Drivers/STM32L4xx_HAL_Driver/Inc/stm32l4xx_ll_exti.h ****   *         @arg @ref LL_EXTI_LINE_ALL_0_31
 447:Drivers/STM32L4xx_HAL_Driver/Inc/stm32l4xx_ll_exti.h ****   * @note   Please check each device line mapping for EXTI Line availability
 448:Drivers/STM32L4xx_HAL_Driver/Inc/stm32l4xx_ll_exti.h ****   * @retval State of bit (1 or 0).
 449:Drivers/STM32L4xx_HAL_Driver/Inc/stm32l4xx_ll_exti.h ****   */
ARM GAS  /tmp/cckJv99E.s 			page 11


 450:Drivers/STM32L4xx_HAL_Driver/Inc/stm32l4xx_ll_exti.h **** __STATIC_INLINE uint32_t LL_EXTI_IsEnabledIT_0_31(uint32_t ExtiLine)
 451:Drivers/STM32L4xx_HAL_Driver/Inc/stm32l4xx_ll_exti.h **** {
 452:Drivers/STM32L4xx_HAL_Driver/Inc/stm32l4xx_ll_exti.h ****   return ((READ_BIT(EXTI->IMR1, ExtiLine) == (ExtiLine)) ? 1UL : 0UL);
 453:Drivers/STM32L4xx_HAL_Driver/Inc/stm32l4xx_ll_exti.h **** }
 454:Drivers/STM32L4xx_HAL_Driver/Inc/stm32l4xx_ll_exti.h **** 
 455:Drivers/STM32L4xx_HAL_Driver/Inc/stm32l4xx_ll_exti.h **** /**
 456:Drivers/STM32L4xx_HAL_Driver/Inc/stm32l4xx_ll_exti.h ****   * @brief  Indicate if ExtiLine Interrupt request is enabled for Lines in range 32 to 63
 457:Drivers/STM32L4xx_HAL_Driver/Inc/stm32l4xx_ll_exti.h ****   * @note The reset value for the direct lines (lines from 32 to 34, line
 458:Drivers/STM32L4xx_HAL_Driver/Inc/stm32l4xx_ll_exti.h ****   *       39) is set to 1 in order to enable the interrupt by default.
 459:Drivers/STM32L4xx_HAL_Driver/Inc/stm32l4xx_ll_exti.h ****   *       Bits are set automatically at Power on.
 460:Drivers/STM32L4xx_HAL_Driver/Inc/stm32l4xx_ll_exti.h ****   * @rmtoll IMR2         IMx           LL_EXTI_IsEnabledIT_32_63
 461:Drivers/STM32L4xx_HAL_Driver/Inc/stm32l4xx_ll_exti.h ****   * @param  ExtiLine This parameter can be one of the following values:
 462:Drivers/STM32L4xx_HAL_Driver/Inc/stm32l4xx_ll_exti.h ****   *         @arg @ref LL_EXTI_LINE_32
 463:Drivers/STM32L4xx_HAL_Driver/Inc/stm32l4xx_ll_exti.h ****   *         @arg @ref LL_EXTI_LINE_33
 464:Drivers/STM32L4xx_HAL_Driver/Inc/stm32l4xx_ll_exti.h ****   *         @arg @ref LL_EXTI_LINE_34(*)
 465:Drivers/STM32L4xx_HAL_Driver/Inc/stm32l4xx_ll_exti.h ****   *         @arg @ref LL_EXTI_LINE_35
 466:Drivers/STM32L4xx_HAL_Driver/Inc/stm32l4xx_ll_exti.h ****   *         @arg @ref LL_EXTI_LINE_36
 467:Drivers/STM32L4xx_HAL_Driver/Inc/stm32l4xx_ll_exti.h ****   *         @arg @ref LL_EXTI_LINE_37
 468:Drivers/STM32L4xx_HAL_Driver/Inc/stm32l4xx_ll_exti.h ****   *         @arg @ref LL_EXTI_LINE_38
 469:Drivers/STM32L4xx_HAL_Driver/Inc/stm32l4xx_ll_exti.h ****   *         @arg @ref LL_EXTI_LINE_39(*)
 470:Drivers/STM32L4xx_HAL_Driver/Inc/stm32l4xx_ll_exti.h ****   *         @arg @ref LL_EXTI_LINE_40(*)
 471:Drivers/STM32L4xx_HAL_Driver/Inc/stm32l4xx_ll_exti.h ****   *         @arg @ref LL_EXTI_LINE_ALL_32_63
 472:Drivers/STM32L4xx_HAL_Driver/Inc/stm32l4xx_ll_exti.h ****   * @note   (*): Available in some devices
 473:Drivers/STM32L4xx_HAL_Driver/Inc/stm32l4xx_ll_exti.h ****   * @retval State of bit (1 or 0).
 474:Drivers/STM32L4xx_HAL_Driver/Inc/stm32l4xx_ll_exti.h ****   */
 475:Drivers/STM32L4xx_HAL_Driver/Inc/stm32l4xx_ll_exti.h **** __STATIC_INLINE uint32_t LL_EXTI_IsEnabledIT_32_63(uint32_t ExtiLine)
 476:Drivers/STM32L4xx_HAL_Driver/Inc/stm32l4xx_ll_exti.h **** {
 477:Drivers/STM32L4xx_HAL_Driver/Inc/stm32l4xx_ll_exti.h ****   return ((READ_BIT(EXTI->IMR2, ExtiLine) == (ExtiLine)) ? 1UL : 0UL);
 478:Drivers/STM32L4xx_HAL_Driver/Inc/stm32l4xx_ll_exti.h **** }
 479:Drivers/STM32L4xx_HAL_Driver/Inc/stm32l4xx_ll_exti.h **** 
 480:Drivers/STM32L4xx_HAL_Driver/Inc/stm32l4xx_ll_exti.h **** /**
 481:Drivers/STM32L4xx_HAL_Driver/Inc/stm32l4xx_ll_exti.h ****   * @}
 482:Drivers/STM32L4xx_HAL_Driver/Inc/stm32l4xx_ll_exti.h ****   */
 483:Drivers/STM32L4xx_HAL_Driver/Inc/stm32l4xx_ll_exti.h **** 
 484:Drivers/STM32L4xx_HAL_Driver/Inc/stm32l4xx_ll_exti.h **** /** @defgroup EXTI_LL_EF_Event_Management Event_Management
 485:Drivers/STM32L4xx_HAL_Driver/Inc/stm32l4xx_ll_exti.h ****   * @{
 486:Drivers/STM32L4xx_HAL_Driver/Inc/stm32l4xx_ll_exti.h ****   */
 487:Drivers/STM32L4xx_HAL_Driver/Inc/stm32l4xx_ll_exti.h **** 
 488:Drivers/STM32L4xx_HAL_Driver/Inc/stm32l4xx_ll_exti.h **** /**
 489:Drivers/STM32L4xx_HAL_Driver/Inc/stm32l4xx_ll_exti.h ****   * @brief  Enable ExtiLine Event request for Lines in range 0 to 31
 490:Drivers/STM32L4xx_HAL_Driver/Inc/stm32l4xx_ll_exti.h ****   * @rmtoll EMR1         EMx           LL_EXTI_EnableEvent_0_31
 491:Drivers/STM32L4xx_HAL_Driver/Inc/stm32l4xx_ll_exti.h ****   * @param  ExtiLine This parameter can be one of the following values:
 492:Drivers/STM32L4xx_HAL_Driver/Inc/stm32l4xx_ll_exti.h ****   *         @arg @ref LL_EXTI_LINE_0
 493:Drivers/STM32L4xx_HAL_Driver/Inc/stm32l4xx_ll_exti.h ****   *         @arg @ref LL_EXTI_LINE_1
 494:Drivers/STM32L4xx_HAL_Driver/Inc/stm32l4xx_ll_exti.h ****   *         @arg @ref LL_EXTI_LINE_2
 495:Drivers/STM32L4xx_HAL_Driver/Inc/stm32l4xx_ll_exti.h ****   *         @arg @ref LL_EXTI_LINE_3
 496:Drivers/STM32L4xx_HAL_Driver/Inc/stm32l4xx_ll_exti.h ****   *         @arg @ref LL_EXTI_LINE_4
 497:Drivers/STM32L4xx_HAL_Driver/Inc/stm32l4xx_ll_exti.h ****   *         @arg @ref LL_EXTI_LINE_5
 498:Drivers/STM32L4xx_HAL_Driver/Inc/stm32l4xx_ll_exti.h ****   *         @arg @ref LL_EXTI_LINE_6
 499:Drivers/STM32L4xx_HAL_Driver/Inc/stm32l4xx_ll_exti.h ****   *         @arg @ref LL_EXTI_LINE_7
 500:Drivers/STM32L4xx_HAL_Driver/Inc/stm32l4xx_ll_exti.h ****   *         @arg @ref LL_EXTI_LINE_8
 501:Drivers/STM32L4xx_HAL_Driver/Inc/stm32l4xx_ll_exti.h ****   *         @arg @ref LL_EXTI_LINE_9
 502:Drivers/STM32L4xx_HAL_Driver/Inc/stm32l4xx_ll_exti.h ****   *         @arg @ref LL_EXTI_LINE_10
 503:Drivers/STM32L4xx_HAL_Driver/Inc/stm32l4xx_ll_exti.h ****   *         @arg @ref LL_EXTI_LINE_11
 504:Drivers/STM32L4xx_HAL_Driver/Inc/stm32l4xx_ll_exti.h ****   *         @arg @ref LL_EXTI_LINE_12
 505:Drivers/STM32L4xx_HAL_Driver/Inc/stm32l4xx_ll_exti.h ****   *         @arg @ref LL_EXTI_LINE_13
 506:Drivers/STM32L4xx_HAL_Driver/Inc/stm32l4xx_ll_exti.h ****   *         @arg @ref LL_EXTI_LINE_14
ARM GAS  /tmp/cckJv99E.s 			page 12


 507:Drivers/STM32L4xx_HAL_Driver/Inc/stm32l4xx_ll_exti.h ****   *         @arg @ref LL_EXTI_LINE_15
 508:Drivers/STM32L4xx_HAL_Driver/Inc/stm32l4xx_ll_exti.h ****   *         @arg @ref LL_EXTI_LINE_16
 509:Drivers/STM32L4xx_HAL_Driver/Inc/stm32l4xx_ll_exti.h ****   *         @arg @ref LL_EXTI_LINE_17
 510:Drivers/STM32L4xx_HAL_Driver/Inc/stm32l4xx_ll_exti.h ****   *         @arg @ref LL_EXTI_LINE_18
 511:Drivers/STM32L4xx_HAL_Driver/Inc/stm32l4xx_ll_exti.h ****   *         @arg @ref LL_EXTI_LINE_19
 512:Drivers/STM32L4xx_HAL_Driver/Inc/stm32l4xx_ll_exti.h ****   *         @arg @ref LL_EXTI_LINE_20
 513:Drivers/STM32L4xx_HAL_Driver/Inc/stm32l4xx_ll_exti.h ****   *         @arg @ref LL_EXTI_LINE_21
 514:Drivers/STM32L4xx_HAL_Driver/Inc/stm32l4xx_ll_exti.h ****   *         @arg @ref LL_EXTI_LINE_22
 515:Drivers/STM32L4xx_HAL_Driver/Inc/stm32l4xx_ll_exti.h ****   *         @arg @ref LL_EXTI_LINE_23
 516:Drivers/STM32L4xx_HAL_Driver/Inc/stm32l4xx_ll_exti.h ****   *         @arg @ref LL_EXTI_LINE_24
 517:Drivers/STM32L4xx_HAL_Driver/Inc/stm32l4xx_ll_exti.h ****   *         @arg @ref LL_EXTI_LINE_25
 518:Drivers/STM32L4xx_HAL_Driver/Inc/stm32l4xx_ll_exti.h ****   *         @arg @ref LL_EXTI_LINE_26
 519:Drivers/STM32L4xx_HAL_Driver/Inc/stm32l4xx_ll_exti.h ****   *         @arg @ref LL_EXTI_LINE_27
 520:Drivers/STM32L4xx_HAL_Driver/Inc/stm32l4xx_ll_exti.h ****   *         @arg @ref LL_EXTI_LINE_28
 521:Drivers/STM32L4xx_HAL_Driver/Inc/stm32l4xx_ll_exti.h ****   *         @arg @ref LL_EXTI_LINE_29
 522:Drivers/STM32L4xx_HAL_Driver/Inc/stm32l4xx_ll_exti.h ****   *         @arg @ref LL_EXTI_LINE_30
 523:Drivers/STM32L4xx_HAL_Driver/Inc/stm32l4xx_ll_exti.h ****   *         @arg @ref LL_EXTI_LINE_31
 524:Drivers/STM32L4xx_HAL_Driver/Inc/stm32l4xx_ll_exti.h ****   *         @arg @ref LL_EXTI_LINE_ALL_0_31
 525:Drivers/STM32L4xx_HAL_Driver/Inc/stm32l4xx_ll_exti.h ****   * @note   Please check each device line mapping for EXTI Line availability
 526:Drivers/STM32L4xx_HAL_Driver/Inc/stm32l4xx_ll_exti.h ****   * @retval None
 527:Drivers/STM32L4xx_HAL_Driver/Inc/stm32l4xx_ll_exti.h ****   */
 528:Drivers/STM32L4xx_HAL_Driver/Inc/stm32l4xx_ll_exti.h **** __STATIC_INLINE void LL_EXTI_EnableEvent_0_31(uint32_t ExtiLine)
 529:Drivers/STM32L4xx_HAL_Driver/Inc/stm32l4xx_ll_exti.h **** {
 128              		.loc 2 529 1
 129              		.cfi_startproc
 130              		@ args = 0, pretend = 0, frame = 8
 131              		@ frame_needed = 1, uses_anonymous_args = 0
 132              		@ link register save eliminated.
 133 0000 80B4     		push	{r7}
 134              		.cfi_def_cfa_offset 4
 135              		.cfi_offset 7, -4
 136 0002 83B0     		sub	sp, sp, #12
 137              		.cfi_def_cfa_offset 16
 138 0004 00AF     		add	r7, sp, #0
 139              		.cfi_def_cfa_register 7
 140 0006 7860     		str	r0, [r7, #4]
 530:Drivers/STM32L4xx_HAL_Driver/Inc/stm32l4xx_ll_exti.h ****   SET_BIT(EXTI->EMR1, ExtiLine);
 141              		.loc 2 530 3
 142 0008 054B     		ldr	r3, .L8
 143 000a 5A68     		ldr	r2, [r3, #4]
 144 000c 0449     		ldr	r1, .L8
 145 000e 7B68     		ldr	r3, [r7, #4]
 146 0010 1343     		orrs	r3, r3, r2
 147 0012 4B60     		str	r3, [r1, #4]
 531:Drivers/STM32L4xx_HAL_Driver/Inc/stm32l4xx_ll_exti.h **** 
 532:Drivers/STM32L4xx_HAL_Driver/Inc/stm32l4xx_ll_exti.h **** }
 148              		.loc 2 532 1
 149 0014 00BF     		nop
 150 0016 0C37     		adds	r7, r7, #12
 151              		.cfi_def_cfa_offset 4
 152 0018 BD46     		mov	sp, r7
 153              		.cfi_def_cfa_register 13
 154              		@ sp needed
 155 001a 5DF8047B 		ldr	r7, [sp], #4
 156              		.cfi_restore 7
 157              		.cfi_def_cfa_offset 0
 158 001e 7047     		bx	lr
ARM GAS  /tmp/cckJv99E.s 			page 13


 159              	.L9:
 160              		.align	2
 161              	.L8:
 162 0020 00040140 		.word	1073808384
 163              		.cfi_endproc
 164              	.LFE419:
 166              		.section	.text.LL_EXTI_DisableEvent_0_31,"ax",%progbits
 167              		.align	1
 168              		.syntax unified
 169              		.thumb
 170              		.thumb_func
 172              	LL_EXTI_DisableEvent_0_31:
 173              	.LFB421:
 533:Drivers/STM32L4xx_HAL_Driver/Inc/stm32l4xx_ll_exti.h **** 
 534:Drivers/STM32L4xx_HAL_Driver/Inc/stm32l4xx_ll_exti.h **** /**
 535:Drivers/STM32L4xx_HAL_Driver/Inc/stm32l4xx_ll_exti.h ****   * @brief  Enable ExtiLine Event request for Lines in range 32 to 63
 536:Drivers/STM32L4xx_HAL_Driver/Inc/stm32l4xx_ll_exti.h ****   * @rmtoll EMR2         EMx           LL_EXTI_EnableEvent_32_63
 537:Drivers/STM32L4xx_HAL_Driver/Inc/stm32l4xx_ll_exti.h ****   * @param  ExtiLine This parameter can be a combination of the following values:
 538:Drivers/STM32L4xx_HAL_Driver/Inc/stm32l4xx_ll_exti.h ****   *         @arg @ref LL_EXTI_LINE_32
 539:Drivers/STM32L4xx_HAL_Driver/Inc/stm32l4xx_ll_exti.h ****   *         @arg @ref LL_EXTI_LINE_33
 540:Drivers/STM32L4xx_HAL_Driver/Inc/stm32l4xx_ll_exti.h ****   *         @arg @ref LL_EXTI_LINE_34(*)
 541:Drivers/STM32L4xx_HAL_Driver/Inc/stm32l4xx_ll_exti.h ****   *         @arg @ref LL_EXTI_LINE_35
 542:Drivers/STM32L4xx_HAL_Driver/Inc/stm32l4xx_ll_exti.h ****   *         @arg @ref LL_EXTI_LINE_36
 543:Drivers/STM32L4xx_HAL_Driver/Inc/stm32l4xx_ll_exti.h ****   *         @arg @ref LL_EXTI_LINE_37
 544:Drivers/STM32L4xx_HAL_Driver/Inc/stm32l4xx_ll_exti.h ****   *         @arg @ref LL_EXTI_LINE_38
 545:Drivers/STM32L4xx_HAL_Driver/Inc/stm32l4xx_ll_exti.h ****   *         @arg @ref LL_EXTI_LINE_39(*)
 546:Drivers/STM32L4xx_HAL_Driver/Inc/stm32l4xx_ll_exti.h ****   *         @arg @ref LL_EXTI_LINE_40(*)
 547:Drivers/STM32L4xx_HAL_Driver/Inc/stm32l4xx_ll_exti.h ****   *         @arg @ref LL_EXTI_LINE_ALL_32_63
 548:Drivers/STM32L4xx_HAL_Driver/Inc/stm32l4xx_ll_exti.h ****   * @note   (*): Available in some devices
 549:Drivers/STM32L4xx_HAL_Driver/Inc/stm32l4xx_ll_exti.h ****   * @retval None
 550:Drivers/STM32L4xx_HAL_Driver/Inc/stm32l4xx_ll_exti.h ****   */
 551:Drivers/STM32L4xx_HAL_Driver/Inc/stm32l4xx_ll_exti.h **** __STATIC_INLINE void LL_EXTI_EnableEvent_32_63(uint32_t ExtiLine)
 552:Drivers/STM32L4xx_HAL_Driver/Inc/stm32l4xx_ll_exti.h **** {
 553:Drivers/STM32L4xx_HAL_Driver/Inc/stm32l4xx_ll_exti.h ****   SET_BIT(EXTI->EMR2, ExtiLine);
 554:Drivers/STM32L4xx_HAL_Driver/Inc/stm32l4xx_ll_exti.h **** }
 555:Drivers/STM32L4xx_HAL_Driver/Inc/stm32l4xx_ll_exti.h **** 
 556:Drivers/STM32L4xx_HAL_Driver/Inc/stm32l4xx_ll_exti.h **** /**
 557:Drivers/STM32L4xx_HAL_Driver/Inc/stm32l4xx_ll_exti.h ****   * @brief  Disable ExtiLine Event request for Lines in range 0 to 31
 558:Drivers/STM32L4xx_HAL_Driver/Inc/stm32l4xx_ll_exti.h ****   * @rmtoll EMR1         EMx           LL_EXTI_DisableEvent_0_31
 559:Drivers/STM32L4xx_HAL_Driver/Inc/stm32l4xx_ll_exti.h ****   * @param  ExtiLine This parameter can be one of the following values:
 560:Drivers/STM32L4xx_HAL_Driver/Inc/stm32l4xx_ll_exti.h ****   *         @arg @ref LL_EXTI_LINE_0
 561:Drivers/STM32L4xx_HAL_Driver/Inc/stm32l4xx_ll_exti.h ****   *         @arg @ref LL_EXTI_LINE_1
 562:Drivers/STM32L4xx_HAL_Driver/Inc/stm32l4xx_ll_exti.h ****   *         @arg @ref LL_EXTI_LINE_2
 563:Drivers/STM32L4xx_HAL_Driver/Inc/stm32l4xx_ll_exti.h ****   *         @arg @ref LL_EXTI_LINE_3
 564:Drivers/STM32L4xx_HAL_Driver/Inc/stm32l4xx_ll_exti.h ****   *         @arg @ref LL_EXTI_LINE_4
 565:Drivers/STM32L4xx_HAL_Driver/Inc/stm32l4xx_ll_exti.h ****   *         @arg @ref LL_EXTI_LINE_5
 566:Drivers/STM32L4xx_HAL_Driver/Inc/stm32l4xx_ll_exti.h ****   *         @arg @ref LL_EXTI_LINE_6
 567:Drivers/STM32L4xx_HAL_Driver/Inc/stm32l4xx_ll_exti.h ****   *         @arg @ref LL_EXTI_LINE_7
 568:Drivers/STM32L4xx_HAL_Driver/Inc/stm32l4xx_ll_exti.h ****   *         @arg @ref LL_EXTI_LINE_8
 569:Drivers/STM32L4xx_HAL_Driver/Inc/stm32l4xx_ll_exti.h ****   *         @arg @ref LL_EXTI_LINE_9
 570:Drivers/STM32L4xx_HAL_Driver/Inc/stm32l4xx_ll_exti.h ****   *         @arg @ref LL_EXTI_LINE_10
 571:Drivers/STM32L4xx_HAL_Driver/Inc/stm32l4xx_ll_exti.h ****   *         @arg @ref LL_EXTI_LINE_11
 572:Drivers/STM32L4xx_HAL_Driver/Inc/stm32l4xx_ll_exti.h ****   *         @arg @ref LL_EXTI_LINE_12
 573:Drivers/STM32L4xx_HAL_Driver/Inc/stm32l4xx_ll_exti.h ****   *         @arg @ref LL_EXTI_LINE_13
 574:Drivers/STM32L4xx_HAL_Driver/Inc/stm32l4xx_ll_exti.h ****   *         @arg @ref LL_EXTI_LINE_14
 575:Drivers/STM32L4xx_HAL_Driver/Inc/stm32l4xx_ll_exti.h ****   *         @arg @ref LL_EXTI_LINE_15
 576:Drivers/STM32L4xx_HAL_Driver/Inc/stm32l4xx_ll_exti.h ****   *         @arg @ref LL_EXTI_LINE_16
ARM GAS  /tmp/cckJv99E.s 			page 14


 577:Drivers/STM32L4xx_HAL_Driver/Inc/stm32l4xx_ll_exti.h ****   *         @arg @ref LL_EXTI_LINE_17
 578:Drivers/STM32L4xx_HAL_Driver/Inc/stm32l4xx_ll_exti.h ****   *         @arg @ref LL_EXTI_LINE_18
 579:Drivers/STM32L4xx_HAL_Driver/Inc/stm32l4xx_ll_exti.h ****   *         @arg @ref LL_EXTI_LINE_19
 580:Drivers/STM32L4xx_HAL_Driver/Inc/stm32l4xx_ll_exti.h ****   *         @arg @ref LL_EXTI_LINE_20
 581:Drivers/STM32L4xx_HAL_Driver/Inc/stm32l4xx_ll_exti.h ****   *         @arg @ref LL_EXTI_LINE_21
 582:Drivers/STM32L4xx_HAL_Driver/Inc/stm32l4xx_ll_exti.h ****   *         @arg @ref LL_EXTI_LINE_22
 583:Drivers/STM32L4xx_HAL_Driver/Inc/stm32l4xx_ll_exti.h ****   *         @arg @ref LL_EXTI_LINE_23
 584:Drivers/STM32L4xx_HAL_Driver/Inc/stm32l4xx_ll_exti.h ****   *         @arg @ref LL_EXTI_LINE_24
 585:Drivers/STM32L4xx_HAL_Driver/Inc/stm32l4xx_ll_exti.h ****   *         @arg @ref LL_EXTI_LINE_25
 586:Drivers/STM32L4xx_HAL_Driver/Inc/stm32l4xx_ll_exti.h ****   *         @arg @ref LL_EXTI_LINE_26
 587:Drivers/STM32L4xx_HAL_Driver/Inc/stm32l4xx_ll_exti.h ****   *         @arg @ref LL_EXTI_LINE_27
 588:Drivers/STM32L4xx_HAL_Driver/Inc/stm32l4xx_ll_exti.h ****   *         @arg @ref LL_EXTI_LINE_28
 589:Drivers/STM32L4xx_HAL_Driver/Inc/stm32l4xx_ll_exti.h ****   *         @arg @ref LL_EXTI_LINE_29
 590:Drivers/STM32L4xx_HAL_Driver/Inc/stm32l4xx_ll_exti.h ****   *         @arg @ref LL_EXTI_LINE_30
 591:Drivers/STM32L4xx_HAL_Driver/Inc/stm32l4xx_ll_exti.h ****   *         @arg @ref LL_EXTI_LINE_31
 592:Drivers/STM32L4xx_HAL_Driver/Inc/stm32l4xx_ll_exti.h ****   *         @arg @ref LL_EXTI_LINE_ALL_0_31
 593:Drivers/STM32L4xx_HAL_Driver/Inc/stm32l4xx_ll_exti.h ****   * @note   Please check each device line mapping for EXTI Line availability
 594:Drivers/STM32L4xx_HAL_Driver/Inc/stm32l4xx_ll_exti.h ****   * @retval None
 595:Drivers/STM32L4xx_HAL_Driver/Inc/stm32l4xx_ll_exti.h ****   */
 596:Drivers/STM32L4xx_HAL_Driver/Inc/stm32l4xx_ll_exti.h **** __STATIC_INLINE void LL_EXTI_DisableEvent_0_31(uint32_t ExtiLine)
 597:Drivers/STM32L4xx_HAL_Driver/Inc/stm32l4xx_ll_exti.h **** {
 174              		.loc 2 597 1
 175              		.cfi_startproc
 176              		@ args = 0, pretend = 0, frame = 8
 177              		@ frame_needed = 1, uses_anonymous_args = 0
 178              		@ link register save eliminated.
 179 0000 80B4     		push	{r7}
 180              		.cfi_def_cfa_offset 4
 181              		.cfi_offset 7, -4
 182 0002 83B0     		sub	sp, sp, #12
 183              		.cfi_def_cfa_offset 16
 184 0004 00AF     		add	r7, sp, #0
 185              		.cfi_def_cfa_register 7
 186 0006 7860     		str	r0, [r7, #4]
 598:Drivers/STM32L4xx_HAL_Driver/Inc/stm32l4xx_ll_exti.h ****   CLEAR_BIT(EXTI->EMR1, ExtiLine);
 187              		.loc 2 598 3
 188 0008 064B     		ldr	r3, .L11
 189 000a 5A68     		ldr	r2, [r3, #4]
 190 000c 7B68     		ldr	r3, [r7, #4]
 191 000e DB43     		mvns	r3, r3
 192 0010 0449     		ldr	r1, .L11
 193 0012 1340     		ands	r3, r3, r2
 194 0014 4B60     		str	r3, [r1, #4]
 599:Drivers/STM32L4xx_HAL_Driver/Inc/stm32l4xx_ll_exti.h **** }
 195              		.loc 2 599 1
 196 0016 00BF     		nop
 197 0018 0C37     		adds	r7, r7, #12
 198              		.cfi_def_cfa_offset 4
 199 001a BD46     		mov	sp, r7
 200              		.cfi_def_cfa_register 13
 201              		@ sp needed
 202 001c 5DF8047B 		ldr	r7, [sp], #4
 203              		.cfi_restore 7
 204              		.cfi_def_cfa_offset 0
 205 0020 7047     		bx	lr
 206              	.L12:
 207 0022 00BF     		.align	2
ARM GAS  /tmp/cckJv99E.s 			page 15


 208              	.L11:
 209 0024 00040140 		.word	1073808384
 210              		.cfi_endproc
 211              	.LFE421:
 213              		.section	.text.LL_EXTI_EnableRisingTrig_0_31,"ax",%progbits
 214              		.align	1
 215              		.syntax unified
 216              		.thumb
 217              		.thumb_func
 219              	LL_EXTI_EnableRisingTrig_0_31:
 220              	.LFB425:
 600:Drivers/STM32L4xx_HAL_Driver/Inc/stm32l4xx_ll_exti.h **** 
 601:Drivers/STM32L4xx_HAL_Driver/Inc/stm32l4xx_ll_exti.h **** /**
 602:Drivers/STM32L4xx_HAL_Driver/Inc/stm32l4xx_ll_exti.h ****   * @brief  Disable ExtiLine Event request for Lines in range 32 to 63
 603:Drivers/STM32L4xx_HAL_Driver/Inc/stm32l4xx_ll_exti.h ****   * @rmtoll EMR2         EMx           LL_EXTI_DisableEvent_32_63
 604:Drivers/STM32L4xx_HAL_Driver/Inc/stm32l4xx_ll_exti.h ****   * @param  ExtiLine This parameter can be a combination of the following values:
 605:Drivers/STM32L4xx_HAL_Driver/Inc/stm32l4xx_ll_exti.h ****   *         @arg @ref LL_EXTI_LINE_32
 606:Drivers/STM32L4xx_HAL_Driver/Inc/stm32l4xx_ll_exti.h ****   *         @arg @ref LL_EXTI_LINE_33
 607:Drivers/STM32L4xx_HAL_Driver/Inc/stm32l4xx_ll_exti.h ****   *         @arg @ref LL_EXTI_LINE_34(*)
 608:Drivers/STM32L4xx_HAL_Driver/Inc/stm32l4xx_ll_exti.h ****   *         @arg @ref LL_EXTI_LINE_35
 609:Drivers/STM32L4xx_HAL_Driver/Inc/stm32l4xx_ll_exti.h ****   *         @arg @ref LL_EXTI_LINE_36
 610:Drivers/STM32L4xx_HAL_Driver/Inc/stm32l4xx_ll_exti.h ****   *         @arg @ref LL_EXTI_LINE_37
 611:Drivers/STM32L4xx_HAL_Driver/Inc/stm32l4xx_ll_exti.h ****   *         @arg @ref LL_EXTI_LINE_38
 612:Drivers/STM32L4xx_HAL_Driver/Inc/stm32l4xx_ll_exti.h ****   *         @arg @ref LL_EXTI_LINE_39(*)
 613:Drivers/STM32L4xx_HAL_Driver/Inc/stm32l4xx_ll_exti.h ****   *         @arg @ref LL_EXTI_LINE_40(*)
 614:Drivers/STM32L4xx_HAL_Driver/Inc/stm32l4xx_ll_exti.h ****   *         @arg @ref LL_EXTI_LINE_ALL_32_63
 615:Drivers/STM32L4xx_HAL_Driver/Inc/stm32l4xx_ll_exti.h ****   * @note   (*): Available in some devices
 616:Drivers/STM32L4xx_HAL_Driver/Inc/stm32l4xx_ll_exti.h ****   * @retval None
 617:Drivers/STM32L4xx_HAL_Driver/Inc/stm32l4xx_ll_exti.h ****   */
 618:Drivers/STM32L4xx_HAL_Driver/Inc/stm32l4xx_ll_exti.h **** __STATIC_INLINE void LL_EXTI_DisableEvent_32_63(uint32_t ExtiLine)
 619:Drivers/STM32L4xx_HAL_Driver/Inc/stm32l4xx_ll_exti.h **** {
 620:Drivers/STM32L4xx_HAL_Driver/Inc/stm32l4xx_ll_exti.h ****   CLEAR_BIT(EXTI->EMR2, ExtiLine);
 621:Drivers/STM32L4xx_HAL_Driver/Inc/stm32l4xx_ll_exti.h **** }
 622:Drivers/STM32L4xx_HAL_Driver/Inc/stm32l4xx_ll_exti.h **** 
 623:Drivers/STM32L4xx_HAL_Driver/Inc/stm32l4xx_ll_exti.h **** /**
 624:Drivers/STM32L4xx_HAL_Driver/Inc/stm32l4xx_ll_exti.h ****   * @brief  Indicate if ExtiLine Event request is enabled for Lines in range 0 to 31
 625:Drivers/STM32L4xx_HAL_Driver/Inc/stm32l4xx_ll_exti.h ****   * @rmtoll EMR1         EMx           LL_EXTI_IsEnabledEvent_0_31
 626:Drivers/STM32L4xx_HAL_Driver/Inc/stm32l4xx_ll_exti.h ****   * @param  ExtiLine This parameter can be one of the following values:
 627:Drivers/STM32L4xx_HAL_Driver/Inc/stm32l4xx_ll_exti.h ****   *         @arg @ref LL_EXTI_LINE_0
 628:Drivers/STM32L4xx_HAL_Driver/Inc/stm32l4xx_ll_exti.h ****   *         @arg @ref LL_EXTI_LINE_1
 629:Drivers/STM32L4xx_HAL_Driver/Inc/stm32l4xx_ll_exti.h ****   *         @arg @ref LL_EXTI_LINE_2
 630:Drivers/STM32L4xx_HAL_Driver/Inc/stm32l4xx_ll_exti.h ****   *         @arg @ref LL_EXTI_LINE_3
 631:Drivers/STM32L4xx_HAL_Driver/Inc/stm32l4xx_ll_exti.h ****   *         @arg @ref LL_EXTI_LINE_4
 632:Drivers/STM32L4xx_HAL_Driver/Inc/stm32l4xx_ll_exti.h ****   *         @arg @ref LL_EXTI_LINE_5
 633:Drivers/STM32L4xx_HAL_Driver/Inc/stm32l4xx_ll_exti.h ****   *         @arg @ref LL_EXTI_LINE_6
 634:Drivers/STM32L4xx_HAL_Driver/Inc/stm32l4xx_ll_exti.h ****   *         @arg @ref LL_EXTI_LINE_7
 635:Drivers/STM32L4xx_HAL_Driver/Inc/stm32l4xx_ll_exti.h ****   *         @arg @ref LL_EXTI_LINE_8
 636:Drivers/STM32L4xx_HAL_Driver/Inc/stm32l4xx_ll_exti.h ****   *         @arg @ref LL_EXTI_LINE_9
 637:Drivers/STM32L4xx_HAL_Driver/Inc/stm32l4xx_ll_exti.h ****   *         @arg @ref LL_EXTI_LINE_10
 638:Drivers/STM32L4xx_HAL_Driver/Inc/stm32l4xx_ll_exti.h ****   *         @arg @ref LL_EXTI_LINE_11
 639:Drivers/STM32L4xx_HAL_Driver/Inc/stm32l4xx_ll_exti.h ****   *         @arg @ref LL_EXTI_LINE_12
 640:Drivers/STM32L4xx_HAL_Driver/Inc/stm32l4xx_ll_exti.h ****   *         @arg @ref LL_EXTI_LINE_13
 641:Drivers/STM32L4xx_HAL_Driver/Inc/stm32l4xx_ll_exti.h ****   *         @arg @ref LL_EXTI_LINE_14
 642:Drivers/STM32L4xx_HAL_Driver/Inc/stm32l4xx_ll_exti.h ****   *         @arg @ref LL_EXTI_LINE_15
 643:Drivers/STM32L4xx_HAL_Driver/Inc/stm32l4xx_ll_exti.h ****   *         @arg @ref LL_EXTI_LINE_16
 644:Drivers/STM32L4xx_HAL_Driver/Inc/stm32l4xx_ll_exti.h ****   *         @arg @ref LL_EXTI_LINE_17
 645:Drivers/STM32L4xx_HAL_Driver/Inc/stm32l4xx_ll_exti.h ****   *         @arg @ref LL_EXTI_LINE_18
ARM GAS  /tmp/cckJv99E.s 			page 16


 646:Drivers/STM32L4xx_HAL_Driver/Inc/stm32l4xx_ll_exti.h ****   *         @arg @ref LL_EXTI_LINE_19
 647:Drivers/STM32L4xx_HAL_Driver/Inc/stm32l4xx_ll_exti.h ****   *         @arg @ref LL_EXTI_LINE_20
 648:Drivers/STM32L4xx_HAL_Driver/Inc/stm32l4xx_ll_exti.h ****   *         @arg @ref LL_EXTI_LINE_21
 649:Drivers/STM32L4xx_HAL_Driver/Inc/stm32l4xx_ll_exti.h ****   *         @arg @ref LL_EXTI_LINE_22
 650:Drivers/STM32L4xx_HAL_Driver/Inc/stm32l4xx_ll_exti.h ****   *         @arg @ref LL_EXTI_LINE_23
 651:Drivers/STM32L4xx_HAL_Driver/Inc/stm32l4xx_ll_exti.h ****   *         @arg @ref LL_EXTI_LINE_24
 652:Drivers/STM32L4xx_HAL_Driver/Inc/stm32l4xx_ll_exti.h ****   *         @arg @ref LL_EXTI_LINE_25
 653:Drivers/STM32L4xx_HAL_Driver/Inc/stm32l4xx_ll_exti.h ****   *         @arg @ref LL_EXTI_LINE_26
 654:Drivers/STM32L4xx_HAL_Driver/Inc/stm32l4xx_ll_exti.h ****   *         @arg @ref LL_EXTI_LINE_27
 655:Drivers/STM32L4xx_HAL_Driver/Inc/stm32l4xx_ll_exti.h ****   *         @arg @ref LL_EXTI_LINE_28
 656:Drivers/STM32L4xx_HAL_Driver/Inc/stm32l4xx_ll_exti.h ****   *         @arg @ref LL_EXTI_LINE_29
 657:Drivers/STM32L4xx_HAL_Driver/Inc/stm32l4xx_ll_exti.h ****   *         @arg @ref LL_EXTI_LINE_30
 658:Drivers/STM32L4xx_HAL_Driver/Inc/stm32l4xx_ll_exti.h ****   *         @arg @ref LL_EXTI_LINE_31
 659:Drivers/STM32L4xx_HAL_Driver/Inc/stm32l4xx_ll_exti.h ****   *         @arg @ref LL_EXTI_LINE_ALL_0_31
 660:Drivers/STM32L4xx_HAL_Driver/Inc/stm32l4xx_ll_exti.h ****   * @note   Please check each device line mapping for EXTI Line availability
 661:Drivers/STM32L4xx_HAL_Driver/Inc/stm32l4xx_ll_exti.h ****   * @retval State of bit (1 or 0).
 662:Drivers/STM32L4xx_HAL_Driver/Inc/stm32l4xx_ll_exti.h ****   */
 663:Drivers/STM32L4xx_HAL_Driver/Inc/stm32l4xx_ll_exti.h **** __STATIC_INLINE uint32_t LL_EXTI_IsEnabledEvent_0_31(uint32_t ExtiLine)
 664:Drivers/STM32L4xx_HAL_Driver/Inc/stm32l4xx_ll_exti.h **** {
 665:Drivers/STM32L4xx_HAL_Driver/Inc/stm32l4xx_ll_exti.h ****   return ((READ_BIT(EXTI->EMR1, ExtiLine) == (ExtiLine)) ? 1UL : 0UL);
 666:Drivers/STM32L4xx_HAL_Driver/Inc/stm32l4xx_ll_exti.h **** 
 667:Drivers/STM32L4xx_HAL_Driver/Inc/stm32l4xx_ll_exti.h **** }
 668:Drivers/STM32L4xx_HAL_Driver/Inc/stm32l4xx_ll_exti.h **** 
 669:Drivers/STM32L4xx_HAL_Driver/Inc/stm32l4xx_ll_exti.h **** /**
 670:Drivers/STM32L4xx_HAL_Driver/Inc/stm32l4xx_ll_exti.h ****   * @brief  Indicate if ExtiLine Event request is enabled for Lines in range 32 to 63
 671:Drivers/STM32L4xx_HAL_Driver/Inc/stm32l4xx_ll_exti.h ****   * @rmtoll EMR2         EMx           LL_EXTI_IsEnabledEvent_32_63
 672:Drivers/STM32L4xx_HAL_Driver/Inc/stm32l4xx_ll_exti.h ****   * @param  ExtiLine This parameter can be a combination of the following values:
 673:Drivers/STM32L4xx_HAL_Driver/Inc/stm32l4xx_ll_exti.h ****   *         @arg @ref LL_EXTI_LINE_32
 674:Drivers/STM32L4xx_HAL_Driver/Inc/stm32l4xx_ll_exti.h ****   *         @arg @ref LL_EXTI_LINE_33
 675:Drivers/STM32L4xx_HAL_Driver/Inc/stm32l4xx_ll_exti.h ****   *         @arg @ref LL_EXTI_LINE_34(*)
 676:Drivers/STM32L4xx_HAL_Driver/Inc/stm32l4xx_ll_exti.h ****   *         @arg @ref LL_EXTI_LINE_35
 677:Drivers/STM32L4xx_HAL_Driver/Inc/stm32l4xx_ll_exti.h ****   *         @arg @ref LL_EXTI_LINE_36
 678:Drivers/STM32L4xx_HAL_Driver/Inc/stm32l4xx_ll_exti.h ****   *         @arg @ref LL_EXTI_LINE_37
 679:Drivers/STM32L4xx_HAL_Driver/Inc/stm32l4xx_ll_exti.h ****   *         @arg @ref LL_EXTI_LINE_38
 680:Drivers/STM32L4xx_HAL_Driver/Inc/stm32l4xx_ll_exti.h ****   *         @arg @ref LL_EXTI_LINE_39(*)
 681:Drivers/STM32L4xx_HAL_Driver/Inc/stm32l4xx_ll_exti.h ****   *         @arg @ref LL_EXTI_LINE_40(*)
 682:Drivers/STM32L4xx_HAL_Driver/Inc/stm32l4xx_ll_exti.h ****   *         @arg @ref LL_EXTI_LINE_ALL_32_63
 683:Drivers/STM32L4xx_HAL_Driver/Inc/stm32l4xx_ll_exti.h ****   * @note   (*): Available in some devices
 684:Drivers/STM32L4xx_HAL_Driver/Inc/stm32l4xx_ll_exti.h ****   * @retval State of bit (1 or 0).
 685:Drivers/STM32L4xx_HAL_Driver/Inc/stm32l4xx_ll_exti.h ****   */
 686:Drivers/STM32L4xx_HAL_Driver/Inc/stm32l4xx_ll_exti.h **** __STATIC_INLINE uint32_t LL_EXTI_IsEnabledEvent_32_63(uint32_t ExtiLine)
 687:Drivers/STM32L4xx_HAL_Driver/Inc/stm32l4xx_ll_exti.h **** {
 688:Drivers/STM32L4xx_HAL_Driver/Inc/stm32l4xx_ll_exti.h ****   return ((READ_BIT(EXTI->EMR2, ExtiLine) == (ExtiLine)) ? 1UL : 0UL);
 689:Drivers/STM32L4xx_HAL_Driver/Inc/stm32l4xx_ll_exti.h **** }
 690:Drivers/STM32L4xx_HAL_Driver/Inc/stm32l4xx_ll_exti.h **** 
 691:Drivers/STM32L4xx_HAL_Driver/Inc/stm32l4xx_ll_exti.h **** /**
 692:Drivers/STM32L4xx_HAL_Driver/Inc/stm32l4xx_ll_exti.h ****   * @}
 693:Drivers/STM32L4xx_HAL_Driver/Inc/stm32l4xx_ll_exti.h ****   */
 694:Drivers/STM32L4xx_HAL_Driver/Inc/stm32l4xx_ll_exti.h **** 
 695:Drivers/STM32L4xx_HAL_Driver/Inc/stm32l4xx_ll_exti.h **** /** @defgroup EXTI_LL_EF_Rising_Trigger_Management Rising_Trigger_Management
 696:Drivers/STM32L4xx_HAL_Driver/Inc/stm32l4xx_ll_exti.h ****   * @{
 697:Drivers/STM32L4xx_HAL_Driver/Inc/stm32l4xx_ll_exti.h ****   */
 698:Drivers/STM32L4xx_HAL_Driver/Inc/stm32l4xx_ll_exti.h **** 
 699:Drivers/STM32L4xx_HAL_Driver/Inc/stm32l4xx_ll_exti.h **** /**
 700:Drivers/STM32L4xx_HAL_Driver/Inc/stm32l4xx_ll_exti.h ****   * @brief  Enable ExtiLine Rising Edge Trigger for Lines in range 0 to 31
 701:Drivers/STM32L4xx_HAL_Driver/Inc/stm32l4xx_ll_exti.h ****   * @note The configurable wakeup lines are edge-triggered. No glitch must be
 702:Drivers/STM32L4xx_HAL_Driver/Inc/stm32l4xx_ll_exti.h ****   *       generated on these lines. If a rising edge on a configurable interrupt
ARM GAS  /tmp/cckJv99E.s 			page 17


 703:Drivers/STM32L4xx_HAL_Driver/Inc/stm32l4xx_ll_exti.h ****   *       line occurs during a write operation in the EXTI_RTSR register, the
 704:Drivers/STM32L4xx_HAL_Driver/Inc/stm32l4xx_ll_exti.h ****   *       pending bit is not set.
 705:Drivers/STM32L4xx_HAL_Driver/Inc/stm32l4xx_ll_exti.h ****   *       Rising and falling edge triggers can be set for
 706:Drivers/STM32L4xx_HAL_Driver/Inc/stm32l4xx_ll_exti.h ****   *       the same interrupt line. In this case, both generate a trigger
 707:Drivers/STM32L4xx_HAL_Driver/Inc/stm32l4xx_ll_exti.h ****   *       condition.
 708:Drivers/STM32L4xx_HAL_Driver/Inc/stm32l4xx_ll_exti.h ****   * @rmtoll RTSR1        RTx           LL_EXTI_EnableRisingTrig_0_31
 709:Drivers/STM32L4xx_HAL_Driver/Inc/stm32l4xx_ll_exti.h ****   * @param  ExtiLine This parameter can be a combination of the following values:
 710:Drivers/STM32L4xx_HAL_Driver/Inc/stm32l4xx_ll_exti.h ****   *         @arg @ref LL_EXTI_LINE_0
 711:Drivers/STM32L4xx_HAL_Driver/Inc/stm32l4xx_ll_exti.h ****   *         @arg @ref LL_EXTI_LINE_1
 712:Drivers/STM32L4xx_HAL_Driver/Inc/stm32l4xx_ll_exti.h ****   *         @arg @ref LL_EXTI_LINE_2
 713:Drivers/STM32L4xx_HAL_Driver/Inc/stm32l4xx_ll_exti.h ****   *         @arg @ref LL_EXTI_LINE_3
 714:Drivers/STM32L4xx_HAL_Driver/Inc/stm32l4xx_ll_exti.h ****   *         @arg @ref LL_EXTI_LINE_4
 715:Drivers/STM32L4xx_HAL_Driver/Inc/stm32l4xx_ll_exti.h ****   *         @arg @ref LL_EXTI_LINE_5
 716:Drivers/STM32L4xx_HAL_Driver/Inc/stm32l4xx_ll_exti.h ****   *         @arg @ref LL_EXTI_LINE_6
 717:Drivers/STM32L4xx_HAL_Driver/Inc/stm32l4xx_ll_exti.h ****   *         @arg @ref LL_EXTI_LINE_7
 718:Drivers/STM32L4xx_HAL_Driver/Inc/stm32l4xx_ll_exti.h ****   *         @arg @ref LL_EXTI_LINE_8
 719:Drivers/STM32L4xx_HAL_Driver/Inc/stm32l4xx_ll_exti.h ****   *         @arg @ref LL_EXTI_LINE_9
 720:Drivers/STM32L4xx_HAL_Driver/Inc/stm32l4xx_ll_exti.h ****   *         @arg @ref LL_EXTI_LINE_10
 721:Drivers/STM32L4xx_HAL_Driver/Inc/stm32l4xx_ll_exti.h ****   *         @arg @ref LL_EXTI_LINE_11
 722:Drivers/STM32L4xx_HAL_Driver/Inc/stm32l4xx_ll_exti.h ****   *         @arg @ref LL_EXTI_LINE_12
 723:Drivers/STM32L4xx_HAL_Driver/Inc/stm32l4xx_ll_exti.h ****   *         @arg @ref LL_EXTI_LINE_13
 724:Drivers/STM32L4xx_HAL_Driver/Inc/stm32l4xx_ll_exti.h ****   *         @arg @ref LL_EXTI_LINE_14
 725:Drivers/STM32L4xx_HAL_Driver/Inc/stm32l4xx_ll_exti.h ****   *         @arg @ref LL_EXTI_LINE_15
 726:Drivers/STM32L4xx_HAL_Driver/Inc/stm32l4xx_ll_exti.h ****   *         @arg @ref LL_EXTI_LINE_16
 727:Drivers/STM32L4xx_HAL_Driver/Inc/stm32l4xx_ll_exti.h ****   *         @arg @ref LL_EXTI_LINE_18
 728:Drivers/STM32L4xx_HAL_Driver/Inc/stm32l4xx_ll_exti.h ****   *         @arg @ref LL_EXTI_LINE_19
 729:Drivers/STM32L4xx_HAL_Driver/Inc/stm32l4xx_ll_exti.h ****   *         @arg @ref LL_EXTI_LINE_20
 730:Drivers/STM32L4xx_HAL_Driver/Inc/stm32l4xx_ll_exti.h ****   *         @arg @ref LL_EXTI_LINE_21
 731:Drivers/STM32L4xx_HAL_Driver/Inc/stm32l4xx_ll_exti.h ****   *         @arg @ref LL_EXTI_LINE_22
 732:Drivers/STM32L4xx_HAL_Driver/Inc/stm32l4xx_ll_exti.h ****   *         @arg @ref LL_EXTI_LINE_29
 733:Drivers/STM32L4xx_HAL_Driver/Inc/stm32l4xx_ll_exti.h ****   *         @arg @ref LL_EXTI_LINE_30
 734:Drivers/STM32L4xx_HAL_Driver/Inc/stm32l4xx_ll_exti.h ****   *         @arg @ref LL_EXTI_LINE_31
 735:Drivers/STM32L4xx_HAL_Driver/Inc/stm32l4xx_ll_exti.h ****   * @note   Please check each device line mapping for EXTI Line availability
 736:Drivers/STM32L4xx_HAL_Driver/Inc/stm32l4xx_ll_exti.h ****   * @retval None
 737:Drivers/STM32L4xx_HAL_Driver/Inc/stm32l4xx_ll_exti.h ****   */
 738:Drivers/STM32L4xx_HAL_Driver/Inc/stm32l4xx_ll_exti.h **** __STATIC_INLINE void LL_EXTI_EnableRisingTrig_0_31(uint32_t ExtiLine)
 739:Drivers/STM32L4xx_HAL_Driver/Inc/stm32l4xx_ll_exti.h **** {
 221              		.loc 2 739 1
 222              		.cfi_startproc
 223              		@ args = 0, pretend = 0, frame = 8
 224              		@ frame_needed = 1, uses_anonymous_args = 0
 225              		@ link register save eliminated.
 226 0000 80B4     		push	{r7}
 227              		.cfi_def_cfa_offset 4
 228              		.cfi_offset 7, -4
 229 0002 83B0     		sub	sp, sp, #12
 230              		.cfi_def_cfa_offset 16
 231 0004 00AF     		add	r7, sp, #0
 232              		.cfi_def_cfa_register 7
 233 0006 7860     		str	r0, [r7, #4]
 740:Drivers/STM32L4xx_HAL_Driver/Inc/stm32l4xx_ll_exti.h ****   SET_BIT(EXTI->RTSR1, ExtiLine);
 234              		.loc 2 740 3
 235 0008 054B     		ldr	r3, .L14
 236 000a 9A68     		ldr	r2, [r3, #8]
 237 000c 0449     		ldr	r1, .L14
 238 000e 7B68     		ldr	r3, [r7, #4]
 239 0010 1343     		orrs	r3, r3, r2
ARM GAS  /tmp/cckJv99E.s 			page 18


 240 0012 8B60     		str	r3, [r1, #8]
 741:Drivers/STM32L4xx_HAL_Driver/Inc/stm32l4xx_ll_exti.h **** 
 742:Drivers/STM32L4xx_HAL_Driver/Inc/stm32l4xx_ll_exti.h **** }
 241              		.loc 2 742 1
 242 0014 00BF     		nop
 243 0016 0C37     		adds	r7, r7, #12
 244              		.cfi_def_cfa_offset 4
 245 0018 BD46     		mov	sp, r7
 246              		.cfi_def_cfa_register 13
 247              		@ sp needed
 248 001a 5DF8047B 		ldr	r7, [sp], #4
 249              		.cfi_restore 7
 250              		.cfi_def_cfa_offset 0
 251 001e 7047     		bx	lr
 252              	.L15:
 253              		.align	2
 254              	.L14:
 255 0020 00040140 		.word	1073808384
 256              		.cfi_endproc
 257              	.LFE425:
 259              		.section	.text.LL_EXTI_DisableRisingTrig_0_31,"ax",%progbits
 260              		.align	1
 261              		.syntax unified
 262              		.thumb
 263              		.thumb_func
 265              	LL_EXTI_DisableRisingTrig_0_31:
 266              	.LFB427:
 743:Drivers/STM32L4xx_HAL_Driver/Inc/stm32l4xx_ll_exti.h **** 
 744:Drivers/STM32L4xx_HAL_Driver/Inc/stm32l4xx_ll_exti.h **** /**
 745:Drivers/STM32L4xx_HAL_Driver/Inc/stm32l4xx_ll_exti.h ****   * @brief  Enable ExtiLine Rising Edge Trigger for Lines in range 32 to 63
 746:Drivers/STM32L4xx_HAL_Driver/Inc/stm32l4xx_ll_exti.h ****   * @note The configurable wakeup lines are edge-triggered. No glitch must be
 747:Drivers/STM32L4xx_HAL_Driver/Inc/stm32l4xx_ll_exti.h ****   *       generated on these lines. If a rising edge on a configurable interrupt
 748:Drivers/STM32L4xx_HAL_Driver/Inc/stm32l4xx_ll_exti.h ****   *       line occurs during a write operation in the EXTI_RTSR register, the
 749:Drivers/STM32L4xx_HAL_Driver/Inc/stm32l4xx_ll_exti.h ****   *       pending bit is not set.Rising and falling edge triggers can be set for
 750:Drivers/STM32L4xx_HAL_Driver/Inc/stm32l4xx_ll_exti.h ****   *       the same interrupt line. In this case, both generate a trigger
 751:Drivers/STM32L4xx_HAL_Driver/Inc/stm32l4xx_ll_exti.h ****   *       condition.
 752:Drivers/STM32L4xx_HAL_Driver/Inc/stm32l4xx_ll_exti.h ****   * @rmtoll RTSR2        RTx           LL_EXTI_EnableRisingTrig_32_63
 753:Drivers/STM32L4xx_HAL_Driver/Inc/stm32l4xx_ll_exti.h ****   * @param  ExtiLine This parameter can be a combination of the following values:
 754:Drivers/STM32L4xx_HAL_Driver/Inc/stm32l4xx_ll_exti.h ****   *         @arg @ref LL_EXTI_LINE_35
 755:Drivers/STM32L4xx_HAL_Driver/Inc/stm32l4xx_ll_exti.h ****   *         @arg @ref LL_EXTI_LINE_36
 756:Drivers/STM32L4xx_HAL_Driver/Inc/stm32l4xx_ll_exti.h ****   *         @arg @ref LL_EXTI_LINE_37
 757:Drivers/STM32L4xx_HAL_Driver/Inc/stm32l4xx_ll_exti.h ****   *         @arg @ref LL_EXTI_LINE_38
 758:Drivers/STM32L4xx_HAL_Driver/Inc/stm32l4xx_ll_exti.h ****   * @retval None
 759:Drivers/STM32L4xx_HAL_Driver/Inc/stm32l4xx_ll_exti.h ****   */
 760:Drivers/STM32L4xx_HAL_Driver/Inc/stm32l4xx_ll_exti.h **** __STATIC_INLINE void LL_EXTI_EnableRisingTrig_32_63(uint32_t ExtiLine)
 761:Drivers/STM32L4xx_HAL_Driver/Inc/stm32l4xx_ll_exti.h **** {
 762:Drivers/STM32L4xx_HAL_Driver/Inc/stm32l4xx_ll_exti.h ****   SET_BIT(EXTI->RTSR2, ExtiLine);
 763:Drivers/STM32L4xx_HAL_Driver/Inc/stm32l4xx_ll_exti.h **** }
 764:Drivers/STM32L4xx_HAL_Driver/Inc/stm32l4xx_ll_exti.h **** 
 765:Drivers/STM32L4xx_HAL_Driver/Inc/stm32l4xx_ll_exti.h **** /**
 766:Drivers/STM32L4xx_HAL_Driver/Inc/stm32l4xx_ll_exti.h ****   * @brief  Disable ExtiLine Rising Edge Trigger for Lines in range 0 to 31
 767:Drivers/STM32L4xx_HAL_Driver/Inc/stm32l4xx_ll_exti.h ****   * @note The configurable wakeup lines are edge-triggered. No glitch must be
 768:Drivers/STM32L4xx_HAL_Driver/Inc/stm32l4xx_ll_exti.h ****   *       generated on these lines. If a rising edge on a configurable interrupt
 769:Drivers/STM32L4xx_HAL_Driver/Inc/stm32l4xx_ll_exti.h ****   *       line occurs during a write operation in the EXTI_RTSR register, the
 770:Drivers/STM32L4xx_HAL_Driver/Inc/stm32l4xx_ll_exti.h ****   *       pending bit is not set.
 771:Drivers/STM32L4xx_HAL_Driver/Inc/stm32l4xx_ll_exti.h ****   *       Rising and falling edge triggers can be set for
 772:Drivers/STM32L4xx_HAL_Driver/Inc/stm32l4xx_ll_exti.h ****   *       the same interrupt line. In this case, both generate a trigger
ARM GAS  /tmp/cckJv99E.s 			page 19


 773:Drivers/STM32L4xx_HAL_Driver/Inc/stm32l4xx_ll_exti.h ****   *       condition.
 774:Drivers/STM32L4xx_HAL_Driver/Inc/stm32l4xx_ll_exti.h ****   * @rmtoll RTSR1        RTx           LL_EXTI_DisableRisingTrig_0_31
 775:Drivers/STM32L4xx_HAL_Driver/Inc/stm32l4xx_ll_exti.h ****   * @param  ExtiLine This parameter can be a combination of the following values:
 776:Drivers/STM32L4xx_HAL_Driver/Inc/stm32l4xx_ll_exti.h ****   *         @arg @ref LL_EXTI_LINE_0
 777:Drivers/STM32L4xx_HAL_Driver/Inc/stm32l4xx_ll_exti.h ****   *         @arg @ref LL_EXTI_LINE_1
 778:Drivers/STM32L4xx_HAL_Driver/Inc/stm32l4xx_ll_exti.h ****   *         @arg @ref LL_EXTI_LINE_2
 779:Drivers/STM32L4xx_HAL_Driver/Inc/stm32l4xx_ll_exti.h ****   *         @arg @ref LL_EXTI_LINE_3
 780:Drivers/STM32L4xx_HAL_Driver/Inc/stm32l4xx_ll_exti.h ****   *         @arg @ref LL_EXTI_LINE_4
 781:Drivers/STM32L4xx_HAL_Driver/Inc/stm32l4xx_ll_exti.h ****   *         @arg @ref LL_EXTI_LINE_5
 782:Drivers/STM32L4xx_HAL_Driver/Inc/stm32l4xx_ll_exti.h ****   *         @arg @ref LL_EXTI_LINE_6
 783:Drivers/STM32L4xx_HAL_Driver/Inc/stm32l4xx_ll_exti.h ****   *         @arg @ref LL_EXTI_LINE_7
 784:Drivers/STM32L4xx_HAL_Driver/Inc/stm32l4xx_ll_exti.h ****   *         @arg @ref LL_EXTI_LINE_8
 785:Drivers/STM32L4xx_HAL_Driver/Inc/stm32l4xx_ll_exti.h ****   *         @arg @ref LL_EXTI_LINE_9
 786:Drivers/STM32L4xx_HAL_Driver/Inc/stm32l4xx_ll_exti.h ****   *         @arg @ref LL_EXTI_LINE_10
 787:Drivers/STM32L4xx_HAL_Driver/Inc/stm32l4xx_ll_exti.h ****   *         @arg @ref LL_EXTI_LINE_11
 788:Drivers/STM32L4xx_HAL_Driver/Inc/stm32l4xx_ll_exti.h ****   *         @arg @ref LL_EXTI_LINE_12
 789:Drivers/STM32L4xx_HAL_Driver/Inc/stm32l4xx_ll_exti.h ****   *         @arg @ref LL_EXTI_LINE_13
 790:Drivers/STM32L4xx_HAL_Driver/Inc/stm32l4xx_ll_exti.h ****   *         @arg @ref LL_EXTI_LINE_14
 791:Drivers/STM32L4xx_HAL_Driver/Inc/stm32l4xx_ll_exti.h ****   *         @arg @ref LL_EXTI_LINE_15
 792:Drivers/STM32L4xx_HAL_Driver/Inc/stm32l4xx_ll_exti.h ****   *         @arg @ref LL_EXTI_LINE_16
 793:Drivers/STM32L4xx_HAL_Driver/Inc/stm32l4xx_ll_exti.h ****   *         @arg @ref LL_EXTI_LINE_18
 794:Drivers/STM32L4xx_HAL_Driver/Inc/stm32l4xx_ll_exti.h ****   *         @arg @ref LL_EXTI_LINE_19
 795:Drivers/STM32L4xx_HAL_Driver/Inc/stm32l4xx_ll_exti.h ****   *         @arg @ref LL_EXTI_LINE_20
 796:Drivers/STM32L4xx_HAL_Driver/Inc/stm32l4xx_ll_exti.h ****   *         @arg @ref LL_EXTI_LINE_21
 797:Drivers/STM32L4xx_HAL_Driver/Inc/stm32l4xx_ll_exti.h ****   *         @arg @ref LL_EXTI_LINE_22
 798:Drivers/STM32L4xx_HAL_Driver/Inc/stm32l4xx_ll_exti.h ****   *         @arg @ref LL_EXTI_LINE_29
 799:Drivers/STM32L4xx_HAL_Driver/Inc/stm32l4xx_ll_exti.h ****   *         @arg @ref LL_EXTI_LINE_30
 800:Drivers/STM32L4xx_HAL_Driver/Inc/stm32l4xx_ll_exti.h ****   *         @arg @ref LL_EXTI_LINE_31
 801:Drivers/STM32L4xx_HAL_Driver/Inc/stm32l4xx_ll_exti.h ****   * @note   Please check each device line mapping for EXTI Line availability
 802:Drivers/STM32L4xx_HAL_Driver/Inc/stm32l4xx_ll_exti.h ****   * @retval None
 803:Drivers/STM32L4xx_HAL_Driver/Inc/stm32l4xx_ll_exti.h ****   */
 804:Drivers/STM32L4xx_HAL_Driver/Inc/stm32l4xx_ll_exti.h **** __STATIC_INLINE void LL_EXTI_DisableRisingTrig_0_31(uint32_t ExtiLine)
 805:Drivers/STM32L4xx_HAL_Driver/Inc/stm32l4xx_ll_exti.h **** {
 267              		.loc 2 805 1
 268              		.cfi_startproc
 269              		@ args = 0, pretend = 0, frame = 8
 270              		@ frame_needed = 1, uses_anonymous_args = 0
 271              		@ link register save eliminated.
 272 0000 80B4     		push	{r7}
 273              		.cfi_def_cfa_offset 4
 274              		.cfi_offset 7, -4
 275 0002 83B0     		sub	sp, sp, #12
 276              		.cfi_def_cfa_offset 16
 277 0004 00AF     		add	r7, sp, #0
 278              		.cfi_def_cfa_register 7
 279 0006 7860     		str	r0, [r7, #4]
 806:Drivers/STM32L4xx_HAL_Driver/Inc/stm32l4xx_ll_exti.h ****   CLEAR_BIT(EXTI->RTSR1, ExtiLine);
 280              		.loc 2 806 3
 281 0008 064B     		ldr	r3, .L17
 282 000a 9A68     		ldr	r2, [r3, #8]
 283 000c 7B68     		ldr	r3, [r7, #4]
 284 000e DB43     		mvns	r3, r3
 285 0010 0449     		ldr	r1, .L17
 286 0012 1340     		ands	r3, r3, r2
 287 0014 8B60     		str	r3, [r1, #8]
 807:Drivers/STM32L4xx_HAL_Driver/Inc/stm32l4xx_ll_exti.h **** 
 808:Drivers/STM32L4xx_HAL_Driver/Inc/stm32l4xx_ll_exti.h **** }
ARM GAS  /tmp/cckJv99E.s 			page 20


 288              		.loc 2 808 1
 289 0016 00BF     		nop
 290 0018 0C37     		adds	r7, r7, #12
 291              		.cfi_def_cfa_offset 4
 292 001a BD46     		mov	sp, r7
 293              		.cfi_def_cfa_register 13
 294              		@ sp needed
 295 001c 5DF8047B 		ldr	r7, [sp], #4
 296              		.cfi_restore 7
 297              		.cfi_def_cfa_offset 0
 298 0020 7047     		bx	lr
 299              	.L18:
 300 0022 00BF     		.align	2
 301              	.L17:
 302 0024 00040140 		.word	1073808384
 303              		.cfi_endproc
 304              	.LFE427:
 306              		.section	.text.LL_EXTI_EnableFallingTrig_0_31,"ax",%progbits
 307              		.align	1
 308              		.syntax unified
 309              		.thumb
 310              		.thumb_func
 312              	LL_EXTI_EnableFallingTrig_0_31:
 313              	.LFB431:
 809:Drivers/STM32L4xx_HAL_Driver/Inc/stm32l4xx_ll_exti.h **** 
 810:Drivers/STM32L4xx_HAL_Driver/Inc/stm32l4xx_ll_exti.h **** /**
 811:Drivers/STM32L4xx_HAL_Driver/Inc/stm32l4xx_ll_exti.h ****   * @brief  Disable ExtiLine Rising Edge Trigger for Lines in range 32 to 63
 812:Drivers/STM32L4xx_HAL_Driver/Inc/stm32l4xx_ll_exti.h ****   * @note The configurable wakeup lines are edge-triggered. No glitch must be
 813:Drivers/STM32L4xx_HAL_Driver/Inc/stm32l4xx_ll_exti.h ****   *       generated on these lines. If a rising edge on a configurable interrupt
 814:Drivers/STM32L4xx_HAL_Driver/Inc/stm32l4xx_ll_exti.h ****   *       line occurs during a write operation in the EXTI_RTSR register, the
 815:Drivers/STM32L4xx_HAL_Driver/Inc/stm32l4xx_ll_exti.h ****   *       pending bit is not set.
 816:Drivers/STM32L4xx_HAL_Driver/Inc/stm32l4xx_ll_exti.h ****   *       Rising and falling edge triggers can be set for
 817:Drivers/STM32L4xx_HAL_Driver/Inc/stm32l4xx_ll_exti.h ****   *       the same interrupt line. In this case, both generate a trigger
 818:Drivers/STM32L4xx_HAL_Driver/Inc/stm32l4xx_ll_exti.h ****   *       condition.
 819:Drivers/STM32L4xx_HAL_Driver/Inc/stm32l4xx_ll_exti.h ****   * @rmtoll RTSR2        RTx           LL_EXTI_DisableRisingTrig_32_63
 820:Drivers/STM32L4xx_HAL_Driver/Inc/stm32l4xx_ll_exti.h ****   * @param  ExtiLine This parameter can be a combination of the following values:
 821:Drivers/STM32L4xx_HAL_Driver/Inc/stm32l4xx_ll_exti.h ****   *         @arg @ref LL_EXTI_LINE_35
 822:Drivers/STM32L4xx_HAL_Driver/Inc/stm32l4xx_ll_exti.h ****   *         @arg @ref LL_EXTI_LINE_36
 823:Drivers/STM32L4xx_HAL_Driver/Inc/stm32l4xx_ll_exti.h ****   *         @arg @ref LL_EXTI_LINE_37
 824:Drivers/STM32L4xx_HAL_Driver/Inc/stm32l4xx_ll_exti.h ****   *         @arg @ref LL_EXTI_LINE_38
 825:Drivers/STM32L4xx_HAL_Driver/Inc/stm32l4xx_ll_exti.h ****   * @retval None
 826:Drivers/STM32L4xx_HAL_Driver/Inc/stm32l4xx_ll_exti.h ****   */
 827:Drivers/STM32L4xx_HAL_Driver/Inc/stm32l4xx_ll_exti.h **** __STATIC_INLINE void LL_EXTI_DisableRisingTrig_32_63(uint32_t ExtiLine)
 828:Drivers/STM32L4xx_HAL_Driver/Inc/stm32l4xx_ll_exti.h **** {
 829:Drivers/STM32L4xx_HAL_Driver/Inc/stm32l4xx_ll_exti.h ****   CLEAR_BIT(EXTI->RTSR2, ExtiLine);
 830:Drivers/STM32L4xx_HAL_Driver/Inc/stm32l4xx_ll_exti.h **** }
 831:Drivers/STM32L4xx_HAL_Driver/Inc/stm32l4xx_ll_exti.h **** 
 832:Drivers/STM32L4xx_HAL_Driver/Inc/stm32l4xx_ll_exti.h **** /**
 833:Drivers/STM32L4xx_HAL_Driver/Inc/stm32l4xx_ll_exti.h ****   * @brief  Check if rising edge trigger is enabled for Lines in range 0 to 31
 834:Drivers/STM32L4xx_HAL_Driver/Inc/stm32l4xx_ll_exti.h ****   * @rmtoll RTSR1        RTx           LL_EXTI_IsEnabledRisingTrig_0_31
 835:Drivers/STM32L4xx_HAL_Driver/Inc/stm32l4xx_ll_exti.h ****   * @param  ExtiLine This parameter can be a combination of the following values:
 836:Drivers/STM32L4xx_HAL_Driver/Inc/stm32l4xx_ll_exti.h ****   *         @arg @ref LL_EXTI_LINE_0
 837:Drivers/STM32L4xx_HAL_Driver/Inc/stm32l4xx_ll_exti.h ****   *         @arg @ref LL_EXTI_LINE_1
 838:Drivers/STM32L4xx_HAL_Driver/Inc/stm32l4xx_ll_exti.h ****   *         @arg @ref LL_EXTI_LINE_2
 839:Drivers/STM32L4xx_HAL_Driver/Inc/stm32l4xx_ll_exti.h ****   *         @arg @ref LL_EXTI_LINE_3
 840:Drivers/STM32L4xx_HAL_Driver/Inc/stm32l4xx_ll_exti.h ****   *         @arg @ref LL_EXTI_LINE_4
 841:Drivers/STM32L4xx_HAL_Driver/Inc/stm32l4xx_ll_exti.h ****   *         @arg @ref LL_EXTI_LINE_5
ARM GAS  /tmp/cckJv99E.s 			page 21


 842:Drivers/STM32L4xx_HAL_Driver/Inc/stm32l4xx_ll_exti.h ****   *         @arg @ref LL_EXTI_LINE_6
 843:Drivers/STM32L4xx_HAL_Driver/Inc/stm32l4xx_ll_exti.h ****   *         @arg @ref LL_EXTI_LINE_7
 844:Drivers/STM32L4xx_HAL_Driver/Inc/stm32l4xx_ll_exti.h ****   *         @arg @ref LL_EXTI_LINE_8
 845:Drivers/STM32L4xx_HAL_Driver/Inc/stm32l4xx_ll_exti.h ****   *         @arg @ref LL_EXTI_LINE_9
 846:Drivers/STM32L4xx_HAL_Driver/Inc/stm32l4xx_ll_exti.h ****   *         @arg @ref LL_EXTI_LINE_10
 847:Drivers/STM32L4xx_HAL_Driver/Inc/stm32l4xx_ll_exti.h ****   *         @arg @ref LL_EXTI_LINE_11
 848:Drivers/STM32L4xx_HAL_Driver/Inc/stm32l4xx_ll_exti.h ****   *         @arg @ref LL_EXTI_LINE_12
 849:Drivers/STM32L4xx_HAL_Driver/Inc/stm32l4xx_ll_exti.h ****   *         @arg @ref LL_EXTI_LINE_13
 850:Drivers/STM32L4xx_HAL_Driver/Inc/stm32l4xx_ll_exti.h ****   *         @arg @ref LL_EXTI_LINE_14
 851:Drivers/STM32L4xx_HAL_Driver/Inc/stm32l4xx_ll_exti.h ****   *         @arg @ref LL_EXTI_LINE_15
 852:Drivers/STM32L4xx_HAL_Driver/Inc/stm32l4xx_ll_exti.h ****   *         @arg @ref LL_EXTI_LINE_16
 853:Drivers/STM32L4xx_HAL_Driver/Inc/stm32l4xx_ll_exti.h ****   *         @arg @ref LL_EXTI_LINE_18
 854:Drivers/STM32L4xx_HAL_Driver/Inc/stm32l4xx_ll_exti.h ****   *         @arg @ref LL_EXTI_LINE_19
 855:Drivers/STM32L4xx_HAL_Driver/Inc/stm32l4xx_ll_exti.h ****   *         @arg @ref LL_EXTI_LINE_20
 856:Drivers/STM32L4xx_HAL_Driver/Inc/stm32l4xx_ll_exti.h ****   *         @arg @ref LL_EXTI_LINE_21
 857:Drivers/STM32L4xx_HAL_Driver/Inc/stm32l4xx_ll_exti.h ****   *         @arg @ref LL_EXTI_LINE_22
 858:Drivers/STM32L4xx_HAL_Driver/Inc/stm32l4xx_ll_exti.h ****   *         @arg @ref LL_EXTI_LINE_29
 859:Drivers/STM32L4xx_HAL_Driver/Inc/stm32l4xx_ll_exti.h ****   *         @arg @ref LL_EXTI_LINE_30
 860:Drivers/STM32L4xx_HAL_Driver/Inc/stm32l4xx_ll_exti.h ****   *         @arg @ref LL_EXTI_LINE_31
 861:Drivers/STM32L4xx_HAL_Driver/Inc/stm32l4xx_ll_exti.h ****   * @note   Please check each device line mapping for EXTI Line availability
 862:Drivers/STM32L4xx_HAL_Driver/Inc/stm32l4xx_ll_exti.h ****   * @retval State of bit (1 or 0).
 863:Drivers/STM32L4xx_HAL_Driver/Inc/stm32l4xx_ll_exti.h ****   */
 864:Drivers/STM32L4xx_HAL_Driver/Inc/stm32l4xx_ll_exti.h **** __STATIC_INLINE uint32_t LL_EXTI_IsEnabledRisingTrig_0_31(uint32_t ExtiLine)
 865:Drivers/STM32L4xx_HAL_Driver/Inc/stm32l4xx_ll_exti.h **** {
 866:Drivers/STM32L4xx_HAL_Driver/Inc/stm32l4xx_ll_exti.h ****   return ((READ_BIT(EXTI->RTSR1, ExtiLine) == (ExtiLine)) ? 1UL : 0UL);
 867:Drivers/STM32L4xx_HAL_Driver/Inc/stm32l4xx_ll_exti.h **** }
 868:Drivers/STM32L4xx_HAL_Driver/Inc/stm32l4xx_ll_exti.h **** 
 869:Drivers/STM32L4xx_HAL_Driver/Inc/stm32l4xx_ll_exti.h **** /**
 870:Drivers/STM32L4xx_HAL_Driver/Inc/stm32l4xx_ll_exti.h ****   * @brief  Check if rising edge trigger is enabled for Lines in range 32 to 63
 871:Drivers/STM32L4xx_HAL_Driver/Inc/stm32l4xx_ll_exti.h ****   * @rmtoll RTSR2        RTx           LL_EXTI_IsEnabledRisingTrig_32_63
 872:Drivers/STM32L4xx_HAL_Driver/Inc/stm32l4xx_ll_exti.h ****   * @param  ExtiLine This parameter can be a combination of the following values:
 873:Drivers/STM32L4xx_HAL_Driver/Inc/stm32l4xx_ll_exti.h ****   *         @arg @ref LL_EXTI_LINE_35
 874:Drivers/STM32L4xx_HAL_Driver/Inc/stm32l4xx_ll_exti.h ****   *         @arg @ref LL_EXTI_LINE_36
 875:Drivers/STM32L4xx_HAL_Driver/Inc/stm32l4xx_ll_exti.h ****   *         @arg @ref LL_EXTI_LINE_37
 876:Drivers/STM32L4xx_HAL_Driver/Inc/stm32l4xx_ll_exti.h ****   *         @arg @ref LL_EXTI_LINE_38
 877:Drivers/STM32L4xx_HAL_Driver/Inc/stm32l4xx_ll_exti.h ****   * @retval State of bit (1 or 0).
 878:Drivers/STM32L4xx_HAL_Driver/Inc/stm32l4xx_ll_exti.h ****   */
 879:Drivers/STM32L4xx_HAL_Driver/Inc/stm32l4xx_ll_exti.h **** __STATIC_INLINE uint32_t LL_EXTI_IsEnabledRisingTrig_32_63(uint32_t ExtiLine)
 880:Drivers/STM32L4xx_HAL_Driver/Inc/stm32l4xx_ll_exti.h **** {
 881:Drivers/STM32L4xx_HAL_Driver/Inc/stm32l4xx_ll_exti.h ****   return ((READ_BIT(EXTI->RTSR2, ExtiLine) == (ExtiLine)) ? 1UL : 0UL);
 882:Drivers/STM32L4xx_HAL_Driver/Inc/stm32l4xx_ll_exti.h **** }
 883:Drivers/STM32L4xx_HAL_Driver/Inc/stm32l4xx_ll_exti.h **** 
 884:Drivers/STM32L4xx_HAL_Driver/Inc/stm32l4xx_ll_exti.h **** /**
 885:Drivers/STM32L4xx_HAL_Driver/Inc/stm32l4xx_ll_exti.h ****   * @}
 886:Drivers/STM32L4xx_HAL_Driver/Inc/stm32l4xx_ll_exti.h ****   */
 887:Drivers/STM32L4xx_HAL_Driver/Inc/stm32l4xx_ll_exti.h **** 
 888:Drivers/STM32L4xx_HAL_Driver/Inc/stm32l4xx_ll_exti.h **** /** @defgroup EXTI_LL_EF_Falling_Trigger_Management Falling_Trigger_Management
 889:Drivers/STM32L4xx_HAL_Driver/Inc/stm32l4xx_ll_exti.h ****   * @{
 890:Drivers/STM32L4xx_HAL_Driver/Inc/stm32l4xx_ll_exti.h ****   */
 891:Drivers/STM32L4xx_HAL_Driver/Inc/stm32l4xx_ll_exti.h **** 
 892:Drivers/STM32L4xx_HAL_Driver/Inc/stm32l4xx_ll_exti.h **** /**
 893:Drivers/STM32L4xx_HAL_Driver/Inc/stm32l4xx_ll_exti.h ****   * @brief  Enable ExtiLine Falling Edge Trigger for Lines in range 0 to 31
 894:Drivers/STM32L4xx_HAL_Driver/Inc/stm32l4xx_ll_exti.h ****   * @note The configurable wakeup lines are edge-triggered. No glitch must be
 895:Drivers/STM32L4xx_HAL_Driver/Inc/stm32l4xx_ll_exti.h ****   *       generated on these lines. If a falling edge on a configurable interrupt
 896:Drivers/STM32L4xx_HAL_Driver/Inc/stm32l4xx_ll_exti.h ****   *       line occurs during a write operation in the EXTI_FTSR register, the
 897:Drivers/STM32L4xx_HAL_Driver/Inc/stm32l4xx_ll_exti.h ****   *       pending bit is not set.
 898:Drivers/STM32L4xx_HAL_Driver/Inc/stm32l4xx_ll_exti.h ****   *       Rising and falling edge triggers can be set for
ARM GAS  /tmp/cckJv99E.s 			page 22


 899:Drivers/STM32L4xx_HAL_Driver/Inc/stm32l4xx_ll_exti.h ****   *       the same interrupt line. In this case, both generate a trigger
 900:Drivers/STM32L4xx_HAL_Driver/Inc/stm32l4xx_ll_exti.h ****   *       condition.
 901:Drivers/STM32L4xx_HAL_Driver/Inc/stm32l4xx_ll_exti.h ****   * @rmtoll FTSR1        FTx           LL_EXTI_EnableFallingTrig_0_31
 902:Drivers/STM32L4xx_HAL_Driver/Inc/stm32l4xx_ll_exti.h ****   * @param  ExtiLine This parameter can be a combination of the following values:
 903:Drivers/STM32L4xx_HAL_Driver/Inc/stm32l4xx_ll_exti.h ****   *         @arg @ref LL_EXTI_LINE_0
 904:Drivers/STM32L4xx_HAL_Driver/Inc/stm32l4xx_ll_exti.h ****   *         @arg @ref LL_EXTI_LINE_1
 905:Drivers/STM32L4xx_HAL_Driver/Inc/stm32l4xx_ll_exti.h ****   *         @arg @ref LL_EXTI_LINE_2
 906:Drivers/STM32L4xx_HAL_Driver/Inc/stm32l4xx_ll_exti.h ****   *         @arg @ref LL_EXTI_LINE_3
 907:Drivers/STM32L4xx_HAL_Driver/Inc/stm32l4xx_ll_exti.h ****   *         @arg @ref LL_EXTI_LINE_4
 908:Drivers/STM32L4xx_HAL_Driver/Inc/stm32l4xx_ll_exti.h ****   *         @arg @ref LL_EXTI_LINE_5
 909:Drivers/STM32L4xx_HAL_Driver/Inc/stm32l4xx_ll_exti.h ****   *         @arg @ref LL_EXTI_LINE_6
 910:Drivers/STM32L4xx_HAL_Driver/Inc/stm32l4xx_ll_exti.h ****   *         @arg @ref LL_EXTI_LINE_7
 911:Drivers/STM32L4xx_HAL_Driver/Inc/stm32l4xx_ll_exti.h ****   *         @arg @ref LL_EXTI_LINE_8
 912:Drivers/STM32L4xx_HAL_Driver/Inc/stm32l4xx_ll_exti.h ****   *         @arg @ref LL_EXTI_LINE_9
 913:Drivers/STM32L4xx_HAL_Driver/Inc/stm32l4xx_ll_exti.h ****   *         @arg @ref LL_EXTI_LINE_10
 914:Drivers/STM32L4xx_HAL_Driver/Inc/stm32l4xx_ll_exti.h ****   *         @arg @ref LL_EXTI_LINE_11
 915:Drivers/STM32L4xx_HAL_Driver/Inc/stm32l4xx_ll_exti.h ****   *         @arg @ref LL_EXTI_LINE_12
 916:Drivers/STM32L4xx_HAL_Driver/Inc/stm32l4xx_ll_exti.h ****   *         @arg @ref LL_EXTI_LINE_13
 917:Drivers/STM32L4xx_HAL_Driver/Inc/stm32l4xx_ll_exti.h ****   *         @arg @ref LL_EXTI_LINE_14
 918:Drivers/STM32L4xx_HAL_Driver/Inc/stm32l4xx_ll_exti.h ****   *         @arg @ref LL_EXTI_LINE_15
 919:Drivers/STM32L4xx_HAL_Driver/Inc/stm32l4xx_ll_exti.h ****   *         @arg @ref LL_EXTI_LINE_16
 920:Drivers/STM32L4xx_HAL_Driver/Inc/stm32l4xx_ll_exti.h ****   *         @arg @ref LL_EXTI_LINE_18
 921:Drivers/STM32L4xx_HAL_Driver/Inc/stm32l4xx_ll_exti.h ****   *         @arg @ref LL_EXTI_LINE_19
 922:Drivers/STM32L4xx_HAL_Driver/Inc/stm32l4xx_ll_exti.h ****   *         @arg @ref LL_EXTI_LINE_20
 923:Drivers/STM32L4xx_HAL_Driver/Inc/stm32l4xx_ll_exti.h ****   *         @arg @ref LL_EXTI_LINE_21
 924:Drivers/STM32L4xx_HAL_Driver/Inc/stm32l4xx_ll_exti.h ****   *         @arg @ref LL_EXTI_LINE_22
 925:Drivers/STM32L4xx_HAL_Driver/Inc/stm32l4xx_ll_exti.h ****   *         @arg @ref LL_EXTI_LINE_29
 926:Drivers/STM32L4xx_HAL_Driver/Inc/stm32l4xx_ll_exti.h ****   *         @arg @ref LL_EXTI_LINE_30
 927:Drivers/STM32L4xx_HAL_Driver/Inc/stm32l4xx_ll_exti.h ****   *         @arg @ref LL_EXTI_LINE_31
 928:Drivers/STM32L4xx_HAL_Driver/Inc/stm32l4xx_ll_exti.h ****   * @note   Please check each device line mapping for EXTI Line availability
 929:Drivers/STM32L4xx_HAL_Driver/Inc/stm32l4xx_ll_exti.h ****   * @retval None
 930:Drivers/STM32L4xx_HAL_Driver/Inc/stm32l4xx_ll_exti.h ****   */
 931:Drivers/STM32L4xx_HAL_Driver/Inc/stm32l4xx_ll_exti.h **** __STATIC_INLINE void LL_EXTI_EnableFallingTrig_0_31(uint32_t ExtiLine)
 932:Drivers/STM32L4xx_HAL_Driver/Inc/stm32l4xx_ll_exti.h **** {
 314              		.loc 2 932 1
 315              		.cfi_startproc
 316              		@ args = 0, pretend = 0, frame = 8
 317              		@ frame_needed = 1, uses_anonymous_args = 0
 318              		@ link register save eliminated.
 319 0000 80B4     		push	{r7}
 320              		.cfi_def_cfa_offset 4
 321              		.cfi_offset 7, -4
 322 0002 83B0     		sub	sp, sp, #12
 323              		.cfi_def_cfa_offset 16
 324 0004 00AF     		add	r7, sp, #0
 325              		.cfi_def_cfa_register 7
 326 0006 7860     		str	r0, [r7, #4]
 933:Drivers/STM32L4xx_HAL_Driver/Inc/stm32l4xx_ll_exti.h ****   SET_BIT(EXTI->FTSR1, ExtiLine);
 327              		.loc 2 933 3
 328 0008 054B     		ldr	r3, .L20
 329 000a DA68     		ldr	r2, [r3, #12]
 330 000c 0449     		ldr	r1, .L20
 331 000e 7B68     		ldr	r3, [r7, #4]
 332 0010 1343     		orrs	r3, r3, r2
 333 0012 CB60     		str	r3, [r1, #12]
 934:Drivers/STM32L4xx_HAL_Driver/Inc/stm32l4xx_ll_exti.h **** }
 334              		.loc 2 934 1
ARM GAS  /tmp/cckJv99E.s 			page 23


 335 0014 00BF     		nop
 336 0016 0C37     		adds	r7, r7, #12
 337              		.cfi_def_cfa_offset 4
 338 0018 BD46     		mov	sp, r7
 339              		.cfi_def_cfa_register 13
 340              		@ sp needed
 341 001a 5DF8047B 		ldr	r7, [sp], #4
 342              		.cfi_restore 7
 343              		.cfi_def_cfa_offset 0
 344 001e 7047     		bx	lr
 345              	.L21:
 346              		.align	2
 347              	.L20:
 348 0020 00040140 		.word	1073808384
 349              		.cfi_endproc
 350              	.LFE431:
 352              		.section	.text.LL_EXTI_DisableFallingTrig_0_31,"ax",%progbits
 353              		.align	1
 354              		.syntax unified
 355              		.thumb
 356              		.thumb_func
 358              	LL_EXTI_DisableFallingTrig_0_31:
 359              	.LFB433:
 935:Drivers/STM32L4xx_HAL_Driver/Inc/stm32l4xx_ll_exti.h **** 
 936:Drivers/STM32L4xx_HAL_Driver/Inc/stm32l4xx_ll_exti.h **** /**
 937:Drivers/STM32L4xx_HAL_Driver/Inc/stm32l4xx_ll_exti.h ****   * @brief  Enable ExtiLine Falling Edge Trigger for Lines in range 32 to 63
 938:Drivers/STM32L4xx_HAL_Driver/Inc/stm32l4xx_ll_exti.h ****   * @note The configurable wakeup lines are edge-triggered. No glitch must be
 939:Drivers/STM32L4xx_HAL_Driver/Inc/stm32l4xx_ll_exti.h ****   *       generated on these lines. If a Falling edge on a configurable interrupt
 940:Drivers/STM32L4xx_HAL_Driver/Inc/stm32l4xx_ll_exti.h ****   *       line occurs during a write operation in the EXTI_FTSR register, the
 941:Drivers/STM32L4xx_HAL_Driver/Inc/stm32l4xx_ll_exti.h ****   *       pending bit is not set.
 942:Drivers/STM32L4xx_HAL_Driver/Inc/stm32l4xx_ll_exti.h ****   *       Rising and falling edge triggers can be set for
 943:Drivers/STM32L4xx_HAL_Driver/Inc/stm32l4xx_ll_exti.h ****   *       the same interrupt line. In this case, both generate a trigger
 944:Drivers/STM32L4xx_HAL_Driver/Inc/stm32l4xx_ll_exti.h ****   *       condition.
 945:Drivers/STM32L4xx_HAL_Driver/Inc/stm32l4xx_ll_exti.h ****   * @rmtoll FTSR2        FTx           LL_EXTI_EnableFallingTrig_32_63
 946:Drivers/STM32L4xx_HAL_Driver/Inc/stm32l4xx_ll_exti.h ****   * @param  ExtiLine This parameter can be a combination of the following values:
 947:Drivers/STM32L4xx_HAL_Driver/Inc/stm32l4xx_ll_exti.h ****   *         @arg @ref LL_EXTI_LINE_35
 948:Drivers/STM32L4xx_HAL_Driver/Inc/stm32l4xx_ll_exti.h ****   *         @arg @ref LL_EXTI_LINE_36
 949:Drivers/STM32L4xx_HAL_Driver/Inc/stm32l4xx_ll_exti.h ****   *         @arg @ref LL_EXTI_LINE_37
 950:Drivers/STM32L4xx_HAL_Driver/Inc/stm32l4xx_ll_exti.h ****   *         @arg @ref LL_EXTI_LINE_38
 951:Drivers/STM32L4xx_HAL_Driver/Inc/stm32l4xx_ll_exti.h ****   * @retval None
 952:Drivers/STM32L4xx_HAL_Driver/Inc/stm32l4xx_ll_exti.h ****   */
 953:Drivers/STM32L4xx_HAL_Driver/Inc/stm32l4xx_ll_exti.h **** __STATIC_INLINE void LL_EXTI_EnableFallingTrig_32_63(uint32_t ExtiLine)
 954:Drivers/STM32L4xx_HAL_Driver/Inc/stm32l4xx_ll_exti.h **** {
 955:Drivers/STM32L4xx_HAL_Driver/Inc/stm32l4xx_ll_exti.h ****   SET_BIT(EXTI->FTSR2, ExtiLine);
 956:Drivers/STM32L4xx_HAL_Driver/Inc/stm32l4xx_ll_exti.h **** }
 957:Drivers/STM32L4xx_HAL_Driver/Inc/stm32l4xx_ll_exti.h **** 
 958:Drivers/STM32L4xx_HAL_Driver/Inc/stm32l4xx_ll_exti.h **** /**
 959:Drivers/STM32L4xx_HAL_Driver/Inc/stm32l4xx_ll_exti.h ****   * @brief  Disable ExtiLine Falling Edge Trigger for Lines in range 0 to 31
 960:Drivers/STM32L4xx_HAL_Driver/Inc/stm32l4xx_ll_exti.h ****   * @note The configurable wakeup lines are edge-triggered. No glitch must be
 961:Drivers/STM32L4xx_HAL_Driver/Inc/stm32l4xx_ll_exti.h ****   *       generated on these lines. If a Falling edge on a configurable interrupt
 962:Drivers/STM32L4xx_HAL_Driver/Inc/stm32l4xx_ll_exti.h ****   *       line occurs during a write operation in the EXTI_FTSR register, the
 963:Drivers/STM32L4xx_HAL_Driver/Inc/stm32l4xx_ll_exti.h ****   *       pending bit is not set.
 964:Drivers/STM32L4xx_HAL_Driver/Inc/stm32l4xx_ll_exti.h ****   *       Rising and falling edge triggers can be set for the same interrupt line.
 965:Drivers/STM32L4xx_HAL_Driver/Inc/stm32l4xx_ll_exti.h ****   *       In this case, both generate a trigger condition.
 966:Drivers/STM32L4xx_HAL_Driver/Inc/stm32l4xx_ll_exti.h ****   * @rmtoll FTSR1        FTx           LL_EXTI_DisableFallingTrig_0_31
 967:Drivers/STM32L4xx_HAL_Driver/Inc/stm32l4xx_ll_exti.h ****   * @param  ExtiLine This parameter can be a combination of the following values:
 968:Drivers/STM32L4xx_HAL_Driver/Inc/stm32l4xx_ll_exti.h ****   *         @arg @ref LL_EXTI_LINE_0
ARM GAS  /tmp/cckJv99E.s 			page 24


 969:Drivers/STM32L4xx_HAL_Driver/Inc/stm32l4xx_ll_exti.h ****   *         @arg @ref LL_EXTI_LINE_1
 970:Drivers/STM32L4xx_HAL_Driver/Inc/stm32l4xx_ll_exti.h ****   *         @arg @ref LL_EXTI_LINE_2
 971:Drivers/STM32L4xx_HAL_Driver/Inc/stm32l4xx_ll_exti.h ****   *         @arg @ref LL_EXTI_LINE_3
 972:Drivers/STM32L4xx_HAL_Driver/Inc/stm32l4xx_ll_exti.h ****   *         @arg @ref LL_EXTI_LINE_4
 973:Drivers/STM32L4xx_HAL_Driver/Inc/stm32l4xx_ll_exti.h ****   *         @arg @ref LL_EXTI_LINE_5
 974:Drivers/STM32L4xx_HAL_Driver/Inc/stm32l4xx_ll_exti.h ****   *         @arg @ref LL_EXTI_LINE_6
 975:Drivers/STM32L4xx_HAL_Driver/Inc/stm32l4xx_ll_exti.h ****   *         @arg @ref LL_EXTI_LINE_7
 976:Drivers/STM32L4xx_HAL_Driver/Inc/stm32l4xx_ll_exti.h ****   *         @arg @ref LL_EXTI_LINE_8
 977:Drivers/STM32L4xx_HAL_Driver/Inc/stm32l4xx_ll_exti.h ****   *         @arg @ref LL_EXTI_LINE_9
 978:Drivers/STM32L4xx_HAL_Driver/Inc/stm32l4xx_ll_exti.h ****   *         @arg @ref LL_EXTI_LINE_10
 979:Drivers/STM32L4xx_HAL_Driver/Inc/stm32l4xx_ll_exti.h ****   *         @arg @ref LL_EXTI_LINE_11
 980:Drivers/STM32L4xx_HAL_Driver/Inc/stm32l4xx_ll_exti.h ****   *         @arg @ref LL_EXTI_LINE_12
 981:Drivers/STM32L4xx_HAL_Driver/Inc/stm32l4xx_ll_exti.h ****   *         @arg @ref LL_EXTI_LINE_13
 982:Drivers/STM32L4xx_HAL_Driver/Inc/stm32l4xx_ll_exti.h ****   *         @arg @ref LL_EXTI_LINE_14
 983:Drivers/STM32L4xx_HAL_Driver/Inc/stm32l4xx_ll_exti.h ****   *         @arg @ref LL_EXTI_LINE_15
 984:Drivers/STM32L4xx_HAL_Driver/Inc/stm32l4xx_ll_exti.h ****   *         @arg @ref LL_EXTI_LINE_16
 985:Drivers/STM32L4xx_HAL_Driver/Inc/stm32l4xx_ll_exti.h ****   *         @arg @ref LL_EXTI_LINE_18
 986:Drivers/STM32L4xx_HAL_Driver/Inc/stm32l4xx_ll_exti.h ****   *         @arg @ref LL_EXTI_LINE_19
 987:Drivers/STM32L4xx_HAL_Driver/Inc/stm32l4xx_ll_exti.h ****   *         @arg @ref LL_EXTI_LINE_20
 988:Drivers/STM32L4xx_HAL_Driver/Inc/stm32l4xx_ll_exti.h ****   *         @arg @ref LL_EXTI_LINE_21
 989:Drivers/STM32L4xx_HAL_Driver/Inc/stm32l4xx_ll_exti.h ****   *         @arg @ref LL_EXTI_LINE_22
 990:Drivers/STM32L4xx_HAL_Driver/Inc/stm32l4xx_ll_exti.h ****   *         @arg @ref LL_EXTI_LINE_29
 991:Drivers/STM32L4xx_HAL_Driver/Inc/stm32l4xx_ll_exti.h ****   *         @arg @ref LL_EXTI_LINE_30
 992:Drivers/STM32L4xx_HAL_Driver/Inc/stm32l4xx_ll_exti.h ****   *         @arg @ref LL_EXTI_LINE_31
 993:Drivers/STM32L4xx_HAL_Driver/Inc/stm32l4xx_ll_exti.h ****   * @note   Please check each device line mapping for EXTI Line availability
 994:Drivers/STM32L4xx_HAL_Driver/Inc/stm32l4xx_ll_exti.h ****   * @retval None
 995:Drivers/STM32L4xx_HAL_Driver/Inc/stm32l4xx_ll_exti.h ****   */
 996:Drivers/STM32L4xx_HAL_Driver/Inc/stm32l4xx_ll_exti.h **** __STATIC_INLINE void LL_EXTI_DisableFallingTrig_0_31(uint32_t ExtiLine)
 997:Drivers/STM32L4xx_HAL_Driver/Inc/stm32l4xx_ll_exti.h **** {
 360              		.loc 2 997 1
 361              		.cfi_startproc
 362              		@ args = 0, pretend = 0, frame = 8
 363              		@ frame_needed = 1, uses_anonymous_args = 0
 364              		@ link register save eliminated.
 365 0000 80B4     		push	{r7}
 366              		.cfi_def_cfa_offset 4
 367              		.cfi_offset 7, -4
 368 0002 83B0     		sub	sp, sp, #12
 369              		.cfi_def_cfa_offset 16
 370 0004 00AF     		add	r7, sp, #0
 371              		.cfi_def_cfa_register 7
 372 0006 7860     		str	r0, [r7, #4]
 998:Drivers/STM32L4xx_HAL_Driver/Inc/stm32l4xx_ll_exti.h ****   CLEAR_BIT(EXTI->FTSR1, ExtiLine);
 373              		.loc 2 998 3
 374 0008 064B     		ldr	r3, .L23
 375 000a DA68     		ldr	r2, [r3, #12]
 376 000c 7B68     		ldr	r3, [r7, #4]
 377 000e DB43     		mvns	r3, r3
 378 0010 0449     		ldr	r1, .L23
 379 0012 1340     		ands	r3, r3, r2
 380 0014 CB60     		str	r3, [r1, #12]
 999:Drivers/STM32L4xx_HAL_Driver/Inc/stm32l4xx_ll_exti.h **** }
 381              		.loc 2 999 1
 382 0016 00BF     		nop
 383 0018 0C37     		adds	r7, r7, #12
 384              		.cfi_def_cfa_offset 4
 385 001a BD46     		mov	sp, r7
ARM GAS  /tmp/cckJv99E.s 			page 25


 386              		.cfi_def_cfa_register 13
 387              		@ sp needed
 388 001c 5DF8047B 		ldr	r7, [sp], #4
 389              		.cfi_restore 7
 390              		.cfi_def_cfa_offset 0
 391 0020 7047     		bx	lr
 392              	.L24:
 393 0022 00BF     		.align	2
 394              	.L23:
 395 0024 00040140 		.word	1073808384
 396              		.cfi_endproc
 397              	.LFE433:
 399              		.section	.text.LL_EXTI_IsActiveFlag_0_31,"ax",%progbits
 400              		.align	1
 401              		.syntax unified
 402              		.thumb
 403              		.thumb_func
 405              	LL_EXTI_IsActiveFlag_0_31:
 406              	.LFB439:
1000:Drivers/STM32L4xx_HAL_Driver/Inc/stm32l4xx_ll_exti.h **** 
1001:Drivers/STM32L4xx_HAL_Driver/Inc/stm32l4xx_ll_exti.h **** /**
1002:Drivers/STM32L4xx_HAL_Driver/Inc/stm32l4xx_ll_exti.h ****   * @brief  Disable ExtiLine Falling Edge Trigger for Lines in range 32 to 63
1003:Drivers/STM32L4xx_HAL_Driver/Inc/stm32l4xx_ll_exti.h ****   * @note The configurable wakeup lines are edge-triggered. No glitch must be
1004:Drivers/STM32L4xx_HAL_Driver/Inc/stm32l4xx_ll_exti.h ****   *       generated on these lines. If a Falling edge on a configurable interrupt
1005:Drivers/STM32L4xx_HAL_Driver/Inc/stm32l4xx_ll_exti.h ****   *       line occurs during a write operation in the EXTI_FTSR register, the
1006:Drivers/STM32L4xx_HAL_Driver/Inc/stm32l4xx_ll_exti.h ****   *       pending bit is not set.
1007:Drivers/STM32L4xx_HAL_Driver/Inc/stm32l4xx_ll_exti.h ****   *       Rising and falling edge triggers can be set for the same interrupt line.
1008:Drivers/STM32L4xx_HAL_Driver/Inc/stm32l4xx_ll_exti.h ****   *       In this case, both generate a trigger condition.
1009:Drivers/STM32L4xx_HAL_Driver/Inc/stm32l4xx_ll_exti.h ****   * @rmtoll FTSR2        FTx           LL_EXTI_DisableFallingTrig_32_63
1010:Drivers/STM32L4xx_HAL_Driver/Inc/stm32l4xx_ll_exti.h ****   * @param  ExtiLine This parameter can be a combination of the following values:
1011:Drivers/STM32L4xx_HAL_Driver/Inc/stm32l4xx_ll_exti.h ****   *         @arg @ref LL_EXTI_LINE_35
1012:Drivers/STM32L4xx_HAL_Driver/Inc/stm32l4xx_ll_exti.h ****   *         @arg @ref LL_EXTI_LINE_36
1013:Drivers/STM32L4xx_HAL_Driver/Inc/stm32l4xx_ll_exti.h ****   *         @arg @ref LL_EXTI_LINE_37
1014:Drivers/STM32L4xx_HAL_Driver/Inc/stm32l4xx_ll_exti.h ****   *         @arg @ref LL_EXTI_LINE_38
1015:Drivers/STM32L4xx_HAL_Driver/Inc/stm32l4xx_ll_exti.h ****   * @retval None
1016:Drivers/STM32L4xx_HAL_Driver/Inc/stm32l4xx_ll_exti.h ****   */
1017:Drivers/STM32L4xx_HAL_Driver/Inc/stm32l4xx_ll_exti.h **** __STATIC_INLINE void LL_EXTI_DisableFallingTrig_32_63(uint32_t ExtiLine)
1018:Drivers/STM32L4xx_HAL_Driver/Inc/stm32l4xx_ll_exti.h **** {
1019:Drivers/STM32L4xx_HAL_Driver/Inc/stm32l4xx_ll_exti.h ****   CLEAR_BIT(EXTI->FTSR2, ExtiLine);
1020:Drivers/STM32L4xx_HAL_Driver/Inc/stm32l4xx_ll_exti.h **** }
1021:Drivers/STM32L4xx_HAL_Driver/Inc/stm32l4xx_ll_exti.h **** 
1022:Drivers/STM32L4xx_HAL_Driver/Inc/stm32l4xx_ll_exti.h **** /**
1023:Drivers/STM32L4xx_HAL_Driver/Inc/stm32l4xx_ll_exti.h ****   * @brief  Check if falling edge trigger is enabled for Lines in range 0 to 31
1024:Drivers/STM32L4xx_HAL_Driver/Inc/stm32l4xx_ll_exti.h ****   * @rmtoll FTSR1        FTx           LL_EXTI_IsEnabledFallingTrig_0_31
1025:Drivers/STM32L4xx_HAL_Driver/Inc/stm32l4xx_ll_exti.h ****   * @param  ExtiLine This parameter can be a combination of the following values:
1026:Drivers/STM32L4xx_HAL_Driver/Inc/stm32l4xx_ll_exti.h ****   *         @arg @ref LL_EXTI_LINE_0
1027:Drivers/STM32L4xx_HAL_Driver/Inc/stm32l4xx_ll_exti.h ****   *         @arg @ref LL_EXTI_LINE_1
1028:Drivers/STM32L4xx_HAL_Driver/Inc/stm32l4xx_ll_exti.h ****   *         @arg @ref LL_EXTI_LINE_2
1029:Drivers/STM32L4xx_HAL_Driver/Inc/stm32l4xx_ll_exti.h ****   *         @arg @ref LL_EXTI_LINE_3
1030:Drivers/STM32L4xx_HAL_Driver/Inc/stm32l4xx_ll_exti.h ****   *         @arg @ref LL_EXTI_LINE_4
1031:Drivers/STM32L4xx_HAL_Driver/Inc/stm32l4xx_ll_exti.h ****   *         @arg @ref LL_EXTI_LINE_5
1032:Drivers/STM32L4xx_HAL_Driver/Inc/stm32l4xx_ll_exti.h ****   *         @arg @ref LL_EXTI_LINE_6
1033:Drivers/STM32L4xx_HAL_Driver/Inc/stm32l4xx_ll_exti.h ****   *         @arg @ref LL_EXTI_LINE_7
1034:Drivers/STM32L4xx_HAL_Driver/Inc/stm32l4xx_ll_exti.h ****   *         @arg @ref LL_EXTI_LINE_8
1035:Drivers/STM32L4xx_HAL_Driver/Inc/stm32l4xx_ll_exti.h ****   *         @arg @ref LL_EXTI_LINE_9
1036:Drivers/STM32L4xx_HAL_Driver/Inc/stm32l4xx_ll_exti.h ****   *         @arg @ref LL_EXTI_LINE_10
1037:Drivers/STM32L4xx_HAL_Driver/Inc/stm32l4xx_ll_exti.h ****   *         @arg @ref LL_EXTI_LINE_11
ARM GAS  /tmp/cckJv99E.s 			page 26


1038:Drivers/STM32L4xx_HAL_Driver/Inc/stm32l4xx_ll_exti.h ****   *         @arg @ref LL_EXTI_LINE_12
1039:Drivers/STM32L4xx_HAL_Driver/Inc/stm32l4xx_ll_exti.h ****   *         @arg @ref LL_EXTI_LINE_13
1040:Drivers/STM32L4xx_HAL_Driver/Inc/stm32l4xx_ll_exti.h ****   *         @arg @ref LL_EXTI_LINE_14
1041:Drivers/STM32L4xx_HAL_Driver/Inc/stm32l4xx_ll_exti.h ****   *         @arg @ref LL_EXTI_LINE_15
1042:Drivers/STM32L4xx_HAL_Driver/Inc/stm32l4xx_ll_exti.h ****   *         @arg @ref LL_EXTI_LINE_16
1043:Drivers/STM32L4xx_HAL_Driver/Inc/stm32l4xx_ll_exti.h ****   *         @arg @ref LL_EXTI_LINE_18
1044:Drivers/STM32L4xx_HAL_Driver/Inc/stm32l4xx_ll_exti.h ****   *         @arg @ref LL_EXTI_LINE_19
1045:Drivers/STM32L4xx_HAL_Driver/Inc/stm32l4xx_ll_exti.h ****   *         @arg @ref LL_EXTI_LINE_20
1046:Drivers/STM32L4xx_HAL_Driver/Inc/stm32l4xx_ll_exti.h ****   *         @arg @ref LL_EXTI_LINE_21
1047:Drivers/STM32L4xx_HAL_Driver/Inc/stm32l4xx_ll_exti.h ****   *         @arg @ref LL_EXTI_LINE_22
1048:Drivers/STM32L4xx_HAL_Driver/Inc/stm32l4xx_ll_exti.h ****   *         @arg @ref LL_EXTI_LINE_29
1049:Drivers/STM32L4xx_HAL_Driver/Inc/stm32l4xx_ll_exti.h ****   *         @arg @ref LL_EXTI_LINE_30
1050:Drivers/STM32L4xx_HAL_Driver/Inc/stm32l4xx_ll_exti.h ****   *         @arg @ref LL_EXTI_LINE_31
1051:Drivers/STM32L4xx_HAL_Driver/Inc/stm32l4xx_ll_exti.h ****   * @note   Please check each device line mapping for EXTI Line availability
1052:Drivers/STM32L4xx_HAL_Driver/Inc/stm32l4xx_ll_exti.h ****   * @retval State of bit (1 or 0).
1053:Drivers/STM32L4xx_HAL_Driver/Inc/stm32l4xx_ll_exti.h ****   */
1054:Drivers/STM32L4xx_HAL_Driver/Inc/stm32l4xx_ll_exti.h **** __STATIC_INLINE uint32_t LL_EXTI_IsEnabledFallingTrig_0_31(uint32_t ExtiLine)
1055:Drivers/STM32L4xx_HAL_Driver/Inc/stm32l4xx_ll_exti.h **** {
1056:Drivers/STM32L4xx_HAL_Driver/Inc/stm32l4xx_ll_exti.h ****   return ((READ_BIT(EXTI->FTSR1, ExtiLine) == (ExtiLine)) ? 1UL : 0UL);
1057:Drivers/STM32L4xx_HAL_Driver/Inc/stm32l4xx_ll_exti.h **** }
1058:Drivers/STM32L4xx_HAL_Driver/Inc/stm32l4xx_ll_exti.h **** 
1059:Drivers/STM32L4xx_HAL_Driver/Inc/stm32l4xx_ll_exti.h **** /**
1060:Drivers/STM32L4xx_HAL_Driver/Inc/stm32l4xx_ll_exti.h ****   * @brief  Check if falling edge trigger is enabled for Lines in range 32 to 63
1061:Drivers/STM32L4xx_HAL_Driver/Inc/stm32l4xx_ll_exti.h ****   * @rmtoll FTSR2        FTx           LL_EXTI_IsEnabledFallingTrig_32_63
1062:Drivers/STM32L4xx_HAL_Driver/Inc/stm32l4xx_ll_exti.h ****   * @param  ExtiLine This parameter can be a combination of the following values:
1063:Drivers/STM32L4xx_HAL_Driver/Inc/stm32l4xx_ll_exti.h ****   *         @arg @ref LL_EXTI_LINE_35
1064:Drivers/STM32L4xx_HAL_Driver/Inc/stm32l4xx_ll_exti.h ****   *         @arg @ref LL_EXTI_LINE_36
1065:Drivers/STM32L4xx_HAL_Driver/Inc/stm32l4xx_ll_exti.h ****   *         @arg @ref LL_EXTI_LINE_37
1066:Drivers/STM32L4xx_HAL_Driver/Inc/stm32l4xx_ll_exti.h ****   *         @arg @ref LL_EXTI_LINE_38
1067:Drivers/STM32L4xx_HAL_Driver/Inc/stm32l4xx_ll_exti.h ****   * @retval State of bit (1 or 0).
1068:Drivers/STM32L4xx_HAL_Driver/Inc/stm32l4xx_ll_exti.h ****   */
1069:Drivers/STM32L4xx_HAL_Driver/Inc/stm32l4xx_ll_exti.h **** __STATIC_INLINE uint32_t LL_EXTI_IsEnabledFallingTrig_32_63(uint32_t ExtiLine)
1070:Drivers/STM32L4xx_HAL_Driver/Inc/stm32l4xx_ll_exti.h **** {
1071:Drivers/STM32L4xx_HAL_Driver/Inc/stm32l4xx_ll_exti.h ****   return ((READ_BIT(EXTI->FTSR2, ExtiLine) == (ExtiLine)) ? 1UL : 0UL);
1072:Drivers/STM32L4xx_HAL_Driver/Inc/stm32l4xx_ll_exti.h **** }
1073:Drivers/STM32L4xx_HAL_Driver/Inc/stm32l4xx_ll_exti.h **** 
1074:Drivers/STM32L4xx_HAL_Driver/Inc/stm32l4xx_ll_exti.h **** /**
1075:Drivers/STM32L4xx_HAL_Driver/Inc/stm32l4xx_ll_exti.h ****   * @}
1076:Drivers/STM32L4xx_HAL_Driver/Inc/stm32l4xx_ll_exti.h ****   */
1077:Drivers/STM32L4xx_HAL_Driver/Inc/stm32l4xx_ll_exti.h **** 
1078:Drivers/STM32L4xx_HAL_Driver/Inc/stm32l4xx_ll_exti.h **** /** @defgroup EXTI_LL_EF_Software_Interrupt_Management Software_Interrupt_Management
1079:Drivers/STM32L4xx_HAL_Driver/Inc/stm32l4xx_ll_exti.h ****   * @{
1080:Drivers/STM32L4xx_HAL_Driver/Inc/stm32l4xx_ll_exti.h ****   */
1081:Drivers/STM32L4xx_HAL_Driver/Inc/stm32l4xx_ll_exti.h **** 
1082:Drivers/STM32L4xx_HAL_Driver/Inc/stm32l4xx_ll_exti.h **** /**
1083:Drivers/STM32L4xx_HAL_Driver/Inc/stm32l4xx_ll_exti.h ****   * @brief  Generate a software Interrupt Event for Lines in range 0 to 31
1084:Drivers/STM32L4xx_HAL_Driver/Inc/stm32l4xx_ll_exti.h ****   * @note If the interrupt is enabled on this line in the EXTI_IMR1, writing a 1 to
1085:Drivers/STM32L4xx_HAL_Driver/Inc/stm32l4xx_ll_exti.h ****   *       this bit when it is at '0' sets the corresponding pending bit in EXTI_PR1
1086:Drivers/STM32L4xx_HAL_Driver/Inc/stm32l4xx_ll_exti.h ****   *       resulting in an interrupt request generation.
1087:Drivers/STM32L4xx_HAL_Driver/Inc/stm32l4xx_ll_exti.h ****   *       This bit is cleared by clearing the corresponding bit in the EXTI_PR1
1088:Drivers/STM32L4xx_HAL_Driver/Inc/stm32l4xx_ll_exti.h ****   *       register (by writing a 1 into the bit)
1089:Drivers/STM32L4xx_HAL_Driver/Inc/stm32l4xx_ll_exti.h ****   * @rmtoll SWIER1       SWIx          LL_EXTI_GenerateSWI_0_31
1090:Drivers/STM32L4xx_HAL_Driver/Inc/stm32l4xx_ll_exti.h ****   * @param  ExtiLine This parameter can be a combination of the following values:
1091:Drivers/STM32L4xx_HAL_Driver/Inc/stm32l4xx_ll_exti.h ****   *         @arg @ref LL_EXTI_LINE_0
1092:Drivers/STM32L4xx_HAL_Driver/Inc/stm32l4xx_ll_exti.h ****   *         @arg @ref LL_EXTI_LINE_1
1093:Drivers/STM32L4xx_HAL_Driver/Inc/stm32l4xx_ll_exti.h ****   *         @arg @ref LL_EXTI_LINE_2
1094:Drivers/STM32L4xx_HAL_Driver/Inc/stm32l4xx_ll_exti.h ****   *         @arg @ref LL_EXTI_LINE_3
ARM GAS  /tmp/cckJv99E.s 			page 27


1095:Drivers/STM32L4xx_HAL_Driver/Inc/stm32l4xx_ll_exti.h ****   *         @arg @ref LL_EXTI_LINE_4
1096:Drivers/STM32L4xx_HAL_Driver/Inc/stm32l4xx_ll_exti.h ****   *         @arg @ref LL_EXTI_LINE_5
1097:Drivers/STM32L4xx_HAL_Driver/Inc/stm32l4xx_ll_exti.h ****   *         @arg @ref LL_EXTI_LINE_6
1098:Drivers/STM32L4xx_HAL_Driver/Inc/stm32l4xx_ll_exti.h ****   *         @arg @ref LL_EXTI_LINE_7
1099:Drivers/STM32L4xx_HAL_Driver/Inc/stm32l4xx_ll_exti.h ****   *         @arg @ref LL_EXTI_LINE_8
1100:Drivers/STM32L4xx_HAL_Driver/Inc/stm32l4xx_ll_exti.h ****   *         @arg @ref LL_EXTI_LINE_9
1101:Drivers/STM32L4xx_HAL_Driver/Inc/stm32l4xx_ll_exti.h ****   *         @arg @ref LL_EXTI_LINE_10
1102:Drivers/STM32L4xx_HAL_Driver/Inc/stm32l4xx_ll_exti.h ****   *         @arg @ref LL_EXTI_LINE_11
1103:Drivers/STM32L4xx_HAL_Driver/Inc/stm32l4xx_ll_exti.h ****   *         @arg @ref LL_EXTI_LINE_12
1104:Drivers/STM32L4xx_HAL_Driver/Inc/stm32l4xx_ll_exti.h ****   *         @arg @ref LL_EXTI_LINE_13
1105:Drivers/STM32L4xx_HAL_Driver/Inc/stm32l4xx_ll_exti.h ****   *         @arg @ref LL_EXTI_LINE_14
1106:Drivers/STM32L4xx_HAL_Driver/Inc/stm32l4xx_ll_exti.h ****   *         @arg @ref LL_EXTI_LINE_15
1107:Drivers/STM32L4xx_HAL_Driver/Inc/stm32l4xx_ll_exti.h ****   *         @arg @ref LL_EXTI_LINE_16
1108:Drivers/STM32L4xx_HAL_Driver/Inc/stm32l4xx_ll_exti.h ****   *         @arg @ref LL_EXTI_LINE_18
1109:Drivers/STM32L4xx_HAL_Driver/Inc/stm32l4xx_ll_exti.h ****   *         @arg @ref LL_EXTI_LINE_19
1110:Drivers/STM32L4xx_HAL_Driver/Inc/stm32l4xx_ll_exti.h ****   *         @arg @ref LL_EXTI_LINE_20
1111:Drivers/STM32L4xx_HAL_Driver/Inc/stm32l4xx_ll_exti.h ****   *         @arg @ref LL_EXTI_LINE_21
1112:Drivers/STM32L4xx_HAL_Driver/Inc/stm32l4xx_ll_exti.h ****   *         @arg @ref LL_EXTI_LINE_22
1113:Drivers/STM32L4xx_HAL_Driver/Inc/stm32l4xx_ll_exti.h ****   *         @arg @ref LL_EXTI_LINE_29
1114:Drivers/STM32L4xx_HAL_Driver/Inc/stm32l4xx_ll_exti.h ****   *         @arg @ref LL_EXTI_LINE_30
1115:Drivers/STM32L4xx_HAL_Driver/Inc/stm32l4xx_ll_exti.h ****   *         @arg @ref LL_EXTI_LINE_31
1116:Drivers/STM32L4xx_HAL_Driver/Inc/stm32l4xx_ll_exti.h ****   * @note   Please check each device line mapping for EXTI Line availability
1117:Drivers/STM32L4xx_HAL_Driver/Inc/stm32l4xx_ll_exti.h ****   * @retval None
1118:Drivers/STM32L4xx_HAL_Driver/Inc/stm32l4xx_ll_exti.h ****   */
1119:Drivers/STM32L4xx_HAL_Driver/Inc/stm32l4xx_ll_exti.h **** __STATIC_INLINE void LL_EXTI_GenerateSWI_0_31(uint32_t ExtiLine)
1120:Drivers/STM32L4xx_HAL_Driver/Inc/stm32l4xx_ll_exti.h **** {
1121:Drivers/STM32L4xx_HAL_Driver/Inc/stm32l4xx_ll_exti.h ****   SET_BIT(EXTI->SWIER1, ExtiLine);
1122:Drivers/STM32L4xx_HAL_Driver/Inc/stm32l4xx_ll_exti.h **** }
1123:Drivers/STM32L4xx_HAL_Driver/Inc/stm32l4xx_ll_exti.h **** 
1124:Drivers/STM32L4xx_HAL_Driver/Inc/stm32l4xx_ll_exti.h **** /**
1125:Drivers/STM32L4xx_HAL_Driver/Inc/stm32l4xx_ll_exti.h ****   * @brief  Generate a software Interrupt Event for Lines in range 32 to 63
1126:Drivers/STM32L4xx_HAL_Driver/Inc/stm32l4xx_ll_exti.h ****   * @note If the interrupt is enabled on this line in the EXTI_IMR2, writing a 1 to
1127:Drivers/STM32L4xx_HAL_Driver/Inc/stm32l4xx_ll_exti.h ****   *       this bit when it is at '0' sets the corresponding pending bit in EXTI_PR2
1128:Drivers/STM32L4xx_HAL_Driver/Inc/stm32l4xx_ll_exti.h ****   *       resulting in an interrupt request generation.
1129:Drivers/STM32L4xx_HAL_Driver/Inc/stm32l4xx_ll_exti.h ****   *       This bit is cleared by clearing the corresponding bit in the EXTI_PR2
1130:Drivers/STM32L4xx_HAL_Driver/Inc/stm32l4xx_ll_exti.h ****   *       register (by writing a 1 into the bit)
1131:Drivers/STM32L4xx_HAL_Driver/Inc/stm32l4xx_ll_exti.h ****   * @rmtoll SWIER2       SWIx          LL_EXTI_GenerateSWI_32_63
1132:Drivers/STM32L4xx_HAL_Driver/Inc/stm32l4xx_ll_exti.h ****   * @param  ExtiLine This parameter can be a combination of the following values:
1133:Drivers/STM32L4xx_HAL_Driver/Inc/stm32l4xx_ll_exti.h ****   *         @arg @ref LL_EXTI_LINE_35
1134:Drivers/STM32L4xx_HAL_Driver/Inc/stm32l4xx_ll_exti.h ****   *         @arg @ref LL_EXTI_LINE_36
1135:Drivers/STM32L4xx_HAL_Driver/Inc/stm32l4xx_ll_exti.h ****   *         @arg @ref LL_EXTI_LINE_37
1136:Drivers/STM32L4xx_HAL_Driver/Inc/stm32l4xx_ll_exti.h ****   *         @arg @ref LL_EXTI_LINE_38
1137:Drivers/STM32L4xx_HAL_Driver/Inc/stm32l4xx_ll_exti.h ****   * @retval None
1138:Drivers/STM32L4xx_HAL_Driver/Inc/stm32l4xx_ll_exti.h ****   */
1139:Drivers/STM32L4xx_HAL_Driver/Inc/stm32l4xx_ll_exti.h **** __STATIC_INLINE void LL_EXTI_GenerateSWI_32_63(uint32_t ExtiLine)
1140:Drivers/STM32L4xx_HAL_Driver/Inc/stm32l4xx_ll_exti.h **** {
1141:Drivers/STM32L4xx_HAL_Driver/Inc/stm32l4xx_ll_exti.h ****   SET_BIT(EXTI->SWIER2, ExtiLine);
1142:Drivers/STM32L4xx_HAL_Driver/Inc/stm32l4xx_ll_exti.h **** }
1143:Drivers/STM32L4xx_HAL_Driver/Inc/stm32l4xx_ll_exti.h **** 
1144:Drivers/STM32L4xx_HAL_Driver/Inc/stm32l4xx_ll_exti.h **** /**
1145:Drivers/STM32L4xx_HAL_Driver/Inc/stm32l4xx_ll_exti.h ****   * @}
1146:Drivers/STM32L4xx_HAL_Driver/Inc/stm32l4xx_ll_exti.h ****   */
1147:Drivers/STM32L4xx_HAL_Driver/Inc/stm32l4xx_ll_exti.h **** 
1148:Drivers/STM32L4xx_HAL_Driver/Inc/stm32l4xx_ll_exti.h **** /** @defgroup EXTI_LL_EF_Flag_Management Flag_Management
1149:Drivers/STM32L4xx_HAL_Driver/Inc/stm32l4xx_ll_exti.h ****   * @{
1150:Drivers/STM32L4xx_HAL_Driver/Inc/stm32l4xx_ll_exti.h ****   */
1151:Drivers/STM32L4xx_HAL_Driver/Inc/stm32l4xx_ll_exti.h **** 
ARM GAS  /tmp/cckJv99E.s 			page 28


1152:Drivers/STM32L4xx_HAL_Driver/Inc/stm32l4xx_ll_exti.h **** /**
1153:Drivers/STM32L4xx_HAL_Driver/Inc/stm32l4xx_ll_exti.h ****   * @brief  Check if the ExtLine Flag is set or not for Lines in range 0 to 31
1154:Drivers/STM32L4xx_HAL_Driver/Inc/stm32l4xx_ll_exti.h ****   * @note This bit is set when the selected edge event arrives on the interrupt
1155:Drivers/STM32L4xx_HAL_Driver/Inc/stm32l4xx_ll_exti.h ****   *       line. This bit is cleared by writing a 1 to the bit.
1156:Drivers/STM32L4xx_HAL_Driver/Inc/stm32l4xx_ll_exti.h ****   * @rmtoll PR1          PIFx           LL_EXTI_IsActiveFlag_0_31
1157:Drivers/STM32L4xx_HAL_Driver/Inc/stm32l4xx_ll_exti.h ****   * @param  ExtiLine This parameter can be a combination of the following values:
1158:Drivers/STM32L4xx_HAL_Driver/Inc/stm32l4xx_ll_exti.h ****   *         @arg @ref LL_EXTI_LINE_0
1159:Drivers/STM32L4xx_HAL_Driver/Inc/stm32l4xx_ll_exti.h ****   *         @arg @ref LL_EXTI_LINE_1
1160:Drivers/STM32L4xx_HAL_Driver/Inc/stm32l4xx_ll_exti.h ****   *         @arg @ref LL_EXTI_LINE_2
1161:Drivers/STM32L4xx_HAL_Driver/Inc/stm32l4xx_ll_exti.h ****   *         @arg @ref LL_EXTI_LINE_3
1162:Drivers/STM32L4xx_HAL_Driver/Inc/stm32l4xx_ll_exti.h ****   *         @arg @ref LL_EXTI_LINE_4
1163:Drivers/STM32L4xx_HAL_Driver/Inc/stm32l4xx_ll_exti.h ****   *         @arg @ref LL_EXTI_LINE_5
1164:Drivers/STM32L4xx_HAL_Driver/Inc/stm32l4xx_ll_exti.h ****   *         @arg @ref LL_EXTI_LINE_6
1165:Drivers/STM32L4xx_HAL_Driver/Inc/stm32l4xx_ll_exti.h ****   *         @arg @ref LL_EXTI_LINE_7
1166:Drivers/STM32L4xx_HAL_Driver/Inc/stm32l4xx_ll_exti.h ****   *         @arg @ref LL_EXTI_LINE_8
1167:Drivers/STM32L4xx_HAL_Driver/Inc/stm32l4xx_ll_exti.h ****   *         @arg @ref LL_EXTI_LINE_9
1168:Drivers/STM32L4xx_HAL_Driver/Inc/stm32l4xx_ll_exti.h ****   *         @arg @ref LL_EXTI_LINE_10
1169:Drivers/STM32L4xx_HAL_Driver/Inc/stm32l4xx_ll_exti.h ****   *         @arg @ref LL_EXTI_LINE_11
1170:Drivers/STM32L4xx_HAL_Driver/Inc/stm32l4xx_ll_exti.h ****   *         @arg @ref LL_EXTI_LINE_12
1171:Drivers/STM32L4xx_HAL_Driver/Inc/stm32l4xx_ll_exti.h ****   *         @arg @ref LL_EXTI_LINE_13
1172:Drivers/STM32L4xx_HAL_Driver/Inc/stm32l4xx_ll_exti.h ****   *         @arg @ref LL_EXTI_LINE_14
1173:Drivers/STM32L4xx_HAL_Driver/Inc/stm32l4xx_ll_exti.h ****   *         @arg @ref LL_EXTI_LINE_15
1174:Drivers/STM32L4xx_HAL_Driver/Inc/stm32l4xx_ll_exti.h ****   *         @arg @ref LL_EXTI_LINE_16
1175:Drivers/STM32L4xx_HAL_Driver/Inc/stm32l4xx_ll_exti.h ****   *         @arg @ref LL_EXTI_LINE_18
1176:Drivers/STM32L4xx_HAL_Driver/Inc/stm32l4xx_ll_exti.h ****   *         @arg @ref LL_EXTI_LINE_19
1177:Drivers/STM32L4xx_HAL_Driver/Inc/stm32l4xx_ll_exti.h ****   *         @arg @ref LL_EXTI_LINE_20
1178:Drivers/STM32L4xx_HAL_Driver/Inc/stm32l4xx_ll_exti.h ****   *         @arg @ref LL_EXTI_LINE_21
1179:Drivers/STM32L4xx_HAL_Driver/Inc/stm32l4xx_ll_exti.h ****   *         @arg @ref LL_EXTI_LINE_22
1180:Drivers/STM32L4xx_HAL_Driver/Inc/stm32l4xx_ll_exti.h ****   *         @arg @ref LL_EXTI_LINE_29
1181:Drivers/STM32L4xx_HAL_Driver/Inc/stm32l4xx_ll_exti.h ****   *         @arg @ref LL_EXTI_LINE_30
1182:Drivers/STM32L4xx_HAL_Driver/Inc/stm32l4xx_ll_exti.h ****   *         @arg @ref LL_EXTI_LINE_31
1183:Drivers/STM32L4xx_HAL_Driver/Inc/stm32l4xx_ll_exti.h ****   * @note   Please check each device line mapping for EXTI Line availability
1184:Drivers/STM32L4xx_HAL_Driver/Inc/stm32l4xx_ll_exti.h ****   * @retval State of bit (1 or 0).
1185:Drivers/STM32L4xx_HAL_Driver/Inc/stm32l4xx_ll_exti.h ****   */
1186:Drivers/STM32L4xx_HAL_Driver/Inc/stm32l4xx_ll_exti.h **** __STATIC_INLINE uint32_t LL_EXTI_IsActiveFlag_0_31(uint32_t ExtiLine)
1187:Drivers/STM32L4xx_HAL_Driver/Inc/stm32l4xx_ll_exti.h **** {
 407              		.loc 2 1187 1
 408              		.cfi_startproc
 409              		@ args = 0, pretend = 0, frame = 8
 410              		@ frame_needed = 1, uses_anonymous_args = 0
 411              		@ link register save eliminated.
 412 0000 80B4     		push	{r7}
 413              		.cfi_def_cfa_offset 4
 414              		.cfi_offset 7, -4
 415 0002 83B0     		sub	sp, sp, #12
 416              		.cfi_def_cfa_offset 16
 417 0004 00AF     		add	r7, sp, #0
 418              		.cfi_def_cfa_register 7
 419 0006 7860     		str	r0, [r7, #4]
1188:Drivers/STM32L4xx_HAL_Driver/Inc/stm32l4xx_ll_exti.h ****   return ((READ_BIT(EXTI->PR1, ExtiLine) == (ExtiLine)) ? 1UL : 0UL);
 420              		.loc 2 1188 12
 421 0008 074B     		ldr	r3, .L29
 422 000a 5A69     		ldr	r2, [r3, #20]
 423 000c 7B68     		ldr	r3, [r7, #4]
 424 000e 1340     		ands	r3, r3, r2
 425              		.loc 2 1188 63
 426 0010 7A68     		ldr	r2, [r7, #4]
ARM GAS  /tmp/cckJv99E.s 			page 29


 427 0012 9A42     		cmp	r2, r3
 428 0014 01D1     		bne	.L26
 429              		.loc 2 1188 63 is_stmt 0 discriminator 1
 430 0016 0123     		movs	r3, #1
 431              		.loc 2 1188 63
 432 0018 00E0     		b	.L28
 433              	.L26:
 434              		.loc 2 1188 63 discriminator 2
 435 001a 0023     		movs	r3, #0
 436              	.L28:
1189:Drivers/STM32L4xx_HAL_Driver/Inc/stm32l4xx_ll_exti.h **** }
 437              		.loc 2 1189 1 is_stmt 1
 438 001c 1846     		mov	r0, r3
 439 001e 0C37     		adds	r7, r7, #12
 440              		.cfi_def_cfa_offset 4
 441 0020 BD46     		mov	sp, r7
 442              		.cfi_def_cfa_register 13
 443              		@ sp needed
 444 0022 5DF8047B 		ldr	r7, [sp], #4
 445              		.cfi_restore 7
 446              		.cfi_def_cfa_offset 0
 447 0026 7047     		bx	lr
 448              	.L30:
 449              		.align	2
 450              	.L29:
 451 0028 00040140 		.word	1073808384
 452              		.cfi_endproc
 453              	.LFE439:
 455              		.section	.text.LL_EXTI_ClearFlag_0_31,"ax",%progbits
 456              		.align	1
 457              		.syntax unified
 458              		.thumb
 459              		.thumb_func
 461              	LL_EXTI_ClearFlag_0_31:
 462              	.LFB443:
1190:Drivers/STM32L4xx_HAL_Driver/Inc/stm32l4xx_ll_exti.h **** 
1191:Drivers/STM32L4xx_HAL_Driver/Inc/stm32l4xx_ll_exti.h **** /**
1192:Drivers/STM32L4xx_HAL_Driver/Inc/stm32l4xx_ll_exti.h ****   * @brief  Check if the ExtLine Flag is set or not for  Lines in range 32 to 63
1193:Drivers/STM32L4xx_HAL_Driver/Inc/stm32l4xx_ll_exti.h ****   * @note This bit is set when the selected edge event arrives on the interrupt
1194:Drivers/STM32L4xx_HAL_Driver/Inc/stm32l4xx_ll_exti.h ****   *       line. This bit is cleared by writing a 1 to the bit.
1195:Drivers/STM32L4xx_HAL_Driver/Inc/stm32l4xx_ll_exti.h ****   * @rmtoll PR2          PIFx           LL_EXTI_IsActiveFlag_32_63
1196:Drivers/STM32L4xx_HAL_Driver/Inc/stm32l4xx_ll_exti.h ****   * @param  ExtiLine This parameter can be a combination of the following values:
1197:Drivers/STM32L4xx_HAL_Driver/Inc/stm32l4xx_ll_exti.h ****   *         @arg @ref LL_EXTI_LINE_35
1198:Drivers/STM32L4xx_HAL_Driver/Inc/stm32l4xx_ll_exti.h ****   *         @arg @ref LL_EXTI_LINE_36
1199:Drivers/STM32L4xx_HAL_Driver/Inc/stm32l4xx_ll_exti.h ****   *         @arg @ref LL_EXTI_LINE_37
1200:Drivers/STM32L4xx_HAL_Driver/Inc/stm32l4xx_ll_exti.h ****   *         @arg @ref LL_EXTI_LINE_38
1201:Drivers/STM32L4xx_HAL_Driver/Inc/stm32l4xx_ll_exti.h ****   * @retval State of bit (1 or 0).
1202:Drivers/STM32L4xx_HAL_Driver/Inc/stm32l4xx_ll_exti.h ****   */
1203:Drivers/STM32L4xx_HAL_Driver/Inc/stm32l4xx_ll_exti.h **** __STATIC_INLINE uint32_t LL_EXTI_IsActiveFlag_32_63(uint32_t ExtiLine)
1204:Drivers/STM32L4xx_HAL_Driver/Inc/stm32l4xx_ll_exti.h **** {
1205:Drivers/STM32L4xx_HAL_Driver/Inc/stm32l4xx_ll_exti.h ****   return ((READ_BIT(EXTI->PR2, ExtiLine) == (ExtiLine)) ? 1UL : 0UL);
1206:Drivers/STM32L4xx_HAL_Driver/Inc/stm32l4xx_ll_exti.h **** }
1207:Drivers/STM32L4xx_HAL_Driver/Inc/stm32l4xx_ll_exti.h **** 
1208:Drivers/STM32L4xx_HAL_Driver/Inc/stm32l4xx_ll_exti.h **** /**
1209:Drivers/STM32L4xx_HAL_Driver/Inc/stm32l4xx_ll_exti.h ****   * @brief  Read ExtLine Combination Flag for Lines in range 0 to 31
1210:Drivers/STM32L4xx_HAL_Driver/Inc/stm32l4xx_ll_exti.h ****   * @note This bit is set when the selected edge event arrives on the interrupt
1211:Drivers/STM32L4xx_HAL_Driver/Inc/stm32l4xx_ll_exti.h ****   *       line. This bit is cleared by writing a 1 to the bit.
ARM GAS  /tmp/cckJv99E.s 			page 30


1212:Drivers/STM32L4xx_HAL_Driver/Inc/stm32l4xx_ll_exti.h ****   * @rmtoll PR1          PIFx           LL_EXTI_ReadFlag_0_31
1213:Drivers/STM32L4xx_HAL_Driver/Inc/stm32l4xx_ll_exti.h ****   * @param  ExtiLine This parameter can be a combination of the following values:
1214:Drivers/STM32L4xx_HAL_Driver/Inc/stm32l4xx_ll_exti.h ****   *         @arg @ref LL_EXTI_LINE_0
1215:Drivers/STM32L4xx_HAL_Driver/Inc/stm32l4xx_ll_exti.h ****   *         @arg @ref LL_EXTI_LINE_1
1216:Drivers/STM32L4xx_HAL_Driver/Inc/stm32l4xx_ll_exti.h ****   *         @arg @ref LL_EXTI_LINE_2
1217:Drivers/STM32L4xx_HAL_Driver/Inc/stm32l4xx_ll_exti.h ****   *         @arg @ref LL_EXTI_LINE_3
1218:Drivers/STM32L4xx_HAL_Driver/Inc/stm32l4xx_ll_exti.h ****   *         @arg @ref LL_EXTI_LINE_4
1219:Drivers/STM32L4xx_HAL_Driver/Inc/stm32l4xx_ll_exti.h ****   *         @arg @ref LL_EXTI_LINE_5
1220:Drivers/STM32L4xx_HAL_Driver/Inc/stm32l4xx_ll_exti.h ****   *         @arg @ref LL_EXTI_LINE_6
1221:Drivers/STM32L4xx_HAL_Driver/Inc/stm32l4xx_ll_exti.h ****   *         @arg @ref LL_EXTI_LINE_7
1222:Drivers/STM32L4xx_HAL_Driver/Inc/stm32l4xx_ll_exti.h ****   *         @arg @ref LL_EXTI_LINE_8
1223:Drivers/STM32L4xx_HAL_Driver/Inc/stm32l4xx_ll_exti.h ****   *         @arg @ref LL_EXTI_LINE_9
1224:Drivers/STM32L4xx_HAL_Driver/Inc/stm32l4xx_ll_exti.h ****   *         @arg @ref LL_EXTI_LINE_10
1225:Drivers/STM32L4xx_HAL_Driver/Inc/stm32l4xx_ll_exti.h ****   *         @arg @ref LL_EXTI_LINE_11
1226:Drivers/STM32L4xx_HAL_Driver/Inc/stm32l4xx_ll_exti.h ****   *         @arg @ref LL_EXTI_LINE_12
1227:Drivers/STM32L4xx_HAL_Driver/Inc/stm32l4xx_ll_exti.h ****   *         @arg @ref LL_EXTI_LINE_13
1228:Drivers/STM32L4xx_HAL_Driver/Inc/stm32l4xx_ll_exti.h ****   *         @arg @ref LL_EXTI_LINE_14
1229:Drivers/STM32L4xx_HAL_Driver/Inc/stm32l4xx_ll_exti.h ****   *         @arg @ref LL_EXTI_LINE_15
1230:Drivers/STM32L4xx_HAL_Driver/Inc/stm32l4xx_ll_exti.h ****   *         @arg @ref LL_EXTI_LINE_16
1231:Drivers/STM32L4xx_HAL_Driver/Inc/stm32l4xx_ll_exti.h ****   *         @arg @ref LL_EXTI_LINE_18
1232:Drivers/STM32L4xx_HAL_Driver/Inc/stm32l4xx_ll_exti.h ****   *         @arg @ref LL_EXTI_LINE_19
1233:Drivers/STM32L4xx_HAL_Driver/Inc/stm32l4xx_ll_exti.h ****   *         @arg @ref LL_EXTI_LINE_20
1234:Drivers/STM32L4xx_HAL_Driver/Inc/stm32l4xx_ll_exti.h ****   *         @arg @ref LL_EXTI_LINE_21
1235:Drivers/STM32L4xx_HAL_Driver/Inc/stm32l4xx_ll_exti.h ****   *         @arg @ref LL_EXTI_LINE_22
1236:Drivers/STM32L4xx_HAL_Driver/Inc/stm32l4xx_ll_exti.h ****   *         @arg @ref LL_EXTI_LINE_29
1237:Drivers/STM32L4xx_HAL_Driver/Inc/stm32l4xx_ll_exti.h ****   *         @arg @ref LL_EXTI_LINE_30
1238:Drivers/STM32L4xx_HAL_Driver/Inc/stm32l4xx_ll_exti.h ****   *         @arg @ref LL_EXTI_LINE_31
1239:Drivers/STM32L4xx_HAL_Driver/Inc/stm32l4xx_ll_exti.h ****   * @note   Please check each device line mapping for EXTI Line availability
1240:Drivers/STM32L4xx_HAL_Driver/Inc/stm32l4xx_ll_exti.h ****   * @retval @note This bit is set when the selected edge event arrives on the interrupt
1241:Drivers/STM32L4xx_HAL_Driver/Inc/stm32l4xx_ll_exti.h ****   */
1242:Drivers/STM32L4xx_HAL_Driver/Inc/stm32l4xx_ll_exti.h **** __STATIC_INLINE uint32_t LL_EXTI_ReadFlag_0_31(uint32_t ExtiLine)
1243:Drivers/STM32L4xx_HAL_Driver/Inc/stm32l4xx_ll_exti.h **** {
1244:Drivers/STM32L4xx_HAL_Driver/Inc/stm32l4xx_ll_exti.h ****   return (uint32_t)(READ_BIT(EXTI->PR1, ExtiLine));
1245:Drivers/STM32L4xx_HAL_Driver/Inc/stm32l4xx_ll_exti.h **** }
1246:Drivers/STM32L4xx_HAL_Driver/Inc/stm32l4xx_ll_exti.h **** 
1247:Drivers/STM32L4xx_HAL_Driver/Inc/stm32l4xx_ll_exti.h **** /**
1248:Drivers/STM32L4xx_HAL_Driver/Inc/stm32l4xx_ll_exti.h ****   * @brief  Read ExtLine Combination Flag for  Lines in range 32 to 63
1249:Drivers/STM32L4xx_HAL_Driver/Inc/stm32l4xx_ll_exti.h ****   * @note This bit is set when the selected edge event arrives on the interrupt
1250:Drivers/STM32L4xx_HAL_Driver/Inc/stm32l4xx_ll_exti.h ****   *       line. This bit is cleared by writing a 1 to the bit.
1251:Drivers/STM32L4xx_HAL_Driver/Inc/stm32l4xx_ll_exti.h ****   * @rmtoll PR2          PIFx           LL_EXTI_ReadFlag_32_63
1252:Drivers/STM32L4xx_HAL_Driver/Inc/stm32l4xx_ll_exti.h ****   * @param  ExtiLine This parameter can be a combination of the following values:
1253:Drivers/STM32L4xx_HAL_Driver/Inc/stm32l4xx_ll_exti.h ****   *         @arg @ref LL_EXTI_LINE_35
1254:Drivers/STM32L4xx_HAL_Driver/Inc/stm32l4xx_ll_exti.h ****   *         @arg @ref LL_EXTI_LINE_36
1255:Drivers/STM32L4xx_HAL_Driver/Inc/stm32l4xx_ll_exti.h ****   *         @arg @ref LL_EXTI_LINE_37
1256:Drivers/STM32L4xx_HAL_Driver/Inc/stm32l4xx_ll_exti.h ****   *         @arg @ref LL_EXTI_LINE_38
1257:Drivers/STM32L4xx_HAL_Driver/Inc/stm32l4xx_ll_exti.h ****   * @retval @note This bit is set when the selected edge event arrives on the interrupt
1258:Drivers/STM32L4xx_HAL_Driver/Inc/stm32l4xx_ll_exti.h ****   */
1259:Drivers/STM32L4xx_HAL_Driver/Inc/stm32l4xx_ll_exti.h **** __STATIC_INLINE uint32_t LL_EXTI_ReadFlag_32_63(uint32_t ExtiLine)
1260:Drivers/STM32L4xx_HAL_Driver/Inc/stm32l4xx_ll_exti.h **** {
1261:Drivers/STM32L4xx_HAL_Driver/Inc/stm32l4xx_ll_exti.h ****   return (uint32_t)(READ_BIT(EXTI->PR2, ExtiLine));
1262:Drivers/STM32L4xx_HAL_Driver/Inc/stm32l4xx_ll_exti.h **** }
1263:Drivers/STM32L4xx_HAL_Driver/Inc/stm32l4xx_ll_exti.h **** 
1264:Drivers/STM32L4xx_HAL_Driver/Inc/stm32l4xx_ll_exti.h **** /**
1265:Drivers/STM32L4xx_HAL_Driver/Inc/stm32l4xx_ll_exti.h ****   * @brief  Clear ExtLine Flags  for Lines in range 0 to 31
1266:Drivers/STM32L4xx_HAL_Driver/Inc/stm32l4xx_ll_exti.h ****   * @note This bit is set when the selected edge event arrives on the interrupt
1267:Drivers/STM32L4xx_HAL_Driver/Inc/stm32l4xx_ll_exti.h ****   *       line. This bit is cleared by writing a 1 to the bit.
1268:Drivers/STM32L4xx_HAL_Driver/Inc/stm32l4xx_ll_exti.h ****   * @rmtoll PR1          PIFx           LL_EXTI_ClearFlag_0_31
ARM GAS  /tmp/cckJv99E.s 			page 31


1269:Drivers/STM32L4xx_HAL_Driver/Inc/stm32l4xx_ll_exti.h ****   * @param  ExtiLine This parameter can be a combination of the following values:
1270:Drivers/STM32L4xx_HAL_Driver/Inc/stm32l4xx_ll_exti.h ****   *         @arg @ref LL_EXTI_LINE_0
1271:Drivers/STM32L4xx_HAL_Driver/Inc/stm32l4xx_ll_exti.h ****   *         @arg @ref LL_EXTI_LINE_1
1272:Drivers/STM32L4xx_HAL_Driver/Inc/stm32l4xx_ll_exti.h ****   *         @arg @ref LL_EXTI_LINE_2
1273:Drivers/STM32L4xx_HAL_Driver/Inc/stm32l4xx_ll_exti.h ****   *         @arg @ref LL_EXTI_LINE_3
1274:Drivers/STM32L4xx_HAL_Driver/Inc/stm32l4xx_ll_exti.h ****   *         @arg @ref LL_EXTI_LINE_4
1275:Drivers/STM32L4xx_HAL_Driver/Inc/stm32l4xx_ll_exti.h ****   *         @arg @ref LL_EXTI_LINE_5
1276:Drivers/STM32L4xx_HAL_Driver/Inc/stm32l4xx_ll_exti.h ****   *         @arg @ref LL_EXTI_LINE_6
1277:Drivers/STM32L4xx_HAL_Driver/Inc/stm32l4xx_ll_exti.h ****   *         @arg @ref LL_EXTI_LINE_7
1278:Drivers/STM32L4xx_HAL_Driver/Inc/stm32l4xx_ll_exti.h ****   *         @arg @ref LL_EXTI_LINE_8
1279:Drivers/STM32L4xx_HAL_Driver/Inc/stm32l4xx_ll_exti.h ****   *         @arg @ref LL_EXTI_LINE_9
1280:Drivers/STM32L4xx_HAL_Driver/Inc/stm32l4xx_ll_exti.h ****   *         @arg @ref LL_EXTI_LINE_10
1281:Drivers/STM32L4xx_HAL_Driver/Inc/stm32l4xx_ll_exti.h ****   *         @arg @ref LL_EXTI_LINE_11
1282:Drivers/STM32L4xx_HAL_Driver/Inc/stm32l4xx_ll_exti.h ****   *         @arg @ref LL_EXTI_LINE_12
1283:Drivers/STM32L4xx_HAL_Driver/Inc/stm32l4xx_ll_exti.h ****   *         @arg @ref LL_EXTI_LINE_13
1284:Drivers/STM32L4xx_HAL_Driver/Inc/stm32l4xx_ll_exti.h ****   *         @arg @ref LL_EXTI_LINE_14
1285:Drivers/STM32L4xx_HAL_Driver/Inc/stm32l4xx_ll_exti.h ****   *         @arg @ref LL_EXTI_LINE_15
1286:Drivers/STM32L4xx_HAL_Driver/Inc/stm32l4xx_ll_exti.h ****   *         @arg @ref LL_EXTI_LINE_16
1287:Drivers/STM32L4xx_HAL_Driver/Inc/stm32l4xx_ll_exti.h ****   *         @arg @ref LL_EXTI_LINE_18
1288:Drivers/STM32L4xx_HAL_Driver/Inc/stm32l4xx_ll_exti.h ****   *         @arg @ref LL_EXTI_LINE_19
1289:Drivers/STM32L4xx_HAL_Driver/Inc/stm32l4xx_ll_exti.h ****   *         @arg @ref LL_EXTI_LINE_20
1290:Drivers/STM32L4xx_HAL_Driver/Inc/stm32l4xx_ll_exti.h ****   *         @arg @ref LL_EXTI_LINE_21
1291:Drivers/STM32L4xx_HAL_Driver/Inc/stm32l4xx_ll_exti.h ****   *         @arg @ref LL_EXTI_LINE_22
1292:Drivers/STM32L4xx_HAL_Driver/Inc/stm32l4xx_ll_exti.h ****   *         @arg @ref LL_EXTI_LINE_29
1293:Drivers/STM32L4xx_HAL_Driver/Inc/stm32l4xx_ll_exti.h ****   *         @arg @ref LL_EXTI_LINE_30
1294:Drivers/STM32L4xx_HAL_Driver/Inc/stm32l4xx_ll_exti.h ****   *         @arg @ref LL_EXTI_LINE_31
1295:Drivers/STM32L4xx_HAL_Driver/Inc/stm32l4xx_ll_exti.h ****   * @note   Please check each device line mapping for EXTI Line availability
1296:Drivers/STM32L4xx_HAL_Driver/Inc/stm32l4xx_ll_exti.h ****   * @retval None
1297:Drivers/STM32L4xx_HAL_Driver/Inc/stm32l4xx_ll_exti.h ****   */
1298:Drivers/STM32L4xx_HAL_Driver/Inc/stm32l4xx_ll_exti.h **** __STATIC_INLINE void LL_EXTI_ClearFlag_0_31(uint32_t ExtiLine)
1299:Drivers/STM32L4xx_HAL_Driver/Inc/stm32l4xx_ll_exti.h **** {
 463              		.loc 2 1299 1
 464              		.cfi_startproc
 465              		@ args = 0, pretend = 0, frame = 8
 466              		@ frame_needed = 1, uses_anonymous_args = 0
 467              		@ link register save eliminated.
 468 0000 80B4     		push	{r7}
 469              		.cfi_def_cfa_offset 4
 470              		.cfi_offset 7, -4
 471 0002 83B0     		sub	sp, sp, #12
 472              		.cfi_def_cfa_offset 16
 473 0004 00AF     		add	r7, sp, #0
 474              		.cfi_def_cfa_register 7
 475 0006 7860     		str	r0, [r7, #4]
1300:Drivers/STM32L4xx_HAL_Driver/Inc/stm32l4xx_ll_exti.h ****   WRITE_REG(EXTI->PR1, ExtiLine);
 476              		.loc 2 1300 3
 477 0008 044A     		ldr	r2, .L32
 478 000a 7B68     		ldr	r3, [r7, #4]
 479 000c 5361     		str	r3, [r2, #20]
1301:Drivers/STM32L4xx_HAL_Driver/Inc/stm32l4xx_ll_exti.h **** }
 480              		.loc 2 1301 1
 481 000e 00BF     		nop
 482 0010 0C37     		adds	r7, r7, #12
 483              		.cfi_def_cfa_offset 4
 484 0012 BD46     		mov	sp, r7
 485              		.cfi_def_cfa_register 13
 486              		@ sp needed
ARM GAS  /tmp/cckJv99E.s 			page 32


 487 0014 5DF8047B 		ldr	r7, [sp], #4
 488              		.cfi_restore 7
 489              		.cfi_def_cfa_offset 0
 490 0018 7047     		bx	lr
 491              	.L33:
 492 001a 00BF     		.align	2
 493              	.L32:
 494 001c 00040140 		.word	1073808384
 495              		.cfi_endproc
 496              	.LFE443:
 498              		.section	.text.HAL_COMP_Init,"ax",%progbits
 499              		.align	1
 500              		.global	HAL_COMP_Init
 501              		.syntax unified
 502              		.thumb
 503              		.thumb_func
 505              	HAL_COMP_Init:
 506              	.LFB445:
   1:Drivers/STM32L4xx_HAL_Driver/Src/stm32l4xx_hal_comp.c **** /**
   2:Drivers/STM32L4xx_HAL_Driver/Src/stm32l4xx_hal_comp.c ****   ******************************************************************************
   3:Drivers/STM32L4xx_HAL_Driver/Src/stm32l4xx_hal_comp.c ****   * @file    stm32l4xx_hal_comp.c
   4:Drivers/STM32L4xx_HAL_Driver/Src/stm32l4xx_hal_comp.c ****   * @author  MCD Application Team
   5:Drivers/STM32L4xx_HAL_Driver/Src/stm32l4xx_hal_comp.c ****   * @brief   COMP HAL module driver.
   6:Drivers/STM32L4xx_HAL_Driver/Src/stm32l4xx_hal_comp.c ****   *          This file provides firmware functions to manage the following
   7:Drivers/STM32L4xx_HAL_Driver/Src/stm32l4xx_hal_comp.c ****   *          functionalities of the COMP peripheral:
   8:Drivers/STM32L4xx_HAL_Driver/Src/stm32l4xx_hal_comp.c ****   *           + Initialization and de-initialization functions
   9:Drivers/STM32L4xx_HAL_Driver/Src/stm32l4xx_hal_comp.c ****   *           + Peripheral control functions
  10:Drivers/STM32L4xx_HAL_Driver/Src/stm32l4xx_hal_comp.c ****   *           + Peripheral state functions
  11:Drivers/STM32L4xx_HAL_Driver/Src/stm32l4xx_hal_comp.c ****   *
  12:Drivers/STM32L4xx_HAL_Driver/Src/stm32l4xx_hal_comp.c ****   ******************************************************************************
  13:Drivers/STM32L4xx_HAL_Driver/Src/stm32l4xx_hal_comp.c ****   * @attention
  14:Drivers/STM32L4xx_HAL_Driver/Src/stm32l4xx_hal_comp.c ****   *
  15:Drivers/STM32L4xx_HAL_Driver/Src/stm32l4xx_hal_comp.c ****   * Copyright (c) 2017 STMicroelectronics.
  16:Drivers/STM32L4xx_HAL_Driver/Src/stm32l4xx_hal_comp.c ****   * All rights reserved.
  17:Drivers/STM32L4xx_HAL_Driver/Src/stm32l4xx_hal_comp.c ****   *
  18:Drivers/STM32L4xx_HAL_Driver/Src/stm32l4xx_hal_comp.c ****   * This software is licensed under terms that can be found in the LICENSE file
  19:Drivers/STM32L4xx_HAL_Driver/Src/stm32l4xx_hal_comp.c ****   * in the root directory of this software component.
  20:Drivers/STM32L4xx_HAL_Driver/Src/stm32l4xx_hal_comp.c ****   * If no LICENSE file comes with this software, it is provided AS-IS.
  21:Drivers/STM32L4xx_HAL_Driver/Src/stm32l4xx_hal_comp.c ****   *
  22:Drivers/STM32L4xx_HAL_Driver/Src/stm32l4xx_hal_comp.c ****   ******************************************************************************
  23:Drivers/STM32L4xx_HAL_Driver/Src/stm32l4xx_hal_comp.c ****   @verbatim
  24:Drivers/STM32L4xx_HAL_Driver/Src/stm32l4xx_hal_comp.c ****   ==============================================================================
  25:Drivers/STM32L4xx_HAL_Driver/Src/stm32l4xx_hal_comp.c ****           ##### COMP Peripheral features #####
  26:Drivers/STM32L4xx_HAL_Driver/Src/stm32l4xx_hal_comp.c ****   ==============================================================================
  27:Drivers/STM32L4xx_HAL_Driver/Src/stm32l4xx_hal_comp.c **** 
  28:Drivers/STM32L4xx_HAL_Driver/Src/stm32l4xx_hal_comp.c ****   [..]
  29:Drivers/STM32L4xx_HAL_Driver/Src/stm32l4xx_hal_comp.c ****       The STM32L4xx device family integrates two analog comparators instances:
  30:Drivers/STM32L4xx_HAL_Driver/Src/stm32l4xx_hal_comp.c ****       COMP1, COMP2 except for the STM32L412xx/STM32L422xx products featuring only
  31:Drivers/STM32L4xx_HAL_Driver/Src/stm32l4xx_hal_comp.c ****       one instance: COMP1 (in this case, all comments related to pair of comparators are not applic
  32:Drivers/STM32L4xx_HAL_Driver/Src/stm32l4xx_hal_comp.c ****       (#) Comparators input minus (inverting input) and input plus (non inverting input)
  33:Drivers/STM32L4xx_HAL_Driver/Src/stm32l4xx_hal_comp.c ****           can be set to internal references or to GPIO pins
  34:Drivers/STM32L4xx_HAL_Driver/Src/stm32l4xx_hal_comp.c ****           (refer to GPIO list in reference manual).
  35:Drivers/STM32L4xx_HAL_Driver/Src/stm32l4xx_hal_comp.c **** 
  36:Drivers/STM32L4xx_HAL_Driver/Src/stm32l4xx_hal_comp.c ****       (#) Comparators output level is available using HAL_COMP_GetOutputLevel()
  37:Drivers/STM32L4xx_HAL_Driver/Src/stm32l4xx_hal_comp.c ****           and can be redirected to other peripherals: GPIO pins (in mode
  38:Drivers/STM32L4xx_HAL_Driver/Src/stm32l4xx_hal_comp.c ****           alternate functions for comparator), timers.
  39:Drivers/STM32L4xx_HAL_Driver/Src/stm32l4xx_hal_comp.c ****           (refer to GPIO list in reference manual).
ARM GAS  /tmp/cckJv99E.s 			page 33


  40:Drivers/STM32L4xx_HAL_Driver/Src/stm32l4xx_hal_comp.c **** 
  41:Drivers/STM32L4xx_HAL_Driver/Src/stm32l4xx_hal_comp.c ****       (#) The comparators have interrupt capability through the EXTI controller
  42:Drivers/STM32L4xx_HAL_Driver/Src/stm32l4xx_hal_comp.c ****           with wake-up from sleep and stop modes.
  43:Drivers/STM32L4xx_HAL_Driver/Src/stm32l4xx_hal_comp.c **** 
  44:Drivers/STM32L4xx_HAL_Driver/Src/stm32l4xx_hal_comp.c ****       (#) Pairs of comparators instances can be combined in window mode
  45:Drivers/STM32L4xx_HAL_Driver/Src/stm32l4xx_hal_comp.c ****           (2 consecutive instances odd and even COMP<x> and COMP<x+1>).
  46:Drivers/STM32L4xx_HAL_Driver/Src/stm32l4xx_hal_comp.c **** 
  47:Drivers/STM32L4xx_HAL_Driver/Src/stm32l4xx_hal_comp.c ****           From the corresponding IRQ handler, the right interrupt source can be retrieved
  48:Drivers/STM32L4xx_HAL_Driver/Src/stm32l4xx_hal_comp.c ****           using macro __HAL_COMP_COMPx_EXTI_GET_FLAG().
  49:Drivers/STM32L4xx_HAL_Driver/Src/stm32l4xx_hal_comp.c **** 
  50:Drivers/STM32L4xx_HAL_Driver/Src/stm32l4xx_hal_comp.c ****             ##### How to use this driver #####
  51:Drivers/STM32L4xx_HAL_Driver/Src/stm32l4xx_hal_comp.c ****   ==============================================================================
  52:Drivers/STM32L4xx_HAL_Driver/Src/stm32l4xx_hal_comp.c ****   [..]
  53:Drivers/STM32L4xx_HAL_Driver/Src/stm32l4xx_hal_comp.c ****       This driver provides functions to configure and program the comparator instances
  54:Drivers/STM32L4xx_HAL_Driver/Src/stm32l4xx_hal_comp.c ****       of STM32L4xx devices.
  55:Drivers/STM32L4xx_HAL_Driver/Src/stm32l4xx_hal_comp.c **** 
  56:Drivers/STM32L4xx_HAL_Driver/Src/stm32l4xx_hal_comp.c ****       To use the comparator, perform the following steps:
  57:Drivers/STM32L4xx_HAL_Driver/Src/stm32l4xx_hal_comp.c **** 
  58:Drivers/STM32L4xx_HAL_Driver/Src/stm32l4xx_hal_comp.c ****       (#)  Initialize the COMP low level resources by implementing the HAL_COMP_MspInit():
  59:Drivers/STM32L4xx_HAL_Driver/Src/stm32l4xx_hal_comp.c ****       (++) Configure the GPIO connected to comparator inputs plus and minus in analog mode
  60:Drivers/STM32L4xx_HAL_Driver/Src/stm32l4xx_hal_comp.c ****            using HAL_GPIO_Init().
  61:Drivers/STM32L4xx_HAL_Driver/Src/stm32l4xx_hal_comp.c ****       (++) If needed, configure the GPIO connected to comparator output in alternate function mode
  62:Drivers/STM32L4xx_HAL_Driver/Src/stm32l4xx_hal_comp.c ****            using HAL_GPIO_Init().
  63:Drivers/STM32L4xx_HAL_Driver/Src/stm32l4xx_hal_comp.c ****       (++) If required enable the COMP interrupt by configuring and enabling EXTI line in Interrupt
  64:Drivers/STM32L4xx_HAL_Driver/Src/stm32l4xx_hal_comp.c ****            selecting the desired sensitivity level using HAL_GPIO_Init() function. After that enabl
  65:Drivers/STM32L4xx_HAL_Driver/Src/stm32l4xx_hal_comp.c ****            interrupt vector using HAL_NVIC_EnableIRQ() function.
  66:Drivers/STM32L4xx_HAL_Driver/Src/stm32l4xx_hal_comp.c **** 
  67:Drivers/STM32L4xx_HAL_Driver/Src/stm32l4xx_hal_comp.c ****       (#) Configure the comparator using HAL_COMP_Init() function:
  68:Drivers/STM32L4xx_HAL_Driver/Src/stm32l4xx_hal_comp.c ****       (++) Select the input minus (inverting input)
  69:Drivers/STM32L4xx_HAL_Driver/Src/stm32l4xx_hal_comp.c ****       (++) Select the input plus (non-inverting input)
  70:Drivers/STM32L4xx_HAL_Driver/Src/stm32l4xx_hal_comp.c ****       (++) Select the hysteresis
  71:Drivers/STM32L4xx_HAL_Driver/Src/stm32l4xx_hal_comp.c ****       (++) Select the blanking source
  72:Drivers/STM32L4xx_HAL_Driver/Src/stm32l4xx_hal_comp.c ****       (++) Select the output polarity
  73:Drivers/STM32L4xx_HAL_Driver/Src/stm32l4xx_hal_comp.c ****       (++) Select the power mode
  74:Drivers/STM32L4xx_HAL_Driver/Src/stm32l4xx_hal_comp.c ****       (++) Select the window mode
  75:Drivers/STM32L4xx_HAL_Driver/Src/stm32l4xx_hal_comp.c **** 
  76:Drivers/STM32L4xx_HAL_Driver/Src/stm32l4xx_hal_comp.c ****       -@@- HAL_COMP_Init() calls internally __HAL_RCC_SYSCFG_CLK_ENABLE()
  77:Drivers/STM32L4xx_HAL_Driver/Src/stm32l4xx_hal_comp.c ****           to enable internal control clock of the comparators.
  78:Drivers/STM32L4xx_HAL_Driver/Src/stm32l4xx_hal_comp.c ****           However, this is a legacy strategy. In future STM32 families,
  79:Drivers/STM32L4xx_HAL_Driver/Src/stm32l4xx_hal_comp.c ****           COMP clock enable must be implemented by user in "HAL_COMP_MspInit()".
  80:Drivers/STM32L4xx_HAL_Driver/Src/stm32l4xx_hal_comp.c ****           Therefore, for compatibility anticipation, it is recommended to
  81:Drivers/STM32L4xx_HAL_Driver/Src/stm32l4xx_hal_comp.c ****           implement __HAL_RCC_SYSCFG_CLK_ENABLE() in "HAL_COMP_MspInit()".
  82:Drivers/STM32L4xx_HAL_Driver/Src/stm32l4xx_hal_comp.c **** 
  83:Drivers/STM32L4xx_HAL_Driver/Src/stm32l4xx_hal_comp.c ****       (#) Reconfiguration on-the-fly of comparator can be done by calling again
  84:Drivers/STM32L4xx_HAL_Driver/Src/stm32l4xx_hal_comp.c ****           function HAL_COMP_Init() with new input structure parameters values.
  85:Drivers/STM32L4xx_HAL_Driver/Src/stm32l4xx_hal_comp.c **** 
  86:Drivers/STM32L4xx_HAL_Driver/Src/stm32l4xx_hal_comp.c ****       (#) Enable the comparator using HAL_COMP_Start() function.
  87:Drivers/STM32L4xx_HAL_Driver/Src/stm32l4xx_hal_comp.c **** 
  88:Drivers/STM32L4xx_HAL_Driver/Src/stm32l4xx_hal_comp.c ****       (#) Use HAL_COMP_TriggerCallback() or HAL_COMP_GetOutputLevel() functions
  89:Drivers/STM32L4xx_HAL_Driver/Src/stm32l4xx_hal_comp.c ****           to manage comparator outputs (events and output level).
  90:Drivers/STM32L4xx_HAL_Driver/Src/stm32l4xx_hal_comp.c **** 
  91:Drivers/STM32L4xx_HAL_Driver/Src/stm32l4xx_hal_comp.c ****       (#) Disable the comparator using HAL_COMP_Stop() function.
  92:Drivers/STM32L4xx_HAL_Driver/Src/stm32l4xx_hal_comp.c **** 
  93:Drivers/STM32L4xx_HAL_Driver/Src/stm32l4xx_hal_comp.c ****       (#) De-initialize the comparator using HAL_COMP_DeInit() function.
  94:Drivers/STM32L4xx_HAL_Driver/Src/stm32l4xx_hal_comp.c **** 
  95:Drivers/STM32L4xx_HAL_Driver/Src/stm32l4xx_hal_comp.c ****       (#) For safety purpose, comparator configuration can be locked using HAL_COMP_Lock() function
  96:Drivers/STM32L4xx_HAL_Driver/Src/stm32l4xx_hal_comp.c ****           The only way to unlock the comparator is a device hardware reset.
ARM GAS  /tmp/cckJv99E.s 			page 34


  97:Drivers/STM32L4xx_HAL_Driver/Src/stm32l4xx_hal_comp.c **** 
  98:Drivers/STM32L4xx_HAL_Driver/Src/stm32l4xx_hal_comp.c ****     *** Callback registration ***
  99:Drivers/STM32L4xx_HAL_Driver/Src/stm32l4xx_hal_comp.c ****     =============================================
 100:Drivers/STM32L4xx_HAL_Driver/Src/stm32l4xx_hal_comp.c ****     [..]
 101:Drivers/STM32L4xx_HAL_Driver/Src/stm32l4xx_hal_comp.c **** 
 102:Drivers/STM32L4xx_HAL_Driver/Src/stm32l4xx_hal_comp.c ****      The compilation flag USE_HAL_COMP_REGISTER_CALLBACKS, when set to 1,
 103:Drivers/STM32L4xx_HAL_Driver/Src/stm32l4xx_hal_comp.c ****      allows the user to configure dynamically the driver callbacks.
 104:Drivers/STM32L4xx_HAL_Driver/Src/stm32l4xx_hal_comp.c ****      Use Functions HAL_COMP_RegisterCallback()
 105:Drivers/STM32L4xx_HAL_Driver/Src/stm32l4xx_hal_comp.c ****      to register an interrupt callback.
 106:Drivers/STM32L4xx_HAL_Driver/Src/stm32l4xx_hal_comp.c ****     [..]
 107:Drivers/STM32L4xx_HAL_Driver/Src/stm32l4xx_hal_comp.c **** 
 108:Drivers/STM32L4xx_HAL_Driver/Src/stm32l4xx_hal_comp.c ****      Function HAL_COMP_RegisterCallback() allows to register following callbacks:
 109:Drivers/STM32L4xx_HAL_Driver/Src/stm32l4xx_hal_comp.c ****        (+) TriggerCallback       : callback for COMP trigger.
 110:Drivers/STM32L4xx_HAL_Driver/Src/stm32l4xx_hal_comp.c ****        (+) MspInitCallback       : callback for Msp Init.
 111:Drivers/STM32L4xx_HAL_Driver/Src/stm32l4xx_hal_comp.c ****        (+) MspDeInitCallback     : callback for Msp DeInit.
 112:Drivers/STM32L4xx_HAL_Driver/Src/stm32l4xx_hal_comp.c ****      This function takes as parameters the HAL peripheral handle, the Callback ID
 113:Drivers/STM32L4xx_HAL_Driver/Src/stm32l4xx_hal_comp.c ****      and a pointer to the user callback function.
 114:Drivers/STM32L4xx_HAL_Driver/Src/stm32l4xx_hal_comp.c ****     [..]
 115:Drivers/STM32L4xx_HAL_Driver/Src/stm32l4xx_hal_comp.c **** 
 116:Drivers/STM32L4xx_HAL_Driver/Src/stm32l4xx_hal_comp.c ****      Use function HAL_COMP_UnRegisterCallback to reset a callback to the default
 117:Drivers/STM32L4xx_HAL_Driver/Src/stm32l4xx_hal_comp.c ****      weak function.
 118:Drivers/STM32L4xx_HAL_Driver/Src/stm32l4xx_hal_comp.c ****     [..]
 119:Drivers/STM32L4xx_HAL_Driver/Src/stm32l4xx_hal_comp.c **** 
 120:Drivers/STM32L4xx_HAL_Driver/Src/stm32l4xx_hal_comp.c ****      HAL_COMP_UnRegisterCallback takes as parameters the HAL peripheral handle,
 121:Drivers/STM32L4xx_HAL_Driver/Src/stm32l4xx_hal_comp.c ****      and the Callback ID.
 122:Drivers/STM32L4xx_HAL_Driver/Src/stm32l4xx_hal_comp.c ****      This function allows to reset following callbacks:
 123:Drivers/STM32L4xx_HAL_Driver/Src/stm32l4xx_hal_comp.c ****        (+) TriggerCallback       : callback for COMP trigger.
 124:Drivers/STM32L4xx_HAL_Driver/Src/stm32l4xx_hal_comp.c ****        (+) MspInitCallback       : callback for Msp Init.
 125:Drivers/STM32L4xx_HAL_Driver/Src/stm32l4xx_hal_comp.c ****        (+) MspDeInitCallback     : callback for Msp DeInit.
 126:Drivers/STM32L4xx_HAL_Driver/Src/stm32l4xx_hal_comp.c ****      [..]
 127:Drivers/STM32L4xx_HAL_Driver/Src/stm32l4xx_hal_comp.c **** 
 128:Drivers/STM32L4xx_HAL_Driver/Src/stm32l4xx_hal_comp.c ****      By default, after the HAL_COMP_Init() and when the state is HAL_COMP_STATE_RESET
 129:Drivers/STM32L4xx_HAL_Driver/Src/stm32l4xx_hal_comp.c ****      all callbacks are set to the corresponding weak functions:
 130:Drivers/STM32L4xx_HAL_Driver/Src/stm32l4xx_hal_comp.c ****      example HAL_COMP_TriggerCallback().
 131:Drivers/STM32L4xx_HAL_Driver/Src/stm32l4xx_hal_comp.c ****      Exception done for MspInit and MspDeInit functions that are
 132:Drivers/STM32L4xx_HAL_Driver/Src/stm32l4xx_hal_comp.c ****      reset to the legacy weak functions in the HAL_COMP_Init()/ HAL_COMP_DeInit() only when
 133:Drivers/STM32L4xx_HAL_Driver/Src/stm32l4xx_hal_comp.c ****      these callbacks are null (not registered beforehand).
 134:Drivers/STM32L4xx_HAL_Driver/Src/stm32l4xx_hal_comp.c ****     [..]
 135:Drivers/STM32L4xx_HAL_Driver/Src/stm32l4xx_hal_comp.c **** 
 136:Drivers/STM32L4xx_HAL_Driver/Src/stm32l4xx_hal_comp.c ****      If MspInit or MspDeInit are not null, the HAL_COMP_Init()/ HAL_COMP_DeInit()
 137:Drivers/STM32L4xx_HAL_Driver/Src/stm32l4xx_hal_comp.c ****      keep and use the user MspInit/MspDeInit callbacks (registered beforehand) whatever the state.
 138:Drivers/STM32L4xx_HAL_Driver/Src/stm32l4xx_hal_comp.c ****      [..]
 139:Drivers/STM32L4xx_HAL_Driver/Src/stm32l4xx_hal_comp.c **** 
 140:Drivers/STM32L4xx_HAL_Driver/Src/stm32l4xx_hal_comp.c ****      Callbacks can be registered/unregistered in HAL_COMP_STATE_READY state only.
 141:Drivers/STM32L4xx_HAL_Driver/Src/stm32l4xx_hal_comp.c ****      Exception done MspInit/MspDeInit functions that can be registered/unregistered
 142:Drivers/STM32L4xx_HAL_Driver/Src/stm32l4xx_hal_comp.c ****      in HAL_COMP_STATE_READY or HAL_COMP_STATE_RESET state,
 143:Drivers/STM32L4xx_HAL_Driver/Src/stm32l4xx_hal_comp.c ****      thus registered (user) MspInit/DeInit callbacks can be used during the Init/DeInit.
 144:Drivers/STM32L4xx_HAL_Driver/Src/stm32l4xx_hal_comp.c ****     [..]
 145:Drivers/STM32L4xx_HAL_Driver/Src/stm32l4xx_hal_comp.c **** 
 146:Drivers/STM32L4xx_HAL_Driver/Src/stm32l4xx_hal_comp.c ****      Then, the user first registers the MspInit/MspDeInit user callbacks
 147:Drivers/STM32L4xx_HAL_Driver/Src/stm32l4xx_hal_comp.c ****      using HAL_COMP_RegisterCallback() before calling HAL_COMP_DeInit()
 148:Drivers/STM32L4xx_HAL_Driver/Src/stm32l4xx_hal_comp.c ****      or HAL_COMP_Init() function.
 149:Drivers/STM32L4xx_HAL_Driver/Src/stm32l4xx_hal_comp.c ****      [..]
 150:Drivers/STM32L4xx_HAL_Driver/Src/stm32l4xx_hal_comp.c **** 
 151:Drivers/STM32L4xx_HAL_Driver/Src/stm32l4xx_hal_comp.c ****      When the compilation flag USE_HAL_COMP_REGISTER_CALLBACKS is set to 0 or
 152:Drivers/STM32L4xx_HAL_Driver/Src/stm32l4xx_hal_comp.c ****      not defined, the callback registration feature is not available and all callbacks
 153:Drivers/STM32L4xx_HAL_Driver/Src/stm32l4xx_hal_comp.c ****      are set to the corresponding weak functions.
ARM GAS  /tmp/cckJv99E.s 			page 35


 154:Drivers/STM32L4xx_HAL_Driver/Src/stm32l4xx_hal_comp.c **** 
 155:Drivers/STM32L4xx_HAL_Driver/Src/stm32l4xx_hal_comp.c ****   @endverbatim
 156:Drivers/STM32L4xx_HAL_Driver/Src/stm32l4xx_hal_comp.c ****   ******************************************************************************
 157:Drivers/STM32L4xx_HAL_Driver/Src/stm32l4xx_hal_comp.c ****   Table 1. COMP inputs and output for STM32L4xx devices
 158:Drivers/STM32L4xx_HAL_Driver/Src/stm32l4xx_hal_comp.c ****   +-----------------------------------------------------------------+
 159:Drivers/STM32L4xx_HAL_Driver/Src/stm32l4xx_hal_comp.c ****   |                |                |     COMP1     |   COMP2 (4)   |
 160:Drivers/STM32L4xx_HAL_Driver/Src/stm32l4xx_hal_comp.c ****   |----------------|----------------|---------------|---------------+
 161:Drivers/STM32L4xx_HAL_Driver/Src/stm32l4xx_hal_comp.c ****   |                | IO1            |      PC5      |      PB4      |
 162:Drivers/STM32L4xx_HAL_Driver/Src/stm32l4xx_hal_comp.c ****   | Input plus     | IO2            |      PB2      |      PB6      |
 163:Drivers/STM32L4xx_HAL_Driver/Src/stm32l4xx_hal_comp.c ****   |                | IO3 (3)        |      PA1      |      PA3      |
 164:Drivers/STM32L4xx_HAL_Driver/Src/stm32l4xx_hal_comp.c ****   |----------------|----------------|---------------|---------------+
 165:Drivers/STM32L4xx_HAL_Driver/Src/stm32l4xx_hal_comp.c ****   |                | 1/4 VrefInt    |   Available   |   Available   |
 166:Drivers/STM32L4xx_HAL_Driver/Src/stm32l4xx_hal_comp.c ****   |                | 1/2 VrefInt    |   Available   |   Available   |
 167:Drivers/STM32L4xx_HAL_Driver/Src/stm32l4xx_hal_comp.c ****   |                | 3/4 VrefInt    |   Available   |   Available   |
 168:Drivers/STM32L4xx_HAL_Driver/Src/stm32l4xx_hal_comp.c ****   | Input minus    | VrefInt        |   Available   |   Available   |
 169:Drivers/STM32L4xx_HAL_Driver/Src/stm32l4xx_hal_comp.c ****   |                | DAC1 channel 1 |   Available   | Available (4) |
 170:Drivers/STM32L4xx_HAL_Driver/Src/stm32l4xx_hal_comp.c ****   |                | DAC1 channel 2 |   Available   | Available (4) |
 171:Drivers/STM32L4xx_HAL_Driver/Src/stm32l4xx_hal_comp.c ****   |                | IO1            |      PB1      |      PB3      |
 172:Drivers/STM32L4xx_HAL_Driver/Src/stm32l4xx_hal_comp.c ****   |                | IO2            |      PC4      |      PB7      |
 173:Drivers/STM32L4xx_HAL_Driver/Src/stm32l4xx_hal_comp.c ****   |                | IO3 (3)        |      PA0      |      PA2      |
 174:Drivers/STM32L4xx_HAL_Driver/Src/stm32l4xx_hal_comp.c ****   |                | IO4 (3)        |      PA4      |      PA4      |
 175:Drivers/STM32L4xx_HAL_Driver/Src/stm32l4xx_hal_comp.c ****   |                | IO5 (3)        |      PA5      |      PA5      |
 176:Drivers/STM32L4xx_HAL_Driver/Src/stm32l4xx_hal_comp.c ****   +----------------|----------------|---------------|---------------+
 177:Drivers/STM32L4xx_HAL_Driver/Src/stm32l4xx_hal_comp.c ****   | Output         |                |    PB0  (1)   |    PB5  (1)   |
 178:Drivers/STM32L4xx_HAL_Driver/Src/stm32l4xx_hal_comp.c ****   |                |                |    PB10 (1)   |    PB11 (1)   |
 179:Drivers/STM32L4xx_HAL_Driver/Src/stm32l4xx_hal_comp.c ****   |                |                |    TIM  (2)   |    TIM  (2)   |
 180:Drivers/STM32L4xx_HAL_Driver/Src/stm32l4xx_hal_comp.c ****   +-----------------------------------------------------------------+
 181:Drivers/STM32L4xx_HAL_Driver/Src/stm32l4xx_hal_comp.c ****   (1) GPIO must be set to alternate function for comparator
 182:Drivers/STM32L4xx_HAL_Driver/Src/stm32l4xx_hal_comp.c ****   (2) Comparators output to timers is set in timers instances.
 183:Drivers/STM32L4xx_HAL_Driver/Src/stm32l4xx_hal_comp.c ****   (3) Only STM32L43x/L44x
 184:Drivers/STM32L4xx_HAL_Driver/Src/stm32l4xx_hal_comp.c ****   (4) Not applicable to STM32L412x/L422x
 185:Drivers/STM32L4xx_HAL_Driver/Src/stm32l4xx_hal_comp.c **** 
 186:Drivers/STM32L4xx_HAL_Driver/Src/stm32l4xx_hal_comp.c ****   */
 187:Drivers/STM32L4xx_HAL_Driver/Src/stm32l4xx_hal_comp.c **** 
 188:Drivers/STM32L4xx_HAL_Driver/Src/stm32l4xx_hal_comp.c **** /* Includes ------------------------------------------------------------------*/
 189:Drivers/STM32L4xx_HAL_Driver/Src/stm32l4xx_hal_comp.c **** #include "stm32l4xx_hal.h"
 190:Drivers/STM32L4xx_HAL_Driver/Src/stm32l4xx_hal_comp.c **** 
 191:Drivers/STM32L4xx_HAL_Driver/Src/stm32l4xx_hal_comp.c **** /** @addtogroup STM32L4xx_HAL_Driver
 192:Drivers/STM32L4xx_HAL_Driver/Src/stm32l4xx_hal_comp.c ****   * @{
 193:Drivers/STM32L4xx_HAL_Driver/Src/stm32l4xx_hal_comp.c ****   */
 194:Drivers/STM32L4xx_HAL_Driver/Src/stm32l4xx_hal_comp.c **** 
 195:Drivers/STM32L4xx_HAL_Driver/Src/stm32l4xx_hal_comp.c **** #ifdef HAL_COMP_MODULE_ENABLED
 196:Drivers/STM32L4xx_HAL_Driver/Src/stm32l4xx_hal_comp.c **** 
 197:Drivers/STM32L4xx_HAL_Driver/Src/stm32l4xx_hal_comp.c **** #if defined (COMP1) || defined (COMP2)
 198:Drivers/STM32L4xx_HAL_Driver/Src/stm32l4xx_hal_comp.c **** 
 199:Drivers/STM32L4xx_HAL_Driver/Src/stm32l4xx_hal_comp.c **** /** @defgroup COMP COMP
 200:Drivers/STM32L4xx_HAL_Driver/Src/stm32l4xx_hal_comp.c ****   * @brief COMP HAL module driver
 201:Drivers/STM32L4xx_HAL_Driver/Src/stm32l4xx_hal_comp.c ****   * @{
 202:Drivers/STM32L4xx_HAL_Driver/Src/stm32l4xx_hal_comp.c ****   */
 203:Drivers/STM32L4xx_HAL_Driver/Src/stm32l4xx_hal_comp.c **** 
 204:Drivers/STM32L4xx_HAL_Driver/Src/stm32l4xx_hal_comp.c **** /* Private typedef -----------------------------------------------------------*/
 205:Drivers/STM32L4xx_HAL_Driver/Src/stm32l4xx_hal_comp.c **** /* Private define ------------------------------------------------------------*/
 206:Drivers/STM32L4xx_HAL_Driver/Src/stm32l4xx_hal_comp.c **** /** @addtogroup COMP_Private_Constants
 207:Drivers/STM32L4xx_HAL_Driver/Src/stm32l4xx_hal_comp.c ****   * @{
 208:Drivers/STM32L4xx_HAL_Driver/Src/stm32l4xx_hal_comp.c ****   */
 209:Drivers/STM32L4xx_HAL_Driver/Src/stm32l4xx_hal_comp.c **** 
 210:Drivers/STM32L4xx_HAL_Driver/Src/stm32l4xx_hal_comp.c **** /* Delay for COMP startup time.                                               */
ARM GAS  /tmp/cckJv99E.s 			page 36


 211:Drivers/STM32L4xx_HAL_Driver/Src/stm32l4xx_hal_comp.c **** /* Note: Delay required to reach propagation delay specification.             */
 212:Drivers/STM32L4xx_HAL_Driver/Src/stm32l4xx_hal_comp.c **** /* Literal set to maximum value (refer to device datasheet,                   */
 213:Drivers/STM32L4xx_HAL_Driver/Src/stm32l4xx_hal_comp.c **** /* parameter "tSTART").                                                       */
 214:Drivers/STM32L4xx_HAL_Driver/Src/stm32l4xx_hal_comp.c **** /* Unit: us                                                                   */
 215:Drivers/STM32L4xx_HAL_Driver/Src/stm32l4xx_hal_comp.c **** #define COMP_DELAY_STARTUP_US          (80UL)      /*!< Delay for COMP startup time */
 216:Drivers/STM32L4xx_HAL_Driver/Src/stm32l4xx_hal_comp.c **** 
 217:Drivers/STM32L4xx_HAL_Driver/Src/stm32l4xx_hal_comp.c **** /* Delay for COMP voltage scaler stabilization time.                          */
 218:Drivers/STM32L4xx_HAL_Driver/Src/stm32l4xx_hal_comp.c **** /* Literal set to maximum value (refer to device datasheet,                   */
 219:Drivers/STM32L4xx_HAL_Driver/Src/stm32l4xx_hal_comp.c **** /* parameter "tSTART_SCALER").                                                */
 220:Drivers/STM32L4xx_HAL_Driver/Src/stm32l4xx_hal_comp.c **** /* Unit: us                                                                   */
 221:Drivers/STM32L4xx_HAL_Driver/Src/stm32l4xx_hal_comp.c **** #define COMP_DELAY_VOLTAGE_SCALER_STAB_US (200UL)  /*!< Delay for COMP voltage scaler stabilization
 222:Drivers/STM32L4xx_HAL_Driver/Src/stm32l4xx_hal_comp.c **** 
 223:Drivers/STM32L4xx_HAL_Driver/Src/stm32l4xx_hal_comp.c **** #define COMP_OUTPUT_LEVEL_BITOFFSET_POS    (30UL)
 224:Drivers/STM32L4xx_HAL_Driver/Src/stm32l4xx_hal_comp.c **** 
 225:Drivers/STM32L4xx_HAL_Driver/Src/stm32l4xx_hal_comp.c **** /**
 226:Drivers/STM32L4xx_HAL_Driver/Src/stm32l4xx_hal_comp.c ****   * @}
 227:Drivers/STM32L4xx_HAL_Driver/Src/stm32l4xx_hal_comp.c ****   */
 228:Drivers/STM32L4xx_HAL_Driver/Src/stm32l4xx_hal_comp.c **** 
 229:Drivers/STM32L4xx_HAL_Driver/Src/stm32l4xx_hal_comp.c **** /* Private macro -------------------------------------------------------------*/
 230:Drivers/STM32L4xx_HAL_Driver/Src/stm32l4xx_hal_comp.c **** /* Private variables ---------------------------------------------------------*/
 231:Drivers/STM32L4xx_HAL_Driver/Src/stm32l4xx_hal_comp.c **** /* Private function prototypes -----------------------------------------------*/
 232:Drivers/STM32L4xx_HAL_Driver/Src/stm32l4xx_hal_comp.c **** /* Exported functions --------------------------------------------------------*/
 233:Drivers/STM32L4xx_HAL_Driver/Src/stm32l4xx_hal_comp.c **** 
 234:Drivers/STM32L4xx_HAL_Driver/Src/stm32l4xx_hal_comp.c **** /** @defgroup COMP_Exported_Functions COMP Exported Functions
 235:Drivers/STM32L4xx_HAL_Driver/Src/stm32l4xx_hal_comp.c ****   * @{
 236:Drivers/STM32L4xx_HAL_Driver/Src/stm32l4xx_hal_comp.c ****   */
 237:Drivers/STM32L4xx_HAL_Driver/Src/stm32l4xx_hal_comp.c **** 
 238:Drivers/STM32L4xx_HAL_Driver/Src/stm32l4xx_hal_comp.c **** /** @defgroup COMP_Exported_Functions_Group1 Initialization/de-initialization functions
 239:Drivers/STM32L4xx_HAL_Driver/Src/stm32l4xx_hal_comp.c ****   *  @brief    Initialization and de-initialization functions.
 240:Drivers/STM32L4xx_HAL_Driver/Src/stm32l4xx_hal_comp.c ****   *
 241:Drivers/STM32L4xx_HAL_Driver/Src/stm32l4xx_hal_comp.c **** @verbatim
 242:Drivers/STM32L4xx_HAL_Driver/Src/stm32l4xx_hal_comp.c ****  ===============================================================================
 243:Drivers/STM32L4xx_HAL_Driver/Src/stm32l4xx_hal_comp.c ****               ##### Initialization and de-initialization functions #####
 244:Drivers/STM32L4xx_HAL_Driver/Src/stm32l4xx_hal_comp.c ****  ===============================================================================
 245:Drivers/STM32L4xx_HAL_Driver/Src/stm32l4xx_hal_comp.c ****     [..]  This section provides functions to initialize and de-initialize comparators
 246:Drivers/STM32L4xx_HAL_Driver/Src/stm32l4xx_hal_comp.c **** 
 247:Drivers/STM32L4xx_HAL_Driver/Src/stm32l4xx_hal_comp.c **** @endverbatim
 248:Drivers/STM32L4xx_HAL_Driver/Src/stm32l4xx_hal_comp.c ****   * @{
 249:Drivers/STM32L4xx_HAL_Driver/Src/stm32l4xx_hal_comp.c ****   */
 250:Drivers/STM32L4xx_HAL_Driver/Src/stm32l4xx_hal_comp.c **** 
 251:Drivers/STM32L4xx_HAL_Driver/Src/stm32l4xx_hal_comp.c **** /**
 252:Drivers/STM32L4xx_HAL_Driver/Src/stm32l4xx_hal_comp.c ****   * @brief  Initialize the COMP according to the specified
 253:Drivers/STM32L4xx_HAL_Driver/Src/stm32l4xx_hal_comp.c ****   *         parameters in the COMP_InitTypeDef and initialize the associated handle.
 254:Drivers/STM32L4xx_HAL_Driver/Src/stm32l4xx_hal_comp.c ****   * @note   If the selected comparator is locked, initialization can't be performed.
 255:Drivers/STM32L4xx_HAL_Driver/Src/stm32l4xx_hal_comp.c ****   *         To unlock the configuration, perform a system reset.
 256:Drivers/STM32L4xx_HAL_Driver/Src/stm32l4xx_hal_comp.c ****   * @param  hcomp  COMP handle
 257:Drivers/STM32L4xx_HAL_Driver/Src/stm32l4xx_hal_comp.c ****   * @retval HAL status
 258:Drivers/STM32L4xx_HAL_Driver/Src/stm32l4xx_hal_comp.c ****   */
 259:Drivers/STM32L4xx_HAL_Driver/Src/stm32l4xx_hal_comp.c **** HAL_StatusTypeDef HAL_COMP_Init(COMP_HandleTypeDef *hcomp)
 260:Drivers/STM32L4xx_HAL_Driver/Src/stm32l4xx_hal_comp.c **** {
 507              		.loc 1 260 1
 508              		.cfi_startproc
 509              		@ args = 0, pretend = 0, frame = 32
 510              		@ frame_needed = 1, uses_anonymous_args = 0
 511 0000 80B5     		push	{r7, lr}
 512              		.cfi_def_cfa_offset 8
 513              		.cfi_offset 7, -8
ARM GAS  /tmp/cckJv99E.s 			page 37


 514              		.cfi_offset 14, -4
 515 0002 88B0     		sub	sp, sp, #32
 516              		.cfi_def_cfa_offset 40
 517 0004 00AF     		add	r7, sp, #0
 518              		.cfi_def_cfa_register 7
 519 0006 7860     		str	r0, [r7, #4]
 261:Drivers/STM32L4xx_HAL_Driver/Src/stm32l4xx_hal_comp.c ****   uint32_t tmp_csr;
 262:Drivers/STM32L4xx_HAL_Driver/Src/stm32l4xx_hal_comp.c ****   uint32_t exti_line;
 263:Drivers/STM32L4xx_HAL_Driver/Src/stm32l4xx_hal_comp.c ****   uint32_t comp_voltage_scaler_initialized; /* Value "0" if comparator voltage scaler is not initia
 264:Drivers/STM32L4xx_HAL_Driver/Src/stm32l4xx_hal_comp.c ****   __IO uint32_t wait_loop_index = 0UL;
 520              		.loc 1 264 17
 521 0008 0023     		movs	r3, #0
 522 000a FB60     		str	r3, [r7, #12]
 265:Drivers/STM32L4xx_HAL_Driver/Src/stm32l4xx_hal_comp.c ****   HAL_StatusTypeDef status = HAL_OK;
 523              		.loc 1 265 21
 524 000c 0023     		movs	r3, #0
 525 000e FB77     		strb	r3, [r7, #31]
 266:Drivers/STM32L4xx_HAL_Driver/Src/stm32l4xx_hal_comp.c **** 
 267:Drivers/STM32L4xx_HAL_Driver/Src/stm32l4xx_hal_comp.c ****   /* Check the COMP handle allocation and lock status */
 268:Drivers/STM32L4xx_HAL_Driver/Src/stm32l4xx_hal_comp.c ****   if (hcomp == NULL)
 526              		.loc 1 268 6
 527 0010 7B68     		ldr	r3, [r7, #4]
 528 0012 002B     		cmp	r3, #0
 529 0014 02D1     		bne	.L35
 269:Drivers/STM32L4xx_HAL_Driver/Src/stm32l4xx_hal_comp.c ****   {
 270:Drivers/STM32L4xx_HAL_Driver/Src/stm32l4xx_hal_comp.c ****     status = HAL_ERROR;
 530              		.loc 1 270 12
 531 0016 0123     		movs	r3, #1
 532 0018 FB77     		strb	r3, [r7, #31]
 533 001a D1E0     		b	.L36
 534              	.L35:
 271:Drivers/STM32L4xx_HAL_Driver/Src/stm32l4xx_hal_comp.c ****   }
 272:Drivers/STM32L4xx_HAL_Driver/Src/stm32l4xx_hal_comp.c ****   else if (__HAL_COMP_IS_LOCKED(hcomp))
 535              		.loc 1 272 12
 536 001c 7B68     		ldr	r3, [r7, #4]
 537 001e 1B68     		ldr	r3, [r3]
 538 0020 1B68     		ldr	r3, [r3]
 539 0022 03F00043 		and	r3, r3, #-2147483648
 540              		.loc 1 272 11
 541 0026 B3F1004F 		cmp	r3, #-2147483648
 542 002a 02D1     		bne	.L37
 273:Drivers/STM32L4xx_HAL_Driver/Src/stm32l4xx_hal_comp.c ****   {
 274:Drivers/STM32L4xx_HAL_Driver/Src/stm32l4xx_hal_comp.c ****     status = HAL_ERROR;
 543              		.loc 1 274 12
 544 002c 0123     		movs	r3, #1
 545 002e FB77     		strb	r3, [r7, #31]
 546 0030 C6E0     		b	.L36
 547              	.L37:
 275:Drivers/STM32L4xx_HAL_Driver/Src/stm32l4xx_hal_comp.c ****   }
 276:Drivers/STM32L4xx_HAL_Driver/Src/stm32l4xx_hal_comp.c ****   else
 277:Drivers/STM32L4xx_HAL_Driver/Src/stm32l4xx_hal_comp.c ****   {
 278:Drivers/STM32L4xx_HAL_Driver/Src/stm32l4xx_hal_comp.c ****     /* Check the parameters */
 279:Drivers/STM32L4xx_HAL_Driver/Src/stm32l4xx_hal_comp.c ****     assert_param(IS_COMP_ALL_INSTANCE(hcomp->Instance));
 280:Drivers/STM32L4xx_HAL_Driver/Src/stm32l4xx_hal_comp.c ****     assert_param(IS_COMP_INPUT_PLUS(hcomp->Instance, hcomp->Init.NonInvertingInput));
 281:Drivers/STM32L4xx_HAL_Driver/Src/stm32l4xx_hal_comp.c ****     assert_param(IS_COMP_INPUT_MINUS(hcomp->Instance, hcomp->Init.InvertingInput));
 282:Drivers/STM32L4xx_HAL_Driver/Src/stm32l4xx_hal_comp.c ****     assert_param(IS_COMP_OUTPUTPOL(hcomp->Init.OutputPol));
 283:Drivers/STM32L4xx_HAL_Driver/Src/stm32l4xx_hal_comp.c ****     assert_param(IS_COMP_POWERMODE(hcomp->Init.Mode));
ARM GAS  /tmp/cckJv99E.s 			page 38


 284:Drivers/STM32L4xx_HAL_Driver/Src/stm32l4xx_hal_comp.c ****     assert_param(IS_COMP_HYSTERESIS(hcomp->Init.Hysteresis));
 285:Drivers/STM32L4xx_HAL_Driver/Src/stm32l4xx_hal_comp.c ****     assert_param(IS_COMP_BLANKINGSRC_INSTANCE(hcomp->Instance, hcomp->Init.BlankingSrce));
 286:Drivers/STM32L4xx_HAL_Driver/Src/stm32l4xx_hal_comp.c ****     assert_param(IS_COMP_TRIGGERMODE(hcomp->Init.TriggerMode));
 287:Drivers/STM32L4xx_HAL_Driver/Src/stm32l4xx_hal_comp.c **** 
 288:Drivers/STM32L4xx_HAL_Driver/Src/stm32l4xx_hal_comp.c **** #if defined(COMP2)
 289:Drivers/STM32L4xx_HAL_Driver/Src/stm32l4xx_hal_comp.c ****     assert_param(IS_COMP_WINDOWMODE(hcomp->Init.WindowMode));
 290:Drivers/STM32L4xx_HAL_Driver/Src/stm32l4xx_hal_comp.c **** #endif /* COMP2 */
 291:Drivers/STM32L4xx_HAL_Driver/Src/stm32l4xx_hal_comp.c **** 
 292:Drivers/STM32L4xx_HAL_Driver/Src/stm32l4xx_hal_comp.c **** 
 293:Drivers/STM32L4xx_HAL_Driver/Src/stm32l4xx_hal_comp.c ****     if (hcomp->State == HAL_COMP_STATE_RESET)
 548              		.loc 1 293 14
 549 0032 7B68     		ldr	r3, [r7, #4]
 550 0034 93F82530 		ldrb	r3, [r3, #37]
 551 0038 DBB2     		uxtb	r3, r3
 552              		.loc 1 293 8
 553 003a 002B     		cmp	r3, #0
 554 003c 15D1     		bne	.L38
 294:Drivers/STM32L4xx_HAL_Driver/Src/stm32l4xx_hal_comp.c ****     {
 295:Drivers/STM32L4xx_HAL_Driver/Src/stm32l4xx_hal_comp.c ****       /* Allocate lock resource and initialize it */
 296:Drivers/STM32L4xx_HAL_Driver/Src/stm32l4xx_hal_comp.c ****       hcomp->Lock = HAL_UNLOCKED;
 555              		.loc 1 296 19
 556 003e 7B68     		ldr	r3, [r7, #4]
 557 0040 0022     		movs	r2, #0
 558 0042 83F82420 		strb	r2, [r3, #36]
 297:Drivers/STM32L4xx_HAL_Driver/Src/stm32l4xx_hal_comp.c **** 
 298:Drivers/STM32L4xx_HAL_Driver/Src/stm32l4xx_hal_comp.c ****       /* Set COMP error code to none */
 299:Drivers/STM32L4xx_HAL_Driver/Src/stm32l4xx_hal_comp.c ****       COMP_CLEAR_ERRORCODE(hcomp);
 559              		.loc 1 299 7
 560 0046 7B68     		ldr	r3, [r7, #4]
 561 0048 0022     		movs	r2, #0
 562 004a 9A62     		str	r2, [r3, #40]
 563              	.LBB2:
 300:Drivers/STM32L4xx_HAL_Driver/Src/stm32l4xx_hal_comp.c **** 
 301:Drivers/STM32L4xx_HAL_Driver/Src/stm32l4xx_hal_comp.c ****       /* Init SYSCFG and the low level hardware to access comparators */
 302:Drivers/STM32L4xx_HAL_Driver/Src/stm32l4xx_hal_comp.c ****       /* Note: HAL_COMP_Init() calls __HAL_RCC_SYSCFG_CLK_ENABLE()            */
 303:Drivers/STM32L4xx_HAL_Driver/Src/stm32l4xx_hal_comp.c ****       /*       to enable internal control clock of the comparators.           */
 304:Drivers/STM32L4xx_HAL_Driver/Src/stm32l4xx_hal_comp.c ****       /*       However, this is a legacy strategy. In future STM32 families,  */
 305:Drivers/STM32L4xx_HAL_Driver/Src/stm32l4xx_hal_comp.c ****       /*       COMP clock enable must be implemented by user                  */
 306:Drivers/STM32L4xx_HAL_Driver/Src/stm32l4xx_hal_comp.c ****       /*       in "HAL_COMP_MspInit()".                                       */
 307:Drivers/STM32L4xx_HAL_Driver/Src/stm32l4xx_hal_comp.c ****       /*       Therefore, for compatibility anticipation, it is recommended   */
 308:Drivers/STM32L4xx_HAL_Driver/Src/stm32l4xx_hal_comp.c ****       /*       to implement __HAL_RCC_SYSCFG_CLK_ENABLE()                     */
 309:Drivers/STM32L4xx_HAL_Driver/Src/stm32l4xx_hal_comp.c ****       /*       in "HAL_COMP_MspInit()".                                       */
 310:Drivers/STM32L4xx_HAL_Driver/Src/stm32l4xx_hal_comp.c ****       __HAL_RCC_SYSCFG_CLK_ENABLE();
 564              		.loc 1 310 7
 565 004c 5F4B     		ldr	r3, .L56
 566 004e 1B6E     		ldr	r3, [r3, #96]
 567 0050 5E4A     		ldr	r2, .L56
 568 0052 43F00103 		orr	r3, r3, #1
 569 0056 1366     		str	r3, [r2, #96]
 570 0058 5C4B     		ldr	r3, .L56
 571 005a 1B6E     		ldr	r3, [r3, #96]
 572 005c 03F00103 		and	r3, r3, #1
 573 0060 BB60     		str	r3, [r7, #8]
 574 0062 BB68     		ldr	r3, [r7, #8]
 575              	.LBE2:
 311:Drivers/STM32L4xx_HAL_Driver/Src/stm32l4xx_hal_comp.c **** 
 312:Drivers/STM32L4xx_HAL_Driver/Src/stm32l4xx_hal_comp.c **** #if (USE_HAL_COMP_REGISTER_CALLBACKS == 1)
ARM GAS  /tmp/cckJv99E.s 			page 39


 313:Drivers/STM32L4xx_HAL_Driver/Src/stm32l4xx_hal_comp.c ****       /* Init the COMP Callback settings */
 314:Drivers/STM32L4xx_HAL_Driver/Src/stm32l4xx_hal_comp.c ****       hcomp->TriggerCallback = HAL_COMP_TriggerCallback; /* Legacy weak callback */
 315:Drivers/STM32L4xx_HAL_Driver/Src/stm32l4xx_hal_comp.c **** 
 316:Drivers/STM32L4xx_HAL_Driver/Src/stm32l4xx_hal_comp.c ****       if (hcomp->MspInitCallback == NULL)
 317:Drivers/STM32L4xx_HAL_Driver/Src/stm32l4xx_hal_comp.c ****       {
 318:Drivers/STM32L4xx_HAL_Driver/Src/stm32l4xx_hal_comp.c ****         hcomp->MspInitCallback = HAL_COMP_MspInit; /* Legacy weak MspInit  */
 319:Drivers/STM32L4xx_HAL_Driver/Src/stm32l4xx_hal_comp.c ****       }
 320:Drivers/STM32L4xx_HAL_Driver/Src/stm32l4xx_hal_comp.c **** 
 321:Drivers/STM32L4xx_HAL_Driver/Src/stm32l4xx_hal_comp.c ****       /* Init the low level hardware */
 322:Drivers/STM32L4xx_HAL_Driver/Src/stm32l4xx_hal_comp.c ****       hcomp->MspInitCallback(hcomp);
 323:Drivers/STM32L4xx_HAL_Driver/Src/stm32l4xx_hal_comp.c **** #else
 324:Drivers/STM32L4xx_HAL_Driver/Src/stm32l4xx_hal_comp.c ****       /* Init the low level hardware */
 325:Drivers/STM32L4xx_HAL_Driver/Src/stm32l4xx_hal_comp.c ****       HAL_COMP_MspInit(hcomp);
 576              		.loc 1 325 7
 577 0064 7868     		ldr	r0, [r7, #4]
 578 0066 FFF7FEFF 		bl	HAL_COMP_MspInit
 579              	.L38:
 326:Drivers/STM32L4xx_HAL_Driver/Src/stm32l4xx_hal_comp.c **** #endif /* USE_HAL_COMP_REGISTER_CALLBACKS */
 327:Drivers/STM32L4xx_HAL_Driver/Src/stm32l4xx_hal_comp.c ****     }
 328:Drivers/STM32L4xx_HAL_Driver/Src/stm32l4xx_hal_comp.c **** 
 329:Drivers/STM32L4xx_HAL_Driver/Src/stm32l4xx_hal_comp.c ****     /* Memorize voltage scaler state before initialization */
 330:Drivers/STM32L4xx_HAL_Driver/Src/stm32l4xx_hal_comp.c ****     comp_voltage_scaler_initialized = READ_BIT(hcomp->Instance->CSR, COMP_CSR_SCALEN);
 580              		.loc 1 330 39
 581 006a 7B68     		ldr	r3, [r7, #4]
 582 006c 1B68     		ldr	r3, [r3]
 583 006e 1B68     		ldr	r3, [r3]
 584              		.loc 1 330 37
 585 0070 03F40003 		and	r3, r3, #8388608
 586 0074 BB61     		str	r3, [r7, #24]
 331:Drivers/STM32L4xx_HAL_Driver/Src/stm32l4xx_hal_comp.c **** 
 332:Drivers/STM32L4xx_HAL_Driver/Src/stm32l4xx_hal_comp.c ****     /* Set COMP parameters */
 333:Drivers/STM32L4xx_HAL_Driver/Src/stm32l4xx_hal_comp.c ****     tmp_csr = (hcomp->Init.NonInvertingInput
 587              		.loc 1 333 27
 588 0076 7B68     		ldr	r3, [r7, #4]
 589 0078 DA68     		ldr	r2, [r3, #12]
 334:Drivers/STM32L4xx_HAL_Driver/Src/stm32l4xx_hal_comp.c ****                | hcomp->Init.InvertingInput
 590              		.loc 1 334 29
 591 007a 7B68     		ldr	r3, [r7, #4]
 592 007c 1B69     		ldr	r3, [r3, #16]
 593              		.loc 1 334 16
 594 007e 1A43     		orrs	r2, r2, r3
 335:Drivers/STM32L4xx_HAL_Driver/Src/stm32l4xx_hal_comp.c ****                | hcomp->Init.BlankingSrce
 595              		.loc 1 335 29
 596 0080 7B68     		ldr	r3, [r7, #4]
 597 0082 DB69     		ldr	r3, [r3, #28]
 598              		.loc 1 335 16
 599 0084 1A43     		orrs	r2, r2, r3
 336:Drivers/STM32L4xx_HAL_Driver/Src/stm32l4xx_hal_comp.c ****                | hcomp->Init.Hysteresis
 600              		.loc 1 336 29
 601 0086 7B68     		ldr	r3, [r7, #4]
 602 0088 5B69     		ldr	r3, [r3, #20]
 603              		.loc 1 336 16
 604 008a 1A43     		orrs	r2, r2, r3
 337:Drivers/STM32L4xx_HAL_Driver/Src/stm32l4xx_hal_comp.c ****                | hcomp->Init.OutputPol
 605              		.loc 1 337 29
 606 008c 7B68     		ldr	r3, [r7, #4]
 607 008e 9B69     		ldr	r3, [r3, #24]
ARM GAS  /tmp/cckJv99E.s 			page 40


 608              		.loc 1 337 16
 609 0090 1A43     		orrs	r2, r2, r3
 338:Drivers/STM32L4xx_HAL_Driver/Src/stm32l4xx_hal_comp.c ****                | hcomp->Init.Mode
 610              		.loc 1 338 29
 611 0092 7B68     		ldr	r3, [r7, #4]
 612 0094 9B68     		ldr	r3, [r3, #8]
 333:Drivers/STM32L4xx_HAL_Driver/Src/stm32l4xx_hal_comp.c ****                | hcomp->Init.InvertingInput
 613              		.loc 1 333 13
 614 0096 1343     		orrs	r3, r3, r2
 615 0098 7B61     		str	r3, [r7, #20]
 339:Drivers/STM32L4xx_HAL_Driver/Src/stm32l4xx_hal_comp.c ****               );
 340:Drivers/STM32L4xx_HAL_Driver/Src/stm32l4xx_hal_comp.c **** 
 341:Drivers/STM32L4xx_HAL_Driver/Src/stm32l4xx_hal_comp.c ****     /* Set parameters in COMP register */
 342:Drivers/STM32L4xx_HAL_Driver/Src/stm32l4xx_hal_comp.c ****     /* Note: Update all bits except read-only, lock and enable bits */
 343:Drivers/STM32L4xx_HAL_Driver/Src/stm32l4xx_hal_comp.c **** #if defined (COMP_CSR_INMESEL)
 344:Drivers/STM32L4xx_HAL_Driver/Src/stm32l4xx_hal_comp.c **** #if defined (COMP_CSR_WINMODE)
 345:Drivers/STM32L4xx_HAL_Driver/Src/stm32l4xx_hal_comp.c ****     MODIFY_REG(hcomp->Instance->CSR,
 346:Drivers/STM32L4xx_HAL_Driver/Src/stm32l4xx_hal_comp.c ****                COMP_CSR_PWRMODE  | COMP_CSR_INMSEL   | COMP_CSR_INPSEL  |
 347:Drivers/STM32L4xx_HAL_Driver/Src/stm32l4xx_hal_comp.c ****                COMP_CSR_WINMODE  | COMP_CSR_POLARITY | COMP_CSR_HYST    |
 348:Drivers/STM32L4xx_HAL_Driver/Src/stm32l4xx_hal_comp.c ****                COMP_CSR_BLANKING | COMP_CSR_BRGEN    | COMP_CSR_SCALEN  | COMP_CSR_INMESEL,
 349:Drivers/STM32L4xx_HAL_Driver/Src/stm32l4xx_hal_comp.c ****                tmp_csr
 350:Drivers/STM32L4xx_HAL_Driver/Src/stm32l4xx_hal_comp.c ****               );
 351:Drivers/STM32L4xx_HAL_Driver/Src/stm32l4xx_hal_comp.c **** #else
 352:Drivers/STM32L4xx_HAL_Driver/Src/stm32l4xx_hal_comp.c ****     MODIFY_REG(hcomp->Instance->CSR,
 353:Drivers/STM32L4xx_HAL_Driver/Src/stm32l4xx_hal_comp.c ****                COMP_CSR_PWRMODE  | COMP_CSR_INMSEL   | COMP_CSR_INPSEL  |
 354:Drivers/STM32L4xx_HAL_Driver/Src/stm32l4xx_hal_comp.c ****                COMP_CSR_POLARITY | COMP_CSR_HYST     |
 355:Drivers/STM32L4xx_HAL_Driver/Src/stm32l4xx_hal_comp.c ****                COMP_CSR_BLANKING | COMP_CSR_BRGEN    | COMP_CSR_SCALEN  | COMP_CSR_INMESEL,
 356:Drivers/STM32L4xx_HAL_Driver/Src/stm32l4xx_hal_comp.c ****                tmp_csr
 357:Drivers/STM32L4xx_HAL_Driver/Src/stm32l4xx_hal_comp.c ****               );
 358:Drivers/STM32L4xx_HAL_Driver/Src/stm32l4xx_hal_comp.c **** #endif /* COMP_CSR_WINMODE */
 359:Drivers/STM32L4xx_HAL_Driver/Src/stm32l4xx_hal_comp.c **** #else
 360:Drivers/STM32L4xx_HAL_Driver/Src/stm32l4xx_hal_comp.c ****     MODIFY_REG(hcomp->Instance->CSR,
 616              		.loc 1 360 5
 617 009a 7B68     		ldr	r3, [r7, #4]
 618 009c 1B68     		ldr	r3, [r3]
 619 009e 1A68     		ldr	r2, [r3]
 620 00a0 4B4B     		ldr	r3, .L56+4
 621 00a2 1340     		ands	r3, r3, r2
 622 00a4 7A68     		ldr	r2, [r7, #4]
 623 00a6 1268     		ldr	r2, [r2]
 624 00a8 7969     		ldr	r1, [r7, #20]
 625 00aa 0B43     		orrs	r3, r3, r1
 626 00ac 1360     		str	r3, [r2]
 361:Drivers/STM32L4xx_HAL_Driver/Src/stm32l4xx_hal_comp.c ****                COMP_CSR_PWRMODE  | COMP_CSR_INMSEL   | COMP_CSR_INPSEL  |
 362:Drivers/STM32L4xx_HAL_Driver/Src/stm32l4xx_hal_comp.c ****                COMP_CSR_WINMODE  | COMP_CSR_POLARITY | COMP_CSR_HYST    |
 363:Drivers/STM32L4xx_HAL_Driver/Src/stm32l4xx_hal_comp.c ****                COMP_CSR_BLANKING | COMP_CSR_BRGEN    | COMP_CSR_SCALEN,
 364:Drivers/STM32L4xx_HAL_Driver/Src/stm32l4xx_hal_comp.c ****                tmp_csr
 365:Drivers/STM32L4xx_HAL_Driver/Src/stm32l4xx_hal_comp.c ****               );
 366:Drivers/STM32L4xx_HAL_Driver/Src/stm32l4xx_hal_comp.c **** #endif /* COMP_CSR_INMESEL */
 367:Drivers/STM32L4xx_HAL_Driver/Src/stm32l4xx_hal_comp.c **** 
 368:Drivers/STM32L4xx_HAL_Driver/Src/stm32l4xx_hal_comp.c **** 
 369:Drivers/STM32L4xx_HAL_Driver/Src/stm32l4xx_hal_comp.c **** #if defined(COMP2)
 370:Drivers/STM32L4xx_HAL_Driver/Src/stm32l4xx_hal_comp.c ****     /* Set window mode */
 371:Drivers/STM32L4xx_HAL_Driver/Src/stm32l4xx_hal_comp.c ****     /* Note: Window mode bit is located into 1 out of the 2 pairs of COMP     */
 372:Drivers/STM32L4xx_HAL_Driver/Src/stm32l4xx_hal_comp.c ****     /*       instances. Therefore, this function can update another COMP      */
 373:Drivers/STM32L4xx_HAL_Driver/Src/stm32l4xx_hal_comp.c ****     /*       instance that the one currently selected.                        */
 374:Drivers/STM32L4xx_HAL_Driver/Src/stm32l4xx_hal_comp.c ****     if (hcomp->Init.WindowMode == COMP_WINDOWMODE_COMP1_INPUT_PLUS_COMMON)
ARM GAS  /tmp/cckJv99E.s 			page 41


 627              		.loc 1 374 20
 628 00ae 7B68     		ldr	r3, [r7, #4]
 629 00b0 5B68     		ldr	r3, [r3, #4]
 630              		.loc 1 374 8
 631 00b2 B3F5007F 		cmp	r3, #512
 632 00b6 06D1     		bne	.L39
 375:Drivers/STM32L4xx_HAL_Driver/Src/stm32l4xx_hal_comp.c ****     {
 376:Drivers/STM32L4xx_HAL_Driver/Src/stm32l4xx_hal_comp.c ****       SET_BIT(COMP12_COMMON->CSR, COMP_CSR_WINMODE);
 633              		.loc 1 376 7
 634 00b8 464B     		ldr	r3, .L56+8
 635 00ba 1B68     		ldr	r3, [r3]
 636 00bc 454A     		ldr	r2, .L56+8
 637 00be 43F40073 		orr	r3, r3, #512
 638 00c2 1360     		str	r3, [r2]
 639 00c4 05E0     		b	.L40
 640              	.L39:
 377:Drivers/STM32L4xx_HAL_Driver/Src/stm32l4xx_hal_comp.c ****     }
 378:Drivers/STM32L4xx_HAL_Driver/Src/stm32l4xx_hal_comp.c ****     else
 379:Drivers/STM32L4xx_HAL_Driver/Src/stm32l4xx_hal_comp.c ****     {
 380:Drivers/STM32L4xx_HAL_Driver/Src/stm32l4xx_hal_comp.c ****       CLEAR_BIT(COMP12_COMMON->CSR, COMP_CSR_WINMODE);
 641              		.loc 1 380 7
 642 00c6 434B     		ldr	r3, .L56+8
 643 00c8 1B68     		ldr	r3, [r3]
 644 00ca 424A     		ldr	r2, .L56+8
 645 00cc 23F40073 		bic	r3, r3, #512
 646 00d0 1360     		str	r3, [r2]
 647              	.L40:
 381:Drivers/STM32L4xx_HAL_Driver/Src/stm32l4xx_hal_comp.c ****     }
 382:Drivers/STM32L4xx_HAL_Driver/Src/stm32l4xx_hal_comp.c **** #endif /* COMP2 */
 383:Drivers/STM32L4xx_HAL_Driver/Src/stm32l4xx_hal_comp.c **** 
 384:Drivers/STM32L4xx_HAL_Driver/Src/stm32l4xx_hal_comp.c **** 
 385:Drivers/STM32L4xx_HAL_Driver/Src/stm32l4xx_hal_comp.c ****     /* Delay for COMP scaler bridge voltage stabilization */
 386:Drivers/STM32L4xx_HAL_Driver/Src/stm32l4xx_hal_comp.c ****     /* Apply the delay if voltage scaler bridge is required and not already enabled */
 387:Drivers/STM32L4xx_HAL_Driver/Src/stm32l4xx_hal_comp.c ****     if ((READ_BIT(hcomp->Instance->CSR, COMP_CSR_SCALEN) != 0UL) &&
 648              		.loc 1 387 10
 649 00d2 7B68     		ldr	r3, [r7, #4]
 650 00d4 1B68     		ldr	r3, [r3]
 651 00d6 1B68     		ldr	r3, [r3]
 652 00d8 03F40003 		and	r3, r3, #8388608
 653              		.loc 1 387 8
 654 00dc 002B     		cmp	r3, #0
 655 00de 16D0     		beq	.L41
 656              		.loc 1 387 66 discriminator 1
 657 00e0 BB69     		ldr	r3, [r7, #24]
 658 00e2 002B     		cmp	r3, #0
 659 00e4 13D1     		bne	.L41
 388:Drivers/STM32L4xx_HAL_Driver/Src/stm32l4xx_hal_comp.c ****         (comp_voltage_scaler_initialized == 0UL))
 389:Drivers/STM32L4xx_HAL_Driver/Src/stm32l4xx_hal_comp.c ****     {
 390:Drivers/STM32L4xx_HAL_Driver/Src/stm32l4xx_hal_comp.c ****       /* Wait loop initialization and execution */
 391:Drivers/STM32L4xx_HAL_Driver/Src/stm32l4xx_hal_comp.c ****       /* Note: Variable divided by 2 to compensate partially              */
 392:Drivers/STM32L4xx_HAL_Driver/Src/stm32l4xx_hal_comp.c ****       /*       CPU processing cycles, scaling in us split to not          */
 393:Drivers/STM32L4xx_HAL_Driver/Src/stm32l4xx_hal_comp.c ****       /*       exceed 32 bits register capacity and handle low frequency. */
 394:Drivers/STM32L4xx_HAL_Driver/Src/stm32l4xx_hal_comp.c ****       wait_loop_index = ((COMP_DELAY_VOLTAGE_SCALER_STAB_US / 10UL) * ((SystemCoreClock / (100000UL
 660              		.loc 1 394 89
 661 00e6 3C4B     		ldr	r3, .L56+12
 662 00e8 1B68     		ldr	r3, [r3]
 663 00ea 9B09     		lsrs	r3, r3, #6
ARM GAS  /tmp/cckJv99E.s 			page 42


 664 00ec 3B4A     		ldr	r2, .L56+16
 665 00ee A2FB0323 		umull	r2, r3, r2, r3
 666 00f2 9B09     		lsrs	r3, r3, #6
 667              		.loc 1 394 69
 668 00f4 5A1C     		adds	r2, r3, #1
 669 00f6 1346     		mov	r3, r2
 670 00f8 9B00     		lsls	r3, r3, #2
 671 00fa 1344     		add	r3, r3, r2
 672 00fc 9B00     		lsls	r3, r3, #2
 673              		.loc 1 394 23
 674 00fe FB60     		str	r3, [r7, #12]
 395:Drivers/STM32L4xx_HAL_Driver/Src/stm32l4xx_hal_comp.c ****       while (wait_loop_index != 0UL)
 675              		.loc 1 395 13
 676 0100 02E0     		b	.L42
 677              	.L43:
 396:Drivers/STM32L4xx_HAL_Driver/Src/stm32l4xx_hal_comp.c ****       {
 397:Drivers/STM32L4xx_HAL_Driver/Src/stm32l4xx_hal_comp.c ****         wait_loop_index--;
 678              		.loc 1 397 24
 679 0102 FB68     		ldr	r3, [r7, #12]
 680 0104 013B     		subs	r3, r3, #1
 681 0106 FB60     		str	r3, [r7, #12]
 682              	.L42:
 395:Drivers/STM32L4xx_HAL_Driver/Src/stm32l4xx_hal_comp.c ****       while (wait_loop_index != 0UL)
 683              		.loc 1 395 30
 684 0108 FB68     		ldr	r3, [r7, #12]
 685 010a 002B     		cmp	r3, #0
 686 010c F9D1     		bne	.L43
 687              	.L41:
 398:Drivers/STM32L4xx_HAL_Driver/Src/stm32l4xx_hal_comp.c ****       }
 399:Drivers/STM32L4xx_HAL_Driver/Src/stm32l4xx_hal_comp.c ****     }
 400:Drivers/STM32L4xx_HAL_Driver/Src/stm32l4xx_hal_comp.c **** 
 401:Drivers/STM32L4xx_HAL_Driver/Src/stm32l4xx_hal_comp.c ****     /* Get the EXTI line corresponding to the selected COMP instance */
 402:Drivers/STM32L4xx_HAL_Driver/Src/stm32l4xx_hal_comp.c ****     exti_line = COMP_GET_EXTI_LINE(hcomp->Instance);
 688              		.loc 1 402 17
 689 010e 7B68     		ldr	r3, [r7, #4]
 690 0110 1B68     		ldr	r3, [r3]
 691 0112 334A     		ldr	r2, .L56+20
 692 0114 9342     		cmp	r3, r2
 693 0116 02D1     		bne	.L44
 694              		.loc 1 402 17 is_stmt 0 discriminator 1
 695 0118 4FF40013 		mov	r3, #2097152
 696 011c 01E0     		b	.L45
 697              	.L44:
 698              		.loc 1 402 17 discriminator 2
 699 011e 4FF48003 		mov	r3, #4194304
 700              	.L45:
 701              		.loc 1 402 15 is_stmt 1 discriminator 4
 702 0122 3B61     		str	r3, [r7, #16]
 403:Drivers/STM32L4xx_HAL_Driver/Src/stm32l4xx_hal_comp.c **** 
 404:Drivers/STM32L4xx_HAL_Driver/Src/stm32l4xx_hal_comp.c ****     /* Manage EXTI settings */
 405:Drivers/STM32L4xx_HAL_Driver/Src/stm32l4xx_hal_comp.c ****     if ((hcomp->Init.TriggerMode & (COMP_EXTI_IT | COMP_EXTI_EVENT)) != 0UL)
 703              		.loc 1 405 21
 704 0124 7B68     		ldr	r3, [r7, #4]
 705 0126 1B6A     		ldr	r3, [r3, #32]
 706              		.loc 1 405 34
 707 0128 03F00303 		and	r3, r3, #3
 708              		.loc 1 405 8
ARM GAS  /tmp/cckJv99E.s 			page 43


 709 012c 002B     		cmp	r3, #0
 710 012e 37D0     		beq	.L46
 406:Drivers/STM32L4xx_HAL_Driver/Src/stm32l4xx_hal_comp.c ****     {
 407:Drivers/STM32L4xx_HAL_Driver/Src/stm32l4xx_hal_comp.c ****       /* Configure EXTI rising edge */
 408:Drivers/STM32L4xx_HAL_Driver/Src/stm32l4xx_hal_comp.c ****       if ((hcomp->Init.TriggerMode & COMP_EXTI_RISING) != 0UL)
 711              		.loc 1 408 23
 712 0130 7B68     		ldr	r3, [r7, #4]
 713 0132 1B6A     		ldr	r3, [r3, #32]
 714              		.loc 1 408 36
 715 0134 03F01003 		and	r3, r3, #16
 716              		.loc 1 408 10
 717 0138 002B     		cmp	r3, #0
 718 013a 03D0     		beq	.L47
 409:Drivers/STM32L4xx_HAL_Driver/Src/stm32l4xx_hal_comp.c ****       {
 410:Drivers/STM32L4xx_HAL_Driver/Src/stm32l4xx_hal_comp.c ****         LL_EXTI_EnableRisingTrig_0_31(exti_line);
 719              		.loc 1 410 9
 720 013c 3869     		ldr	r0, [r7, #16]
 721 013e FFF7FEFF 		bl	LL_EXTI_EnableRisingTrig_0_31
 722 0142 02E0     		b	.L48
 723              	.L47:
 411:Drivers/STM32L4xx_HAL_Driver/Src/stm32l4xx_hal_comp.c ****       }
 412:Drivers/STM32L4xx_HAL_Driver/Src/stm32l4xx_hal_comp.c ****       else
 413:Drivers/STM32L4xx_HAL_Driver/Src/stm32l4xx_hal_comp.c ****       {
 414:Drivers/STM32L4xx_HAL_Driver/Src/stm32l4xx_hal_comp.c ****         LL_EXTI_DisableRisingTrig_0_31(exti_line);
 724              		.loc 1 414 9
 725 0144 3869     		ldr	r0, [r7, #16]
 726 0146 FFF7FEFF 		bl	LL_EXTI_DisableRisingTrig_0_31
 727              	.L48:
 415:Drivers/STM32L4xx_HAL_Driver/Src/stm32l4xx_hal_comp.c ****       }
 416:Drivers/STM32L4xx_HAL_Driver/Src/stm32l4xx_hal_comp.c **** 
 417:Drivers/STM32L4xx_HAL_Driver/Src/stm32l4xx_hal_comp.c ****       /* Configure EXTI falling edge */
 418:Drivers/STM32L4xx_HAL_Driver/Src/stm32l4xx_hal_comp.c ****       if ((hcomp->Init.TriggerMode & COMP_EXTI_FALLING) != 0UL)
 728              		.loc 1 418 23
 729 014a 7B68     		ldr	r3, [r7, #4]
 730 014c 1B6A     		ldr	r3, [r3, #32]
 731              		.loc 1 418 36
 732 014e 03F02003 		and	r3, r3, #32
 733              		.loc 1 418 10
 734 0152 002B     		cmp	r3, #0
 735 0154 03D0     		beq	.L49
 419:Drivers/STM32L4xx_HAL_Driver/Src/stm32l4xx_hal_comp.c ****       {
 420:Drivers/STM32L4xx_HAL_Driver/Src/stm32l4xx_hal_comp.c ****         LL_EXTI_EnableFallingTrig_0_31(exti_line);
 736              		.loc 1 420 9
 737 0156 3869     		ldr	r0, [r7, #16]
 738 0158 FFF7FEFF 		bl	LL_EXTI_EnableFallingTrig_0_31
 739 015c 02E0     		b	.L50
 740              	.L49:
 421:Drivers/STM32L4xx_HAL_Driver/Src/stm32l4xx_hal_comp.c ****       }
 422:Drivers/STM32L4xx_HAL_Driver/Src/stm32l4xx_hal_comp.c ****       else
 423:Drivers/STM32L4xx_HAL_Driver/Src/stm32l4xx_hal_comp.c ****       {
 424:Drivers/STM32L4xx_HAL_Driver/Src/stm32l4xx_hal_comp.c ****         LL_EXTI_DisableFallingTrig_0_31(exti_line);
 741              		.loc 1 424 9
 742 015e 3869     		ldr	r0, [r7, #16]
 743 0160 FFF7FEFF 		bl	LL_EXTI_DisableFallingTrig_0_31
 744              	.L50:
 425:Drivers/STM32L4xx_HAL_Driver/Src/stm32l4xx_hal_comp.c ****       }
 426:Drivers/STM32L4xx_HAL_Driver/Src/stm32l4xx_hal_comp.c **** 
ARM GAS  /tmp/cckJv99E.s 			page 44


 427:Drivers/STM32L4xx_HAL_Driver/Src/stm32l4xx_hal_comp.c ****       /* Clear COMP EXTI pending bit (if any) */
 428:Drivers/STM32L4xx_HAL_Driver/Src/stm32l4xx_hal_comp.c ****       LL_EXTI_ClearFlag_0_31(exti_line);
 745              		.loc 1 428 7
 746 0164 3869     		ldr	r0, [r7, #16]
 747 0166 FFF7FEFF 		bl	LL_EXTI_ClearFlag_0_31
 429:Drivers/STM32L4xx_HAL_Driver/Src/stm32l4xx_hal_comp.c **** 
 430:Drivers/STM32L4xx_HAL_Driver/Src/stm32l4xx_hal_comp.c ****       /* Configure EXTI event mode */
 431:Drivers/STM32L4xx_HAL_Driver/Src/stm32l4xx_hal_comp.c ****       if ((hcomp->Init.TriggerMode & COMP_EXTI_EVENT) != 0UL)
 748              		.loc 1 431 23
 749 016a 7B68     		ldr	r3, [r7, #4]
 750 016c 1B6A     		ldr	r3, [r3, #32]
 751              		.loc 1 431 36
 752 016e 03F00203 		and	r3, r3, #2
 753              		.loc 1 431 10
 754 0172 002B     		cmp	r3, #0
 755 0174 03D0     		beq	.L51
 432:Drivers/STM32L4xx_HAL_Driver/Src/stm32l4xx_hal_comp.c ****       {
 433:Drivers/STM32L4xx_HAL_Driver/Src/stm32l4xx_hal_comp.c ****         LL_EXTI_EnableEvent_0_31(exti_line);
 756              		.loc 1 433 9
 757 0176 3869     		ldr	r0, [r7, #16]
 758 0178 FFF7FEFF 		bl	LL_EXTI_EnableEvent_0_31
 759 017c 02E0     		b	.L52
 760              	.L51:
 434:Drivers/STM32L4xx_HAL_Driver/Src/stm32l4xx_hal_comp.c ****       }
 435:Drivers/STM32L4xx_HAL_Driver/Src/stm32l4xx_hal_comp.c ****       else
 436:Drivers/STM32L4xx_HAL_Driver/Src/stm32l4xx_hal_comp.c ****       {
 437:Drivers/STM32L4xx_HAL_Driver/Src/stm32l4xx_hal_comp.c ****         LL_EXTI_DisableEvent_0_31(exti_line);
 761              		.loc 1 437 9
 762 017e 3869     		ldr	r0, [r7, #16]
 763 0180 FFF7FEFF 		bl	LL_EXTI_DisableEvent_0_31
 764              	.L52:
 438:Drivers/STM32L4xx_HAL_Driver/Src/stm32l4xx_hal_comp.c ****       }
 439:Drivers/STM32L4xx_HAL_Driver/Src/stm32l4xx_hal_comp.c **** 
 440:Drivers/STM32L4xx_HAL_Driver/Src/stm32l4xx_hal_comp.c ****       /* Configure EXTI interrupt mode */
 441:Drivers/STM32L4xx_HAL_Driver/Src/stm32l4xx_hal_comp.c ****       if ((hcomp->Init.TriggerMode & COMP_EXTI_IT) != 0UL)
 765              		.loc 1 441 23
 766 0184 7B68     		ldr	r3, [r7, #4]
 767 0186 1B6A     		ldr	r3, [r3, #32]
 768              		.loc 1 441 36
 769 0188 03F00103 		and	r3, r3, #1
 770              		.loc 1 441 10
 771 018c 002B     		cmp	r3, #0
 772 018e 03D0     		beq	.L53
 442:Drivers/STM32L4xx_HAL_Driver/Src/stm32l4xx_hal_comp.c ****       {
 443:Drivers/STM32L4xx_HAL_Driver/Src/stm32l4xx_hal_comp.c ****         LL_EXTI_EnableIT_0_31(exti_line);
 773              		.loc 1 443 9
 774 0190 3869     		ldr	r0, [r7, #16]
 775 0192 FFF7FEFF 		bl	LL_EXTI_EnableIT_0_31
 776 0196 09E0     		b	.L54
 777              	.L53:
 444:Drivers/STM32L4xx_HAL_Driver/Src/stm32l4xx_hal_comp.c ****       }
 445:Drivers/STM32L4xx_HAL_Driver/Src/stm32l4xx_hal_comp.c ****       else
 446:Drivers/STM32L4xx_HAL_Driver/Src/stm32l4xx_hal_comp.c ****       {
 447:Drivers/STM32L4xx_HAL_Driver/Src/stm32l4xx_hal_comp.c ****         LL_EXTI_DisableIT_0_31(exti_line);
 778              		.loc 1 447 9
 779 0198 3869     		ldr	r0, [r7, #16]
 780 019a FFF7FEFF 		bl	LL_EXTI_DisableIT_0_31
ARM GAS  /tmp/cckJv99E.s 			page 45


 781 019e 05E0     		b	.L54
 782              	.L46:
 448:Drivers/STM32L4xx_HAL_Driver/Src/stm32l4xx_hal_comp.c ****       }
 449:Drivers/STM32L4xx_HAL_Driver/Src/stm32l4xx_hal_comp.c ****     }
 450:Drivers/STM32L4xx_HAL_Driver/Src/stm32l4xx_hal_comp.c ****     else
 451:Drivers/STM32L4xx_HAL_Driver/Src/stm32l4xx_hal_comp.c ****     {
 452:Drivers/STM32L4xx_HAL_Driver/Src/stm32l4xx_hal_comp.c ****       /* Disable EXTI event mode */
 453:Drivers/STM32L4xx_HAL_Driver/Src/stm32l4xx_hal_comp.c ****       LL_EXTI_DisableEvent_0_31(exti_line);
 783              		.loc 1 453 7
 784 01a0 3869     		ldr	r0, [r7, #16]
 785 01a2 FFF7FEFF 		bl	LL_EXTI_DisableEvent_0_31
 454:Drivers/STM32L4xx_HAL_Driver/Src/stm32l4xx_hal_comp.c **** 
 455:Drivers/STM32L4xx_HAL_Driver/Src/stm32l4xx_hal_comp.c ****       /* Disable EXTI interrupt mode */
 456:Drivers/STM32L4xx_HAL_Driver/Src/stm32l4xx_hal_comp.c ****       LL_EXTI_DisableIT_0_31(exti_line);
 786              		.loc 1 456 7
 787 01a6 3869     		ldr	r0, [r7, #16]
 788 01a8 FFF7FEFF 		bl	LL_EXTI_DisableIT_0_31
 789              	.L54:
 457:Drivers/STM32L4xx_HAL_Driver/Src/stm32l4xx_hal_comp.c ****     }
 458:Drivers/STM32L4xx_HAL_Driver/Src/stm32l4xx_hal_comp.c **** 
 459:Drivers/STM32L4xx_HAL_Driver/Src/stm32l4xx_hal_comp.c ****     /* Set HAL COMP handle state */
 460:Drivers/STM32L4xx_HAL_Driver/Src/stm32l4xx_hal_comp.c ****     /* Note: Transition from state reset to state ready,                      */
 461:Drivers/STM32L4xx_HAL_Driver/Src/stm32l4xx_hal_comp.c ****     /*       otherwise (coming from state ready or busy) no state update.     */
 462:Drivers/STM32L4xx_HAL_Driver/Src/stm32l4xx_hal_comp.c ****     if (hcomp->State == HAL_COMP_STATE_RESET)
 790              		.loc 1 462 14
 791 01ac 7B68     		ldr	r3, [r7, #4]
 792 01ae 93F82530 		ldrb	r3, [r3, #37]
 793 01b2 DBB2     		uxtb	r3, r3
 794              		.loc 1 462 8
 795 01b4 002B     		cmp	r3, #0
 796 01b6 03D1     		bne	.L36
 463:Drivers/STM32L4xx_HAL_Driver/Src/stm32l4xx_hal_comp.c ****     {
 464:Drivers/STM32L4xx_HAL_Driver/Src/stm32l4xx_hal_comp.c ****       hcomp->State = HAL_COMP_STATE_READY;
 797              		.loc 1 464 20
 798 01b8 7B68     		ldr	r3, [r7, #4]
 799 01ba 0122     		movs	r2, #1
 800 01bc 83F82520 		strb	r2, [r3, #37]
 801              	.L36:
 465:Drivers/STM32L4xx_HAL_Driver/Src/stm32l4xx_hal_comp.c ****     }
 466:Drivers/STM32L4xx_HAL_Driver/Src/stm32l4xx_hal_comp.c ****   }
 467:Drivers/STM32L4xx_HAL_Driver/Src/stm32l4xx_hal_comp.c **** 
 468:Drivers/STM32L4xx_HAL_Driver/Src/stm32l4xx_hal_comp.c ****   return status;
 802              		.loc 1 468 10
 803 01c0 FB7F     		ldrb	r3, [r7, #31]	@ zero_extendqisi2
 469:Drivers/STM32L4xx_HAL_Driver/Src/stm32l4xx_hal_comp.c **** }
 804              		.loc 1 469 1
 805 01c2 1846     		mov	r0, r3
 806 01c4 2037     		adds	r7, r7, #32
 807              		.cfi_def_cfa_offset 8
 808 01c6 BD46     		mov	sp, r7
 809              		.cfi_def_cfa_register 13
 810              		@ sp needed
 811 01c8 80BD     		pop	{r7, pc}
 812              	.L57:
 813 01ca 00BF     		.align	2
 814              	.L56:
 815 01cc 00100240 		.word	1073876992
ARM GAS  /tmp/cckJv99E.s 			page 46


 816 01d0 037D20FF 		.word	-14648061
 817 01d4 04020140 		.word	1073807876
 818 01d8 00000000 		.word	SystemCoreClock
 819 01dc 632D3E05 		.word	87960931
 820 01e0 00020140 		.word	1073807872
 821              		.cfi_endproc
 822              	.LFE445:
 824              		.section	.text.HAL_COMP_DeInit,"ax",%progbits
 825              		.align	1
 826              		.global	HAL_COMP_DeInit
 827              		.syntax unified
 828              		.thumb
 829              		.thumb_func
 831              	HAL_COMP_DeInit:
 832              	.LFB446:
 470:Drivers/STM32L4xx_HAL_Driver/Src/stm32l4xx_hal_comp.c **** 
 471:Drivers/STM32L4xx_HAL_Driver/Src/stm32l4xx_hal_comp.c **** /**
 472:Drivers/STM32L4xx_HAL_Driver/Src/stm32l4xx_hal_comp.c ****   * @brief  DeInitialize the COMP peripheral.
 473:Drivers/STM32L4xx_HAL_Driver/Src/stm32l4xx_hal_comp.c ****   * @note   Deinitialization cannot be performed if the COMP configuration is locked.
 474:Drivers/STM32L4xx_HAL_Driver/Src/stm32l4xx_hal_comp.c ****   *         To unlock the configuration, perform a system reset.
 475:Drivers/STM32L4xx_HAL_Driver/Src/stm32l4xx_hal_comp.c ****   * @param  hcomp  COMP handle
 476:Drivers/STM32L4xx_HAL_Driver/Src/stm32l4xx_hal_comp.c ****   * @retval HAL status
 477:Drivers/STM32L4xx_HAL_Driver/Src/stm32l4xx_hal_comp.c ****   */
 478:Drivers/STM32L4xx_HAL_Driver/Src/stm32l4xx_hal_comp.c **** HAL_StatusTypeDef HAL_COMP_DeInit(COMP_HandleTypeDef *hcomp)
 479:Drivers/STM32L4xx_HAL_Driver/Src/stm32l4xx_hal_comp.c **** {
 833              		.loc 1 479 1
 834              		.cfi_startproc
 835              		@ args = 0, pretend = 0, frame = 16
 836              		@ frame_needed = 1, uses_anonymous_args = 0
 837 0000 80B5     		push	{r7, lr}
 838              		.cfi_def_cfa_offset 8
 839              		.cfi_offset 7, -8
 840              		.cfi_offset 14, -4
 841 0002 84B0     		sub	sp, sp, #16
 842              		.cfi_def_cfa_offset 24
 843 0004 00AF     		add	r7, sp, #0
 844              		.cfi_def_cfa_register 7
 845 0006 7860     		str	r0, [r7, #4]
 480:Drivers/STM32L4xx_HAL_Driver/Src/stm32l4xx_hal_comp.c ****   HAL_StatusTypeDef status = HAL_OK;
 846              		.loc 1 480 21
 847 0008 0023     		movs	r3, #0
 848 000a FB73     		strb	r3, [r7, #15]
 481:Drivers/STM32L4xx_HAL_Driver/Src/stm32l4xx_hal_comp.c **** 
 482:Drivers/STM32L4xx_HAL_Driver/Src/stm32l4xx_hal_comp.c ****   /* Check the COMP handle allocation and lock status */
 483:Drivers/STM32L4xx_HAL_Driver/Src/stm32l4xx_hal_comp.c ****   if (hcomp == NULL)
 849              		.loc 1 483 6
 850 000c 7B68     		ldr	r3, [r7, #4]
 851 000e 002B     		cmp	r3, #0
 852 0010 02D1     		bne	.L59
 484:Drivers/STM32L4xx_HAL_Driver/Src/stm32l4xx_hal_comp.c ****   {
 485:Drivers/STM32L4xx_HAL_Driver/Src/stm32l4xx_hal_comp.c ****     status = HAL_ERROR;
 853              		.loc 1 485 12
 854 0012 0123     		movs	r3, #1
 855 0014 FB73     		strb	r3, [r7, #15]
 856 0016 19E0     		b	.L60
 857              	.L59:
 486:Drivers/STM32L4xx_HAL_Driver/Src/stm32l4xx_hal_comp.c ****   }
ARM GAS  /tmp/cckJv99E.s 			page 47


 487:Drivers/STM32L4xx_HAL_Driver/Src/stm32l4xx_hal_comp.c ****   else if (__HAL_COMP_IS_LOCKED(hcomp))
 858              		.loc 1 487 12
 859 0018 7B68     		ldr	r3, [r7, #4]
 860 001a 1B68     		ldr	r3, [r3]
 861 001c 1B68     		ldr	r3, [r3]
 862 001e 03F00043 		and	r3, r3, #-2147483648
 863              		.loc 1 487 11
 864 0022 B3F1004F 		cmp	r3, #-2147483648
 865 0026 02D1     		bne	.L61
 488:Drivers/STM32L4xx_HAL_Driver/Src/stm32l4xx_hal_comp.c ****   {
 489:Drivers/STM32L4xx_HAL_Driver/Src/stm32l4xx_hal_comp.c ****     status = HAL_ERROR;
 866              		.loc 1 489 12
 867 0028 0123     		movs	r3, #1
 868 002a FB73     		strb	r3, [r7, #15]
 869 002c 0EE0     		b	.L60
 870              	.L61:
 490:Drivers/STM32L4xx_HAL_Driver/Src/stm32l4xx_hal_comp.c ****   }
 491:Drivers/STM32L4xx_HAL_Driver/Src/stm32l4xx_hal_comp.c ****   else
 492:Drivers/STM32L4xx_HAL_Driver/Src/stm32l4xx_hal_comp.c ****   {
 493:Drivers/STM32L4xx_HAL_Driver/Src/stm32l4xx_hal_comp.c ****     /* Check the parameter */
 494:Drivers/STM32L4xx_HAL_Driver/Src/stm32l4xx_hal_comp.c ****     assert_param(IS_COMP_ALL_INSTANCE(hcomp->Instance));
 495:Drivers/STM32L4xx_HAL_Driver/Src/stm32l4xx_hal_comp.c **** 
 496:Drivers/STM32L4xx_HAL_Driver/Src/stm32l4xx_hal_comp.c ****     /* Set COMP_CSR register to reset value */
 497:Drivers/STM32L4xx_HAL_Driver/Src/stm32l4xx_hal_comp.c ****     WRITE_REG(hcomp->Instance->CSR, 0x00000000UL);
 871              		.loc 1 497 5
 872 002e 7B68     		ldr	r3, [r7, #4]
 873 0030 1B68     		ldr	r3, [r3]
 874 0032 0022     		movs	r2, #0
 875 0034 1A60     		str	r2, [r3]
 498:Drivers/STM32L4xx_HAL_Driver/Src/stm32l4xx_hal_comp.c **** 
 499:Drivers/STM32L4xx_HAL_Driver/Src/stm32l4xx_hal_comp.c **** #if (USE_HAL_COMP_REGISTER_CALLBACKS == 1)
 500:Drivers/STM32L4xx_HAL_Driver/Src/stm32l4xx_hal_comp.c ****     if (hcomp->MspDeInitCallback == NULL)
 501:Drivers/STM32L4xx_HAL_Driver/Src/stm32l4xx_hal_comp.c ****     {
 502:Drivers/STM32L4xx_HAL_Driver/Src/stm32l4xx_hal_comp.c ****       hcomp->MspDeInitCallback = HAL_COMP_MspDeInit; /* Legacy weak MspDeInit  */
 503:Drivers/STM32L4xx_HAL_Driver/Src/stm32l4xx_hal_comp.c ****     }
 504:Drivers/STM32L4xx_HAL_Driver/Src/stm32l4xx_hal_comp.c **** 
 505:Drivers/STM32L4xx_HAL_Driver/Src/stm32l4xx_hal_comp.c ****     /* DeInit the low level hardware: GPIO, RCC clock, NVIC */
 506:Drivers/STM32L4xx_HAL_Driver/Src/stm32l4xx_hal_comp.c ****     hcomp->MspDeInitCallback(hcomp);
 507:Drivers/STM32L4xx_HAL_Driver/Src/stm32l4xx_hal_comp.c **** #else
 508:Drivers/STM32L4xx_HAL_Driver/Src/stm32l4xx_hal_comp.c ****     /* DeInit the low level hardware: GPIO, RCC clock, NVIC */
 509:Drivers/STM32L4xx_HAL_Driver/Src/stm32l4xx_hal_comp.c ****     HAL_COMP_MspDeInit(hcomp);
 876              		.loc 1 509 5
 877 0036 7868     		ldr	r0, [r7, #4]
 878 0038 FFF7FEFF 		bl	HAL_COMP_MspDeInit
 510:Drivers/STM32L4xx_HAL_Driver/Src/stm32l4xx_hal_comp.c **** #endif /* USE_HAL_COMP_REGISTER_CALLBACKS */
 511:Drivers/STM32L4xx_HAL_Driver/Src/stm32l4xx_hal_comp.c **** 
 512:Drivers/STM32L4xx_HAL_Driver/Src/stm32l4xx_hal_comp.c ****     /* Set HAL COMP handle state */
 513:Drivers/STM32L4xx_HAL_Driver/Src/stm32l4xx_hal_comp.c ****     hcomp->State = HAL_COMP_STATE_RESET;
 879              		.loc 1 513 18
 880 003c 7B68     		ldr	r3, [r7, #4]
 881 003e 0022     		movs	r2, #0
 882 0040 83F82520 		strb	r2, [r3, #37]
 514:Drivers/STM32L4xx_HAL_Driver/Src/stm32l4xx_hal_comp.c **** 
 515:Drivers/STM32L4xx_HAL_Driver/Src/stm32l4xx_hal_comp.c ****     /* Release Lock */
 516:Drivers/STM32L4xx_HAL_Driver/Src/stm32l4xx_hal_comp.c ****     __HAL_UNLOCK(hcomp);
 883              		.loc 1 516 5
 884 0044 7B68     		ldr	r3, [r7, #4]
ARM GAS  /tmp/cckJv99E.s 			page 48


 885 0046 0022     		movs	r2, #0
 886 0048 83F82420 		strb	r2, [r3, #36]
 887              	.L60:
 517:Drivers/STM32L4xx_HAL_Driver/Src/stm32l4xx_hal_comp.c ****   }
 518:Drivers/STM32L4xx_HAL_Driver/Src/stm32l4xx_hal_comp.c **** 
 519:Drivers/STM32L4xx_HAL_Driver/Src/stm32l4xx_hal_comp.c ****   return status;
 888              		.loc 1 519 10
 889 004c FB7B     		ldrb	r3, [r7, #15]	@ zero_extendqisi2
 520:Drivers/STM32L4xx_HAL_Driver/Src/stm32l4xx_hal_comp.c **** }
 890              		.loc 1 520 1
 891 004e 1846     		mov	r0, r3
 892 0050 1037     		adds	r7, r7, #16
 893              		.cfi_def_cfa_offset 8
 894 0052 BD46     		mov	sp, r7
 895              		.cfi_def_cfa_register 13
 896              		@ sp needed
 897 0054 80BD     		pop	{r7, pc}
 898              		.cfi_endproc
 899              	.LFE446:
 901              		.section	.text.HAL_COMP_MspInit,"ax",%progbits
 902              		.align	1
 903              		.weak	HAL_COMP_MspInit
 904              		.syntax unified
 905              		.thumb
 906              		.thumb_func
 908              	HAL_COMP_MspInit:
 909              	.LFB447:
 521:Drivers/STM32L4xx_HAL_Driver/Src/stm32l4xx_hal_comp.c **** 
 522:Drivers/STM32L4xx_HAL_Driver/Src/stm32l4xx_hal_comp.c **** /**
 523:Drivers/STM32L4xx_HAL_Driver/Src/stm32l4xx_hal_comp.c ****   * @brief  Initialize the COMP MSP.
 524:Drivers/STM32L4xx_HAL_Driver/Src/stm32l4xx_hal_comp.c ****   * @param  hcomp  COMP handle
 525:Drivers/STM32L4xx_HAL_Driver/Src/stm32l4xx_hal_comp.c ****   * @retval None
 526:Drivers/STM32L4xx_HAL_Driver/Src/stm32l4xx_hal_comp.c ****   */
 527:Drivers/STM32L4xx_HAL_Driver/Src/stm32l4xx_hal_comp.c **** __weak void HAL_COMP_MspInit(COMP_HandleTypeDef *hcomp)
 528:Drivers/STM32L4xx_HAL_Driver/Src/stm32l4xx_hal_comp.c **** {
 910              		.loc 1 528 1
 911              		.cfi_startproc
 912              		@ args = 0, pretend = 0, frame = 8
 913              		@ frame_needed = 1, uses_anonymous_args = 0
 914              		@ link register save eliminated.
 915 0000 80B4     		push	{r7}
 916              		.cfi_def_cfa_offset 4
 917              		.cfi_offset 7, -4
 918 0002 83B0     		sub	sp, sp, #12
 919              		.cfi_def_cfa_offset 16
 920 0004 00AF     		add	r7, sp, #0
 921              		.cfi_def_cfa_register 7
 922 0006 7860     		str	r0, [r7, #4]
 529:Drivers/STM32L4xx_HAL_Driver/Src/stm32l4xx_hal_comp.c ****   /* Prevent unused argument(s) compilation warning */
 530:Drivers/STM32L4xx_HAL_Driver/Src/stm32l4xx_hal_comp.c ****   UNUSED(hcomp);
 531:Drivers/STM32L4xx_HAL_Driver/Src/stm32l4xx_hal_comp.c **** 
 532:Drivers/STM32L4xx_HAL_Driver/Src/stm32l4xx_hal_comp.c ****   /* NOTE : This function should not be modified, when the callback is needed,
 533:Drivers/STM32L4xx_HAL_Driver/Src/stm32l4xx_hal_comp.c ****             the HAL_COMP_MspInit could be implemented in the user file
 534:Drivers/STM32L4xx_HAL_Driver/Src/stm32l4xx_hal_comp.c ****    */
 535:Drivers/STM32L4xx_HAL_Driver/Src/stm32l4xx_hal_comp.c **** }
 923              		.loc 1 535 1
 924 0008 00BF     		nop
ARM GAS  /tmp/cckJv99E.s 			page 49


 925 000a 0C37     		adds	r7, r7, #12
 926              		.cfi_def_cfa_offset 4
 927 000c BD46     		mov	sp, r7
 928              		.cfi_def_cfa_register 13
 929              		@ sp needed
 930 000e 5DF8047B 		ldr	r7, [sp], #4
 931              		.cfi_restore 7
 932              		.cfi_def_cfa_offset 0
 933 0012 7047     		bx	lr
 934              		.cfi_endproc
 935              	.LFE447:
 937              		.section	.text.HAL_COMP_MspDeInit,"ax",%progbits
 938              		.align	1
 939              		.weak	HAL_COMP_MspDeInit
 940              		.syntax unified
 941              		.thumb
 942              		.thumb_func
 944              	HAL_COMP_MspDeInit:
 945              	.LFB448:
 536:Drivers/STM32L4xx_HAL_Driver/Src/stm32l4xx_hal_comp.c **** 
 537:Drivers/STM32L4xx_HAL_Driver/Src/stm32l4xx_hal_comp.c **** /**
 538:Drivers/STM32L4xx_HAL_Driver/Src/stm32l4xx_hal_comp.c ****   * @brief  DeInitialize the COMP MSP.
 539:Drivers/STM32L4xx_HAL_Driver/Src/stm32l4xx_hal_comp.c ****   * @param  hcomp  COMP handle
 540:Drivers/STM32L4xx_HAL_Driver/Src/stm32l4xx_hal_comp.c ****   * @retval None
 541:Drivers/STM32L4xx_HAL_Driver/Src/stm32l4xx_hal_comp.c ****   */
 542:Drivers/STM32L4xx_HAL_Driver/Src/stm32l4xx_hal_comp.c **** __weak void HAL_COMP_MspDeInit(COMP_HandleTypeDef *hcomp)
 543:Drivers/STM32L4xx_HAL_Driver/Src/stm32l4xx_hal_comp.c **** {
 946              		.loc 1 543 1
 947              		.cfi_startproc
 948              		@ args = 0, pretend = 0, frame = 8
 949              		@ frame_needed = 1, uses_anonymous_args = 0
 950              		@ link register save eliminated.
 951 0000 80B4     		push	{r7}
 952              		.cfi_def_cfa_offset 4
 953              		.cfi_offset 7, -4
 954 0002 83B0     		sub	sp, sp, #12
 955              		.cfi_def_cfa_offset 16
 956 0004 00AF     		add	r7, sp, #0
 957              		.cfi_def_cfa_register 7
 958 0006 7860     		str	r0, [r7, #4]
 544:Drivers/STM32L4xx_HAL_Driver/Src/stm32l4xx_hal_comp.c ****   /* Prevent unused argument(s) compilation warning */
 545:Drivers/STM32L4xx_HAL_Driver/Src/stm32l4xx_hal_comp.c ****   UNUSED(hcomp);
 546:Drivers/STM32L4xx_HAL_Driver/Src/stm32l4xx_hal_comp.c **** 
 547:Drivers/STM32L4xx_HAL_Driver/Src/stm32l4xx_hal_comp.c ****   /* NOTE : This function should not be modified, when the callback is needed,
 548:Drivers/STM32L4xx_HAL_Driver/Src/stm32l4xx_hal_comp.c ****             the HAL_COMP_MspDeInit could be implemented in the user file
 549:Drivers/STM32L4xx_HAL_Driver/Src/stm32l4xx_hal_comp.c ****    */
 550:Drivers/STM32L4xx_HAL_Driver/Src/stm32l4xx_hal_comp.c **** }
 959              		.loc 1 550 1
 960 0008 00BF     		nop
 961 000a 0C37     		adds	r7, r7, #12
 962              		.cfi_def_cfa_offset 4
 963 000c BD46     		mov	sp, r7
 964              		.cfi_def_cfa_register 13
 965              		@ sp needed
 966 000e 5DF8047B 		ldr	r7, [sp], #4
 967              		.cfi_restore 7
 968              		.cfi_def_cfa_offset 0
ARM GAS  /tmp/cckJv99E.s 			page 50


 969 0012 7047     		bx	lr
 970              		.cfi_endproc
 971              	.LFE448:
 973              		.section	.text.HAL_COMP_Start,"ax",%progbits
 974              		.align	1
 975              		.global	HAL_COMP_Start
 976              		.syntax unified
 977              		.thumb
 978              		.thumb_func
 980              	HAL_COMP_Start:
 981              	.LFB449:
 551:Drivers/STM32L4xx_HAL_Driver/Src/stm32l4xx_hal_comp.c **** 
 552:Drivers/STM32L4xx_HAL_Driver/Src/stm32l4xx_hal_comp.c **** #if (USE_HAL_COMP_REGISTER_CALLBACKS == 1)
 553:Drivers/STM32L4xx_HAL_Driver/Src/stm32l4xx_hal_comp.c **** /**
 554:Drivers/STM32L4xx_HAL_Driver/Src/stm32l4xx_hal_comp.c ****   * @brief  Register a User COMP Callback
 555:Drivers/STM32L4xx_HAL_Driver/Src/stm32l4xx_hal_comp.c ****   *         To be used instead of the weak predefined callback
 556:Drivers/STM32L4xx_HAL_Driver/Src/stm32l4xx_hal_comp.c ****   * @param  hcomp Pointer to a COMP_HandleTypeDef structure that contains
 557:Drivers/STM32L4xx_HAL_Driver/Src/stm32l4xx_hal_comp.c ****   *                the configuration information for the specified COMP.
 558:Drivers/STM32L4xx_HAL_Driver/Src/stm32l4xx_hal_comp.c ****   * @param  CallbackID ID of the callback to be registered
 559:Drivers/STM32L4xx_HAL_Driver/Src/stm32l4xx_hal_comp.c ****   *         This parameter can be one of the following values:
 560:Drivers/STM32L4xx_HAL_Driver/Src/stm32l4xx_hal_comp.c ****   *          @arg @ref HAL_COMP_TRIGGER_CB_ID Trigger callback ID
 561:Drivers/STM32L4xx_HAL_Driver/Src/stm32l4xx_hal_comp.c ****   *          @arg @ref HAL_COMP_MSPINIT_CB_ID MspInit callback ID
 562:Drivers/STM32L4xx_HAL_Driver/Src/stm32l4xx_hal_comp.c ****   *          @arg @ref HAL_COMP_MSPDEINIT_CB_ID MspDeInit callback ID
 563:Drivers/STM32L4xx_HAL_Driver/Src/stm32l4xx_hal_comp.c ****   * @param  pCallback pointer to the Callback function
 564:Drivers/STM32L4xx_HAL_Driver/Src/stm32l4xx_hal_comp.c ****   * @retval HAL status
 565:Drivers/STM32L4xx_HAL_Driver/Src/stm32l4xx_hal_comp.c ****   */
 566:Drivers/STM32L4xx_HAL_Driver/Src/stm32l4xx_hal_comp.c **** HAL_StatusTypeDef HAL_COMP_RegisterCallback(COMP_HandleTypeDef *hcomp, HAL_COMP_CallbackIDTypeDef C
 567:Drivers/STM32L4xx_HAL_Driver/Src/stm32l4xx_hal_comp.c ****                                             pCOMP_CallbackTypeDef pCallback)
 568:Drivers/STM32L4xx_HAL_Driver/Src/stm32l4xx_hal_comp.c **** {
 569:Drivers/STM32L4xx_HAL_Driver/Src/stm32l4xx_hal_comp.c ****   HAL_StatusTypeDef status = HAL_OK;
 570:Drivers/STM32L4xx_HAL_Driver/Src/stm32l4xx_hal_comp.c **** 
 571:Drivers/STM32L4xx_HAL_Driver/Src/stm32l4xx_hal_comp.c ****   if (pCallback == NULL)
 572:Drivers/STM32L4xx_HAL_Driver/Src/stm32l4xx_hal_comp.c ****   {
 573:Drivers/STM32L4xx_HAL_Driver/Src/stm32l4xx_hal_comp.c ****     /* Update the error code */
 574:Drivers/STM32L4xx_HAL_Driver/Src/stm32l4xx_hal_comp.c ****     hcomp->ErrorCode |= HAL_COMP_ERROR_INVALID_CALLBACK;
 575:Drivers/STM32L4xx_HAL_Driver/Src/stm32l4xx_hal_comp.c **** 
 576:Drivers/STM32L4xx_HAL_Driver/Src/stm32l4xx_hal_comp.c ****     return HAL_ERROR;
 577:Drivers/STM32L4xx_HAL_Driver/Src/stm32l4xx_hal_comp.c ****   }
 578:Drivers/STM32L4xx_HAL_Driver/Src/stm32l4xx_hal_comp.c **** 
 579:Drivers/STM32L4xx_HAL_Driver/Src/stm32l4xx_hal_comp.c ****   if (HAL_COMP_STATE_READY == hcomp->State)
 580:Drivers/STM32L4xx_HAL_Driver/Src/stm32l4xx_hal_comp.c ****   {
 581:Drivers/STM32L4xx_HAL_Driver/Src/stm32l4xx_hal_comp.c ****     switch (CallbackID)
 582:Drivers/STM32L4xx_HAL_Driver/Src/stm32l4xx_hal_comp.c ****     {
 583:Drivers/STM32L4xx_HAL_Driver/Src/stm32l4xx_hal_comp.c ****       case HAL_COMP_TRIGGER_CB_ID :
 584:Drivers/STM32L4xx_HAL_Driver/Src/stm32l4xx_hal_comp.c ****         hcomp->TriggerCallback = pCallback;
 585:Drivers/STM32L4xx_HAL_Driver/Src/stm32l4xx_hal_comp.c ****         break;
 586:Drivers/STM32L4xx_HAL_Driver/Src/stm32l4xx_hal_comp.c **** 
 587:Drivers/STM32L4xx_HAL_Driver/Src/stm32l4xx_hal_comp.c ****       case HAL_COMP_MSPINIT_CB_ID :
 588:Drivers/STM32L4xx_HAL_Driver/Src/stm32l4xx_hal_comp.c ****         hcomp->MspInitCallback = pCallback;
 589:Drivers/STM32L4xx_HAL_Driver/Src/stm32l4xx_hal_comp.c ****         break;
 590:Drivers/STM32L4xx_HAL_Driver/Src/stm32l4xx_hal_comp.c **** 
 591:Drivers/STM32L4xx_HAL_Driver/Src/stm32l4xx_hal_comp.c ****       case HAL_COMP_MSPDEINIT_CB_ID :
 592:Drivers/STM32L4xx_HAL_Driver/Src/stm32l4xx_hal_comp.c ****         hcomp->MspDeInitCallback = pCallback;
 593:Drivers/STM32L4xx_HAL_Driver/Src/stm32l4xx_hal_comp.c ****         break;
 594:Drivers/STM32L4xx_HAL_Driver/Src/stm32l4xx_hal_comp.c **** 
 595:Drivers/STM32L4xx_HAL_Driver/Src/stm32l4xx_hal_comp.c ****       default :
 596:Drivers/STM32L4xx_HAL_Driver/Src/stm32l4xx_hal_comp.c ****         /* Update the error code */
ARM GAS  /tmp/cckJv99E.s 			page 51


 597:Drivers/STM32L4xx_HAL_Driver/Src/stm32l4xx_hal_comp.c ****         hcomp->ErrorCode |= HAL_COMP_ERROR_INVALID_CALLBACK;
 598:Drivers/STM32L4xx_HAL_Driver/Src/stm32l4xx_hal_comp.c **** 
 599:Drivers/STM32L4xx_HAL_Driver/Src/stm32l4xx_hal_comp.c ****         /* Return error status */
 600:Drivers/STM32L4xx_HAL_Driver/Src/stm32l4xx_hal_comp.c ****         status = HAL_ERROR;
 601:Drivers/STM32L4xx_HAL_Driver/Src/stm32l4xx_hal_comp.c ****         break;
 602:Drivers/STM32L4xx_HAL_Driver/Src/stm32l4xx_hal_comp.c ****     }
 603:Drivers/STM32L4xx_HAL_Driver/Src/stm32l4xx_hal_comp.c ****   }
 604:Drivers/STM32L4xx_HAL_Driver/Src/stm32l4xx_hal_comp.c ****   else if (HAL_COMP_STATE_RESET == hcomp->State)
 605:Drivers/STM32L4xx_HAL_Driver/Src/stm32l4xx_hal_comp.c ****   {
 606:Drivers/STM32L4xx_HAL_Driver/Src/stm32l4xx_hal_comp.c ****     switch (CallbackID)
 607:Drivers/STM32L4xx_HAL_Driver/Src/stm32l4xx_hal_comp.c ****     {
 608:Drivers/STM32L4xx_HAL_Driver/Src/stm32l4xx_hal_comp.c ****       case HAL_COMP_MSPINIT_CB_ID :
 609:Drivers/STM32L4xx_HAL_Driver/Src/stm32l4xx_hal_comp.c ****         hcomp->MspInitCallback = pCallback;
 610:Drivers/STM32L4xx_HAL_Driver/Src/stm32l4xx_hal_comp.c ****         break;
 611:Drivers/STM32L4xx_HAL_Driver/Src/stm32l4xx_hal_comp.c **** 
 612:Drivers/STM32L4xx_HAL_Driver/Src/stm32l4xx_hal_comp.c ****       case HAL_COMP_MSPDEINIT_CB_ID :
 613:Drivers/STM32L4xx_HAL_Driver/Src/stm32l4xx_hal_comp.c ****         hcomp->MspDeInitCallback = pCallback;
 614:Drivers/STM32L4xx_HAL_Driver/Src/stm32l4xx_hal_comp.c ****         break;
 615:Drivers/STM32L4xx_HAL_Driver/Src/stm32l4xx_hal_comp.c **** 
 616:Drivers/STM32L4xx_HAL_Driver/Src/stm32l4xx_hal_comp.c ****       default :
 617:Drivers/STM32L4xx_HAL_Driver/Src/stm32l4xx_hal_comp.c ****         /* Update the error code */
 618:Drivers/STM32L4xx_HAL_Driver/Src/stm32l4xx_hal_comp.c ****         hcomp->ErrorCode |= HAL_COMP_ERROR_INVALID_CALLBACK;
 619:Drivers/STM32L4xx_HAL_Driver/Src/stm32l4xx_hal_comp.c **** 
 620:Drivers/STM32L4xx_HAL_Driver/Src/stm32l4xx_hal_comp.c ****         /* Return error status */
 621:Drivers/STM32L4xx_HAL_Driver/Src/stm32l4xx_hal_comp.c ****         status = HAL_ERROR;
 622:Drivers/STM32L4xx_HAL_Driver/Src/stm32l4xx_hal_comp.c ****         break;
 623:Drivers/STM32L4xx_HAL_Driver/Src/stm32l4xx_hal_comp.c ****     }
 624:Drivers/STM32L4xx_HAL_Driver/Src/stm32l4xx_hal_comp.c ****   }
 625:Drivers/STM32L4xx_HAL_Driver/Src/stm32l4xx_hal_comp.c ****   else
 626:Drivers/STM32L4xx_HAL_Driver/Src/stm32l4xx_hal_comp.c ****   {
 627:Drivers/STM32L4xx_HAL_Driver/Src/stm32l4xx_hal_comp.c ****     /* Update the error code */
 628:Drivers/STM32L4xx_HAL_Driver/Src/stm32l4xx_hal_comp.c ****     hcomp->ErrorCode |= HAL_COMP_ERROR_INVALID_CALLBACK;
 629:Drivers/STM32L4xx_HAL_Driver/Src/stm32l4xx_hal_comp.c **** 
 630:Drivers/STM32L4xx_HAL_Driver/Src/stm32l4xx_hal_comp.c ****     /* Return error status */
 631:Drivers/STM32L4xx_HAL_Driver/Src/stm32l4xx_hal_comp.c ****     status =  HAL_ERROR;
 632:Drivers/STM32L4xx_HAL_Driver/Src/stm32l4xx_hal_comp.c ****   }
 633:Drivers/STM32L4xx_HAL_Driver/Src/stm32l4xx_hal_comp.c **** 
 634:Drivers/STM32L4xx_HAL_Driver/Src/stm32l4xx_hal_comp.c ****   return status;
 635:Drivers/STM32L4xx_HAL_Driver/Src/stm32l4xx_hal_comp.c **** }
 636:Drivers/STM32L4xx_HAL_Driver/Src/stm32l4xx_hal_comp.c **** 
 637:Drivers/STM32L4xx_HAL_Driver/Src/stm32l4xx_hal_comp.c **** /**
 638:Drivers/STM32L4xx_HAL_Driver/Src/stm32l4xx_hal_comp.c ****   * @brief  Unregister a COMP Callback
 639:Drivers/STM32L4xx_HAL_Driver/Src/stm32l4xx_hal_comp.c ****   *         COMP callback is redirected to the weak predefined callback
 640:Drivers/STM32L4xx_HAL_Driver/Src/stm32l4xx_hal_comp.c ****   * @param  hcomp Pointer to a COMP_HandleTypeDef structure that contains
 641:Drivers/STM32L4xx_HAL_Driver/Src/stm32l4xx_hal_comp.c ****   *                the configuration information for the specified COMP.
 642:Drivers/STM32L4xx_HAL_Driver/Src/stm32l4xx_hal_comp.c ****   * @param  CallbackID ID of the callback to be unregistered
 643:Drivers/STM32L4xx_HAL_Driver/Src/stm32l4xx_hal_comp.c ****   *         This parameter can be one of the following values:
 644:Drivers/STM32L4xx_HAL_Driver/Src/stm32l4xx_hal_comp.c ****   *          @arg @ref HAL_COMP_TRIGGER_CB_ID Trigger callback ID
 645:Drivers/STM32L4xx_HAL_Driver/Src/stm32l4xx_hal_comp.c ****   *          @arg @ref HAL_COMP_MSPINIT_CB_ID MspInit callback ID
 646:Drivers/STM32L4xx_HAL_Driver/Src/stm32l4xx_hal_comp.c ****   *          @arg @ref HAL_COMP_MSPDEINIT_CB_ID MspDeInit callback ID
 647:Drivers/STM32L4xx_HAL_Driver/Src/stm32l4xx_hal_comp.c ****   * @retval HAL status
 648:Drivers/STM32L4xx_HAL_Driver/Src/stm32l4xx_hal_comp.c ****   */
 649:Drivers/STM32L4xx_HAL_Driver/Src/stm32l4xx_hal_comp.c **** HAL_StatusTypeDef HAL_COMP_UnRegisterCallback(COMP_HandleTypeDef *hcomp, HAL_COMP_CallbackIDTypeDef
 650:Drivers/STM32L4xx_HAL_Driver/Src/stm32l4xx_hal_comp.c **** {
 651:Drivers/STM32L4xx_HAL_Driver/Src/stm32l4xx_hal_comp.c ****   HAL_StatusTypeDef status = HAL_OK;
 652:Drivers/STM32L4xx_HAL_Driver/Src/stm32l4xx_hal_comp.c **** 
 653:Drivers/STM32L4xx_HAL_Driver/Src/stm32l4xx_hal_comp.c ****   if (HAL_COMP_STATE_READY == hcomp->State)
ARM GAS  /tmp/cckJv99E.s 			page 52


 654:Drivers/STM32L4xx_HAL_Driver/Src/stm32l4xx_hal_comp.c ****   {
 655:Drivers/STM32L4xx_HAL_Driver/Src/stm32l4xx_hal_comp.c ****     switch (CallbackID)
 656:Drivers/STM32L4xx_HAL_Driver/Src/stm32l4xx_hal_comp.c ****     {
 657:Drivers/STM32L4xx_HAL_Driver/Src/stm32l4xx_hal_comp.c ****       case HAL_COMP_TRIGGER_CB_ID :
 658:Drivers/STM32L4xx_HAL_Driver/Src/stm32l4xx_hal_comp.c ****         hcomp->TriggerCallback = HAL_COMP_TriggerCallback;         /* Legacy weak callback */
 659:Drivers/STM32L4xx_HAL_Driver/Src/stm32l4xx_hal_comp.c ****         break;
 660:Drivers/STM32L4xx_HAL_Driver/Src/stm32l4xx_hal_comp.c **** 
 661:Drivers/STM32L4xx_HAL_Driver/Src/stm32l4xx_hal_comp.c ****       case HAL_COMP_MSPINIT_CB_ID :
 662:Drivers/STM32L4xx_HAL_Driver/Src/stm32l4xx_hal_comp.c ****         hcomp->MspInitCallback = HAL_COMP_MspInit;                 /* Legacy weak MspInit */
 663:Drivers/STM32L4xx_HAL_Driver/Src/stm32l4xx_hal_comp.c ****         break;
 664:Drivers/STM32L4xx_HAL_Driver/Src/stm32l4xx_hal_comp.c **** 
 665:Drivers/STM32L4xx_HAL_Driver/Src/stm32l4xx_hal_comp.c ****       case HAL_COMP_MSPDEINIT_CB_ID :
 666:Drivers/STM32L4xx_HAL_Driver/Src/stm32l4xx_hal_comp.c ****         hcomp->MspDeInitCallback = HAL_COMP_MspDeInit;             /* Legacy weak MspDeInit */
 667:Drivers/STM32L4xx_HAL_Driver/Src/stm32l4xx_hal_comp.c ****         break;
 668:Drivers/STM32L4xx_HAL_Driver/Src/stm32l4xx_hal_comp.c **** 
 669:Drivers/STM32L4xx_HAL_Driver/Src/stm32l4xx_hal_comp.c ****       default :
 670:Drivers/STM32L4xx_HAL_Driver/Src/stm32l4xx_hal_comp.c ****         /* Update the error code */
 671:Drivers/STM32L4xx_HAL_Driver/Src/stm32l4xx_hal_comp.c ****         hcomp->ErrorCode |= HAL_COMP_ERROR_INVALID_CALLBACK;
 672:Drivers/STM32L4xx_HAL_Driver/Src/stm32l4xx_hal_comp.c **** 
 673:Drivers/STM32L4xx_HAL_Driver/Src/stm32l4xx_hal_comp.c ****         /* Return error status */
 674:Drivers/STM32L4xx_HAL_Driver/Src/stm32l4xx_hal_comp.c ****         status =  HAL_ERROR;
 675:Drivers/STM32L4xx_HAL_Driver/Src/stm32l4xx_hal_comp.c ****         break;
 676:Drivers/STM32L4xx_HAL_Driver/Src/stm32l4xx_hal_comp.c ****     }
 677:Drivers/STM32L4xx_HAL_Driver/Src/stm32l4xx_hal_comp.c ****   }
 678:Drivers/STM32L4xx_HAL_Driver/Src/stm32l4xx_hal_comp.c ****   else if (HAL_COMP_STATE_RESET == hcomp->State)
 679:Drivers/STM32L4xx_HAL_Driver/Src/stm32l4xx_hal_comp.c ****   {
 680:Drivers/STM32L4xx_HAL_Driver/Src/stm32l4xx_hal_comp.c ****     switch (CallbackID)
 681:Drivers/STM32L4xx_HAL_Driver/Src/stm32l4xx_hal_comp.c ****     {
 682:Drivers/STM32L4xx_HAL_Driver/Src/stm32l4xx_hal_comp.c ****       case HAL_COMP_MSPINIT_CB_ID :
 683:Drivers/STM32L4xx_HAL_Driver/Src/stm32l4xx_hal_comp.c ****         hcomp->MspInitCallback = HAL_COMP_MspInit;                 /* Legacy weak MspInit */
 684:Drivers/STM32L4xx_HAL_Driver/Src/stm32l4xx_hal_comp.c ****         break;
 685:Drivers/STM32L4xx_HAL_Driver/Src/stm32l4xx_hal_comp.c **** 
 686:Drivers/STM32L4xx_HAL_Driver/Src/stm32l4xx_hal_comp.c ****       case HAL_COMP_MSPDEINIT_CB_ID :
 687:Drivers/STM32L4xx_HAL_Driver/Src/stm32l4xx_hal_comp.c ****         hcomp->MspDeInitCallback = HAL_COMP_MspDeInit;             /* Legacy weak MspDeInit */
 688:Drivers/STM32L4xx_HAL_Driver/Src/stm32l4xx_hal_comp.c ****         break;
 689:Drivers/STM32L4xx_HAL_Driver/Src/stm32l4xx_hal_comp.c **** 
 690:Drivers/STM32L4xx_HAL_Driver/Src/stm32l4xx_hal_comp.c ****       default :
 691:Drivers/STM32L4xx_HAL_Driver/Src/stm32l4xx_hal_comp.c ****         /* Update the error code */
 692:Drivers/STM32L4xx_HAL_Driver/Src/stm32l4xx_hal_comp.c ****         hcomp->ErrorCode |= HAL_COMP_ERROR_INVALID_CALLBACK;
 693:Drivers/STM32L4xx_HAL_Driver/Src/stm32l4xx_hal_comp.c **** 
 694:Drivers/STM32L4xx_HAL_Driver/Src/stm32l4xx_hal_comp.c ****         /* Return error status */
 695:Drivers/STM32L4xx_HAL_Driver/Src/stm32l4xx_hal_comp.c ****         status =  HAL_ERROR;
 696:Drivers/STM32L4xx_HAL_Driver/Src/stm32l4xx_hal_comp.c ****         break;
 697:Drivers/STM32L4xx_HAL_Driver/Src/stm32l4xx_hal_comp.c ****     }
 698:Drivers/STM32L4xx_HAL_Driver/Src/stm32l4xx_hal_comp.c ****   }
 699:Drivers/STM32L4xx_HAL_Driver/Src/stm32l4xx_hal_comp.c ****   else
 700:Drivers/STM32L4xx_HAL_Driver/Src/stm32l4xx_hal_comp.c ****   {
 701:Drivers/STM32L4xx_HAL_Driver/Src/stm32l4xx_hal_comp.c ****     /* Update the error code */
 702:Drivers/STM32L4xx_HAL_Driver/Src/stm32l4xx_hal_comp.c ****     hcomp->ErrorCode |= HAL_COMP_ERROR_INVALID_CALLBACK;
 703:Drivers/STM32L4xx_HAL_Driver/Src/stm32l4xx_hal_comp.c **** 
 704:Drivers/STM32L4xx_HAL_Driver/Src/stm32l4xx_hal_comp.c ****     /* Return error status */
 705:Drivers/STM32L4xx_HAL_Driver/Src/stm32l4xx_hal_comp.c ****     status =  HAL_ERROR;
 706:Drivers/STM32L4xx_HAL_Driver/Src/stm32l4xx_hal_comp.c ****   }
 707:Drivers/STM32L4xx_HAL_Driver/Src/stm32l4xx_hal_comp.c **** 
 708:Drivers/STM32L4xx_HAL_Driver/Src/stm32l4xx_hal_comp.c ****   return status;
 709:Drivers/STM32L4xx_HAL_Driver/Src/stm32l4xx_hal_comp.c **** }
 710:Drivers/STM32L4xx_HAL_Driver/Src/stm32l4xx_hal_comp.c **** 
ARM GAS  /tmp/cckJv99E.s 			page 53


 711:Drivers/STM32L4xx_HAL_Driver/Src/stm32l4xx_hal_comp.c **** #endif /* USE_HAL_COMP_REGISTER_CALLBACKS */
 712:Drivers/STM32L4xx_HAL_Driver/Src/stm32l4xx_hal_comp.c **** 
 713:Drivers/STM32L4xx_HAL_Driver/Src/stm32l4xx_hal_comp.c **** /**
 714:Drivers/STM32L4xx_HAL_Driver/Src/stm32l4xx_hal_comp.c ****   * @}
 715:Drivers/STM32L4xx_HAL_Driver/Src/stm32l4xx_hal_comp.c ****   */
 716:Drivers/STM32L4xx_HAL_Driver/Src/stm32l4xx_hal_comp.c **** 
 717:Drivers/STM32L4xx_HAL_Driver/Src/stm32l4xx_hal_comp.c **** /** @defgroup COMP_Exported_Functions_Group2 Start-Stop operation functions
 718:Drivers/STM32L4xx_HAL_Driver/Src/stm32l4xx_hal_comp.c ****   *  @brief   Start-Stop operation functions.
 719:Drivers/STM32L4xx_HAL_Driver/Src/stm32l4xx_hal_comp.c ****   *
 720:Drivers/STM32L4xx_HAL_Driver/Src/stm32l4xx_hal_comp.c **** @verbatim
 721:Drivers/STM32L4xx_HAL_Driver/Src/stm32l4xx_hal_comp.c ****  ===============================================================================
 722:Drivers/STM32L4xx_HAL_Driver/Src/stm32l4xx_hal_comp.c ****                       ##### IO operation functions #####
 723:Drivers/STM32L4xx_HAL_Driver/Src/stm32l4xx_hal_comp.c ****  ===============================================================================
 724:Drivers/STM32L4xx_HAL_Driver/Src/stm32l4xx_hal_comp.c ****     [..]  This section provides functions allowing to:
 725:Drivers/STM32L4xx_HAL_Driver/Src/stm32l4xx_hal_comp.c ****       (+) Start a comparator instance.
 726:Drivers/STM32L4xx_HAL_Driver/Src/stm32l4xx_hal_comp.c ****       (+) Stop a comparator instance.
 727:Drivers/STM32L4xx_HAL_Driver/Src/stm32l4xx_hal_comp.c **** 
 728:Drivers/STM32L4xx_HAL_Driver/Src/stm32l4xx_hal_comp.c **** @endverbatim
 729:Drivers/STM32L4xx_HAL_Driver/Src/stm32l4xx_hal_comp.c ****   * @{
 730:Drivers/STM32L4xx_HAL_Driver/Src/stm32l4xx_hal_comp.c ****   */
 731:Drivers/STM32L4xx_HAL_Driver/Src/stm32l4xx_hal_comp.c **** 
 732:Drivers/STM32L4xx_HAL_Driver/Src/stm32l4xx_hal_comp.c **** /**
 733:Drivers/STM32L4xx_HAL_Driver/Src/stm32l4xx_hal_comp.c ****   * @brief  Start the comparator.
 734:Drivers/STM32L4xx_HAL_Driver/Src/stm32l4xx_hal_comp.c ****   * @param  hcomp  COMP handle
 735:Drivers/STM32L4xx_HAL_Driver/Src/stm32l4xx_hal_comp.c ****   * @retval HAL status
 736:Drivers/STM32L4xx_HAL_Driver/Src/stm32l4xx_hal_comp.c ****   */
 737:Drivers/STM32L4xx_HAL_Driver/Src/stm32l4xx_hal_comp.c **** HAL_StatusTypeDef HAL_COMP_Start(COMP_HandleTypeDef *hcomp)
 738:Drivers/STM32L4xx_HAL_Driver/Src/stm32l4xx_hal_comp.c **** {
 982              		.loc 1 738 1
 983              		.cfi_startproc
 984              		@ args = 0, pretend = 0, frame = 16
 985              		@ frame_needed = 1, uses_anonymous_args = 0
 986              		@ link register save eliminated.
 987 0000 80B4     		push	{r7}
 988              		.cfi_def_cfa_offset 4
 989              		.cfi_offset 7, -4
 990 0002 85B0     		sub	sp, sp, #20
 991              		.cfi_def_cfa_offset 24
 992 0004 00AF     		add	r7, sp, #0
 993              		.cfi_def_cfa_register 7
 994 0006 7860     		str	r0, [r7, #4]
 739:Drivers/STM32L4xx_HAL_Driver/Src/stm32l4xx_hal_comp.c ****   __IO uint32_t wait_loop_index = 0UL;
 995              		.loc 1 739 17
 996 0008 0023     		movs	r3, #0
 997 000a BB60     		str	r3, [r7, #8]
 740:Drivers/STM32L4xx_HAL_Driver/Src/stm32l4xx_hal_comp.c ****   HAL_StatusTypeDef status = HAL_OK;
 998              		.loc 1 740 21
 999 000c 0023     		movs	r3, #0
 1000 000e FB73     		strb	r3, [r7, #15]
 741:Drivers/STM32L4xx_HAL_Driver/Src/stm32l4xx_hal_comp.c **** 
 742:Drivers/STM32L4xx_HAL_Driver/Src/stm32l4xx_hal_comp.c ****   /* Check the COMP handle allocation and lock status */
 743:Drivers/STM32L4xx_HAL_Driver/Src/stm32l4xx_hal_comp.c ****   if (hcomp == NULL)
 1001              		.loc 1 743 6
 1002 0010 7B68     		ldr	r3, [r7, #4]
 1003 0012 002B     		cmp	r3, #0
 1004 0014 02D1     		bne	.L66
 744:Drivers/STM32L4xx_HAL_Driver/Src/stm32l4xx_hal_comp.c ****   {
ARM GAS  /tmp/cckJv99E.s 			page 54


 745:Drivers/STM32L4xx_HAL_Driver/Src/stm32l4xx_hal_comp.c ****     status = HAL_ERROR;
 1005              		.loc 1 745 12
 1006 0016 0123     		movs	r3, #1
 1007 0018 FB73     		strb	r3, [r7, #15]
 1008 001a 30E0     		b	.L67
 1009              	.L66:
 746:Drivers/STM32L4xx_HAL_Driver/Src/stm32l4xx_hal_comp.c ****   }
 747:Drivers/STM32L4xx_HAL_Driver/Src/stm32l4xx_hal_comp.c ****   else if (__HAL_COMP_IS_LOCKED(hcomp))
 1010              		.loc 1 747 12
 1011 001c 7B68     		ldr	r3, [r7, #4]
 1012 001e 1B68     		ldr	r3, [r3]
 1013 0020 1B68     		ldr	r3, [r3]
 1014 0022 03F00043 		and	r3, r3, #-2147483648
 1015              		.loc 1 747 11
 1016 0026 B3F1004F 		cmp	r3, #-2147483648
 1017 002a 02D1     		bne	.L68
 748:Drivers/STM32L4xx_HAL_Driver/Src/stm32l4xx_hal_comp.c ****   {
 749:Drivers/STM32L4xx_HAL_Driver/Src/stm32l4xx_hal_comp.c ****     status = HAL_ERROR;
 1018              		.loc 1 749 12
 1019 002c 0123     		movs	r3, #1
 1020 002e FB73     		strb	r3, [r7, #15]
 1021 0030 25E0     		b	.L67
 1022              	.L68:
 750:Drivers/STM32L4xx_HAL_Driver/Src/stm32l4xx_hal_comp.c ****   }
 751:Drivers/STM32L4xx_HAL_Driver/Src/stm32l4xx_hal_comp.c ****   else
 752:Drivers/STM32L4xx_HAL_Driver/Src/stm32l4xx_hal_comp.c ****   {
 753:Drivers/STM32L4xx_HAL_Driver/Src/stm32l4xx_hal_comp.c ****     /* Check the parameter */
 754:Drivers/STM32L4xx_HAL_Driver/Src/stm32l4xx_hal_comp.c ****     assert_param(IS_COMP_ALL_INSTANCE(hcomp->Instance));
 755:Drivers/STM32L4xx_HAL_Driver/Src/stm32l4xx_hal_comp.c **** 
 756:Drivers/STM32L4xx_HAL_Driver/Src/stm32l4xx_hal_comp.c ****     if (hcomp->State == HAL_COMP_STATE_READY)
 1023              		.loc 1 756 14
 1024 0032 7B68     		ldr	r3, [r7, #4]
 1025 0034 93F82530 		ldrb	r3, [r3, #37]
 1026 0038 DBB2     		uxtb	r3, r3
 1027              		.loc 1 756 8
 1028 003a 012B     		cmp	r3, #1
 1029 003c 1DD1     		bne	.L69
 757:Drivers/STM32L4xx_HAL_Driver/Src/stm32l4xx_hal_comp.c ****     {
 758:Drivers/STM32L4xx_HAL_Driver/Src/stm32l4xx_hal_comp.c ****       /* Enable the selected comparator */
 759:Drivers/STM32L4xx_HAL_Driver/Src/stm32l4xx_hal_comp.c ****       SET_BIT(hcomp->Instance->CSR, COMP_CSR_EN);
 1030              		.loc 1 759 7
 1031 003e 7B68     		ldr	r3, [r7, #4]
 1032 0040 1B68     		ldr	r3, [r3]
 1033 0042 1A68     		ldr	r2, [r3]
 1034 0044 7B68     		ldr	r3, [r7, #4]
 1035 0046 1B68     		ldr	r3, [r3]
 1036 0048 42F00102 		orr	r2, r2, #1
 1037 004c 1A60     		str	r2, [r3]
 760:Drivers/STM32L4xx_HAL_Driver/Src/stm32l4xx_hal_comp.c **** 
 761:Drivers/STM32L4xx_HAL_Driver/Src/stm32l4xx_hal_comp.c ****       /* Set HAL COMP handle state */
 762:Drivers/STM32L4xx_HAL_Driver/Src/stm32l4xx_hal_comp.c ****       hcomp->State = HAL_COMP_STATE_BUSY;
 1038              		.loc 1 762 20
 1039 004e 7B68     		ldr	r3, [r7, #4]
 1040 0050 0222     		movs	r2, #2
 1041 0052 83F82520 		strb	r2, [r3, #37]
 763:Drivers/STM32L4xx_HAL_Driver/Src/stm32l4xx_hal_comp.c **** 
 764:Drivers/STM32L4xx_HAL_Driver/Src/stm32l4xx_hal_comp.c ****       /* Delay for COMP startup time */
ARM GAS  /tmp/cckJv99E.s 			page 55


 765:Drivers/STM32L4xx_HAL_Driver/Src/stm32l4xx_hal_comp.c ****       /* Wait loop initialization and execution */
 766:Drivers/STM32L4xx_HAL_Driver/Src/stm32l4xx_hal_comp.c ****       /* Note: Variable divided by 2 to compensate partially              */
 767:Drivers/STM32L4xx_HAL_Driver/Src/stm32l4xx_hal_comp.c ****       /*       CPU processing cycles, scaling in us split to not          */
 768:Drivers/STM32L4xx_HAL_Driver/Src/stm32l4xx_hal_comp.c ****       /*       exceed 32 bits register capacity and handle low frequency. */
 769:Drivers/STM32L4xx_HAL_Driver/Src/stm32l4xx_hal_comp.c ****       wait_loop_index = ((COMP_DELAY_STARTUP_US / 10UL) * ((SystemCoreClock / (100000UL * 2UL)) + 1
 1042              		.loc 1 769 77
 1043 0056 0D4B     		ldr	r3, .L73
 1044 0058 1B68     		ldr	r3, [r3]
 1045 005a 9B09     		lsrs	r3, r3, #6
 1046 005c 0C4A     		ldr	r2, .L73+4
 1047 005e A2FB0323 		umull	r2, r3, r2, r3
 1048 0062 9B09     		lsrs	r3, r3, #6
 1049              		.loc 1 769 97
 1050 0064 0133     		adds	r3, r3, #1
 1051              		.loc 1 769 57
 1052 0066 DB00     		lsls	r3, r3, #3
 1053              		.loc 1 769 23
 1054 0068 BB60     		str	r3, [r7, #8]
 770:Drivers/STM32L4xx_HAL_Driver/Src/stm32l4xx_hal_comp.c ****       while (wait_loop_index != 0UL)
 1055              		.loc 1 770 13
 1056 006a 02E0     		b	.L70
 1057              	.L71:
 771:Drivers/STM32L4xx_HAL_Driver/Src/stm32l4xx_hal_comp.c ****       {
 772:Drivers/STM32L4xx_HAL_Driver/Src/stm32l4xx_hal_comp.c ****         wait_loop_index--;
 1058              		.loc 1 772 24
 1059 006c BB68     		ldr	r3, [r7, #8]
 1060 006e 013B     		subs	r3, r3, #1
 1061 0070 BB60     		str	r3, [r7, #8]
 1062              	.L70:
 770:Drivers/STM32L4xx_HAL_Driver/Src/stm32l4xx_hal_comp.c ****       while (wait_loop_index != 0UL)
 1063              		.loc 1 770 30
 1064 0072 BB68     		ldr	r3, [r7, #8]
 1065 0074 002B     		cmp	r3, #0
 1066 0076 F9D1     		bne	.L71
 1067 0078 01E0     		b	.L67
 1068              	.L69:
 773:Drivers/STM32L4xx_HAL_Driver/Src/stm32l4xx_hal_comp.c ****       }
 774:Drivers/STM32L4xx_HAL_Driver/Src/stm32l4xx_hal_comp.c ****     }
 775:Drivers/STM32L4xx_HAL_Driver/Src/stm32l4xx_hal_comp.c ****     else
 776:Drivers/STM32L4xx_HAL_Driver/Src/stm32l4xx_hal_comp.c ****     {
 777:Drivers/STM32L4xx_HAL_Driver/Src/stm32l4xx_hal_comp.c ****       status = HAL_ERROR;
 1069              		.loc 1 777 14
 1070 007a 0123     		movs	r3, #1
 1071 007c FB73     		strb	r3, [r7, #15]
 1072              	.L67:
 778:Drivers/STM32L4xx_HAL_Driver/Src/stm32l4xx_hal_comp.c ****     }
 779:Drivers/STM32L4xx_HAL_Driver/Src/stm32l4xx_hal_comp.c ****   }
 780:Drivers/STM32L4xx_HAL_Driver/Src/stm32l4xx_hal_comp.c **** 
 781:Drivers/STM32L4xx_HAL_Driver/Src/stm32l4xx_hal_comp.c ****   return status;
 1073              		.loc 1 781 10
 1074 007e FB7B     		ldrb	r3, [r7, #15]	@ zero_extendqisi2
 782:Drivers/STM32L4xx_HAL_Driver/Src/stm32l4xx_hal_comp.c **** }
 1075              		.loc 1 782 1
 1076 0080 1846     		mov	r0, r3
 1077 0082 1437     		adds	r7, r7, #20
 1078              		.cfi_def_cfa_offset 4
 1079 0084 BD46     		mov	sp, r7
ARM GAS  /tmp/cckJv99E.s 			page 56


 1080              		.cfi_def_cfa_register 13
 1081              		@ sp needed
 1082 0086 5DF8047B 		ldr	r7, [sp], #4
 1083              		.cfi_restore 7
 1084              		.cfi_def_cfa_offset 0
 1085 008a 7047     		bx	lr
 1086              	.L74:
 1087              		.align	2
 1088              	.L73:
 1089 008c 00000000 		.word	SystemCoreClock
 1090 0090 632D3E05 		.word	87960931
 1091              		.cfi_endproc
 1092              	.LFE449:
 1094              		.section	.text.HAL_COMP_Stop,"ax",%progbits
 1095              		.align	1
 1096              		.global	HAL_COMP_Stop
 1097              		.syntax unified
 1098              		.thumb
 1099              		.thumb_func
 1101              	HAL_COMP_Stop:
 1102              	.LFB450:
 783:Drivers/STM32L4xx_HAL_Driver/Src/stm32l4xx_hal_comp.c **** 
 784:Drivers/STM32L4xx_HAL_Driver/Src/stm32l4xx_hal_comp.c **** /**
 785:Drivers/STM32L4xx_HAL_Driver/Src/stm32l4xx_hal_comp.c ****   * @brief  Stop the comparator.
 786:Drivers/STM32L4xx_HAL_Driver/Src/stm32l4xx_hal_comp.c ****   * @param  hcomp  COMP handle
 787:Drivers/STM32L4xx_HAL_Driver/Src/stm32l4xx_hal_comp.c ****   * @retval HAL status
 788:Drivers/STM32L4xx_HAL_Driver/Src/stm32l4xx_hal_comp.c ****   */
 789:Drivers/STM32L4xx_HAL_Driver/Src/stm32l4xx_hal_comp.c **** HAL_StatusTypeDef HAL_COMP_Stop(COMP_HandleTypeDef *hcomp)
 790:Drivers/STM32L4xx_HAL_Driver/Src/stm32l4xx_hal_comp.c **** {
 1103              		.loc 1 790 1
 1104              		.cfi_startproc
 1105              		@ args = 0, pretend = 0, frame = 16
 1106              		@ frame_needed = 1, uses_anonymous_args = 0
 1107              		@ link register save eliminated.
 1108 0000 80B4     		push	{r7}
 1109              		.cfi_def_cfa_offset 4
 1110              		.cfi_offset 7, -4
 1111 0002 85B0     		sub	sp, sp, #20
 1112              		.cfi_def_cfa_offset 24
 1113 0004 00AF     		add	r7, sp, #0
 1114              		.cfi_def_cfa_register 7
 1115 0006 7860     		str	r0, [r7, #4]
 791:Drivers/STM32L4xx_HAL_Driver/Src/stm32l4xx_hal_comp.c ****   HAL_StatusTypeDef status = HAL_OK;
 1116              		.loc 1 791 21
 1117 0008 0023     		movs	r3, #0
 1118 000a FB73     		strb	r3, [r7, #15]
 792:Drivers/STM32L4xx_HAL_Driver/Src/stm32l4xx_hal_comp.c **** 
 793:Drivers/STM32L4xx_HAL_Driver/Src/stm32l4xx_hal_comp.c ****   /* Check the COMP handle allocation and lock status */
 794:Drivers/STM32L4xx_HAL_Driver/Src/stm32l4xx_hal_comp.c ****   if (hcomp == NULL)
 1119              		.loc 1 794 6
 1120 000c 7B68     		ldr	r3, [r7, #4]
 1121 000e 002B     		cmp	r3, #0
 1122 0010 02D1     		bne	.L76
 795:Drivers/STM32L4xx_HAL_Driver/Src/stm32l4xx_hal_comp.c ****   {
 796:Drivers/STM32L4xx_HAL_Driver/Src/stm32l4xx_hal_comp.c ****     status = HAL_ERROR;
 1123              		.loc 1 796 12
 1124 0012 0123     		movs	r3, #1
ARM GAS  /tmp/cckJv99E.s 			page 57


 1125 0014 FB73     		strb	r3, [r7, #15]
 1126 0016 1FE0     		b	.L77
 1127              	.L76:
 797:Drivers/STM32L4xx_HAL_Driver/Src/stm32l4xx_hal_comp.c ****   }
 798:Drivers/STM32L4xx_HAL_Driver/Src/stm32l4xx_hal_comp.c ****   else if (__HAL_COMP_IS_LOCKED(hcomp))
 1128              		.loc 1 798 12
 1129 0018 7B68     		ldr	r3, [r7, #4]
 1130 001a 1B68     		ldr	r3, [r3]
 1131 001c 1B68     		ldr	r3, [r3]
 1132 001e 03F00043 		and	r3, r3, #-2147483648
 1133              		.loc 1 798 11
 1134 0022 B3F1004F 		cmp	r3, #-2147483648
 1135 0026 02D1     		bne	.L78
 799:Drivers/STM32L4xx_HAL_Driver/Src/stm32l4xx_hal_comp.c ****   {
 800:Drivers/STM32L4xx_HAL_Driver/Src/stm32l4xx_hal_comp.c ****     status = HAL_ERROR;
 1136              		.loc 1 800 12
 1137 0028 0123     		movs	r3, #1
 1138 002a FB73     		strb	r3, [r7, #15]
 1139 002c 14E0     		b	.L77
 1140              	.L78:
 801:Drivers/STM32L4xx_HAL_Driver/Src/stm32l4xx_hal_comp.c ****   }
 802:Drivers/STM32L4xx_HAL_Driver/Src/stm32l4xx_hal_comp.c ****   else
 803:Drivers/STM32L4xx_HAL_Driver/Src/stm32l4xx_hal_comp.c ****   {
 804:Drivers/STM32L4xx_HAL_Driver/Src/stm32l4xx_hal_comp.c ****     /* Check the parameter */
 805:Drivers/STM32L4xx_HAL_Driver/Src/stm32l4xx_hal_comp.c ****     assert_param(IS_COMP_ALL_INSTANCE(hcomp->Instance));
 806:Drivers/STM32L4xx_HAL_Driver/Src/stm32l4xx_hal_comp.c **** 
 807:Drivers/STM32L4xx_HAL_Driver/Src/stm32l4xx_hal_comp.c ****     /* Check compliant states: HAL_COMP_STATE_READY or HAL_COMP_STATE_BUSY    */
 808:Drivers/STM32L4xx_HAL_Driver/Src/stm32l4xx_hal_comp.c ****     /* (all states except HAL_COMP_STATE_RESET and except locked status.      */
 809:Drivers/STM32L4xx_HAL_Driver/Src/stm32l4xx_hal_comp.c ****     if (hcomp->State != HAL_COMP_STATE_RESET)
 1141              		.loc 1 809 14
 1142 002e 7B68     		ldr	r3, [r7, #4]
 1143 0030 93F82530 		ldrb	r3, [r3, #37]
 1144 0034 DBB2     		uxtb	r3, r3
 1145              		.loc 1 809 8
 1146 0036 002B     		cmp	r3, #0
 1147 0038 0CD0     		beq	.L79
 810:Drivers/STM32L4xx_HAL_Driver/Src/stm32l4xx_hal_comp.c ****     {
 811:Drivers/STM32L4xx_HAL_Driver/Src/stm32l4xx_hal_comp.c ****       /* Disable the selected comparator */
 812:Drivers/STM32L4xx_HAL_Driver/Src/stm32l4xx_hal_comp.c ****       CLEAR_BIT(hcomp->Instance->CSR, COMP_CSR_EN);
 1148              		.loc 1 812 7
 1149 003a 7B68     		ldr	r3, [r7, #4]
 1150 003c 1B68     		ldr	r3, [r3]
 1151 003e 1A68     		ldr	r2, [r3]
 1152 0040 7B68     		ldr	r3, [r7, #4]
 1153 0042 1B68     		ldr	r3, [r3]
 1154 0044 22F00102 		bic	r2, r2, #1
 1155 0048 1A60     		str	r2, [r3]
 813:Drivers/STM32L4xx_HAL_Driver/Src/stm32l4xx_hal_comp.c **** 
 814:Drivers/STM32L4xx_HAL_Driver/Src/stm32l4xx_hal_comp.c ****       /* Set HAL COMP handle state */
 815:Drivers/STM32L4xx_HAL_Driver/Src/stm32l4xx_hal_comp.c ****       hcomp->State = HAL_COMP_STATE_READY;
 1156              		.loc 1 815 20
 1157 004a 7B68     		ldr	r3, [r7, #4]
 1158 004c 0122     		movs	r2, #1
 1159 004e 83F82520 		strb	r2, [r3, #37]
 1160 0052 01E0     		b	.L77
 1161              	.L79:
 816:Drivers/STM32L4xx_HAL_Driver/Src/stm32l4xx_hal_comp.c ****     }
ARM GAS  /tmp/cckJv99E.s 			page 58


 817:Drivers/STM32L4xx_HAL_Driver/Src/stm32l4xx_hal_comp.c ****     else
 818:Drivers/STM32L4xx_HAL_Driver/Src/stm32l4xx_hal_comp.c ****     {
 819:Drivers/STM32L4xx_HAL_Driver/Src/stm32l4xx_hal_comp.c ****       status = HAL_ERROR;
 1162              		.loc 1 819 14
 1163 0054 0123     		movs	r3, #1
 1164 0056 FB73     		strb	r3, [r7, #15]
 1165              	.L77:
 820:Drivers/STM32L4xx_HAL_Driver/Src/stm32l4xx_hal_comp.c ****     }
 821:Drivers/STM32L4xx_HAL_Driver/Src/stm32l4xx_hal_comp.c ****   }
 822:Drivers/STM32L4xx_HAL_Driver/Src/stm32l4xx_hal_comp.c **** 
 823:Drivers/STM32L4xx_HAL_Driver/Src/stm32l4xx_hal_comp.c ****   return status;
 1166              		.loc 1 823 10
 1167 0058 FB7B     		ldrb	r3, [r7, #15]	@ zero_extendqisi2
 824:Drivers/STM32L4xx_HAL_Driver/Src/stm32l4xx_hal_comp.c **** }
 1168              		.loc 1 824 1
 1169 005a 1846     		mov	r0, r3
 1170 005c 1437     		adds	r7, r7, #20
 1171              		.cfi_def_cfa_offset 4
 1172 005e BD46     		mov	sp, r7
 1173              		.cfi_def_cfa_register 13
 1174              		@ sp needed
 1175 0060 5DF8047B 		ldr	r7, [sp], #4
 1176              		.cfi_restore 7
 1177              		.cfi_def_cfa_offset 0
 1178 0064 7047     		bx	lr
 1179              		.cfi_endproc
 1180              	.LFE450:
 1182              		.section	.text.HAL_COMP_IRQHandler,"ax",%progbits
 1183              		.align	1
 1184              		.global	HAL_COMP_IRQHandler
 1185              		.syntax unified
 1186              		.thumb
 1187              		.thumb_func
 1189              	HAL_COMP_IRQHandler:
 1190              	.LFB451:
 825:Drivers/STM32L4xx_HAL_Driver/Src/stm32l4xx_hal_comp.c **** 
 826:Drivers/STM32L4xx_HAL_Driver/Src/stm32l4xx_hal_comp.c **** /**
 827:Drivers/STM32L4xx_HAL_Driver/Src/stm32l4xx_hal_comp.c ****   * @brief  Comparator IRQ handler.
 828:Drivers/STM32L4xx_HAL_Driver/Src/stm32l4xx_hal_comp.c ****   * @param  hcomp  COMP handle
 829:Drivers/STM32L4xx_HAL_Driver/Src/stm32l4xx_hal_comp.c ****   * @retval None
 830:Drivers/STM32L4xx_HAL_Driver/Src/stm32l4xx_hal_comp.c ****   */
 831:Drivers/STM32L4xx_HAL_Driver/Src/stm32l4xx_hal_comp.c **** void HAL_COMP_IRQHandler(COMP_HandleTypeDef *hcomp)
 832:Drivers/STM32L4xx_HAL_Driver/Src/stm32l4xx_hal_comp.c **** {
 1191              		.loc 1 832 1
 1192              		.cfi_startproc
 1193              		@ args = 0, pretend = 0, frame = 16
 1194              		@ frame_needed = 1, uses_anonymous_args = 0
 1195 0000 80B5     		push	{r7, lr}
 1196              		.cfi_def_cfa_offset 8
 1197              		.cfi_offset 7, -8
 1198              		.cfi_offset 14, -4
 1199 0002 84B0     		sub	sp, sp, #16
 1200              		.cfi_def_cfa_offset 24
 1201 0004 00AF     		add	r7, sp, #0
 1202              		.cfi_def_cfa_register 7
 1203 0006 7860     		str	r0, [r7, #4]
 833:Drivers/STM32L4xx_HAL_Driver/Src/stm32l4xx_hal_comp.c ****   /* Get the EXTI line corresponding to the selected COMP instance */
ARM GAS  /tmp/cckJv99E.s 			page 59


 834:Drivers/STM32L4xx_HAL_Driver/Src/stm32l4xx_hal_comp.c ****   uint32_t exti_line = COMP_GET_EXTI_LINE(hcomp->Instance);
 1204              		.loc 1 834 24
 1205 0008 7B68     		ldr	r3, [r7, #4]
 1206 000a 1B68     		ldr	r3, [r3]
 1207 000c 114A     		ldr	r2, .L88
 1208 000e 9342     		cmp	r3, r2
 1209 0010 02D1     		bne	.L82
 1210              		.loc 1 834 24 is_stmt 0 discriminator 1
 1211 0012 4FF40013 		mov	r3, #2097152
 1212 0016 01E0     		b	.L83
 1213              	.L82:
 1214              		.loc 1 834 24 discriminator 2
 1215 0018 4FF48003 		mov	r3, #4194304
 1216              	.L83:
 1217              		.loc 1 834 12 is_stmt 1 discriminator 4
 1218 001c FB60     		str	r3, [r7, #12]
 835:Drivers/STM32L4xx_HAL_Driver/Src/stm32l4xx_hal_comp.c **** 
 836:Drivers/STM32L4xx_HAL_Driver/Src/stm32l4xx_hal_comp.c ****   /* Check COMP EXTI flag */
 837:Drivers/STM32L4xx_HAL_Driver/Src/stm32l4xx_hal_comp.c ****   if (LL_EXTI_IsActiveFlag_0_31(exti_line) != 0UL)
 1219              		.loc 1 837 7
 1220 001e F868     		ldr	r0, [r7, #12]
 1221 0020 FFF7FEFF 		bl	LL_EXTI_IsActiveFlag_0_31
 1222 0024 0346     		mov	r3, r0
 1223              		.loc 1 837 6 discriminator 1
 1224 0026 002B     		cmp	r3, #0
 1225 0028 10D0     		beq	.L87
 838:Drivers/STM32L4xx_HAL_Driver/Src/stm32l4xx_hal_comp.c ****   {
 839:Drivers/STM32L4xx_HAL_Driver/Src/stm32l4xx_hal_comp.c **** #if defined(COMP2)
 840:Drivers/STM32L4xx_HAL_Driver/Src/stm32l4xx_hal_comp.c ****     /* Check whether comparator is in independent or window mode */
 841:Drivers/STM32L4xx_HAL_Driver/Src/stm32l4xx_hal_comp.c ****     if (READ_BIT(COMP12_COMMON->CSR, COMP_CSR_WINMODE) != 0UL)
 1226              		.loc 1 841 9
 1227 002a 0B4B     		ldr	r3, .L88+4
 1228 002c 1B68     		ldr	r3, [r3]
 1229 002e 03F40073 		and	r3, r3, #512
 1230              		.loc 1 841 8
 1231 0032 002B     		cmp	r3, #0
 1232 0034 04D0     		beq	.L85
 842:Drivers/STM32L4xx_HAL_Driver/Src/stm32l4xx_hal_comp.c ****     {
 843:Drivers/STM32L4xx_HAL_Driver/Src/stm32l4xx_hal_comp.c ****       /* Clear COMP EXTI line pending bit of the pair of comparators          */
 844:Drivers/STM32L4xx_HAL_Driver/Src/stm32l4xx_hal_comp.c ****       /* in window mode.                                                      */
 845:Drivers/STM32L4xx_HAL_Driver/Src/stm32l4xx_hal_comp.c ****       /* Note: Pair of comparators in window mode can both trig IRQ when      */
 846:Drivers/STM32L4xx_HAL_Driver/Src/stm32l4xx_hal_comp.c ****       /*       input voltage is changing from "out of window" area            */
 847:Drivers/STM32L4xx_HAL_Driver/Src/stm32l4xx_hal_comp.c ****       /*       (low or high ) to the other "out of window" area (high or low).*/
 848:Drivers/STM32L4xx_HAL_Driver/Src/stm32l4xx_hal_comp.c ****       /*       Both flags must be cleared to call comparator trigger          */
 849:Drivers/STM32L4xx_HAL_Driver/Src/stm32l4xx_hal_comp.c ****       /*       callback is called once.                                       */
 850:Drivers/STM32L4xx_HAL_Driver/Src/stm32l4xx_hal_comp.c ****       LL_EXTI_ClearFlag_0_31((COMP_EXTI_LINE_COMP1 | COMP_EXTI_LINE_COMP2));
 1233              		.loc 1 850 7
 1234 0036 4FF4C000 		mov	r0, #6291456
 1235 003a FFF7FEFF 		bl	LL_EXTI_ClearFlag_0_31
 1236 003e 02E0     		b	.L86
 1237              	.L85:
 851:Drivers/STM32L4xx_HAL_Driver/Src/stm32l4xx_hal_comp.c ****     }
 852:Drivers/STM32L4xx_HAL_Driver/Src/stm32l4xx_hal_comp.c ****     else
 853:Drivers/STM32L4xx_HAL_Driver/Src/stm32l4xx_hal_comp.c **** #endif /* COMP2 */
 854:Drivers/STM32L4xx_HAL_Driver/Src/stm32l4xx_hal_comp.c ****     {
 855:Drivers/STM32L4xx_HAL_Driver/Src/stm32l4xx_hal_comp.c ****       /* Clear COMP EXTI line pending bit */
 856:Drivers/STM32L4xx_HAL_Driver/Src/stm32l4xx_hal_comp.c ****       LL_EXTI_ClearFlag_0_31(exti_line);
ARM GAS  /tmp/cckJv99E.s 			page 60


 1238              		.loc 1 856 7
 1239 0040 F868     		ldr	r0, [r7, #12]
 1240 0042 FFF7FEFF 		bl	LL_EXTI_ClearFlag_0_31
 1241              	.L86:
 857:Drivers/STM32L4xx_HAL_Driver/Src/stm32l4xx_hal_comp.c ****     }
 858:Drivers/STM32L4xx_HAL_Driver/Src/stm32l4xx_hal_comp.c **** 
 859:Drivers/STM32L4xx_HAL_Driver/Src/stm32l4xx_hal_comp.c ****     /* COMP trigger user callback */
 860:Drivers/STM32L4xx_HAL_Driver/Src/stm32l4xx_hal_comp.c **** #if (USE_HAL_COMP_REGISTER_CALLBACKS == 1)
 861:Drivers/STM32L4xx_HAL_Driver/Src/stm32l4xx_hal_comp.c ****     hcomp->TriggerCallback(hcomp);
 862:Drivers/STM32L4xx_HAL_Driver/Src/stm32l4xx_hal_comp.c **** #else
 863:Drivers/STM32L4xx_HAL_Driver/Src/stm32l4xx_hal_comp.c ****     HAL_COMP_TriggerCallback(hcomp);
 1242              		.loc 1 863 5
 1243 0046 7868     		ldr	r0, [r7, #4]
 1244 0048 FFF7FEFF 		bl	HAL_COMP_TriggerCallback
 1245              	.L87:
 864:Drivers/STM32L4xx_HAL_Driver/Src/stm32l4xx_hal_comp.c **** #endif /* USE_HAL_COMP_REGISTER_CALLBACKS */
 865:Drivers/STM32L4xx_HAL_Driver/Src/stm32l4xx_hal_comp.c ****   }
 866:Drivers/STM32L4xx_HAL_Driver/Src/stm32l4xx_hal_comp.c **** }
 1246              		.loc 1 866 1
 1247 004c 00BF     		nop
 1248 004e 1037     		adds	r7, r7, #16
 1249              		.cfi_def_cfa_offset 8
 1250 0050 BD46     		mov	sp, r7
 1251              		.cfi_def_cfa_register 13
 1252              		@ sp needed
 1253 0052 80BD     		pop	{r7, pc}
 1254              	.L89:
 1255              		.align	2
 1256              	.L88:
 1257 0054 00020140 		.word	1073807872
 1258 0058 04020140 		.word	1073807876
 1259              		.cfi_endproc
 1260              	.LFE451:
 1262              		.section	.text.HAL_COMP_Lock,"ax",%progbits
 1263              		.align	1
 1264              		.global	HAL_COMP_Lock
 1265              		.syntax unified
 1266              		.thumb
 1267              		.thumb_func
 1269              	HAL_COMP_Lock:
 1270              	.LFB452:
 867:Drivers/STM32L4xx_HAL_Driver/Src/stm32l4xx_hal_comp.c **** 
 868:Drivers/STM32L4xx_HAL_Driver/Src/stm32l4xx_hal_comp.c **** /**
 869:Drivers/STM32L4xx_HAL_Driver/Src/stm32l4xx_hal_comp.c ****   * @}
 870:Drivers/STM32L4xx_HAL_Driver/Src/stm32l4xx_hal_comp.c ****   */
 871:Drivers/STM32L4xx_HAL_Driver/Src/stm32l4xx_hal_comp.c **** 
 872:Drivers/STM32L4xx_HAL_Driver/Src/stm32l4xx_hal_comp.c **** /** @defgroup COMP_Exported_Functions_Group3 Peripheral Control functions
 873:Drivers/STM32L4xx_HAL_Driver/Src/stm32l4xx_hal_comp.c ****   *  @brief   Management functions.
 874:Drivers/STM32L4xx_HAL_Driver/Src/stm32l4xx_hal_comp.c ****   *
 875:Drivers/STM32L4xx_HAL_Driver/Src/stm32l4xx_hal_comp.c **** @verbatim
 876:Drivers/STM32L4xx_HAL_Driver/Src/stm32l4xx_hal_comp.c ****  ===============================================================================
 877:Drivers/STM32L4xx_HAL_Driver/Src/stm32l4xx_hal_comp.c ****                       ##### Peripheral Control functions #####
 878:Drivers/STM32L4xx_HAL_Driver/Src/stm32l4xx_hal_comp.c ****  ===============================================================================
 879:Drivers/STM32L4xx_HAL_Driver/Src/stm32l4xx_hal_comp.c ****     [..]
 880:Drivers/STM32L4xx_HAL_Driver/Src/stm32l4xx_hal_comp.c ****     This subsection provides a set of functions allowing to control the comparators.
 881:Drivers/STM32L4xx_HAL_Driver/Src/stm32l4xx_hal_comp.c **** 
 882:Drivers/STM32L4xx_HAL_Driver/Src/stm32l4xx_hal_comp.c **** @endverbatim
ARM GAS  /tmp/cckJv99E.s 			page 61


 883:Drivers/STM32L4xx_HAL_Driver/Src/stm32l4xx_hal_comp.c ****   * @{
 884:Drivers/STM32L4xx_HAL_Driver/Src/stm32l4xx_hal_comp.c ****   */
 885:Drivers/STM32L4xx_HAL_Driver/Src/stm32l4xx_hal_comp.c **** 
 886:Drivers/STM32L4xx_HAL_Driver/Src/stm32l4xx_hal_comp.c **** /**
 887:Drivers/STM32L4xx_HAL_Driver/Src/stm32l4xx_hal_comp.c ****   * @brief  Lock the selected comparator configuration.
 888:Drivers/STM32L4xx_HAL_Driver/Src/stm32l4xx_hal_comp.c ****   * @note   A system reset is required to unlock the comparator configuration.
 889:Drivers/STM32L4xx_HAL_Driver/Src/stm32l4xx_hal_comp.c ****   * @note   Locking the comparator from reset state is possible
 890:Drivers/STM32L4xx_HAL_Driver/Src/stm32l4xx_hal_comp.c ****   *         if __HAL_RCC_SYSCFG_CLK_ENABLE() is being called before.
 891:Drivers/STM32L4xx_HAL_Driver/Src/stm32l4xx_hal_comp.c ****   * @param  hcomp  COMP handle
 892:Drivers/STM32L4xx_HAL_Driver/Src/stm32l4xx_hal_comp.c ****   * @retval HAL status
 893:Drivers/STM32L4xx_HAL_Driver/Src/stm32l4xx_hal_comp.c ****   */
 894:Drivers/STM32L4xx_HAL_Driver/Src/stm32l4xx_hal_comp.c **** HAL_StatusTypeDef HAL_COMP_Lock(COMP_HandleTypeDef *hcomp)
 895:Drivers/STM32L4xx_HAL_Driver/Src/stm32l4xx_hal_comp.c **** {
 1271              		.loc 1 895 1
 1272              		.cfi_startproc
 1273              		@ args = 0, pretend = 0, frame = 16
 1274              		@ frame_needed = 1, uses_anonymous_args = 0
 1275              		@ link register save eliminated.
 1276 0000 80B4     		push	{r7}
 1277              		.cfi_def_cfa_offset 4
 1278              		.cfi_offset 7, -4
 1279 0002 85B0     		sub	sp, sp, #20
 1280              		.cfi_def_cfa_offset 24
 1281 0004 00AF     		add	r7, sp, #0
 1282              		.cfi_def_cfa_register 7
 1283 0006 7860     		str	r0, [r7, #4]
 896:Drivers/STM32L4xx_HAL_Driver/Src/stm32l4xx_hal_comp.c ****   HAL_StatusTypeDef status = HAL_OK;
 1284              		.loc 1 896 21
 1285 0008 0023     		movs	r3, #0
 1286 000a FB73     		strb	r3, [r7, #15]
 897:Drivers/STM32L4xx_HAL_Driver/Src/stm32l4xx_hal_comp.c **** 
 898:Drivers/STM32L4xx_HAL_Driver/Src/stm32l4xx_hal_comp.c ****   /* Check the COMP handle allocation and lock status */
 899:Drivers/STM32L4xx_HAL_Driver/Src/stm32l4xx_hal_comp.c ****   if (hcomp == NULL)
 1287              		.loc 1 899 6
 1288 000c 7B68     		ldr	r3, [r7, #4]
 1289 000e 002B     		cmp	r3, #0
 1290 0010 02D1     		bne	.L91
 900:Drivers/STM32L4xx_HAL_Driver/Src/stm32l4xx_hal_comp.c ****   {
 901:Drivers/STM32L4xx_HAL_Driver/Src/stm32l4xx_hal_comp.c ****     status = HAL_ERROR;
 1291              		.loc 1 901 12
 1292 0012 0123     		movs	r3, #1
 1293 0014 FB73     		strb	r3, [r7, #15]
 1294 0016 2AE0     		b	.L92
 1295              	.L91:
 902:Drivers/STM32L4xx_HAL_Driver/Src/stm32l4xx_hal_comp.c ****   }
 903:Drivers/STM32L4xx_HAL_Driver/Src/stm32l4xx_hal_comp.c ****   else if (__HAL_COMP_IS_LOCKED(hcomp))
 1296              		.loc 1 903 12
 1297 0018 7B68     		ldr	r3, [r7, #4]
 1298 001a 1B68     		ldr	r3, [r3]
 1299 001c 1B68     		ldr	r3, [r3]
 1300 001e 03F00043 		and	r3, r3, #-2147483648
 1301              		.loc 1 903 11
 1302 0022 B3F1004F 		cmp	r3, #-2147483648
 1303 0026 02D1     		bne	.L93
 904:Drivers/STM32L4xx_HAL_Driver/Src/stm32l4xx_hal_comp.c ****   {
 905:Drivers/STM32L4xx_HAL_Driver/Src/stm32l4xx_hal_comp.c ****     status = HAL_ERROR;
 1304              		.loc 1 905 12
ARM GAS  /tmp/cckJv99E.s 			page 62


 1305 0028 0123     		movs	r3, #1
 1306 002a FB73     		strb	r3, [r7, #15]
 1307 002c 1FE0     		b	.L92
 1308              	.L93:
 906:Drivers/STM32L4xx_HAL_Driver/Src/stm32l4xx_hal_comp.c ****   }
 907:Drivers/STM32L4xx_HAL_Driver/Src/stm32l4xx_hal_comp.c ****   else
 908:Drivers/STM32L4xx_HAL_Driver/Src/stm32l4xx_hal_comp.c ****   {
 909:Drivers/STM32L4xx_HAL_Driver/Src/stm32l4xx_hal_comp.c ****     /* Check the parameter */
 910:Drivers/STM32L4xx_HAL_Driver/Src/stm32l4xx_hal_comp.c ****     assert_param(IS_COMP_ALL_INSTANCE(hcomp->Instance));
 911:Drivers/STM32L4xx_HAL_Driver/Src/stm32l4xx_hal_comp.c **** 
 912:Drivers/STM32L4xx_HAL_Driver/Src/stm32l4xx_hal_comp.c ****     /* Set HAL COMP handle state */
 913:Drivers/STM32L4xx_HAL_Driver/Src/stm32l4xx_hal_comp.c ****     switch (hcomp->State)
 1309              		.loc 1 913 18
 1310 002e 7B68     		ldr	r3, [r7, #4]
 1311 0030 93F82530 		ldrb	r3, [r3, #37]
 1312 0034 DBB2     		uxtb	r3, r3
 1313              		.loc 1 913 5
 1314 0036 002B     		cmp	r3, #0
 1315 0038 02D0     		beq	.L94
 1316 003a 012B     		cmp	r3, #1
 1317 003c 05D0     		beq	.L95
 1318 003e 09E0     		b	.L99
 1319              	.L94:
 914:Drivers/STM32L4xx_HAL_Driver/Src/stm32l4xx_hal_comp.c ****     {
 915:Drivers/STM32L4xx_HAL_Driver/Src/stm32l4xx_hal_comp.c ****       case HAL_COMP_STATE_RESET:
 916:Drivers/STM32L4xx_HAL_Driver/Src/stm32l4xx_hal_comp.c ****         hcomp->State = HAL_COMP_STATE_RESET_LOCKED;
 1320              		.loc 1 916 22
 1321 0040 7B68     		ldr	r3, [r7, #4]
 1322 0042 1022     		movs	r2, #16
 1323 0044 83F82520 		strb	r2, [r3, #37]
 917:Drivers/STM32L4xx_HAL_Driver/Src/stm32l4xx_hal_comp.c ****         break;
 1324              		.loc 1 917 9
 1325 0048 09E0     		b	.L97
 1326              	.L95:
 918:Drivers/STM32L4xx_HAL_Driver/Src/stm32l4xx_hal_comp.c ****       case HAL_COMP_STATE_READY:
 919:Drivers/STM32L4xx_HAL_Driver/Src/stm32l4xx_hal_comp.c ****         hcomp->State = HAL_COMP_STATE_READY_LOCKED;
 1327              		.loc 1 919 22
 1328 004a 7B68     		ldr	r3, [r7, #4]
 1329 004c 1122     		movs	r2, #17
 1330 004e 83F82520 		strb	r2, [r3, #37]
 920:Drivers/STM32L4xx_HAL_Driver/Src/stm32l4xx_hal_comp.c ****         break;
 1331              		.loc 1 920 9
 1332 0052 04E0     		b	.L97
 1333              	.L99:
 921:Drivers/STM32L4xx_HAL_Driver/Src/stm32l4xx_hal_comp.c ****       default: /* HAL_COMP_STATE_BUSY */
 922:Drivers/STM32L4xx_HAL_Driver/Src/stm32l4xx_hal_comp.c ****         hcomp->State = HAL_COMP_STATE_BUSY_LOCKED;
 1334              		.loc 1 922 22
 1335 0054 7B68     		ldr	r3, [r7, #4]
 1336 0056 1222     		movs	r2, #18
 1337 0058 83F82520 		strb	r2, [r3, #37]
 923:Drivers/STM32L4xx_HAL_Driver/Src/stm32l4xx_hal_comp.c ****         break;
 1338              		.loc 1 923 9
 1339 005c 00BF     		nop
 1340              	.L97:
 924:Drivers/STM32L4xx_HAL_Driver/Src/stm32l4xx_hal_comp.c ****     }
 925:Drivers/STM32L4xx_HAL_Driver/Src/stm32l4xx_hal_comp.c **** 
 926:Drivers/STM32L4xx_HAL_Driver/Src/stm32l4xx_hal_comp.c ****     /* Set the lock bit corresponding to selected comparator */
ARM GAS  /tmp/cckJv99E.s 			page 63


 927:Drivers/STM32L4xx_HAL_Driver/Src/stm32l4xx_hal_comp.c ****     __HAL_COMP_LOCK(hcomp);
 1341              		.loc 1 927 5
 1342 005e 7B68     		ldr	r3, [r7, #4]
 1343 0060 1B68     		ldr	r3, [r3]
 1344 0062 1A68     		ldr	r2, [r3]
 1345 0064 7B68     		ldr	r3, [r7, #4]
 1346 0066 1B68     		ldr	r3, [r3]
 1347 0068 42F00042 		orr	r2, r2, #-2147483648
 1348 006c 1A60     		str	r2, [r3]
 1349              	.L92:
 928:Drivers/STM32L4xx_HAL_Driver/Src/stm32l4xx_hal_comp.c ****   }
 929:Drivers/STM32L4xx_HAL_Driver/Src/stm32l4xx_hal_comp.c **** 
 930:Drivers/STM32L4xx_HAL_Driver/Src/stm32l4xx_hal_comp.c ****   return status;
 1350              		.loc 1 930 10
 1351 006e FB7B     		ldrb	r3, [r7, #15]	@ zero_extendqisi2
 931:Drivers/STM32L4xx_HAL_Driver/Src/stm32l4xx_hal_comp.c **** }
 1352              		.loc 1 931 1
 1353 0070 1846     		mov	r0, r3
 1354 0072 1437     		adds	r7, r7, #20
 1355              		.cfi_def_cfa_offset 4
 1356 0074 BD46     		mov	sp, r7
 1357              		.cfi_def_cfa_register 13
 1358              		@ sp needed
 1359 0076 5DF8047B 		ldr	r7, [sp], #4
 1360              		.cfi_restore 7
 1361              		.cfi_def_cfa_offset 0
 1362 007a 7047     		bx	lr
 1363              		.cfi_endproc
 1364              	.LFE452:
 1366              		.section	.text.HAL_COMP_GetOutputLevel,"ax",%progbits
 1367              		.align	1
 1368              		.global	HAL_COMP_GetOutputLevel
 1369              		.syntax unified
 1370              		.thumb
 1371              		.thumb_func
 1373              	HAL_COMP_GetOutputLevel:
 1374              	.LFB453:
 932:Drivers/STM32L4xx_HAL_Driver/Src/stm32l4xx_hal_comp.c **** 
 933:Drivers/STM32L4xx_HAL_Driver/Src/stm32l4xx_hal_comp.c **** /**
 934:Drivers/STM32L4xx_HAL_Driver/Src/stm32l4xx_hal_comp.c ****   * @brief  Return the output level (high or low) of the selected comparator.
 935:Drivers/STM32L4xx_HAL_Driver/Src/stm32l4xx_hal_comp.c ****   *         The output level depends on the selected polarity.
 936:Drivers/STM32L4xx_HAL_Driver/Src/stm32l4xx_hal_comp.c ****   *         If the polarity is not inverted:
 937:Drivers/STM32L4xx_HAL_Driver/Src/stm32l4xx_hal_comp.c ****   *           - Comparator output is low when the input plus is at a lower
 938:Drivers/STM32L4xx_HAL_Driver/Src/stm32l4xx_hal_comp.c ****   *             voltage than the input minus
 939:Drivers/STM32L4xx_HAL_Driver/Src/stm32l4xx_hal_comp.c ****   *           - Comparator output is high when the input plus is at a higher
 940:Drivers/STM32L4xx_HAL_Driver/Src/stm32l4xx_hal_comp.c ****   *             voltage than the input minus
 941:Drivers/STM32L4xx_HAL_Driver/Src/stm32l4xx_hal_comp.c ****   *         If the polarity is inverted:
 942:Drivers/STM32L4xx_HAL_Driver/Src/stm32l4xx_hal_comp.c ****   *           - Comparator output is high when the input plus is at a lower
 943:Drivers/STM32L4xx_HAL_Driver/Src/stm32l4xx_hal_comp.c ****   *             voltage than the input minus
 944:Drivers/STM32L4xx_HAL_Driver/Src/stm32l4xx_hal_comp.c ****   *           - Comparator output is low when the input plus is at a higher
 945:Drivers/STM32L4xx_HAL_Driver/Src/stm32l4xx_hal_comp.c ****   *             voltage than the input minus
 946:Drivers/STM32L4xx_HAL_Driver/Src/stm32l4xx_hal_comp.c ****   * @param  hcomp  COMP handle
 947:Drivers/STM32L4xx_HAL_Driver/Src/stm32l4xx_hal_comp.c ****   * @retval Returns the selected comparator output level:
 948:Drivers/STM32L4xx_HAL_Driver/Src/stm32l4xx_hal_comp.c ****   *         @arg COMP_OUTPUT_LEVEL_LOW
 949:Drivers/STM32L4xx_HAL_Driver/Src/stm32l4xx_hal_comp.c ****   *         @arg COMP_OUTPUT_LEVEL_HIGH
 950:Drivers/STM32L4xx_HAL_Driver/Src/stm32l4xx_hal_comp.c ****   *
 951:Drivers/STM32L4xx_HAL_Driver/Src/stm32l4xx_hal_comp.c ****   */
ARM GAS  /tmp/cckJv99E.s 			page 64


 952:Drivers/STM32L4xx_HAL_Driver/Src/stm32l4xx_hal_comp.c **** uint32_t HAL_COMP_GetOutputLevel(const COMP_HandleTypeDef *hcomp)
 953:Drivers/STM32L4xx_HAL_Driver/Src/stm32l4xx_hal_comp.c **** {
 1375              		.loc 1 953 1
 1376              		.cfi_startproc
 1377              		@ args = 0, pretend = 0, frame = 8
 1378              		@ frame_needed = 1, uses_anonymous_args = 0
 1379              		@ link register save eliminated.
 1380 0000 80B4     		push	{r7}
 1381              		.cfi_def_cfa_offset 4
 1382              		.cfi_offset 7, -4
 1383 0002 83B0     		sub	sp, sp, #12
 1384              		.cfi_def_cfa_offset 16
 1385 0004 00AF     		add	r7, sp, #0
 1386              		.cfi_def_cfa_register 7
 1387 0006 7860     		str	r0, [r7, #4]
 954:Drivers/STM32L4xx_HAL_Driver/Src/stm32l4xx_hal_comp.c ****   /* Check the parameter */
 955:Drivers/STM32L4xx_HAL_Driver/Src/stm32l4xx_hal_comp.c ****   assert_param(IS_COMP_ALL_INSTANCE(hcomp->Instance));
 956:Drivers/STM32L4xx_HAL_Driver/Src/stm32l4xx_hal_comp.c **** 
 957:Drivers/STM32L4xx_HAL_Driver/Src/stm32l4xx_hal_comp.c ****   return (uint32_t)(READ_BIT(hcomp->Instance->CSR, COMP_CSR_VALUE)
 1388              		.loc 1 957 21
 1389 0008 7B68     		ldr	r3, [r7, #4]
 1390 000a 1B68     		ldr	r3, [r3]
 1391 000c 1B68     		ldr	r3, [r3]
 1392              		.loc 1 957 10
 1393 000e 9B0F     		lsrs	r3, r3, #30
 1394 0010 03F00103 		and	r3, r3, #1
 958:Drivers/STM32L4xx_HAL_Driver/Src/stm32l4xx_hal_comp.c ****                     >> COMP_OUTPUT_LEVEL_BITOFFSET_POS);
 959:Drivers/STM32L4xx_HAL_Driver/Src/stm32l4xx_hal_comp.c **** }
 1395              		.loc 1 959 1
 1396 0014 1846     		mov	r0, r3
 1397 0016 0C37     		adds	r7, r7, #12
 1398              		.cfi_def_cfa_offset 4
 1399 0018 BD46     		mov	sp, r7
 1400              		.cfi_def_cfa_register 13
 1401              		@ sp needed
 1402 001a 5DF8047B 		ldr	r7, [sp], #4
 1403              		.cfi_restore 7
 1404              		.cfi_def_cfa_offset 0
 1405 001e 7047     		bx	lr
 1406              		.cfi_endproc
 1407              	.LFE453:
 1409              		.section	.text.HAL_COMP_TriggerCallback,"ax",%progbits
 1410              		.align	1
 1411              		.weak	HAL_COMP_TriggerCallback
 1412              		.syntax unified
 1413              		.thumb
 1414              		.thumb_func
 1416              	HAL_COMP_TriggerCallback:
 1417              	.LFB454:
 960:Drivers/STM32L4xx_HAL_Driver/Src/stm32l4xx_hal_comp.c **** 
 961:Drivers/STM32L4xx_HAL_Driver/Src/stm32l4xx_hal_comp.c **** /**
 962:Drivers/STM32L4xx_HAL_Driver/Src/stm32l4xx_hal_comp.c ****   * @brief  Comparator trigger callback.
 963:Drivers/STM32L4xx_HAL_Driver/Src/stm32l4xx_hal_comp.c ****   * @param  hcomp  COMP handle
 964:Drivers/STM32L4xx_HAL_Driver/Src/stm32l4xx_hal_comp.c ****   * @retval None
 965:Drivers/STM32L4xx_HAL_Driver/Src/stm32l4xx_hal_comp.c ****   */
 966:Drivers/STM32L4xx_HAL_Driver/Src/stm32l4xx_hal_comp.c **** __weak void HAL_COMP_TriggerCallback(COMP_HandleTypeDef *hcomp)
 967:Drivers/STM32L4xx_HAL_Driver/Src/stm32l4xx_hal_comp.c **** {
ARM GAS  /tmp/cckJv99E.s 			page 65


 1418              		.loc 1 967 1
 1419              		.cfi_startproc
 1420              		@ args = 0, pretend = 0, frame = 8
 1421              		@ frame_needed = 1, uses_anonymous_args = 0
 1422              		@ link register save eliminated.
 1423 0000 80B4     		push	{r7}
 1424              		.cfi_def_cfa_offset 4
 1425              		.cfi_offset 7, -4
 1426 0002 83B0     		sub	sp, sp, #12
 1427              		.cfi_def_cfa_offset 16
 1428 0004 00AF     		add	r7, sp, #0
 1429              		.cfi_def_cfa_register 7
 1430 0006 7860     		str	r0, [r7, #4]
 968:Drivers/STM32L4xx_HAL_Driver/Src/stm32l4xx_hal_comp.c ****   /* Prevent unused argument(s) compilation warning */
 969:Drivers/STM32L4xx_HAL_Driver/Src/stm32l4xx_hal_comp.c ****   UNUSED(hcomp);
 970:Drivers/STM32L4xx_HAL_Driver/Src/stm32l4xx_hal_comp.c **** 
 971:Drivers/STM32L4xx_HAL_Driver/Src/stm32l4xx_hal_comp.c ****   /* NOTE : This function should not be modified, when the callback is needed,
 972:Drivers/STM32L4xx_HAL_Driver/Src/stm32l4xx_hal_comp.c ****             the HAL_COMP_TriggerCallback should be implemented in the user file
 973:Drivers/STM32L4xx_HAL_Driver/Src/stm32l4xx_hal_comp.c ****    */
 974:Drivers/STM32L4xx_HAL_Driver/Src/stm32l4xx_hal_comp.c **** }
 1431              		.loc 1 974 1
 1432 0008 00BF     		nop
 1433 000a 0C37     		adds	r7, r7, #12
 1434              		.cfi_def_cfa_offset 4
 1435 000c BD46     		mov	sp, r7
 1436              		.cfi_def_cfa_register 13
 1437              		@ sp needed
 1438 000e 5DF8047B 		ldr	r7, [sp], #4
 1439              		.cfi_restore 7
 1440              		.cfi_def_cfa_offset 0
 1441 0012 7047     		bx	lr
 1442              		.cfi_endproc
 1443              	.LFE454:
 1445              		.section	.text.HAL_COMP_GetState,"ax",%progbits
 1446              		.align	1
 1447              		.global	HAL_COMP_GetState
 1448              		.syntax unified
 1449              		.thumb
 1450              		.thumb_func
 1452              	HAL_COMP_GetState:
 1453              	.LFB455:
 975:Drivers/STM32L4xx_HAL_Driver/Src/stm32l4xx_hal_comp.c **** 
 976:Drivers/STM32L4xx_HAL_Driver/Src/stm32l4xx_hal_comp.c **** 
 977:Drivers/STM32L4xx_HAL_Driver/Src/stm32l4xx_hal_comp.c **** /**
 978:Drivers/STM32L4xx_HAL_Driver/Src/stm32l4xx_hal_comp.c ****   * @}
 979:Drivers/STM32L4xx_HAL_Driver/Src/stm32l4xx_hal_comp.c ****   */
 980:Drivers/STM32L4xx_HAL_Driver/Src/stm32l4xx_hal_comp.c **** 
 981:Drivers/STM32L4xx_HAL_Driver/Src/stm32l4xx_hal_comp.c **** /** @defgroup COMP_Exported_Functions_Group4 Peripheral State functions
 982:Drivers/STM32L4xx_HAL_Driver/Src/stm32l4xx_hal_comp.c ****   *  @brief   Peripheral State functions.
 983:Drivers/STM32L4xx_HAL_Driver/Src/stm32l4xx_hal_comp.c ****   *
 984:Drivers/STM32L4xx_HAL_Driver/Src/stm32l4xx_hal_comp.c **** @verbatim
 985:Drivers/STM32L4xx_HAL_Driver/Src/stm32l4xx_hal_comp.c ****  ===============================================================================
 986:Drivers/STM32L4xx_HAL_Driver/Src/stm32l4xx_hal_comp.c ****                       ##### Peripheral State functions #####
 987:Drivers/STM32L4xx_HAL_Driver/Src/stm32l4xx_hal_comp.c ****  ===============================================================================
 988:Drivers/STM32L4xx_HAL_Driver/Src/stm32l4xx_hal_comp.c ****     [..]
 989:Drivers/STM32L4xx_HAL_Driver/Src/stm32l4xx_hal_comp.c ****     This subsection permit to get in run-time the status of the peripheral.
 990:Drivers/STM32L4xx_HAL_Driver/Src/stm32l4xx_hal_comp.c **** 
ARM GAS  /tmp/cckJv99E.s 			page 66


 991:Drivers/STM32L4xx_HAL_Driver/Src/stm32l4xx_hal_comp.c **** @endverbatim
 992:Drivers/STM32L4xx_HAL_Driver/Src/stm32l4xx_hal_comp.c ****   * @{
 993:Drivers/STM32L4xx_HAL_Driver/Src/stm32l4xx_hal_comp.c ****   */
 994:Drivers/STM32L4xx_HAL_Driver/Src/stm32l4xx_hal_comp.c **** 
 995:Drivers/STM32L4xx_HAL_Driver/Src/stm32l4xx_hal_comp.c **** /**
 996:Drivers/STM32L4xx_HAL_Driver/Src/stm32l4xx_hal_comp.c ****   * @brief  Return the COMP handle state.
 997:Drivers/STM32L4xx_HAL_Driver/Src/stm32l4xx_hal_comp.c ****   * @param  hcomp  COMP handle
 998:Drivers/STM32L4xx_HAL_Driver/Src/stm32l4xx_hal_comp.c ****   * @retval HAL state
 999:Drivers/STM32L4xx_HAL_Driver/Src/stm32l4xx_hal_comp.c ****   */
1000:Drivers/STM32L4xx_HAL_Driver/Src/stm32l4xx_hal_comp.c **** HAL_COMP_StateTypeDef HAL_COMP_GetState(const COMP_HandleTypeDef *hcomp)
1001:Drivers/STM32L4xx_HAL_Driver/Src/stm32l4xx_hal_comp.c **** {
 1454              		.loc 1 1001 1
 1455              		.cfi_startproc
 1456              		@ args = 0, pretend = 0, frame = 8
 1457              		@ frame_needed = 1, uses_anonymous_args = 0
 1458              		@ link register save eliminated.
 1459 0000 80B4     		push	{r7}
 1460              		.cfi_def_cfa_offset 4
 1461              		.cfi_offset 7, -4
 1462 0002 83B0     		sub	sp, sp, #12
 1463              		.cfi_def_cfa_offset 16
 1464 0004 00AF     		add	r7, sp, #0
 1465              		.cfi_def_cfa_register 7
 1466 0006 7860     		str	r0, [r7, #4]
1002:Drivers/STM32L4xx_HAL_Driver/Src/stm32l4xx_hal_comp.c ****   /* Check the COMP handle allocation */
1003:Drivers/STM32L4xx_HAL_Driver/Src/stm32l4xx_hal_comp.c ****   if (hcomp == NULL)
 1467              		.loc 1 1003 6
 1468 0008 7B68     		ldr	r3, [r7, #4]
 1469 000a 002B     		cmp	r3, #0
 1470 000c 01D1     		bne	.L104
1004:Drivers/STM32L4xx_HAL_Driver/Src/stm32l4xx_hal_comp.c ****   {
1005:Drivers/STM32L4xx_HAL_Driver/Src/stm32l4xx_hal_comp.c ****     return HAL_COMP_STATE_RESET;
 1471              		.loc 1 1005 12
 1472 000e 0023     		movs	r3, #0
 1473 0010 03E0     		b	.L105
 1474              	.L104:
1006:Drivers/STM32L4xx_HAL_Driver/Src/stm32l4xx_hal_comp.c ****   }
1007:Drivers/STM32L4xx_HAL_Driver/Src/stm32l4xx_hal_comp.c **** 
1008:Drivers/STM32L4xx_HAL_Driver/Src/stm32l4xx_hal_comp.c ****   /* Check the parameter */
1009:Drivers/STM32L4xx_HAL_Driver/Src/stm32l4xx_hal_comp.c ****   assert_param(IS_COMP_ALL_INSTANCE(hcomp->Instance));
1010:Drivers/STM32L4xx_HAL_Driver/Src/stm32l4xx_hal_comp.c **** 
1011:Drivers/STM32L4xx_HAL_Driver/Src/stm32l4xx_hal_comp.c ****   /* Return HAL COMP handle state */
1012:Drivers/STM32L4xx_HAL_Driver/Src/stm32l4xx_hal_comp.c ****   return hcomp->State;
 1475              		.loc 1 1012 15
 1476 0012 7B68     		ldr	r3, [r7, #4]
 1477 0014 93F82530 		ldrb	r3, [r3, #37]
 1478 0018 DBB2     		uxtb	r3, r3
 1479              	.L105:
1013:Drivers/STM32L4xx_HAL_Driver/Src/stm32l4xx_hal_comp.c **** }
 1480              		.loc 1 1013 1
 1481 001a 1846     		mov	r0, r3
 1482 001c 0C37     		adds	r7, r7, #12
 1483              		.cfi_def_cfa_offset 4
 1484 001e BD46     		mov	sp, r7
 1485              		.cfi_def_cfa_register 13
 1486              		@ sp needed
 1487 0020 5DF8047B 		ldr	r7, [sp], #4
ARM GAS  /tmp/cckJv99E.s 			page 67


 1488              		.cfi_restore 7
 1489              		.cfi_def_cfa_offset 0
 1490 0024 7047     		bx	lr
 1491              		.cfi_endproc
 1492              	.LFE455:
 1494              		.section	.text.HAL_COMP_GetError,"ax",%progbits
 1495              		.align	1
 1496              		.global	HAL_COMP_GetError
 1497              		.syntax unified
 1498              		.thumb
 1499              		.thumb_func
 1501              	HAL_COMP_GetError:
 1502              	.LFB456:
1014:Drivers/STM32L4xx_HAL_Driver/Src/stm32l4xx_hal_comp.c **** 
1015:Drivers/STM32L4xx_HAL_Driver/Src/stm32l4xx_hal_comp.c **** /**
1016:Drivers/STM32L4xx_HAL_Driver/Src/stm32l4xx_hal_comp.c ****   * @brief  Return the COMP error code.
1017:Drivers/STM32L4xx_HAL_Driver/Src/stm32l4xx_hal_comp.c ****   * @param hcomp COMP handle
1018:Drivers/STM32L4xx_HAL_Driver/Src/stm32l4xx_hal_comp.c ****   * @retval COMP error code
1019:Drivers/STM32L4xx_HAL_Driver/Src/stm32l4xx_hal_comp.c ****   */
1020:Drivers/STM32L4xx_HAL_Driver/Src/stm32l4xx_hal_comp.c **** uint32_t HAL_COMP_GetError(const COMP_HandleTypeDef *hcomp)
1021:Drivers/STM32L4xx_HAL_Driver/Src/stm32l4xx_hal_comp.c **** {
 1503              		.loc 1 1021 1
 1504              		.cfi_startproc
 1505              		@ args = 0, pretend = 0, frame = 8
 1506              		@ frame_needed = 1, uses_anonymous_args = 0
 1507              		@ link register save eliminated.
 1508 0000 80B4     		push	{r7}
 1509              		.cfi_def_cfa_offset 4
 1510              		.cfi_offset 7, -4
 1511 0002 83B0     		sub	sp, sp, #12
 1512              		.cfi_def_cfa_offset 16
 1513 0004 00AF     		add	r7, sp, #0
 1514              		.cfi_def_cfa_register 7
 1515 0006 7860     		str	r0, [r7, #4]
1022:Drivers/STM32L4xx_HAL_Driver/Src/stm32l4xx_hal_comp.c ****   /* Check the parameters */
1023:Drivers/STM32L4xx_HAL_Driver/Src/stm32l4xx_hal_comp.c ****   assert_param(IS_COMP_ALL_INSTANCE(hcomp->Instance));
1024:Drivers/STM32L4xx_HAL_Driver/Src/stm32l4xx_hal_comp.c **** 
1025:Drivers/STM32L4xx_HAL_Driver/Src/stm32l4xx_hal_comp.c ****   return hcomp->ErrorCode;
 1516              		.loc 1 1025 15
 1517 0008 7B68     		ldr	r3, [r7, #4]
 1518 000a 9B6A     		ldr	r3, [r3, #40]
1026:Drivers/STM32L4xx_HAL_Driver/Src/stm32l4xx_hal_comp.c **** }
 1519              		.loc 1 1026 1
 1520 000c 1846     		mov	r0, r3
 1521 000e 0C37     		adds	r7, r7, #12
 1522              		.cfi_def_cfa_offset 4
 1523 0010 BD46     		mov	sp, r7
 1524              		.cfi_def_cfa_register 13
 1525              		@ sp needed
 1526 0012 5DF8047B 		ldr	r7, [sp], #4
 1527              		.cfi_restore 7
 1528              		.cfi_def_cfa_offset 0
 1529 0016 7047     		bx	lr
 1530              		.cfi_endproc
 1531              	.LFE456:
 1533              		.text
 1534              	.Letext0:
ARM GAS  /tmp/cckJv99E.s 			page 68


 1535              		.file 3 "/usr/lib/gcc/arm-none-eabi/13.2.1/include/stdint.h"
 1536              		.file 4 "Drivers/CMSIS/Device/ST/STM32L4xx/Include/stm32l475xx.h"
 1537              		.file 5 "Drivers/STM32L4xx_HAL_Driver/Inc/stm32l4xx_hal_def.h"
 1538              		.file 6 "Drivers/STM32L4xx_HAL_Driver/Inc/stm32l4xx_hal_comp.h"
 1539              		.file 7 "Drivers/STM32L4xx_HAL_Driver/Inc/stm32l4xx_ll_dma.h"
 1540              		.file 8 "Drivers/CMSIS/Device/ST/STM32L4xx/Include/system_stm32l4xx.h"
ARM GAS  /tmp/cckJv99E.s 			page 69


DEFINED SYMBOLS
                            *ABS*:00000000 stm32l4xx_hal_comp.c
     /tmp/cckJv99E.s:21     .rodata.CHANNEL_OFFSET_TAB:00000000 $d
     /tmp/cckJv99E.s:24     .rodata.CHANNEL_OFFSET_TAB:00000000 CHANNEL_OFFSET_TAB
     /tmp/cckJv99E.s:27     .text.LL_EXTI_EnableIT_0_31:00000000 $t
     /tmp/cckJv99E.s:32     .text.LL_EXTI_EnableIT_0_31:00000000 LL_EXTI_EnableIT_0_31
     /tmp/cckJv99E.s:69     .text.LL_EXTI_EnableIT_0_31:00000020 $d
     /tmp/cckJv99E.s:74     .text.LL_EXTI_DisableIT_0_31:00000000 $t
     /tmp/cckJv99E.s:79     .text.LL_EXTI_DisableIT_0_31:00000000 LL_EXTI_DisableIT_0_31
     /tmp/cckJv99E.s:116    .text.LL_EXTI_DisableIT_0_31:00000024 $d
     /tmp/cckJv99E.s:121    .text.LL_EXTI_EnableEvent_0_31:00000000 $t
     /tmp/cckJv99E.s:126    .text.LL_EXTI_EnableEvent_0_31:00000000 LL_EXTI_EnableEvent_0_31
     /tmp/cckJv99E.s:162    .text.LL_EXTI_EnableEvent_0_31:00000020 $d
     /tmp/cckJv99E.s:167    .text.LL_EXTI_DisableEvent_0_31:00000000 $t
     /tmp/cckJv99E.s:172    .text.LL_EXTI_DisableEvent_0_31:00000000 LL_EXTI_DisableEvent_0_31
     /tmp/cckJv99E.s:209    .text.LL_EXTI_DisableEvent_0_31:00000024 $d
     /tmp/cckJv99E.s:214    .text.LL_EXTI_EnableRisingTrig_0_31:00000000 $t
     /tmp/cckJv99E.s:219    .text.LL_EXTI_EnableRisingTrig_0_31:00000000 LL_EXTI_EnableRisingTrig_0_31
     /tmp/cckJv99E.s:255    .text.LL_EXTI_EnableRisingTrig_0_31:00000020 $d
     /tmp/cckJv99E.s:260    .text.LL_EXTI_DisableRisingTrig_0_31:00000000 $t
     /tmp/cckJv99E.s:265    .text.LL_EXTI_DisableRisingTrig_0_31:00000000 LL_EXTI_DisableRisingTrig_0_31
     /tmp/cckJv99E.s:302    .text.LL_EXTI_DisableRisingTrig_0_31:00000024 $d
     /tmp/cckJv99E.s:307    .text.LL_EXTI_EnableFallingTrig_0_31:00000000 $t
     /tmp/cckJv99E.s:312    .text.LL_EXTI_EnableFallingTrig_0_31:00000000 LL_EXTI_EnableFallingTrig_0_31
     /tmp/cckJv99E.s:348    .text.LL_EXTI_EnableFallingTrig_0_31:00000020 $d
     /tmp/cckJv99E.s:353    .text.LL_EXTI_DisableFallingTrig_0_31:00000000 $t
     /tmp/cckJv99E.s:358    .text.LL_EXTI_DisableFallingTrig_0_31:00000000 LL_EXTI_DisableFallingTrig_0_31
     /tmp/cckJv99E.s:395    .text.LL_EXTI_DisableFallingTrig_0_31:00000024 $d
     /tmp/cckJv99E.s:400    .text.LL_EXTI_IsActiveFlag_0_31:00000000 $t
     /tmp/cckJv99E.s:405    .text.LL_EXTI_IsActiveFlag_0_31:00000000 LL_EXTI_IsActiveFlag_0_31
     /tmp/cckJv99E.s:451    .text.LL_EXTI_IsActiveFlag_0_31:00000028 $d
     /tmp/cckJv99E.s:456    .text.LL_EXTI_ClearFlag_0_31:00000000 $t
     /tmp/cckJv99E.s:461    .text.LL_EXTI_ClearFlag_0_31:00000000 LL_EXTI_ClearFlag_0_31
     /tmp/cckJv99E.s:494    .text.LL_EXTI_ClearFlag_0_31:0000001c $d
     /tmp/cckJv99E.s:499    .text.HAL_COMP_Init:00000000 $t
     /tmp/cckJv99E.s:505    .text.HAL_COMP_Init:00000000 HAL_COMP_Init
     /tmp/cckJv99E.s:908    .text.HAL_COMP_MspInit:00000000 HAL_COMP_MspInit
     /tmp/cckJv99E.s:815    .text.HAL_COMP_Init:000001cc $d
     /tmp/cckJv99E.s:825    .text.HAL_COMP_DeInit:00000000 $t
     /tmp/cckJv99E.s:831    .text.HAL_COMP_DeInit:00000000 HAL_COMP_DeInit
     /tmp/cckJv99E.s:944    .text.HAL_COMP_MspDeInit:00000000 HAL_COMP_MspDeInit
     /tmp/cckJv99E.s:902    .text.HAL_COMP_MspInit:00000000 $t
     /tmp/cckJv99E.s:938    .text.HAL_COMP_MspDeInit:00000000 $t
     /tmp/cckJv99E.s:974    .text.HAL_COMP_Start:00000000 $t
     /tmp/cckJv99E.s:980    .text.HAL_COMP_Start:00000000 HAL_COMP_Start
     /tmp/cckJv99E.s:1089   .text.HAL_COMP_Start:0000008c $d
     /tmp/cckJv99E.s:1095   .text.HAL_COMP_Stop:00000000 $t
     /tmp/cckJv99E.s:1101   .text.HAL_COMP_Stop:00000000 HAL_COMP_Stop
     /tmp/cckJv99E.s:1183   .text.HAL_COMP_IRQHandler:00000000 $t
     /tmp/cckJv99E.s:1189   .text.HAL_COMP_IRQHandler:00000000 HAL_COMP_IRQHandler
     /tmp/cckJv99E.s:1416   .text.HAL_COMP_TriggerCallback:00000000 HAL_COMP_TriggerCallback
     /tmp/cckJv99E.s:1257   .text.HAL_COMP_IRQHandler:00000054 $d
     /tmp/cckJv99E.s:1263   .text.HAL_COMP_Lock:00000000 $t
     /tmp/cckJv99E.s:1269   .text.HAL_COMP_Lock:00000000 HAL_COMP_Lock
     /tmp/cckJv99E.s:1367   .text.HAL_COMP_GetOutputLevel:00000000 $t
     /tmp/cckJv99E.s:1373   .text.HAL_COMP_GetOutputLevel:00000000 HAL_COMP_GetOutputLevel
     /tmp/cckJv99E.s:1410   .text.HAL_COMP_TriggerCallback:00000000 $t
ARM GAS  /tmp/cckJv99E.s 			page 70


     /tmp/cckJv99E.s:1446   .text.HAL_COMP_GetState:00000000 $t
     /tmp/cckJv99E.s:1452   .text.HAL_COMP_GetState:00000000 HAL_COMP_GetState
     /tmp/cckJv99E.s:1495   .text.HAL_COMP_GetError:00000000 $t
     /tmp/cckJv99E.s:1501   .text.HAL_COMP_GetError:00000000 HAL_COMP_GetError
                           .group:00000000 wm4.0.e7b64c2c371cf922f2c8028878d5c18e
                           .group:00000000 wm4.stm32l4xx_hal_conf.h.23.286c2f63aaa73ed97ffb4d26f7caa6e9
                           .group:00000000 wm4.stm32l4xx.h.38.9f5830373ca31b8a3cd182fdc6c7b69a
                           .group:00000000 wm4.stm32l475xx.h.34.2f1a75aed66751e299f09004aef64973
                           .group:00000000 wm4.stdint.h.29.6d480f4ba0f60596e88234283d42444f
                           .group:00000000 wm4.cmsis_version.h.32.46e8eccfa2cfeaae11d008bb2823a3ed
                           .group:00000000 wm4.core_cm4.h.66.e4ff136c4a17abc46741866f64f8e729
                           .group:00000000 wm4.cmsis_gcc.h.26.78077cef1206e937f7b56043ffca496a
                           .group:00000000 wm4.core_cm4.h.174.fcddd62df80231752fa39eb9b61dadfe
                           .group:00000000 wm4.mpu_armv7.h.32.4049752bb5792d4e15357775e9506cfc
                           .group:00000000 wm4.stm32l475xx.h.423.4d783859c9ac66890c9807dd7bd3a4db
                           .group:00000000 wm4.stm32l4xx.h.196.f5ae8047c57b6175c94f246ef967a286
                           .group:00000000 wm4.stm32_hal_legacy.h.22.08b8350ccf512ba8d98002fb33e7cbe5
                           .group:00000000 wm4.stddef.h.39.0dc9006b34572d4d9cae4c8b422c4971
                           .group:00000000 wm4.stm32l4xx_hal_def.h.58.1058a33f7217e935f2a6b51956d66a69
                           .group:00000000 wm4.stm32l4xx_hal_rcc.h.156.ab8eecc4e10f4827a2aa75d3549a356d
                           .group:00000000 wm4.stm32l4xx_hal_rcc_ex.h.20.4a82a27d561b6d42fa16a54f82e29067
                           .group:00000000 wm4.stm32l4xx_hal_gpio.h.21.2d2b1fd6aa6afa7b6dcc89cf752a9a25
                           .group:00000000 wm4.stm32l4xx_hal_gpio_ex.h.21.7ea705f5185dd3c6b8ea336f2858cd46
                           .group:00000000 wm4.stm32l4xx_ll_dma.h.21.b30e7f48d60d1fc53041ec1e3fd6e54a
                           .group:00000000 wm4.stm32l4xx_hal_dma.h.166.54a7f8d65cee6f051d541dc010387b5a
                           .group:00000000 wm4.stm32l4xx_hal_dfsdm.h.21.6785e38d00075079c7f2e5657def82ae
                           .group:00000000 wm4.stm32l4xx_hal_cortex.h.21.cb491126bd2d6f44e90b66f27acb8434
                           .group:00000000 wm4.stm32l4xx_ll_adc.h.21.0c578f71501c74365c67044efed214d6
                           .group:00000000 wm4.stm32l4xx_hal_adc.h.411.68f60682cdb20556089756a482f23764
                           .group:00000000 wm4.stm32l4xx_hal_adc_ex.h.21.7b82cb80166a21dfa8cb3e2fa8f8e654
                           .group:00000000 wm4.stm32l4xx_hal_can.h.21.5019586d8e7137c0cec16eb1f9d6677b
                           .group:00000000 wm4.stm32l4xx_ll_exti.h.21.d866eff070d6f999af2ce4ea60aa40ac
                           .group:00000000 wm4.stm32l4xx_hal_comp.h.87.7f14cb673a463359c83faa552328844d
                           .group:00000000 wm4.stm32l4xx_hal_crc.h.21.4c36a140cca35e6a8e478e76c6ad98e3
                           .group:00000000 wm4.stm32l4xx_hal_crc_ex.h.21.9cc3dead436542d416ee5572c231a242
                           .group:00000000 wm4.stm32l4xx_hal_dac.h.21.69feba704135531cf3d9b92de27b71d5
                           .group:00000000 wm4.stm32l4xx_hal_dac_ex.h.21.c86699169bead5415cc3e94027b67df4
                           .group:00000000 wm4.stm32l4xx_hal_exti.h.21.242e0410874d91d6d7523948fff74125
                           .group:00000000 wm4.stm32l4xx_hal_firewall.h.21.7ed44f4228fcc2ef96d2177dd8632645
                           .group:00000000 wm4.stm32l4xx_hal_flash.h.20.5e337018ccfa211b4afe888a79aae9f5
                           .group:00000000 wm4.stm32l4xx_hal_flash.h.846.0445f6ea07a3f9aac82891c8687d96fb
                           .group:00000000 wm4.stm32l4xx_ll_usb.h.21.5b5e42fb72a33dd326d7b20064953946
                           .group:00000000 wm4.stm32l4xx_hal_hcd.h.107.73f2fd24f57e8822da5cc86bd5ad3dfd
                           .group:00000000 wm4.stm32l4xx_hal_i2c.h.21.e7fc2065051c77019a818818e4a637d8
                           .group:00000000 wm4.stm32l4xx_hal_i2c_ex.h.21.ad4ad4e558d4fec06df87d163a6927d7
                           .group:00000000 wm4.stm32l4xx_hal_i2c.h.737.fa3908c81294cf0f9894ae336466002c
                           .group:00000000 wm4.stm32l4xx_hal_irda.h.21.136c042f9eef333167a549cc099df0c9
                           .group:00000000 wm4.stm32l4xx_hal_irda_ex.h.21.e0ada4e6d2b2cadfb512dd3c8ac0a637
                           .group:00000000 wm4.stm32l4xx_hal_iwdg.h.21.f94ca75f2fe1ebc7a2a8d0f5b58d8430
                           .group:00000000 wm4.stm32l4xx_hal_lptim.h.21.78222ea6639fc8c02789d293a048991e
                           .group:00000000 wm4.stm32l4xx_ll_sdmmc.h.21.65a5a8696b6ca7b87cc93d218084d702
                           .group:00000000 wm4.stm32l4xx_hal_mmc.h.69.8f4159f0a88ef1ebc33c58a8f10362b9
                           .group:00000000 wm4.stm32l4xx_ll_fmc.h.21.156a244c55010643ee92c6119049cb68
                           .group:00000000 wm4.stm32l4xx_hal_nand.h.176.9bfeac6e4e757991088bbd0df44e2be9
                           .group:00000000 wm4.stm32l4xx_hal_nor.h.21.d47e91e825f466bbac02fac0a7845a7a
                           .group:00000000 wm4.stm32l4xx_hal_opamp.h.21.9d841e1eaccee939f247b3f973f8af5f
                           .group:00000000 wm4.stm32l4xx_hal_pcd.h.169.addb1fac652268a18a0707cfcb5e2e47
ARM GAS  /tmp/cckJv99E.s 			page 71


                           .group:00000000 wm4.stm32l4xx_hal_pwr.h.21.7ddab2caa97243c36e496eca17b27618
                           .group:00000000 wm4.stm32l4xx_hal_pwr_ex.h.21.65ad8bbdbcb1950d945c0de10f22dc80
                           .group:00000000 wm4.stm32l4xx_hal_qspi.h.21.0291dad4eaa82101f2f77d76315c9b12
                           .group:00000000 wm4.stm32l4xx_hal_rng.h.21.96593715bdeab0c74ac9dfc538fb2feb
                           .group:00000000 wm4.stm32l4xx_hal_rtc.h.21.9da6b1aeebde99930891f803cb7f9678
                           .group:00000000 wm4.stm32l4xx_hal_rtc_ex.h.21.c692539378320719c7f2a2da1ca64502
                           .group:00000000 wm4.stm32l4xx_hal_rtc.h.999.c8bd9450c783628bd606ecb31bea5cc9
                           .group:00000000 wm4.stm32l4xx_hal_sai.h.21.c1165aaf2bbde65fae28ed4817be5cc5
                           .group:00000000 wm4.stm32l4xx_hal_sd.h.21.b395c90a87e82f7e8d77d4a518036063
                           .group:00000000 wm4.stm32l4xx_hal_smartcard.h.21.423c3ad63e0df35b864303e89e6d253c
                           .group:00000000 wm4.stm32l4xx_hal_smartcard_ex.h.21.801a2ce9252a785aec000b3fc7667a74
                           .group:00000000 wm4.stm32l4xx_hal_smbus.h.21.7480adb16468bfdce819ee591f21299e
                           .group:00000000 wm4.stm32l4xx_hal_smbus_ex.h.21.bdc715f5f6fb6612a871d3c03c3b871f
                           .group:00000000 wm4.stm32l4xx_hal_spi.h.21.3b51f9f7b241962f6b3483c47a43334f
                           .group:00000000 wm4.stm32l4xx_hal_sram.h.21.285210181e158bddc1cdde63dde572fd
                           .group:00000000 wm4.stm32l4xx_hal_swpmi.h.21.787f994f40b117a62aad9a6dd408b8fc
                           .group:00000000 wm4.stm32l4xx_hal_tim.h.21.d190832030e7505384ad081daa7ba8d6
                           .group:00000000 wm4.stm32l4xx_hal_tim_ex.h.21.1d0860218366ee9f64a97fd8af0ddee1
                           .group:00000000 wm4.stm32l4xx_hal_tsc.h.21.e9010049847ea38297d4b95a5ede0d8c
                           .group:00000000 wm4.stm32l4xx_hal_uart.h.21.480c0a64ca01596a921cda9dceb01df4
                           .group:00000000 wm4.stm32l4xx_hal_uart_ex.h.21.d793e64693c93af07c90464aef42bd83
                           .group:00000000 wm4.stm32l4xx_hal_usart.h.21.561c0058e33cb8df6671dcd29d5d25f9
                           .group:00000000 wm4.stm32l4xx_hal_usart_ex.h.21.111da650523691ebc80d64103d7b26e5
                           .group:00000000 wm4.stm32l4xx_hal_wwdg.h.21.073aa79d58120ae4fb8590c46b210051
                           .group:00000000 wm4.stm32l4xx_hal.h.75.d364b3778b3801d2f66bb409c48d396d

UNDEFINED SYMBOLS
SystemCoreClock
