ARM GAS  /tmp/ccxDtYCK.s 			page 1


   1              		.cpu cortex-m4
   2              		.arch armv7e-m
   3              		.fpu fpv4-sp-d16
   4              		.eabi_attribute 27, 1
   5              		.eabi_attribute 28, 1
   6              		.eabi_attribute 20, 1
   7              		.eabi_attribute 21, 1
   8              		.eabi_attribute 23, 3
   9              		.eabi_attribute 24, 1
  10              		.eabi_attribute 25, 1
  11              		.eabi_attribute 26, 1
  12              		.eabi_attribute 30, 6
  13              		.eabi_attribute 34, 1
  14              		.eabi_attribute 18, 4
  15              		.file	"stm32l475e_iot01_psensor.c"
  16              		.text
  17              	.Ltext0:
  18              		.cfi_sections	.debug_frame
  19              		.file 1 "Drivers/BSP/B-L475E-IOT01/stm32l475e_iot01_psensor.c"
  20              		.section	.rodata.CHANNEL_OFFSET_TAB,"a"
  21              		.align	2
  24              	CHANNEL_OFFSET_TAB:
  25 0000 081C3044 		.ascii	"\010\0340DXl\200"
  25      586C80
  26              		.section	.bss.Psensor_drv,"aw",%nobits
  27              		.align	2
  30              	Psensor_drv:
  31 0000 00000000 		.space	4
  32              		.section	.text.BSP_PSENSOR_Init,"ax",%progbits
  33              		.align	1
  34              		.global	BSP_PSENSOR_Init
  35              		.syntax unified
  36              		.thumb
  37              		.thumb_func
  39              	BSP_PSENSOR_Init:
  40              	.LFB445:
   1:Drivers/BSP/B-L475E-IOT01/stm32l475e_iot01_psensor.c **** /**
   2:Drivers/BSP/B-L475E-IOT01/stm32l475e_iot01_psensor.c ****   ******************************************************************************
   3:Drivers/BSP/B-L475E-IOT01/stm32l475e_iot01_psensor.c ****   * @file    stm32l475e_iot01_psensor.c
   4:Drivers/BSP/B-L475E-IOT01/stm32l475e_iot01_psensor.c ****   * @author  MCD Application Team
   5:Drivers/BSP/B-L475E-IOT01/stm32l475e_iot01_psensor.c ****   * @brief   This file provides a set of functions needed to manage the pressure sensor
   6:Drivers/BSP/B-L475E-IOT01/stm32l475e_iot01_psensor.c ****   ******************************************************************************
   7:Drivers/BSP/B-L475E-IOT01/stm32l475e_iot01_psensor.c ****   * @attention
   8:Drivers/BSP/B-L475E-IOT01/stm32l475e_iot01_psensor.c ****   *
   9:Drivers/BSP/B-L475E-IOT01/stm32l475e_iot01_psensor.c ****   * Copyright (c) 2017 STMicroelectronics.
  10:Drivers/BSP/B-L475E-IOT01/stm32l475e_iot01_psensor.c ****   * All rights reserved.
  11:Drivers/BSP/B-L475E-IOT01/stm32l475e_iot01_psensor.c ****   *
  12:Drivers/BSP/B-L475E-IOT01/stm32l475e_iot01_psensor.c ****   * This software is licensed under terms that can be found in the LICENSE file
  13:Drivers/BSP/B-L475E-IOT01/stm32l475e_iot01_psensor.c ****   * in the root directory of this software component.
  14:Drivers/BSP/B-L475E-IOT01/stm32l475e_iot01_psensor.c ****   * If no LICENSE file comes with this software, it is provided AS-IS.
  15:Drivers/BSP/B-L475E-IOT01/stm32l475e_iot01_psensor.c ****   *
  16:Drivers/BSP/B-L475E-IOT01/stm32l475e_iot01_psensor.c ****   ******************************************************************************
  17:Drivers/BSP/B-L475E-IOT01/stm32l475e_iot01_psensor.c ****   */
  18:Drivers/BSP/B-L475E-IOT01/stm32l475e_iot01_psensor.c **** 
  19:Drivers/BSP/B-L475E-IOT01/stm32l475e_iot01_psensor.c **** /* Includes ------------------------------------------------------------------*/
  20:Drivers/BSP/B-L475E-IOT01/stm32l475e_iot01_psensor.c **** #include "stm32l475e_iot01_psensor.h"
  21:Drivers/BSP/B-L475E-IOT01/stm32l475e_iot01_psensor.c **** 
ARM GAS  /tmp/ccxDtYCK.s 			page 2


  22:Drivers/BSP/B-L475E-IOT01/stm32l475e_iot01_psensor.c **** /** @addtogroup BSP
  23:Drivers/BSP/B-L475E-IOT01/stm32l475e_iot01_psensor.c ****   * @{
  24:Drivers/BSP/B-L475E-IOT01/stm32l475e_iot01_psensor.c ****   */ 
  25:Drivers/BSP/B-L475E-IOT01/stm32l475e_iot01_psensor.c **** 
  26:Drivers/BSP/B-L475E-IOT01/stm32l475e_iot01_psensor.c **** /** @addtogroup STM32L475E_IOT01
  27:Drivers/BSP/B-L475E-IOT01/stm32l475e_iot01_psensor.c ****   * @{
  28:Drivers/BSP/B-L475E-IOT01/stm32l475e_iot01_psensor.c ****   */
  29:Drivers/BSP/B-L475E-IOT01/stm32l475e_iot01_psensor.c **** 
  30:Drivers/BSP/B-L475E-IOT01/stm32l475e_iot01_psensor.c **** /** @defgroup STM32L475E_IOT01_PRESSURE PRESSURE
  31:Drivers/BSP/B-L475E-IOT01/stm32l475e_iot01_psensor.c ****   * @{
  32:Drivers/BSP/B-L475E-IOT01/stm32l475e_iot01_psensor.c ****   */
  33:Drivers/BSP/B-L475E-IOT01/stm32l475e_iot01_psensor.c **** 
  34:Drivers/BSP/B-L475E-IOT01/stm32l475e_iot01_psensor.c **** /** @defgroup STM32L475E_IOT01_PRESSURE_Private_Variables PRESSURE Private Variables 
  35:Drivers/BSP/B-L475E-IOT01/stm32l475e_iot01_psensor.c ****   * @{
  36:Drivers/BSP/B-L475E-IOT01/stm32l475e_iot01_psensor.c ****   */ 
  37:Drivers/BSP/B-L475E-IOT01/stm32l475e_iot01_psensor.c **** static PSENSOR_DrvTypeDef *Psensor_drv;  
  38:Drivers/BSP/B-L475E-IOT01/stm32l475e_iot01_psensor.c **** /**
  39:Drivers/BSP/B-L475E-IOT01/stm32l475e_iot01_psensor.c ****   * @}
  40:Drivers/BSP/B-L475E-IOT01/stm32l475e_iot01_psensor.c ****   */
  41:Drivers/BSP/B-L475E-IOT01/stm32l475e_iot01_psensor.c **** 
  42:Drivers/BSP/B-L475E-IOT01/stm32l475e_iot01_psensor.c **** /** @defgroup STM32L475E_IOT01_PRESSURE_Private_Functions PRESSURE Private Functions
  43:Drivers/BSP/B-L475E-IOT01/stm32l475e_iot01_psensor.c ****   * @{
  44:Drivers/BSP/B-L475E-IOT01/stm32l475e_iot01_psensor.c ****   */ 
  45:Drivers/BSP/B-L475E-IOT01/stm32l475e_iot01_psensor.c **** 
  46:Drivers/BSP/B-L475E-IOT01/stm32l475e_iot01_psensor.c **** /**
  47:Drivers/BSP/B-L475E-IOT01/stm32l475e_iot01_psensor.c ****   * @brief  Initializes peripherals used by the I2C Pressure Sensor driver.
  48:Drivers/BSP/B-L475E-IOT01/stm32l475e_iot01_psensor.c ****   * @retval PSENSOR status
  49:Drivers/BSP/B-L475E-IOT01/stm32l475e_iot01_psensor.c ****   */
  50:Drivers/BSP/B-L475E-IOT01/stm32l475e_iot01_psensor.c **** uint32_t BSP_PSENSOR_Init(void)
  51:Drivers/BSP/B-L475E-IOT01/stm32l475e_iot01_psensor.c **** {
  41              		.loc 1 51 1
  42              		.cfi_startproc
  43              		@ args = 0, pretend = 0, frame = 8
  44              		@ frame_needed = 1, uses_anonymous_args = 0
  45 0000 80B5     		push	{r7, lr}
  46              		.cfi_def_cfa_offset 8
  47              		.cfi_offset 7, -8
  48              		.cfi_offset 14, -4
  49 0002 82B0     		sub	sp, sp, #8
  50              		.cfi_def_cfa_offset 16
  51 0004 00AF     		add	r7, sp, #0
  52              		.cfi_def_cfa_register 7
  52:Drivers/BSP/B-L475E-IOT01/stm32l475e_iot01_psensor.c ****   uint32_t ret;
  53:Drivers/BSP/B-L475E-IOT01/stm32l475e_iot01_psensor.c ****    
  54:Drivers/BSP/B-L475E-IOT01/stm32l475e_iot01_psensor.c ****   if(LPS22HB_P_Drv.ReadID(LPS22HB_I2C_ADDRESS) != LPS22HB_WHO_AM_I_VAL)
  53              		.loc 1 54 19
  54 0006 0C4B     		ldr	r3, .L5
  55 0008 5B68     		ldr	r3, [r3, #4]
  56              		.loc 1 54 6
  57 000a BA20     		movs	r0, #186
  58 000c 9847     		blx	r3
  59              	.LVL0:
  60 000e 0346     		mov	r3, r0
  61              		.loc 1 54 5 discriminator 1
  62 0010 B12B     		cmp	r3, #177
  63 0012 02D0     		beq	.L2
  55:Drivers/BSP/B-L475E-IOT01/stm32l475e_iot01_psensor.c ****   {
ARM GAS  /tmp/ccxDtYCK.s 			page 3


  56:Drivers/BSP/B-L475E-IOT01/stm32l475e_iot01_psensor.c ****     ret = PSENSOR_ERROR;
  64              		.loc 1 56 9
  65 0014 0123     		movs	r3, #1
  66 0016 7B60     		str	r3, [r7, #4]
  67 0018 09E0     		b	.L3
  68              	.L2:
  57:Drivers/BSP/B-L475E-IOT01/stm32l475e_iot01_psensor.c ****   }
  58:Drivers/BSP/B-L475E-IOT01/stm32l475e_iot01_psensor.c ****   else
  59:Drivers/BSP/B-L475E-IOT01/stm32l475e_iot01_psensor.c ****   {
  60:Drivers/BSP/B-L475E-IOT01/stm32l475e_iot01_psensor.c ****      Psensor_drv = &LPS22HB_P_Drv;
  69              		.loc 1 60 18
  70 001a 084B     		ldr	r3, .L5+4
  71 001c 064A     		ldr	r2, .L5
  72 001e 1A60     		str	r2, [r3]
  61:Drivers/BSP/B-L475E-IOT01/stm32l475e_iot01_psensor.c ****      
  62:Drivers/BSP/B-L475E-IOT01/stm32l475e_iot01_psensor.c ****     /* PSENSOR Init */   
  63:Drivers/BSP/B-L475E-IOT01/stm32l475e_iot01_psensor.c ****     Psensor_drv->Init(LPS22HB_I2C_ADDRESS);
  73              		.loc 1 63 16
  74 0020 064B     		ldr	r3, .L5+4
  75 0022 1B68     		ldr	r3, [r3]
  76 0024 1B68     		ldr	r3, [r3]
  77              		.loc 1 63 5
  78 0026 BA20     		movs	r0, #186
  79 0028 9847     		blx	r3
  80              	.LVL1:
  64:Drivers/BSP/B-L475E-IOT01/stm32l475e_iot01_psensor.c ****     ret = PSENSOR_OK;
  81              		.loc 1 64 9
  82 002a 0023     		movs	r3, #0
  83 002c 7B60     		str	r3, [r7, #4]
  84              	.L3:
  65:Drivers/BSP/B-L475E-IOT01/stm32l475e_iot01_psensor.c ****   }
  66:Drivers/BSP/B-L475E-IOT01/stm32l475e_iot01_psensor.c ****   
  67:Drivers/BSP/B-L475E-IOT01/stm32l475e_iot01_psensor.c ****   return ret;
  85              		.loc 1 67 10
  86 002e 7B68     		ldr	r3, [r7, #4]
  68:Drivers/BSP/B-L475E-IOT01/stm32l475e_iot01_psensor.c **** }
  87              		.loc 1 68 1
  88 0030 1846     		mov	r0, r3
  89 0032 0837     		adds	r7, r7, #8
  90              		.cfi_def_cfa_offset 8
  91 0034 BD46     		mov	sp, r7
  92              		.cfi_def_cfa_register 13
  93              		@ sp needed
  94 0036 80BD     		pop	{r7, pc}
  95              	.L6:
  96              		.align	2
  97              	.L5:
  98 0038 00000000 		.word	LPS22HB_P_Drv
  99 003c 00000000 		.word	Psensor_drv
 100              		.cfi_endproc
 101              	.LFE445:
 103              		.section	.text.BSP_PSENSOR_ReadID,"ax",%progbits
 104              		.align	1
 105              		.global	BSP_PSENSOR_ReadID
 106              		.syntax unified
 107              		.thumb
 108              		.thumb_func
ARM GAS  /tmp/ccxDtYCK.s 			page 4


 110              	BSP_PSENSOR_ReadID:
 111              	.LFB446:
  69:Drivers/BSP/B-L475E-IOT01/stm32l475e_iot01_psensor.c **** 
  70:Drivers/BSP/B-L475E-IOT01/stm32l475e_iot01_psensor.c **** /**
  71:Drivers/BSP/B-L475E-IOT01/stm32l475e_iot01_psensor.c ****   * @brief  Read ID of LPS22HB.
  72:Drivers/BSP/B-L475E-IOT01/stm32l475e_iot01_psensor.c ****   * @retval LPS22HB ID value.
  73:Drivers/BSP/B-L475E-IOT01/stm32l475e_iot01_psensor.c ****   */
  74:Drivers/BSP/B-L475E-IOT01/stm32l475e_iot01_psensor.c **** uint8_t BSP_PSENSOR_ReadID(void)
  75:Drivers/BSP/B-L475E-IOT01/stm32l475e_iot01_psensor.c **** { 
 112              		.loc 1 75 1
 113              		.cfi_startproc
 114              		@ args = 0, pretend = 0, frame = 0
 115              		@ frame_needed = 1, uses_anonymous_args = 0
 116 0000 80B5     		push	{r7, lr}
 117              		.cfi_def_cfa_offset 8
 118              		.cfi_offset 7, -8
 119              		.cfi_offset 14, -4
 120 0002 00AF     		add	r7, sp, #0
 121              		.cfi_def_cfa_register 7
  76:Drivers/BSP/B-L475E-IOT01/stm32l475e_iot01_psensor.c ****   return Psensor_drv->ReadID(LPS22HB_I2C_ADDRESS);
 122              		.loc 1 76 21
 123 0004 034B     		ldr	r3, .L9
 124 0006 1B68     		ldr	r3, [r3]
 125 0008 5B68     		ldr	r3, [r3, #4]
 126              		.loc 1 76 10
 127 000a BA20     		movs	r0, #186
 128 000c 9847     		blx	r3
 129              	.LVL2:
 130 000e 0346     		mov	r3, r0
  77:Drivers/BSP/B-L475E-IOT01/stm32l475e_iot01_psensor.c **** }
 131              		.loc 1 77 1
 132 0010 1846     		mov	r0, r3
 133 0012 80BD     		pop	{r7, pc}
 134              	.L10:
 135              		.align	2
 136              	.L9:
 137 0014 00000000 		.word	Psensor_drv
 138              		.cfi_endproc
 139              	.LFE446:
 141              		.section	.text.BSP_PSENSOR_ReadPressure,"ax",%progbits
 142              		.align	1
 143              		.global	BSP_PSENSOR_ReadPressure
 144              		.syntax unified
 145              		.thumb
 146              		.thumb_func
 148              	BSP_PSENSOR_ReadPressure:
 149              	.LFB447:
  78:Drivers/BSP/B-L475E-IOT01/stm32l475e_iot01_psensor.c **** 
  79:Drivers/BSP/B-L475E-IOT01/stm32l475e_iot01_psensor.c **** /**
  80:Drivers/BSP/B-L475E-IOT01/stm32l475e_iot01_psensor.c ****   * @brief  Read Pressure register of LPS22HB.
  81:Drivers/BSP/B-L475E-IOT01/stm32l475e_iot01_psensor.c ****   * @retval LPS22HB measured pressure value.
  82:Drivers/BSP/B-L475E-IOT01/stm32l475e_iot01_psensor.c ****   */
  83:Drivers/BSP/B-L475E-IOT01/stm32l475e_iot01_psensor.c **** float BSP_PSENSOR_ReadPressure(void)
  84:Drivers/BSP/B-L475E-IOT01/stm32l475e_iot01_psensor.c **** { 
 150              		.loc 1 84 1
 151              		.cfi_startproc
 152              		@ args = 0, pretend = 0, frame = 0
ARM GAS  /tmp/ccxDtYCK.s 			page 5


 153              		@ frame_needed = 1, uses_anonymous_args = 0
 154 0000 80B5     		push	{r7, lr}
 155              		.cfi_def_cfa_offset 8
 156              		.cfi_offset 7, -8
 157              		.cfi_offset 14, -4
 158 0002 00AF     		add	r7, sp, #0
 159              		.cfi_def_cfa_register 7
  85:Drivers/BSP/B-L475E-IOT01/stm32l475e_iot01_psensor.c ****   return Psensor_drv->ReadPressure(LPS22HB_I2C_ADDRESS);
 160              		.loc 1 85 21
 161 0004 044B     		ldr	r3, .L13
 162 0006 1B68     		ldr	r3, [r3]
 163 0008 9B68     		ldr	r3, [r3, #8]
 164              		.loc 1 85 10
 165 000a BA20     		movs	r0, #186
 166 000c 9847     		blx	r3
 167              	.LVL3:
 168 000e F0EE407A 		vmov.f32	s15, s0
  86:Drivers/BSP/B-L475E-IOT01/stm32l475e_iot01_psensor.c **** }
 169              		.loc 1 86 1
 170 0012 B0EE670A 		vmov.f32	s0, s15
 171 0016 80BD     		pop	{r7, pc}
 172              	.L14:
 173              		.align	2
 174              	.L13:
 175 0018 00000000 		.word	Psensor_drv
 176              		.cfi_endproc
 177              	.LFE447:
 179              		.text
 180              	.Letext0:
 181              		.file 2 "/usr/lib/gcc/arm-none-eabi/13.2.1/include/stdint.h"
 182              		.file 3 "Drivers/BSP/B-L475E-IOT01/../Components/lps22hb/../Common/psensor.h"
 183              		.file 4 "Drivers/STM32L4xx_HAL_Driver/Inc/stm32l4xx_ll_dma.h"
 184              		.file 5 "Drivers/BSP/B-L475E-IOT01/../Components/lps22hb/lps22hb.h"
 185              		.file 6 "Drivers/BSP/B-L475E-IOT01/stm32l475e_iot01_psensor.h"
ARM GAS  /tmp/ccxDtYCK.s 			page 6


DEFINED SYMBOLS
                            *ABS*:00000000 stm32l475e_iot01_psensor.c
     /tmp/ccxDtYCK.s:21     .rodata.CHANNEL_OFFSET_TAB:00000000 $d
     /tmp/ccxDtYCK.s:24     .rodata.CHANNEL_OFFSET_TAB:00000000 CHANNEL_OFFSET_TAB
     /tmp/ccxDtYCK.s:27     .bss.Psensor_drv:00000000 $d
     /tmp/ccxDtYCK.s:30     .bss.Psensor_drv:00000000 Psensor_drv
     /tmp/ccxDtYCK.s:33     .text.BSP_PSENSOR_Init:00000000 $t
     /tmp/ccxDtYCK.s:39     .text.BSP_PSENSOR_Init:00000000 BSP_PSENSOR_Init
     /tmp/ccxDtYCK.s:98     .text.BSP_PSENSOR_Init:00000038 $d
     /tmp/ccxDtYCK.s:104    .text.BSP_PSENSOR_ReadID:00000000 $t
     /tmp/ccxDtYCK.s:110    .text.BSP_PSENSOR_ReadID:00000000 BSP_PSENSOR_ReadID
     /tmp/ccxDtYCK.s:137    .text.BSP_PSENSOR_ReadID:00000014 $d
     /tmp/ccxDtYCK.s:142    .text.BSP_PSENSOR_ReadPressure:00000000 $t
     /tmp/ccxDtYCK.s:148    .text.BSP_PSENSOR_ReadPressure:00000000 BSP_PSENSOR_ReadPressure
     /tmp/ccxDtYCK.s:175    .text.BSP_PSENSOR_ReadPressure:00000018 $d
                           .group:00000000 wm4.0.e7b64c2c371cf922f2c8028878d5c18e
                           .group:00000000 wm4.stm32l4xx_hal_conf.h.23.286c2f63aaa73ed97ffb4d26f7caa6e9
                           .group:00000000 wm4.stm32l4xx.h.38.9f5830373ca31b8a3cd182fdc6c7b69a
                           .group:00000000 wm4.stm32l475xx.h.34.2f1a75aed66751e299f09004aef64973
                           .group:00000000 wm4.stdint.h.29.6d480f4ba0f60596e88234283d42444f
                           .group:00000000 wm4.cmsis_version.h.32.46e8eccfa2cfeaae11d008bb2823a3ed
                           .group:00000000 wm4.core_cm4.h.66.e4ff136c4a17abc46741866f64f8e729
                           .group:00000000 wm4.cmsis_gcc.h.26.78077cef1206e937f7b56043ffca496a
                           .group:00000000 wm4.core_cm4.h.174.fcddd62df80231752fa39eb9b61dadfe
                           .group:00000000 wm4.mpu_armv7.h.32.4049752bb5792d4e15357775e9506cfc
                           .group:00000000 wm4.stm32l475xx.h.423.4d783859c9ac66890c9807dd7bd3a4db
                           .group:00000000 wm4.stm32l4xx.h.196.f5ae8047c57b6175c94f246ef967a286
                           .group:00000000 wm4.stm32_hal_legacy.h.22.08b8350ccf512ba8d98002fb33e7cbe5
                           .group:00000000 wm4.stddef.h.39.0dc9006b34572d4d9cae4c8b422c4971
                           .group:00000000 wm4.stm32l4xx_hal_def.h.58.1058a33f7217e935f2a6b51956d66a69
                           .group:00000000 wm4.stm32l4xx_hal_rcc.h.156.ab8eecc4e10f4827a2aa75d3549a356d
                           .group:00000000 wm4.stm32l4xx_hal_rcc_ex.h.20.4a82a27d561b6d42fa16a54f82e29067
                           .group:00000000 wm4.stm32l4xx_hal_gpio.h.21.2d2b1fd6aa6afa7b6dcc89cf752a9a25
                           .group:00000000 wm4.stm32l4xx_hal_gpio_ex.h.21.7ea705f5185dd3c6b8ea336f2858cd46
                           .group:00000000 wm4.stm32l4xx_ll_dma.h.21.b30e7f48d60d1fc53041ec1e3fd6e54a
                           .group:00000000 wm4.stm32l4xx_hal_dma.h.166.54a7f8d65cee6f051d541dc010387b5a
                           .group:00000000 wm4.stm32l4xx_hal_dfsdm.h.21.6785e38d00075079c7f2e5657def82ae
                           .group:00000000 wm4.stm32l4xx_hal_cortex.h.21.cb491126bd2d6f44e90b66f27acb8434
                           .group:00000000 wm4.stm32l4xx_ll_adc.h.21.0c578f71501c74365c67044efed214d6
                           .group:00000000 wm4.stm32l4xx_hal_adc.h.411.68f60682cdb20556089756a482f23764
                           .group:00000000 wm4.stm32l4xx_hal_adc_ex.h.21.7b82cb80166a21dfa8cb3e2fa8f8e654
                           .group:00000000 wm4.stm32l4xx_hal_can.h.21.5019586d8e7137c0cec16eb1f9d6677b
                           .group:00000000 wm4.stm32l4xx_ll_exti.h.21.d866eff070d6f999af2ce4ea60aa40ac
                           .group:00000000 wm4.stm32l4xx_hal_comp.h.87.7f14cb673a463359c83faa552328844d
                           .group:00000000 wm4.stm32l4xx_hal_crc.h.21.4c36a140cca35e6a8e478e76c6ad98e3
                           .group:00000000 wm4.stm32l4xx_hal_crc_ex.h.21.9cc3dead436542d416ee5572c231a242
                           .group:00000000 wm4.stm32l4xx_hal_dac.h.21.69feba704135531cf3d9b92de27b71d5
                           .group:00000000 wm4.stm32l4xx_hal_dac_ex.h.21.c86699169bead5415cc3e94027b67df4
                           .group:00000000 wm4.stm32l4xx_hal_exti.h.21.242e0410874d91d6d7523948fff74125
                           .group:00000000 wm4.stm32l4xx_hal_firewall.h.21.7ed44f4228fcc2ef96d2177dd8632645
                           .group:00000000 wm4.stm32l4xx_hal_flash.h.20.5e337018ccfa211b4afe888a79aae9f5
                           .group:00000000 wm4.stm32l4xx_hal_flash.h.846.0445f6ea07a3f9aac82891c8687d96fb
                           .group:00000000 wm4.stm32l4xx_ll_usb.h.21.5b5e42fb72a33dd326d7b20064953946
                           .group:00000000 wm4.stm32l4xx_hal_hcd.h.107.73f2fd24f57e8822da5cc86bd5ad3dfd
                           .group:00000000 wm4.stm32l4xx_hal_i2c.h.21.e7fc2065051c77019a818818e4a637d8
                           .group:00000000 wm4.stm32l4xx_hal_i2c_ex.h.21.ad4ad4e558d4fec06df87d163a6927d7
                           .group:00000000 wm4.stm32l4xx_hal_i2c.h.737.fa3908c81294cf0f9894ae336466002c
ARM GAS  /tmp/ccxDtYCK.s 			page 7


                           .group:00000000 wm4.stm32l4xx_hal_irda.h.21.136c042f9eef333167a549cc099df0c9
                           .group:00000000 wm4.stm32l4xx_hal_irda_ex.h.21.e0ada4e6d2b2cadfb512dd3c8ac0a637
                           .group:00000000 wm4.stm32l4xx_hal_iwdg.h.21.f94ca75f2fe1ebc7a2a8d0f5b58d8430
                           .group:00000000 wm4.stm32l4xx_hal_lptim.h.21.78222ea6639fc8c02789d293a048991e
                           .group:00000000 wm4.stm32l4xx_ll_sdmmc.h.21.65a5a8696b6ca7b87cc93d218084d702
                           .group:00000000 wm4.stm32l4xx_hal_mmc.h.69.8f4159f0a88ef1ebc33c58a8f10362b9
                           .group:00000000 wm4.stm32l4xx_ll_fmc.h.21.156a244c55010643ee92c6119049cb68
                           .group:00000000 wm4.stm32l4xx_hal_nand.h.176.9bfeac6e4e757991088bbd0df44e2be9
                           .group:00000000 wm4.stm32l4xx_hal_nor.h.21.d47e91e825f466bbac02fac0a7845a7a
                           .group:00000000 wm4.stm32l4xx_hal_opamp.h.21.9d841e1eaccee939f247b3f973f8af5f
                           .group:00000000 wm4.stm32l4xx_hal_pcd.h.169.addb1fac652268a18a0707cfcb5e2e47
                           .group:00000000 wm4.stm32l4xx_hal_pwr.h.21.7ddab2caa97243c36e496eca17b27618
                           .group:00000000 wm4.stm32l4xx_hal_pwr_ex.h.21.65ad8bbdbcb1950d945c0de10f22dc80
                           .group:00000000 wm4.stm32l4xx_hal_qspi.h.21.0291dad4eaa82101f2f77d76315c9b12
                           .group:00000000 wm4.stm32l4xx_hal_rng.h.21.96593715bdeab0c74ac9dfc538fb2feb
                           .group:00000000 wm4.stm32l4xx_hal_rtc.h.21.9da6b1aeebde99930891f803cb7f9678
                           .group:00000000 wm4.stm32l4xx_hal_rtc_ex.h.21.c692539378320719c7f2a2da1ca64502
                           .group:00000000 wm4.stm32l4xx_hal_rtc.h.999.c8bd9450c783628bd606ecb31bea5cc9
                           .group:00000000 wm4.stm32l4xx_hal_sai.h.21.c1165aaf2bbde65fae28ed4817be5cc5
                           .group:00000000 wm4.stm32l4xx_hal_sd.h.21.b395c90a87e82f7e8d77d4a518036063
                           .group:00000000 wm4.stm32l4xx_hal_smartcard.h.21.423c3ad63e0df35b864303e89e6d253c
                           .group:00000000 wm4.stm32l4xx_hal_smartcard_ex.h.21.801a2ce9252a785aec000b3fc7667a74
                           .group:00000000 wm4.stm32l4xx_hal_smbus.h.21.7480adb16468bfdce819ee591f21299e
                           .group:00000000 wm4.stm32l4xx_hal_smbus_ex.h.21.bdc715f5f6fb6612a871d3c03c3b871f
                           .group:00000000 wm4.stm32l4xx_hal_spi.h.21.3b51f9f7b241962f6b3483c47a43334f
                           .group:00000000 wm4.stm32l4xx_hal_sram.h.21.285210181e158bddc1cdde63dde572fd
                           .group:00000000 wm4.stm32l4xx_hal_swpmi.h.21.787f994f40b117a62aad9a6dd408b8fc
                           .group:00000000 wm4.stm32l4xx_hal_tim.h.21.d190832030e7505384ad081daa7ba8d6
                           .group:00000000 wm4.stm32l4xx_hal_tim_ex.h.21.1d0860218366ee9f64a97fd8af0ddee1
                           .group:00000000 wm4.stm32l4xx_hal_tsc.h.21.e9010049847ea38297d4b95a5ede0d8c
                           .group:00000000 wm4.stm32l4xx_hal_uart.h.21.480c0a64ca01596a921cda9dceb01df4
                           .group:00000000 wm4.stm32l4xx_hal_uart_ex.h.21.d793e64693c93af07c90464aef42bd83
                           .group:00000000 wm4.stm32l4xx_hal_usart.h.21.561c0058e33cb8df6671dcd29d5d25f9
                           .group:00000000 wm4.stm32l4xx_hal_usart_ex.h.21.111da650523691ebc80d64103d7b26e5
                           .group:00000000 wm4.stm32l4xx_hal_wwdg.h.21.073aa79d58120ae4fb8590c46b210051
                           .group:00000000 wm4.stm32l4xx_hal.h.75.d364b3778b3801d2f66bb409c48d396d
                           .group:00000000 wm4.stm32l475e_iot01.h.80.22fc749436d27c2cc4f18c5952914e12
                           .group:00000000 wm4.lps22hb.h.51.e68db6e2626a05805ef33cc06b7f6ba8

UNDEFINED SYMBOLS
LPS22HB_P_Drv
