ARM GAS  /tmp/cchI0N5p.s 			page 1


   1              		.cpu cortex-m4
   2              		.arch armv7e-m
   3              		.fpu fpv4-sp-d16
   4              		.eabi_attribute 27, 1
   5              		.eabi_attribute 28, 1
   6              		.eabi_attribute 20, 1
   7              		.eabi_attribute 21, 1
   8              		.eabi_attribute 23, 3
   9              		.eabi_attribute 24, 1
  10              		.eabi_attribute 25, 1
  11              		.eabi_attribute 26, 1
  12              		.eabi_attribute 30, 6
  13              		.eabi_attribute 34, 1
  14              		.eabi_attribute 18, 4
  15              		.file	"stm32l4xx_hal_hcd.c"
  16              		.text
  17              	.Ltext0:
  18              		.cfi_sections	.debug_frame
  19              		.file 1 "Drivers/STM32L4xx_HAL_Driver/Src/stm32l4xx_hal_hcd.c"
  20              		.section	.rodata.CHANNEL_OFFSET_TAB,"a"
  21              		.align	2
  24              	CHANNEL_OFFSET_TAB:
  25 0000 081C3044 		.ascii	"\010\0340DXl\200"
  25      586C80
  26              		.section	.text.HAL_HCD_Init,"ax",%progbits
  27              		.align	1
  28              		.global	HAL_HCD_Init
  29              		.syntax unified
  30              		.thumb
  31              		.thumb_func
  33              	HAL_HCD_Init:
  34              	.LFB445:
   1:Drivers/STM32L4xx_HAL_Driver/Src/stm32l4xx_hal_hcd.c **** /**
   2:Drivers/STM32L4xx_HAL_Driver/Src/stm32l4xx_hal_hcd.c ****   ******************************************************************************
   3:Drivers/STM32L4xx_HAL_Driver/Src/stm32l4xx_hal_hcd.c ****   * @file    stm32l4xx_hal_hcd.c
   4:Drivers/STM32L4xx_HAL_Driver/Src/stm32l4xx_hal_hcd.c ****   * @author  MCD Application Team
   5:Drivers/STM32L4xx_HAL_Driver/Src/stm32l4xx_hal_hcd.c ****   * @brief   HCD HAL module driver.
   6:Drivers/STM32L4xx_HAL_Driver/Src/stm32l4xx_hal_hcd.c ****   *          This file provides firmware functions to manage the following
   7:Drivers/STM32L4xx_HAL_Driver/Src/stm32l4xx_hal_hcd.c ****   *          functionalities of the USB Peripheral Controller:
   8:Drivers/STM32L4xx_HAL_Driver/Src/stm32l4xx_hal_hcd.c ****   *           + Initialization and de-initialization functions
   9:Drivers/STM32L4xx_HAL_Driver/Src/stm32l4xx_hal_hcd.c ****   *           + IO operation functions
  10:Drivers/STM32L4xx_HAL_Driver/Src/stm32l4xx_hal_hcd.c ****   *           + Peripheral Control functions
  11:Drivers/STM32L4xx_HAL_Driver/Src/stm32l4xx_hal_hcd.c ****   *           + Peripheral State functions
  12:Drivers/STM32L4xx_HAL_Driver/Src/stm32l4xx_hal_hcd.c ****   *
  13:Drivers/STM32L4xx_HAL_Driver/Src/stm32l4xx_hal_hcd.c ****   ******************************************************************************
  14:Drivers/STM32L4xx_HAL_Driver/Src/stm32l4xx_hal_hcd.c ****   * @attention
  15:Drivers/STM32L4xx_HAL_Driver/Src/stm32l4xx_hal_hcd.c ****   *
  16:Drivers/STM32L4xx_HAL_Driver/Src/stm32l4xx_hal_hcd.c ****   * Copyright (c) 2017 STMicroelectronics.
  17:Drivers/STM32L4xx_HAL_Driver/Src/stm32l4xx_hal_hcd.c ****   * All rights reserved.
  18:Drivers/STM32L4xx_HAL_Driver/Src/stm32l4xx_hal_hcd.c ****   *
  19:Drivers/STM32L4xx_HAL_Driver/Src/stm32l4xx_hal_hcd.c ****   * This software is licensed under terms that can be found in the LICENSE file
  20:Drivers/STM32L4xx_HAL_Driver/Src/stm32l4xx_hal_hcd.c ****   * in the root directory of this software component.
  21:Drivers/STM32L4xx_HAL_Driver/Src/stm32l4xx_hal_hcd.c ****   * If no LICENSE file comes with this software, it is provided AS-IS.
  22:Drivers/STM32L4xx_HAL_Driver/Src/stm32l4xx_hal_hcd.c ****   *
  23:Drivers/STM32L4xx_HAL_Driver/Src/stm32l4xx_hal_hcd.c ****   ******************************************************************************
  24:Drivers/STM32L4xx_HAL_Driver/Src/stm32l4xx_hal_hcd.c ****   @verbatim
  25:Drivers/STM32L4xx_HAL_Driver/Src/stm32l4xx_hal_hcd.c ****   ==============================================================================
ARM GAS  /tmp/cchI0N5p.s 			page 2


  26:Drivers/STM32L4xx_HAL_Driver/Src/stm32l4xx_hal_hcd.c ****                     ##### How to use this driver #####
  27:Drivers/STM32L4xx_HAL_Driver/Src/stm32l4xx_hal_hcd.c ****   ==============================================================================
  28:Drivers/STM32L4xx_HAL_Driver/Src/stm32l4xx_hal_hcd.c ****   [..]
  29:Drivers/STM32L4xx_HAL_Driver/Src/stm32l4xx_hal_hcd.c ****     (#)Declare a HCD_HandleTypeDef handle structure, for example:
  30:Drivers/STM32L4xx_HAL_Driver/Src/stm32l4xx_hal_hcd.c ****        HCD_HandleTypeDef  hhcd;
  31:Drivers/STM32L4xx_HAL_Driver/Src/stm32l4xx_hal_hcd.c **** 
  32:Drivers/STM32L4xx_HAL_Driver/Src/stm32l4xx_hal_hcd.c ****     (#)Fill parameters of Init structure in HCD handle
  33:Drivers/STM32L4xx_HAL_Driver/Src/stm32l4xx_hal_hcd.c **** 
  34:Drivers/STM32L4xx_HAL_Driver/Src/stm32l4xx_hal_hcd.c ****     (#)Call HAL_HCD_Init() API to initialize the HCD peripheral (Core, Host core, ...)
  35:Drivers/STM32L4xx_HAL_Driver/Src/stm32l4xx_hal_hcd.c **** 
  36:Drivers/STM32L4xx_HAL_Driver/Src/stm32l4xx_hal_hcd.c ****     (#)Initialize the HCD low level resources through the HAL_HCD_MspInit() API:
  37:Drivers/STM32L4xx_HAL_Driver/Src/stm32l4xx_hal_hcd.c ****         (##) Enable the HCD/USB Low Level interface clock using the following macros
  38:Drivers/STM32L4xx_HAL_Driver/Src/stm32l4xx_hal_hcd.c ****              (+++) __HAL_RCC_USB_OTG_FS_CLK_ENABLE();
  39:Drivers/STM32L4xx_HAL_Driver/Src/stm32l4xx_hal_hcd.c ****         (##) Initialize the related GPIO clocks
  40:Drivers/STM32L4xx_HAL_Driver/Src/stm32l4xx_hal_hcd.c ****         (##) Configure HCD pin-out
  41:Drivers/STM32L4xx_HAL_Driver/Src/stm32l4xx_hal_hcd.c ****         (##) Configure HCD NVIC interrupt
  42:Drivers/STM32L4xx_HAL_Driver/Src/stm32l4xx_hal_hcd.c **** 
  43:Drivers/STM32L4xx_HAL_Driver/Src/stm32l4xx_hal_hcd.c ****     (#)Associate the Upper USB Host stack to the HAL HCD Driver:
  44:Drivers/STM32L4xx_HAL_Driver/Src/stm32l4xx_hal_hcd.c ****         (##) hhcd.pData = phost;
  45:Drivers/STM32L4xx_HAL_Driver/Src/stm32l4xx_hal_hcd.c **** 
  46:Drivers/STM32L4xx_HAL_Driver/Src/stm32l4xx_hal_hcd.c ****     (#)Enable HCD transmission and reception:
  47:Drivers/STM32L4xx_HAL_Driver/Src/stm32l4xx_hal_hcd.c ****         (##) HAL_HCD_Start();
  48:Drivers/STM32L4xx_HAL_Driver/Src/stm32l4xx_hal_hcd.c **** 
  49:Drivers/STM32L4xx_HAL_Driver/Src/stm32l4xx_hal_hcd.c ****   @endverbatim
  50:Drivers/STM32L4xx_HAL_Driver/Src/stm32l4xx_hal_hcd.c ****   ******************************************************************************
  51:Drivers/STM32L4xx_HAL_Driver/Src/stm32l4xx_hal_hcd.c ****   */
  52:Drivers/STM32L4xx_HAL_Driver/Src/stm32l4xx_hal_hcd.c **** 
  53:Drivers/STM32L4xx_HAL_Driver/Src/stm32l4xx_hal_hcd.c **** /* Includes ------------------------------------------------------------------*/
  54:Drivers/STM32L4xx_HAL_Driver/Src/stm32l4xx_hal_hcd.c **** #include "stm32l4xx_hal.h"
  55:Drivers/STM32L4xx_HAL_Driver/Src/stm32l4xx_hal_hcd.c **** 
  56:Drivers/STM32L4xx_HAL_Driver/Src/stm32l4xx_hal_hcd.c **** /** @addtogroup STM32L4xx_HAL_Driver
  57:Drivers/STM32L4xx_HAL_Driver/Src/stm32l4xx_hal_hcd.c ****   * @{
  58:Drivers/STM32L4xx_HAL_Driver/Src/stm32l4xx_hal_hcd.c ****   */
  59:Drivers/STM32L4xx_HAL_Driver/Src/stm32l4xx_hal_hcd.c **** 
  60:Drivers/STM32L4xx_HAL_Driver/Src/stm32l4xx_hal_hcd.c **** #ifdef HAL_HCD_MODULE_ENABLED
  61:Drivers/STM32L4xx_HAL_Driver/Src/stm32l4xx_hal_hcd.c **** #if defined (USB_OTG_FS)
  62:Drivers/STM32L4xx_HAL_Driver/Src/stm32l4xx_hal_hcd.c **** 
  63:Drivers/STM32L4xx_HAL_Driver/Src/stm32l4xx_hal_hcd.c **** /** @defgroup HCD HCD
  64:Drivers/STM32L4xx_HAL_Driver/Src/stm32l4xx_hal_hcd.c ****   * @brief HCD HAL module driver
  65:Drivers/STM32L4xx_HAL_Driver/Src/stm32l4xx_hal_hcd.c ****   * @{
  66:Drivers/STM32L4xx_HAL_Driver/Src/stm32l4xx_hal_hcd.c ****   */
  67:Drivers/STM32L4xx_HAL_Driver/Src/stm32l4xx_hal_hcd.c **** 
  68:Drivers/STM32L4xx_HAL_Driver/Src/stm32l4xx_hal_hcd.c **** /* Private typedef -----------------------------------------------------------*/
  69:Drivers/STM32L4xx_HAL_Driver/Src/stm32l4xx_hal_hcd.c **** /* Private define ------------------------------------------------------------*/
  70:Drivers/STM32L4xx_HAL_Driver/Src/stm32l4xx_hal_hcd.c **** /* Private macro -------------------------------------------------------------*/
  71:Drivers/STM32L4xx_HAL_Driver/Src/stm32l4xx_hal_hcd.c **** /* Private variables ---------------------------------------------------------*/
  72:Drivers/STM32L4xx_HAL_Driver/Src/stm32l4xx_hal_hcd.c **** /* Private function prototypes -----------------------------------------------*/
  73:Drivers/STM32L4xx_HAL_Driver/Src/stm32l4xx_hal_hcd.c **** /** @defgroup HCD_Private_Functions HCD Private Functions
  74:Drivers/STM32L4xx_HAL_Driver/Src/stm32l4xx_hal_hcd.c ****   * @{
  75:Drivers/STM32L4xx_HAL_Driver/Src/stm32l4xx_hal_hcd.c ****   */
  76:Drivers/STM32L4xx_HAL_Driver/Src/stm32l4xx_hal_hcd.c **** static void HCD_HC_IN_IRQHandler(HCD_HandleTypeDef *hhcd, uint8_t chnum);
  77:Drivers/STM32L4xx_HAL_Driver/Src/stm32l4xx_hal_hcd.c **** static void HCD_HC_OUT_IRQHandler(HCD_HandleTypeDef *hhcd, uint8_t chnum);
  78:Drivers/STM32L4xx_HAL_Driver/Src/stm32l4xx_hal_hcd.c **** static void HCD_RXQLVL_IRQHandler(HCD_HandleTypeDef *hhcd);
  79:Drivers/STM32L4xx_HAL_Driver/Src/stm32l4xx_hal_hcd.c **** static void HCD_Port_IRQHandler(HCD_HandleTypeDef *hhcd);
  80:Drivers/STM32L4xx_HAL_Driver/Src/stm32l4xx_hal_hcd.c **** /**
  81:Drivers/STM32L4xx_HAL_Driver/Src/stm32l4xx_hal_hcd.c ****   * @}
  82:Drivers/STM32L4xx_HAL_Driver/Src/stm32l4xx_hal_hcd.c ****   */
ARM GAS  /tmp/cchI0N5p.s 			page 3


  83:Drivers/STM32L4xx_HAL_Driver/Src/stm32l4xx_hal_hcd.c **** 
  84:Drivers/STM32L4xx_HAL_Driver/Src/stm32l4xx_hal_hcd.c **** /* Exported functions --------------------------------------------------------*/
  85:Drivers/STM32L4xx_HAL_Driver/Src/stm32l4xx_hal_hcd.c **** /** @defgroup HCD_Exported_Functions HCD Exported Functions
  86:Drivers/STM32L4xx_HAL_Driver/Src/stm32l4xx_hal_hcd.c ****   * @{
  87:Drivers/STM32L4xx_HAL_Driver/Src/stm32l4xx_hal_hcd.c ****   */
  88:Drivers/STM32L4xx_HAL_Driver/Src/stm32l4xx_hal_hcd.c **** 
  89:Drivers/STM32L4xx_HAL_Driver/Src/stm32l4xx_hal_hcd.c **** /** @defgroup HCD_Exported_Functions_Group1 Initialization and de-initialization functions
  90:Drivers/STM32L4xx_HAL_Driver/Src/stm32l4xx_hal_hcd.c ****   *  @brief    Initialization and Configuration functions
  91:Drivers/STM32L4xx_HAL_Driver/Src/stm32l4xx_hal_hcd.c ****   *
  92:Drivers/STM32L4xx_HAL_Driver/Src/stm32l4xx_hal_hcd.c **** @verbatim
  93:Drivers/STM32L4xx_HAL_Driver/Src/stm32l4xx_hal_hcd.c ****  ===============================================================================
  94:Drivers/STM32L4xx_HAL_Driver/Src/stm32l4xx_hal_hcd.c ****           ##### Initialization and de-initialization functions #####
  95:Drivers/STM32L4xx_HAL_Driver/Src/stm32l4xx_hal_hcd.c ****  ===============================================================================
  96:Drivers/STM32L4xx_HAL_Driver/Src/stm32l4xx_hal_hcd.c ****     [..]  This section provides functions allowing to:
  97:Drivers/STM32L4xx_HAL_Driver/Src/stm32l4xx_hal_hcd.c **** 
  98:Drivers/STM32L4xx_HAL_Driver/Src/stm32l4xx_hal_hcd.c **** @endverbatim
  99:Drivers/STM32L4xx_HAL_Driver/Src/stm32l4xx_hal_hcd.c ****   * @{
 100:Drivers/STM32L4xx_HAL_Driver/Src/stm32l4xx_hal_hcd.c ****   */
 101:Drivers/STM32L4xx_HAL_Driver/Src/stm32l4xx_hal_hcd.c **** 
 102:Drivers/STM32L4xx_HAL_Driver/Src/stm32l4xx_hal_hcd.c **** /**
 103:Drivers/STM32L4xx_HAL_Driver/Src/stm32l4xx_hal_hcd.c ****   * @brief  Initialize the host driver.
 104:Drivers/STM32L4xx_HAL_Driver/Src/stm32l4xx_hal_hcd.c ****   * @param  hhcd HCD handle
 105:Drivers/STM32L4xx_HAL_Driver/Src/stm32l4xx_hal_hcd.c ****   * @retval HAL status
 106:Drivers/STM32L4xx_HAL_Driver/Src/stm32l4xx_hal_hcd.c ****   */
 107:Drivers/STM32L4xx_HAL_Driver/Src/stm32l4xx_hal_hcd.c **** HAL_StatusTypeDef HAL_HCD_Init(HCD_HandleTypeDef *hhcd)
 108:Drivers/STM32L4xx_HAL_Driver/Src/stm32l4xx_hal_hcd.c **** {
  35              		.loc 1 108 1
  36              		.cfi_startproc
  37              		@ args = 0, pretend = 0, frame = 8
  38              		@ frame_needed = 1, uses_anonymous_args = 0
  39 0000 80B5     		push	{r7, lr}
  40              		.cfi_def_cfa_offset 8
  41              		.cfi_offset 7, -8
  42              		.cfi_offset 14, -4
  43 0002 84B0     		sub	sp, sp, #16
  44              		.cfi_def_cfa_offset 24
  45 0004 02AF     		add	r7, sp, #8
  46              		.cfi_def_cfa 7, 16
  47 0006 7860     		str	r0, [r7, #4]
 109:Drivers/STM32L4xx_HAL_Driver/Src/stm32l4xx_hal_hcd.c ****   /* Check the HCD handle allocation */
 110:Drivers/STM32L4xx_HAL_Driver/Src/stm32l4xx_hal_hcd.c ****   if (hhcd == NULL)
  48              		.loc 1 110 6
  49 0008 7B68     		ldr	r3, [r7, #4]
  50 000a 002B     		cmp	r3, #0
  51 000c 01D1     		bne	.L2
 111:Drivers/STM32L4xx_HAL_Driver/Src/stm32l4xx_hal_hcd.c ****   {
 112:Drivers/STM32L4xx_HAL_Driver/Src/stm32l4xx_hal_hcd.c ****     return HAL_ERROR;
  52              		.loc 1 112 12
  53 000e 0123     		movs	r3, #1
  54 0010 52E0     		b	.L3
  55              	.L2:
 113:Drivers/STM32L4xx_HAL_Driver/Src/stm32l4xx_hal_hcd.c ****   }
 114:Drivers/STM32L4xx_HAL_Driver/Src/stm32l4xx_hal_hcd.c **** 
 115:Drivers/STM32L4xx_HAL_Driver/Src/stm32l4xx_hal_hcd.c ****   /* Check the parameters */
 116:Drivers/STM32L4xx_HAL_Driver/Src/stm32l4xx_hal_hcd.c ****   assert_param(IS_HCD_ALL_INSTANCE(hhcd->Instance));
 117:Drivers/STM32L4xx_HAL_Driver/Src/stm32l4xx_hal_hcd.c **** 
 118:Drivers/STM32L4xx_HAL_Driver/Src/stm32l4xx_hal_hcd.c ****   if (hhcd->State == HAL_HCD_STATE_RESET)
ARM GAS  /tmp/cchI0N5p.s 			page 4


  56              		.loc 1 118 11
  57 0012 7B68     		ldr	r3, [r7, #4]
  58 0014 93F85533 		ldrb	r3, [r3, #853]
  59 0018 DBB2     		uxtb	r3, r3
  60              		.loc 1 118 6
  61 001a 002B     		cmp	r3, #0
  62 001c 06D1     		bne	.L4
 119:Drivers/STM32L4xx_HAL_Driver/Src/stm32l4xx_hal_hcd.c ****   {
 120:Drivers/STM32L4xx_HAL_Driver/Src/stm32l4xx_hal_hcd.c ****     /* Allocate lock resource and initialize it */
 121:Drivers/STM32L4xx_HAL_Driver/Src/stm32l4xx_hal_hcd.c ****     hhcd->Lock = HAL_UNLOCKED;
  63              		.loc 1 121 16
  64 001e 7B68     		ldr	r3, [r7, #4]
  65 0020 0022     		movs	r2, #0
  66 0022 83F85423 		strb	r2, [r3, #852]
 122:Drivers/STM32L4xx_HAL_Driver/Src/stm32l4xx_hal_hcd.c **** 
 123:Drivers/STM32L4xx_HAL_Driver/Src/stm32l4xx_hal_hcd.c **** #if (USE_HAL_HCD_REGISTER_CALLBACKS == 1U)
 124:Drivers/STM32L4xx_HAL_Driver/Src/stm32l4xx_hal_hcd.c ****     hhcd->SOFCallback = HAL_HCD_SOF_Callback;
 125:Drivers/STM32L4xx_HAL_Driver/Src/stm32l4xx_hal_hcd.c ****     hhcd->ConnectCallback = HAL_HCD_Connect_Callback;
 126:Drivers/STM32L4xx_HAL_Driver/Src/stm32l4xx_hal_hcd.c ****     hhcd->DisconnectCallback = HAL_HCD_Disconnect_Callback;
 127:Drivers/STM32L4xx_HAL_Driver/Src/stm32l4xx_hal_hcd.c ****     hhcd->PortEnabledCallback = HAL_HCD_PortEnabled_Callback;
 128:Drivers/STM32L4xx_HAL_Driver/Src/stm32l4xx_hal_hcd.c ****     hhcd->PortDisabledCallback = HAL_HCD_PortDisabled_Callback;
 129:Drivers/STM32L4xx_HAL_Driver/Src/stm32l4xx_hal_hcd.c ****     hhcd->HC_NotifyURBChangeCallback = HAL_HCD_HC_NotifyURBChange_Callback;
 130:Drivers/STM32L4xx_HAL_Driver/Src/stm32l4xx_hal_hcd.c **** 
 131:Drivers/STM32L4xx_HAL_Driver/Src/stm32l4xx_hal_hcd.c ****     if (hhcd->MspInitCallback == NULL)
 132:Drivers/STM32L4xx_HAL_Driver/Src/stm32l4xx_hal_hcd.c ****     {
 133:Drivers/STM32L4xx_HAL_Driver/Src/stm32l4xx_hal_hcd.c ****       hhcd->MspInitCallback = HAL_HCD_MspInit;
 134:Drivers/STM32L4xx_HAL_Driver/Src/stm32l4xx_hal_hcd.c ****     }
 135:Drivers/STM32L4xx_HAL_Driver/Src/stm32l4xx_hal_hcd.c **** 
 136:Drivers/STM32L4xx_HAL_Driver/Src/stm32l4xx_hal_hcd.c ****     /* Init the low level hardware */
 137:Drivers/STM32L4xx_HAL_Driver/Src/stm32l4xx_hal_hcd.c ****     hhcd->MspInitCallback(hhcd);
 138:Drivers/STM32L4xx_HAL_Driver/Src/stm32l4xx_hal_hcd.c **** #else
 139:Drivers/STM32L4xx_HAL_Driver/Src/stm32l4xx_hal_hcd.c ****     /* Init the low level hardware : GPIO, CLOCK, NVIC... */
 140:Drivers/STM32L4xx_HAL_Driver/Src/stm32l4xx_hal_hcd.c ****     HAL_HCD_MspInit(hhcd);
  67              		.loc 1 140 5
  68 0026 7868     		ldr	r0, [r7, #4]
  69 0028 FFF7FEFF 		bl	HAL_HCD_MspInit
  70              	.L4:
 141:Drivers/STM32L4xx_HAL_Driver/Src/stm32l4xx_hal_hcd.c **** #endif /* (USE_HAL_HCD_REGISTER_CALLBACKS) */
 142:Drivers/STM32L4xx_HAL_Driver/Src/stm32l4xx_hal_hcd.c ****   }
 143:Drivers/STM32L4xx_HAL_Driver/Src/stm32l4xx_hal_hcd.c **** 
 144:Drivers/STM32L4xx_HAL_Driver/Src/stm32l4xx_hal_hcd.c ****   hhcd->State = HAL_HCD_STATE_BUSY;
  71              		.loc 1 144 15
  72 002c 7B68     		ldr	r3, [r7, #4]
  73 002e 0322     		movs	r2, #3
  74 0030 83F85523 		strb	r2, [r3, #853]
 145:Drivers/STM32L4xx_HAL_Driver/Src/stm32l4xx_hal_hcd.c **** 
 146:Drivers/STM32L4xx_HAL_Driver/Src/stm32l4xx_hal_hcd.c ****   /* Disable DMA mode for FS instance */
 147:Drivers/STM32L4xx_HAL_Driver/Src/stm32l4xx_hal_hcd.c ****   hhcd->Init.dma_enable = 0U;
  75              		.loc 1 147 25
  76 0034 7B68     		ldr	r3, [r7, #4]
  77 0036 0022     		movs	r2, #0
  78 0038 9A71     		strb	r2, [r3, #6]
 148:Drivers/STM32L4xx_HAL_Driver/Src/stm32l4xx_hal_hcd.c **** 
 149:Drivers/STM32L4xx_HAL_Driver/Src/stm32l4xx_hal_hcd.c ****   /* Disable the Interrupts */
 150:Drivers/STM32L4xx_HAL_Driver/Src/stm32l4xx_hal_hcd.c ****   __HAL_HCD_DISABLE(hhcd);
  79              		.loc 1 150 3
  80 003a 7B68     		ldr	r3, [r7, #4]
ARM GAS  /tmp/cchI0N5p.s 			page 5


  81 003c 1B68     		ldr	r3, [r3]
  82 003e 1846     		mov	r0, r3
  83 0040 FFF7FEFF 		bl	USB_DisableGlobalInt
 151:Drivers/STM32L4xx_HAL_Driver/Src/stm32l4xx_hal_hcd.c **** 
 152:Drivers/STM32L4xx_HAL_Driver/Src/stm32l4xx_hal_hcd.c ****   /* Init the Core (common init.) */
 153:Drivers/STM32L4xx_HAL_Driver/Src/stm32l4xx_hal_hcd.c ****   if (USB_CoreInit(hhcd->Instance, hhcd->Init) != HAL_OK)
  84              		.loc 1 153 24
  85 0044 7B68     		ldr	r3, [r7, #4]
  86 0046 1868     		ldr	r0, [r3]
  87              		.loc 1 153 7
  88 0048 7B68     		ldr	r3, [r7, #4]
  89 004a 1A7C     		ldrb	r2, [r3, #16]
  90 004c 8DF80020 		strb	r2, [sp]
  91 0050 0433     		adds	r3, r3, #4
  92 0052 0ECB     		ldm	r3, {r1, r2, r3}
  93 0054 FFF7FEFF 		bl	USB_CoreInit
  94 0058 0346     		mov	r3, r0
  95              		.loc 1 153 6 discriminator 1
  96 005a 002B     		cmp	r3, #0
  97 005c 05D0     		beq	.L5
 154:Drivers/STM32L4xx_HAL_Driver/Src/stm32l4xx_hal_hcd.c ****   {
 155:Drivers/STM32L4xx_HAL_Driver/Src/stm32l4xx_hal_hcd.c ****     hhcd->State = HAL_HCD_STATE_ERROR;
  98              		.loc 1 155 17
  99 005e 7B68     		ldr	r3, [r7, #4]
 100 0060 0222     		movs	r2, #2
 101 0062 83F85523 		strb	r2, [r3, #853]
 156:Drivers/STM32L4xx_HAL_Driver/Src/stm32l4xx_hal_hcd.c ****     return HAL_ERROR;
 102              		.loc 1 156 12
 103 0066 0123     		movs	r3, #1
 104 0068 26E0     		b	.L3
 105              	.L5:
 157:Drivers/STM32L4xx_HAL_Driver/Src/stm32l4xx_hal_hcd.c ****   }
 158:Drivers/STM32L4xx_HAL_Driver/Src/stm32l4xx_hal_hcd.c **** 
 159:Drivers/STM32L4xx_HAL_Driver/Src/stm32l4xx_hal_hcd.c ****   /* Force Host Mode */
 160:Drivers/STM32L4xx_HAL_Driver/Src/stm32l4xx_hal_hcd.c ****   if (USB_SetCurrentMode(hhcd->Instance, USB_HOST_MODE) != HAL_OK)
 106              		.loc 1 160 30
 107 006a 7B68     		ldr	r3, [r7, #4]
 108 006c 1B68     		ldr	r3, [r3]
 109              		.loc 1 160 7
 110 006e 0121     		movs	r1, #1
 111 0070 1846     		mov	r0, r3
 112 0072 FFF7FEFF 		bl	USB_SetCurrentMode
 113 0076 0346     		mov	r3, r0
 114              		.loc 1 160 6 discriminator 1
 115 0078 002B     		cmp	r3, #0
 116 007a 05D0     		beq	.L6
 161:Drivers/STM32L4xx_HAL_Driver/Src/stm32l4xx_hal_hcd.c ****   {
 162:Drivers/STM32L4xx_HAL_Driver/Src/stm32l4xx_hal_hcd.c ****     hhcd->State = HAL_HCD_STATE_ERROR;
 117              		.loc 1 162 17
 118 007c 7B68     		ldr	r3, [r7, #4]
 119 007e 0222     		movs	r2, #2
 120 0080 83F85523 		strb	r2, [r3, #853]
 163:Drivers/STM32L4xx_HAL_Driver/Src/stm32l4xx_hal_hcd.c ****     return HAL_ERROR;
 121              		.loc 1 163 12
 122 0084 0123     		movs	r3, #1
 123 0086 17E0     		b	.L3
 124              	.L6:
ARM GAS  /tmp/cchI0N5p.s 			page 6


 164:Drivers/STM32L4xx_HAL_Driver/Src/stm32l4xx_hal_hcd.c ****   }
 165:Drivers/STM32L4xx_HAL_Driver/Src/stm32l4xx_hal_hcd.c **** 
 166:Drivers/STM32L4xx_HAL_Driver/Src/stm32l4xx_hal_hcd.c ****   /* Init Host */
 167:Drivers/STM32L4xx_HAL_Driver/Src/stm32l4xx_hal_hcd.c ****   if (USB_HostInit(hhcd->Instance, hhcd->Init) != HAL_OK)
 125              		.loc 1 167 24
 126 0088 7B68     		ldr	r3, [r7, #4]
 127 008a 1868     		ldr	r0, [r3]
 128              		.loc 1 167 7
 129 008c 7B68     		ldr	r3, [r7, #4]
 130 008e 1A7C     		ldrb	r2, [r3, #16]
 131 0090 8DF80020 		strb	r2, [sp]
 132 0094 0433     		adds	r3, r3, #4
 133 0096 0ECB     		ldm	r3, {r1, r2, r3}
 134 0098 FFF7FEFF 		bl	USB_HostInit
 135 009c 0346     		mov	r3, r0
 136              		.loc 1 167 6 discriminator 1
 137 009e 002B     		cmp	r3, #0
 138 00a0 05D0     		beq	.L7
 168:Drivers/STM32L4xx_HAL_Driver/Src/stm32l4xx_hal_hcd.c ****   {
 169:Drivers/STM32L4xx_HAL_Driver/Src/stm32l4xx_hal_hcd.c ****     hhcd->State = HAL_HCD_STATE_ERROR;
 139              		.loc 1 169 17
 140 00a2 7B68     		ldr	r3, [r7, #4]
 141 00a4 0222     		movs	r2, #2
 142 00a6 83F85523 		strb	r2, [r3, #853]
 170:Drivers/STM32L4xx_HAL_Driver/Src/stm32l4xx_hal_hcd.c ****     return HAL_ERROR;
 143              		.loc 1 170 12
 144 00aa 0123     		movs	r3, #1
 145 00ac 04E0     		b	.L3
 146              	.L7:
 171:Drivers/STM32L4xx_HAL_Driver/Src/stm32l4xx_hal_hcd.c ****   }
 172:Drivers/STM32L4xx_HAL_Driver/Src/stm32l4xx_hal_hcd.c **** 
 173:Drivers/STM32L4xx_HAL_Driver/Src/stm32l4xx_hal_hcd.c ****   hhcd->State = HAL_HCD_STATE_READY;
 147              		.loc 1 173 15
 148 00ae 7B68     		ldr	r3, [r7, #4]
 149 00b0 0122     		movs	r2, #1
 150 00b2 83F85523 		strb	r2, [r3, #853]
 174:Drivers/STM32L4xx_HAL_Driver/Src/stm32l4xx_hal_hcd.c **** 
 175:Drivers/STM32L4xx_HAL_Driver/Src/stm32l4xx_hal_hcd.c ****   return HAL_OK;
 151              		.loc 1 175 10
 152 00b6 0023     		movs	r3, #0
 153              	.L3:
 176:Drivers/STM32L4xx_HAL_Driver/Src/stm32l4xx_hal_hcd.c **** }
 154              		.loc 1 176 1
 155 00b8 1846     		mov	r0, r3
 156 00ba 0837     		adds	r7, r7, #8
 157              		.cfi_def_cfa_offset 8
 158 00bc BD46     		mov	sp, r7
 159              		.cfi_def_cfa_register 13
 160              		@ sp needed
 161 00be 80BD     		pop	{r7, pc}
 162              		.cfi_endproc
 163              	.LFE445:
 165              		.section	.text.HAL_HCD_HC_Init,"ax",%progbits
 166              		.align	1
 167              		.global	HAL_HCD_HC_Init
 168              		.syntax unified
 169              		.thumb
ARM GAS  /tmp/cchI0N5p.s 			page 7


 170              		.thumb_func
 172              	HAL_HCD_HC_Init:
 173              	.LFB446:
 177:Drivers/STM32L4xx_HAL_Driver/Src/stm32l4xx_hal_hcd.c **** 
 178:Drivers/STM32L4xx_HAL_Driver/Src/stm32l4xx_hal_hcd.c **** /**
 179:Drivers/STM32L4xx_HAL_Driver/Src/stm32l4xx_hal_hcd.c ****   * @brief  Initialize a host channel.
 180:Drivers/STM32L4xx_HAL_Driver/Src/stm32l4xx_hal_hcd.c ****   * @param  hhcd HCD handle
 181:Drivers/STM32L4xx_HAL_Driver/Src/stm32l4xx_hal_hcd.c ****   * @param  ch_num Channel number.
 182:Drivers/STM32L4xx_HAL_Driver/Src/stm32l4xx_hal_hcd.c ****   *         This parameter can be a value from 1 to 15
 183:Drivers/STM32L4xx_HAL_Driver/Src/stm32l4xx_hal_hcd.c ****   * @param  epnum Endpoint number.
 184:Drivers/STM32L4xx_HAL_Driver/Src/stm32l4xx_hal_hcd.c ****   *          This parameter can be a value from 1 to 15
 185:Drivers/STM32L4xx_HAL_Driver/Src/stm32l4xx_hal_hcd.c ****   * @param  dev_address Current device address
 186:Drivers/STM32L4xx_HAL_Driver/Src/stm32l4xx_hal_hcd.c ****   *          This parameter can be a value from 0 to 255
 187:Drivers/STM32L4xx_HAL_Driver/Src/stm32l4xx_hal_hcd.c ****   * @param  speed Current device speed.
 188:Drivers/STM32L4xx_HAL_Driver/Src/stm32l4xx_hal_hcd.c ****   *          This parameter can be one of these values:
 189:Drivers/STM32L4xx_HAL_Driver/Src/stm32l4xx_hal_hcd.c ****   *            HCD_DEVICE_SPEED_FULL: Full speed mode,
 190:Drivers/STM32L4xx_HAL_Driver/Src/stm32l4xx_hal_hcd.c ****   *            HCD_DEVICE_SPEED_LOW: Low speed mode
 191:Drivers/STM32L4xx_HAL_Driver/Src/stm32l4xx_hal_hcd.c ****   * @param  ep_type Endpoint Type.
 192:Drivers/STM32L4xx_HAL_Driver/Src/stm32l4xx_hal_hcd.c ****   *          This parameter can be one of these values:
 193:Drivers/STM32L4xx_HAL_Driver/Src/stm32l4xx_hal_hcd.c ****   *            EP_TYPE_CTRL: Control type,
 194:Drivers/STM32L4xx_HAL_Driver/Src/stm32l4xx_hal_hcd.c ****   *            EP_TYPE_ISOC: Isochronous type,
 195:Drivers/STM32L4xx_HAL_Driver/Src/stm32l4xx_hal_hcd.c ****   *            EP_TYPE_BULK: Bulk type,
 196:Drivers/STM32L4xx_HAL_Driver/Src/stm32l4xx_hal_hcd.c ****   *            EP_TYPE_INTR: Interrupt type
 197:Drivers/STM32L4xx_HAL_Driver/Src/stm32l4xx_hal_hcd.c ****   * @param  mps Max Packet Size.
 198:Drivers/STM32L4xx_HAL_Driver/Src/stm32l4xx_hal_hcd.c ****   *          This parameter can be a value from 0 to32K
 199:Drivers/STM32L4xx_HAL_Driver/Src/stm32l4xx_hal_hcd.c ****   * @retval HAL status
 200:Drivers/STM32L4xx_HAL_Driver/Src/stm32l4xx_hal_hcd.c ****   */
 201:Drivers/STM32L4xx_HAL_Driver/Src/stm32l4xx_hal_hcd.c **** HAL_StatusTypeDef HAL_HCD_HC_Init(HCD_HandleTypeDef *hhcd, uint8_t ch_num, uint8_t epnum,
 202:Drivers/STM32L4xx_HAL_Driver/Src/stm32l4xx_hal_hcd.c ****                                   uint8_t dev_address, uint8_t speed, uint8_t ep_type, uint16_t mps
 203:Drivers/STM32L4xx_HAL_Driver/Src/stm32l4xx_hal_hcd.c **** {
 174              		.loc 1 203 1
 175              		.cfi_startproc
 176              		@ args = 12, pretend = 0, frame = 16
 177              		@ frame_needed = 1, uses_anonymous_args = 0
 178 0000 90B5     		push	{r4, r7, lr}
 179              		.cfi_def_cfa_offset 12
 180              		.cfi_offset 4, -12
 181              		.cfi_offset 7, -8
 182              		.cfi_offset 14, -4
 183 0002 89B0     		sub	sp, sp, #36
 184              		.cfi_def_cfa_offset 48
 185 0004 04AF     		add	r7, sp, #16
 186              		.cfi_def_cfa 7, 32
 187 0006 7860     		str	r0, [r7, #4]
 188 0008 0846     		mov	r0, r1
 189 000a 1146     		mov	r1, r2
 190 000c 1A46     		mov	r2, r3
 191 000e 0346     		mov	r3, r0
 192 0010 FB70     		strb	r3, [r7, #3]
 193 0012 0B46     		mov	r3, r1
 194 0014 BB70     		strb	r3, [r7, #2]
 195 0016 1346     		mov	r3, r2
 196 0018 7B70     		strb	r3, [r7, #1]
 204:Drivers/STM32L4xx_HAL_Driver/Src/stm32l4xx_hal_hcd.c ****   HAL_StatusTypeDef status;
 205:Drivers/STM32L4xx_HAL_Driver/Src/stm32l4xx_hal_hcd.c ****   uint32_t HCcharMps = mps;
 197              		.loc 1 205 12
 198 001a 3B8D     		ldrh	r3, [r7, #40]
ARM GAS  /tmp/cchI0N5p.s 			page 8


 199 001c FB60     		str	r3, [r7, #12]
 206:Drivers/STM32L4xx_HAL_Driver/Src/stm32l4xx_hal_hcd.c **** 
 207:Drivers/STM32L4xx_HAL_Driver/Src/stm32l4xx_hal_hcd.c ****   __HAL_LOCK(hhcd);
 200              		.loc 1 207 3
 201 001e 7B68     		ldr	r3, [r7, #4]
 202 0020 93F85433 		ldrb	r3, [r3, #852]	@ zero_extendqisi2
 203 0024 012B     		cmp	r3, #1
 204 0026 01D1     		bne	.L9
 205              		.loc 1 207 3 is_stmt 0 discriminator 1
 206 0028 0223     		movs	r3, #2
 207              		.loc 1 207 3
 208 002a 7EE0     		b	.L10
 209              	.L9:
 210              		.loc 1 207 3 discriminator 2
 211 002c 7B68     		ldr	r3, [r7, #4]
 212 002e 0122     		movs	r2, #1
 213 0030 83F85423 		strb	r2, [r3, #852]
 208:Drivers/STM32L4xx_HAL_Driver/Src/stm32l4xx_hal_hcd.c ****   hhcd->hc[ch_num].do_ping = 0U;
 214              		.loc 1 208 19 is_stmt 1
 215 0034 FB78     		ldrb	r3, [r7, #3]	@ zero_extendqisi2
 216              		.loc 1 208 28
 217 0036 7A68     		ldr	r2, [r7, #4]
 218 0038 3421     		movs	r1, #52
 219 003a 01FB03F3 		mul	r3, r1, r3
 220 003e 1344     		add	r3, r3, r2
 221 0040 1A33     		adds	r3, r3, #26
 222 0042 0022     		movs	r2, #0
 223 0044 1A70     		strb	r2, [r3]
 209:Drivers/STM32L4xx_HAL_Driver/Src/stm32l4xx_hal_hcd.c ****   hhcd->hc[ch_num].dev_addr = dev_address;
 224              		.loc 1 209 19
 225 0046 FB78     		ldrb	r3, [r7, #3]	@ zero_extendqisi2
 226              		.loc 1 209 29
 227 0048 7A68     		ldr	r2, [r7, #4]
 228 004a 3421     		movs	r1, #52
 229 004c 01FB03F3 		mul	r3, r1, r3
 230 0050 1344     		add	r3, r3, r2
 231 0052 1433     		adds	r3, r3, #20
 232 0054 7A78     		ldrb	r2, [r7, #1]
 233 0056 1A70     		strb	r2, [r3]
 210:Drivers/STM32L4xx_HAL_Driver/Src/stm32l4xx_hal_hcd.c ****   hhcd->hc[ch_num].ch_num = ch_num;
 234              		.loc 1 210 19
 235 0058 FB78     		ldrb	r3, [r7, #3]	@ zero_extendqisi2
 236              		.loc 1 210 27
 237 005a 7A68     		ldr	r2, [r7, #4]
 238 005c 3421     		movs	r1, #52
 239 005e 01FB03F3 		mul	r3, r1, r3
 240 0062 1344     		add	r3, r3, r2
 241 0064 1533     		adds	r3, r3, #21
 242 0066 FA78     		ldrb	r2, [r7, #3]
 243 0068 1A70     		strb	r2, [r3]
 211:Drivers/STM32L4xx_HAL_Driver/Src/stm32l4xx_hal_hcd.c ****   hhcd->hc[ch_num].ep_type = ep_type;
 244              		.loc 1 211 19
 245 006a FB78     		ldrb	r3, [r7, #3]	@ zero_extendqisi2
 246              		.loc 1 211 28
 247 006c 7A68     		ldr	r2, [r7, #4]
 248 006e 3421     		movs	r1, #52
 249 0070 01FB03F3 		mul	r3, r1, r3
ARM GAS  /tmp/cchI0N5p.s 			page 9


 250 0074 1344     		add	r3, r3, r2
 251 0076 1D33     		adds	r3, r3, #29
 252 0078 97F82420 		ldrb	r2, [r7, #36]
 253 007c 1A70     		strb	r2, [r3]
 212:Drivers/STM32L4xx_HAL_Driver/Src/stm32l4xx_hal_hcd.c ****   hhcd->hc[ch_num].ep_num = epnum & 0x7FU;
 254              		.loc 1 212 19
 255 007e FB78     		ldrb	r3, [r7, #3]	@ zero_extendqisi2
 256              		.loc 1 212 35
 257 0080 BA78     		ldrb	r2, [r7, #2]
 258 0082 02F07F02 		and	r2, r2, #127
 259 0086 D0B2     		uxtb	r0, r2
 260              		.loc 1 212 27
 261 0088 7A68     		ldr	r2, [r7, #4]
 262 008a 3421     		movs	r1, #52
 263 008c 01FB03F3 		mul	r3, r1, r3
 264 0090 1344     		add	r3, r3, r2
 265 0092 1633     		adds	r3, r3, #22
 266 0094 0246     		mov	r2, r0
 267 0096 1A70     		strb	r2, [r3]
 213:Drivers/STM32L4xx_HAL_Driver/Src/stm32l4xx_hal_hcd.c **** 
 214:Drivers/STM32L4xx_HAL_Driver/Src/stm32l4xx_hal_hcd.c ****   (void)HAL_HCD_HC_ClearHubInfo(hhcd, ch_num);
 268              		.loc 1 214 9
 269 0098 FB78     		ldrb	r3, [r7, #3]	@ zero_extendqisi2
 270 009a 1946     		mov	r1, r3
 271 009c 7868     		ldr	r0, [r7, #4]
 272 009e FFF7FEFF 		bl	HAL_HCD_HC_ClearHubInfo
 215:Drivers/STM32L4xx_HAL_Driver/Src/stm32l4xx_hal_hcd.c **** 
 216:Drivers/STM32L4xx_HAL_Driver/Src/stm32l4xx_hal_hcd.c ****   if ((epnum & 0x80U) == 0x80U)
 273              		.loc 1 216 23
 274 00a2 97F90230 		ldrsb	r3, [r7, #2]
 275              		.loc 1 216 6
 276 00a6 002B     		cmp	r3, #0
 277 00a8 09DA     		bge	.L11
 217:Drivers/STM32L4xx_HAL_Driver/Src/stm32l4xx_hal_hcd.c ****   {
 218:Drivers/STM32L4xx_HAL_Driver/Src/stm32l4xx_hal_hcd.c ****     hhcd->hc[ch_num].ep_is_in = 1U;
 278              		.loc 1 218 21
 279 00aa FB78     		ldrb	r3, [r7, #3]	@ zero_extendqisi2
 280              		.loc 1 218 31
 281 00ac 7A68     		ldr	r2, [r7, #4]
 282 00ae 3421     		movs	r1, #52
 283 00b0 01FB03F3 		mul	r3, r1, r3
 284 00b4 1344     		add	r3, r3, r2
 285 00b6 1733     		adds	r3, r3, #23
 286 00b8 0122     		movs	r2, #1
 287 00ba 1A70     		strb	r2, [r3]
 288 00bc 08E0     		b	.L12
 289              	.L11:
 219:Drivers/STM32L4xx_HAL_Driver/Src/stm32l4xx_hal_hcd.c ****   }
 220:Drivers/STM32L4xx_HAL_Driver/Src/stm32l4xx_hal_hcd.c ****   else
 221:Drivers/STM32L4xx_HAL_Driver/Src/stm32l4xx_hal_hcd.c ****   {
 222:Drivers/STM32L4xx_HAL_Driver/Src/stm32l4xx_hal_hcd.c ****     hhcd->hc[ch_num].ep_is_in = 0U;
 290              		.loc 1 222 21
 291 00be FB78     		ldrb	r3, [r7, #3]	@ zero_extendqisi2
 292              		.loc 1 222 31
 293 00c0 7A68     		ldr	r2, [r7, #4]
 294 00c2 3421     		movs	r1, #52
 295 00c4 01FB03F3 		mul	r3, r1, r3
ARM GAS  /tmp/cchI0N5p.s 			page 10


 296 00c8 1344     		add	r3, r3, r2
 297 00ca 1733     		adds	r3, r3, #23
 298 00cc 0022     		movs	r2, #0
 299 00ce 1A70     		strb	r2, [r3]
 300              	.L12:
 223:Drivers/STM32L4xx_HAL_Driver/Src/stm32l4xx_hal_hcd.c ****   }
 224:Drivers/STM32L4xx_HAL_Driver/Src/stm32l4xx_hal_hcd.c **** 
 225:Drivers/STM32L4xx_HAL_Driver/Src/stm32l4xx_hal_hcd.c ****   hhcd->hc[ch_num].speed = speed;
 301              		.loc 1 225 19
 302 00d0 FB78     		ldrb	r3, [r7, #3]	@ zero_extendqisi2
 303              		.loc 1 225 26
 304 00d2 7A68     		ldr	r2, [r7, #4]
 305 00d4 3421     		movs	r1, #52
 306 00d6 01FB03F3 		mul	r3, r1, r3
 307 00da 1344     		add	r3, r3, r2
 308 00dc 1933     		adds	r3, r3, #25
 309 00de 97F82020 		ldrb	r2, [r7, #32]
 310 00e2 1A70     		strb	r2, [r3]
 226:Drivers/STM32L4xx_HAL_Driver/Src/stm32l4xx_hal_hcd.c ****   hhcd->hc[ch_num].max_packet = (uint16_t)HCcharMps;
 311              		.loc 1 226 19
 312 00e4 FB78     		ldrb	r3, [r7, #3]	@ zero_extendqisi2
 313              		.loc 1 226 33
 314 00e6 FA68     		ldr	r2, [r7, #12]
 315 00e8 90B2     		uxth	r0, r2
 316              		.loc 1 226 31
 317 00ea 7A68     		ldr	r2, [r7, #4]
 318 00ec 3421     		movs	r1, #52
 319 00ee 01FB03F3 		mul	r3, r1, r3
 320 00f2 1344     		add	r3, r3, r2
 321 00f4 1E33     		adds	r3, r3, #30
 322 00f6 0246     		mov	r2, r0	@ movhi
 323 00f8 1A80     		strh	r2, [r3]	@ movhi
 227:Drivers/STM32L4xx_HAL_Driver/Src/stm32l4xx_hal_hcd.c **** 
 228:Drivers/STM32L4xx_HAL_Driver/Src/stm32l4xx_hal_hcd.c ****   status =  USB_HC_Init(hhcd->Instance, ch_num, epnum,
 324              		.loc 1 228 29
 325 00fa 7B68     		ldr	r3, [r7, #4]
 326 00fc 1868     		ldr	r0, [r3]
 327              		.loc 1 228 13
 328 00fe FB68     		ldr	r3, [r7, #12]
 329 0100 9BB2     		uxth	r3, r3
 330 0102 7C78     		ldrb	r4, [r7, #1]	@ zero_extendqisi2
 331 0104 BA78     		ldrb	r2, [r7, #2]	@ zero_extendqisi2
 332 0106 F978     		ldrb	r1, [r7, #3]	@ zero_extendqisi2
 333 0108 0293     		str	r3, [sp, #8]
 334 010a 97F82430 		ldrb	r3, [r7, #36]	@ zero_extendqisi2
 335 010e 0193     		str	r3, [sp, #4]
 336 0110 97F82030 		ldrb	r3, [r7, #32]	@ zero_extendqisi2
 337 0114 0093     		str	r3, [sp]
 338 0116 2346     		mov	r3, r4
 339 0118 FFF7FEFF 		bl	USB_HC_Init
 340 011c 0346     		mov	r3, r0
 341 011e FB72     		strb	r3, [r7, #11]
 229:Drivers/STM32L4xx_HAL_Driver/Src/stm32l4xx_hal_hcd.c ****                         dev_address, speed, ep_type, (uint16_t)HCcharMps);
 230:Drivers/STM32L4xx_HAL_Driver/Src/stm32l4xx_hal_hcd.c **** 
 231:Drivers/STM32L4xx_HAL_Driver/Src/stm32l4xx_hal_hcd.c ****   __HAL_UNLOCK(hhcd);
 342              		.loc 1 231 3
 343 0120 7B68     		ldr	r3, [r7, #4]
ARM GAS  /tmp/cchI0N5p.s 			page 11


 344 0122 0022     		movs	r2, #0
 345 0124 83F85423 		strb	r2, [r3, #852]
 232:Drivers/STM32L4xx_HAL_Driver/Src/stm32l4xx_hal_hcd.c **** 
 233:Drivers/STM32L4xx_HAL_Driver/Src/stm32l4xx_hal_hcd.c ****   return status;
 346              		.loc 1 233 10
 347 0128 FB7A     		ldrb	r3, [r7, #11]	@ zero_extendqisi2
 348              	.L10:
 234:Drivers/STM32L4xx_HAL_Driver/Src/stm32l4xx_hal_hcd.c **** }
 349              		.loc 1 234 1
 350 012a 1846     		mov	r0, r3
 351 012c 1437     		adds	r7, r7, #20
 352              		.cfi_def_cfa_offset 12
 353 012e BD46     		mov	sp, r7
 354              		.cfi_def_cfa_register 13
 355              		@ sp needed
 356 0130 90BD     		pop	{r4, r7, pc}
 357              		.cfi_endproc
 358              	.LFE446:
 360              		.section	.text.HAL_HCD_HC_Halt,"ax",%progbits
 361              		.align	1
 362              		.global	HAL_HCD_HC_Halt
 363              		.syntax unified
 364              		.thumb
 365              		.thumb_func
 367              	HAL_HCD_HC_Halt:
 368              	.LFB447:
 235:Drivers/STM32L4xx_HAL_Driver/Src/stm32l4xx_hal_hcd.c **** 
 236:Drivers/STM32L4xx_HAL_Driver/Src/stm32l4xx_hal_hcd.c **** /**
 237:Drivers/STM32L4xx_HAL_Driver/Src/stm32l4xx_hal_hcd.c ****   * @brief  Halt a host channel.
 238:Drivers/STM32L4xx_HAL_Driver/Src/stm32l4xx_hal_hcd.c ****   * @param  hhcd HCD handle
 239:Drivers/STM32L4xx_HAL_Driver/Src/stm32l4xx_hal_hcd.c ****   * @param  ch_num Channel number.
 240:Drivers/STM32L4xx_HAL_Driver/Src/stm32l4xx_hal_hcd.c ****   *         This parameter can be a value from 1 to 15
 241:Drivers/STM32L4xx_HAL_Driver/Src/stm32l4xx_hal_hcd.c ****   * @retval HAL status
 242:Drivers/STM32L4xx_HAL_Driver/Src/stm32l4xx_hal_hcd.c ****   */
 243:Drivers/STM32L4xx_HAL_Driver/Src/stm32l4xx_hal_hcd.c **** HAL_StatusTypeDef HAL_HCD_HC_Halt(HCD_HandleTypeDef *hhcd, uint8_t ch_num)
 244:Drivers/STM32L4xx_HAL_Driver/Src/stm32l4xx_hal_hcd.c **** {
 369              		.loc 1 244 1
 370              		.cfi_startproc
 371              		@ args = 0, pretend = 0, frame = 16
 372              		@ frame_needed = 1, uses_anonymous_args = 0
 373 0000 80B5     		push	{r7, lr}
 374              		.cfi_def_cfa_offset 8
 375              		.cfi_offset 7, -8
 376              		.cfi_offset 14, -4
 377 0002 84B0     		sub	sp, sp, #16
 378              		.cfi_def_cfa_offset 24
 379 0004 00AF     		add	r7, sp, #0
 380              		.cfi_def_cfa_register 7
 381 0006 7860     		str	r0, [r7, #4]
 382 0008 0B46     		mov	r3, r1
 383 000a FB70     		strb	r3, [r7, #3]
 245:Drivers/STM32L4xx_HAL_Driver/Src/stm32l4xx_hal_hcd.c ****   HAL_StatusTypeDef status = HAL_OK;
 384              		.loc 1 245 21
 385 000c 0023     		movs	r3, #0
 386 000e FB73     		strb	r3, [r7, #15]
 246:Drivers/STM32L4xx_HAL_Driver/Src/stm32l4xx_hal_hcd.c **** 
 247:Drivers/STM32L4xx_HAL_Driver/Src/stm32l4xx_hal_hcd.c ****   __HAL_LOCK(hhcd);
ARM GAS  /tmp/cchI0N5p.s 			page 12


 387              		.loc 1 247 3
 388 0010 7B68     		ldr	r3, [r7, #4]
 389 0012 93F85433 		ldrb	r3, [r3, #852]	@ zero_extendqisi2
 390 0016 012B     		cmp	r3, #1
 391 0018 01D1     		bne	.L14
 392              		.loc 1 247 3 is_stmt 0 discriminator 1
 393 001a 0223     		movs	r3, #2
 394              		.loc 1 247 3
 395 001c 0FE0     		b	.L15
 396              	.L14:
 397              		.loc 1 247 3 discriminator 2
 398 001e 7B68     		ldr	r3, [r7, #4]
 399 0020 0122     		movs	r2, #1
 400 0022 83F85423 		strb	r2, [r3, #852]
 248:Drivers/STM32L4xx_HAL_Driver/Src/stm32l4xx_hal_hcd.c ****   (void)USB_HC_Halt(hhcd->Instance, ch_num);
 401              		.loc 1 248 25 is_stmt 1
 402 0026 7B68     		ldr	r3, [r7, #4]
 403 0028 1B68     		ldr	r3, [r3]
 404              		.loc 1 248 9
 405 002a FA78     		ldrb	r2, [r7, #3]	@ zero_extendqisi2
 406 002c 1146     		mov	r1, r2
 407 002e 1846     		mov	r0, r3
 408 0030 FFF7FEFF 		bl	USB_HC_Halt
 249:Drivers/STM32L4xx_HAL_Driver/Src/stm32l4xx_hal_hcd.c ****   __HAL_UNLOCK(hhcd);
 409              		.loc 1 249 3
 410 0034 7B68     		ldr	r3, [r7, #4]
 411 0036 0022     		movs	r2, #0
 412 0038 83F85423 		strb	r2, [r3, #852]
 250:Drivers/STM32L4xx_HAL_Driver/Src/stm32l4xx_hal_hcd.c **** 
 251:Drivers/STM32L4xx_HAL_Driver/Src/stm32l4xx_hal_hcd.c ****   return status;
 413              		.loc 1 251 10
 414 003c FB7B     		ldrb	r3, [r7, #15]	@ zero_extendqisi2
 415              	.L15:
 252:Drivers/STM32L4xx_HAL_Driver/Src/stm32l4xx_hal_hcd.c **** }
 416              		.loc 1 252 1
 417 003e 1846     		mov	r0, r3
 418 0040 1037     		adds	r7, r7, #16
 419              		.cfi_def_cfa_offset 8
 420 0042 BD46     		mov	sp, r7
 421              		.cfi_def_cfa_register 13
 422              		@ sp needed
 423 0044 80BD     		pop	{r7, pc}
 424              		.cfi_endproc
 425              	.LFE447:
 427              		.section	.text.HAL_HCD_DeInit,"ax",%progbits
 428              		.align	1
 429              		.global	HAL_HCD_DeInit
 430              		.syntax unified
 431              		.thumb
 432              		.thumb_func
 434              	HAL_HCD_DeInit:
 435              	.LFB448:
 253:Drivers/STM32L4xx_HAL_Driver/Src/stm32l4xx_hal_hcd.c **** 
 254:Drivers/STM32L4xx_HAL_Driver/Src/stm32l4xx_hal_hcd.c **** /**
 255:Drivers/STM32L4xx_HAL_Driver/Src/stm32l4xx_hal_hcd.c ****   * @brief  DeInitialize the host driver.
 256:Drivers/STM32L4xx_HAL_Driver/Src/stm32l4xx_hal_hcd.c ****   * @param  hhcd HCD handle
 257:Drivers/STM32L4xx_HAL_Driver/Src/stm32l4xx_hal_hcd.c ****   * @retval HAL status
ARM GAS  /tmp/cchI0N5p.s 			page 13


 258:Drivers/STM32L4xx_HAL_Driver/Src/stm32l4xx_hal_hcd.c ****   */
 259:Drivers/STM32L4xx_HAL_Driver/Src/stm32l4xx_hal_hcd.c **** HAL_StatusTypeDef HAL_HCD_DeInit(HCD_HandleTypeDef *hhcd)
 260:Drivers/STM32L4xx_HAL_Driver/Src/stm32l4xx_hal_hcd.c **** {
 436              		.loc 1 260 1
 437              		.cfi_startproc
 438              		@ args = 0, pretend = 0, frame = 8
 439              		@ frame_needed = 1, uses_anonymous_args = 0
 440 0000 80B5     		push	{r7, lr}
 441              		.cfi_def_cfa_offset 8
 442              		.cfi_offset 7, -8
 443              		.cfi_offset 14, -4
 444 0002 82B0     		sub	sp, sp, #8
 445              		.cfi_def_cfa_offset 16
 446 0004 00AF     		add	r7, sp, #0
 447              		.cfi_def_cfa_register 7
 448 0006 7860     		str	r0, [r7, #4]
 261:Drivers/STM32L4xx_HAL_Driver/Src/stm32l4xx_hal_hcd.c ****   /* Check the HCD handle allocation */
 262:Drivers/STM32L4xx_HAL_Driver/Src/stm32l4xx_hal_hcd.c ****   if (hhcd == NULL)
 449              		.loc 1 262 6
 450 0008 7B68     		ldr	r3, [r7, #4]
 451 000a 002B     		cmp	r3, #0
 452 000c 01D1     		bne	.L17
 263:Drivers/STM32L4xx_HAL_Driver/Src/stm32l4xx_hal_hcd.c ****   {
 264:Drivers/STM32L4xx_HAL_Driver/Src/stm32l4xx_hal_hcd.c ****     return HAL_ERROR;
 453              		.loc 1 264 12
 454 000e 0123     		movs	r3, #1
 455 0010 10E0     		b	.L18
 456              	.L17:
 265:Drivers/STM32L4xx_HAL_Driver/Src/stm32l4xx_hal_hcd.c ****   }
 266:Drivers/STM32L4xx_HAL_Driver/Src/stm32l4xx_hal_hcd.c **** 
 267:Drivers/STM32L4xx_HAL_Driver/Src/stm32l4xx_hal_hcd.c ****   hhcd->State = HAL_HCD_STATE_BUSY;
 457              		.loc 1 267 15
 458 0012 7B68     		ldr	r3, [r7, #4]
 459 0014 0322     		movs	r2, #3
 460 0016 83F85523 		strb	r2, [r3, #853]
 268:Drivers/STM32L4xx_HAL_Driver/Src/stm32l4xx_hal_hcd.c **** 
 269:Drivers/STM32L4xx_HAL_Driver/Src/stm32l4xx_hal_hcd.c **** #if (USE_HAL_HCD_REGISTER_CALLBACKS == 1U)
 270:Drivers/STM32L4xx_HAL_Driver/Src/stm32l4xx_hal_hcd.c ****   if (hhcd->MspDeInitCallback == NULL)
 271:Drivers/STM32L4xx_HAL_Driver/Src/stm32l4xx_hal_hcd.c ****   {
 272:Drivers/STM32L4xx_HAL_Driver/Src/stm32l4xx_hal_hcd.c ****     hhcd->MspDeInitCallback = HAL_HCD_MspDeInit; /* Legacy weak MspDeInit  */
 273:Drivers/STM32L4xx_HAL_Driver/Src/stm32l4xx_hal_hcd.c ****   }
 274:Drivers/STM32L4xx_HAL_Driver/Src/stm32l4xx_hal_hcd.c **** 
 275:Drivers/STM32L4xx_HAL_Driver/Src/stm32l4xx_hal_hcd.c ****   /* DeInit the low level hardware */
 276:Drivers/STM32L4xx_HAL_Driver/Src/stm32l4xx_hal_hcd.c ****   hhcd->MspDeInitCallback(hhcd);
 277:Drivers/STM32L4xx_HAL_Driver/Src/stm32l4xx_hal_hcd.c **** #else
 278:Drivers/STM32L4xx_HAL_Driver/Src/stm32l4xx_hal_hcd.c ****   /* DeInit the low level hardware: CLOCK, NVIC.*/
 279:Drivers/STM32L4xx_HAL_Driver/Src/stm32l4xx_hal_hcd.c ****   HAL_HCD_MspDeInit(hhcd);
 461              		.loc 1 279 3
 462 001a 7868     		ldr	r0, [r7, #4]
 463 001c FFF7FEFF 		bl	HAL_HCD_MspDeInit
 280:Drivers/STM32L4xx_HAL_Driver/Src/stm32l4xx_hal_hcd.c **** #endif /* USE_HAL_HCD_REGISTER_CALLBACKS */
 281:Drivers/STM32L4xx_HAL_Driver/Src/stm32l4xx_hal_hcd.c **** 
 282:Drivers/STM32L4xx_HAL_Driver/Src/stm32l4xx_hal_hcd.c ****   __HAL_HCD_DISABLE(hhcd);
 464              		.loc 1 282 3
 465 0020 7B68     		ldr	r3, [r7, #4]
 466 0022 1B68     		ldr	r3, [r3]
 467 0024 1846     		mov	r0, r3
ARM GAS  /tmp/cchI0N5p.s 			page 14


 468 0026 FFF7FEFF 		bl	USB_DisableGlobalInt
 283:Drivers/STM32L4xx_HAL_Driver/Src/stm32l4xx_hal_hcd.c **** 
 284:Drivers/STM32L4xx_HAL_Driver/Src/stm32l4xx_hal_hcd.c ****   hhcd->State = HAL_HCD_STATE_RESET;
 469              		.loc 1 284 15
 470 002a 7B68     		ldr	r3, [r7, #4]
 471 002c 0022     		movs	r2, #0
 472 002e 83F85523 		strb	r2, [r3, #853]
 285:Drivers/STM32L4xx_HAL_Driver/Src/stm32l4xx_hal_hcd.c **** 
 286:Drivers/STM32L4xx_HAL_Driver/Src/stm32l4xx_hal_hcd.c ****   return HAL_OK;
 473              		.loc 1 286 10
 474 0032 0023     		movs	r3, #0
 475              	.L18:
 287:Drivers/STM32L4xx_HAL_Driver/Src/stm32l4xx_hal_hcd.c **** }
 476              		.loc 1 287 1
 477 0034 1846     		mov	r0, r3
 478 0036 0837     		adds	r7, r7, #8
 479              		.cfi_def_cfa_offset 8
 480 0038 BD46     		mov	sp, r7
 481              		.cfi_def_cfa_register 13
 482              		@ sp needed
 483 003a 80BD     		pop	{r7, pc}
 484              		.cfi_endproc
 485              	.LFE448:
 487              		.section	.text.HAL_HCD_MspInit,"ax",%progbits
 488              		.align	1
 489              		.weak	HAL_HCD_MspInit
 490              		.syntax unified
 491              		.thumb
 492              		.thumb_func
 494              	HAL_HCD_MspInit:
 495              	.LFB449:
 288:Drivers/STM32L4xx_HAL_Driver/Src/stm32l4xx_hal_hcd.c **** 
 289:Drivers/STM32L4xx_HAL_Driver/Src/stm32l4xx_hal_hcd.c **** /**
 290:Drivers/STM32L4xx_HAL_Driver/Src/stm32l4xx_hal_hcd.c ****   * @brief  Initialize the HCD MSP.
 291:Drivers/STM32L4xx_HAL_Driver/Src/stm32l4xx_hal_hcd.c ****   * @param  hhcd HCD handle
 292:Drivers/STM32L4xx_HAL_Driver/Src/stm32l4xx_hal_hcd.c ****   * @retval None
 293:Drivers/STM32L4xx_HAL_Driver/Src/stm32l4xx_hal_hcd.c ****   */
 294:Drivers/STM32L4xx_HAL_Driver/Src/stm32l4xx_hal_hcd.c **** __weak void  HAL_HCD_MspInit(HCD_HandleTypeDef *hhcd)
 295:Drivers/STM32L4xx_HAL_Driver/Src/stm32l4xx_hal_hcd.c **** {
 496              		.loc 1 295 1
 497              		.cfi_startproc
 498              		@ args = 0, pretend = 0, frame = 8
 499              		@ frame_needed = 1, uses_anonymous_args = 0
 500              		@ link register save eliminated.
 501 0000 80B4     		push	{r7}
 502              		.cfi_def_cfa_offset 4
 503              		.cfi_offset 7, -4
 504 0002 83B0     		sub	sp, sp, #12
 505              		.cfi_def_cfa_offset 16
 506 0004 00AF     		add	r7, sp, #0
 507              		.cfi_def_cfa_register 7
 508 0006 7860     		str	r0, [r7, #4]
 296:Drivers/STM32L4xx_HAL_Driver/Src/stm32l4xx_hal_hcd.c ****   /* Prevent unused argument(s) compilation warning */
 297:Drivers/STM32L4xx_HAL_Driver/Src/stm32l4xx_hal_hcd.c ****   UNUSED(hhcd);
 298:Drivers/STM32L4xx_HAL_Driver/Src/stm32l4xx_hal_hcd.c **** 
 299:Drivers/STM32L4xx_HAL_Driver/Src/stm32l4xx_hal_hcd.c ****   /* NOTE : This function should not be modified, when the callback is needed,
 300:Drivers/STM32L4xx_HAL_Driver/Src/stm32l4xx_hal_hcd.c ****             the HAL_HCD_MspInit could be implemented in the user file
ARM GAS  /tmp/cchI0N5p.s 			page 15


 301:Drivers/STM32L4xx_HAL_Driver/Src/stm32l4xx_hal_hcd.c ****    */
 302:Drivers/STM32L4xx_HAL_Driver/Src/stm32l4xx_hal_hcd.c **** }
 509              		.loc 1 302 1
 510 0008 00BF     		nop
 511 000a 0C37     		adds	r7, r7, #12
 512              		.cfi_def_cfa_offset 4
 513 000c BD46     		mov	sp, r7
 514              		.cfi_def_cfa_register 13
 515              		@ sp needed
 516 000e 5DF8047B 		ldr	r7, [sp], #4
 517              		.cfi_restore 7
 518              		.cfi_def_cfa_offset 0
 519 0012 7047     		bx	lr
 520              		.cfi_endproc
 521              	.LFE449:
 523              		.section	.text.HAL_HCD_MspDeInit,"ax",%progbits
 524              		.align	1
 525              		.weak	HAL_HCD_MspDeInit
 526              		.syntax unified
 527              		.thumb
 528              		.thumb_func
 530              	HAL_HCD_MspDeInit:
 531              	.LFB450:
 303:Drivers/STM32L4xx_HAL_Driver/Src/stm32l4xx_hal_hcd.c **** 
 304:Drivers/STM32L4xx_HAL_Driver/Src/stm32l4xx_hal_hcd.c **** /**
 305:Drivers/STM32L4xx_HAL_Driver/Src/stm32l4xx_hal_hcd.c ****   * @brief  DeInitialize the HCD MSP.
 306:Drivers/STM32L4xx_HAL_Driver/Src/stm32l4xx_hal_hcd.c ****   * @param  hhcd HCD handle
 307:Drivers/STM32L4xx_HAL_Driver/Src/stm32l4xx_hal_hcd.c ****   * @retval None
 308:Drivers/STM32L4xx_HAL_Driver/Src/stm32l4xx_hal_hcd.c ****   */
 309:Drivers/STM32L4xx_HAL_Driver/Src/stm32l4xx_hal_hcd.c **** __weak void  HAL_HCD_MspDeInit(HCD_HandleTypeDef *hhcd)
 310:Drivers/STM32L4xx_HAL_Driver/Src/stm32l4xx_hal_hcd.c **** {
 532              		.loc 1 310 1
 533              		.cfi_startproc
 534              		@ args = 0, pretend = 0, frame = 8
 535              		@ frame_needed = 1, uses_anonymous_args = 0
 536              		@ link register save eliminated.
 537 0000 80B4     		push	{r7}
 538              		.cfi_def_cfa_offset 4
 539              		.cfi_offset 7, -4
 540 0002 83B0     		sub	sp, sp, #12
 541              		.cfi_def_cfa_offset 16
 542 0004 00AF     		add	r7, sp, #0
 543              		.cfi_def_cfa_register 7
 544 0006 7860     		str	r0, [r7, #4]
 311:Drivers/STM32L4xx_HAL_Driver/Src/stm32l4xx_hal_hcd.c ****   /* Prevent unused argument(s) compilation warning */
 312:Drivers/STM32L4xx_HAL_Driver/Src/stm32l4xx_hal_hcd.c ****   UNUSED(hhcd);
 313:Drivers/STM32L4xx_HAL_Driver/Src/stm32l4xx_hal_hcd.c **** 
 314:Drivers/STM32L4xx_HAL_Driver/Src/stm32l4xx_hal_hcd.c ****   /* NOTE : This function should not be modified, when the callback is needed,
 315:Drivers/STM32L4xx_HAL_Driver/Src/stm32l4xx_hal_hcd.c ****             the HAL_HCD_MspDeInit could be implemented in the user file
 316:Drivers/STM32L4xx_HAL_Driver/Src/stm32l4xx_hal_hcd.c ****    */
 317:Drivers/STM32L4xx_HAL_Driver/Src/stm32l4xx_hal_hcd.c **** }
 545              		.loc 1 317 1
 546 0008 00BF     		nop
 547 000a 0C37     		adds	r7, r7, #12
 548              		.cfi_def_cfa_offset 4
 549 000c BD46     		mov	sp, r7
 550              		.cfi_def_cfa_register 13
ARM GAS  /tmp/cchI0N5p.s 			page 16


 551              		@ sp needed
 552 000e 5DF8047B 		ldr	r7, [sp], #4
 553              		.cfi_restore 7
 554              		.cfi_def_cfa_offset 0
 555 0012 7047     		bx	lr
 556              		.cfi_endproc
 557              	.LFE450:
 559              		.section	.text.HAL_HCD_HC_SubmitRequest,"ax",%progbits
 560              		.align	1
 561              		.global	HAL_HCD_HC_SubmitRequest
 562              		.syntax unified
 563              		.thumb
 564              		.thumb_func
 566              	HAL_HCD_HC_SubmitRequest:
 567              	.LFB451:
 318:Drivers/STM32L4xx_HAL_Driver/Src/stm32l4xx_hal_hcd.c **** 
 319:Drivers/STM32L4xx_HAL_Driver/Src/stm32l4xx_hal_hcd.c **** /**
 320:Drivers/STM32L4xx_HAL_Driver/Src/stm32l4xx_hal_hcd.c ****   * @}
 321:Drivers/STM32L4xx_HAL_Driver/Src/stm32l4xx_hal_hcd.c ****   */
 322:Drivers/STM32L4xx_HAL_Driver/Src/stm32l4xx_hal_hcd.c **** 
 323:Drivers/STM32L4xx_HAL_Driver/Src/stm32l4xx_hal_hcd.c **** /** @defgroup HCD_Exported_Functions_Group2 Input and Output operation functions
 324:Drivers/STM32L4xx_HAL_Driver/Src/stm32l4xx_hal_hcd.c ****   *  @brief   HCD IO operation functions
 325:Drivers/STM32L4xx_HAL_Driver/Src/stm32l4xx_hal_hcd.c ****   *
 326:Drivers/STM32L4xx_HAL_Driver/Src/stm32l4xx_hal_hcd.c **** @verbatim
 327:Drivers/STM32L4xx_HAL_Driver/Src/stm32l4xx_hal_hcd.c ****  ===============================================================================
 328:Drivers/STM32L4xx_HAL_Driver/Src/stm32l4xx_hal_hcd.c ****                       ##### IO operation functions #####
 329:Drivers/STM32L4xx_HAL_Driver/Src/stm32l4xx_hal_hcd.c ****  ===============================================================================
 330:Drivers/STM32L4xx_HAL_Driver/Src/stm32l4xx_hal_hcd.c ****  [..] This subsection provides a set of functions allowing to manage the USB Host Data
 331:Drivers/STM32L4xx_HAL_Driver/Src/stm32l4xx_hal_hcd.c ****     Transfer
 332:Drivers/STM32L4xx_HAL_Driver/Src/stm32l4xx_hal_hcd.c **** 
 333:Drivers/STM32L4xx_HAL_Driver/Src/stm32l4xx_hal_hcd.c **** @endverbatim
 334:Drivers/STM32L4xx_HAL_Driver/Src/stm32l4xx_hal_hcd.c ****   * @{
 335:Drivers/STM32L4xx_HAL_Driver/Src/stm32l4xx_hal_hcd.c ****   */
 336:Drivers/STM32L4xx_HAL_Driver/Src/stm32l4xx_hal_hcd.c **** 
 337:Drivers/STM32L4xx_HAL_Driver/Src/stm32l4xx_hal_hcd.c **** /**
 338:Drivers/STM32L4xx_HAL_Driver/Src/stm32l4xx_hal_hcd.c ****   * @brief  Submit a new URB for processing.
 339:Drivers/STM32L4xx_HAL_Driver/Src/stm32l4xx_hal_hcd.c ****   * @param  hhcd HCD handle
 340:Drivers/STM32L4xx_HAL_Driver/Src/stm32l4xx_hal_hcd.c ****   * @param  ch_num Channel number.
 341:Drivers/STM32L4xx_HAL_Driver/Src/stm32l4xx_hal_hcd.c ****   *         This parameter can be a value from 1 to 15
 342:Drivers/STM32L4xx_HAL_Driver/Src/stm32l4xx_hal_hcd.c ****   * @param  direction Channel number.
 343:Drivers/STM32L4xx_HAL_Driver/Src/stm32l4xx_hal_hcd.c ****   *          This parameter can be one of these values:
 344:Drivers/STM32L4xx_HAL_Driver/Src/stm32l4xx_hal_hcd.c ****   *           0 : Output / 1 : Input
 345:Drivers/STM32L4xx_HAL_Driver/Src/stm32l4xx_hal_hcd.c ****   * @param  ep_type Endpoint Type.
 346:Drivers/STM32L4xx_HAL_Driver/Src/stm32l4xx_hal_hcd.c ****   *          This parameter can be one of these values:
 347:Drivers/STM32L4xx_HAL_Driver/Src/stm32l4xx_hal_hcd.c ****   *            EP_TYPE_CTRL: Control type/
 348:Drivers/STM32L4xx_HAL_Driver/Src/stm32l4xx_hal_hcd.c ****   *            EP_TYPE_ISOC: Isochronous type/
 349:Drivers/STM32L4xx_HAL_Driver/Src/stm32l4xx_hal_hcd.c ****   *            EP_TYPE_BULK: Bulk type/
 350:Drivers/STM32L4xx_HAL_Driver/Src/stm32l4xx_hal_hcd.c ****   *            EP_TYPE_INTR: Interrupt type/
 351:Drivers/STM32L4xx_HAL_Driver/Src/stm32l4xx_hal_hcd.c ****   * @param  token Endpoint Type.
 352:Drivers/STM32L4xx_HAL_Driver/Src/stm32l4xx_hal_hcd.c ****   *          This parameter can be one of these values:
 353:Drivers/STM32L4xx_HAL_Driver/Src/stm32l4xx_hal_hcd.c ****   *            0: HC_PID_SETUP / 1: HC_PID_DATA1
 354:Drivers/STM32L4xx_HAL_Driver/Src/stm32l4xx_hal_hcd.c ****   * @param  pbuff pointer to URB data
 355:Drivers/STM32L4xx_HAL_Driver/Src/stm32l4xx_hal_hcd.c ****   * @param  length Length of URB data
 356:Drivers/STM32L4xx_HAL_Driver/Src/stm32l4xx_hal_hcd.c ****   * @param  do_ping activate do ping protocol (for high speed only).
 357:Drivers/STM32L4xx_HAL_Driver/Src/stm32l4xx_hal_hcd.c ****   *          This parameter can be one of these values:
 358:Drivers/STM32L4xx_HAL_Driver/Src/stm32l4xx_hal_hcd.c ****   *           0 : do ping inactive / 1 : do ping active
 359:Drivers/STM32L4xx_HAL_Driver/Src/stm32l4xx_hal_hcd.c ****   * @retval HAL status
ARM GAS  /tmp/cchI0N5p.s 			page 17


 360:Drivers/STM32L4xx_HAL_Driver/Src/stm32l4xx_hal_hcd.c ****   */
 361:Drivers/STM32L4xx_HAL_Driver/Src/stm32l4xx_hal_hcd.c **** HAL_StatusTypeDef HAL_HCD_HC_SubmitRequest(HCD_HandleTypeDef *hhcd,
 362:Drivers/STM32L4xx_HAL_Driver/Src/stm32l4xx_hal_hcd.c ****                                            uint8_t ch_num,
 363:Drivers/STM32L4xx_HAL_Driver/Src/stm32l4xx_hal_hcd.c ****                                            uint8_t direction,
 364:Drivers/STM32L4xx_HAL_Driver/Src/stm32l4xx_hal_hcd.c ****                                            uint8_t ep_type,
 365:Drivers/STM32L4xx_HAL_Driver/Src/stm32l4xx_hal_hcd.c ****                                            uint8_t token,
 366:Drivers/STM32L4xx_HAL_Driver/Src/stm32l4xx_hal_hcd.c ****                                            uint8_t *pbuff,
 367:Drivers/STM32L4xx_HAL_Driver/Src/stm32l4xx_hal_hcd.c ****                                            uint16_t length,
 368:Drivers/STM32L4xx_HAL_Driver/Src/stm32l4xx_hal_hcd.c ****                                            uint8_t do_ping)
 369:Drivers/STM32L4xx_HAL_Driver/Src/stm32l4xx_hal_hcd.c **** {
 568              		.loc 1 369 1
 569              		.cfi_startproc
 570              		@ args = 16, pretend = 0, frame = 8
 571              		@ frame_needed = 1, uses_anonymous_args = 0
 572 0000 80B5     		push	{r7, lr}
 573              		.cfi_def_cfa_offset 8
 574              		.cfi_offset 7, -8
 575              		.cfi_offset 14, -4
 576 0002 82B0     		sub	sp, sp, #8
 577              		.cfi_def_cfa_offset 16
 578 0004 00AF     		add	r7, sp, #0
 579              		.cfi_def_cfa_register 7
 580 0006 7860     		str	r0, [r7, #4]
 581 0008 0846     		mov	r0, r1
 582 000a 1146     		mov	r1, r2
 583 000c 1A46     		mov	r2, r3
 584 000e 0346     		mov	r3, r0
 585 0010 FB70     		strb	r3, [r7, #3]
 586 0012 0B46     		mov	r3, r1
 587 0014 BB70     		strb	r3, [r7, #2]
 588 0016 1346     		mov	r3, r2
 589 0018 7B70     		strb	r3, [r7, #1]
 370:Drivers/STM32L4xx_HAL_Driver/Src/stm32l4xx_hal_hcd.c ****   hhcd->hc[ch_num].ep_is_in = direction;
 590              		.loc 1 370 19
 591 001a FB78     		ldrb	r3, [r7, #3]	@ zero_extendqisi2
 592              		.loc 1 370 29
 593 001c 7A68     		ldr	r2, [r7, #4]
 594 001e 3421     		movs	r1, #52
 595 0020 01FB03F3 		mul	r3, r1, r3
 596 0024 1344     		add	r3, r3, r2
 597 0026 1733     		adds	r3, r3, #23
 598 0028 BA78     		ldrb	r2, [r7, #2]
 599 002a 1A70     		strb	r2, [r3]
 371:Drivers/STM32L4xx_HAL_Driver/Src/stm32l4xx_hal_hcd.c ****   hhcd->hc[ch_num].ep_type  = ep_type;
 600              		.loc 1 371 19
 601 002c FB78     		ldrb	r3, [r7, #3]	@ zero_extendqisi2
 602              		.loc 1 371 29
 603 002e 7A68     		ldr	r2, [r7, #4]
 604 0030 3421     		movs	r1, #52
 605 0032 01FB03F3 		mul	r3, r1, r3
 606 0036 1344     		add	r3, r3, r2
 607 0038 1D33     		adds	r3, r3, #29
 608 003a 7A78     		ldrb	r2, [r7, #1]
 609 003c 1A70     		strb	r2, [r3]
 372:Drivers/STM32L4xx_HAL_Driver/Src/stm32l4xx_hal_hcd.c **** 
 373:Drivers/STM32L4xx_HAL_Driver/Src/stm32l4xx_hal_hcd.c ****   if (token == 0U)
 610              		.loc 1 373 6
ARM GAS  /tmp/cchI0N5p.s 			page 18


 611 003e 3B7C     		ldrb	r3, [r7, #16]	@ zero_extendqisi2
 612 0040 002B     		cmp	r3, #0
 613 0042 12D1     		bne	.L22
 374:Drivers/STM32L4xx_HAL_Driver/Src/stm32l4xx_hal_hcd.c ****   {
 375:Drivers/STM32L4xx_HAL_Driver/Src/stm32l4xx_hal_hcd.c ****     hhcd->hc[ch_num].data_pid = HC_PID_SETUP;
 614              		.loc 1 375 21
 615 0044 FB78     		ldrb	r3, [r7, #3]	@ zero_extendqisi2
 616              		.loc 1 375 31
 617 0046 7A68     		ldr	r2, [r7, #4]
 618 0048 3421     		movs	r1, #52
 619 004a 01FB03F3 		mul	r3, r1, r3
 620 004e 1344     		add	r3, r3, r2
 621 0050 2033     		adds	r3, r3, #32
 622 0052 0322     		movs	r2, #3
 623 0054 1A70     		strb	r2, [r3]
 376:Drivers/STM32L4xx_HAL_Driver/Src/stm32l4xx_hal_hcd.c ****     hhcd->hc[ch_num].do_ping = do_ping;
 624              		.loc 1 376 21
 625 0056 FB78     		ldrb	r3, [r7, #3]	@ zero_extendqisi2
 626              		.loc 1 376 30
 627 0058 7A68     		ldr	r2, [r7, #4]
 628 005a 3421     		movs	r1, #52
 629 005c 01FB03F3 		mul	r3, r1, r3
 630 0060 1344     		add	r3, r3, r2
 631 0062 1A33     		adds	r3, r3, #26
 632 0064 3A7F     		ldrb	r2, [r7, #28]
 633 0066 1A70     		strb	r2, [r3]
 634 0068 08E0     		b	.L23
 635              	.L22:
 377:Drivers/STM32L4xx_HAL_Driver/Src/stm32l4xx_hal_hcd.c ****   }
 378:Drivers/STM32L4xx_HAL_Driver/Src/stm32l4xx_hal_hcd.c ****   else
 379:Drivers/STM32L4xx_HAL_Driver/Src/stm32l4xx_hal_hcd.c ****   {
 380:Drivers/STM32L4xx_HAL_Driver/Src/stm32l4xx_hal_hcd.c ****     hhcd->hc[ch_num].data_pid = HC_PID_DATA1;
 636              		.loc 1 380 21
 637 006a FB78     		ldrb	r3, [r7, #3]	@ zero_extendqisi2
 638              		.loc 1 380 31
 639 006c 7A68     		ldr	r2, [r7, #4]
 640 006e 3421     		movs	r1, #52
 641 0070 01FB03F3 		mul	r3, r1, r3
 642 0074 1344     		add	r3, r3, r2
 643 0076 2033     		adds	r3, r3, #32
 644 0078 0222     		movs	r2, #2
 645 007a 1A70     		strb	r2, [r3]
 646              	.L23:
 381:Drivers/STM32L4xx_HAL_Driver/Src/stm32l4xx_hal_hcd.c ****   }
 382:Drivers/STM32L4xx_HAL_Driver/Src/stm32l4xx_hal_hcd.c **** 
 383:Drivers/STM32L4xx_HAL_Driver/Src/stm32l4xx_hal_hcd.c ****   /* Manage Data Toggle */
 384:Drivers/STM32L4xx_HAL_Driver/Src/stm32l4xx_hal_hcd.c ****   switch (ep_type)
 647              		.loc 1 384 3
 648 007c 7B78     		ldrb	r3, [r7, #1]	@ zero_extendqisi2
 649 007e 032B     		cmp	r3, #3
 650 0080 00F2C680 		bhi	.L43
 651 0084 01A2     		adr	r2, .L26
 652 0086 52F823F0 		ldr	pc, [r2, r3, lsl #2]
 653 008a 00BF     		.p2align 2
 654              	.L26:
 655 008c 9D000000 		.word	.L29+1
 656 0090 FD010000 		.word	.L28+1
ARM GAS  /tmp/cchI0N5p.s 			page 19


 657 0094 01010000 		.word	.L27+1
 658 0098 7F010000 		.word	.L25+1
 659              		.p2align 1
 660              	.L29:
 385:Drivers/STM32L4xx_HAL_Driver/Src/stm32l4xx_hal_hcd.c ****   {
 386:Drivers/STM32L4xx_HAL_Driver/Src/stm32l4xx_hal_hcd.c ****     case EP_TYPE_CTRL:
 387:Drivers/STM32L4xx_HAL_Driver/Src/stm32l4xx_hal_hcd.c ****       if (token == 1U) /* send data */
 661              		.loc 1 387 10
 662 009c 3B7C     		ldrb	r3, [r7, #16]	@ zero_extendqisi2
 663 009e 012B     		cmp	r3, #1
 664 00a0 40F0B880 		bne	.L44
 388:Drivers/STM32L4xx_HAL_Driver/Src/stm32l4xx_hal_hcd.c ****       {
 389:Drivers/STM32L4xx_HAL_Driver/Src/stm32l4xx_hal_hcd.c ****         if (direction == 0U)
 665              		.loc 1 389 12
 666 00a4 BB78     		ldrb	r3, [r7, #2]	@ zero_extendqisi2
 667 00a6 002B     		cmp	r3, #0
 668 00a8 40F0B480 		bne	.L44
 390:Drivers/STM32L4xx_HAL_Driver/Src/stm32l4xx_hal_hcd.c ****         {
 391:Drivers/STM32L4xx_HAL_Driver/Src/stm32l4xx_hal_hcd.c ****           if (length == 0U)
 669              		.loc 1 391 14
 670 00ac 3B8B     		ldrh	r3, [r7, #24]
 671 00ae 002B     		cmp	r3, #0
 672 00b0 08D1     		bne	.L31
 392:Drivers/STM32L4xx_HAL_Driver/Src/stm32l4xx_hal_hcd.c ****           {
 393:Drivers/STM32L4xx_HAL_Driver/Src/stm32l4xx_hal_hcd.c ****             /* For Status OUT stage, Length == 0U, Status Out PID = 1 */
 394:Drivers/STM32L4xx_HAL_Driver/Src/stm32l4xx_hal_hcd.c ****             hhcd->hc[ch_num].toggle_out = 1U;
 673              		.loc 1 394 29
 674 00b2 FB78     		ldrb	r3, [r7, #3]	@ zero_extendqisi2
 675              		.loc 1 394 41
 676 00b4 7A68     		ldr	r2, [r7, #4]
 677 00b6 3421     		movs	r1, #52
 678 00b8 01FB03F3 		mul	r3, r1, r3
 679 00bc 1344     		add	r3, r3, r2
 680 00be 3533     		adds	r3, r3, #53
 681 00c0 0122     		movs	r2, #1
 682 00c2 1A70     		strb	r2, [r3]
 683              	.L31:
 395:Drivers/STM32L4xx_HAL_Driver/Src/stm32l4xx_hal_hcd.c ****           }
 396:Drivers/STM32L4xx_HAL_Driver/Src/stm32l4xx_hal_hcd.c **** 
 397:Drivers/STM32L4xx_HAL_Driver/Src/stm32l4xx_hal_hcd.c ****           /* Set the Data Toggle bit as per the Flag */
 398:Drivers/STM32L4xx_HAL_Driver/Src/stm32l4xx_hal_hcd.c ****           if (hhcd->hc[ch_num].toggle_out == 0U)
 684              		.loc 1 398 31
 685 00c4 FB78     		ldrb	r3, [r7, #3]	@ zero_extendqisi2
 686 00c6 7A68     		ldr	r2, [r7, #4]
 687 00c8 3421     		movs	r1, #52
 688 00ca 01FB03F3 		mul	r3, r1, r3
 689 00ce 1344     		add	r3, r3, r2
 690 00d0 3533     		adds	r3, r3, #53
 691 00d2 1B78     		ldrb	r3, [r3]	@ zero_extendqisi2
 692              		.loc 1 398 14
 693 00d4 002B     		cmp	r3, #0
 694 00d6 09D1     		bne	.L32
 399:Drivers/STM32L4xx_HAL_Driver/Src/stm32l4xx_hal_hcd.c ****           {
 400:Drivers/STM32L4xx_HAL_Driver/Src/stm32l4xx_hal_hcd.c ****             /* Put the PID 0 */
 401:Drivers/STM32L4xx_HAL_Driver/Src/stm32l4xx_hal_hcd.c ****             hhcd->hc[ch_num].data_pid = HC_PID_DATA0;
 695              		.loc 1 401 29
 696 00d8 FB78     		ldrb	r3, [r7, #3]	@ zero_extendqisi2
ARM GAS  /tmp/cchI0N5p.s 			page 20


 697              		.loc 1 401 39
 698 00da 7A68     		ldr	r2, [r7, #4]
 699 00dc 3421     		movs	r1, #52
 700 00de 01FB03F3 		mul	r3, r1, r3
 701 00e2 1344     		add	r3, r3, r2
 702 00e4 2033     		adds	r3, r3, #32
 703 00e6 0022     		movs	r2, #0
 704 00e8 1A70     		strb	r2, [r3]
 402:Drivers/STM32L4xx_HAL_Driver/Src/stm32l4xx_hal_hcd.c ****           }
 403:Drivers/STM32L4xx_HAL_Driver/Src/stm32l4xx_hal_hcd.c ****           else
 404:Drivers/STM32L4xx_HAL_Driver/Src/stm32l4xx_hal_hcd.c ****           {
 405:Drivers/STM32L4xx_HAL_Driver/Src/stm32l4xx_hal_hcd.c ****             /* Put the PID 1 */
 406:Drivers/STM32L4xx_HAL_Driver/Src/stm32l4xx_hal_hcd.c ****             hhcd->hc[ch_num].data_pid = HC_PID_DATA1;
 407:Drivers/STM32L4xx_HAL_Driver/Src/stm32l4xx_hal_hcd.c ****           }
 408:Drivers/STM32L4xx_HAL_Driver/Src/stm32l4xx_hal_hcd.c ****         }
 409:Drivers/STM32L4xx_HAL_Driver/Src/stm32l4xx_hal_hcd.c ****       }
 410:Drivers/STM32L4xx_HAL_Driver/Src/stm32l4xx_hal_hcd.c ****       break;
 705              		.loc 1 410 7
 706 00ea 93E0     		b	.L44
 707              	.L32:
 406:Drivers/STM32L4xx_HAL_Driver/Src/stm32l4xx_hal_hcd.c ****           }
 708              		.loc 1 406 29
 709 00ec FB78     		ldrb	r3, [r7, #3]	@ zero_extendqisi2
 406:Drivers/STM32L4xx_HAL_Driver/Src/stm32l4xx_hal_hcd.c ****           }
 710              		.loc 1 406 39
 711 00ee 7A68     		ldr	r2, [r7, #4]
 712 00f0 3421     		movs	r1, #52
 713 00f2 01FB03F3 		mul	r3, r1, r3
 714 00f6 1344     		add	r3, r3, r2
 715 00f8 2033     		adds	r3, r3, #32
 716 00fa 0222     		movs	r2, #2
 717 00fc 1A70     		strb	r2, [r3]
 718              		.loc 1 410 7
 719 00fe 89E0     		b	.L44
 720              	.L27:
 411:Drivers/STM32L4xx_HAL_Driver/Src/stm32l4xx_hal_hcd.c **** 
 412:Drivers/STM32L4xx_HAL_Driver/Src/stm32l4xx_hal_hcd.c ****     case EP_TYPE_BULK:
 413:Drivers/STM32L4xx_HAL_Driver/Src/stm32l4xx_hal_hcd.c ****       if (direction == 0U)
 721              		.loc 1 413 10
 722 0100 BB78     		ldrb	r3, [r7, #2]	@ zero_extendqisi2
 723 0102 002B     		cmp	r3, #0
 724 0104 1DD1     		bne	.L34
 414:Drivers/STM32L4xx_HAL_Driver/Src/stm32l4xx_hal_hcd.c ****       {
 415:Drivers/STM32L4xx_HAL_Driver/Src/stm32l4xx_hal_hcd.c ****         /* Set the Data Toggle bit as per the Flag */
 416:Drivers/STM32L4xx_HAL_Driver/Src/stm32l4xx_hal_hcd.c ****         if (hhcd->hc[ch_num].toggle_out == 0U)
 725              		.loc 1 416 29
 726 0106 FB78     		ldrb	r3, [r7, #3]	@ zero_extendqisi2
 727 0108 7A68     		ldr	r2, [r7, #4]
 728 010a 3421     		movs	r1, #52
 729 010c 01FB03F3 		mul	r3, r1, r3
 730 0110 1344     		add	r3, r3, r2
 731 0112 3533     		adds	r3, r3, #53
 732 0114 1B78     		ldrb	r3, [r3]	@ zero_extendqisi2
 733              		.loc 1 416 12
 734 0116 002B     		cmp	r3, #0
 735 0118 09D1     		bne	.L35
 417:Drivers/STM32L4xx_HAL_Driver/Src/stm32l4xx_hal_hcd.c ****         {
ARM GAS  /tmp/cchI0N5p.s 			page 21


 418:Drivers/STM32L4xx_HAL_Driver/Src/stm32l4xx_hal_hcd.c ****           /* Put the PID 0 */
 419:Drivers/STM32L4xx_HAL_Driver/Src/stm32l4xx_hal_hcd.c ****           hhcd->hc[ch_num].data_pid = HC_PID_DATA0;
 736              		.loc 1 419 27
 737 011a FB78     		ldrb	r3, [r7, #3]	@ zero_extendqisi2
 738              		.loc 1 419 37
 739 011c 7A68     		ldr	r2, [r7, #4]
 740 011e 3421     		movs	r1, #52
 741 0120 01FB03F3 		mul	r3, r1, r3
 742 0124 1344     		add	r3, r3, r2
 743 0126 2033     		adds	r3, r3, #32
 744 0128 0022     		movs	r2, #0
 745 012a 1A70     		strb	r2, [r3]
 420:Drivers/STM32L4xx_HAL_Driver/Src/stm32l4xx_hal_hcd.c ****         }
 421:Drivers/STM32L4xx_HAL_Driver/Src/stm32l4xx_hal_hcd.c ****         else
 422:Drivers/STM32L4xx_HAL_Driver/Src/stm32l4xx_hal_hcd.c ****         {
 423:Drivers/STM32L4xx_HAL_Driver/Src/stm32l4xx_hal_hcd.c ****           /* Put the PID 1 */
 424:Drivers/STM32L4xx_HAL_Driver/Src/stm32l4xx_hal_hcd.c ****           hhcd->hc[ch_num].data_pid = HC_PID_DATA1;
 425:Drivers/STM32L4xx_HAL_Driver/Src/stm32l4xx_hal_hcd.c ****         }
 426:Drivers/STM32L4xx_HAL_Driver/Src/stm32l4xx_hal_hcd.c ****       }
 427:Drivers/STM32L4xx_HAL_Driver/Src/stm32l4xx_hal_hcd.c ****       else
 428:Drivers/STM32L4xx_HAL_Driver/Src/stm32l4xx_hal_hcd.c ****       {
 429:Drivers/STM32L4xx_HAL_Driver/Src/stm32l4xx_hal_hcd.c ****         if (hhcd->hc[ch_num].toggle_in == 0U)
 430:Drivers/STM32L4xx_HAL_Driver/Src/stm32l4xx_hal_hcd.c ****         {
 431:Drivers/STM32L4xx_HAL_Driver/Src/stm32l4xx_hal_hcd.c ****           hhcd->hc[ch_num].data_pid = HC_PID_DATA0;
 432:Drivers/STM32L4xx_HAL_Driver/Src/stm32l4xx_hal_hcd.c ****         }
 433:Drivers/STM32L4xx_HAL_Driver/Src/stm32l4xx_hal_hcd.c ****         else
 434:Drivers/STM32L4xx_HAL_Driver/Src/stm32l4xx_hal_hcd.c ****         {
 435:Drivers/STM32L4xx_HAL_Driver/Src/stm32l4xx_hal_hcd.c ****           hhcd->hc[ch_num].data_pid = HC_PID_DATA1;
 436:Drivers/STM32L4xx_HAL_Driver/Src/stm32l4xx_hal_hcd.c ****         }
 437:Drivers/STM32L4xx_HAL_Driver/Src/stm32l4xx_hal_hcd.c ****       }
 438:Drivers/STM32L4xx_HAL_Driver/Src/stm32l4xx_hal_hcd.c **** 
 439:Drivers/STM32L4xx_HAL_Driver/Src/stm32l4xx_hal_hcd.c ****       break;
 746              		.loc 1 439 7
 747 012c 73E0     		b	.L33
 748              	.L35:
 424:Drivers/STM32L4xx_HAL_Driver/Src/stm32l4xx_hal_hcd.c ****         }
 749              		.loc 1 424 27
 750 012e FB78     		ldrb	r3, [r7, #3]	@ zero_extendqisi2
 424:Drivers/STM32L4xx_HAL_Driver/Src/stm32l4xx_hal_hcd.c ****         }
 751              		.loc 1 424 37
 752 0130 7A68     		ldr	r2, [r7, #4]
 753 0132 3421     		movs	r1, #52
 754 0134 01FB03F3 		mul	r3, r1, r3
 755 0138 1344     		add	r3, r3, r2
 756 013a 2033     		adds	r3, r3, #32
 757 013c 0222     		movs	r2, #2
 758 013e 1A70     		strb	r2, [r3]
 759              		.loc 1 439 7
 760 0140 69E0     		b	.L33
 761              	.L34:
 429:Drivers/STM32L4xx_HAL_Driver/Src/stm32l4xx_hal_hcd.c ****         {
 762              		.loc 1 429 29
 763 0142 FB78     		ldrb	r3, [r7, #3]	@ zero_extendqisi2
 764 0144 7A68     		ldr	r2, [r7, #4]
 765 0146 3421     		movs	r1, #52
 766 0148 01FB03F3 		mul	r3, r1, r3
 767 014c 1344     		add	r3, r3, r2
ARM GAS  /tmp/cchI0N5p.s 			page 22


 768 014e 3433     		adds	r3, r3, #52
 769 0150 1B78     		ldrb	r3, [r3]	@ zero_extendqisi2
 429:Drivers/STM32L4xx_HAL_Driver/Src/stm32l4xx_hal_hcd.c ****         {
 770              		.loc 1 429 12
 771 0152 002B     		cmp	r3, #0
 772 0154 09D1     		bne	.L37
 431:Drivers/STM32L4xx_HAL_Driver/Src/stm32l4xx_hal_hcd.c ****         }
 773              		.loc 1 431 27
 774 0156 FB78     		ldrb	r3, [r7, #3]	@ zero_extendqisi2
 431:Drivers/STM32L4xx_HAL_Driver/Src/stm32l4xx_hal_hcd.c ****         }
 775              		.loc 1 431 37
 776 0158 7A68     		ldr	r2, [r7, #4]
 777 015a 3421     		movs	r1, #52
 778 015c 01FB03F3 		mul	r3, r1, r3
 779 0160 1344     		add	r3, r3, r2
 780 0162 2033     		adds	r3, r3, #32
 781 0164 0022     		movs	r2, #0
 782 0166 1A70     		strb	r2, [r3]
 783              		.loc 1 439 7
 784 0168 55E0     		b	.L33
 785              	.L37:
 435:Drivers/STM32L4xx_HAL_Driver/Src/stm32l4xx_hal_hcd.c ****         }
 786              		.loc 1 435 27
 787 016a FB78     		ldrb	r3, [r7, #3]	@ zero_extendqisi2
 435:Drivers/STM32L4xx_HAL_Driver/Src/stm32l4xx_hal_hcd.c ****         }
 788              		.loc 1 435 37
 789 016c 7A68     		ldr	r2, [r7, #4]
 790 016e 3421     		movs	r1, #52
 791 0170 01FB03F3 		mul	r3, r1, r3
 792 0174 1344     		add	r3, r3, r2
 793 0176 2033     		adds	r3, r3, #32
 794 0178 0222     		movs	r2, #2
 795 017a 1A70     		strb	r2, [r3]
 796              		.loc 1 439 7
 797 017c 4BE0     		b	.L33
 798              	.L25:
 440:Drivers/STM32L4xx_HAL_Driver/Src/stm32l4xx_hal_hcd.c ****     case EP_TYPE_INTR:
 441:Drivers/STM32L4xx_HAL_Driver/Src/stm32l4xx_hal_hcd.c ****       if (direction == 0U)
 799              		.loc 1 441 10
 800 017e BB78     		ldrb	r3, [r7, #2]	@ zero_extendqisi2
 801 0180 002B     		cmp	r3, #0
 802 0182 1DD1     		bne	.L38
 442:Drivers/STM32L4xx_HAL_Driver/Src/stm32l4xx_hal_hcd.c ****       {
 443:Drivers/STM32L4xx_HAL_Driver/Src/stm32l4xx_hal_hcd.c ****         /* Set the Data Toggle bit as per the Flag */
 444:Drivers/STM32L4xx_HAL_Driver/Src/stm32l4xx_hal_hcd.c ****         if (hhcd->hc[ch_num].toggle_out == 0U)
 803              		.loc 1 444 29
 804 0184 FB78     		ldrb	r3, [r7, #3]	@ zero_extendqisi2
 805 0186 7A68     		ldr	r2, [r7, #4]
 806 0188 3421     		movs	r1, #52
 807 018a 01FB03F3 		mul	r3, r1, r3
 808 018e 1344     		add	r3, r3, r2
 809 0190 3533     		adds	r3, r3, #53
 810 0192 1B78     		ldrb	r3, [r3]	@ zero_extendqisi2
 811              		.loc 1 444 12
 812 0194 002B     		cmp	r3, #0
 813 0196 09D1     		bne	.L39
 445:Drivers/STM32L4xx_HAL_Driver/Src/stm32l4xx_hal_hcd.c ****         {
ARM GAS  /tmp/cchI0N5p.s 			page 23


 446:Drivers/STM32L4xx_HAL_Driver/Src/stm32l4xx_hal_hcd.c ****           /* Put the PID 0 */
 447:Drivers/STM32L4xx_HAL_Driver/Src/stm32l4xx_hal_hcd.c ****           hhcd->hc[ch_num].data_pid = HC_PID_DATA0;
 814              		.loc 1 447 27
 815 0198 FB78     		ldrb	r3, [r7, #3]	@ zero_extendqisi2
 816              		.loc 1 447 37
 817 019a 7A68     		ldr	r2, [r7, #4]
 818 019c 3421     		movs	r1, #52
 819 019e 01FB03F3 		mul	r3, r1, r3
 820 01a2 1344     		add	r3, r3, r2
 821 01a4 2033     		adds	r3, r3, #32
 822 01a6 0022     		movs	r2, #0
 823 01a8 1A70     		strb	r2, [r3]
 448:Drivers/STM32L4xx_HAL_Driver/Src/stm32l4xx_hal_hcd.c ****         }
 449:Drivers/STM32L4xx_HAL_Driver/Src/stm32l4xx_hal_hcd.c ****         else
 450:Drivers/STM32L4xx_HAL_Driver/Src/stm32l4xx_hal_hcd.c ****         {
 451:Drivers/STM32L4xx_HAL_Driver/Src/stm32l4xx_hal_hcd.c ****           /* Put the PID 1 */
 452:Drivers/STM32L4xx_HAL_Driver/Src/stm32l4xx_hal_hcd.c ****           hhcd->hc[ch_num].data_pid = HC_PID_DATA1;
 453:Drivers/STM32L4xx_HAL_Driver/Src/stm32l4xx_hal_hcd.c ****         }
 454:Drivers/STM32L4xx_HAL_Driver/Src/stm32l4xx_hal_hcd.c ****       }
 455:Drivers/STM32L4xx_HAL_Driver/Src/stm32l4xx_hal_hcd.c ****       else
 456:Drivers/STM32L4xx_HAL_Driver/Src/stm32l4xx_hal_hcd.c ****       {
 457:Drivers/STM32L4xx_HAL_Driver/Src/stm32l4xx_hal_hcd.c ****         if (hhcd->hc[ch_num].toggle_in == 0U)
 458:Drivers/STM32L4xx_HAL_Driver/Src/stm32l4xx_hal_hcd.c ****         {
 459:Drivers/STM32L4xx_HAL_Driver/Src/stm32l4xx_hal_hcd.c ****           hhcd->hc[ch_num].data_pid = HC_PID_DATA0;
 460:Drivers/STM32L4xx_HAL_Driver/Src/stm32l4xx_hal_hcd.c ****         }
 461:Drivers/STM32L4xx_HAL_Driver/Src/stm32l4xx_hal_hcd.c ****         else
 462:Drivers/STM32L4xx_HAL_Driver/Src/stm32l4xx_hal_hcd.c ****         {
 463:Drivers/STM32L4xx_HAL_Driver/Src/stm32l4xx_hal_hcd.c ****           hhcd->hc[ch_num].data_pid = HC_PID_DATA1;
 464:Drivers/STM32L4xx_HAL_Driver/Src/stm32l4xx_hal_hcd.c ****         }
 465:Drivers/STM32L4xx_HAL_Driver/Src/stm32l4xx_hal_hcd.c ****       }
 466:Drivers/STM32L4xx_HAL_Driver/Src/stm32l4xx_hal_hcd.c ****       break;
 824              		.loc 1 466 7
 825 01aa 34E0     		b	.L33
 826              	.L39:
 452:Drivers/STM32L4xx_HAL_Driver/Src/stm32l4xx_hal_hcd.c ****         }
 827              		.loc 1 452 27
 828 01ac FB78     		ldrb	r3, [r7, #3]	@ zero_extendqisi2
 452:Drivers/STM32L4xx_HAL_Driver/Src/stm32l4xx_hal_hcd.c ****         }
 829              		.loc 1 452 37
 830 01ae 7A68     		ldr	r2, [r7, #4]
 831 01b0 3421     		movs	r1, #52
 832 01b2 01FB03F3 		mul	r3, r1, r3
 833 01b6 1344     		add	r3, r3, r2
 834 01b8 2033     		adds	r3, r3, #32
 835 01ba 0222     		movs	r2, #2
 836 01bc 1A70     		strb	r2, [r3]
 837              		.loc 1 466 7
 838 01be 2AE0     		b	.L33
 839              	.L38:
 457:Drivers/STM32L4xx_HAL_Driver/Src/stm32l4xx_hal_hcd.c ****         {
 840              		.loc 1 457 29
 841 01c0 FB78     		ldrb	r3, [r7, #3]	@ zero_extendqisi2
 842 01c2 7A68     		ldr	r2, [r7, #4]
 843 01c4 3421     		movs	r1, #52
 844 01c6 01FB03F3 		mul	r3, r1, r3
 845 01ca 1344     		add	r3, r3, r2
 846 01cc 3433     		adds	r3, r3, #52
ARM GAS  /tmp/cchI0N5p.s 			page 24


 847 01ce 1B78     		ldrb	r3, [r3]	@ zero_extendqisi2
 457:Drivers/STM32L4xx_HAL_Driver/Src/stm32l4xx_hal_hcd.c ****         {
 848              		.loc 1 457 12
 849 01d0 002B     		cmp	r3, #0
 850 01d2 09D1     		bne	.L41
 459:Drivers/STM32L4xx_HAL_Driver/Src/stm32l4xx_hal_hcd.c ****         }
 851              		.loc 1 459 27
 852 01d4 FB78     		ldrb	r3, [r7, #3]	@ zero_extendqisi2
 459:Drivers/STM32L4xx_HAL_Driver/Src/stm32l4xx_hal_hcd.c ****         }
 853              		.loc 1 459 37
 854 01d6 7A68     		ldr	r2, [r7, #4]
 855 01d8 3421     		movs	r1, #52
 856 01da 01FB03F3 		mul	r3, r1, r3
 857 01de 1344     		add	r3, r3, r2
 858 01e0 2033     		adds	r3, r3, #32
 859 01e2 0022     		movs	r2, #0
 860 01e4 1A70     		strb	r2, [r3]
 861              		.loc 1 466 7
 862 01e6 16E0     		b	.L33
 863              	.L41:
 463:Drivers/STM32L4xx_HAL_Driver/Src/stm32l4xx_hal_hcd.c ****         }
 864              		.loc 1 463 27
 865 01e8 FB78     		ldrb	r3, [r7, #3]	@ zero_extendqisi2
 463:Drivers/STM32L4xx_HAL_Driver/Src/stm32l4xx_hal_hcd.c ****         }
 866              		.loc 1 463 37
 867 01ea 7A68     		ldr	r2, [r7, #4]
 868 01ec 3421     		movs	r1, #52
 869 01ee 01FB03F3 		mul	r3, r1, r3
 870 01f2 1344     		add	r3, r3, r2
 871 01f4 2033     		adds	r3, r3, #32
 872 01f6 0222     		movs	r2, #2
 873 01f8 1A70     		strb	r2, [r3]
 874              		.loc 1 466 7
 875 01fa 0CE0     		b	.L33
 876              	.L28:
 467:Drivers/STM32L4xx_HAL_Driver/Src/stm32l4xx_hal_hcd.c **** 
 468:Drivers/STM32L4xx_HAL_Driver/Src/stm32l4xx_hal_hcd.c ****     case EP_TYPE_ISOC:
 469:Drivers/STM32L4xx_HAL_Driver/Src/stm32l4xx_hal_hcd.c ****       hhcd->hc[ch_num].data_pid = HC_PID_DATA0;
 877              		.loc 1 469 23
 878 01fc FB78     		ldrb	r3, [r7, #3]	@ zero_extendqisi2
 879              		.loc 1 469 33
 880 01fe 7A68     		ldr	r2, [r7, #4]
 881 0200 3421     		movs	r1, #52
 882 0202 01FB03F3 		mul	r3, r1, r3
 883 0206 1344     		add	r3, r3, r2
 884 0208 2033     		adds	r3, r3, #32
 885 020a 0022     		movs	r2, #0
 886 020c 1A70     		strb	r2, [r3]
 470:Drivers/STM32L4xx_HAL_Driver/Src/stm32l4xx_hal_hcd.c ****       break;
 887              		.loc 1 470 7
 888 020e 02E0     		b	.L33
 889              	.L43:
 471:Drivers/STM32L4xx_HAL_Driver/Src/stm32l4xx_hal_hcd.c **** 
 472:Drivers/STM32L4xx_HAL_Driver/Src/stm32l4xx_hal_hcd.c ****     default:
 473:Drivers/STM32L4xx_HAL_Driver/Src/stm32l4xx_hal_hcd.c ****       break;
 890              		.loc 1 473 7
 891 0210 00BF     		nop
ARM GAS  /tmp/cchI0N5p.s 			page 25


 892 0212 00E0     		b	.L33
 893              	.L44:
 410:Drivers/STM32L4xx_HAL_Driver/Src/stm32l4xx_hal_hcd.c **** 
 894              		.loc 1 410 7
 895 0214 00BF     		nop
 896              	.L33:
 474:Drivers/STM32L4xx_HAL_Driver/Src/stm32l4xx_hal_hcd.c ****   }
 475:Drivers/STM32L4xx_HAL_Driver/Src/stm32l4xx_hal_hcd.c **** 
 476:Drivers/STM32L4xx_HAL_Driver/Src/stm32l4xx_hal_hcd.c ****   hhcd->hc[ch_num].xfer_buff = pbuff;
 897              		.loc 1 476 19
 898 0216 FB78     		ldrb	r3, [r7, #3]	@ zero_extendqisi2
 899              		.loc 1 476 30
 900 0218 7A68     		ldr	r2, [r7, #4]
 901 021a 3421     		movs	r1, #52
 902 021c 01FB03F3 		mul	r3, r1, r3
 903 0220 1344     		add	r3, r3, r2
 904 0222 2433     		adds	r3, r3, #36
 905 0224 7A69     		ldr	r2, [r7, #20]
 906 0226 1A60     		str	r2, [r3]
 477:Drivers/STM32L4xx_HAL_Driver/Src/stm32l4xx_hal_hcd.c ****   hhcd->hc[ch_num].xfer_len  = length;
 907              		.loc 1 477 19
 908 0228 FB78     		ldrb	r3, [r7, #3]	@ zero_extendqisi2
 909              		.loc 1 477 30
 910 022a 3A8B     		ldrh	r2, [r7, #24]
 911 022c 7968     		ldr	r1, [r7, #4]
 912 022e 3420     		movs	r0, #52
 913 0230 00FB03F3 		mul	r3, r0, r3
 914 0234 0B44     		add	r3, r3, r1
 915 0236 2C33     		adds	r3, r3, #44
 916 0238 1A60     		str	r2, [r3]
 478:Drivers/STM32L4xx_HAL_Driver/Src/stm32l4xx_hal_hcd.c ****   hhcd->hc[ch_num].urb_state = URB_IDLE;
 917              		.loc 1 478 19
 918 023a FB78     		ldrb	r3, [r7, #3]	@ zero_extendqisi2
 919              		.loc 1 478 30
 920 023c 7A68     		ldr	r2, [r7, #4]
 921 023e 3421     		movs	r1, #52
 922 0240 01FB03F3 		mul	r3, r1, r3
 923 0244 1344     		add	r3, r3, r2
 924 0246 4433     		adds	r3, r3, #68
 925 0248 0022     		movs	r2, #0
 926 024a 1A70     		strb	r2, [r3]
 479:Drivers/STM32L4xx_HAL_Driver/Src/stm32l4xx_hal_hcd.c ****   hhcd->hc[ch_num].xfer_count = 0U;
 927              		.loc 1 479 19
 928 024c FB78     		ldrb	r3, [r7, #3]	@ zero_extendqisi2
 929              		.loc 1 479 31
 930 024e 7A68     		ldr	r2, [r7, #4]
 931 0250 3421     		movs	r1, #52
 932 0252 01FB03F3 		mul	r3, r1, r3
 933 0256 1344     		add	r3, r3, r2
 934 0258 3033     		adds	r3, r3, #48
 935 025a 0022     		movs	r2, #0
 936 025c 1A60     		str	r2, [r3]
 480:Drivers/STM32L4xx_HAL_Driver/Src/stm32l4xx_hal_hcd.c ****   hhcd->hc[ch_num].ch_num = ch_num;
 937              		.loc 1 480 19
 938 025e FB78     		ldrb	r3, [r7, #3]	@ zero_extendqisi2
 939              		.loc 1 480 27
 940 0260 7A68     		ldr	r2, [r7, #4]
ARM GAS  /tmp/cchI0N5p.s 			page 26


 941 0262 3421     		movs	r1, #52
 942 0264 01FB03F3 		mul	r3, r1, r3
 943 0268 1344     		add	r3, r3, r2
 944 026a 1533     		adds	r3, r3, #21
 945 026c FA78     		ldrb	r2, [r7, #3]
 946 026e 1A70     		strb	r2, [r3]
 481:Drivers/STM32L4xx_HAL_Driver/Src/stm32l4xx_hal_hcd.c ****   hhcd->hc[ch_num].state = HC_IDLE;
 947              		.loc 1 481 19
 948 0270 FB78     		ldrb	r3, [r7, #3]	@ zero_extendqisi2
 949              		.loc 1 481 26
 950 0272 7A68     		ldr	r2, [r7, #4]
 951 0274 3421     		movs	r1, #52
 952 0276 01FB03F3 		mul	r3, r1, r3
 953 027a 1344     		add	r3, r3, r2
 954 027c 4533     		adds	r3, r3, #69
 955 027e 0022     		movs	r2, #0
 956 0280 1A70     		strb	r2, [r3]
 482:Drivers/STM32L4xx_HAL_Driver/Src/stm32l4xx_hal_hcd.c **** 
 483:Drivers/STM32L4xx_HAL_Driver/Src/stm32l4xx_hal_hcd.c ****   return USB_HC_StartXfer(hhcd->Instance, &hhcd->hc[ch_num]);
 957              		.loc 1 483 31
 958 0282 7B68     		ldr	r3, [r7, #4]
 959 0284 1868     		ldr	r0, [r3]
 960              		.loc 1 483 52
 961 0286 FB78     		ldrb	r3, [r7, #3]	@ zero_extendqisi2
 962              		.loc 1 483 43
 963 0288 3422     		movs	r2, #52
 964 028a 02FB03F3 		mul	r3, r2, r3
 965 028e 1033     		adds	r3, r3, #16
 966 0290 7A68     		ldr	r2, [r7, #4]
 967 0292 1344     		add	r3, r3, r2
 968 0294 0433     		adds	r3, r3, #4
 969              		.loc 1 483 10
 970 0296 1946     		mov	r1, r3
 971 0298 FFF7FEFF 		bl	USB_HC_StartXfer
 972 029c 0346     		mov	r3, r0
 484:Drivers/STM32L4xx_HAL_Driver/Src/stm32l4xx_hal_hcd.c **** }
 973              		.loc 1 484 1
 974 029e 1846     		mov	r0, r3
 975 02a0 0837     		adds	r7, r7, #8
 976              		.cfi_def_cfa_offset 8
 977 02a2 BD46     		mov	sp, r7
 978              		.cfi_def_cfa_register 13
 979              		@ sp needed
 980 02a4 80BD     		pop	{r7, pc}
 981              		.cfi_endproc
 982              	.LFE451:
 984 02a6 00BF     		.section	.text.HAL_HCD_IRQHandler,"ax",%progbits
 985              		.align	1
 986              		.global	HAL_HCD_IRQHandler
 987              		.syntax unified
 988              		.thumb
 989              		.thumb_func
 991              	HAL_HCD_IRQHandler:
 992              	.LFB452:
 485:Drivers/STM32L4xx_HAL_Driver/Src/stm32l4xx_hal_hcd.c **** 
 486:Drivers/STM32L4xx_HAL_Driver/Src/stm32l4xx_hal_hcd.c **** /**
 487:Drivers/STM32L4xx_HAL_Driver/Src/stm32l4xx_hal_hcd.c ****   * @brief  Handle HCD interrupt request.
ARM GAS  /tmp/cchI0N5p.s 			page 27


 488:Drivers/STM32L4xx_HAL_Driver/Src/stm32l4xx_hal_hcd.c ****   * @param  hhcd HCD handle
 489:Drivers/STM32L4xx_HAL_Driver/Src/stm32l4xx_hal_hcd.c ****   * @retval None
 490:Drivers/STM32L4xx_HAL_Driver/Src/stm32l4xx_hal_hcd.c ****   */
 491:Drivers/STM32L4xx_HAL_Driver/Src/stm32l4xx_hal_hcd.c **** void HAL_HCD_IRQHandler(HCD_HandleTypeDef *hhcd)
 492:Drivers/STM32L4xx_HAL_Driver/Src/stm32l4xx_hal_hcd.c **** {
 993              		.loc 1 492 1
 994              		.cfi_startproc
 995              		@ args = 0, pretend = 0, frame = 24
 996              		@ frame_needed = 1, uses_anonymous_args = 0
 997 0000 80B5     		push	{r7, lr}
 998              		.cfi_def_cfa_offset 8
 999              		.cfi_offset 7, -8
 1000              		.cfi_offset 14, -4
 1001 0002 86B0     		sub	sp, sp, #24
 1002              		.cfi_def_cfa_offset 32
 1003 0004 00AF     		add	r7, sp, #0
 1004              		.cfi_def_cfa_register 7
 1005 0006 7860     		str	r0, [r7, #4]
 493:Drivers/STM32L4xx_HAL_Driver/Src/stm32l4xx_hal_hcd.c ****   USB_OTG_GlobalTypeDef *USBx = hhcd->Instance;
 1006              		.loc 1 493 26
 1007 0008 7B68     		ldr	r3, [r7, #4]
 1008 000a 1B68     		ldr	r3, [r3]
 1009 000c 3B61     		str	r3, [r7, #16]
 494:Drivers/STM32L4xx_HAL_Driver/Src/stm32l4xx_hal_hcd.c ****   uint32_t USBx_BASE = (uint32_t)USBx;
 1010              		.loc 1 494 12
 1011 000e 3B69     		ldr	r3, [r7, #16]
 1012 0010 FB60     		str	r3, [r7, #12]
 495:Drivers/STM32L4xx_HAL_Driver/Src/stm32l4xx_hal_hcd.c ****   uint32_t i;
 496:Drivers/STM32L4xx_HAL_Driver/Src/stm32l4xx_hal_hcd.c ****   uint32_t interrupt;
 497:Drivers/STM32L4xx_HAL_Driver/Src/stm32l4xx_hal_hcd.c **** 
 498:Drivers/STM32L4xx_HAL_Driver/Src/stm32l4xx_hal_hcd.c ****   /* Ensure that we are in device mode */
 499:Drivers/STM32L4xx_HAL_Driver/Src/stm32l4xx_hal_hcd.c ****   if (USB_GetMode(hhcd->Instance) == USB_OTG_MODE_HOST)
 1013              		.loc 1 499 23
 1014 0012 7B68     		ldr	r3, [r7, #4]
 1015 0014 1B68     		ldr	r3, [r3]
 1016              		.loc 1 499 7
 1017 0016 1846     		mov	r0, r3
 1018 0018 FFF7FEFF 		bl	USB_GetMode
 1019 001c 0346     		mov	r3, r0
 1020              		.loc 1 499 6 discriminator 1
 1021 001e 012B     		cmp	r3, #1
 1022 0020 40F0FB80 		bne	.L45
 500:Drivers/STM32L4xx_HAL_Driver/Src/stm32l4xx_hal_hcd.c ****   {
 501:Drivers/STM32L4xx_HAL_Driver/Src/stm32l4xx_hal_hcd.c ****     /* Avoid spurious interrupt */
 502:Drivers/STM32L4xx_HAL_Driver/Src/stm32l4xx_hal_hcd.c ****     if (__HAL_HCD_IS_INVALID_INTERRUPT(hhcd))
 1023              		.loc 1 502 9
 1024 0024 7B68     		ldr	r3, [r7, #4]
 1025 0026 1B68     		ldr	r3, [r3]
 1026 0028 1846     		mov	r0, r3
 1027 002a FFF7FEFF 		bl	USB_ReadInterrupts
 1028 002e 0346     		mov	r3, r0
 1029              		.loc 1 502 8 discriminator 1
 1030 0030 002B     		cmp	r3, #0
 1031 0032 00F0F180 		beq	.L63
 503:Drivers/STM32L4xx_HAL_Driver/Src/stm32l4xx_hal_hcd.c ****     {
 504:Drivers/STM32L4xx_HAL_Driver/Src/stm32l4xx_hal_hcd.c ****       return;
 505:Drivers/STM32L4xx_HAL_Driver/Src/stm32l4xx_hal_hcd.c ****     }
ARM GAS  /tmp/cchI0N5p.s 			page 28


 506:Drivers/STM32L4xx_HAL_Driver/Src/stm32l4xx_hal_hcd.c **** 
 507:Drivers/STM32L4xx_HAL_Driver/Src/stm32l4xx_hal_hcd.c ****     if (__HAL_HCD_GET_FLAG(hhcd, USB_OTG_GINTSTS_PXFR_INCOMPISOOUT))
 1032              		.loc 1 507 9
 1033 0036 7B68     		ldr	r3, [r7, #4]
 1034 0038 1B68     		ldr	r3, [r3]
 1035 003a 1846     		mov	r0, r3
 1036 003c FFF7FEFF 		bl	USB_ReadInterrupts
 1037 0040 0346     		mov	r3, r0
 1038              		.loc 1 507 9 is_stmt 0 discriminator 1
 1039 0042 03F40013 		and	r3, r3, #2097152
 1040              		.loc 1 507 8 is_stmt 1 discriminator 1
 1041 0046 B3F5001F 		cmp	r3, #2097152
 1042 004a 04D1     		bne	.L48
 508:Drivers/STM32L4xx_HAL_Driver/Src/stm32l4xx_hal_hcd.c ****     {
 509:Drivers/STM32L4xx_HAL_Driver/Src/stm32l4xx_hal_hcd.c ****       /* Incorrect mode, acknowledge the interrupt */
 510:Drivers/STM32L4xx_HAL_Driver/Src/stm32l4xx_hal_hcd.c ****       __HAL_HCD_CLEAR_FLAG(hhcd, USB_OTG_GINTSTS_PXFR_INCOMPISOOUT);
 1043              		.loc 1 510 7
 1044 004c 7B68     		ldr	r3, [r7, #4]
 1045 004e 1B68     		ldr	r3, [r3]
 1046 0050 4FF40012 		mov	r2, #2097152
 1047 0054 5A61     		str	r2, [r3, #20]
 1048              	.L48:
 511:Drivers/STM32L4xx_HAL_Driver/Src/stm32l4xx_hal_hcd.c ****     }
 512:Drivers/STM32L4xx_HAL_Driver/Src/stm32l4xx_hal_hcd.c **** 
 513:Drivers/STM32L4xx_HAL_Driver/Src/stm32l4xx_hal_hcd.c ****     if (__HAL_HCD_GET_FLAG(hhcd, USB_OTG_GINTSTS_IISOIXFR))
 1049              		.loc 1 513 9
 1050 0056 7B68     		ldr	r3, [r7, #4]
 1051 0058 1B68     		ldr	r3, [r3]
 1052 005a 1846     		mov	r0, r3
 1053 005c FFF7FEFF 		bl	USB_ReadInterrupts
 1054 0060 0346     		mov	r3, r0
 1055              		.loc 1 513 9 is_stmt 0 discriminator 1
 1056 0062 03F48013 		and	r3, r3, #1048576
 1057              		.loc 1 513 8 is_stmt 1 discriminator 1
 1058 0066 B3F5801F 		cmp	r3, #1048576
 1059 006a 04D1     		bne	.L49
 514:Drivers/STM32L4xx_HAL_Driver/Src/stm32l4xx_hal_hcd.c ****     {
 515:Drivers/STM32L4xx_HAL_Driver/Src/stm32l4xx_hal_hcd.c ****       /* Incorrect mode, acknowledge the interrupt */
 516:Drivers/STM32L4xx_HAL_Driver/Src/stm32l4xx_hal_hcd.c ****       __HAL_HCD_CLEAR_FLAG(hhcd, USB_OTG_GINTSTS_IISOIXFR);
 1060              		.loc 1 516 7
 1061 006c 7B68     		ldr	r3, [r7, #4]
 1062 006e 1B68     		ldr	r3, [r3]
 1063 0070 4FF48012 		mov	r2, #1048576
 1064 0074 5A61     		str	r2, [r3, #20]
 1065              	.L49:
 517:Drivers/STM32L4xx_HAL_Driver/Src/stm32l4xx_hal_hcd.c ****     }
 518:Drivers/STM32L4xx_HAL_Driver/Src/stm32l4xx_hal_hcd.c **** 
 519:Drivers/STM32L4xx_HAL_Driver/Src/stm32l4xx_hal_hcd.c ****     if (__HAL_HCD_GET_FLAG(hhcd, USB_OTG_GINTSTS_PTXFE))
 1066              		.loc 1 519 9
 1067 0076 7B68     		ldr	r3, [r7, #4]
 1068 0078 1B68     		ldr	r3, [r3]
 1069 007a 1846     		mov	r0, r3
 1070 007c FFF7FEFF 		bl	USB_ReadInterrupts
 1071 0080 0346     		mov	r3, r0
 1072              		.loc 1 519 9 is_stmt 0 discriminator 1
 1073 0082 03F08063 		and	r3, r3, #67108864
 1074              		.loc 1 519 8 is_stmt 1 discriminator 1
ARM GAS  /tmp/cchI0N5p.s 			page 29


 1075 0086 B3F1806F 		cmp	r3, #67108864
 1076 008a 04D1     		bne	.L50
 520:Drivers/STM32L4xx_HAL_Driver/Src/stm32l4xx_hal_hcd.c ****     {
 521:Drivers/STM32L4xx_HAL_Driver/Src/stm32l4xx_hal_hcd.c ****       /* Incorrect mode, acknowledge the interrupt */
 522:Drivers/STM32L4xx_HAL_Driver/Src/stm32l4xx_hal_hcd.c ****       __HAL_HCD_CLEAR_FLAG(hhcd, USB_OTG_GINTSTS_PTXFE);
 1077              		.loc 1 522 7
 1078 008c 7B68     		ldr	r3, [r7, #4]
 1079 008e 1B68     		ldr	r3, [r3]
 1080 0090 4FF08062 		mov	r2, #67108864
 1081 0094 5A61     		str	r2, [r3, #20]
 1082              	.L50:
 523:Drivers/STM32L4xx_HAL_Driver/Src/stm32l4xx_hal_hcd.c ****     }
 524:Drivers/STM32L4xx_HAL_Driver/Src/stm32l4xx_hal_hcd.c **** 
 525:Drivers/STM32L4xx_HAL_Driver/Src/stm32l4xx_hal_hcd.c ****     if (__HAL_HCD_GET_FLAG(hhcd, USB_OTG_GINTSTS_MMIS))
 1083              		.loc 1 525 9
 1084 0096 7B68     		ldr	r3, [r7, #4]
 1085 0098 1B68     		ldr	r3, [r3]
 1086 009a 1846     		mov	r0, r3
 1087 009c FFF7FEFF 		bl	USB_ReadInterrupts
 1088 00a0 0346     		mov	r3, r0
 1089              		.loc 1 525 9 is_stmt 0 discriminator 1
 1090 00a2 03F00203 		and	r3, r3, #2
 1091              		.loc 1 525 8 is_stmt 1 discriminator 1
 1092 00a6 022B     		cmp	r3, #2
 1093 00a8 03D1     		bne	.L51
 526:Drivers/STM32L4xx_HAL_Driver/Src/stm32l4xx_hal_hcd.c ****     {
 527:Drivers/STM32L4xx_HAL_Driver/Src/stm32l4xx_hal_hcd.c ****       /* Incorrect mode, acknowledge the interrupt */
 528:Drivers/STM32L4xx_HAL_Driver/Src/stm32l4xx_hal_hcd.c ****       __HAL_HCD_CLEAR_FLAG(hhcd, USB_OTG_GINTSTS_MMIS);
 1094              		.loc 1 528 7
 1095 00aa 7B68     		ldr	r3, [r7, #4]
 1096 00ac 1B68     		ldr	r3, [r3]
 1097 00ae 0222     		movs	r2, #2
 1098 00b0 5A61     		str	r2, [r3, #20]
 1099              	.L51:
 529:Drivers/STM32L4xx_HAL_Driver/Src/stm32l4xx_hal_hcd.c ****     }
 530:Drivers/STM32L4xx_HAL_Driver/Src/stm32l4xx_hal_hcd.c **** 
 531:Drivers/STM32L4xx_HAL_Driver/Src/stm32l4xx_hal_hcd.c ****     /* Handle Host Disconnect Interrupts */
 532:Drivers/STM32L4xx_HAL_Driver/Src/stm32l4xx_hal_hcd.c ****     if (__HAL_HCD_GET_FLAG(hhcd, USB_OTG_GINTSTS_DISCINT))
 1100              		.loc 1 532 9
 1101 00b2 7B68     		ldr	r3, [r7, #4]
 1102 00b4 1B68     		ldr	r3, [r3]
 1103 00b6 1846     		mov	r0, r3
 1104 00b8 FFF7FEFF 		bl	USB_ReadInterrupts
 1105 00bc 0346     		mov	r3, r0
 1106              		.loc 1 532 9 is_stmt 0 discriminator 1
 1107 00be 03F00053 		and	r3, r3, #536870912
 1108              		.loc 1 532 8 is_stmt 1 discriminator 1
 1109 00c2 B3F1005F 		cmp	r3, #536870912
 1110 00c6 20D1     		bne	.L52
 533:Drivers/STM32L4xx_HAL_Driver/Src/stm32l4xx_hal_hcd.c ****     {
 534:Drivers/STM32L4xx_HAL_Driver/Src/stm32l4xx_hal_hcd.c ****       __HAL_HCD_CLEAR_FLAG(hhcd, USB_OTG_GINTSTS_DISCINT);
 1111              		.loc 1 534 7
 1112 00c8 7B68     		ldr	r3, [r7, #4]
 1113 00ca 1B68     		ldr	r3, [r3]
 1114 00cc 4FF00052 		mov	r2, #536870912
 1115 00d0 5A61     		str	r2, [r3, #20]
 535:Drivers/STM32L4xx_HAL_Driver/Src/stm32l4xx_hal_hcd.c **** 
ARM GAS  /tmp/cchI0N5p.s 			page 30


 536:Drivers/STM32L4xx_HAL_Driver/Src/stm32l4xx_hal_hcd.c ****       if ((USBx_HPRT0 & USB_OTG_HPRT_PCSTS) == 0U)
 1116              		.loc 1 536 12
 1117 00d2 FB68     		ldr	r3, [r7, #12]
 1118 00d4 03F58863 		add	r3, r3, #1088
 1119 00d8 1B68     		ldr	r3, [r3]
 1120              		.loc 1 536 23
 1121 00da 03F00103 		and	r3, r3, #1
 1122              		.loc 1 536 10
 1123 00de 002B     		cmp	r3, #0
 1124 00e0 13D1     		bne	.L52
 537:Drivers/STM32L4xx_HAL_Driver/Src/stm32l4xx_hal_hcd.c ****       {
 538:Drivers/STM32L4xx_HAL_Driver/Src/stm32l4xx_hal_hcd.c ****         /* Flush USB Fifo */
 539:Drivers/STM32L4xx_HAL_Driver/Src/stm32l4xx_hal_hcd.c ****         (void)USB_FlushTxFifo(USBx, 0x10U);
 1125              		.loc 1 539 15
 1126 00e2 1021     		movs	r1, #16
 1127 00e4 3869     		ldr	r0, [r7, #16]
 1128 00e6 FFF7FEFF 		bl	USB_FlushTxFifo
 540:Drivers/STM32L4xx_HAL_Driver/Src/stm32l4xx_hal_hcd.c ****         (void)USB_FlushRxFifo(USBx);
 1129              		.loc 1 540 15
 1130 00ea 3869     		ldr	r0, [r7, #16]
 1131 00ec FFF7FEFF 		bl	USB_FlushRxFifo
 541:Drivers/STM32L4xx_HAL_Driver/Src/stm32l4xx_hal_hcd.c **** 
 542:Drivers/STM32L4xx_HAL_Driver/Src/stm32l4xx_hal_hcd.c ****         if (hhcd->Init.phy_itface == USB_OTG_EMBEDDED_PHY)
 1132              		.loc 1 542 23
 1133 00f0 7B68     		ldr	r3, [r7, #4]
 1134 00f2 5B7A     		ldrb	r3, [r3, #9]	@ zero_extendqisi2
 1135              		.loc 1 542 12
 1136 00f4 022B     		cmp	r3, #2
 1137 00f6 05D1     		bne	.L53
 543:Drivers/STM32L4xx_HAL_Driver/Src/stm32l4xx_hal_hcd.c ****         {
 544:Drivers/STM32L4xx_HAL_Driver/Src/stm32l4xx_hal_hcd.c ****           /* Restore FS Clock */
 545:Drivers/STM32L4xx_HAL_Driver/Src/stm32l4xx_hal_hcd.c ****           (void)USB_InitFSLSPClkSel(hhcd->Instance, HCFG_48_MHZ);
 1138              		.loc 1 545 41
 1139 00f8 7B68     		ldr	r3, [r7, #4]
 1140 00fa 1B68     		ldr	r3, [r3]
 1141              		.loc 1 545 17
 1142 00fc 0121     		movs	r1, #1
 1143 00fe 1846     		mov	r0, r3
 1144 0100 FFF7FEFF 		bl	USB_InitFSLSPClkSel
 1145              	.L53:
 546:Drivers/STM32L4xx_HAL_Driver/Src/stm32l4xx_hal_hcd.c ****         }
 547:Drivers/STM32L4xx_HAL_Driver/Src/stm32l4xx_hal_hcd.c **** 
 548:Drivers/STM32L4xx_HAL_Driver/Src/stm32l4xx_hal_hcd.c ****         /* Handle Host Port Disconnect Interrupt */
 549:Drivers/STM32L4xx_HAL_Driver/Src/stm32l4xx_hal_hcd.c **** #if (USE_HAL_HCD_REGISTER_CALLBACKS == 1U)
 550:Drivers/STM32L4xx_HAL_Driver/Src/stm32l4xx_hal_hcd.c ****         hhcd->DisconnectCallback(hhcd);
 551:Drivers/STM32L4xx_HAL_Driver/Src/stm32l4xx_hal_hcd.c **** #else
 552:Drivers/STM32L4xx_HAL_Driver/Src/stm32l4xx_hal_hcd.c ****         HAL_HCD_Disconnect_Callback(hhcd);
 1146              		.loc 1 552 9
 1147 0104 7868     		ldr	r0, [r7, #4]
 1148 0106 FFF7FEFF 		bl	HAL_HCD_Disconnect_Callback
 1149              	.L52:
 553:Drivers/STM32L4xx_HAL_Driver/Src/stm32l4xx_hal_hcd.c **** #endif /* USE_HAL_HCD_REGISTER_CALLBACKS */
 554:Drivers/STM32L4xx_HAL_Driver/Src/stm32l4xx_hal_hcd.c ****       }
 555:Drivers/STM32L4xx_HAL_Driver/Src/stm32l4xx_hal_hcd.c ****     }
 556:Drivers/STM32L4xx_HAL_Driver/Src/stm32l4xx_hal_hcd.c **** 
 557:Drivers/STM32L4xx_HAL_Driver/Src/stm32l4xx_hal_hcd.c ****     /* Handle Host Port Interrupts */
 558:Drivers/STM32L4xx_HAL_Driver/Src/stm32l4xx_hal_hcd.c ****     if (__HAL_HCD_GET_FLAG(hhcd, USB_OTG_GINTSTS_HPRTINT))
ARM GAS  /tmp/cchI0N5p.s 			page 31


 1150              		.loc 1 558 9
 1151 010a 7B68     		ldr	r3, [r7, #4]
 1152 010c 1B68     		ldr	r3, [r3]
 1153 010e 1846     		mov	r0, r3
 1154 0110 FFF7FEFF 		bl	USB_ReadInterrupts
 1155 0114 0346     		mov	r3, r0
 1156              		.loc 1 558 9 is_stmt 0 discriminator 1
 1157 0116 03F08073 		and	r3, r3, #16777216
 1158              		.loc 1 558 8 is_stmt 1 discriminator 1
 1159 011a B3F1807F 		cmp	r3, #16777216
 1160 011e 02D1     		bne	.L54
 559:Drivers/STM32L4xx_HAL_Driver/Src/stm32l4xx_hal_hcd.c ****     {
 560:Drivers/STM32L4xx_HAL_Driver/Src/stm32l4xx_hal_hcd.c ****       HCD_Port_IRQHandler(hhcd);
 1161              		.loc 1 560 7
 1162 0120 7868     		ldr	r0, [r7, #4]
 1163 0122 FFF7FEFF 		bl	HCD_Port_IRQHandler
 1164              	.L54:
 561:Drivers/STM32L4xx_HAL_Driver/Src/stm32l4xx_hal_hcd.c ****     }
 562:Drivers/STM32L4xx_HAL_Driver/Src/stm32l4xx_hal_hcd.c **** 
 563:Drivers/STM32L4xx_HAL_Driver/Src/stm32l4xx_hal_hcd.c ****     /* Handle Host SOF Interrupt */
 564:Drivers/STM32L4xx_HAL_Driver/Src/stm32l4xx_hal_hcd.c ****     if (__HAL_HCD_GET_FLAG(hhcd, USB_OTG_GINTSTS_SOF))
 1165              		.loc 1 564 9
 1166 0126 7B68     		ldr	r3, [r7, #4]
 1167 0128 1B68     		ldr	r3, [r3]
 1168 012a 1846     		mov	r0, r3
 1169 012c FFF7FEFF 		bl	USB_ReadInterrupts
 1170 0130 0346     		mov	r3, r0
 1171              		.loc 1 564 9 is_stmt 0 discriminator 1
 1172 0132 03F00803 		and	r3, r3, #8
 1173              		.loc 1 564 8 is_stmt 1 discriminator 1
 1174 0136 082B     		cmp	r3, #8
 1175 0138 06D1     		bne	.L55
 565:Drivers/STM32L4xx_HAL_Driver/Src/stm32l4xx_hal_hcd.c ****     {
 566:Drivers/STM32L4xx_HAL_Driver/Src/stm32l4xx_hal_hcd.c **** #if (USE_HAL_HCD_REGISTER_CALLBACKS == 1U)
 567:Drivers/STM32L4xx_HAL_Driver/Src/stm32l4xx_hal_hcd.c ****       hhcd->SOFCallback(hhcd);
 568:Drivers/STM32L4xx_HAL_Driver/Src/stm32l4xx_hal_hcd.c **** #else
 569:Drivers/STM32L4xx_HAL_Driver/Src/stm32l4xx_hal_hcd.c ****       HAL_HCD_SOF_Callback(hhcd);
 1176              		.loc 1 569 7
 1177 013a 7868     		ldr	r0, [r7, #4]
 1178 013c FFF7FEFF 		bl	HAL_HCD_SOF_Callback
 570:Drivers/STM32L4xx_HAL_Driver/Src/stm32l4xx_hal_hcd.c **** #endif /* USE_HAL_HCD_REGISTER_CALLBACKS */
 571:Drivers/STM32L4xx_HAL_Driver/Src/stm32l4xx_hal_hcd.c **** 
 572:Drivers/STM32L4xx_HAL_Driver/Src/stm32l4xx_hal_hcd.c ****       __HAL_HCD_CLEAR_FLAG(hhcd, USB_OTG_GINTSTS_SOF);
 1179              		.loc 1 572 7
 1180 0140 7B68     		ldr	r3, [r7, #4]
 1181 0142 1B68     		ldr	r3, [r3]
 1182 0144 0822     		movs	r2, #8
 1183 0146 5A61     		str	r2, [r3, #20]
 1184              	.L55:
 573:Drivers/STM32L4xx_HAL_Driver/Src/stm32l4xx_hal_hcd.c ****     }
 574:Drivers/STM32L4xx_HAL_Driver/Src/stm32l4xx_hal_hcd.c **** 
 575:Drivers/STM32L4xx_HAL_Driver/Src/stm32l4xx_hal_hcd.c ****     /* Handle Host channel Interrupt */
 576:Drivers/STM32L4xx_HAL_Driver/Src/stm32l4xx_hal_hcd.c ****     if (__HAL_HCD_GET_FLAG(hhcd, USB_OTG_GINTSTS_HCINT))
 1185              		.loc 1 576 9
 1186 0148 7B68     		ldr	r3, [r7, #4]
 1187 014a 1B68     		ldr	r3, [r3]
 1188 014c 1846     		mov	r0, r3
ARM GAS  /tmp/cchI0N5p.s 			page 32


 1189 014e FFF7FEFF 		bl	USB_ReadInterrupts
 1190 0152 0346     		mov	r3, r0
 1191              		.loc 1 576 9 is_stmt 0 discriminator 1
 1192 0154 03F00073 		and	r3, r3, #33554432
 1193              		.loc 1 576 8 is_stmt 1 discriminator 1
 1194 0158 B3F1007F 		cmp	r3, #33554432
 1195 015c 39D1     		bne	.L56
 577:Drivers/STM32L4xx_HAL_Driver/Src/stm32l4xx_hal_hcd.c ****     {
 578:Drivers/STM32L4xx_HAL_Driver/Src/stm32l4xx_hal_hcd.c ****       interrupt = USB_HC_ReadInterrupt(hhcd->Instance);
 1196              		.loc 1 578 44
 1197 015e 7B68     		ldr	r3, [r7, #4]
 1198 0160 1B68     		ldr	r3, [r3]
 1199              		.loc 1 578 19
 1200 0162 1846     		mov	r0, r3
 1201 0164 FFF7FEFF 		bl	USB_HC_ReadInterrupt
 1202 0168 B860     		str	r0, [r7, #8]
 579:Drivers/STM32L4xx_HAL_Driver/Src/stm32l4xx_hal_hcd.c ****       for (i = 0U; i < hhcd->Init.Host_channels; i++)
 1203              		.loc 1 579 14
 1204 016a 0023     		movs	r3, #0
 1205 016c 7B61     		str	r3, [r7, #20]
 1206              		.loc 1 579 7
 1207 016e 25E0     		b	.L57
 1208              	.L60:
 580:Drivers/STM32L4xx_HAL_Driver/Src/stm32l4xx_hal_hcd.c ****       {
 581:Drivers/STM32L4xx_HAL_Driver/Src/stm32l4xx_hal_hcd.c ****         if ((interrupt & (1UL << (i & 0xFU))) != 0U)
 1209              		.loc 1 581 37
 1210 0170 7B69     		ldr	r3, [r7, #20]
 1211 0172 03F00F03 		and	r3, r3, #15
 1212              		.loc 1 581 47
 1213 0176 BA68     		ldr	r2, [r7, #8]
 1214 0178 22FA03F3 		lsr	r3, r2, r3
 1215 017c 03F00103 		and	r3, r3, #1
 1216              		.loc 1 581 12
 1217 0180 002B     		cmp	r3, #0
 1218 0182 18D0     		beq	.L58
 582:Drivers/STM32L4xx_HAL_Driver/Src/stm32l4xx_hal_hcd.c ****         {
 583:Drivers/STM32L4xx_HAL_Driver/Src/stm32l4xx_hal_hcd.c ****           if ((USBx_HC(i)->HCCHAR & USB_OTG_HCCHAR_EPDIR) == USB_OTG_HCCHAR_EPDIR)
 1219              		.loc 1 583 16
 1220 0184 7B69     		ldr	r3, [r7, #20]
 1221 0186 5A01     		lsls	r2, r3, #5
 1222 0188 FB68     		ldr	r3, [r7, #12]
 1223 018a 1344     		add	r3, r3, r2
 1224 018c 03F5A063 		add	r3, r3, #1280
 1225              		.loc 1 583 26
 1226 0190 1B68     		ldr	r3, [r3]
 1227              		.loc 1 583 35
 1228 0192 03F40043 		and	r3, r3, #32768
 1229              		.loc 1 583 14
 1230 0196 B3F5004F 		cmp	r3, #32768
 1231 019a 06D1     		bne	.L59
 584:Drivers/STM32L4xx_HAL_Driver/Src/stm32l4xx_hal_hcd.c ****           {
 585:Drivers/STM32L4xx_HAL_Driver/Src/stm32l4xx_hal_hcd.c ****             HCD_HC_IN_IRQHandler(hhcd, (uint8_t)i);
 1232              		.loc 1 585 13
 1233 019c 7B69     		ldr	r3, [r7, #20]
 1234 019e DBB2     		uxtb	r3, r3
 1235 01a0 1946     		mov	r1, r3
 1236 01a2 7868     		ldr	r0, [r7, #4]
ARM GAS  /tmp/cchI0N5p.s 			page 33


 1237 01a4 FFF7FEFF 		bl	HCD_HC_IN_IRQHandler
 1238 01a8 05E0     		b	.L58
 1239              	.L59:
 586:Drivers/STM32L4xx_HAL_Driver/Src/stm32l4xx_hal_hcd.c ****           }
 587:Drivers/STM32L4xx_HAL_Driver/Src/stm32l4xx_hal_hcd.c ****           else
 588:Drivers/STM32L4xx_HAL_Driver/Src/stm32l4xx_hal_hcd.c ****           {
 589:Drivers/STM32L4xx_HAL_Driver/Src/stm32l4xx_hal_hcd.c ****             HCD_HC_OUT_IRQHandler(hhcd, (uint8_t)i);
 1240              		.loc 1 589 13
 1241 01aa 7B69     		ldr	r3, [r7, #20]
 1242 01ac DBB2     		uxtb	r3, r3
 1243 01ae 1946     		mov	r1, r3
 1244 01b0 7868     		ldr	r0, [r7, #4]
 1245 01b2 FFF7FEFF 		bl	HCD_HC_OUT_IRQHandler
 1246              	.L58:
 579:Drivers/STM32L4xx_HAL_Driver/Src/stm32l4xx_hal_hcd.c ****       {
 1247              		.loc 1 579 51 discriminator 2
 1248 01b6 7B69     		ldr	r3, [r7, #20]
 1249 01b8 0133     		adds	r3, r3, #1
 1250 01ba 7B61     		str	r3, [r7, #20]
 1251              	.L57:
 579:Drivers/STM32L4xx_HAL_Driver/Src/stm32l4xx_hal_hcd.c ****       {
 1252              		.loc 1 579 34 discriminator 1
 1253 01bc 7B68     		ldr	r3, [r7, #4]
 1254 01be 5B79     		ldrb	r3, [r3, #5]	@ zero_extendqisi2
 1255 01c0 1A46     		mov	r2, r3
 579:Drivers/STM32L4xx_HAL_Driver/Src/stm32l4xx_hal_hcd.c ****       {
 1256              		.loc 1 579 22 discriminator 1
 1257 01c2 7B69     		ldr	r3, [r7, #20]
 1258 01c4 9342     		cmp	r3, r2
 1259 01c6 D3D3     		bcc	.L60
 590:Drivers/STM32L4xx_HAL_Driver/Src/stm32l4xx_hal_hcd.c ****           }
 591:Drivers/STM32L4xx_HAL_Driver/Src/stm32l4xx_hal_hcd.c ****         }
 592:Drivers/STM32L4xx_HAL_Driver/Src/stm32l4xx_hal_hcd.c ****       }
 593:Drivers/STM32L4xx_HAL_Driver/Src/stm32l4xx_hal_hcd.c ****       __HAL_HCD_CLEAR_FLAG(hhcd, USB_OTG_GINTSTS_HCINT);
 1260              		.loc 1 593 7
 1261 01c8 7B68     		ldr	r3, [r7, #4]
 1262 01ca 1B68     		ldr	r3, [r3]
 1263 01cc 4FF00072 		mov	r2, #33554432
 1264 01d0 5A61     		str	r2, [r3, #20]
 1265              	.L56:
 594:Drivers/STM32L4xx_HAL_Driver/Src/stm32l4xx_hal_hcd.c ****     }
 595:Drivers/STM32L4xx_HAL_Driver/Src/stm32l4xx_hal_hcd.c **** 
 596:Drivers/STM32L4xx_HAL_Driver/Src/stm32l4xx_hal_hcd.c ****     /* Handle Rx Queue Level Interrupts */
 597:Drivers/STM32L4xx_HAL_Driver/Src/stm32l4xx_hal_hcd.c ****     if ((__HAL_HCD_GET_FLAG(hhcd, USB_OTG_GINTSTS_RXFLVL)) != 0U)
 1266              		.loc 1 597 10
 1267 01d2 7B68     		ldr	r3, [r7, #4]
 1268 01d4 1B68     		ldr	r3, [r3]
 1269 01d6 1846     		mov	r0, r3
 1270 01d8 FFF7FEFF 		bl	USB_ReadInterrupts
 1271 01dc 0346     		mov	r3, r0
 1272              		.loc 1 597 10 is_stmt 0 discriminator 1
 1273 01de 03F01003 		and	r3, r3, #16
 1274              		.loc 1 597 60 is_stmt 1 discriminator 1
 1275 01e2 102B     		cmp	r3, #16
 1276 01e4 01D1     		bne	.L61
 1277 01e6 0123     		movs	r3, #1
 1278 01e8 00E0     		b	.L62
ARM GAS  /tmp/cchI0N5p.s 			page 34


 1279              	.L61:
 1280              		.loc 1 597 60 is_stmt 0 discriminator 2
 1281 01ea 0023     		movs	r3, #0
 1282              	.L62:
 1283              		.loc 1 597 8 is_stmt 1 discriminator 4
 1284 01ec 002B     		cmp	r3, #0
 1285 01ee 14D0     		beq	.L45
 598:Drivers/STM32L4xx_HAL_Driver/Src/stm32l4xx_hal_hcd.c ****     {
 599:Drivers/STM32L4xx_HAL_Driver/Src/stm32l4xx_hal_hcd.c ****       USB_MASK_INTERRUPT(hhcd->Instance, USB_OTG_GINTSTS_RXFLVL);
 1286              		.loc 1 599 7
 1287 01f0 7B68     		ldr	r3, [r7, #4]
 1288 01f2 1B68     		ldr	r3, [r3]
 1289 01f4 9A69     		ldr	r2, [r3, #24]
 1290 01f6 7B68     		ldr	r3, [r7, #4]
 1291 01f8 1B68     		ldr	r3, [r3]
 1292 01fa 22F01002 		bic	r2, r2, #16
 1293 01fe 9A61     		str	r2, [r3, #24]
 600:Drivers/STM32L4xx_HAL_Driver/Src/stm32l4xx_hal_hcd.c **** 
 601:Drivers/STM32L4xx_HAL_Driver/Src/stm32l4xx_hal_hcd.c ****       HCD_RXQLVL_IRQHandler(hhcd);
 1294              		.loc 1 601 7
 1295 0200 7868     		ldr	r0, [r7, #4]
 1296 0202 FFF7FEFF 		bl	HCD_RXQLVL_IRQHandler
 602:Drivers/STM32L4xx_HAL_Driver/Src/stm32l4xx_hal_hcd.c **** 
 603:Drivers/STM32L4xx_HAL_Driver/Src/stm32l4xx_hal_hcd.c ****       USB_UNMASK_INTERRUPT(hhcd->Instance, USB_OTG_GINTSTS_RXFLVL);
 1297              		.loc 1 603 7
 1298 0206 7B68     		ldr	r3, [r7, #4]
 1299 0208 1B68     		ldr	r3, [r3]
 1300 020a 9A69     		ldr	r2, [r3, #24]
 1301 020c 7B68     		ldr	r3, [r7, #4]
 1302 020e 1B68     		ldr	r3, [r3]
 1303 0210 42F01002 		orr	r2, r2, #16
 1304 0214 9A61     		str	r2, [r3, #24]
 1305 0216 00E0     		b	.L45
 1306              	.L63:
 504:Drivers/STM32L4xx_HAL_Driver/Src/stm32l4xx_hal_hcd.c ****     }
 1307              		.loc 1 504 7
 1308 0218 00BF     		nop
 1309              	.L45:
 604:Drivers/STM32L4xx_HAL_Driver/Src/stm32l4xx_hal_hcd.c ****     }
 605:Drivers/STM32L4xx_HAL_Driver/Src/stm32l4xx_hal_hcd.c ****   }
 606:Drivers/STM32L4xx_HAL_Driver/Src/stm32l4xx_hal_hcd.c **** }
 1310              		.loc 1 606 1
 1311 021a 1837     		adds	r7, r7, #24
 1312              		.cfi_def_cfa_offset 8
 1313 021c BD46     		mov	sp, r7
 1314              		.cfi_def_cfa_register 13
 1315              		@ sp needed
 1316 021e 80BD     		pop	{r7, pc}
 1317              		.cfi_endproc
 1318              	.LFE452:
 1320              		.section	.text.HAL_HCD_SOF_Callback,"ax",%progbits
 1321              		.align	1
 1322              		.weak	HAL_HCD_SOF_Callback
 1323              		.syntax unified
 1324              		.thumb
 1325              		.thumb_func
 1327              	HAL_HCD_SOF_Callback:
ARM GAS  /tmp/cchI0N5p.s 			page 35


 1328              	.LFB453:
 607:Drivers/STM32L4xx_HAL_Driver/Src/stm32l4xx_hal_hcd.c **** 
 608:Drivers/STM32L4xx_HAL_Driver/Src/stm32l4xx_hal_hcd.c **** 
 609:Drivers/STM32L4xx_HAL_Driver/Src/stm32l4xx_hal_hcd.c **** /**
 610:Drivers/STM32L4xx_HAL_Driver/Src/stm32l4xx_hal_hcd.c ****   * @brief  SOF callback.
 611:Drivers/STM32L4xx_HAL_Driver/Src/stm32l4xx_hal_hcd.c ****   * @param  hhcd HCD handle
 612:Drivers/STM32L4xx_HAL_Driver/Src/stm32l4xx_hal_hcd.c ****   * @retval None
 613:Drivers/STM32L4xx_HAL_Driver/Src/stm32l4xx_hal_hcd.c ****   */
 614:Drivers/STM32L4xx_HAL_Driver/Src/stm32l4xx_hal_hcd.c **** __weak void HAL_HCD_SOF_Callback(HCD_HandleTypeDef *hhcd)
 615:Drivers/STM32L4xx_HAL_Driver/Src/stm32l4xx_hal_hcd.c **** {
 1329              		.loc 1 615 1
 1330              		.cfi_startproc
 1331              		@ args = 0, pretend = 0, frame = 8
 1332              		@ frame_needed = 1, uses_anonymous_args = 0
 1333              		@ link register save eliminated.
 1334 0000 80B4     		push	{r7}
 1335              		.cfi_def_cfa_offset 4
 1336              		.cfi_offset 7, -4
 1337 0002 83B0     		sub	sp, sp, #12
 1338              		.cfi_def_cfa_offset 16
 1339 0004 00AF     		add	r7, sp, #0
 1340              		.cfi_def_cfa_register 7
 1341 0006 7860     		str	r0, [r7, #4]
 616:Drivers/STM32L4xx_HAL_Driver/Src/stm32l4xx_hal_hcd.c ****   /* Prevent unused argument(s) compilation warning */
 617:Drivers/STM32L4xx_HAL_Driver/Src/stm32l4xx_hal_hcd.c ****   UNUSED(hhcd);
 618:Drivers/STM32L4xx_HAL_Driver/Src/stm32l4xx_hal_hcd.c **** 
 619:Drivers/STM32L4xx_HAL_Driver/Src/stm32l4xx_hal_hcd.c ****   /* NOTE : This function should not be modified, when the callback is needed,
 620:Drivers/STM32L4xx_HAL_Driver/Src/stm32l4xx_hal_hcd.c ****             the HAL_HCD_SOF_Callback could be implemented in the user file
 621:Drivers/STM32L4xx_HAL_Driver/Src/stm32l4xx_hal_hcd.c ****    */
 622:Drivers/STM32L4xx_HAL_Driver/Src/stm32l4xx_hal_hcd.c **** }
 1342              		.loc 1 622 1
 1343 0008 00BF     		nop
 1344 000a 0C37     		adds	r7, r7, #12
 1345              		.cfi_def_cfa_offset 4
 1346 000c BD46     		mov	sp, r7
 1347              		.cfi_def_cfa_register 13
 1348              		@ sp needed
 1349 000e 5DF8047B 		ldr	r7, [sp], #4
 1350              		.cfi_restore 7
 1351              		.cfi_def_cfa_offset 0
 1352 0012 7047     		bx	lr
 1353              		.cfi_endproc
 1354              	.LFE453:
 1356              		.section	.text.HAL_HCD_Connect_Callback,"ax",%progbits
 1357              		.align	1
 1358              		.weak	HAL_HCD_Connect_Callback
 1359              		.syntax unified
 1360              		.thumb
 1361              		.thumb_func
 1363              	HAL_HCD_Connect_Callback:
 1364              	.LFB454:
 623:Drivers/STM32L4xx_HAL_Driver/Src/stm32l4xx_hal_hcd.c **** 
 624:Drivers/STM32L4xx_HAL_Driver/Src/stm32l4xx_hal_hcd.c **** /**
 625:Drivers/STM32L4xx_HAL_Driver/Src/stm32l4xx_hal_hcd.c ****   * @brief Connection Event callback.
 626:Drivers/STM32L4xx_HAL_Driver/Src/stm32l4xx_hal_hcd.c ****   * @param  hhcd HCD handle
 627:Drivers/STM32L4xx_HAL_Driver/Src/stm32l4xx_hal_hcd.c ****   * @retval None
 628:Drivers/STM32L4xx_HAL_Driver/Src/stm32l4xx_hal_hcd.c ****   */
ARM GAS  /tmp/cchI0N5p.s 			page 36


 629:Drivers/STM32L4xx_HAL_Driver/Src/stm32l4xx_hal_hcd.c **** __weak void HAL_HCD_Connect_Callback(HCD_HandleTypeDef *hhcd)
 630:Drivers/STM32L4xx_HAL_Driver/Src/stm32l4xx_hal_hcd.c **** {
 1365              		.loc 1 630 1
 1366              		.cfi_startproc
 1367              		@ args = 0, pretend = 0, frame = 8
 1368              		@ frame_needed = 1, uses_anonymous_args = 0
 1369              		@ link register save eliminated.
 1370 0000 80B4     		push	{r7}
 1371              		.cfi_def_cfa_offset 4
 1372              		.cfi_offset 7, -4
 1373 0002 83B0     		sub	sp, sp, #12
 1374              		.cfi_def_cfa_offset 16
 1375 0004 00AF     		add	r7, sp, #0
 1376              		.cfi_def_cfa_register 7
 1377 0006 7860     		str	r0, [r7, #4]
 631:Drivers/STM32L4xx_HAL_Driver/Src/stm32l4xx_hal_hcd.c ****   /* Prevent unused argument(s) compilation warning */
 632:Drivers/STM32L4xx_HAL_Driver/Src/stm32l4xx_hal_hcd.c ****   UNUSED(hhcd);
 633:Drivers/STM32L4xx_HAL_Driver/Src/stm32l4xx_hal_hcd.c **** 
 634:Drivers/STM32L4xx_HAL_Driver/Src/stm32l4xx_hal_hcd.c ****   /* NOTE : This function should not be modified, when the callback is needed,
 635:Drivers/STM32L4xx_HAL_Driver/Src/stm32l4xx_hal_hcd.c ****             the HAL_HCD_Connect_Callback could be implemented in the user file
 636:Drivers/STM32L4xx_HAL_Driver/Src/stm32l4xx_hal_hcd.c ****    */
 637:Drivers/STM32L4xx_HAL_Driver/Src/stm32l4xx_hal_hcd.c **** }
 1378              		.loc 1 637 1
 1379 0008 00BF     		nop
 1380 000a 0C37     		adds	r7, r7, #12
 1381              		.cfi_def_cfa_offset 4
 1382 000c BD46     		mov	sp, r7
 1383              		.cfi_def_cfa_register 13
 1384              		@ sp needed
 1385 000e 5DF8047B 		ldr	r7, [sp], #4
 1386              		.cfi_restore 7
 1387              		.cfi_def_cfa_offset 0
 1388 0012 7047     		bx	lr
 1389              		.cfi_endproc
 1390              	.LFE454:
 1392              		.section	.text.HAL_HCD_Disconnect_Callback,"ax",%progbits
 1393              		.align	1
 1394              		.weak	HAL_HCD_Disconnect_Callback
 1395              		.syntax unified
 1396              		.thumb
 1397              		.thumb_func
 1399              	HAL_HCD_Disconnect_Callback:
 1400              	.LFB455:
 638:Drivers/STM32L4xx_HAL_Driver/Src/stm32l4xx_hal_hcd.c **** 
 639:Drivers/STM32L4xx_HAL_Driver/Src/stm32l4xx_hal_hcd.c **** /**
 640:Drivers/STM32L4xx_HAL_Driver/Src/stm32l4xx_hal_hcd.c ****   * @brief  Disconnection Event callback.
 641:Drivers/STM32L4xx_HAL_Driver/Src/stm32l4xx_hal_hcd.c ****   * @param  hhcd HCD handle
 642:Drivers/STM32L4xx_HAL_Driver/Src/stm32l4xx_hal_hcd.c ****   * @retval None
 643:Drivers/STM32L4xx_HAL_Driver/Src/stm32l4xx_hal_hcd.c ****   */
 644:Drivers/STM32L4xx_HAL_Driver/Src/stm32l4xx_hal_hcd.c **** __weak void HAL_HCD_Disconnect_Callback(HCD_HandleTypeDef *hhcd)
 645:Drivers/STM32L4xx_HAL_Driver/Src/stm32l4xx_hal_hcd.c **** {
 1401              		.loc 1 645 1
 1402              		.cfi_startproc
 1403              		@ args = 0, pretend = 0, frame = 8
 1404              		@ frame_needed = 1, uses_anonymous_args = 0
 1405              		@ link register save eliminated.
 1406 0000 80B4     		push	{r7}
ARM GAS  /tmp/cchI0N5p.s 			page 37


 1407              		.cfi_def_cfa_offset 4
 1408              		.cfi_offset 7, -4
 1409 0002 83B0     		sub	sp, sp, #12
 1410              		.cfi_def_cfa_offset 16
 1411 0004 00AF     		add	r7, sp, #0
 1412              		.cfi_def_cfa_register 7
 1413 0006 7860     		str	r0, [r7, #4]
 646:Drivers/STM32L4xx_HAL_Driver/Src/stm32l4xx_hal_hcd.c ****   /* Prevent unused argument(s) compilation warning */
 647:Drivers/STM32L4xx_HAL_Driver/Src/stm32l4xx_hal_hcd.c ****   UNUSED(hhcd);
 648:Drivers/STM32L4xx_HAL_Driver/Src/stm32l4xx_hal_hcd.c **** 
 649:Drivers/STM32L4xx_HAL_Driver/Src/stm32l4xx_hal_hcd.c ****   /* NOTE : This function should not be modified, when the callback is needed,
 650:Drivers/STM32L4xx_HAL_Driver/Src/stm32l4xx_hal_hcd.c ****             the HAL_HCD_Disconnect_Callback could be implemented in the user file
 651:Drivers/STM32L4xx_HAL_Driver/Src/stm32l4xx_hal_hcd.c ****    */
 652:Drivers/STM32L4xx_HAL_Driver/Src/stm32l4xx_hal_hcd.c **** }
 1414              		.loc 1 652 1
 1415 0008 00BF     		nop
 1416 000a 0C37     		adds	r7, r7, #12
 1417              		.cfi_def_cfa_offset 4
 1418 000c BD46     		mov	sp, r7
 1419              		.cfi_def_cfa_register 13
 1420              		@ sp needed
 1421 000e 5DF8047B 		ldr	r7, [sp], #4
 1422              		.cfi_restore 7
 1423              		.cfi_def_cfa_offset 0
 1424 0012 7047     		bx	lr
 1425              		.cfi_endproc
 1426              	.LFE455:
 1428              		.section	.text.HAL_HCD_PortEnabled_Callback,"ax",%progbits
 1429              		.align	1
 1430              		.weak	HAL_HCD_PortEnabled_Callback
 1431              		.syntax unified
 1432              		.thumb
 1433              		.thumb_func
 1435              	HAL_HCD_PortEnabled_Callback:
 1436              	.LFB456:
 653:Drivers/STM32L4xx_HAL_Driver/Src/stm32l4xx_hal_hcd.c **** 
 654:Drivers/STM32L4xx_HAL_Driver/Src/stm32l4xx_hal_hcd.c **** /**
 655:Drivers/STM32L4xx_HAL_Driver/Src/stm32l4xx_hal_hcd.c ****   * @brief  Port Enabled  Event callback.
 656:Drivers/STM32L4xx_HAL_Driver/Src/stm32l4xx_hal_hcd.c ****   * @param  hhcd HCD handle
 657:Drivers/STM32L4xx_HAL_Driver/Src/stm32l4xx_hal_hcd.c ****   * @retval None
 658:Drivers/STM32L4xx_HAL_Driver/Src/stm32l4xx_hal_hcd.c ****   */
 659:Drivers/STM32L4xx_HAL_Driver/Src/stm32l4xx_hal_hcd.c **** __weak void HAL_HCD_PortEnabled_Callback(HCD_HandleTypeDef *hhcd)
 660:Drivers/STM32L4xx_HAL_Driver/Src/stm32l4xx_hal_hcd.c **** {
 1437              		.loc 1 660 1
 1438              		.cfi_startproc
 1439              		@ args = 0, pretend = 0, frame = 8
 1440              		@ frame_needed = 1, uses_anonymous_args = 0
 1441              		@ link register save eliminated.
 1442 0000 80B4     		push	{r7}
 1443              		.cfi_def_cfa_offset 4
 1444              		.cfi_offset 7, -4
 1445 0002 83B0     		sub	sp, sp, #12
 1446              		.cfi_def_cfa_offset 16
 1447 0004 00AF     		add	r7, sp, #0
 1448              		.cfi_def_cfa_register 7
 1449 0006 7860     		str	r0, [r7, #4]
 661:Drivers/STM32L4xx_HAL_Driver/Src/stm32l4xx_hal_hcd.c ****   /* Prevent unused argument(s) compilation warning */
ARM GAS  /tmp/cchI0N5p.s 			page 38


 662:Drivers/STM32L4xx_HAL_Driver/Src/stm32l4xx_hal_hcd.c ****   UNUSED(hhcd);
 663:Drivers/STM32L4xx_HAL_Driver/Src/stm32l4xx_hal_hcd.c **** 
 664:Drivers/STM32L4xx_HAL_Driver/Src/stm32l4xx_hal_hcd.c ****   /* NOTE : This function should not be modified, when the callback is needed,
 665:Drivers/STM32L4xx_HAL_Driver/Src/stm32l4xx_hal_hcd.c ****             the HAL_HCD_Disconnect_Callback could be implemented in the user file
 666:Drivers/STM32L4xx_HAL_Driver/Src/stm32l4xx_hal_hcd.c ****    */
 667:Drivers/STM32L4xx_HAL_Driver/Src/stm32l4xx_hal_hcd.c **** }
 1450              		.loc 1 667 1
 1451 0008 00BF     		nop
 1452 000a 0C37     		adds	r7, r7, #12
 1453              		.cfi_def_cfa_offset 4
 1454 000c BD46     		mov	sp, r7
 1455              		.cfi_def_cfa_register 13
 1456              		@ sp needed
 1457 000e 5DF8047B 		ldr	r7, [sp], #4
 1458              		.cfi_restore 7
 1459              		.cfi_def_cfa_offset 0
 1460 0012 7047     		bx	lr
 1461              		.cfi_endproc
 1462              	.LFE456:
 1464              		.section	.text.HAL_HCD_PortDisabled_Callback,"ax",%progbits
 1465              		.align	1
 1466              		.weak	HAL_HCD_PortDisabled_Callback
 1467              		.syntax unified
 1468              		.thumb
 1469              		.thumb_func
 1471              	HAL_HCD_PortDisabled_Callback:
 1472              	.LFB457:
 668:Drivers/STM32L4xx_HAL_Driver/Src/stm32l4xx_hal_hcd.c **** 
 669:Drivers/STM32L4xx_HAL_Driver/Src/stm32l4xx_hal_hcd.c **** /**
 670:Drivers/STM32L4xx_HAL_Driver/Src/stm32l4xx_hal_hcd.c ****   * @brief  Port Disabled  Event callback.
 671:Drivers/STM32L4xx_HAL_Driver/Src/stm32l4xx_hal_hcd.c ****   * @param  hhcd HCD handle
 672:Drivers/STM32L4xx_HAL_Driver/Src/stm32l4xx_hal_hcd.c ****   * @retval None
 673:Drivers/STM32L4xx_HAL_Driver/Src/stm32l4xx_hal_hcd.c ****   */
 674:Drivers/STM32L4xx_HAL_Driver/Src/stm32l4xx_hal_hcd.c **** __weak void HAL_HCD_PortDisabled_Callback(HCD_HandleTypeDef *hhcd)
 675:Drivers/STM32L4xx_HAL_Driver/Src/stm32l4xx_hal_hcd.c **** {
 1473              		.loc 1 675 1
 1474              		.cfi_startproc
 1475              		@ args = 0, pretend = 0, frame = 8
 1476              		@ frame_needed = 1, uses_anonymous_args = 0
 1477              		@ link register save eliminated.
 1478 0000 80B4     		push	{r7}
 1479              		.cfi_def_cfa_offset 4
 1480              		.cfi_offset 7, -4
 1481 0002 83B0     		sub	sp, sp, #12
 1482              		.cfi_def_cfa_offset 16
 1483 0004 00AF     		add	r7, sp, #0
 1484              		.cfi_def_cfa_register 7
 1485 0006 7860     		str	r0, [r7, #4]
 676:Drivers/STM32L4xx_HAL_Driver/Src/stm32l4xx_hal_hcd.c ****   /* Prevent unused argument(s) compilation warning */
 677:Drivers/STM32L4xx_HAL_Driver/Src/stm32l4xx_hal_hcd.c ****   UNUSED(hhcd);
 678:Drivers/STM32L4xx_HAL_Driver/Src/stm32l4xx_hal_hcd.c **** 
 679:Drivers/STM32L4xx_HAL_Driver/Src/stm32l4xx_hal_hcd.c ****   /* NOTE : This function should not be modified, when the callback is needed,
 680:Drivers/STM32L4xx_HAL_Driver/Src/stm32l4xx_hal_hcd.c ****             the HAL_HCD_Disconnect_Callback could be implemented in the user file
 681:Drivers/STM32L4xx_HAL_Driver/Src/stm32l4xx_hal_hcd.c ****    */
 682:Drivers/STM32L4xx_HAL_Driver/Src/stm32l4xx_hal_hcd.c **** }
 1486              		.loc 1 682 1
 1487 0008 00BF     		nop
ARM GAS  /tmp/cchI0N5p.s 			page 39


 1488 000a 0C37     		adds	r7, r7, #12
 1489              		.cfi_def_cfa_offset 4
 1490 000c BD46     		mov	sp, r7
 1491              		.cfi_def_cfa_register 13
 1492              		@ sp needed
 1493 000e 5DF8047B 		ldr	r7, [sp], #4
 1494              		.cfi_restore 7
 1495              		.cfi_def_cfa_offset 0
 1496 0012 7047     		bx	lr
 1497              		.cfi_endproc
 1498              	.LFE457:
 1500              		.section	.text.HAL_HCD_HC_NotifyURBChange_Callback,"ax",%progbits
 1501              		.align	1
 1502              		.weak	HAL_HCD_HC_NotifyURBChange_Callback
 1503              		.syntax unified
 1504              		.thumb
 1505              		.thumb_func
 1507              	HAL_HCD_HC_NotifyURBChange_Callback:
 1508              	.LFB458:
 683:Drivers/STM32L4xx_HAL_Driver/Src/stm32l4xx_hal_hcd.c **** 
 684:Drivers/STM32L4xx_HAL_Driver/Src/stm32l4xx_hal_hcd.c **** /**
 685:Drivers/STM32L4xx_HAL_Driver/Src/stm32l4xx_hal_hcd.c ****   * @brief  Notify URB state change callback.
 686:Drivers/STM32L4xx_HAL_Driver/Src/stm32l4xx_hal_hcd.c ****   * @param  hhcd HCD handle
 687:Drivers/STM32L4xx_HAL_Driver/Src/stm32l4xx_hal_hcd.c ****   * @param  chnum Channel number.
 688:Drivers/STM32L4xx_HAL_Driver/Src/stm32l4xx_hal_hcd.c ****   *         This parameter can be a value from 1 to 15
 689:Drivers/STM32L4xx_HAL_Driver/Src/stm32l4xx_hal_hcd.c ****   * @param  urb_state:
 690:Drivers/STM32L4xx_HAL_Driver/Src/stm32l4xx_hal_hcd.c ****   *          This parameter can be one of these values:
 691:Drivers/STM32L4xx_HAL_Driver/Src/stm32l4xx_hal_hcd.c ****   *            URB_IDLE/
 692:Drivers/STM32L4xx_HAL_Driver/Src/stm32l4xx_hal_hcd.c ****   *            URB_DONE/
 693:Drivers/STM32L4xx_HAL_Driver/Src/stm32l4xx_hal_hcd.c ****   *            URB_NOTREADY/
 694:Drivers/STM32L4xx_HAL_Driver/Src/stm32l4xx_hal_hcd.c ****   *            URB_NYET/
 695:Drivers/STM32L4xx_HAL_Driver/Src/stm32l4xx_hal_hcd.c ****   *            URB_ERROR/
 696:Drivers/STM32L4xx_HAL_Driver/Src/stm32l4xx_hal_hcd.c ****   *            URB_STALL/
 697:Drivers/STM32L4xx_HAL_Driver/Src/stm32l4xx_hal_hcd.c ****   * @retval None
 698:Drivers/STM32L4xx_HAL_Driver/Src/stm32l4xx_hal_hcd.c ****   */
 699:Drivers/STM32L4xx_HAL_Driver/Src/stm32l4xx_hal_hcd.c **** __weak void HAL_HCD_HC_NotifyURBChange_Callback(HCD_HandleTypeDef *hhcd, uint8_t chnum, HCD_URBStat
 700:Drivers/STM32L4xx_HAL_Driver/Src/stm32l4xx_hal_hcd.c **** {
 1509              		.loc 1 700 1
 1510              		.cfi_startproc
 1511              		@ args = 0, pretend = 0, frame = 8
 1512              		@ frame_needed = 1, uses_anonymous_args = 0
 1513              		@ link register save eliminated.
 1514 0000 80B4     		push	{r7}
 1515              		.cfi_def_cfa_offset 4
 1516              		.cfi_offset 7, -4
 1517 0002 83B0     		sub	sp, sp, #12
 1518              		.cfi_def_cfa_offset 16
 1519 0004 00AF     		add	r7, sp, #0
 1520              		.cfi_def_cfa_register 7
 1521 0006 7860     		str	r0, [r7, #4]
 1522 0008 0B46     		mov	r3, r1
 1523 000a FB70     		strb	r3, [r7, #3]
 1524 000c 1346     		mov	r3, r2
 1525 000e BB70     		strb	r3, [r7, #2]
 701:Drivers/STM32L4xx_HAL_Driver/Src/stm32l4xx_hal_hcd.c ****   /* Prevent unused argument(s) compilation warning */
 702:Drivers/STM32L4xx_HAL_Driver/Src/stm32l4xx_hal_hcd.c ****   UNUSED(hhcd);
 703:Drivers/STM32L4xx_HAL_Driver/Src/stm32l4xx_hal_hcd.c ****   UNUSED(chnum);
ARM GAS  /tmp/cchI0N5p.s 			page 40


 704:Drivers/STM32L4xx_HAL_Driver/Src/stm32l4xx_hal_hcd.c ****   UNUSED(urb_state);
 705:Drivers/STM32L4xx_HAL_Driver/Src/stm32l4xx_hal_hcd.c **** 
 706:Drivers/STM32L4xx_HAL_Driver/Src/stm32l4xx_hal_hcd.c ****   /* NOTE : This function should not be modified, when the callback is needed,
 707:Drivers/STM32L4xx_HAL_Driver/Src/stm32l4xx_hal_hcd.c ****             the HAL_HCD_HC_NotifyURBChange_Callback could be implemented in the user file
 708:Drivers/STM32L4xx_HAL_Driver/Src/stm32l4xx_hal_hcd.c ****    */
 709:Drivers/STM32L4xx_HAL_Driver/Src/stm32l4xx_hal_hcd.c **** }
 1526              		.loc 1 709 1
 1527 0010 00BF     		nop
 1528 0012 0C37     		adds	r7, r7, #12
 1529              		.cfi_def_cfa_offset 4
 1530 0014 BD46     		mov	sp, r7
 1531              		.cfi_def_cfa_register 13
 1532              		@ sp needed
 1533 0016 5DF8047B 		ldr	r7, [sp], #4
 1534              		.cfi_restore 7
 1535              		.cfi_def_cfa_offset 0
 1536 001a 7047     		bx	lr
 1537              		.cfi_endproc
 1538              	.LFE458:
 1540              		.section	.text.HAL_HCD_Start,"ax",%progbits
 1541              		.align	1
 1542              		.global	HAL_HCD_Start
 1543              		.syntax unified
 1544              		.thumb
 1545              		.thumb_func
 1547              	HAL_HCD_Start:
 1548              	.LFB459:
 710:Drivers/STM32L4xx_HAL_Driver/Src/stm32l4xx_hal_hcd.c **** 
 711:Drivers/STM32L4xx_HAL_Driver/Src/stm32l4xx_hal_hcd.c **** #if (USE_HAL_HCD_REGISTER_CALLBACKS == 1U)
 712:Drivers/STM32L4xx_HAL_Driver/Src/stm32l4xx_hal_hcd.c **** /**
 713:Drivers/STM32L4xx_HAL_Driver/Src/stm32l4xx_hal_hcd.c ****   * @brief  Register a User USB HCD Callback
 714:Drivers/STM32L4xx_HAL_Driver/Src/stm32l4xx_hal_hcd.c ****   *         To be used instead of the weak predefined callback
 715:Drivers/STM32L4xx_HAL_Driver/Src/stm32l4xx_hal_hcd.c ****   * @param  hhcd USB HCD handle
 716:Drivers/STM32L4xx_HAL_Driver/Src/stm32l4xx_hal_hcd.c ****   * @param  CallbackID ID of the callback to be registered
 717:Drivers/STM32L4xx_HAL_Driver/Src/stm32l4xx_hal_hcd.c ****   *         This parameter can be one of the following values:
 718:Drivers/STM32L4xx_HAL_Driver/Src/stm32l4xx_hal_hcd.c ****   *          @arg @ref HAL_HCD_SOF_CB_ID USB HCD SOF callback ID
 719:Drivers/STM32L4xx_HAL_Driver/Src/stm32l4xx_hal_hcd.c ****   *          @arg @ref HAL_HCD_CONNECT_CB_ID USB HCD Connect callback ID
 720:Drivers/STM32L4xx_HAL_Driver/Src/stm32l4xx_hal_hcd.c ****   *          @arg @ref HAL_HCD_DISCONNECT_CB_ID OTG HCD Disconnect callback ID
 721:Drivers/STM32L4xx_HAL_Driver/Src/stm32l4xx_hal_hcd.c ****   *          @arg @ref HAL_HCD_PORT_ENABLED_CB_ID USB HCD Port Enable callback ID
 722:Drivers/STM32L4xx_HAL_Driver/Src/stm32l4xx_hal_hcd.c ****   *          @arg @ref HAL_HCD_PORT_DISABLED_CB_ID USB HCD Port Disable callback ID
 723:Drivers/STM32L4xx_HAL_Driver/Src/stm32l4xx_hal_hcd.c ****   *          @arg @ref HAL_HCD_MSPINIT_CB_ID MspDeInit callback ID
 724:Drivers/STM32L4xx_HAL_Driver/Src/stm32l4xx_hal_hcd.c ****   *          @arg @ref HAL_HCD_MSPDEINIT_CB_ID MspDeInit callback ID
 725:Drivers/STM32L4xx_HAL_Driver/Src/stm32l4xx_hal_hcd.c ****   * @param  pCallback pointer to the Callback function
 726:Drivers/STM32L4xx_HAL_Driver/Src/stm32l4xx_hal_hcd.c ****   * @retval HAL status
 727:Drivers/STM32L4xx_HAL_Driver/Src/stm32l4xx_hal_hcd.c ****   */
 728:Drivers/STM32L4xx_HAL_Driver/Src/stm32l4xx_hal_hcd.c **** HAL_StatusTypeDef HAL_HCD_RegisterCallback(HCD_HandleTypeDef *hhcd,
 729:Drivers/STM32L4xx_HAL_Driver/Src/stm32l4xx_hal_hcd.c ****                                            HAL_HCD_CallbackIDTypeDef CallbackID,
 730:Drivers/STM32L4xx_HAL_Driver/Src/stm32l4xx_hal_hcd.c ****                                            pHCD_CallbackTypeDef pCallback)
 731:Drivers/STM32L4xx_HAL_Driver/Src/stm32l4xx_hal_hcd.c **** {
 732:Drivers/STM32L4xx_HAL_Driver/Src/stm32l4xx_hal_hcd.c ****   HAL_StatusTypeDef status = HAL_OK;
 733:Drivers/STM32L4xx_HAL_Driver/Src/stm32l4xx_hal_hcd.c **** 
 734:Drivers/STM32L4xx_HAL_Driver/Src/stm32l4xx_hal_hcd.c ****   if (pCallback == NULL)
 735:Drivers/STM32L4xx_HAL_Driver/Src/stm32l4xx_hal_hcd.c ****   {
 736:Drivers/STM32L4xx_HAL_Driver/Src/stm32l4xx_hal_hcd.c ****     /* Update the error code */
 737:Drivers/STM32L4xx_HAL_Driver/Src/stm32l4xx_hal_hcd.c ****     hhcd->ErrorCode |= HAL_HCD_ERROR_INVALID_CALLBACK;
 738:Drivers/STM32L4xx_HAL_Driver/Src/stm32l4xx_hal_hcd.c ****     return HAL_ERROR;
 739:Drivers/STM32L4xx_HAL_Driver/Src/stm32l4xx_hal_hcd.c ****   }
ARM GAS  /tmp/cchI0N5p.s 			page 41


 740:Drivers/STM32L4xx_HAL_Driver/Src/stm32l4xx_hal_hcd.c ****   /* Process locked */
 741:Drivers/STM32L4xx_HAL_Driver/Src/stm32l4xx_hal_hcd.c ****   __HAL_LOCK(hhcd);
 742:Drivers/STM32L4xx_HAL_Driver/Src/stm32l4xx_hal_hcd.c **** 
 743:Drivers/STM32L4xx_HAL_Driver/Src/stm32l4xx_hal_hcd.c ****   if (hhcd->State == HAL_HCD_STATE_READY)
 744:Drivers/STM32L4xx_HAL_Driver/Src/stm32l4xx_hal_hcd.c ****   {
 745:Drivers/STM32L4xx_HAL_Driver/Src/stm32l4xx_hal_hcd.c ****     switch (CallbackID)
 746:Drivers/STM32L4xx_HAL_Driver/Src/stm32l4xx_hal_hcd.c ****     {
 747:Drivers/STM32L4xx_HAL_Driver/Src/stm32l4xx_hal_hcd.c ****       case HAL_HCD_SOF_CB_ID :
 748:Drivers/STM32L4xx_HAL_Driver/Src/stm32l4xx_hal_hcd.c ****         hhcd->SOFCallback = pCallback;
 749:Drivers/STM32L4xx_HAL_Driver/Src/stm32l4xx_hal_hcd.c ****         break;
 750:Drivers/STM32L4xx_HAL_Driver/Src/stm32l4xx_hal_hcd.c **** 
 751:Drivers/STM32L4xx_HAL_Driver/Src/stm32l4xx_hal_hcd.c ****       case HAL_HCD_CONNECT_CB_ID :
 752:Drivers/STM32L4xx_HAL_Driver/Src/stm32l4xx_hal_hcd.c ****         hhcd->ConnectCallback = pCallback;
 753:Drivers/STM32L4xx_HAL_Driver/Src/stm32l4xx_hal_hcd.c ****         break;
 754:Drivers/STM32L4xx_HAL_Driver/Src/stm32l4xx_hal_hcd.c **** 
 755:Drivers/STM32L4xx_HAL_Driver/Src/stm32l4xx_hal_hcd.c ****       case HAL_HCD_DISCONNECT_CB_ID :
 756:Drivers/STM32L4xx_HAL_Driver/Src/stm32l4xx_hal_hcd.c ****         hhcd->DisconnectCallback = pCallback;
 757:Drivers/STM32L4xx_HAL_Driver/Src/stm32l4xx_hal_hcd.c ****         break;
 758:Drivers/STM32L4xx_HAL_Driver/Src/stm32l4xx_hal_hcd.c **** 
 759:Drivers/STM32L4xx_HAL_Driver/Src/stm32l4xx_hal_hcd.c ****       case HAL_HCD_PORT_ENABLED_CB_ID :
 760:Drivers/STM32L4xx_HAL_Driver/Src/stm32l4xx_hal_hcd.c ****         hhcd->PortEnabledCallback = pCallback;
 761:Drivers/STM32L4xx_HAL_Driver/Src/stm32l4xx_hal_hcd.c ****         break;
 762:Drivers/STM32L4xx_HAL_Driver/Src/stm32l4xx_hal_hcd.c **** 
 763:Drivers/STM32L4xx_HAL_Driver/Src/stm32l4xx_hal_hcd.c ****       case HAL_HCD_PORT_DISABLED_CB_ID :
 764:Drivers/STM32L4xx_HAL_Driver/Src/stm32l4xx_hal_hcd.c ****         hhcd->PortDisabledCallback = pCallback;
 765:Drivers/STM32L4xx_HAL_Driver/Src/stm32l4xx_hal_hcd.c ****         break;
 766:Drivers/STM32L4xx_HAL_Driver/Src/stm32l4xx_hal_hcd.c **** 
 767:Drivers/STM32L4xx_HAL_Driver/Src/stm32l4xx_hal_hcd.c ****       case HAL_HCD_MSPINIT_CB_ID :
 768:Drivers/STM32L4xx_HAL_Driver/Src/stm32l4xx_hal_hcd.c ****         hhcd->MspInitCallback = pCallback;
 769:Drivers/STM32L4xx_HAL_Driver/Src/stm32l4xx_hal_hcd.c ****         break;
 770:Drivers/STM32L4xx_HAL_Driver/Src/stm32l4xx_hal_hcd.c **** 
 771:Drivers/STM32L4xx_HAL_Driver/Src/stm32l4xx_hal_hcd.c ****       case HAL_HCD_MSPDEINIT_CB_ID :
 772:Drivers/STM32L4xx_HAL_Driver/Src/stm32l4xx_hal_hcd.c ****         hhcd->MspDeInitCallback = pCallback;
 773:Drivers/STM32L4xx_HAL_Driver/Src/stm32l4xx_hal_hcd.c ****         break;
 774:Drivers/STM32L4xx_HAL_Driver/Src/stm32l4xx_hal_hcd.c **** 
 775:Drivers/STM32L4xx_HAL_Driver/Src/stm32l4xx_hal_hcd.c ****       default :
 776:Drivers/STM32L4xx_HAL_Driver/Src/stm32l4xx_hal_hcd.c ****         /* Update the error code */
 777:Drivers/STM32L4xx_HAL_Driver/Src/stm32l4xx_hal_hcd.c ****         hhcd->ErrorCode |= HAL_HCD_ERROR_INVALID_CALLBACK;
 778:Drivers/STM32L4xx_HAL_Driver/Src/stm32l4xx_hal_hcd.c ****         /* Return error status */
 779:Drivers/STM32L4xx_HAL_Driver/Src/stm32l4xx_hal_hcd.c ****         status =  HAL_ERROR;
 780:Drivers/STM32L4xx_HAL_Driver/Src/stm32l4xx_hal_hcd.c ****         break;
 781:Drivers/STM32L4xx_HAL_Driver/Src/stm32l4xx_hal_hcd.c ****     }
 782:Drivers/STM32L4xx_HAL_Driver/Src/stm32l4xx_hal_hcd.c ****   }
 783:Drivers/STM32L4xx_HAL_Driver/Src/stm32l4xx_hal_hcd.c ****   else if (hhcd->State == HAL_HCD_STATE_RESET)
 784:Drivers/STM32L4xx_HAL_Driver/Src/stm32l4xx_hal_hcd.c ****   {
 785:Drivers/STM32L4xx_HAL_Driver/Src/stm32l4xx_hal_hcd.c ****     switch (CallbackID)
 786:Drivers/STM32L4xx_HAL_Driver/Src/stm32l4xx_hal_hcd.c ****     {
 787:Drivers/STM32L4xx_HAL_Driver/Src/stm32l4xx_hal_hcd.c ****       case HAL_HCD_MSPINIT_CB_ID :
 788:Drivers/STM32L4xx_HAL_Driver/Src/stm32l4xx_hal_hcd.c ****         hhcd->MspInitCallback = pCallback;
 789:Drivers/STM32L4xx_HAL_Driver/Src/stm32l4xx_hal_hcd.c ****         break;
 790:Drivers/STM32L4xx_HAL_Driver/Src/stm32l4xx_hal_hcd.c **** 
 791:Drivers/STM32L4xx_HAL_Driver/Src/stm32l4xx_hal_hcd.c ****       case HAL_HCD_MSPDEINIT_CB_ID :
 792:Drivers/STM32L4xx_HAL_Driver/Src/stm32l4xx_hal_hcd.c ****         hhcd->MspDeInitCallback = pCallback;
 793:Drivers/STM32L4xx_HAL_Driver/Src/stm32l4xx_hal_hcd.c ****         break;
 794:Drivers/STM32L4xx_HAL_Driver/Src/stm32l4xx_hal_hcd.c **** 
 795:Drivers/STM32L4xx_HAL_Driver/Src/stm32l4xx_hal_hcd.c ****       default :
 796:Drivers/STM32L4xx_HAL_Driver/Src/stm32l4xx_hal_hcd.c ****         /* Update the error code */
ARM GAS  /tmp/cchI0N5p.s 			page 42


 797:Drivers/STM32L4xx_HAL_Driver/Src/stm32l4xx_hal_hcd.c ****         hhcd->ErrorCode |= HAL_HCD_ERROR_INVALID_CALLBACK;
 798:Drivers/STM32L4xx_HAL_Driver/Src/stm32l4xx_hal_hcd.c ****         /* Return error status */
 799:Drivers/STM32L4xx_HAL_Driver/Src/stm32l4xx_hal_hcd.c ****         status =  HAL_ERROR;
 800:Drivers/STM32L4xx_HAL_Driver/Src/stm32l4xx_hal_hcd.c ****         break;
 801:Drivers/STM32L4xx_HAL_Driver/Src/stm32l4xx_hal_hcd.c ****     }
 802:Drivers/STM32L4xx_HAL_Driver/Src/stm32l4xx_hal_hcd.c ****   }
 803:Drivers/STM32L4xx_HAL_Driver/Src/stm32l4xx_hal_hcd.c ****   else
 804:Drivers/STM32L4xx_HAL_Driver/Src/stm32l4xx_hal_hcd.c ****   {
 805:Drivers/STM32L4xx_HAL_Driver/Src/stm32l4xx_hal_hcd.c ****     /* Update the error code */
 806:Drivers/STM32L4xx_HAL_Driver/Src/stm32l4xx_hal_hcd.c ****     hhcd->ErrorCode |= HAL_HCD_ERROR_INVALID_CALLBACK;
 807:Drivers/STM32L4xx_HAL_Driver/Src/stm32l4xx_hal_hcd.c ****     /* Return error status */
 808:Drivers/STM32L4xx_HAL_Driver/Src/stm32l4xx_hal_hcd.c ****     status =  HAL_ERROR;
 809:Drivers/STM32L4xx_HAL_Driver/Src/stm32l4xx_hal_hcd.c ****   }
 810:Drivers/STM32L4xx_HAL_Driver/Src/stm32l4xx_hal_hcd.c **** 
 811:Drivers/STM32L4xx_HAL_Driver/Src/stm32l4xx_hal_hcd.c ****   /* Release Lock */
 812:Drivers/STM32L4xx_HAL_Driver/Src/stm32l4xx_hal_hcd.c ****   __HAL_UNLOCK(hhcd);
 813:Drivers/STM32L4xx_HAL_Driver/Src/stm32l4xx_hal_hcd.c ****   return status;
 814:Drivers/STM32L4xx_HAL_Driver/Src/stm32l4xx_hal_hcd.c **** }
 815:Drivers/STM32L4xx_HAL_Driver/Src/stm32l4xx_hal_hcd.c **** 
 816:Drivers/STM32L4xx_HAL_Driver/Src/stm32l4xx_hal_hcd.c **** /**
 817:Drivers/STM32L4xx_HAL_Driver/Src/stm32l4xx_hal_hcd.c ****   * @brief  Unregister an USB HCD Callback
 818:Drivers/STM32L4xx_HAL_Driver/Src/stm32l4xx_hal_hcd.c ****   *         USB HCD callback is redirected to the weak predefined callback
 819:Drivers/STM32L4xx_HAL_Driver/Src/stm32l4xx_hal_hcd.c ****   * @param  hhcd USB HCD handle
 820:Drivers/STM32L4xx_HAL_Driver/Src/stm32l4xx_hal_hcd.c ****   * @param  CallbackID ID of the callback to be unregistered
 821:Drivers/STM32L4xx_HAL_Driver/Src/stm32l4xx_hal_hcd.c ****   *         This parameter can be one of the following values:
 822:Drivers/STM32L4xx_HAL_Driver/Src/stm32l4xx_hal_hcd.c ****   *          @arg @ref HAL_HCD_SOF_CB_ID USB HCD SOF callback ID
 823:Drivers/STM32L4xx_HAL_Driver/Src/stm32l4xx_hal_hcd.c ****   *          @arg @ref HAL_HCD_CONNECT_CB_ID USB HCD Connect callback ID
 824:Drivers/STM32L4xx_HAL_Driver/Src/stm32l4xx_hal_hcd.c ****   *          @arg @ref HAL_HCD_DISCONNECT_CB_ID OTG HCD Disconnect callback ID
 825:Drivers/STM32L4xx_HAL_Driver/Src/stm32l4xx_hal_hcd.c ****   *          @arg @ref HAL_HCD_PORT_ENABLED_CB_ID USB HCD Port Enabled callback ID
 826:Drivers/STM32L4xx_HAL_Driver/Src/stm32l4xx_hal_hcd.c ****   *          @arg @ref HAL_HCD_PORT_DISABLED_CB_ID USB HCD Port Disabled callback ID
 827:Drivers/STM32L4xx_HAL_Driver/Src/stm32l4xx_hal_hcd.c ****   *          @arg @ref HAL_HCD_MSPINIT_CB_ID MspDeInit callback ID
 828:Drivers/STM32L4xx_HAL_Driver/Src/stm32l4xx_hal_hcd.c ****   *          @arg @ref HAL_HCD_MSPDEINIT_CB_ID MspDeInit callback ID
 829:Drivers/STM32L4xx_HAL_Driver/Src/stm32l4xx_hal_hcd.c ****   * @retval HAL status
 830:Drivers/STM32L4xx_HAL_Driver/Src/stm32l4xx_hal_hcd.c ****   */
 831:Drivers/STM32L4xx_HAL_Driver/Src/stm32l4xx_hal_hcd.c **** HAL_StatusTypeDef HAL_HCD_UnRegisterCallback(HCD_HandleTypeDef *hhcd, HAL_HCD_CallbackIDTypeDef Cal
 832:Drivers/STM32L4xx_HAL_Driver/Src/stm32l4xx_hal_hcd.c **** {
 833:Drivers/STM32L4xx_HAL_Driver/Src/stm32l4xx_hal_hcd.c ****   HAL_StatusTypeDef status = HAL_OK;
 834:Drivers/STM32L4xx_HAL_Driver/Src/stm32l4xx_hal_hcd.c **** 
 835:Drivers/STM32L4xx_HAL_Driver/Src/stm32l4xx_hal_hcd.c ****   /* Process locked */
 836:Drivers/STM32L4xx_HAL_Driver/Src/stm32l4xx_hal_hcd.c ****   __HAL_LOCK(hhcd);
 837:Drivers/STM32L4xx_HAL_Driver/Src/stm32l4xx_hal_hcd.c **** 
 838:Drivers/STM32L4xx_HAL_Driver/Src/stm32l4xx_hal_hcd.c ****   /* Setup Legacy weak Callbacks  */
 839:Drivers/STM32L4xx_HAL_Driver/Src/stm32l4xx_hal_hcd.c ****   if (hhcd->State == HAL_HCD_STATE_READY)
 840:Drivers/STM32L4xx_HAL_Driver/Src/stm32l4xx_hal_hcd.c ****   {
 841:Drivers/STM32L4xx_HAL_Driver/Src/stm32l4xx_hal_hcd.c ****     switch (CallbackID)
 842:Drivers/STM32L4xx_HAL_Driver/Src/stm32l4xx_hal_hcd.c ****     {
 843:Drivers/STM32L4xx_HAL_Driver/Src/stm32l4xx_hal_hcd.c ****       case HAL_HCD_SOF_CB_ID :
 844:Drivers/STM32L4xx_HAL_Driver/Src/stm32l4xx_hal_hcd.c ****         hhcd->SOFCallback = HAL_HCD_SOF_Callback;
 845:Drivers/STM32L4xx_HAL_Driver/Src/stm32l4xx_hal_hcd.c ****         break;
 846:Drivers/STM32L4xx_HAL_Driver/Src/stm32l4xx_hal_hcd.c **** 
 847:Drivers/STM32L4xx_HAL_Driver/Src/stm32l4xx_hal_hcd.c ****       case HAL_HCD_CONNECT_CB_ID :
 848:Drivers/STM32L4xx_HAL_Driver/Src/stm32l4xx_hal_hcd.c ****         hhcd->ConnectCallback = HAL_HCD_Connect_Callback;
 849:Drivers/STM32L4xx_HAL_Driver/Src/stm32l4xx_hal_hcd.c ****         break;
 850:Drivers/STM32L4xx_HAL_Driver/Src/stm32l4xx_hal_hcd.c **** 
 851:Drivers/STM32L4xx_HAL_Driver/Src/stm32l4xx_hal_hcd.c ****       case HAL_HCD_DISCONNECT_CB_ID :
 852:Drivers/STM32L4xx_HAL_Driver/Src/stm32l4xx_hal_hcd.c ****         hhcd->DisconnectCallback = HAL_HCD_Disconnect_Callback;
 853:Drivers/STM32L4xx_HAL_Driver/Src/stm32l4xx_hal_hcd.c ****         break;
ARM GAS  /tmp/cchI0N5p.s 			page 43


 854:Drivers/STM32L4xx_HAL_Driver/Src/stm32l4xx_hal_hcd.c **** 
 855:Drivers/STM32L4xx_HAL_Driver/Src/stm32l4xx_hal_hcd.c ****       case HAL_HCD_PORT_ENABLED_CB_ID :
 856:Drivers/STM32L4xx_HAL_Driver/Src/stm32l4xx_hal_hcd.c ****         hhcd->PortEnabledCallback = HAL_HCD_PortEnabled_Callback;
 857:Drivers/STM32L4xx_HAL_Driver/Src/stm32l4xx_hal_hcd.c ****         break;
 858:Drivers/STM32L4xx_HAL_Driver/Src/stm32l4xx_hal_hcd.c **** 
 859:Drivers/STM32L4xx_HAL_Driver/Src/stm32l4xx_hal_hcd.c ****       case HAL_HCD_PORT_DISABLED_CB_ID :
 860:Drivers/STM32L4xx_HAL_Driver/Src/stm32l4xx_hal_hcd.c ****         hhcd->PortDisabledCallback = HAL_HCD_PortDisabled_Callback;
 861:Drivers/STM32L4xx_HAL_Driver/Src/stm32l4xx_hal_hcd.c ****         break;
 862:Drivers/STM32L4xx_HAL_Driver/Src/stm32l4xx_hal_hcd.c **** 
 863:Drivers/STM32L4xx_HAL_Driver/Src/stm32l4xx_hal_hcd.c ****       case HAL_HCD_MSPINIT_CB_ID :
 864:Drivers/STM32L4xx_HAL_Driver/Src/stm32l4xx_hal_hcd.c ****         hhcd->MspInitCallback = HAL_HCD_MspInit;
 865:Drivers/STM32L4xx_HAL_Driver/Src/stm32l4xx_hal_hcd.c ****         break;
 866:Drivers/STM32L4xx_HAL_Driver/Src/stm32l4xx_hal_hcd.c **** 
 867:Drivers/STM32L4xx_HAL_Driver/Src/stm32l4xx_hal_hcd.c ****       case HAL_HCD_MSPDEINIT_CB_ID :
 868:Drivers/STM32L4xx_HAL_Driver/Src/stm32l4xx_hal_hcd.c ****         hhcd->MspDeInitCallback = HAL_HCD_MspDeInit;
 869:Drivers/STM32L4xx_HAL_Driver/Src/stm32l4xx_hal_hcd.c ****         break;
 870:Drivers/STM32L4xx_HAL_Driver/Src/stm32l4xx_hal_hcd.c **** 
 871:Drivers/STM32L4xx_HAL_Driver/Src/stm32l4xx_hal_hcd.c ****       default :
 872:Drivers/STM32L4xx_HAL_Driver/Src/stm32l4xx_hal_hcd.c ****         /* Update the error code */
 873:Drivers/STM32L4xx_HAL_Driver/Src/stm32l4xx_hal_hcd.c ****         hhcd->ErrorCode |= HAL_HCD_ERROR_INVALID_CALLBACK;
 874:Drivers/STM32L4xx_HAL_Driver/Src/stm32l4xx_hal_hcd.c **** 
 875:Drivers/STM32L4xx_HAL_Driver/Src/stm32l4xx_hal_hcd.c ****         /* Return error status */
 876:Drivers/STM32L4xx_HAL_Driver/Src/stm32l4xx_hal_hcd.c ****         status =  HAL_ERROR;
 877:Drivers/STM32L4xx_HAL_Driver/Src/stm32l4xx_hal_hcd.c ****         break;
 878:Drivers/STM32L4xx_HAL_Driver/Src/stm32l4xx_hal_hcd.c ****     }
 879:Drivers/STM32L4xx_HAL_Driver/Src/stm32l4xx_hal_hcd.c ****   }
 880:Drivers/STM32L4xx_HAL_Driver/Src/stm32l4xx_hal_hcd.c ****   else if (hhcd->State == HAL_HCD_STATE_RESET)
 881:Drivers/STM32L4xx_HAL_Driver/Src/stm32l4xx_hal_hcd.c ****   {
 882:Drivers/STM32L4xx_HAL_Driver/Src/stm32l4xx_hal_hcd.c ****     switch (CallbackID)
 883:Drivers/STM32L4xx_HAL_Driver/Src/stm32l4xx_hal_hcd.c ****     {
 884:Drivers/STM32L4xx_HAL_Driver/Src/stm32l4xx_hal_hcd.c ****       case HAL_HCD_MSPINIT_CB_ID :
 885:Drivers/STM32L4xx_HAL_Driver/Src/stm32l4xx_hal_hcd.c ****         hhcd->MspInitCallback = HAL_HCD_MspInit;
 886:Drivers/STM32L4xx_HAL_Driver/Src/stm32l4xx_hal_hcd.c ****         break;
 887:Drivers/STM32L4xx_HAL_Driver/Src/stm32l4xx_hal_hcd.c **** 
 888:Drivers/STM32L4xx_HAL_Driver/Src/stm32l4xx_hal_hcd.c ****       case HAL_HCD_MSPDEINIT_CB_ID :
 889:Drivers/STM32L4xx_HAL_Driver/Src/stm32l4xx_hal_hcd.c ****         hhcd->MspDeInitCallback = HAL_HCD_MspDeInit;
 890:Drivers/STM32L4xx_HAL_Driver/Src/stm32l4xx_hal_hcd.c ****         break;
 891:Drivers/STM32L4xx_HAL_Driver/Src/stm32l4xx_hal_hcd.c **** 
 892:Drivers/STM32L4xx_HAL_Driver/Src/stm32l4xx_hal_hcd.c ****       default :
 893:Drivers/STM32L4xx_HAL_Driver/Src/stm32l4xx_hal_hcd.c ****         /* Update the error code */
 894:Drivers/STM32L4xx_HAL_Driver/Src/stm32l4xx_hal_hcd.c ****         hhcd->ErrorCode |= HAL_HCD_ERROR_INVALID_CALLBACK;
 895:Drivers/STM32L4xx_HAL_Driver/Src/stm32l4xx_hal_hcd.c **** 
 896:Drivers/STM32L4xx_HAL_Driver/Src/stm32l4xx_hal_hcd.c ****         /* Return error status */
 897:Drivers/STM32L4xx_HAL_Driver/Src/stm32l4xx_hal_hcd.c ****         status =  HAL_ERROR;
 898:Drivers/STM32L4xx_HAL_Driver/Src/stm32l4xx_hal_hcd.c ****         break;
 899:Drivers/STM32L4xx_HAL_Driver/Src/stm32l4xx_hal_hcd.c ****     }
 900:Drivers/STM32L4xx_HAL_Driver/Src/stm32l4xx_hal_hcd.c ****   }
 901:Drivers/STM32L4xx_HAL_Driver/Src/stm32l4xx_hal_hcd.c ****   else
 902:Drivers/STM32L4xx_HAL_Driver/Src/stm32l4xx_hal_hcd.c ****   {
 903:Drivers/STM32L4xx_HAL_Driver/Src/stm32l4xx_hal_hcd.c ****     /* Update the error code */
 904:Drivers/STM32L4xx_HAL_Driver/Src/stm32l4xx_hal_hcd.c ****     hhcd->ErrorCode |= HAL_HCD_ERROR_INVALID_CALLBACK;
 905:Drivers/STM32L4xx_HAL_Driver/Src/stm32l4xx_hal_hcd.c **** 
 906:Drivers/STM32L4xx_HAL_Driver/Src/stm32l4xx_hal_hcd.c ****     /* Return error status */
 907:Drivers/STM32L4xx_HAL_Driver/Src/stm32l4xx_hal_hcd.c ****     status =  HAL_ERROR;
 908:Drivers/STM32L4xx_HAL_Driver/Src/stm32l4xx_hal_hcd.c ****   }
 909:Drivers/STM32L4xx_HAL_Driver/Src/stm32l4xx_hal_hcd.c **** 
 910:Drivers/STM32L4xx_HAL_Driver/Src/stm32l4xx_hal_hcd.c ****   /* Release Lock */
ARM GAS  /tmp/cchI0N5p.s 			page 44


 911:Drivers/STM32L4xx_HAL_Driver/Src/stm32l4xx_hal_hcd.c ****   __HAL_UNLOCK(hhcd);
 912:Drivers/STM32L4xx_HAL_Driver/Src/stm32l4xx_hal_hcd.c ****   return status;
 913:Drivers/STM32L4xx_HAL_Driver/Src/stm32l4xx_hal_hcd.c **** }
 914:Drivers/STM32L4xx_HAL_Driver/Src/stm32l4xx_hal_hcd.c **** 
 915:Drivers/STM32L4xx_HAL_Driver/Src/stm32l4xx_hal_hcd.c **** /**
 916:Drivers/STM32L4xx_HAL_Driver/Src/stm32l4xx_hal_hcd.c ****   * @brief  Register USB HCD Host Channel Notify URB Change Callback
 917:Drivers/STM32L4xx_HAL_Driver/Src/stm32l4xx_hal_hcd.c ****   *         To be used instead of the weak HAL_HCD_HC_NotifyURBChange_Callback() predefined callbac
 918:Drivers/STM32L4xx_HAL_Driver/Src/stm32l4xx_hal_hcd.c ****   * @param  hhcd HCD handle
 919:Drivers/STM32L4xx_HAL_Driver/Src/stm32l4xx_hal_hcd.c ****   * @param  pCallback pointer to the USB HCD Host Channel Notify URB Change Callback function
 920:Drivers/STM32L4xx_HAL_Driver/Src/stm32l4xx_hal_hcd.c ****   * @retval HAL status
 921:Drivers/STM32L4xx_HAL_Driver/Src/stm32l4xx_hal_hcd.c ****   */
 922:Drivers/STM32L4xx_HAL_Driver/Src/stm32l4xx_hal_hcd.c **** HAL_StatusTypeDef HAL_HCD_RegisterHC_NotifyURBChangeCallback(HCD_HandleTypeDef *hhcd,
 923:Drivers/STM32L4xx_HAL_Driver/Src/stm32l4xx_hal_hcd.c ****                                                              pHCD_HC_NotifyURBChangeCallbackTypeDef
 924:Drivers/STM32L4xx_HAL_Driver/Src/stm32l4xx_hal_hcd.c **** {
 925:Drivers/STM32L4xx_HAL_Driver/Src/stm32l4xx_hal_hcd.c ****   HAL_StatusTypeDef status = HAL_OK;
 926:Drivers/STM32L4xx_HAL_Driver/Src/stm32l4xx_hal_hcd.c **** 
 927:Drivers/STM32L4xx_HAL_Driver/Src/stm32l4xx_hal_hcd.c ****   if (pCallback == NULL)
 928:Drivers/STM32L4xx_HAL_Driver/Src/stm32l4xx_hal_hcd.c ****   {
 929:Drivers/STM32L4xx_HAL_Driver/Src/stm32l4xx_hal_hcd.c ****     /* Update the error code */
 930:Drivers/STM32L4xx_HAL_Driver/Src/stm32l4xx_hal_hcd.c ****     hhcd->ErrorCode |= HAL_HCD_ERROR_INVALID_CALLBACK;
 931:Drivers/STM32L4xx_HAL_Driver/Src/stm32l4xx_hal_hcd.c **** 
 932:Drivers/STM32L4xx_HAL_Driver/Src/stm32l4xx_hal_hcd.c ****     return HAL_ERROR;
 933:Drivers/STM32L4xx_HAL_Driver/Src/stm32l4xx_hal_hcd.c ****   }
 934:Drivers/STM32L4xx_HAL_Driver/Src/stm32l4xx_hal_hcd.c **** 
 935:Drivers/STM32L4xx_HAL_Driver/Src/stm32l4xx_hal_hcd.c ****   /* Process locked */
 936:Drivers/STM32L4xx_HAL_Driver/Src/stm32l4xx_hal_hcd.c ****   __HAL_LOCK(hhcd);
 937:Drivers/STM32L4xx_HAL_Driver/Src/stm32l4xx_hal_hcd.c **** 
 938:Drivers/STM32L4xx_HAL_Driver/Src/stm32l4xx_hal_hcd.c ****   if (hhcd->State == HAL_HCD_STATE_READY)
 939:Drivers/STM32L4xx_HAL_Driver/Src/stm32l4xx_hal_hcd.c ****   {
 940:Drivers/STM32L4xx_HAL_Driver/Src/stm32l4xx_hal_hcd.c ****     hhcd->HC_NotifyURBChangeCallback = pCallback;
 941:Drivers/STM32L4xx_HAL_Driver/Src/stm32l4xx_hal_hcd.c ****   }
 942:Drivers/STM32L4xx_HAL_Driver/Src/stm32l4xx_hal_hcd.c ****   else
 943:Drivers/STM32L4xx_HAL_Driver/Src/stm32l4xx_hal_hcd.c ****   {
 944:Drivers/STM32L4xx_HAL_Driver/Src/stm32l4xx_hal_hcd.c ****     /* Update the error code */
 945:Drivers/STM32L4xx_HAL_Driver/Src/stm32l4xx_hal_hcd.c ****     hhcd->ErrorCode |= HAL_HCD_ERROR_INVALID_CALLBACK;
 946:Drivers/STM32L4xx_HAL_Driver/Src/stm32l4xx_hal_hcd.c **** 
 947:Drivers/STM32L4xx_HAL_Driver/Src/stm32l4xx_hal_hcd.c ****     /* Return error status */
 948:Drivers/STM32L4xx_HAL_Driver/Src/stm32l4xx_hal_hcd.c ****     status =  HAL_ERROR;
 949:Drivers/STM32L4xx_HAL_Driver/Src/stm32l4xx_hal_hcd.c ****   }
 950:Drivers/STM32L4xx_HAL_Driver/Src/stm32l4xx_hal_hcd.c **** 
 951:Drivers/STM32L4xx_HAL_Driver/Src/stm32l4xx_hal_hcd.c ****   /* Release Lock */
 952:Drivers/STM32L4xx_HAL_Driver/Src/stm32l4xx_hal_hcd.c ****   __HAL_UNLOCK(hhcd);
 953:Drivers/STM32L4xx_HAL_Driver/Src/stm32l4xx_hal_hcd.c **** 
 954:Drivers/STM32L4xx_HAL_Driver/Src/stm32l4xx_hal_hcd.c ****   return status;
 955:Drivers/STM32L4xx_HAL_Driver/Src/stm32l4xx_hal_hcd.c **** }
 956:Drivers/STM32L4xx_HAL_Driver/Src/stm32l4xx_hal_hcd.c **** 
 957:Drivers/STM32L4xx_HAL_Driver/Src/stm32l4xx_hal_hcd.c **** /**
 958:Drivers/STM32L4xx_HAL_Driver/Src/stm32l4xx_hal_hcd.c ****   * @brief  Unregister the USB HCD Host Channel Notify URB Change Callback
 959:Drivers/STM32L4xx_HAL_Driver/Src/stm32l4xx_hal_hcd.c ****   *         USB HCD Host Channel Notify URB Change Callback is redirected
 960:Drivers/STM32L4xx_HAL_Driver/Src/stm32l4xx_hal_hcd.c ****   *         to the weak HAL_HCD_HC_NotifyURBChange_Callback() predefined callback
 961:Drivers/STM32L4xx_HAL_Driver/Src/stm32l4xx_hal_hcd.c ****   * @param  hhcd HCD handle
 962:Drivers/STM32L4xx_HAL_Driver/Src/stm32l4xx_hal_hcd.c ****   * @retval HAL status
 963:Drivers/STM32L4xx_HAL_Driver/Src/stm32l4xx_hal_hcd.c ****   */
 964:Drivers/STM32L4xx_HAL_Driver/Src/stm32l4xx_hal_hcd.c **** HAL_StatusTypeDef HAL_HCD_UnRegisterHC_NotifyURBChangeCallback(HCD_HandleTypeDef *hhcd)
 965:Drivers/STM32L4xx_HAL_Driver/Src/stm32l4xx_hal_hcd.c **** {
 966:Drivers/STM32L4xx_HAL_Driver/Src/stm32l4xx_hal_hcd.c ****   HAL_StatusTypeDef status = HAL_OK;
 967:Drivers/STM32L4xx_HAL_Driver/Src/stm32l4xx_hal_hcd.c **** 
ARM GAS  /tmp/cchI0N5p.s 			page 45


 968:Drivers/STM32L4xx_HAL_Driver/Src/stm32l4xx_hal_hcd.c ****   /* Process locked */
 969:Drivers/STM32L4xx_HAL_Driver/Src/stm32l4xx_hal_hcd.c ****   __HAL_LOCK(hhcd);
 970:Drivers/STM32L4xx_HAL_Driver/Src/stm32l4xx_hal_hcd.c **** 
 971:Drivers/STM32L4xx_HAL_Driver/Src/stm32l4xx_hal_hcd.c ****   if (hhcd->State == HAL_HCD_STATE_READY)
 972:Drivers/STM32L4xx_HAL_Driver/Src/stm32l4xx_hal_hcd.c ****   {
 973:Drivers/STM32L4xx_HAL_Driver/Src/stm32l4xx_hal_hcd.c ****     hhcd->HC_NotifyURBChangeCallback = HAL_HCD_HC_NotifyURBChange_Callback; /* Legacy weak DataOutS
 974:Drivers/STM32L4xx_HAL_Driver/Src/stm32l4xx_hal_hcd.c ****   }
 975:Drivers/STM32L4xx_HAL_Driver/Src/stm32l4xx_hal_hcd.c ****   else
 976:Drivers/STM32L4xx_HAL_Driver/Src/stm32l4xx_hal_hcd.c ****   {
 977:Drivers/STM32L4xx_HAL_Driver/Src/stm32l4xx_hal_hcd.c ****     /* Update the error code */
 978:Drivers/STM32L4xx_HAL_Driver/Src/stm32l4xx_hal_hcd.c ****     hhcd->ErrorCode |= HAL_HCD_ERROR_INVALID_CALLBACK;
 979:Drivers/STM32L4xx_HAL_Driver/Src/stm32l4xx_hal_hcd.c **** 
 980:Drivers/STM32L4xx_HAL_Driver/Src/stm32l4xx_hal_hcd.c ****     /* Return error status */
 981:Drivers/STM32L4xx_HAL_Driver/Src/stm32l4xx_hal_hcd.c ****     status =  HAL_ERROR;
 982:Drivers/STM32L4xx_HAL_Driver/Src/stm32l4xx_hal_hcd.c ****   }
 983:Drivers/STM32L4xx_HAL_Driver/Src/stm32l4xx_hal_hcd.c **** 
 984:Drivers/STM32L4xx_HAL_Driver/Src/stm32l4xx_hal_hcd.c ****   /* Release Lock */
 985:Drivers/STM32L4xx_HAL_Driver/Src/stm32l4xx_hal_hcd.c ****   __HAL_UNLOCK(hhcd);
 986:Drivers/STM32L4xx_HAL_Driver/Src/stm32l4xx_hal_hcd.c **** 
 987:Drivers/STM32L4xx_HAL_Driver/Src/stm32l4xx_hal_hcd.c ****   return status;
 988:Drivers/STM32L4xx_HAL_Driver/Src/stm32l4xx_hal_hcd.c **** }
 989:Drivers/STM32L4xx_HAL_Driver/Src/stm32l4xx_hal_hcd.c **** #endif /* USE_HAL_HCD_REGISTER_CALLBACKS */
 990:Drivers/STM32L4xx_HAL_Driver/Src/stm32l4xx_hal_hcd.c **** 
 991:Drivers/STM32L4xx_HAL_Driver/Src/stm32l4xx_hal_hcd.c **** /**
 992:Drivers/STM32L4xx_HAL_Driver/Src/stm32l4xx_hal_hcd.c ****   * @}
 993:Drivers/STM32L4xx_HAL_Driver/Src/stm32l4xx_hal_hcd.c ****   */
 994:Drivers/STM32L4xx_HAL_Driver/Src/stm32l4xx_hal_hcd.c **** 
 995:Drivers/STM32L4xx_HAL_Driver/Src/stm32l4xx_hal_hcd.c **** /** @defgroup HCD_Exported_Functions_Group3 Peripheral Control functions
 996:Drivers/STM32L4xx_HAL_Driver/Src/stm32l4xx_hal_hcd.c ****   *  @brief   Management functions
 997:Drivers/STM32L4xx_HAL_Driver/Src/stm32l4xx_hal_hcd.c ****   *
 998:Drivers/STM32L4xx_HAL_Driver/Src/stm32l4xx_hal_hcd.c **** @verbatim
 999:Drivers/STM32L4xx_HAL_Driver/Src/stm32l4xx_hal_hcd.c ****  ===============================================================================
1000:Drivers/STM32L4xx_HAL_Driver/Src/stm32l4xx_hal_hcd.c ****                       ##### Peripheral Control functions #####
1001:Drivers/STM32L4xx_HAL_Driver/Src/stm32l4xx_hal_hcd.c ****  ===============================================================================
1002:Drivers/STM32L4xx_HAL_Driver/Src/stm32l4xx_hal_hcd.c ****     [..]
1003:Drivers/STM32L4xx_HAL_Driver/Src/stm32l4xx_hal_hcd.c ****     This subsection provides a set of functions allowing to control the HCD data
1004:Drivers/STM32L4xx_HAL_Driver/Src/stm32l4xx_hal_hcd.c ****     transfers.
1005:Drivers/STM32L4xx_HAL_Driver/Src/stm32l4xx_hal_hcd.c **** 
1006:Drivers/STM32L4xx_HAL_Driver/Src/stm32l4xx_hal_hcd.c **** @endverbatim
1007:Drivers/STM32L4xx_HAL_Driver/Src/stm32l4xx_hal_hcd.c ****   * @{
1008:Drivers/STM32L4xx_HAL_Driver/Src/stm32l4xx_hal_hcd.c ****   */
1009:Drivers/STM32L4xx_HAL_Driver/Src/stm32l4xx_hal_hcd.c **** 
1010:Drivers/STM32L4xx_HAL_Driver/Src/stm32l4xx_hal_hcd.c **** /**
1011:Drivers/STM32L4xx_HAL_Driver/Src/stm32l4xx_hal_hcd.c ****   * @brief  Start the host driver.
1012:Drivers/STM32L4xx_HAL_Driver/Src/stm32l4xx_hal_hcd.c ****   * @param  hhcd HCD handle
1013:Drivers/STM32L4xx_HAL_Driver/Src/stm32l4xx_hal_hcd.c ****   * @retval HAL status
1014:Drivers/STM32L4xx_HAL_Driver/Src/stm32l4xx_hal_hcd.c ****   */
1015:Drivers/STM32L4xx_HAL_Driver/Src/stm32l4xx_hal_hcd.c **** HAL_StatusTypeDef HAL_HCD_Start(HCD_HandleTypeDef *hhcd)
1016:Drivers/STM32L4xx_HAL_Driver/Src/stm32l4xx_hal_hcd.c **** {
 1549              		.loc 1 1016 1
 1550              		.cfi_startproc
 1551              		@ args = 0, pretend = 0, frame = 8
 1552              		@ frame_needed = 1, uses_anonymous_args = 0
 1553 0000 80B5     		push	{r7, lr}
 1554              		.cfi_def_cfa_offset 8
 1555              		.cfi_offset 7, -8
 1556              		.cfi_offset 14, -4
ARM GAS  /tmp/cchI0N5p.s 			page 46


 1557 0002 82B0     		sub	sp, sp, #8
 1558              		.cfi_def_cfa_offset 16
 1559 0004 00AF     		add	r7, sp, #0
 1560              		.cfi_def_cfa_register 7
 1561 0006 7860     		str	r0, [r7, #4]
1017:Drivers/STM32L4xx_HAL_Driver/Src/stm32l4xx_hal_hcd.c ****   __HAL_LOCK(hhcd);
 1562              		.loc 1 1017 3
 1563 0008 7B68     		ldr	r3, [r7, #4]
 1564 000a 93F85433 		ldrb	r3, [r3, #852]	@ zero_extendqisi2
 1565 000e 012B     		cmp	r3, #1
 1566 0010 01D1     		bne	.L71
 1567              		.loc 1 1017 3 is_stmt 0 discriminator 1
 1568 0012 0223     		movs	r3, #2
 1569              		.loc 1 1017 3
 1570 0014 13E0     		b	.L72
 1571              	.L71:
 1572              		.loc 1 1017 3 discriminator 2
 1573 0016 7B68     		ldr	r3, [r7, #4]
 1574 0018 0122     		movs	r2, #1
 1575 001a 83F85423 		strb	r2, [r3, #852]
1018:Drivers/STM32L4xx_HAL_Driver/Src/stm32l4xx_hal_hcd.c ****   /* Enable port power */
1019:Drivers/STM32L4xx_HAL_Driver/Src/stm32l4xx_hal_hcd.c ****   (void)USB_DriveVbus(hhcd->Instance, 1U);
 1576              		.loc 1 1019 27 is_stmt 1
 1577 001e 7B68     		ldr	r3, [r7, #4]
 1578 0020 1B68     		ldr	r3, [r3]
 1579              		.loc 1 1019 9
 1580 0022 0121     		movs	r1, #1
 1581 0024 1846     		mov	r0, r3
 1582 0026 FFF7FEFF 		bl	USB_DriveVbus
1020:Drivers/STM32L4xx_HAL_Driver/Src/stm32l4xx_hal_hcd.c **** 
1021:Drivers/STM32L4xx_HAL_Driver/Src/stm32l4xx_hal_hcd.c ****   /* Enable global interrupt */
1022:Drivers/STM32L4xx_HAL_Driver/Src/stm32l4xx_hal_hcd.c ****   __HAL_HCD_ENABLE(hhcd);
 1583              		.loc 1 1022 3
 1584 002a 7B68     		ldr	r3, [r7, #4]
 1585 002c 1B68     		ldr	r3, [r3]
 1586 002e 1846     		mov	r0, r3
 1587 0030 FFF7FEFF 		bl	USB_EnableGlobalInt
1023:Drivers/STM32L4xx_HAL_Driver/Src/stm32l4xx_hal_hcd.c ****   __HAL_UNLOCK(hhcd);
 1588              		.loc 1 1023 3
 1589 0034 7B68     		ldr	r3, [r7, #4]
 1590 0036 0022     		movs	r2, #0
 1591 0038 83F85423 		strb	r2, [r3, #852]
1024:Drivers/STM32L4xx_HAL_Driver/Src/stm32l4xx_hal_hcd.c **** 
1025:Drivers/STM32L4xx_HAL_Driver/Src/stm32l4xx_hal_hcd.c ****   return HAL_OK;
 1592              		.loc 1 1025 10
 1593 003c 0023     		movs	r3, #0
 1594              	.L72:
1026:Drivers/STM32L4xx_HAL_Driver/Src/stm32l4xx_hal_hcd.c **** }
 1595              		.loc 1 1026 1
 1596 003e 1846     		mov	r0, r3
 1597 0040 0837     		adds	r7, r7, #8
 1598              		.cfi_def_cfa_offset 8
 1599 0042 BD46     		mov	sp, r7
 1600              		.cfi_def_cfa_register 13
 1601              		@ sp needed
 1602 0044 80BD     		pop	{r7, pc}
 1603              		.cfi_endproc
ARM GAS  /tmp/cchI0N5p.s 			page 47


 1604              	.LFE459:
 1606              		.section	.text.HAL_HCD_Stop,"ax",%progbits
 1607              		.align	1
 1608              		.global	HAL_HCD_Stop
 1609              		.syntax unified
 1610              		.thumb
 1611              		.thumb_func
 1613              	HAL_HCD_Stop:
 1614              	.LFB460:
1027:Drivers/STM32L4xx_HAL_Driver/Src/stm32l4xx_hal_hcd.c **** 
1028:Drivers/STM32L4xx_HAL_Driver/Src/stm32l4xx_hal_hcd.c **** /**
1029:Drivers/STM32L4xx_HAL_Driver/Src/stm32l4xx_hal_hcd.c ****   * @brief  Stop the host driver.
1030:Drivers/STM32L4xx_HAL_Driver/Src/stm32l4xx_hal_hcd.c ****   * @param  hhcd HCD handle
1031:Drivers/STM32L4xx_HAL_Driver/Src/stm32l4xx_hal_hcd.c ****   * @retval HAL status
1032:Drivers/STM32L4xx_HAL_Driver/Src/stm32l4xx_hal_hcd.c ****   */
1033:Drivers/STM32L4xx_HAL_Driver/Src/stm32l4xx_hal_hcd.c **** 
1034:Drivers/STM32L4xx_HAL_Driver/Src/stm32l4xx_hal_hcd.c **** HAL_StatusTypeDef HAL_HCD_Stop(HCD_HandleTypeDef *hhcd)
1035:Drivers/STM32L4xx_HAL_Driver/Src/stm32l4xx_hal_hcd.c **** {
 1615              		.loc 1 1035 1
 1616              		.cfi_startproc
 1617              		@ args = 0, pretend = 0, frame = 8
 1618              		@ frame_needed = 1, uses_anonymous_args = 0
 1619 0000 80B5     		push	{r7, lr}
 1620              		.cfi_def_cfa_offset 8
 1621              		.cfi_offset 7, -8
 1622              		.cfi_offset 14, -4
 1623 0002 82B0     		sub	sp, sp, #8
 1624              		.cfi_def_cfa_offset 16
 1625 0004 00AF     		add	r7, sp, #0
 1626              		.cfi_def_cfa_register 7
 1627 0006 7860     		str	r0, [r7, #4]
1036:Drivers/STM32L4xx_HAL_Driver/Src/stm32l4xx_hal_hcd.c ****   __HAL_LOCK(hhcd);
 1628              		.loc 1 1036 3
 1629 0008 7B68     		ldr	r3, [r7, #4]
 1630 000a 93F85433 		ldrb	r3, [r3, #852]	@ zero_extendqisi2
 1631 000e 012B     		cmp	r3, #1
 1632 0010 01D1     		bne	.L74
 1633              		.loc 1 1036 3 is_stmt 0 discriminator 1
 1634 0012 0223     		movs	r3, #2
 1635              		.loc 1 1036 3
 1636 0014 0DE0     		b	.L75
 1637              	.L74:
 1638              		.loc 1 1036 3 discriminator 2
 1639 0016 7B68     		ldr	r3, [r7, #4]
 1640 0018 0122     		movs	r2, #1
 1641 001a 83F85423 		strb	r2, [r3, #852]
1037:Drivers/STM32L4xx_HAL_Driver/Src/stm32l4xx_hal_hcd.c ****   (void)USB_StopHost(hhcd->Instance);
 1642              		.loc 1 1037 26 is_stmt 1
 1643 001e 7B68     		ldr	r3, [r7, #4]
 1644 0020 1B68     		ldr	r3, [r3]
 1645              		.loc 1 1037 9
 1646 0022 1846     		mov	r0, r3
 1647 0024 FFF7FEFF 		bl	USB_StopHost
1038:Drivers/STM32L4xx_HAL_Driver/Src/stm32l4xx_hal_hcd.c ****   __HAL_UNLOCK(hhcd);
 1648              		.loc 1 1038 3
 1649 0028 7B68     		ldr	r3, [r7, #4]
 1650 002a 0022     		movs	r2, #0
ARM GAS  /tmp/cchI0N5p.s 			page 48


 1651 002c 83F85423 		strb	r2, [r3, #852]
1039:Drivers/STM32L4xx_HAL_Driver/Src/stm32l4xx_hal_hcd.c **** 
1040:Drivers/STM32L4xx_HAL_Driver/Src/stm32l4xx_hal_hcd.c ****   return HAL_OK;
 1652              		.loc 1 1040 10
 1653 0030 0023     		movs	r3, #0
 1654              	.L75:
1041:Drivers/STM32L4xx_HAL_Driver/Src/stm32l4xx_hal_hcd.c **** }
 1655              		.loc 1 1041 1
 1656 0032 1846     		mov	r0, r3
 1657 0034 0837     		adds	r7, r7, #8
 1658              		.cfi_def_cfa_offset 8
 1659 0036 BD46     		mov	sp, r7
 1660              		.cfi_def_cfa_register 13
 1661              		@ sp needed
 1662 0038 80BD     		pop	{r7, pc}
 1663              		.cfi_endproc
 1664              	.LFE460:
 1666              		.section	.text.HAL_HCD_ResetPort,"ax",%progbits
 1667              		.align	1
 1668              		.global	HAL_HCD_ResetPort
 1669              		.syntax unified
 1670              		.thumb
 1671              		.thumb_func
 1673              	HAL_HCD_ResetPort:
 1674              	.LFB461:
1042:Drivers/STM32L4xx_HAL_Driver/Src/stm32l4xx_hal_hcd.c **** 
1043:Drivers/STM32L4xx_HAL_Driver/Src/stm32l4xx_hal_hcd.c **** /**
1044:Drivers/STM32L4xx_HAL_Driver/Src/stm32l4xx_hal_hcd.c ****   * @brief  Reset the host port.
1045:Drivers/STM32L4xx_HAL_Driver/Src/stm32l4xx_hal_hcd.c ****   * @param  hhcd HCD handle
1046:Drivers/STM32L4xx_HAL_Driver/Src/stm32l4xx_hal_hcd.c ****   * @retval HAL status
1047:Drivers/STM32L4xx_HAL_Driver/Src/stm32l4xx_hal_hcd.c ****   */
1048:Drivers/STM32L4xx_HAL_Driver/Src/stm32l4xx_hal_hcd.c **** HAL_StatusTypeDef HAL_HCD_ResetPort(HCD_HandleTypeDef *hhcd)
1049:Drivers/STM32L4xx_HAL_Driver/Src/stm32l4xx_hal_hcd.c **** {
 1675              		.loc 1 1049 1
 1676              		.cfi_startproc
 1677              		@ args = 0, pretend = 0, frame = 8
 1678              		@ frame_needed = 1, uses_anonymous_args = 0
 1679 0000 80B5     		push	{r7, lr}
 1680              		.cfi_def_cfa_offset 8
 1681              		.cfi_offset 7, -8
 1682              		.cfi_offset 14, -4
 1683 0002 82B0     		sub	sp, sp, #8
 1684              		.cfi_def_cfa_offset 16
 1685 0004 00AF     		add	r7, sp, #0
 1686              		.cfi_def_cfa_register 7
 1687 0006 7860     		str	r0, [r7, #4]
1050:Drivers/STM32L4xx_HAL_Driver/Src/stm32l4xx_hal_hcd.c ****   return (USB_ResetPort(hhcd->Instance));
 1688              		.loc 1 1050 29
 1689 0008 7B68     		ldr	r3, [r7, #4]
 1690 000a 1B68     		ldr	r3, [r3]
 1691              		.loc 1 1050 11
 1692 000c 1846     		mov	r0, r3
 1693 000e FFF7FEFF 		bl	USB_ResetPort
 1694 0012 0346     		mov	r3, r0
1051:Drivers/STM32L4xx_HAL_Driver/Src/stm32l4xx_hal_hcd.c **** }
 1695              		.loc 1 1051 1
 1696 0014 1846     		mov	r0, r3
ARM GAS  /tmp/cchI0N5p.s 			page 49


 1697 0016 0837     		adds	r7, r7, #8
 1698              		.cfi_def_cfa_offset 8
 1699 0018 BD46     		mov	sp, r7
 1700              		.cfi_def_cfa_register 13
 1701              		@ sp needed
 1702 001a 80BD     		pop	{r7, pc}
 1703              		.cfi_endproc
 1704              	.LFE461:
 1706              		.section	.text.HAL_HCD_GetState,"ax",%progbits
 1707              		.align	1
 1708              		.global	HAL_HCD_GetState
 1709              		.syntax unified
 1710              		.thumb
 1711              		.thumb_func
 1713              	HAL_HCD_GetState:
 1714              	.LFB462:
1052:Drivers/STM32L4xx_HAL_Driver/Src/stm32l4xx_hal_hcd.c **** 
1053:Drivers/STM32L4xx_HAL_Driver/Src/stm32l4xx_hal_hcd.c **** /**
1054:Drivers/STM32L4xx_HAL_Driver/Src/stm32l4xx_hal_hcd.c ****   * @}
1055:Drivers/STM32L4xx_HAL_Driver/Src/stm32l4xx_hal_hcd.c ****   */
1056:Drivers/STM32L4xx_HAL_Driver/Src/stm32l4xx_hal_hcd.c **** 
1057:Drivers/STM32L4xx_HAL_Driver/Src/stm32l4xx_hal_hcd.c **** /** @defgroup HCD_Exported_Functions_Group4 Peripheral State functions
1058:Drivers/STM32L4xx_HAL_Driver/Src/stm32l4xx_hal_hcd.c ****   *  @brief   Peripheral State functions
1059:Drivers/STM32L4xx_HAL_Driver/Src/stm32l4xx_hal_hcd.c ****   *
1060:Drivers/STM32L4xx_HAL_Driver/Src/stm32l4xx_hal_hcd.c **** @verbatim
1061:Drivers/STM32L4xx_HAL_Driver/Src/stm32l4xx_hal_hcd.c ****  ===============================================================================
1062:Drivers/STM32L4xx_HAL_Driver/Src/stm32l4xx_hal_hcd.c ****                       ##### Peripheral State functions #####
1063:Drivers/STM32L4xx_HAL_Driver/Src/stm32l4xx_hal_hcd.c ****  ===============================================================================
1064:Drivers/STM32L4xx_HAL_Driver/Src/stm32l4xx_hal_hcd.c ****     [..]
1065:Drivers/STM32L4xx_HAL_Driver/Src/stm32l4xx_hal_hcd.c ****     This subsection permits to get in run-time the status of the peripheral
1066:Drivers/STM32L4xx_HAL_Driver/Src/stm32l4xx_hal_hcd.c ****     and the data flow.
1067:Drivers/STM32L4xx_HAL_Driver/Src/stm32l4xx_hal_hcd.c **** 
1068:Drivers/STM32L4xx_HAL_Driver/Src/stm32l4xx_hal_hcd.c **** @endverbatim
1069:Drivers/STM32L4xx_HAL_Driver/Src/stm32l4xx_hal_hcd.c ****   * @{
1070:Drivers/STM32L4xx_HAL_Driver/Src/stm32l4xx_hal_hcd.c ****   */
1071:Drivers/STM32L4xx_HAL_Driver/Src/stm32l4xx_hal_hcd.c **** 
1072:Drivers/STM32L4xx_HAL_Driver/Src/stm32l4xx_hal_hcd.c **** /**
1073:Drivers/STM32L4xx_HAL_Driver/Src/stm32l4xx_hal_hcd.c ****   * @brief  Return the HCD handle state.
1074:Drivers/STM32L4xx_HAL_Driver/Src/stm32l4xx_hal_hcd.c ****   * @param  hhcd HCD handle
1075:Drivers/STM32L4xx_HAL_Driver/Src/stm32l4xx_hal_hcd.c ****   * @retval HAL state
1076:Drivers/STM32L4xx_HAL_Driver/Src/stm32l4xx_hal_hcd.c ****   */
1077:Drivers/STM32L4xx_HAL_Driver/Src/stm32l4xx_hal_hcd.c **** HCD_StateTypeDef HAL_HCD_GetState(HCD_HandleTypeDef const *hhcd)
1078:Drivers/STM32L4xx_HAL_Driver/Src/stm32l4xx_hal_hcd.c **** {
 1715              		.loc 1 1078 1
 1716              		.cfi_startproc
 1717              		@ args = 0, pretend = 0, frame = 8
 1718              		@ frame_needed = 1, uses_anonymous_args = 0
 1719              		@ link register save eliminated.
 1720 0000 80B4     		push	{r7}
 1721              		.cfi_def_cfa_offset 4
 1722              		.cfi_offset 7, -4
 1723 0002 83B0     		sub	sp, sp, #12
 1724              		.cfi_def_cfa_offset 16
 1725 0004 00AF     		add	r7, sp, #0
 1726              		.cfi_def_cfa_register 7
 1727 0006 7860     		str	r0, [r7, #4]
1079:Drivers/STM32L4xx_HAL_Driver/Src/stm32l4xx_hal_hcd.c ****   return hhcd->State;
ARM GAS  /tmp/cchI0N5p.s 			page 50


 1728              		.loc 1 1079 14
 1729 0008 7B68     		ldr	r3, [r7, #4]
 1730 000a 93F85533 		ldrb	r3, [r3, #853]
 1731 000e DBB2     		uxtb	r3, r3
1080:Drivers/STM32L4xx_HAL_Driver/Src/stm32l4xx_hal_hcd.c **** }
 1732              		.loc 1 1080 1
 1733 0010 1846     		mov	r0, r3
 1734 0012 0C37     		adds	r7, r7, #12
 1735              		.cfi_def_cfa_offset 4
 1736 0014 BD46     		mov	sp, r7
 1737              		.cfi_def_cfa_register 13
 1738              		@ sp needed
 1739 0016 5DF8047B 		ldr	r7, [sp], #4
 1740              		.cfi_restore 7
 1741              		.cfi_def_cfa_offset 0
 1742 001a 7047     		bx	lr
 1743              		.cfi_endproc
 1744              	.LFE462:
 1746              		.section	.text.HAL_HCD_HC_GetURBState,"ax",%progbits
 1747              		.align	1
 1748              		.global	HAL_HCD_HC_GetURBState
 1749              		.syntax unified
 1750              		.thumb
 1751              		.thumb_func
 1753              	HAL_HCD_HC_GetURBState:
 1754              	.LFB463:
1081:Drivers/STM32L4xx_HAL_Driver/Src/stm32l4xx_hal_hcd.c **** 
1082:Drivers/STM32L4xx_HAL_Driver/Src/stm32l4xx_hal_hcd.c **** /**
1083:Drivers/STM32L4xx_HAL_Driver/Src/stm32l4xx_hal_hcd.c ****   * @brief  Return  URB state for a channel.
1084:Drivers/STM32L4xx_HAL_Driver/Src/stm32l4xx_hal_hcd.c ****   * @param  hhcd HCD handle
1085:Drivers/STM32L4xx_HAL_Driver/Src/stm32l4xx_hal_hcd.c ****   * @param  chnum Channel number.
1086:Drivers/STM32L4xx_HAL_Driver/Src/stm32l4xx_hal_hcd.c ****   *         This parameter can be a value from 1 to 15
1087:Drivers/STM32L4xx_HAL_Driver/Src/stm32l4xx_hal_hcd.c ****   * @retval URB state.
1088:Drivers/STM32L4xx_HAL_Driver/Src/stm32l4xx_hal_hcd.c ****   *          This parameter can be one of these values:
1089:Drivers/STM32L4xx_HAL_Driver/Src/stm32l4xx_hal_hcd.c ****   *            URB_IDLE/
1090:Drivers/STM32L4xx_HAL_Driver/Src/stm32l4xx_hal_hcd.c ****   *            URB_DONE/
1091:Drivers/STM32L4xx_HAL_Driver/Src/stm32l4xx_hal_hcd.c ****   *            URB_NOTREADY/
1092:Drivers/STM32L4xx_HAL_Driver/Src/stm32l4xx_hal_hcd.c ****   *            URB_NYET/
1093:Drivers/STM32L4xx_HAL_Driver/Src/stm32l4xx_hal_hcd.c ****   *            URB_ERROR/
1094:Drivers/STM32L4xx_HAL_Driver/Src/stm32l4xx_hal_hcd.c ****   *            URB_STALL
1095:Drivers/STM32L4xx_HAL_Driver/Src/stm32l4xx_hal_hcd.c ****   */
1096:Drivers/STM32L4xx_HAL_Driver/Src/stm32l4xx_hal_hcd.c **** HCD_URBStateTypeDef HAL_HCD_HC_GetURBState(HCD_HandleTypeDef const *hhcd, uint8_t chnum)
1097:Drivers/STM32L4xx_HAL_Driver/Src/stm32l4xx_hal_hcd.c **** {
 1755              		.loc 1 1097 1
 1756              		.cfi_startproc
 1757              		@ args = 0, pretend = 0, frame = 8
 1758              		@ frame_needed = 1, uses_anonymous_args = 0
 1759              		@ link register save eliminated.
 1760 0000 80B4     		push	{r7}
 1761              		.cfi_def_cfa_offset 4
 1762              		.cfi_offset 7, -4
 1763 0002 83B0     		sub	sp, sp, #12
 1764              		.cfi_def_cfa_offset 16
 1765 0004 00AF     		add	r7, sp, #0
 1766              		.cfi_def_cfa_register 7
 1767 0006 7860     		str	r0, [r7, #4]
 1768 0008 0B46     		mov	r3, r1
ARM GAS  /tmp/cchI0N5p.s 			page 51


 1769 000a FB70     		strb	r3, [r7, #3]
1098:Drivers/STM32L4xx_HAL_Driver/Src/stm32l4xx_hal_hcd.c ****   return hhcd->hc[chnum].urb_state;
 1770              		.loc 1 1098 25
 1771 000c FB78     		ldrb	r3, [r7, #3]	@ zero_extendqisi2
 1772 000e 7A68     		ldr	r2, [r7, #4]
 1773 0010 3421     		movs	r1, #52
 1774 0012 01FB03F3 		mul	r3, r1, r3
 1775 0016 1344     		add	r3, r3, r2
 1776 0018 4433     		adds	r3, r3, #68
 1777 001a 1B78     		ldrb	r3, [r3]	@ zero_extendqisi2
1099:Drivers/STM32L4xx_HAL_Driver/Src/stm32l4xx_hal_hcd.c **** }
 1778              		.loc 1 1099 1
 1779 001c 1846     		mov	r0, r3
 1780 001e 0C37     		adds	r7, r7, #12
 1781              		.cfi_def_cfa_offset 4
 1782 0020 BD46     		mov	sp, r7
 1783              		.cfi_def_cfa_register 13
 1784              		@ sp needed
 1785 0022 5DF8047B 		ldr	r7, [sp], #4
 1786              		.cfi_restore 7
 1787              		.cfi_def_cfa_offset 0
 1788 0026 7047     		bx	lr
 1789              		.cfi_endproc
 1790              	.LFE463:
 1792              		.section	.text.HAL_HCD_HC_GetXferCount,"ax",%progbits
 1793              		.align	1
 1794              		.global	HAL_HCD_HC_GetXferCount
 1795              		.syntax unified
 1796              		.thumb
 1797              		.thumb_func
 1799              	HAL_HCD_HC_GetXferCount:
 1800              	.LFB464:
1100:Drivers/STM32L4xx_HAL_Driver/Src/stm32l4xx_hal_hcd.c **** 
1101:Drivers/STM32L4xx_HAL_Driver/Src/stm32l4xx_hal_hcd.c **** 
1102:Drivers/STM32L4xx_HAL_Driver/Src/stm32l4xx_hal_hcd.c **** /**
1103:Drivers/STM32L4xx_HAL_Driver/Src/stm32l4xx_hal_hcd.c ****   * @brief  Return the last host transfer size.
1104:Drivers/STM32L4xx_HAL_Driver/Src/stm32l4xx_hal_hcd.c ****   * @param  hhcd HCD handle
1105:Drivers/STM32L4xx_HAL_Driver/Src/stm32l4xx_hal_hcd.c ****   * @param  chnum Channel number.
1106:Drivers/STM32L4xx_HAL_Driver/Src/stm32l4xx_hal_hcd.c ****   *         This parameter can be a value from 1 to 15
1107:Drivers/STM32L4xx_HAL_Driver/Src/stm32l4xx_hal_hcd.c ****   * @retval last transfer size in byte
1108:Drivers/STM32L4xx_HAL_Driver/Src/stm32l4xx_hal_hcd.c ****   */
1109:Drivers/STM32L4xx_HAL_Driver/Src/stm32l4xx_hal_hcd.c **** uint32_t HAL_HCD_HC_GetXferCount(HCD_HandleTypeDef const *hhcd, uint8_t chnum)
1110:Drivers/STM32L4xx_HAL_Driver/Src/stm32l4xx_hal_hcd.c **** {
 1801              		.loc 1 1110 1
 1802              		.cfi_startproc
 1803              		@ args = 0, pretend = 0, frame = 8
 1804              		@ frame_needed = 1, uses_anonymous_args = 0
 1805              		@ link register save eliminated.
 1806 0000 80B4     		push	{r7}
 1807              		.cfi_def_cfa_offset 4
 1808              		.cfi_offset 7, -4
 1809 0002 83B0     		sub	sp, sp, #12
 1810              		.cfi_def_cfa_offset 16
 1811 0004 00AF     		add	r7, sp, #0
 1812              		.cfi_def_cfa_register 7
 1813 0006 7860     		str	r0, [r7, #4]
 1814 0008 0B46     		mov	r3, r1
ARM GAS  /tmp/cchI0N5p.s 			page 52


 1815 000a FB70     		strb	r3, [r7, #3]
1111:Drivers/STM32L4xx_HAL_Driver/Src/stm32l4xx_hal_hcd.c ****   return hhcd->hc[chnum].xfer_count;
 1816              		.loc 1 1111 25
 1817 000c FB78     		ldrb	r3, [r7, #3]	@ zero_extendqisi2
 1818 000e 7A68     		ldr	r2, [r7, #4]
 1819 0010 3421     		movs	r1, #52
 1820 0012 01FB03F3 		mul	r3, r1, r3
 1821 0016 1344     		add	r3, r3, r2
 1822 0018 3033     		adds	r3, r3, #48
 1823 001a 1B68     		ldr	r3, [r3]
1112:Drivers/STM32L4xx_HAL_Driver/Src/stm32l4xx_hal_hcd.c **** }
 1824              		.loc 1 1112 1
 1825 001c 1846     		mov	r0, r3
 1826 001e 0C37     		adds	r7, r7, #12
 1827              		.cfi_def_cfa_offset 4
 1828 0020 BD46     		mov	sp, r7
 1829              		.cfi_def_cfa_register 13
 1830              		@ sp needed
 1831 0022 5DF8047B 		ldr	r7, [sp], #4
 1832              		.cfi_restore 7
 1833              		.cfi_def_cfa_offset 0
 1834 0026 7047     		bx	lr
 1835              		.cfi_endproc
 1836              	.LFE464:
 1838              		.section	.text.HAL_HCD_HC_GetState,"ax",%progbits
 1839              		.align	1
 1840              		.global	HAL_HCD_HC_GetState
 1841              		.syntax unified
 1842              		.thumb
 1843              		.thumb_func
 1845              	HAL_HCD_HC_GetState:
 1846              	.LFB465:
1113:Drivers/STM32L4xx_HAL_Driver/Src/stm32l4xx_hal_hcd.c **** 
1114:Drivers/STM32L4xx_HAL_Driver/Src/stm32l4xx_hal_hcd.c **** /**
1115:Drivers/STM32L4xx_HAL_Driver/Src/stm32l4xx_hal_hcd.c ****   * @brief  Return the Host Channel state.
1116:Drivers/STM32L4xx_HAL_Driver/Src/stm32l4xx_hal_hcd.c ****   * @param  hhcd HCD handle
1117:Drivers/STM32L4xx_HAL_Driver/Src/stm32l4xx_hal_hcd.c ****   * @param  chnum Channel number.
1118:Drivers/STM32L4xx_HAL_Driver/Src/stm32l4xx_hal_hcd.c ****   *         This parameter can be a value from 1 to 15
1119:Drivers/STM32L4xx_HAL_Driver/Src/stm32l4xx_hal_hcd.c ****   * @retval Host channel state
1120:Drivers/STM32L4xx_HAL_Driver/Src/stm32l4xx_hal_hcd.c ****   *          This parameter can be one of these values:
1121:Drivers/STM32L4xx_HAL_Driver/Src/stm32l4xx_hal_hcd.c ****   *            HC_IDLE/
1122:Drivers/STM32L4xx_HAL_Driver/Src/stm32l4xx_hal_hcd.c ****   *            HC_XFRC/
1123:Drivers/STM32L4xx_HAL_Driver/Src/stm32l4xx_hal_hcd.c ****   *            HC_HALTED/
1124:Drivers/STM32L4xx_HAL_Driver/Src/stm32l4xx_hal_hcd.c ****   *            HC_NYET/
1125:Drivers/STM32L4xx_HAL_Driver/Src/stm32l4xx_hal_hcd.c ****   *            HC_NAK/
1126:Drivers/STM32L4xx_HAL_Driver/Src/stm32l4xx_hal_hcd.c ****   *            HC_STALL/
1127:Drivers/STM32L4xx_HAL_Driver/Src/stm32l4xx_hal_hcd.c ****   *            HC_XACTERR/
1128:Drivers/STM32L4xx_HAL_Driver/Src/stm32l4xx_hal_hcd.c ****   *            HC_BBLERR/
1129:Drivers/STM32L4xx_HAL_Driver/Src/stm32l4xx_hal_hcd.c ****   *            HC_DATATGLERR
1130:Drivers/STM32L4xx_HAL_Driver/Src/stm32l4xx_hal_hcd.c ****   */
1131:Drivers/STM32L4xx_HAL_Driver/Src/stm32l4xx_hal_hcd.c **** HCD_HCStateTypeDef  HAL_HCD_HC_GetState(HCD_HandleTypeDef const *hhcd, uint8_t chnum)
1132:Drivers/STM32L4xx_HAL_Driver/Src/stm32l4xx_hal_hcd.c **** {
 1847              		.loc 1 1132 1
 1848              		.cfi_startproc
 1849              		@ args = 0, pretend = 0, frame = 8
 1850              		@ frame_needed = 1, uses_anonymous_args = 0
 1851              		@ link register save eliminated.
ARM GAS  /tmp/cchI0N5p.s 			page 53


 1852 0000 80B4     		push	{r7}
 1853              		.cfi_def_cfa_offset 4
 1854              		.cfi_offset 7, -4
 1855 0002 83B0     		sub	sp, sp, #12
 1856              		.cfi_def_cfa_offset 16
 1857 0004 00AF     		add	r7, sp, #0
 1858              		.cfi_def_cfa_register 7
 1859 0006 7860     		str	r0, [r7, #4]
 1860 0008 0B46     		mov	r3, r1
 1861 000a FB70     		strb	r3, [r7, #3]
1133:Drivers/STM32L4xx_HAL_Driver/Src/stm32l4xx_hal_hcd.c ****   return hhcd->hc[chnum].state;
 1862              		.loc 1 1133 25
 1863 000c FB78     		ldrb	r3, [r7, #3]	@ zero_extendqisi2
 1864 000e 7A68     		ldr	r2, [r7, #4]
 1865 0010 3421     		movs	r1, #52
 1866 0012 01FB03F3 		mul	r3, r1, r3
 1867 0016 1344     		add	r3, r3, r2
 1868 0018 4533     		adds	r3, r3, #69
 1869 001a 1B78     		ldrb	r3, [r3]	@ zero_extendqisi2
1134:Drivers/STM32L4xx_HAL_Driver/Src/stm32l4xx_hal_hcd.c **** }
 1870              		.loc 1 1134 1
 1871 001c 1846     		mov	r0, r3
 1872 001e 0C37     		adds	r7, r7, #12
 1873              		.cfi_def_cfa_offset 4
 1874 0020 BD46     		mov	sp, r7
 1875              		.cfi_def_cfa_register 13
 1876              		@ sp needed
 1877 0022 5DF8047B 		ldr	r7, [sp], #4
 1878              		.cfi_restore 7
 1879              		.cfi_def_cfa_offset 0
 1880 0026 7047     		bx	lr
 1881              		.cfi_endproc
 1882              	.LFE465:
 1884              		.section	.text.HAL_HCD_GetCurrentFrame,"ax",%progbits
 1885              		.align	1
 1886              		.global	HAL_HCD_GetCurrentFrame
 1887              		.syntax unified
 1888              		.thumb
 1889              		.thumb_func
 1891              	HAL_HCD_GetCurrentFrame:
 1892              	.LFB466:
1135:Drivers/STM32L4xx_HAL_Driver/Src/stm32l4xx_hal_hcd.c **** 
1136:Drivers/STM32L4xx_HAL_Driver/Src/stm32l4xx_hal_hcd.c **** /**
1137:Drivers/STM32L4xx_HAL_Driver/Src/stm32l4xx_hal_hcd.c ****   * @brief  Return the current Host frame number.
1138:Drivers/STM32L4xx_HAL_Driver/Src/stm32l4xx_hal_hcd.c ****   * @param  hhcd HCD handle
1139:Drivers/STM32L4xx_HAL_Driver/Src/stm32l4xx_hal_hcd.c ****   * @retval Current Host frame number
1140:Drivers/STM32L4xx_HAL_Driver/Src/stm32l4xx_hal_hcd.c ****   */
1141:Drivers/STM32L4xx_HAL_Driver/Src/stm32l4xx_hal_hcd.c **** uint32_t HAL_HCD_GetCurrentFrame(HCD_HandleTypeDef *hhcd)
1142:Drivers/STM32L4xx_HAL_Driver/Src/stm32l4xx_hal_hcd.c **** {
 1893              		.loc 1 1142 1
 1894              		.cfi_startproc
 1895              		@ args = 0, pretend = 0, frame = 8
 1896              		@ frame_needed = 1, uses_anonymous_args = 0
 1897 0000 80B5     		push	{r7, lr}
 1898              		.cfi_def_cfa_offset 8
 1899              		.cfi_offset 7, -8
 1900              		.cfi_offset 14, -4
ARM GAS  /tmp/cchI0N5p.s 			page 54


 1901 0002 82B0     		sub	sp, sp, #8
 1902              		.cfi_def_cfa_offset 16
 1903 0004 00AF     		add	r7, sp, #0
 1904              		.cfi_def_cfa_register 7
 1905 0006 7860     		str	r0, [r7, #4]
1143:Drivers/STM32L4xx_HAL_Driver/Src/stm32l4xx_hal_hcd.c ****   return (USB_GetCurrentFrame(hhcd->Instance));
 1906              		.loc 1 1143 35
 1907 0008 7B68     		ldr	r3, [r7, #4]
 1908 000a 1B68     		ldr	r3, [r3]
 1909              		.loc 1 1143 11
 1910 000c 1846     		mov	r0, r3
 1911 000e FFF7FEFF 		bl	USB_GetCurrentFrame
 1912 0012 0346     		mov	r3, r0
1144:Drivers/STM32L4xx_HAL_Driver/Src/stm32l4xx_hal_hcd.c **** }
 1913              		.loc 1 1144 1
 1914 0014 1846     		mov	r0, r3
 1915 0016 0837     		adds	r7, r7, #8
 1916              		.cfi_def_cfa_offset 8
 1917 0018 BD46     		mov	sp, r7
 1918              		.cfi_def_cfa_register 13
 1919              		@ sp needed
 1920 001a 80BD     		pop	{r7, pc}
 1921              		.cfi_endproc
 1922              	.LFE466:
 1924              		.section	.text.HAL_HCD_GetCurrentSpeed,"ax",%progbits
 1925              		.align	1
 1926              		.global	HAL_HCD_GetCurrentSpeed
 1927              		.syntax unified
 1928              		.thumb
 1929              		.thumb_func
 1931              	HAL_HCD_GetCurrentSpeed:
 1932              	.LFB467:
1145:Drivers/STM32L4xx_HAL_Driver/Src/stm32l4xx_hal_hcd.c **** 
1146:Drivers/STM32L4xx_HAL_Driver/Src/stm32l4xx_hal_hcd.c **** /**
1147:Drivers/STM32L4xx_HAL_Driver/Src/stm32l4xx_hal_hcd.c ****   * @brief  Return the Host enumeration speed.
1148:Drivers/STM32L4xx_HAL_Driver/Src/stm32l4xx_hal_hcd.c ****   * @param  hhcd HCD handle
1149:Drivers/STM32L4xx_HAL_Driver/Src/stm32l4xx_hal_hcd.c ****   * @retval Enumeration speed
1150:Drivers/STM32L4xx_HAL_Driver/Src/stm32l4xx_hal_hcd.c ****   */
1151:Drivers/STM32L4xx_HAL_Driver/Src/stm32l4xx_hal_hcd.c **** uint32_t HAL_HCD_GetCurrentSpeed(HCD_HandleTypeDef *hhcd)
1152:Drivers/STM32L4xx_HAL_Driver/Src/stm32l4xx_hal_hcd.c **** {
 1933              		.loc 1 1152 1
 1934              		.cfi_startproc
 1935              		@ args = 0, pretend = 0, frame = 8
 1936              		@ frame_needed = 1, uses_anonymous_args = 0
 1937 0000 80B5     		push	{r7, lr}
 1938              		.cfi_def_cfa_offset 8
 1939              		.cfi_offset 7, -8
 1940              		.cfi_offset 14, -4
 1941 0002 82B0     		sub	sp, sp, #8
 1942              		.cfi_def_cfa_offset 16
 1943 0004 00AF     		add	r7, sp, #0
 1944              		.cfi_def_cfa_register 7
 1945 0006 7860     		str	r0, [r7, #4]
1153:Drivers/STM32L4xx_HAL_Driver/Src/stm32l4xx_hal_hcd.c ****   return (USB_GetHostSpeed(hhcd->Instance));
 1946              		.loc 1 1153 32
 1947 0008 7B68     		ldr	r3, [r7, #4]
 1948 000a 1B68     		ldr	r3, [r3]
ARM GAS  /tmp/cchI0N5p.s 			page 55


 1949              		.loc 1 1153 11
 1950 000c 1846     		mov	r0, r3
 1951 000e FFF7FEFF 		bl	USB_GetHostSpeed
 1952 0012 0346     		mov	r3, r0
1154:Drivers/STM32L4xx_HAL_Driver/Src/stm32l4xx_hal_hcd.c **** }
 1953              		.loc 1 1154 1
 1954 0014 1846     		mov	r0, r3
 1955 0016 0837     		adds	r7, r7, #8
 1956              		.cfi_def_cfa_offset 8
 1957 0018 BD46     		mov	sp, r7
 1958              		.cfi_def_cfa_register 13
 1959              		@ sp needed
 1960 001a 80BD     		pop	{r7, pc}
 1961              		.cfi_endproc
 1962              	.LFE467:
 1964              		.section	.text.HAL_HCD_HC_SetHubInfo,"ax",%progbits
 1965              		.align	1
 1966              		.global	HAL_HCD_HC_SetHubInfo
 1967              		.syntax unified
 1968              		.thumb
 1969              		.thumb_func
 1971              	HAL_HCD_HC_SetHubInfo:
 1972              	.LFB468:
1155:Drivers/STM32L4xx_HAL_Driver/Src/stm32l4xx_hal_hcd.c **** 
1156:Drivers/STM32L4xx_HAL_Driver/Src/stm32l4xx_hal_hcd.c **** /**
1157:Drivers/STM32L4xx_HAL_Driver/Src/stm32l4xx_hal_hcd.c ****   * @brief  Set host channel Hub information.
1158:Drivers/STM32L4xx_HAL_Driver/Src/stm32l4xx_hal_hcd.c ****   * @param  hhcd HCD handle
1159:Drivers/STM32L4xx_HAL_Driver/Src/stm32l4xx_hal_hcd.c ****   * @param  ch_num Channel number.
1160:Drivers/STM32L4xx_HAL_Driver/Src/stm32l4xx_hal_hcd.c ****   *         This parameter can be a value from 1 to 15
1161:Drivers/STM32L4xx_HAL_Driver/Src/stm32l4xx_hal_hcd.c ****   * @param  addr Hub address
1162:Drivers/STM32L4xx_HAL_Driver/Src/stm32l4xx_hal_hcd.c ****   * @param  PortNbr Hub port number
1163:Drivers/STM32L4xx_HAL_Driver/Src/stm32l4xx_hal_hcd.c ****   * @retval HAL status
1164:Drivers/STM32L4xx_HAL_Driver/Src/stm32l4xx_hal_hcd.c ****   */
1165:Drivers/STM32L4xx_HAL_Driver/Src/stm32l4xx_hal_hcd.c **** HAL_StatusTypeDef HAL_HCD_HC_SetHubInfo(HCD_HandleTypeDef *hhcd, uint8_t ch_num,
1166:Drivers/STM32L4xx_HAL_Driver/Src/stm32l4xx_hal_hcd.c ****                                         uint8_t addr, uint8_t PortNbr)
1167:Drivers/STM32L4xx_HAL_Driver/Src/stm32l4xx_hal_hcd.c **** {
 1973              		.loc 1 1167 1
 1974              		.cfi_startproc
 1975              		@ args = 0, pretend = 0, frame = 8
 1976              		@ frame_needed = 1, uses_anonymous_args = 0
 1977              		@ link register save eliminated.
 1978 0000 80B4     		push	{r7}
 1979              		.cfi_def_cfa_offset 4
 1980              		.cfi_offset 7, -4
 1981 0002 83B0     		sub	sp, sp, #12
 1982              		.cfi_def_cfa_offset 16
 1983 0004 00AF     		add	r7, sp, #0
 1984              		.cfi_def_cfa_register 7
 1985 0006 7860     		str	r0, [r7, #4]
 1986 0008 0846     		mov	r0, r1
 1987 000a 1146     		mov	r1, r2
 1988 000c 1A46     		mov	r2, r3
 1989 000e 0346     		mov	r3, r0
 1990 0010 FB70     		strb	r3, [r7, #3]
 1991 0012 0B46     		mov	r3, r1
 1992 0014 BB70     		strb	r3, [r7, #2]
 1993 0016 1346     		mov	r3, r2
ARM GAS  /tmp/cchI0N5p.s 			page 56


 1994 0018 7B70     		strb	r3, [r7, #1]
1168:Drivers/STM32L4xx_HAL_Driver/Src/stm32l4xx_hal_hcd.c ****   hhcd->hc[ch_num].hub_addr = addr;
 1995              		.loc 1 1168 19
 1996 001a FB78     		ldrb	r3, [r7, #3]	@ zero_extendqisi2
 1997              		.loc 1 1168 29
 1998 001c 7A68     		ldr	r2, [r7, #4]
 1999 001e 3421     		movs	r1, #52
 2000 0020 01FB03F3 		mul	r3, r1, r3
 2001 0024 1344     		add	r3, r3, r2
 2002 0026 1C33     		adds	r3, r3, #28
 2003 0028 BA78     		ldrb	r2, [r7, #2]
 2004 002a 1A70     		strb	r2, [r3]
1169:Drivers/STM32L4xx_HAL_Driver/Src/stm32l4xx_hal_hcd.c ****   hhcd->hc[ch_num].hub_port_nbr = PortNbr;
 2005              		.loc 1 1169 19
 2006 002c FB78     		ldrb	r3, [r7, #3]	@ zero_extendqisi2
 2007              		.loc 1 1169 33
 2008 002e 7A68     		ldr	r2, [r7, #4]
 2009 0030 3421     		movs	r1, #52
 2010 0032 01FB03F3 		mul	r3, r1, r3
 2011 0036 1344     		add	r3, r3, r2
 2012 0038 1B33     		adds	r3, r3, #27
 2013 003a 7A78     		ldrb	r2, [r7, #1]
 2014 003c 1A70     		strb	r2, [r3]
1170:Drivers/STM32L4xx_HAL_Driver/Src/stm32l4xx_hal_hcd.c **** 
1171:Drivers/STM32L4xx_HAL_Driver/Src/stm32l4xx_hal_hcd.c ****   return HAL_OK;
 2015              		.loc 1 1171 10
 2016 003e 0023     		movs	r3, #0
1172:Drivers/STM32L4xx_HAL_Driver/Src/stm32l4xx_hal_hcd.c **** }
 2017              		.loc 1 1172 1
 2018 0040 1846     		mov	r0, r3
 2019 0042 0C37     		adds	r7, r7, #12
 2020              		.cfi_def_cfa_offset 4
 2021 0044 BD46     		mov	sp, r7
 2022              		.cfi_def_cfa_register 13
 2023              		@ sp needed
 2024 0046 5DF8047B 		ldr	r7, [sp], #4
 2025              		.cfi_restore 7
 2026              		.cfi_def_cfa_offset 0
 2027 004a 7047     		bx	lr
 2028              		.cfi_endproc
 2029              	.LFE468:
 2031              		.section	.text.HAL_HCD_HC_ClearHubInfo,"ax",%progbits
 2032              		.align	1
 2033              		.global	HAL_HCD_HC_ClearHubInfo
 2034              		.syntax unified
 2035              		.thumb
 2036              		.thumb_func
 2038              	HAL_HCD_HC_ClearHubInfo:
 2039              	.LFB469:
1173:Drivers/STM32L4xx_HAL_Driver/Src/stm32l4xx_hal_hcd.c **** 
1174:Drivers/STM32L4xx_HAL_Driver/Src/stm32l4xx_hal_hcd.c **** 
1175:Drivers/STM32L4xx_HAL_Driver/Src/stm32l4xx_hal_hcd.c **** /**
1176:Drivers/STM32L4xx_HAL_Driver/Src/stm32l4xx_hal_hcd.c ****   * @brief  Clear host channel hub information.
1177:Drivers/STM32L4xx_HAL_Driver/Src/stm32l4xx_hal_hcd.c ****   * @param  hhcd HCD handle
1178:Drivers/STM32L4xx_HAL_Driver/Src/stm32l4xx_hal_hcd.c ****   * @param  ch_num Channel number.
1179:Drivers/STM32L4xx_HAL_Driver/Src/stm32l4xx_hal_hcd.c ****   *         This parameter can be a value from 1 to 15
1180:Drivers/STM32L4xx_HAL_Driver/Src/stm32l4xx_hal_hcd.c ****   * @retval HAL status
ARM GAS  /tmp/cchI0N5p.s 			page 57


1181:Drivers/STM32L4xx_HAL_Driver/Src/stm32l4xx_hal_hcd.c ****   */
1182:Drivers/STM32L4xx_HAL_Driver/Src/stm32l4xx_hal_hcd.c **** HAL_StatusTypeDef HAL_HCD_HC_ClearHubInfo(HCD_HandleTypeDef *hhcd, uint8_t ch_num)
1183:Drivers/STM32L4xx_HAL_Driver/Src/stm32l4xx_hal_hcd.c **** {
 2040              		.loc 1 1183 1
 2041              		.cfi_startproc
 2042              		@ args = 0, pretend = 0, frame = 8
 2043              		@ frame_needed = 1, uses_anonymous_args = 0
 2044              		@ link register save eliminated.
 2045 0000 80B4     		push	{r7}
 2046              		.cfi_def_cfa_offset 4
 2047              		.cfi_offset 7, -4
 2048 0002 83B0     		sub	sp, sp, #12
 2049              		.cfi_def_cfa_offset 16
 2050 0004 00AF     		add	r7, sp, #0
 2051              		.cfi_def_cfa_register 7
 2052 0006 7860     		str	r0, [r7, #4]
 2053 0008 0B46     		mov	r3, r1
 2054 000a FB70     		strb	r3, [r7, #3]
1184:Drivers/STM32L4xx_HAL_Driver/Src/stm32l4xx_hal_hcd.c ****   hhcd->hc[ch_num].hub_addr = 0U;
 2055              		.loc 1 1184 19
 2056 000c FB78     		ldrb	r3, [r7, #3]	@ zero_extendqisi2
 2057              		.loc 1 1184 29
 2058 000e 7A68     		ldr	r2, [r7, #4]
 2059 0010 3421     		movs	r1, #52
 2060 0012 01FB03F3 		mul	r3, r1, r3
 2061 0016 1344     		add	r3, r3, r2
 2062 0018 1C33     		adds	r3, r3, #28
 2063 001a 0022     		movs	r2, #0
 2064 001c 1A70     		strb	r2, [r3]
1185:Drivers/STM32L4xx_HAL_Driver/Src/stm32l4xx_hal_hcd.c ****   hhcd->hc[ch_num].hub_port_nbr = 0U;
 2065              		.loc 1 1185 19
 2066 001e FB78     		ldrb	r3, [r7, #3]	@ zero_extendqisi2
 2067              		.loc 1 1185 33
 2068 0020 7A68     		ldr	r2, [r7, #4]
 2069 0022 3421     		movs	r1, #52
 2070 0024 01FB03F3 		mul	r3, r1, r3
 2071 0028 1344     		add	r3, r3, r2
 2072 002a 1B33     		adds	r3, r3, #27
 2073 002c 0022     		movs	r2, #0
 2074 002e 1A70     		strb	r2, [r3]
1186:Drivers/STM32L4xx_HAL_Driver/Src/stm32l4xx_hal_hcd.c **** 
1187:Drivers/STM32L4xx_HAL_Driver/Src/stm32l4xx_hal_hcd.c ****   return HAL_OK;
 2075              		.loc 1 1187 10
 2076 0030 0023     		movs	r3, #0
1188:Drivers/STM32L4xx_HAL_Driver/Src/stm32l4xx_hal_hcd.c **** }
 2077              		.loc 1 1188 1
 2078 0032 1846     		mov	r0, r3
 2079 0034 0C37     		adds	r7, r7, #12
 2080              		.cfi_def_cfa_offset 4
 2081 0036 BD46     		mov	sp, r7
 2082              		.cfi_def_cfa_register 13
 2083              		@ sp needed
 2084 0038 5DF8047B 		ldr	r7, [sp], #4
 2085              		.cfi_restore 7
 2086              		.cfi_def_cfa_offset 0
 2087 003c 7047     		bx	lr
 2088              		.cfi_endproc
ARM GAS  /tmp/cchI0N5p.s 			page 58


 2089              	.LFE469:
 2091              		.section	.text.HAL_HCD_HC_Activate,"ax",%progbits
 2092              		.align	1
 2093              		.global	HAL_HCD_HC_Activate
 2094              		.syntax unified
 2095              		.thumb
 2096              		.thumb_func
 2098              	HAL_HCD_HC_Activate:
 2099              	.LFB470:
1189:Drivers/STM32L4xx_HAL_Driver/Src/stm32l4xx_hal_hcd.c **** 
1190:Drivers/STM32L4xx_HAL_Driver/Src/stm32l4xx_hal_hcd.c **** 
1191:Drivers/STM32L4xx_HAL_Driver/Src/stm32l4xx_hal_hcd.c **** /** @brief  Activate a host channel.
1192:Drivers/STM32L4xx_HAL_Driver/Src/stm32l4xx_hal_hcd.c ****   * @param  hhcd HCD handle
1193:Drivers/STM32L4xx_HAL_Driver/Src/stm32l4xx_hal_hcd.c ****   * @param  ch_num Channel number.
1194:Drivers/STM32L4xx_HAL_Driver/Src/stm32l4xx_hal_hcd.c ****   *         This parameter can be a value from 1 to 15
1195:Drivers/STM32L4xx_HAL_Driver/Src/stm32l4xx_hal_hcd.c ****   * @retval HAL status
1196:Drivers/STM32L4xx_HAL_Driver/Src/stm32l4xx_hal_hcd.c ****   */
1197:Drivers/STM32L4xx_HAL_Driver/Src/stm32l4xx_hal_hcd.c **** HAL_StatusTypeDef HAL_HCD_HC_Activate(HCD_HandleTypeDef *hhcd, uint8_t ch_num)
1198:Drivers/STM32L4xx_HAL_Driver/Src/stm32l4xx_hal_hcd.c **** {
 2100              		.loc 1 1198 1
 2101              		.cfi_startproc
 2102              		@ args = 0, pretend = 0, frame = 16
 2103              		@ frame_needed = 1, uses_anonymous_args = 0
 2104 0000 80B5     		push	{r7, lr}
 2105              		.cfi_def_cfa_offset 8
 2106              		.cfi_offset 7, -8
 2107              		.cfi_offset 14, -4
 2108 0002 84B0     		sub	sp, sp, #16
 2109              		.cfi_def_cfa_offset 24
 2110 0004 00AF     		add	r7, sp, #0
 2111              		.cfi_def_cfa_register 7
 2112 0006 7860     		str	r0, [r7, #4]
 2113 0008 0B46     		mov	r3, r1
 2114 000a FB70     		strb	r3, [r7, #3]
1199:Drivers/STM32L4xx_HAL_Driver/Src/stm32l4xx_hal_hcd.c ****   HAL_StatusTypeDef status = HAL_OK;
 2115              		.loc 1 1199 21
 2116 000c 0023     		movs	r3, #0
 2117 000e FB73     		strb	r3, [r7, #15]
1200:Drivers/STM32L4xx_HAL_Driver/Src/stm32l4xx_hal_hcd.c **** 
1201:Drivers/STM32L4xx_HAL_Driver/Src/stm32l4xx_hal_hcd.c ****   __HAL_LOCK(hhcd);
 2118              		.loc 1 1201 3
 2119 0010 7B68     		ldr	r3, [r7, #4]
 2120 0012 93F85433 		ldrb	r3, [r3, #852]	@ zero_extendqisi2
 2121 0016 012B     		cmp	r3, #1
 2122 0018 01D1     		bne	.L95
 2123              		.loc 1 1201 3 is_stmt 0 discriminator 1
 2124 001a 0223     		movs	r3, #2
 2125              		.loc 1 1201 3
 2126 001c 16E0     		b	.L96
 2127              	.L95:
 2128              		.loc 1 1201 3 discriminator 2
 2129 001e 7B68     		ldr	r3, [r7, #4]
 2130 0020 0122     		movs	r2, #1
 2131 0022 83F85423 		strb	r2, [r3, #852]
1202:Drivers/STM32L4xx_HAL_Driver/Src/stm32l4xx_hal_hcd.c ****   (void)USB_HC_Activate(hhcd->Instance, (uint8_t)ch_num, hhcd->hc[ch_num].ch_dir);
 2132              		.loc 1 1202 29 is_stmt 1
 2133 0026 7B68     		ldr	r3, [r7, #4]
ARM GAS  /tmp/cchI0N5p.s 			page 59


 2134 0028 1868     		ldr	r0, [r3]
 2135              		.loc 1 1202 9
 2136 002a FB78     		ldrb	r3, [r7, #3]	@ zero_extendqisi2
 2137 002c 7A68     		ldr	r2, [r7, #4]
 2138 002e 3421     		movs	r1, #52
 2139 0030 01FB03F3 		mul	r3, r1, r3
 2140 0034 1344     		add	r3, r3, r2
 2141 0036 1833     		adds	r3, r3, #24
 2142 0038 1A78     		ldrb	r2, [r3]	@ zero_extendqisi2
 2143 003a FB78     		ldrb	r3, [r7, #3]	@ zero_extendqisi2
 2144 003c 1946     		mov	r1, r3
 2145 003e FFF7FEFF 		bl	USB_HC_Activate
1203:Drivers/STM32L4xx_HAL_Driver/Src/stm32l4xx_hal_hcd.c ****   __HAL_UNLOCK(hhcd);
 2146              		.loc 1 1203 3
 2147 0042 7B68     		ldr	r3, [r7, #4]
 2148 0044 0022     		movs	r2, #0
 2149 0046 83F85423 		strb	r2, [r3, #852]
1204:Drivers/STM32L4xx_HAL_Driver/Src/stm32l4xx_hal_hcd.c **** 
1205:Drivers/STM32L4xx_HAL_Driver/Src/stm32l4xx_hal_hcd.c ****   return status;
 2150              		.loc 1 1205 10
 2151 004a FB7B     		ldrb	r3, [r7, #15]	@ zero_extendqisi2
 2152              	.L96:
1206:Drivers/STM32L4xx_HAL_Driver/Src/stm32l4xx_hal_hcd.c **** }
 2153              		.loc 1 1206 1
 2154 004c 1846     		mov	r0, r3
 2155 004e 1037     		adds	r7, r7, #16
 2156              		.cfi_def_cfa_offset 8
 2157 0050 BD46     		mov	sp, r7
 2158              		.cfi_def_cfa_register 13
 2159              		@ sp needed
 2160 0052 80BD     		pop	{r7, pc}
 2161              		.cfi_endproc
 2162              	.LFE470:
 2164              		.section	.text.HCD_HC_IN_IRQHandler,"ax",%progbits
 2165              		.align	1
 2166              		.syntax unified
 2167              		.thumb
 2168              		.thumb_func
 2170              	HCD_HC_IN_IRQHandler:
 2171              	.LFB471:
1207:Drivers/STM32L4xx_HAL_Driver/Src/stm32l4xx_hal_hcd.c **** /**
1208:Drivers/STM32L4xx_HAL_Driver/Src/stm32l4xx_hal_hcd.c ****   * @}
1209:Drivers/STM32L4xx_HAL_Driver/Src/stm32l4xx_hal_hcd.c ****   */
1210:Drivers/STM32L4xx_HAL_Driver/Src/stm32l4xx_hal_hcd.c **** 
1211:Drivers/STM32L4xx_HAL_Driver/Src/stm32l4xx_hal_hcd.c **** /**
1212:Drivers/STM32L4xx_HAL_Driver/Src/stm32l4xx_hal_hcd.c ****   * @}
1213:Drivers/STM32L4xx_HAL_Driver/Src/stm32l4xx_hal_hcd.c ****   */
1214:Drivers/STM32L4xx_HAL_Driver/Src/stm32l4xx_hal_hcd.c **** 
1215:Drivers/STM32L4xx_HAL_Driver/Src/stm32l4xx_hal_hcd.c **** /** @addtogroup HCD_Private_Functions
1216:Drivers/STM32L4xx_HAL_Driver/Src/stm32l4xx_hal_hcd.c ****   * @{
1217:Drivers/STM32L4xx_HAL_Driver/Src/stm32l4xx_hal_hcd.c ****   */
1218:Drivers/STM32L4xx_HAL_Driver/Src/stm32l4xx_hal_hcd.c **** /**
1219:Drivers/STM32L4xx_HAL_Driver/Src/stm32l4xx_hal_hcd.c ****   * @brief  Handle Host Channel IN interrupt requests.
1220:Drivers/STM32L4xx_HAL_Driver/Src/stm32l4xx_hal_hcd.c ****   * @param  hhcd HCD handle
1221:Drivers/STM32L4xx_HAL_Driver/Src/stm32l4xx_hal_hcd.c ****   * @param  chnum Channel number.
1222:Drivers/STM32L4xx_HAL_Driver/Src/stm32l4xx_hal_hcd.c ****   *         This parameter can be a value from 1 to 15
1223:Drivers/STM32L4xx_HAL_Driver/Src/stm32l4xx_hal_hcd.c ****   * @retval none
ARM GAS  /tmp/cchI0N5p.s 			page 60


1224:Drivers/STM32L4xx_HAL_Driver/Src/stm32l4xx_hal_hcd.c ****   */
1225:Drivers/STM32L4xx_HAL_Driver/Src/stm32l4xx_hal_hcd.c **** static void HCD_HC_IN_IRQHandler(HCD_HandleTypeDef *hhcd, uint8_t chnum)
1226:Drivers/STM32L4xx_HAL_Driver/Src/stm32l4xx_hal_hcd.c **** {
 2172              		.loc 1 1226 1
 2173              		.cfi_startproc
 2174              		@ args = 0, pretend = 0, frame = 24
 2175              		@ frame_needed = 1, uses_anonymous_args = 0
 2176 0000 80B5     		push	{r7, lr}
 2177              		.cfi_def_cfa_offset 8
 2178              		.cfi_offset 7, -8
 2179              		.cfi_offset 14, -4
 2180 0002 86B0     		sub	sp, sp, #24
 2181              		.cfi_def_cfa_offset 32
 2182 0004 00AF     		add	r7, sp, #0
 2183              		.cfi_def_cfa_register 7
 2184 0006 7860     		str	r0, [r7, #4]
 2185 0008 0B46     		mov	r3, r1
 2186 000a FB70     		strb	r3, [r7, #3]
1227:Drivers/STM32L4xx_HAL_Driver/Src/stm32l4xx_hal_hcd.c ****   const USB_OTG_GlobalTypeDef *USBx = hhcd->Instance;
 2187              		.loc 1 1227 32
 2188 000c 7B68     		ldr	r3, [r7, #4]
 2189 000e 1B68     		ldr	r3, [r3]
 2190 0010 7B61     		str	r3, [r7, #20]
1228:Drivers/STM32L4xx_HAL_Driver/Src/stm32l4xx_hal_hcd.c ****   uint32_t USBx_BASE = (uint32_t)USBx;
 2191              		.loc 1 1228 12
 2192 0012 7B69     		ldr	r3, [r7, #20]
 2193 0014 3B61     		str	r3, [r7, #16]
1229:Drivers/STM32L4xx_HAL_Driver/Src/stm32l4xx_hal_hcd.c ****   uint32_t tmpreg;
1230:Drivers/STM32L4xx_HAL_Driver/Src/stm32l4xx_hal_hcd.c **** 
1231:Drivers/STM32L4xx_HAL_Driver/Src/stm32l4xx_hal_hcd.c ****   if (__HAL_HCD_GET_CH_FLAG(hhcd, chnum, USB_OTG_HCINT_AHBERR))
 2194              		.loc 1 1231 7
 2195 0016 7B68     		ldr	r3, [r7, #4]
 2196 0018 1B68     		ldr	r3, [r3]
 2197 001a FA78     		ldrb	r2, [r7, #3]	@ zero_extendqisi2
 2198 001c 1146     		mov	r1, r2
 2199 001e 1846     		mov	r0, r3
 2200 0020 FFF7FEFF 		bl	USB_ReadChInterrupts
 2201 0024 0346     		mov	r3, r0
 2202              		.loc 1 1231 7 is_stmt 0 discriminator 1
 2203 0026 03F00403 		and	r3, r3, #4
 2204              		.loc 1 1231 6 is_stmt 1 discriminator 1
 2205 002a 042B     		cmp	r3, #4
 2206 002c 19D1     		bne	.L98
1232:Drivers/STM32L4xx_HAL_Driver/Src/stm32l4xx_hal_hcd.c ****   {
1233:Drivers/STM32L4xx_HAL_Driver/Src/stm32l4xx_hal_hcd.c ****     __HAL_HCD_CLEAR_HC_INT(chnum, USB_OTG_HCINT_AHBERR);
 2207              		.loc 1 1233 5
 2208 002e FB78     		ldrb	r3, [r7, #3]	@ zero_extendqisi2
 2209 0030 5A01     		lsls	r2, r3, #5
 2210 0032 3B69     		ldr	r3, [r7, #16]
 2211 0034 1344     		add	r3, r3, r2
 2212 0036 03F5A063 		add	r3, r3, #1280
 2213 003a 1A46     		mov	r2, r3
 2214 003c 0423     		movs	r3, #4
 2215 003e 9360     		str	r3, [r2, #8]
1234:Drivers/STM32L4xx_HAL_Driver/Src/stm32l4xx_hal_hcd.c ****     hhcd->hc[chnum].state = HC_XACTERR;
 2216              		.loc 1 1234 20
 2217 0040 FB78     		ldrb	r3, [r7, #3]	@ zero_extendqisi2
ARM GAS  /tmp/cchI0N5p.s 			page 61


 2218              		.loc 1 1234 27
 2219 0042 7A68     		ldr	r2, [r7, #4]
 2220 0044 3421     		movs	r1, #52
 2221 0046 01FB03F3 		mul	r3, r1, r3
 2222 004a 1344     		add	r3, r3, r2
 2223 004c 4533     		adds	r3, r3, #69
 2224 004e 0722     		movs	r2, #7
 2225 0050 1A70     		strb	r2, [r3]
1235:Drivers/STM32L4xx_HAL_Driver/Src/stm32l4xx_hal_hcd.c ****     (void)USB_HC_Halt(hhcd->Instance, chnum);
 2226              		.loc 1 1235 27
 2227 0052 7B68     		ldr	r3, [r7, #4]
 2228 0054 1B68     		ldr	r3, [r3]
 2229              		.loc 1 1235 11
 2230 0056 FA78     		ldrb	r2, [r7, #3]	@ zero_extendqisi2
 2231 0058 1146     		mov	r1, r2
 2232 005a 1846     		mov	r0, r3
 2233 005c FFF7FEFF 		bl	USB_HC_Halt
 2234 0060 9AE0     		b	.L99
 2235              	.L98:
1236:Drivers/STM32L4xx_HAL_Driver/Src/stm32l4xx_hal_hcd.c ****   }
1237:Drivers/STM32L4xx_HAL_Driver/Src/stm32l4xx_hal_hcd.c ****   else if (__HAL_HCD_GET_CH_FLAG(hhcd, chnum, USB_OTG_HCINT_BBERR))
 2236              		.loc 1 1237 12
 2237 0062 7B68     		ldr	r3, [r7, #4]
 2238 0064 1B68     		ldr	r3, [r3]
 2239 0066 FA78     		ldrb	r2, [r7, #3]	@ zero_extendqisi2
 2240 0068 1146     		mov	r1, r2
 2241 006a 1846     		mov	r0, r3
 2242 006c FFF7FEFF 		bl	USB_ReadChInterrupts
 2243 0070 0346     		mov	r3, r0
 2244              		.loc 1 1237 12 is_stmt 0 discriminator 1
 2245 0072 03F48073 		and	r3, r3, #256
 2246              		.loc 1 1237 11 is_stmt 1 discriminator 1
 2247 0076 B3F5807F 		cmp	r3, #256
 2248 007a 1AD1     		bne	.L100
1238:Drivers/STM32L4xx_HAL_Driver/Src/stm32l4xx_hal_hcd.c ****   {
1239:Drivers/STM32L4xx_HAL_Driver/Src/stm32l4xx_hal_hcd.c ****     __HAL_HCD_CLEAR_HC_INT(chnum, USB_OTG_HCINT_BBERR);
 2249              		.loc 1 1239 5
 2250 007c FB78     		ldrb	r3, [r7, #3]	@ zero_extendqisi2
 2251 007e 5A01     		lsls	r2, r3, #5
 2252 0080 3B69     		ldr	r3, [r7, #16]
 2253 0082 1344     		add	r3, r3, r2
 2254 0084 03F5A063 		add	r3, r3, #1280
 2255 0088 1A46     		mov	r2, r3
 2256 008a 4FF48073 		mov	r3, #256
 2257 008e 9360     		str	r3, [r2, #8]
1240:Drivers/STM32L4xx_HAL_Driver/Src/stm32l4xx_hal_hcd.c ****     hhcd->hc[chnum].state = HC_BBLERR;
 2258              		.loc 1 1240 20
 2259 0090 FB78     		ldrb	r3, [r7, #3]	@ zero_extendqisi2
 2260              		.loc 1 1240 27
 2261 0092 7A68     		ldr	r2, [r7, #4]
 2262 0094 3421     		movs	r1, #52
 2263 0096 01FB03F3 		mul	r3, r1, r3
 2264 009a 1344     		add	r3, r3, r2
 2265 009c 4533     		adds	r3, r3, #69
 2266 009e 0822     		movs	r2, #8
 2267 00a0 1A70     		strb	r2, [r3]
1241:Drivers/STM32L4xx_HAL_Driver/Src/stm32l4xx_hal_hcd.c ****     (void)USB_HC_Halt(hhcd->Instance, chnum);
ARM GAS  /tmp/cchI0N5p.s 			page 62


 2268              		.loc 1 1241 27
 2269 00a2 7B68     		ldr	r3, [r7, #4]
 2270 00a4 1B68     		ldr	r3, [r3]
 2271              		.loc 1 1241 11
 2272 00a6 FA78     		ldrb	r2, [r7, #3]	@ zero_extendqisi2
 2273 00a8 1146     		mov	r1, r2
 2274 00aa 1846     		mov	r0, r3
 2275 00ac FFF7FEFF 		bl	USB_HC_Halt
 2276 00b0 72E0     		b	.L99
 2277              	.L100:
1242:Drivers/STM32L4xx_HAL_Driver/Src/stm32l4xx_hal_hcd.c ****   }
1243:Drivers/STM32L4xx_HAL_Driver/Src/stm32l4xx_hal_hcd.c ****   else if (__HAL_HCD_GET_CH_FLAG(hhcd, chnum, USB_OTG_HCINT_STALL))
 2278              		.loc 1 1243 12
 2279 00b2 7B68     		ldr	r3, [r7, #4]
 2280 00b4 1B68     		ldr	r3, [r3]
 2281 00b6 FA78     		ldrb	r2, [r7, #3]	@ zero_extendqisi2
 2282 00b8 1146     		mov	r1, r2
 2283 00ba 1846     		mov	r0, r3
 2284 00bc FFF7FEFF 		bl	USB_ReadChInterrupts
 2285 00c0 0346     		mov	r3, r0
 2286              		.loc 1 1243 12 is_stmt 0 discriminator 1
 2287 00c2 03F00803 		and	r3, r3, #8
 2288              		.loc 1 1243 11 is_stmt 1 discriminator 1
 2289 00c6 082B     		cmp	r3, #8
 2290 00c8 19D1     		bne	.L101
1244:Drivers/STM32L4xx_HAL_Driver/Src/stm32l4xx_hal_hcd.c ****   {
1245:Drivers/STM32L4xx_HAL_Driver/Src/stm32l4xx_hal_hcd.c ****     __HAL_HCD_CLEAR_HC_INT(chnum, USB_OTG_HCINT_STALL);
 2291              		.loc 1 1245 5
 2292 00ca FB78     		ldrb	r3, [r7, #3]	@ zero_extendqisi2
 2293 00cc 5A01     		lsls	r2, r3, #5
 2294 00ce 3B69     		ldr	r3, [r7, #16]
 2295 00d0 1344     		add	r3, r3, r2
 2296 00d2 03F5A063 		add	r3, r3, #1280
 2297 00d6 1A46     		mov	r2, r3
 2298 00d8 0823     		movs	r3, #8
 2299 00da 9360     		str	r3, [r2, #8]
1246:Drivers/STM32L4xx_HAL_Driver/Src/stm32l4xx_hal_hcd.c ****     hhcd->hc[chnum].state = HC_STALL;
 2300              		.loc 1 1246 20
 2301 00dc FB78     		ldrb	r3, [r7, #3]	@ zero_extendqisi2
 2302              		.loc 1 1246 27
 2303 00de 7A68     		ldr	r2, [r7, #4]
 2304 00e0 3421     		movs	r1, #52
 2305 00e2 01FB03F3 		mul	r3, r1, r3
 2306 00e6 1344     		add	r3, r3, r2
 2307 00e8 4533     		adds	r3, r3, #69
 2308 00ea 0622     		movs	r2, #6
 2309 00ec 1A70     		strb	r2, [r3]
1247:Drivers/STM32L4xx_HAL_Driver/Src/stm32l4xx_hal_hcd.c ****     (void)USB_HC_Halt(hhcd->Instance, chnum);
 2310              		.loc 1 1247 27
 2311 00ee 7B68     		ldr	r3, [r7, #4]
 2312 00f0 1B68     		ldr	r3, [r3]
 2313              		.loc 1 1247 11
 2314 00f2 FA78     		ldrb	r2, [r7, #3]	@ zero_extendqisi2
 2315 00f4 1146     		mov	r1, r2
 2316 00f6 1846     		mov	r0, r3
 2317 00f8 FFF7FEFF 		bl	USB_HC_Halt
 2318 00fc 4CE0     		b	.L99
ARM GAS  /tmp/cchI0N5p.s 			page 63


 2319              	.L101:
1248:Drivers/STM32L4xx_HAL_Driver/Src/stm32l4xx_hal_hcd.c ****   }
1249:Drivers/STM32L4xx_HAL_Driver/Src/stm32l4xx_hal_hcd.c ****   else if (__HAL_HCD_GET_CH_FLAG(hhcd, chnum, USB_OTG_HCINT_DTERR))
 2320              		.loc 1 1249 12
 2321 00fe 7B68     		ldr	r3, [r7, #4]
 2322 0100 1B68     		ldr	r3, [r3]
 2323 0102 FA78     		ldrb	r2, [r7, #3]	@ zero_extendqisi2
 2324 0104 1146     		mov	r1, r2
 2325 0106 1846     		mov	r0, r3
 2326 0108 FFF7FEFF 		bl	USB_ReadChInterrupts
 2327 010c 0346     		mov	r3, r0
 2328              		.loc 1 1249 12 is_stmt 0 discriminator 1
 2329 010e 03F48063 		and	r3, r3, #1024
 2330              		.loc 1 1249 11 is_stmt 1 discriminator 1
 2331 0112 B3F5806F 		cmp	r3, #1024
 2332 0116 1AD1     		bne	.L102
1250:Drivers/STM32L4xx_HAL_Driver/Src/stm32l4xx_hal_hcd.c ****   {
1251:Drivers/STM32L4xx_HAL_Driver/Src/stm32l4xx_hal_hcd.c ****     __HAL_HCD_CLEAR_HC_INT(chnum, USB_OTG_HCINT_DTERR);
 2333              		.loc 1 1251 5
 2334 0118 FB78     		ldrb	r3, [r7, #3]	@ zero_extendqisi2
 2335 011a 5A01     		lsls	r2, r3, #5
 2336 011c 3B69     		ldr	r3, [r7, #16]
 2337 011e 1344     		add	r3, r3, r2
 2338 0120 03F5A063 		add	r3, r3, #1280
 2339 0124 1A46     		mov	r2, r3
 2340 0126 4FF48063 		mov	r3, #1024
 2341 012a 9360     		str	r3, [r2, #8]
1252:Drivers/STM32L4xx_HAL_Driver/Src/stm32l4xx_hal_hcd.c ****     hhcd->hc[chnum].state = HC_DATATGLERR;
 2342              		.loc 1 1252 20
 2343 012c FB78     		ldrb	r3, [r7, #3]	@ zero_extendqisi2
 2344              		.loc 1 1252 27
 2345 012e 7A68     		ldr	r2, [r7, #4]
 2346 0130 3421     		movs	r1, #52
 2347 0132 01FB03F3 		mul	r3, r1, r3
 2348 0136 1344     		add	r3, r3, r2
 2349 0138 4533     		adds	r3, r3, #69
 2350 013a 0922     		movs	r2, #9
 2351 013c 1A70     		strb	r2, [r3]
1253:Drivers/STM32L4xx_HAL_Driver/Src/stm32l4xx_hal_hcd.c ****     (void)USB_HC_Halt(hhcd->Instance, chnum);
 2352              		.loc 1 1253 27
 2353 013e 7B68     		ldr	r3, [r7, #4]
 2354 0140 1B68     		ldr	r3, [r3]
 2355              		.loc 1 1253 11
 2356 0142 FA78     		ldrb	r2, [r7, #3]	@ zero_extendqisi2
 2357 0144 1146     		mov	r1, r2
 2358 0146 1846     		mov	r0, r3
 2359 0148 FFF7FEFF 		bl	USB_HC_Halt
 2360 014c 24E0     		b	.L99
 2361              	.L102:
1254:Drivers/STM32L4xx_HAL_Driver/Src/stm32l4xx_hal_hcd.c ****   }
1255:Drivers/STM32L4xx_HAL_Driver/Src/stm32l4xx_hal_hcd.c ****   else if (__HAL_HCD_GET_CH_FLAG(hhcd, chnum, USB_OTG_HCINT_TXERR))
 2362              		.loc 1 1255 12
 2363 014e 7B68     		ldr	r3, [r7, #4]
 2364 0150 1B68     		ldr	r3, [r3]
 2365 0152 FA78     		ldrb	r2, [r7, #3]	@ zero_extendqisi2
 2366 0154 1146     		mov	r1, r2
 2367 0156 1846     		mov	r0, r3
ARM GAS  /tmp/cchI0N5p.s 			page 64


 2368 0158 FFF7FEFF 		bl	USB_ReadChInterrupts
 2369 015c 0346     		mov	r3, r0
 2370              		.loc 1 1255 12 is_stmt 0 discriminator 1
 2371 015e 03F08003 		and	r3, r3, #128
 2372              		.loc 1 1255 11 is_stmt 1 discriminator 1
 2373 0162 802B     		cmp	r3, #128
 2374 0164 18D1     		bne	.L99
1256:Drivers/STM32L4xx_HAL_Driver/Src/stm32l4xx_hal_hcd.c ****   {
1257:Drivers/STM32L4xx_HAL_Driver/Src/stm32l4xx_hal_hcd.c ****     __HAL_HCD_CLEAR_HC_INT(chnum, USB_OTG_HCINT_TXERR);
 2375              		.loc 1 1257 5
 2376 0166 FB78     		ldrb	r3, [r7, #3]	@ zero_extendqisi2
 2377 0168 5A01     		lsls	r2, r3, #5
 2378 016a 3B69     		ldr	r3, [r7, #16]
 2379 016c 1344     		add	r3, r3, r2
 2380 016e 03F5A063 		add	r3, r3, #1280
 2381 0172 1A46     		mov	r2, r3
 2382 0174 8023     		movs	r3, #128
 2383 0176 9360     		str	r3, [r2, #8]
1258:Drivers/STM32L4xx_HAL_Driver/Src/stm32l4xx_hal_hcd.c ****     hhcd->hc[chnum].state = HC_XACTERR;
 2384              		.loc 1 1258 20
 2385 0178 FB78     		ldrb	r3, [r7, #3]	@ zero_extendqisi2
 2386              		.loc 1 1258 27
 2387 017a 7A68     		ldr	r2, [r7, #4]
 2388 017c 3421     		movs	r1, #52
 2389 017e 01FB03F3 		mul	r3, r1, r3
 2390 0182 1344     		add	r3, r3, r2
 2391 0184 4533     		adds	r3, r3, #69
 2392 0186 0722     		movs	r2, #7
 2393 0188 1A70     		strb	r2, [r3]
1259:Drivers/STM32L4xx_HAL_Driver/Src/stm32l4xx_hal_hcd.c ****     (void)USB_HC_Halt(hhcd->Instance, chnum);
 2394              		.loc 1 1259 27
 2395 018a 7B68     		ldr	r3, [r7, #4]
 2396 018c 1B68     		ldr	r3, [r3]
 2397              		.loc 1 1259 11
 2398 018e FA78     		ldrb	r2, [r7, #3]	@ zero_extendqisi2
 2399 0190 1146     		mov	r1, r2
 2400 0192 1846     		mov	r0, r3
 2401 0194 FFF7FEFF 		bl	USB_HC_Halt
 2402              	.L99:
1260:Drivers/STM32L4xx_HAL_Driver/Src/stm32l4xx_hal_hcd.c ****   }
1261:Drivers/STM32L4xx_HAL_Driver/Src/stm32l4xx_hal_hcd.c ****   else
1262:Drivers/STM32L4xx_HAL_Driver/Src/stm32l4xx_hal_hcd.c ****   {
1263:Drivers/STM32L4xx_HAL_Driver/Src/stm32l4xx_hal_hcd.c ****     /* ... */
1264:Drivers/STM32L4xx_HAL_Driver/Src/stm32l4xx_hal_hcd.c ****   }
1265:Drivers/STM32L4xx_HAL_Driver/Src/stm32l4xx_hal_hcd.c **** 
1266:Drivers/STM32L4xx_HAL_Driver/Src/stm32l4xx_hal_hcd.c ****   if (__HAL_HCD_GET_CH_FLAG(hhcd, chnum, USB_OTG_HCINT_FRMOR))
 2403              		.loc 1 1266 7
 2404 0198 7B68     		ldr	r3, [r7, #4]
 2405 019a 1B68     		ldr	r3, [r3]
 2406 019c FA78     		ldrb	r2, [r7, #3]	@ zero_extendqisi2
 2407 019e 1146     		mov	r1, r2
 2408 01a0 1846     		mov	r0, r3
 2409 01a2 FFF7FEFF 		bl	USB_ReadChInterrupts
 2410 01a6 0346     		mov	r3, r0
 2411              		.loc 1 1266 7 is_stmt 0 discriminator 1
 2412 01a8 03F40073 		and	r3, r3, #512
 2413              		.loc 1 1266 6 is_stmt 1 discriminator 1
ARM GAS  /tmp/cchI0N5p.s 			page 65


 2414 01ac B3F5007F 		cmp	r3, #512
 2415 01b0 11D1     		bne	.L103
1267:Drivers/STM32L4xx_HAL_Driver/Src/stm32l4xx_hal_hcd.c ****   {
1268:Drivers/STM32L4xx_HAL_Driver/Src/stm32l4xx_hal_hcd.c ****     (void)USB_HC_Halt(hhcd->Instance, chnum);
 2416              		.loc 1 1268 27
 2417 01b2 7B68     		ldr	r3, [r7, #4]
 2418 01b4 1B68     		ldr	r3, [r3]
 2419              		.loc 1 1268 11
 2420 01b6 FA78     		ldrb	r2, [r7, #3]	@ zero_extendqisi2
 2421 01b8 1146     		mov	r1, r2
 2422 01ba 1846     		mov	r0, r3
 2423 01bc FFF7FEFF 		bl	USB_HC_Halt
1269:Drivers/STM32L4xx_HAL_Driver/Src/stm32l4xx_hal_hcd.c ****     __HAL_HCD_CLEAR_HC_INT(chnum, USB_OTG_HCINT_FRMOR);
 2424              		.loc 1 1269 5
 2425 01c0 FB78     		ldrb	r3, [r7, #3]	@ zero_extendqisi2
 2426 01c2 5A01     		lsls	r2, r3, #5
 2427 01c4 3B69     		ldr	r3, [r7, #16]
 2428 01c6 1344     		add	r3, r3, r2
 2429 01c8 03F5A063 		add	r3, r3, #1280
 2430 01cc 1A46     		mov	r2, r3
 2431 01ce 4FF40073 		mov	r3, #512
 2432 01d2 9360     		str	r3, [r2, #8]
 2433 01d4 27E3     		b	.L97
 2434              	.L103:
1270:Drivers/STM32L4xx_HAL_Driver/Src/stm32l4xx_hal_hcd.c ****   }
1271:Drivers/STM32L4xx_HAL_Driver/Src/stm32l4xx_hal_hcd.c ****   else if (__HAL_HCD_GET_CH_FLAG(hhcd, chnum, USB_OTG_HCINT_XFRC))
 2435              		.loc 1 1271 12
 2436 01d6 7B68     		ldr	r3, [r7, #4]
 2437 01d8 1B68     		ldr	r3, [r3]
 2438 01da FA78     		ldrb	r2, [r7, #3]	@ zero_extendqisi2
 2439 01dc 1146     		mov	r1, r2
 2440 01de 1846     		mov	r0, r3
 2441 01e0 FFF7FEFF 		bl	USB_ReadChInterrupts
 2442 01e4 0346     		mov	r3, r0
 2443              		.loc 1 1271 12 is_stmt 0 discriminator 1
 2444 01e6 03F00103 		and	r3, r3, #1
 2445              		.loc 1 1271 11 is_stmt 1 discriminator 1
 2446 01ea 012B     		cmp	r3, #1
 2447 01ec 40F0C980 		bne	.L105
1272:Drivers/STM32L4xx_HAL_Driver/Src/stm32l4xx_hal_hcd.c ****   {
1273:Drivers/STM32L4xx_HAL_Driver/Src/stm32l4xx_hal_hcd.c ****     hhcd->hc[chnum].state = HC_XFRC;
 2448              		.loc 1 1273 20
 2449 01f0 FB78     		ldrb	r3, [r7, #3]	@ zero_extendqisi2
 2450              		.loc 1 1273 27
 2451 01f2 7A68     		ldr	r2, [r7, #4]
 2452 01f4 3421     		movs	r1, #52
 2453 01f6 01FB03F3 		mul	r3, r1, r3
 2454 01fa 1344     		add	r3, r3, r2
 2455 01fc 4533     		adds	r3, r3, #69
 2456 01fe 0122     		movs	r2, #1
 2457 0200 1A70     		strb	r2, [r3]
1274:Drivers/STM32L4xx_HAL_Driver/Src/stm32l4xx_hal_hcd.c ****     hhcd->hc[chnum].ErrCnt = 0U;
 2458              		.loc 1 1274 20
 2459 0202 FB78     		ldrb	r3, [r7, #3]	@ zero_extendqisi2
 2460              		.loc 1 1274 28
 2461 0204 7A68     		ldr	r2, [r7, #4]
 2462 0206 3421     		movs	r1, #52
ARM GAS  /tmp/cchI0N5p.s 			page 66


 2463 0208 01FB03F3 		mul	r3, r1, r3
 2464 020c 1344     		add	r3, r3, r2
 2465 020e 4033     		adds	r3, r3, #64
 2466 0210 0022     		movs	r2, #0
 2467 0212 1A60     		str	r2, [r3]
1275:Drivers/STM32L4xx_HAL_Driver/Src/stm32l4xx_hal_hcd.c ****     __HAL_HCD_CLEAR_HC_INT(chnum, USB_OTG_HCINT_XFRC);
 2468              		.loc 1 1275 5
 2469 0214 FB78     		ldrb	r3, [r7, #3]	@ zero_extendqisi2
 2470 0216 5A01     		lsls	r2, r3, #5
 2471 0218 3B69     		ldr	r3, [r7, #16]
 2472 021a 1344     		add	r3, r3, r2
 2473 021c 03F5A063 		add	r3, r3, #1280
 2474 0220 1A46     		mov	r2, r3
 2475 0222 0123     		movs	r3, #1
 2476 0224 9360     		str	r3, [r2, #8]
1276:Drivers/STM32L4xx_HAL_Driver/Src/stm32l4xx_hal_hcd.c **** 
1277:Drivers/STM32L4xx_HAL_Driver/Src/stm32l4xx_hal_hcd.c ****     if ((hhcd->hc[chnum].ep_type == EP_TYPE_CTRL) ||
 2477              		.loc 1 1277 25
 2478 0226 FB78     		ldrb	r3, [r7, #3]	@ zero_extendqisi2
 2479 0228 7A68     		ldr	r2, [r7, #4]
 2480 022a 3421     		movs	r1, #52
 2481 022c 01FB03F3 		mul	r3, r1, r3
 2482 0230 1344     		add	r3, r3, r2
 2483 0232 1D33     		adds	r3, r3, #29
 2484 0234 1B78     		ldrb	r3, [r3]	@ zero_extendqisi2
 2485              		.loc 1 1277 8
 2486 0236 002B     		cmp	r3, #0
 2487 0238 09D0     		beq	.L106
1278:Drivers/STM32L4xx_HAL_Driver/Src/stm32l4xx_hal_hcd.c ****         (hhcd->hc[chnum].ep_type == EP_TYPE_BULK))
 2488              		.loc 1 1278 25
 2489 023a FB78     		ldrb	r3, [r7, #3]	@ zero_extendqisi2
 2490 023c 7A68     		ldr	r2, [r7, #4]
 2491 023e 3421     		movs	r1, #52
 2492 0240 01FB03F3 		mul	r3, r1, r3
 2493 0244 1344     		add	r3, r3, r2
 2494 0246 1D33     		adds	r3, r3, #29
 2495 0248 1B78     		ldrb	r3, [r3]	@ zero_extendqisi2
1277:Drivers/STM32L4xx_HAL_Driver/Src/stm32l4xx_hal_hcd.c ****         (hhcd->hc[chnum].ep_type == EP_TYPE_BULK))
 2496              		.loc 1 1277 51 discriminator 1
 2497 024a 022B     		cmp	r3, #2
 2498 024c 10D1     		bne	.L107
 2499              	.L106:
1279:Drivers/STM32L4xx_HAL_Driver/Src/stm32l4xx_hal_hcd.c ****     {
1280:Drivers/STM32L4xx_HAL_Driver/Src/stm32l4xx_hal_hcd.c ****       (void)USB_HC_Halt(hhcd->Instance, chnum);
 2500              		.loc 1 1280 29
 2501 024e 7B68     		ldr	r3, [r7, #4]
 2502 0250 1B68     		ldr	r3, [r3]
 2503              		.loc 1 1280 13
 2504 0252 FA78     		ldrb	r2, [r7, #3]	@ zero_extendqisi2
 2505 0254 1146     		mov	r1, r2
 2506 0256 1846     		mov	r0, r3
 2507 0258 FFF7FEFF 		bl	USB_HC_Halt
1281:Drivers/STM32L4xx_HAL_Driver/Src/stm32l4xx_hal_hcd.c ****       __HAL_HCD_CLEAR_HC_INT(chnum, USB_OTG_HCINT_NAK);
 2508              		.loc 1 1281 7
 2509 025c FB78     		ldrb	r3, [r7, #3]	@ zero_extendqisi2
 2510 025e 5A01     		lsls	r2, r3, #5
 2511 0260 3B69     		ldr	r3, [r7, #16]
ARM GAS  /tmp/cchI0N5p.s 			page 67


 2512 0262 1344     		add	r3, r3, r2
 2513 0264 03F5A063 		add	r3, r3, #1280
 2514 0268 1A46     		mov	r2, r3
 2515 026a 1023     		movs	r3, #16
 2516 026c 9360     		str	r3, [r2, #8]
 2517 026e 39E0     		b	.L108
 2518              	.L107:
1282:Drivers/STM32L4xx_HAL_Driver/Src/stm32l4xx_hal_hcd.c ****     }
1283:Drivers/STM32L4xx_HAL_Driver/Src/stm32l4xx_hal_hcd.c ****     else if ((hhcd->hc[chnum].ep_type == EP_TYPE_INTR) ||
 2519              		.loc 1 1283 30
 2520 0270 FB78     		ldrb	r3, [r7, #3]	@ zero_extendqisi2
 2521 0272 7A68     		ldr	r2, [r7, #4]
 2522 0274 3421     		movs	r1, #52
 2523 0276 01FB03F3 		mul	r3, r1, r3
 2524 027a 1344     		add	r3, r3, r2
 2525 027c 1D33     		adds	r3, r3, #29
 2526 027e 1B78     		ldrb	r3, [r3]	@ zero_extendqisi2
 2527              		.loc 1 1283 13
 2528 0280 032B     		cmp	r3, #3
 2529 0282 09D0     		beq	.L109
1284:Drivers/STM32L4xx_HAL_Driver/Src/stm32l4xx_hal_hcd.c ****              (hhcd->hc[chnum].ep_type == EP_TYPE_ISOC))
 2530              		.loc 1 1284 30
 2531 0284 FB78     		ldrb	r3, [r7, #3]	@ zero_extendqisi2
 2532 0286 7A68     		ldr	r2, [r7, #4]
 2533 0288 3421     		movs	r1, #52
 2534 028a 01FB03F3 		mul	r3, r1, r3
 2535 028e 1344     		add	r3, r3, r2
 2536 0290 1D33     		adds	r3, r3, #29
 2537 0292 1B78     		ldrb	r3, [r3]	@ zero_extendqisi2
1283:Drivers/STM32L4xx_HAL_Driver/Src/stm32l4xx_hal_hcd.c ****              (hhcd->hc[chnum].ep_type == EP_TYPE_ISOC))
 2538              		.loc 1 1283 56 discriminator 1
 2539 0294 012B     		cmp	r3, #1
 2540 0296 25D1     		bne	.L108
 2541              	.L109:
1285:Drivers/STM32L4xx_HAL_Driver/Src/stm32l4xx_hal_hcd.c ****     {
1286:Drivers/STM32L4xx_HAL_Driver/Src/stm32l4xx_hal_hcd.c ****       USBx_HC(chnum)->HCCHAR |= USB_OTG_HCCHAR_ODDFRM;
 2542              		.loc 1 1286 21
 2543 0298 FB78     		ldrb	r3, [r7, #3]	@ zero_extendqisi2
 2544 029a 5A01     		lsls	r2, r3, #5
 2545 029c 3B69     		ldr	r3, [r7, #16]
 2546 029e 1344     		add	r3, r3, r2
 2547 02a0 03F5A063 		add	r3, r3, #1280
 2548 02a4 1B68     		ldr	r3, [r3]
 2549 02a6 FA78     		ldrb	r2, [r7, #3]	@ zero_extendqisi2
 2550 02a8 5101     		lsls	r1, r2, #5
 2551 02aa 3A69     		ldr	r2, [r7, #16]
 2552 02ac 0A44     		add	r2, r2, r1
 2553 02ae 02F5A062 		add	r2, r2, #1280
 2554              		.loc 1 1286 30
 2555 02b2 43F00053 		orr	r3, r3, #536870912
 2556 02b6 1360     		str	r3, [r2]
1287:Drivers/STM32L4xx_HAL_Driver/Src/stm32l4xx_hal_hcd.c ****       hhcd->hc[chnum].urb_state = URB_DONE;
 2557              		.loc 1 1287 22
 2558 02b8 FB78     		ldrb	r3, [r7, #3]	@ zero_extendqisi2
 2559              		.loc 1 1287 33
 2560 02ba 7A68     		ldr	r2, [r7, #4]
 2561 02bc 3421     		movs	r1, #52
ARM GAS  /tmp/cchI0N5p.s 			page 68


 2562 02be 01FB03F3 		mul	r3, r1, r3
 2563 02c2 1344     		add	r3, r3, r2
 2564 02c4 4433     		adds	r3, r3, #68
 2565 02c6 0122     		movs	r2, #1
 2566 02c8 1A70     		strb	r2, [r3]
1288:Drivers/STM32L4xx_HAL_Driver/Src/stm32l4xx_hal_hcd.c **** 
1289:Drivers/STM32L4xx_HAL_Driver/Src/stm32l4xx_hal_hcd.c **** #if (USE_HAL_HCD_REGISTER_CALLBACKS == 1U)
1290:Drivers/STM32L4xx_HAL_Driver/Src/stm32l4xx_hal_hcd.c ****       hhcd->HC_NotifyURBChangeCallback(hhcd, chnum, hhcd->hc[chnum].urb_state);
1291:Drivers/STM32L4xx_HAL_Driver/Src/stm32l4xx_hal_hcd.c **** #else
1292:Drivers/STM32L4xx_HAL_Driver/Src/stm32l4xx_hal_hcd.c ****       HAL_HCD_HC_NotifyURBChange_Callback(hhcd, chnum, hhcd->hc[chnum].urb_state);
 2567              		.loc 1 1292 7
 2568 02ca FB78     		ldrb	r3, [r7, #3]	@ zero_extendqisi2
 2569 02cc 7A68     		ldr	r2, [r7, #4]
 2570 02ce 3421     		movs	r1, #52
 2571 02d0 01FB03F3 		mul	r3, r1, r3
 2572 02d4 1344     		add	r3, r3, r2
 2573 02d6 4433     		adds	r3, r3, #68
 2574 02d8 1A78     		ldrb	r2, [r3]	@ zero_extendqisi2
 2575 02da FB78     		ldrb	r3, [r7, #3]	@ zero_extendqisi2
 2576 02dc 1946     		mov	r1, r3
 2577 02de 7868     		ldr	r0, [r7, #4]
 2578 02e0 FFF7FEFF 		bl	HAL_HCD_HC_NotifyURBChange_Callback
 2579              	.L108:
1293:Drivers/STM32L4xx_HAL_Driver/Src/stm32l4xx_hal_hcd.c **** #endif /* USE_HAL_HCD_REGISTER_CALLBACKS */
1294:Drivers/STM32L4xx_HAL_Driver/Src/stm32l4xx_hal_hcd.c ****     }
1295:Drivers/STM32L4xx_HAL_Driver/Src/stm32l4xx_hal_hcd.c ****     else
1296:Drivers/STM32L4xx_HAL_Driver/Src/stm32l4xx_hal_hcd.c ****     {
1297:Drivers/STM32L4xx_HAL_Driver/Src/stm32l4xx_hal_hcd.c ****       /* ... */
1298:Drivers/STM32L4xx_HAL_Driver/Src/stm32l4xx_hal_hcd.c ****     }
1299:Drivers/STM32L4xx_HAL_Driver/Src/stm32l4xx_hal_hcd.c **** 
1300:Drivers/STM32L4xx_HAL_Driver/Src/stm32l4xx_hal_hcd.c ****     if (hhcd->Init.dma_enable == 1U)
 2580              		.loc 1 1300 19
 2581 02e4 7B68     		ldr	r3, [r7, #4]
 2582 02e6 9B79     		ldrb	r3, [r3, #6]	@ zero_extendqisi2
 2583              		.loc 1 1300 8
 2584 02e8 012B     		cmp	r3, #1
 2585 02ea 35D1     		bne	.L110
1301:Drivers/STM32L4xx_HAL_Driver/Src/stm32l4xx_hal_hcd.c ****     {
1302:Drivers/STM32L4xx_HAL_Driver/Src/stm32l4xx_hal_hcd.c ****       if ((((hhcd->hc[chnum].xfer_count + hhcd->hc[chnum].max_packet - 1U) / hhcd->hc[chnum].max_pa
 2586              		.loc 1 1302 29
 2587 02ec FB78     		ldrb	r3, [r7, #3]	@ zero_extendqisi2
 2588 02ee 7A68     		ldr	r2, [r7, #4]
 2589 02f0 3421     		movs	r1, #52
 2590 02f2 01FB03F3 		mul	r3, r1, r3
 2591 02f6 1344     		add	r3, r3, r2
 2592 02f8 3033     		adds	r3, r3, #48
 2593 02fa 1B68     		ldr	r3, [r3]
 2594              		.loc 1 1302 58
 2595 02fc FA78     		ldrb	r2, [r7, #3]	@ zero_extendqisi2
 2596 02fe 7968     		ldr	r1, [r7, #4]
 2597 0300 3420     		movs	r0, #52
 2598 0302 00FB02F2 		mul	r2, r0, r2
 2599 0306 0A44     		add	r2, r2, r1
 2600 0308 1E32     		adds	r2, r2, #30
 2601 030a 1288     		ldrh	r2, [r2]
 2602              		.loc 1 1302 41
 2603 030c 1344     		add	r3, r3, r2
ARM GAS  /tmp/cchI0N5p.s 			page 69


 2604              		.loc 1 1302 70
 2605 030e 013B     		subs	r3, r3, #1
 2606              		.loc 1 1302 93
 2607 0310 FA78     		ldrb	r2, [r7, #3]	@ zero_extendqisi2
 2608 0312 7968     		ldr	r1, [r7, #4]
 2609 0314 3420     		movs	r0, #52
 2610 0316 00FB02F2 		mul	r2, r0, r2
 2611 031a 0A44     		add	r2, r2, r1
 2612 031c 1E32     		adds	r2, r2, #30
 2613 031e 1288     		ldrh	r2, [r2]
 2614              		.loc 1 1302 76
 2615 0320 B3FBF2F3 		udiv	r3, r3, r2
 2616              		.loc 1 1302 106
 2617 0324 03F00103 		and	r3, r3, #1
 2618              		.loc 1 1302 10
 2619 0328 002B     		cmp	r3, #0
 2620 032a 00F07C82 		beq	.L97
1303:Drivers/STM32L4xx_HAL_Driver/Src/stm32l4xx_hal_hcd.c ****       {
1304:Drivers/STM32L4xx_HAL_Driver/Src/stm32l4xx_hal_hcd.c ****         hhcd->hc[chnum].toggle_in ^= 1U;
 2621              		.loc 1 1304 24
 2622 032e FB78     		ldrb	r3, [r7, #3]	@ zero_extendqisi2
 2623 0330 7A68     		ldr	r2, [r7, #4]
 2624 0332 3421     		movs	r1, #52
 2625 0334 01FB03F3 		mul	r3, r1, r3
 2626 0338 1344     		add	r3, r3, r2
 2627 033a 3433     		adds	r3, r3, #52
 2628 033c 1A78     		ldrb	r2, [r3]	@ zero_extendqisi2
 2629 033e FB78     		ldrb	r3, [r7, #3]	@ zero_extendqisi2
 2630              		.loc 1 1304 35
 2631 0340 82F00102 		eor	r2, r2, #1
 2632 0344 D0B2     		uxtb	r0, r2
 2633 0346 7A68     		ldr	r2, [r7, #4]
 2634 0348 3421     		movs	r1, #52
 2635 034a 01FB03F3 		mul	r3, r1, r3
 2636 034e 1344     		add	r3, r3, r2
 2637 0350 3433     		adds	r3, r3, #52
 2638 0352 0246     		mov	r2, r0
 2639 0354 1A70     		strb	r2, [r3]
 2640 0356 66E2     		b	.L97
 2641              	.L110:
1305:Drivers/STM32L4xx_HAL_Driver/Src/stm32l4xx_hal_hcd.c ****       }
1306:Drivers/STM32L4xx_HAL_Driver/Src/stm32l4xx_hal_hcd.c ****     }
1307:Drivers/STM32L4xx_HAL_Driver/Src/stm32l4xx_hal_hcd.c ****     else
1308:Drivers/STM32L4xx_HAL_Driver/Src/stm32l4xx_hal_hcd.c ****     {
1309:Drivers/STM32L4xx_HAL_Driver/Src/stm32l4xx_hal_hcd.c ****       hhcd->hc[chnum].toggle_in ^= 1U;
 2642              		.loc 1 1309 22
 2643 0358 FB78     		ldrb	r3, [r7, #3]	@ zero_extendqisi2
 2644 035a 7A68     		ldr	r2, [r7, #4]
 2645 035c 3421     		movs	r1, #52
 2646 035e 01FB03F3 		mul	r3, r1, r3
 2647 0362 1344     		add	r3, r3, r2
 2648 0364 3433     		adds	r3, r3, #52
 2649 0366 1A78     		ldrb	r2, [r3]	@ zero_extendqisi2
 2650 0368 FB78     		ldrb	r3, [r7, #3]	@ zero_extendqisi2
 2651              		.loc 1 1309 33
 2652 036a 82F00102 		eor	r2, r2, #1
 2653 036e D0B2     		uxtb	r0, r2
ARM GAS  /tmp/cchI0N5p.s 			page 70


 2654 0370 7A68     		ldr	r2, [r7, #4]
 2655 0372 3421     		movs	r1, #52
 2656 0374 01FB03F3 		mul	r3, r1, r3
 2657 0378 1344     		add	r3, r3, r2
 2658 037a 3433     		adds	r3, r3, #52
 2659 037c 0246     		mov	r2, r0
 2660 037e 1A70     		strb	r2, [r3]
 2661 0380 51E2     		b	.L97
 2662              	.L105:
1310:Drivers/STM32L4xx_HAL_Driver/Src/stm32l4xx_hal_hcd.c ****     }
1311:Drivers/STM32L4xx_HAL_Driver/Src/stm32l4xx_hal_hcd.c ****   }
1312:Drivers/STM32L4xx_HAL_Driver/Src/stm32l4xx_hal_hcd.c ****   else if (__HAL_HCD_GET_CH_FLAG(hhcd, chnum, USB_OTG_HCINT_ACK))
 2663              		.loc 1 1312 12
 2664 0382 7B68     		ldr	r3, [r7, #4]
 2665 0384 1B68     		ldr	r3, [r3]
 2666 0386 FA78     		ldrb	r2, [r7, #3]	@ zero_extendqisi2
 2667 0388 1146     		mov	r1, r2
 2668 038a 1846     		mov	r0, r3
 2669 038c FFF7FEFF 		bl	USB_ReadChInterrupts
 2670 0390 0346     		mov	r3, r0
 2671              		.loc 1 1312 12 is_stmt 0 discriminator 1
 2672 0392 03F02003 		and	r3, r3, #32
 2673              		.loc 1 1312 11 is_stmt 1 discriminator 1
 2674 0396 202B     		cmp	r3, #32
 2675 0398 12D1     		bne	.L111
1313:Drivers/STM32L4xx_HAL_Driver/Src/stm32l4xx_hal_hcd.c ****   {
1314:Drivers/STM32L4xx_HAL_Driver/Src/stm32l4xx_hal_hcd.c ****     __HAL_HCD_CLEAR_HC_INT(chnum, USB_OTG_HCINT_ACK);
 2676              		.loc 1 1314 5
 2677 039a FB78     		ldrb	r3, [r7, #3]	@ zero_extendqisi2
 2678 039c 5A01     		lsls	r2, r3, #5
 2679 039e 3B69     		ldr	r3, [r7, #16]
 2680 03a0 1344     		add	r3, r3, r2
 2681 03a2 03F5A063 		add	r3, r3, #1280
 2682 03a6 1A46     		mov	r2, r3
 2683 03a8 2023     		movs	r3, #32
 2684 03aa 9360     		str	r3, [r2, #8]
1315:Drivers/STM32L4xx_HAL_Driver/Src/stm32l4xx_hal_hcd.c **** 
1316:Drivers/STM32L4xx_HAL_Driver/Src/stm32l4xx_hal_hcd.c ****     hhcd->hc[chnum].NakCnt = 0U;
 2685              		.loc 1 1316 20
 2686 03ac FB78     		ldrb	r3, [r7, #3]	@ zero_extendqisi2
 2687              		.loc 1 1316 28
 2688 03ae 7A68     		ldr	r2, [r7, #4]
 2689 03b0 3421     		movs	r1, #52
 2690 03b2 01FB03F3 		mul	r3, r1, r3
 2691 03b6 1344     		add	r3, r3, r2
 2692 03b8 3C33     		adds	r3, r3, #60
 2693 03ba 0022     		movs	r2, #0
 2694 03bc 1A60     		str	r2, [r3]
 2695 03be 32E2     		b	.L97
 2696              	.L111:
1317:Drivers/STM32L4xx_HAL_Driver/Src/stm32l4xx_hal_hcd.c ****   }
1318:Drivers/STM32L4xx_HAL_Driver/Src/stm32l4xx_hal_hcd.c ****   else if (__HAL_HCD_GET_CH_FLAG(hhcd, chnum, USB_OTG_HCINT_CHH))
 2697              		.loc 1 1318 12
 2698 03c0 7B68     		ldr	r3, [r7, #4]
 2699 03c2 1B68     		ldr	r3, [r3]
 2700 03c4 FA78     		ldrb	r2, [r7, #3]	@ zero_extendqisi2
 2701 03c6 1146     		mov	r1, r2
ARM GAS  /tmp/cchI0N5p.s 			page 71


 2702 03c8 1846     		mov	r0, r3
 2703 03ca FFF7FEFF 		bl	USB_ReadChInterrupts
 2704 03ce 0346     		mov	r3, r0
 2705              		.loc 1 1318 12 is_stmt 0 discriminator 1
 2706 03d0 03F00203 		and	r3, r3, #2
 2707              		.loc 1 1318 11 is_stmt 1 discriminator 1
 2708 03d4 022B     		cmp	r3, #2
 2709 03d6 40F08D81 		bne	.L112
1319:Drivers/STM32L4xx_HAL_Driver/Src/stm32l4xx_hal_hcd.c ****   {
1320:Drivers/STM32L4xx_HAL_Driver/Src/stm32l4xx_hal_hcd.c ****     __HAL_HCD_CLEAR_HC_INT(chnum, USB_OTG_HCINT_CHH);
 2710              		.loc 1 1320 5
 2711 03da FB78     		ldrb	r3, [r7, #3]	@ zero_extendqisi2
 2712 03dc 5A01     		lsls	r2, r3, #5
 2713 03de 3B69     		ldr	r3, [r7, #16]
 2714 03e0 1344     		add	r3, r3, r2
 2715 03e2 03F5A063 		add	r3, r3, #1280
 2716 03e6 1A46     		mov	r2, r3
 2717 03e8 0223     		movs	r3, #2
 2718 03ea 9360     		str	r3, [r2, #8]
1321:Drivers/STM32L4xx_HAL_Driver/Src/stm32l4xx_hal_hcd.c **** 
1322:Drivers/STM32L4xx_HAL_Driver/Src/stm32l4xx_hal_hcd.c ****     tmpreg = USBx_HC(chnum)->HCCHAR;
 2719              		.loc 1 1322 14
 2720 03ec FB78     		ldrb	r3, [r7, #3]	@ zero_extendqisi2
 2721 03ee 5A01     		lsls	r2, r3, #5
 2722 03f0 3B69     		ldr	r3, [r7, #16]
 2723 03f2 1344     		add	r3, r3, r2
 2724 03f4 03F5A063 		add	r3, r3, #1280
 2725              		.loc 1 1322 12
 2726 03f8 1B68     		ldr	r3, [r3]
 2727 03fa FB60     		str	r3, [r7, #12]
1323:Drivers/STM32L4xx_HAL_Driver/Src/stm32l4xx_hal_hcd.c **** 
1324:Drivers/STM32L4xx_HAL_Driver/Src/stm32l4xx_hal_hcd.c ****     if ((tmpreg & USB_OTG_HCCHAR_CHDIS) != 0U)
 2728              		.loc 1 1324 17
 2729 03fc FB68     		ldr	r3, [r7, #12]
 2730 03fe 03F08043 		and	r3, r3, #1073741824
 2731              		.loc 1 1324 8
 2732 0402 002B     		cmp	r3, #0
 2733 0404 40F00C82 		bne	.L131
1325:Drivers/STM32L4xx_HAL_Driver/Src/stm32l4xx_hal_hcd.c ****     {
1326:Drivers/STM32L4xx_HAL_Driver/Src/stm32l4xx_hal_hcd.c ****       /* Halt received while channel disable still in progress */
1327:Drivers/STM32L4xx_HAL_Driver/Src/stm32l4xx_hal_hcd.c ****       return;
1328:Drivers/STM32L4xx_HAL_Driver/Src/stm32l4xx_hal_hcd.c ****     }
1329:Drivers/STM32L4xx_HAL_Driver/Src/stm32l4xx_hal_hcd.c **** 
1330:Drivers/STM32L4xx_HAL_Driver/Src/stm32l4xx_hal_hcd.c ****     if (hhcd->hc[chnum].state == HC_XFRC)
 2734              		.loc 1 1330 24
 2735 0408 FB78     		ldrb	r3, [r7, #3]	@ zero_extendqisi2
 2736 040a 7A68     		ldr	r2, [r7, #4]
 2737 040c 3421     		movs	r1, #52
 2738 040e 01FB03F3 		mul	r3, r1, r3
 2739 0412 1344     		add	r3, r3, r2
 2740 0414 4533     		adds	r3, r3, #69
 2741 0416 1B78     		ldrb	r3, [r3]	@ zero_extendqisi2
 2742              		.loc 1 1330 8
 2743 0418 012B     		cmp	r3, #1
 2744 041a 12D1     		bne	.L114
1331:Drivers/STM32L4xx_HAL_Driver/Src/stm32l4xx_hal_hcd.c ****     {
1332:Drivers/STM32L4xx_HAL_Driver/Src/stm32l4xx_hal_hcd.c ****       hhcd->hc[chnum].state = HC_HALTED;
ARM GAS  /tmp/cchI0N5p.s 			page 72


 2745              		.loc 1 1332 22
 2746 041c FB78     		ldrb	r3, [r7, #3]	@ zero_extendqisi2
 2747              		.loc 1 1332 29
 2748 041e 7A68     		ldr	r2, [r7, #4]
 2749 0420 3421     		movs	r1, #52
 2750 0422 01FB03F3 		mul	r3, r1, r3
 2751 0426 1344     		add	r3, r3, r2
 2752 0428 4533     		adds	r3, r3, #69
 2753 042a 0222     		movs	r2, #2
 2754 042c 1A70     		strb	r2, [r3]
1333:Drivers/STM32L4xx_HAL_Driver/Src/stm32l4xx_hal_hcd.c ****       hhcd->hc[chnum].urb_state = URB_DONE;
 2755              		.loc 1 1333 22
 2756 042e FB78     		ldrb	r3, [r7, #3]	@ zero_extendqisi2
 2757              		.loc 1 1333 33
 2758 0430 7A68     		ldr	r2, [r7, #4]
 2759 0432 3421     		movs	r1, #52
 2760 0434 01FB03F3 		mul	r3, r1, r3
 2761 0438 1344     		add	r3, r3, r2
 2762 043a 4433     		adds	r3, r3, #68
 2763 043c 0122     		movs	r2, #1
 2764 043e 1A70     		strb	r2, [r3]
 2765 0440 4AE1     		b	.L115
 2766              	.L114:
1334:Drivers/STM32L4xx_HAL_Driver/Src/stm32l4xx_hal_hcd.c ****     }
1335:Drivers/STM32L4xx_HAL_Driver/Src/stm32l4xx_hal_hcd.c ****     else if (hhcd->hc[chnum].state == HC_STALL)
 2767              		.loc 1 1335 29
 2768 0442 FB78     		ldrb	r3, [r7, #3]	@ zero_extendqisi2
 2769 0444 7A68     		ldr	r2, [r7, #4]
 2770 0446 3421     		movs	r1, #52
 2771 0448 01FB03F3 		mul	r3, r1, r3
 2772 044c 1344     		add	r3, r3, r2
 2773 044e 4533     		adds	r3, r3, #69
 2774 0450 1B78     		ldrb	r3, [r3]	@ zero_extendqisi2
 2775              		.loc 1 1335 13
 2776 0452 062B     		cmp	r3, #6
 2777 0454 12D1     		bne	.L116
1336:Drivers/STM32L4xx_HAL_Driver/Src/stm32l4xx_hal_hcd.c ****     {
1337:Drivers/STM32L4xx_HAL_Driver/Src/stm32l4xx_hal_hcd.c ****       hhcd->hc[chnum].state = HC_HALTED;
 2778              		.loc 1 1337 22
 2779 0456 FB78     		ldrb	r3, [r7, #3]	@ zero_extendqisi2
 2780              		.loc 1 1337 29
 2781 0458 7A68     		ldr	r2, [r7, #4]
 2782 045a 3421     		movs	r1, #52
 2783 045c 01FB03F3 		mul	r3, r1, r3
 2784 0460 1344     		add	r3, r3, r2
 2785 0462 4533     		adds	r3, r3, #69
 2786 0464 0222     		movs	r2, #2
 2787 0466 1A70     		strb	r2, [r3]
1338:Drivers/STM32L4xx_HAL_Driver/Src/stm32l4xx_hal_hcd.c ****       hhcd->hc[chnum].urb_state = URB_STALL;
 2788              		.loc 1 1338 22
 2789 0468 FB78     		ldrb	r3, [r7, #3]	@ zero_extendqisi2
 2790              		.loc 1 1338 33
 2791 046a 7A68     		ldr	r2, [r7, #4]
 2792 046c 3421     		movs	r1, #52
 2793 046e 01FB03F3 		mul	r3, r1, r3
 2794 0472 1344     		add	r3, r3, r2
 2795 0474 4433     		adds	r3, r3, #68
ARM GAS  /tmp/cchI0N5p.s 			page 73


 2796 0476 0522     		movs	r2, #5
 2797 0478 1A70     		strb	r2, [r3]
 2798 047a 2DE1     		b	.L115
 2799              	.L116:
1339:Drivers/STM32L4xx_HAL_Driver/Src/stm32l4xx_hal_hcd.c ****     }
1340:Drivers/STM32L4xx_HAL_Driver/Src/stm32l4xx_hal_hcd.c ****     else if ((hhcd->hc[chnum].state == HC_XACTERR) ||
 2800              		.loc 1 1340 30
 2801 047c FB78     		ldrb	r3, [r7, #3]	@ zero_extendqisi2
 2802 047e 7A68     		ldr	r2, [r7, #4]
 2803 0480 3421     		movs	r1, #52
 2804 0482 01FB03F3 		mul	r3, r1, r3
 2805 0486 1344     		add	r3, r3, r2
 2806 0488 4533     		adds	r3, r3, #69
 2807 048a 1B78     		ldrb	r3, [r3]	@ zero_extendqisi2
 2808              		.loc 1 1340 13
 2809 048c 072B     		cmp	r3, #7
 2810 048e 09D0     		beq	.L117
1341:Drivers/STM32L4xx_HAL_Driver/Src/stm32l4xx_hal_hcd.c ****              (hhcd->hc[chnum].state == HC_DATATGLERR))
 2811              		.loc 1 1341 30
 2812 0490 FB78     		ldrb	r3, [r7, #3]	@ zero_extendqisi2
 2813 0492 7A68     		ldr	r2, [r7, #4]
 2814 0494 3421     		movs	r1, #52
 2815 0496 01FB03F3 		mul	r3, r1, r3
 2816 049a 1344     		add	r3, r3, r2
 2817 049c 4533     		adds	r3, r3, #69
 2818 049e 1B78     		ldrb	r3, [r3]	@ zero_extendqisi2
1340:Drivers/STM32L4xx_HAL_Driver/Src/stm32l4xx_hal_hcd.c ****              (hhcd->hc[chnum].state == HC_DATATGLERR))
 2819              		.loc 1 1340 52 discriminator 1
 2820 04a0 092B     		cmp	r3, #9
 2821 04a2 6DD1     		bne	.L118
 2822              	.L117:
1342:Drivers/STM32L4xx_HAL_Driver/Src/stm32l4xx_hal_hcd.c ****     {
1343:Drivers/STM32L4xx_HAL_Driver/Src/stm32l4xx_hal_hcd.c ****       hhcd->hc[chnum].state = HC_HALTED;
 2823              		.loc 1 1343 22
 2824 04a4 FB78     		ldrb	r3, [r7, #3]	@ zero_extendqisi2
 2825              		.loc 1 1343 29
 2826 04a6 7A68     		ldr	r2, [r7, #4]
 2827 04a8 3421     		movs	r1, #52
 2828 04aa 01FB03F3 		mul	r3, r1, r3
 2829 04ae 1344     		add	r3, r3, r2
 2830 04b0 4533     		adds	r3, r3, #69
 2831 04b2 0222     		movs	r2, #2
 2832 04b4 1A70     		strb	r2, [r3]
1344:Drivers/STM32L4xx_HAL_Driver/Src/stm32l4xx_hal_hcd.c ****       hhcd->hc[chnum].ErrCnt++;
 2833              		.loc 1 1344 22
 2834 04b6 FB78     		ldrb	r3, [r7, #3]	@ zero_extendqisi2
 2835 04b8 7968     		ldr	r1, [r7, #4]
 2836 04ba 3422     		movs	r2, #52
 2837 04bc 03FB02F2 		mul	r2, r3, r2
 2838 04c0 0A44     		add	r2, r2, r1
 2839 04c2 4032     		adds	r2, r2, #64
 2840 04c4 1268     		ldr	r2, [r2]
 2841              		.loc 1 1344 29
 2842 04c6 0132     		adds	r2, r2, #1
 2843 04c8 7968     		ldr	r1, [r7, #4]
 2844 04ca 3420     		movs	r0, #52
 2845 04cc 00FB03F3 		mul	r3, r0, r3
ARM GAS  /tmp/cchI0N5p.s 			page 74


 2846 04d0 0B44     		add	r3, r3, r1
 2847 04d2 4033     		adds	r3, r3, #64
 2848 04d4 1A60     		str	r2, [r3]
1345:Drivers/STM32L4xx_HAL_Driver/Src/stm32l4xx_hal_hcd.c **** 
1346:Drivers/STM32L4xx_HAL_Driver/Src/stm32l4xx_hal_hcd.c ****       if (hhcd->hc[chnum].ErrCnt > 2U)
 2849              		.loc 1 1346 26
 2850 04d6 FB78     		ldrb	r3, [r7, #3]	@ zero_extendqisi2
 2851 04d8 7A68     		ldr	r2, [r7, #4]
 2852 04da 3421     		movs	r1, #52
 2853 04dc 01FB03F3 		mul	r3, r1, r3
 2854 04e0 1344     		add	r3, r3, r2
 2855 04e2 4033     		adds	r3, r3, #64
 2856 04e4 1B68     		ldr	r3, [r3]
 2857              		.loc 1 1346 10
 2858 04e6 022B     		cmp	r3, #2
 2859 04e8 12D9     		bls	.L119
1347:Drivers/STM32L4xx_HAL_Driver/Src/stm32l4xx_hal_hcd.c ****       {
1348:Drivers/STM32L4xx_HAL_Driver/Src/stm32l4xx_hal_hcd.c ****         hhcd->hc[chnum].ErrCnt = 0U;
 2860              		.loc 1 1348 24
 2861 04ea FB78     		ldrb	r3, [r7, #3]	@ zero_extendqisi2
 2862              		.loc 1 1348 32
 2863 04ec 7A68     		ldr	r2, [r7, #4]
 2864 04ee 3421     		movs	r1, #52
 2865 04f0 01FB03F3 		mul	r3, r1, r3
 2866 04f4 1344     		add	r3, r3, r2
 2867 04f6 4033     		adds	r3, r3, #64
 2868 04f8 0022     		movs	r2, #0
 2869 04fa 1A60     		str	r2, [r3]
1349:Drivers/STM32L4xx_HAL_Driver/Src/stm32l4xx_hal_hcd.c ****         hhcd->hc[chnum].urb_state = URB_ERROR;
 2870              		.loc 1 1349 24
 2871 04fc FB78     		ldrb	r3, [r7, #3]	@ zero_extendqisi2
 2872              		.loc 1 1349 35
 2873 04fe 7A68     		ldr	r2, [r7, #4]
 2874 0500 3421     		movs	r1, #52
 2875 0502 01FB03F3 		mul	r3, r1, r3
 2876 0506 1344     		add	r3, r3, r2
 2877 0508 4433     		adds	r3, r3, #68
 2878 050a 0422     		movs	r2, #4
 2879 050c 1A70     		strb	r2, [r3]
1346:Drivers/STM32L4xx_HAL_Driver/Src/stm32l4xx_hal_hcd.c ****       {
 2880              		.loc 1 1346 10
 2881 050e E2E0     		b	.L132
 2882              	.L119:
1350:Drivers/STM32L4xx_HAL_Driver/Src/stm32l4xx_hal_hcd.c ****       }
1351:Drivers/STM32L4xx_HAL_Driver/Src/stm32l4xx_hal_hcd.c ****       else
1352:Drivers/STM32L4xx_HAL_Driver/Src/stm32l4xx_hal_hcd.c ****       {
1353:Drivers/STM32L4xx_HAL_Driver/Src/stm32l4xx_hal_hcd.c ****         hhcd->hc[chnum].urb_state = URB_NOTREADY;
 2883              		.loc 1 1353 24
 2884 0510 FB78     		ldrb	r3, [r7, #3]	@ zero_extendqisi2
 2885              		.loc 1 1353 35
 2886 0512 7A68     		ldr	r2, [r7, #4]
 2887 0514 3421     		movs	r1, #52
 2888 0516 01FB03F3 		mul	r3, r1, r3
 2889 051a 1344     		add	r3, r3, r2
 2890 051c 4433     		adds	r3, r3, #68
 2891 051e 0222     		movs	r2, #2
 2892 0520 1A70     		strb	r2, [r3]
ARM GAS  /tmp/cchI0N5p.s 			page 75


1354:Drivers/STM32L4xx_HAL_Driver/Src/stm32l4xx_hal_hcd.c **** 
1355:Drivers/STM32L4xx_HAL_Driver/Src/stm32l4xx_hal_hcd.c ****         if ((hhcd->hc[chnum].ep_type == EP_TYPE_CTRL) ||
 2893              		.loc 1 1355 29
 2894 0522 FB78     		ldrb	r3, [r7, #3]	@ zero_extendqisi2
 2895 0524 7A68     		ldr	r2, [r7, #4]
 2896 0526 3421     		movs	r1, #52
 2897 0528 01FB03F3 		mul	r3, r1, r3
 2898 052c 1344     		add	r3, r3, r2
 2899 052e 1D33     		adds	r3, r3, #29
 2900 0530 1B78     		ldrb	r3, [r3]	@ zero_extendqisi2
 2901              		.loc 1 1355 12
 2902 0532 002B     		cmp	r3, #0
 2903 0534 0AD0     		beq	.L121
1356:Drivers/STM32L4xx_HAL_Driver/Src/stm32l4xx_hal_hcd.c ****             (hhcd->hc[chnum].ep_type == EP_TYPE_BULK))
 2904              		.loc 1 1356 29
 2905 0536 FB78     		ldrb	r3, [r7, #3]	@ zero_extendqisi2
 2906 0538 7A68     		ldr	r2, [r7, #4]
 2907 053a 3421     		movs	r1, #52
 2908 053c 01FB03F3 		mul	r3, r1, r3
 2909 0540 1344     		add	r3, r3, r2
 2910 0542 1D33     		adds	r3, r3, #29
 2911 0544 1B78     		ldrb	r3, [r3]	@ zero_extendqisi2
1355:Drivers/STM32L4xx_HAL_Driver/Src/stm32l4xx_hal_hcd.c ****             (hhcd->hc[chnum].ep_type == EP_TYPE_BULK))
 2912              		.loc 1 1355 55 discriminator 1
 2913 0546 022B     		cmp	r3, #2
 2914 0548 40F0C580 		bne	.L132
 2915              	.L121:
1357:Drivers/STM32L4xx_HAL_Driver/Src/stm32l4xx_hal_hcd.c ****         {
1358:Drivers/STM32L4xx_HAL_Driver/Src/stm32l4xx_hal_hcd.c ****           /* re-activate the channel */
1359:Drivers/STM32L4xx_HAL_Driver/Src/stm32l4xx_hal_hcd.c ****           tmpreg = USBx_HC(chnum)->HCCHAR;
 2916              		.loc 1 1359 20
 2917 054c FB78     		ldrb	r3, [r7, #3]	@ zero_extendqisi2
 2918 054e 5A01     		lsls	r2, r3, #5
 2919 0550 3B69     		ldr	r3, [r7, #16]
 2920 0552 1344     		add	r3, r3, r2
 2921 0554 03F5A063 		add	r3, r3, #1280
 2922              		.loc 1 1359 18
 2923 0558 1B68     		ldr	r3, [r3]
 2924 055a FB60     		str	r3, [r7, #12]
1360:Drivers/STM32L4xx_HAL_Driver/Src/stm32l4xx_hal_hcd.c ****           tmpreg &= ~USB_OTG_HCCHAR_CHDIS;
 2925              		.loc 1 1360 18
 2926 055c FB68     		ldr	r3, [r7, #12]
 2927 055e 23F08043 		bic	r3, r3, #1073741824
 2928 0562 FB60     		str	r3, [r7, #12]
1361:Drivers/STM32L4xx_HAL_Driver/Src/stm32l4xx_hal_hcd.c ****           tmpreg |= USB_OTG_HCCHAR_CHENA;
 2929              		.loc 1 1361 18
 2930 0564 FB68     		ldr	r3, [r7, #12]
 2931 0566 43F00043 		orr	r3, r3, #-2147483648
 2932 056a FB60     		str	r3, [r7, #12]
1362:Drivers/STM32L4xx_HAL_Driver/Src/stm32l4xx_hal_hcd.c ****           USBx_HC(chnum)->HCCHAR = tmpreg;
 2933              		.loc 1 1362 11
 2934 056c FB78     		ldrb	r3, [r7, #3]	@ zero_extendqisi2
 2935 056e 5A01     		lsls	r2, r3, #5
 2936 0570 3B69     		ldr	r3, [r7, #16]
 2937 0572 1344     		add	r3, r3, r2
 2938 0574 03F5A063 		add	r3, r3, #1280
 2939 0578 1A46     		mov	r2, r3
ARM GAS  /tmp/cchI0N5p.s 			page 76


 2940              		.loc 1 1362 34
 2941 057a FB68     		ldr	r3, [r7, #12]
 2942 057c 1360     		str	r3, [r2]
1346:Drivers/STM32L4xx_HAL_Driver/Src/stm32l4xx_hal_hcd.c ****       {
 2943              		.loc 1 1346 10
 2944 057e AAE0     		b	.L132
 2945              	.L118:
1363:Drivers/STM32L4xx_HAL_Driver/Src/stm32l4xx_hal_hcd.c ****         }
1364:Drivers/STM32L4xx_HAL_Driver/Src/stm32l4xx_hal_hcd.c ****       }
1365:Drivers/STM32L4xx_HAL_Driver/Src/stm32l4xx_hal_hcd.c ****     }
1366:Drivers/STM32L4xx_HAL_Driver/Src/stm32l4xx_hal_hcd.c ****     else if (hhcd->hc[chnum].state == HC_NYET)
 2946              		.loc 1 1366 29
 2947 0580 FB78     		ldrb	r3, [r7, #3]	@ zero_extendqisi2
 2948 0582 7A68     		ldr	r2, [r7, #4]
 2949 0584 3421     		movs	r1, #52
 2950 0586 01FB03F3 		mul	r3, r1, r3
 2951 058a 1344     		add	r3, r3, r2
 2952 058c 4533     		adds	r3, r3, #69
 2953 058e 1B78     		ldrb	r3, [r3]	@ zero_extendqisi2
 2954              		.loc 1 1366 13
 2955 0590 052B     		cmp	r3, #5
 2956 0592 09D1     		bne	.L122
1367:Drivers/STM32L4xx_HAL_Driver/Src/stm32l4xx_hal_hcd.c ****     {
1368:Drivers/STM32L4xx_HAL_Driver/Src/stm32l4xx_hal_hcd.c ****       hhcd->hc[chnum].state = HC_HALTED;
 2957              		.loc 1 1368 22
 2958 0594 FB78     		ldrb	r3, [r7, #3]	@ zero_extendqisi2
 2959              		.loc 1 1368 29
 2960 0596 7A68     		ldr	r2, [r7, #4]
 2961 0598 3421     		movs	r1, #52
 2962 059a 01FB03F3 		mul	r3, r1, r3
 2963 059e 1344     		add	r3, r3, r2
 2964 05a0 4533     		adds	r3, r3, #69
 2965 05a2 0222     		movs	r2, #2
 2966 05a4 1A70     		strb	r2, [r3]
 2967 05a6 97E0     		b	.L115
 2968              	.L122:
1369:Drivers/STM32L4xx_HAL_Driver/Src/stm32l4xx_hal_hcd.c ****     }
1370:Drivers/STM32L4xx_HAL_Driver/Src/stm32l4xx_hal_hcd.c ****     else if (hhcd->hc[chnum].state == HC_ACK)
 2969              		.loc 1 1370 29
 2970 05a8 FB78     		ldrb	r3, [r7, #3]	@ zero_extendqisi2
 2971 05aa 7A68     		ldr	r2, [r7, #4]
 2972 05ac 3421     		movs	r1, #52
 2973 05ae 01FB03F3 		mul	r3, r1, r3
 2974 05b2 1344     		add	r3, r3, r2
 2975 05b4 4533     		adds	r3, r3, #69
 2976 05b6 1B78     		ldrb	r3, [r3]	@ zero_extendqisi2
 2977              		.loc 1 1370 13
 2978 05b8 032B     		cmp	r3, #3
 2979 05ba 09D1     		bne	.L123
1371:Drivers/STM32L4xx_HAL_Driver/Src/stm32l4xx_hal_hcd.c ****     {
1372:Drivers/STM32L4xx_HAL_Driver/Src/stm32l4xx_hal_hcd.c ****       hhcd->hc[chnum].state = HC_HALTED;
 2980              		.loc 1 1372 22
 2981 05bc FB78     		ldrb	r3, [r7, #3]	@ zero_extendqisi2
 2982              		.loc 1 1372 29
 2983 05be 7A68     		ldr	r2, [r7, #4]
 2984 05c0 3421     		movs	r1, #52
 2985 05c2 01FB03F3 		mul	r3, r1, r3
ARM GAS  /tmp/cchI0N5p.s 			page 77


 2986 05c6 1344     		add	r3, r3, r2
 2987 05c8 4533     		adds	r3, r3, #69
 2988 05ca 0222     		movs	r2, #2
 2989 05cc 1A70     		strb	r2, [r3]
 2990 05ce 83E0     		b	.L115
 2991              	.L123:
1373:Drivers/STM32L4xx_HAL_Driver/Src/stm32l4xx_hal_hcd.c ****     }
1374:Drivers/STM32L4xx_HAL_Driver/Src/stm32l4xx_hal_hcd.c ****     else if (hhcd->hc[chnum].state == HC_NAK)
 2992              		.loc 1 1374 29
 2993 05d0 FB78     		ldrb	r3, [r7, #3]	@ zero_extendqisi2
 2994 05d2 7A68     		ldr	r2, [r7, #4]
 2995 05d4 3421     		movs	r1, #52
 2996 05d6 01FB03F3 		mul	r3, r1, r3
 2997 05da 1344     		add	r3, r3, r2
 2998 05dc 4533     		adds	r3, r3, #69
 2999 05de 1B78     		ldrb	r3, [r3]	@ zero_extendqisi2
 3000              		.loc 1 1374 13
 3001 05e0 042B     		cmp	r3, #4
 3002 05e2 3FD1     		bne	.L124
1375:Drivers/STM32L4xx_HAL_Driver/Src/stm32l4xx_hal_hcd.c ****     {
1376:Drivers/STM32L4xx_HAL_Driver/Src/stm32l4xx_hal_hcd.c ****       hhcd->hc[chnum].state = HC_HALTED;
 3003              		.loc 1 1376 22
 3004 05e4 FB78     		ldrb	r3, [r7, #3]	@ zero_extendqisi2
 3005              		.loc 1 1376 29
 3006 05e6 7A68     		ldr	r2, [r7, #4]
 3007 05e8 3421     		movs	r1, #52
 3008 05ea 01FB03F3 		mul	r3, r1, r3
 3009 05ee 1344     		add	r3, r3, r2
 3010 05f0 4533     		adds	r3, r3, #69
 3011 05f2 0222     		movs	r2, #2
 3012 05f4 1A70     		strb	r2, [r3]
1377:Drivers/STM32L4xx_HAL_Driver/Src/stm32l4xx_hal_hcd.c ****       hhcd->hc[chnum].urb_state = URB_NOTREADY;
 3013              		.loc 1 1377 22
 3014 05f6 FB78     		ldrb	r3, [r7, #3]	@ zero_extendqisi2
 3015              		.loc 1 1377 33
 3016 05f8 7A68     		ldr	r2, [r7, #4]
 3017 05fa 3421     		movs	r1, #52
 3018 05fc 01FB03F3 		mul	r3, r1, r3
 3019 0600 1344     		add	r3, r3, r2
 3020 0602 4433     		adds	r3, r3, #68
 3021 0604 0222     		movs	r2, #2
 3022 0606 1A70     		strb	r2, [r3]
1378:Drivers/STM32L4xx_HAL_Driver/Src/stm32l4xx_hal_hcd.c **** 
1379:Drivers/STM32L4xx_HAL_Driver/Src/stm32l4xx_hal_hcd.c ****       if ((hhcd->hc[chnum].ep_type == EP_TYPE_CTRL) ||
 3023              		.loc 1 1379 27
 3024 0608 FB78     		ldrb	r3, [r7, #3]	@ zero_extendqisi2
 3025 060a 7A68     		ldr	r2, [r7, #4]
 3026 060c 3421     		movs	r1, #52
 3027 060e 01FB03F3 		mul	r3, r1, r3
 3028 0612 1344     		add	r3, r3, r2
 3029 0614 1D33     		adds	r3, r3, #29
 3030 0616 1B78     		ldrb	r3, [r3]	@ zero_extendqisi2
 3031              		.loc 1 1379 10
 3032 0618 002B     		cmp	r3, #0
 3033 061a 09D0     		beq	.L125
1380:Drivers/STM32L4xx_HAL_Driver/Src/stm32l4xx_hal_hcd.c ****           (hhcd->hc[chnum].ep_type == EP_TYPE_BULK))
 3034              		.loc 1 1380 27
ARM GAS  /tmp/cchI0N5p.s 			page 78


 3035 061c FB78     		ldrb	r3, [r7, #3]	@ zero_extendqisi2
 3036 061e 7A68     		ldr	r2, [r7, #4]
 3037 0620 3421     		movs	r1, #52
 3038 0622 01FB03F3 		mul	r3, r1, r3
 3039 0626 1344     		add	r3, r3, r2
 3040 0628 1D33     		adds	r3, r3, #29
 3041 062a 1B78     		ldrb	r3, [r3]	@ zero_extendqisi2
1379:Drivers/STM32L4xx_HAL_Driver/Src/stm32l4xx_hal_hcd.c ****           (hhcd->hc[chnum].ep_type == EP_TYPE_BULK))
 3042              		.loc 1 1379 53 discriminator 1
 3043 062c 022B     		cmp	r3, #2
 3044 062e 53D1     		bne	.L115
 3045              	.L125:
1381:Drivers/STM32L4xx_HAL_Driver/Src/stm32l4xx_hal_hcd.c ****       {
1382:Drivers/STM32L4xx_HAL_Driver/Src/stm32l4xx_hal_hcd.c **** #if defined (USE_HAL_HCD_IN_NAK_AUTO_ACTIVATE_DISABLE) && (USE_HAL_HCD_IN_NAK_AUTO_ACTIVATE_DISABLE
1383:Drivers/STM32L4xx_HAL_Driver/Src/stm32l4xx_hal_hcd.c ****         hhcd->hc[chnum].NakCnt++;
1384:Drivers/STM32L4xx_HAL_Driver/Src/stm32l4xx_hal_hcd.c **** 
1385:Drivers/STM32L4xx_HAL_Driver/Src/stm32l4xx_hal_hcd.c ****         if (hhcd->hc[chnum].NakCnt >= HAL_HCD_CHANNEL_NAK_COUNT)
1386:Drivers/STM32L4xx_HAL_Driver/Src/stm32l4xx_hal_hcd.c ****         {
1387:Drivers/STM32L4xx_HAL_Driver/Src/stm32l4xx_hal_hcd.c ****           hhcd->hc[chnum].state = HC_IDLE;
1388:Drivers/STM32L4xx_HAL_Driver/Src/stm32l4xx_hal_hcd.c ****           hhcd->hc[chnum].urb_state = URB_NAK_WAIT;
1389:Drivers/STM32L4xx_HAL_Driver/Src/stm32l4xx_hal_hcd.c ****           hhcd->hc[chnum].NakCnt = 0U;
1390:Drivers/STM32L4xx_HAL_Driver/Src/stm32l4xx_hal_hcd.c ****         }
1391:Drivers/STM32L4xx_HAL_Driver/Src/stm32l4xx_hal_hcd.c ****         else
1392:Drivers/STM32L4xx_HAL_Driver/Src/stm32l4xx_hal_hcd.c **** #endif /* defined (USE_HAL_HCD_IN_NAK_AUTO_ACTIVATE_DISABLE) && (USE_HAL_HCD_IN_NAK_AUTO_ACTIVATE_D
1393:Drivers/STM32L4xx_HAL_Driver/Src/stm32l4xx_hal_hcd.c ****         {
1394:Drivers/STM32L4xx_HAL_Driver/Src/stm32l4xx_hal_hcd.c ****           /* re-activate the channel */
1395:Drivers/STM32L4xx_HAL_Driver/Src/stm32l4xx_hal_hcd.c ****           tmpreg = USBx_HC(chnum)->HCCHAR;
 3046              		.loc 1 1395 20
 3047 0630 FB78     		ldrb	r3, [r7, #3]	@ zero_extendqisi2
 3048 0632 5A01     		lsls	r2, r3, #5
 3049 0634 3B69     		ldr	r3, [r7, #16]
 3050 0636 1344     		add	r3, r3, r2
 3051 0638 03F5A063 		add	r3, r3, #1280
 3052              		.loc 1 1395 18
 3053 063c 1B68     		ldr	r3, [r3]
 3054 063e FB60     		str	r3, [r7, #12]
1396:Drivers/STM32L4xx_HAL_Driver/Src/stm32l4xx_hal_hcd.c ****           tmpreg &= ~USB_OTG_HCCHAR_CHDIS;
 3055              		.loc 1 1396 18
 3056 0640 FB68     		ldr	r3, [r7, #12]
 3057 0642 23F08043 		bic	r3, r3, #1073741824
 3058 0646 FB60     		str	r3, [r7, #12]
1397:Drivers/STM32L4xx_HAL_Driver/Src/stm32l4xx_hal_hcd.c ****           tmpreg |= USB_OTG_HCCHAR_CHENA;
 3059              		.loc 1 1397 18
 3060 0648 FB68     		ldr	r3, [r7, #12]
 3061 064a 43F00043 		orr	r3, r3, #-2147483648
 3062 064e FB60     		str	r3, [r7, #12]
1398:Drivers/STM32L4xx_HAL_Driver/Src/stm32l4xx_hal_hcd.c ****           USBx_HC(chnum)->HCCHAR = tmpreg;
 3063              		.loc 1 1398 11
 3064 0650 FB78     		ldrb	r3, [r7, #3]	@ zero_extendqisi2
 3065 0652 5A01     		lsls	r2, r3, #5
 3066 0654 3B69     		ldr	r3, [r7, #16]
 3067 0656 1344     		add	r3, r3, r2
 3068 0658 03F5A063 		add	r3, r3, #1280
 3069 065c 1A46     		mov	r2, r3
 3070              		.loc 1 1398 34
 3071 065e FB68     		ldr	r3, [r7, #12]
 3072 0660 1360     		str	r3, [r2]
ARM GAS  /tmp/cchI0N5p.s 			page 79


 3073 0662 39E0     		b	.L115
 3074              	.L124:
1399:Drivers/STM32L4xx_HAL_Driver/Src/stm32l4xx_hal_hcd.c ****         }
1400:Drivers/STM32L4xx_HAL_Driver/Src/stm32l4xx_hal_hcd.c ****       }
1401:Drivers/STM32L4xx_HAL_Driver/Src/stm32l4xx_hal_hcd.c ****     }
1402:Drivers/STM32L4xx_HAL_Driver/Src/stm32l4xx_hal_hcd.c ****     else if (hhcd->hc[chnum].state == HC_BBLERR)
 3075              		.loc 1 1402 29
 3076 0664 FB78     		ldrb	r3, [r7, #3]	@ zero_extendqisi2
 3077 0666 7A68     		ldr	r2, [r7, #4]
 3078 0668 3421     		movs	r1, #52
 3079 066a 01FB03F3 		mul	r3, r1, r3
 3080 066e 1344     		add	r3, r3, r2
 3081 0670 4533     		adds	r3, r3, #69
 3082 0672 1B78     		ldrb	r3, [r3]	@ zero_extendqisi2
 3083              		.loc 1 1402 13
 3084 0674 082B     		cmp	r3, #8
 3085 0676 22D1     		bne	.L126
1403:Drivers/STM32L4xx_HAL_Driver/Src/stm32l4xx_hal_hcd.c ****     {
1404:Drivers/STM32L4xx_HAL_Driver/Src/stm32l4xx_hal_hcd.c ****       hhcd->hc[chnum].state = HC_HALTED;
 3086              		.loc 1 1404 22
 3087 0678 FB78     		ldrb	r3, [r7, #3]	@ zero_extendqisi2
 3088              		.loc 1 1404 29
 3089 067a 7A68     		ldr	r2, [r7, #4]
 3090 067c 3421     		movs	r1, #52
 3091 067e 01FB03F3 		mul	r3, r1, r3
 3092 0682 1344     		add	r3, r3, r2
 3093 0684 4533     		adds	r3, r3, #69
 3094 0686 0222     		movs	r2, #2
 3095 0688 1A70     		strb	r2, [r3]
