ARM GAS  /tmp/cc9mqueP.s 			page 1


   1              		.cpu cortex-m4
   2              		.arch armv7e-m
   3              		.fpu fpv4-sp-d16
   4              		.eabi_attribute 27, 1
   5              		.eabi_attribute 28, 1
   6              		.eabi_attribute 20, 1
   7              		.eabi_attribute 21, 1
   8              		.eabi_attribute 23, 3
   9              		.eabi_attribute 24, 1
  10              		.eabi_attribute 25, 1
  11              		.eabi_attribute 26, 1
  12              		.eabi_attribute 30, 6
  13              		.eabi_attribute 34, 1
  14              		.eabi_attribute 18, 4
  15              		.file	"stm32l4xx_hal_flash.c"
  16              		.text
  17              	.Ltext0:
  18              		.cfi_sections	.debug_frame
  19              		.file 1 "Drivers/STM32L4xx_HAL_Driver/Src/stm32l4xx_hal_flash.c"
  20              		.section	.rodata.CHANNEL_OFFSET_TAB,"a"
  21              		.align	2
  24              	CHANNEL_OFFSET_TAB:
  25 0000 081C3044 		.ascii	"\010\0340DXl\200"
  25      586C80
  26              		.global	pFlash
  27              		.section	.data.pFlash,"aw"
  28              		.align	2
  31              	pFlash:
  32 0000 00       		.byte	0
  33 0001 000000   		.space	3
  34 0004 00000000 		.word	0
  35 0008 00       		.byte	0
  36 0009 000000   		.space	3
  37 000c 00000000 		.word	0
  38 0010 01000000 		.word	1
  39 0014 00000000 		.word	0
  40 0018 00000000 		.word	0
  41 001c 00       		.byte	0
  42 001d 000000   		.space	3
  43              		.section	.text.HAL_FLASH_Program,"ax",%progbits
  44              		.align	1
  45              		.global	HAL_FLASH_Program
  46              		.syntax unified
  47              		.thumb
  48              		.thumb_func
  50              	HAL_FLASH_Program:
  51              	.LFB445:
   1:Drivers/STM32L4xx_HAL_Driver/Src/stm32l4xx_hal_flash.c **** /**
   2:Drivers/STM32L4xx_HAL_Driver/Src/stm32l4xx_hal_flash.c ****   ******************************************************************************
   3:Drivers/STM32L4xx_HAL_Driver/Src/stm32l4xx_hal_flash.c ****   * @file    stm32l4xx_hal_flash.c
   4:Drivers/STM32L4xx_HAL_Driver/Src/stm32l4xx_hal_flash.c ****   * @author  MCD Application Team
   5:Drivers/STM32L4xx_HAL_Driver/Src/stm32l4xx_hal_flash.c ****   * @brief   FLASH HAL module driver.
   6:Drivers/STM32L4xx_HAL_Driver/Src/stm32l4xx_hal_flash.c ****   *          This file provides firmware functions to manage the following
   7:Drivers/STM32L4xx_HAL_Driver/Src/stm32l4xx_hal_flash.c ****   *          functionalities of the internal FLASH memory:
   8:Drivers/STM32L4xx_HAL_Driver/Src/stm32l4xx_hal_flash.c ****   *           + Program operations functions
   9:Drivers/STM32L4xx_HAL_Driver/Src/stm32l4xx_hal_flash.c ****   *           + Memory Control functions
  10:Drivers/STM32L4xx_HAL_Driver/Src/stm32l4xx_hal_flash.c ****   *           + Peripheral Errors functions
ARM GAS  /tmp/cc9mqueP.s 			page 2


  11:Drivers/STM32L4xx_HAL_Driver/Src/stm32l4xx_hal_flash.c ****   *
  12:Drivers/STM32L4xx_HAL_Driver/Src/stm32l4xx_hal_flash.c ****  @verbatim
  13:Drivers/STM32L4xx_HAL_Driver/Src/stm32l4xx_hal_flash.c ****   ==============================================================================
  14:Drivers/STM32L4xx_HAL_Driver/Src/stm32l4xx_hal_flash.c ****                         ##### FLASH peripheral features #####
  15:Drivers/STM32L4xx_HAL_Driver/Src/stm32l4xx_hal_flash.c ****   ==============================================================================
  16:Drivers/STM32L4xx_HAL_Driver/Src/stm32l4xx_hal_flash.c **** 
  17:Drivers/STM32L4xx_HAL_Driver/Src/stm32l4xx_hal_flash.c ****   [..] The Flash memory interface manages CPU AHB I-Code and D-Code accesses
  18:Drivers/STM32L4xx_HAL_Driver/Src/stm32l4xx_hal_flash.c ****        to the Flash memory. It implements the erase and program Flash memory operations
  19:Drivers/STM32L4xx_HAL_Driver/Src/stm32l4xx_hal_flash.c ****        and the read and write protection mechanisms.
  20:Drivers/STM32L4xx_HAL_Driver/Src/stm32l4xx_hal_flash.c **** 
  21:Drivers/STM32L4xx_HAL_Driver/Src/stm32l4xx_hal_flash.c ****   [..] The Flash memory interface accelerates code execution with a system of instruction
  22:Drivers/STM32L4xx_HAL_Driver/Src/stm32l4xx_hal_flash.c ****        prefetch and cache lines.
  23:Drivers/STM32L4xx_HAL_Driver/Src/stm32l4xx_hal_flash.c **** 
  24:Drivers/STM32L4xx_HAL_Driver/Src/stm32l4xx_hal_flash.c ****   [..] The FLASH main features are:
  25:Drivers/STM32L4xx_HAL_Driver/Src/stm32l4xx_hal_flash.c ****       (+) Flash memory read operations
  26:Drivers/STM32L4xx_HAL_Driver/Src/stm32l4xx_hal_flash.c ****       (+) Flash memory program/erase operations
  27:Drivers/STM32L4xx_HAL_Driver/Src/stm32l4xx_hal_flash.c ****       (+) Read / write protections
  28:Drivers/STM32L4xx_HAL_Driver/Src/stm32l4xx_hal_flash.c ****       (+) Option bytes programming
  29:Drivers/STM32L4xx_HAL_Driver/Src/stm32l4xx_hal_flash.c ****       (+) Prefetch on I-Code
  30:Drivers/STM32L4xx_HAL_Driver/Src/stm32l4xx_hal_flash.c ****       (+) 32 cache lines of 4*64 bits on I-Code
  31:Drivers/STM32L4xx_HAL_Driver/Src/stm32l4xx_hal_flash.c ****       (+) 8 cache lines of 4*64 bits on D-Code
  32:Drivers/STM32L4xx_HAL_Driver/Src/stm32l4xx_hal_flash.c ****       (+) Error code correction (ECC) : Data in flash are 72-bits word
  33:Drivers/STM32L4xx_HAL_Driver/Src/stm32l4xx_hal_flash.c ****           (8 bits added per double word)
  34:Drivers/STM32L4xx_HAL_Driver/Src/stm32l4xx_hal_flash.c **** 
  35:Drivers/STM32L4xx_HAL_Driver/Src/stm32l4xx_hal_flash.c **** 
  36:Drivers/STM32L4xx_HAL_Driver/Src/stm32l4xx_hal_flash.c ****                         ##### How to use this driver #####
  37:Drivers/STM32L4xx_HAL_Driver/Src/stm32l4xx_hal_flash.c ****  ==============================================================================
  38:Drivers/STM32L4xx_HAL_Driver/Src/stm32l4xx_hal_flash.c ****     [..]
  39:Drivers/STM32L4xx_HAL_Driver/Src/stm32l4xx_hal_flash.c ****       This driver provides functions and macros to configure and program the FLASH
  40:Drivers/STM32L4xx_HAL_Driver/Src/stm32l4xx_hal_flash.c ****       memory of all STM32L4xx devices.
  41:Drivers/STM32L4xx_HAL_Driver/Src/stm32l4xx_hal_flash.c **** 
  42:Drivers/STM32L4xx_HAL_Driver/Src/stm32l4xx_hal_flash.c ****       (#) Flash Memory IO Programming functions:
  43:Drivers/STM32L4xx_HAL_Driver/Src/stm32l4xx_hal_flash.c ****            (++) Lock and Unlock the FLASH interface using HAL_FLASH_Unlock() and
  44:Drivers/STM32L4xx_HAL_Driver/Src/stm32l4xx_hal_flash.c ****                 HAL_FLASH_Lock() functions
  45:Drivers/STM32L4xx_HAL_Driver/Src/stm32l4xx_hal_flash.c ****            (++) Program functions: double word and fast program (full row programming)
  46:Drivers/STM32L4xx_HAL_Driver/Src/stm32l4xx_hal_flash.c ****            (++) There Two modes of programming :
  47:Drivers/STM32L4xx_HAL_Driver/Src/stm32l4xx_hal_flash.c ****             (+++) Polling mode using HAL_FLASH_Program() function
  48:Drivers/STM32L4xx_HAL_Driver/Src/stm32l4xx_hal_flash.c ****             (+++) Interrupt mode using HAL_FLASH_Program_IT() function
  49:Drivers/STM32L4xx_HAL_Driver/Src/stm32l4xx_hal_flash.c **** 
  50:Drivers/STM32L4xx_HAL_Driver/Src/stm32l4xx_hal_flash.c ****       (#) Interrupts and flags management functions :
  51:Drivers/STM32L4xx_HAL_Driver/Src/stm32l4xx_hal_flash.c ****            (++) Handle FLASH interrupts by calling HAL_FLASH_IRQHandler()
  52:Drivers/STM32L4xx_HAL_Driver/Src/stm32l4xx_hal_flash.c ****            (++) Callback functions are called when the flash operations are finished :
  53:Drivers/STM32L4xx_HAL_Driver/Src/stm32l4xx_hal_flash.c ****                 HAL_FLASH_EndOfOperationCallback() when everything is ok, otherwise
  54:Drivers/STM32L4xx_HAL_Driver/Src/stm32l4xx_hal_flash.c ****                 HAL_FLASH_OperationErrorCallback()
  55:Drivers/STM32L4xx_HAL_Driver/Src/stm32l4xx_hal_flash.c ****            (++) Get error flag status by calling HAL_GetError()
  56:Drivers/STM32L4xx_HAL_Driver/Src/stm32l4xx_hal_flash.c **** 
  57:Drivers/STM32L4xx_HAL_Driver/Src/stm32l4xx_hal_flash.c ****       (#) Option bytes management functions :
  58:Drivers/STM32L4xx_HAL_Driver/Src/stm32l4xx_hal_flash.c ****            (++) Lock and Unlock the option bytes using HAL_FLASH_OB_Unlock() and
  59:Drivers/STM32L4xx_HAL_Driver/Src/stm32l4xx_hal_flash.c ****                 HAL_FLASH_OB_Lock() functions
  60:Drivers/STM32L4xx_HAL_Driver/Src/stm32l4xx_hal_flash.c ****            (++) Launch the reload of the option bytes using HAL_FLASH_Launch() function.
  61:Drivers/STM32L4xx_HAL_Driver/Src/stm32l4xx_hal_flash.c ****                 In this case, a reset is generated
  62:Drivers/STM32L4xx_HAL_Driver/Src/stm32l4xx_hal_flash.c **** 
  63:Drivers/STM32L4xx_HAL_Driver/Src/stm32l4xx_hal_flash.c ****     [..]
  64:Drivers/STM32L4xx_HAL_Driver/Src/stm32l4xx_hal_flash.c ****       In addition to these functions, this driver includes a set of macros allowing
  65:Drivers/STM32L4xx_HAL_Driver/Src/stm32l4xx_hal_flash.c ****       to handle the following operations:
  66:Drivers/STM32L4xx_HAL_Driver/Src/stm32l4xx_hal_flash.c ****        (+) Set the latency
  67:Drivers/STM32L4xx_HAL_Driver/Src/stm32l4xx_hal_flash.c ****        (+) Enable/Disable the prefetch buffer
ARM GAS  /tmp/cc9mqueP.s 			page 3


  68:Drivers/STM32L4xx_HAL_Driver/Src/stm32l4xx_hal_flash.c ****        (+) Enable/Disable the Instruction cache and the Data cache
  69:Drivers/STM32L4xx_HAL_Driver/Src/stm32l4xx_hal_flash.c ****        (+) Reset the Instruction cache and the Data cache
  70:Drivers/STM32L4xx_HAL_Driver/Src/stm32l4xx_hal_flash.c ****        (+) Enable/Disable the Flash power-down during low-power run and sleep modes
  71:Drivers/STM32L4xx_HAL_Driver/Src/stm32l4xx_hal_flash.c ****        (+) Enable/Disable the Flash interrupts
  72:Drivers/STM32L4xx_HAL_Driver/Src/stm32l4xx_hal_flash.c ****        (+) Monitor the Flash flags status
  73:Drivers/STM32L4xx_HAL_Driver/Src/stm32l4xx_hal_flash.c **** 
  74:Drivers/STM32L4xx_HAL_Driver/Src/stm32l4xx_hal_flash.c ****  @endverbatim
  75:Drivers/STM32L4xx_HAL_Driver/Src/stm32l4xx_hal_flash.c ****   ******************************************************************************
  76:Drivers/STM32L4xx_HAL_Driver/Src/stm32l4xx_hal_flash.c ****   * @attention
  77:Drivers/STM32L4xx_HAL_Driver/Src/stm32l4xx_hal_flash.c ****   *
  78:Drivers/STM32L4xx_HAL_Driver/Src/stm32l4xx_hal_flash.c ****   * Copyright (c) 2017 STMicroelectronics.
  79:Drivers/STM32L4xx_HAL_Driver/Src/stm32l4xx_hal_flash.c ****   * All rights reserved.
  80:Drivers/STM32L4xx_HAL_Driver/Src/stm32l4xx_hal_flash.c ****   *
  81:Drivers/STM32L4xx_HAL_Driver/Src/stm32l4xx_hal_flash.c ****   * This software is licensed under terms that can be found in the LICENSE file in
  82:Drivers/STM32L4xx_HAL_Driver/Src/stm32l4xx_hal_flash.c ****   * the root directory of this software component.
  83:Drivers/STM32L4xx_HAL_Driver/Src/stm32l4xx_hal_flash.c ****   * If no LICENSE file comes with this software, it is provided AS-IS.
  84:Drivers/STM32L4xx_HAL_Driver/Src/stm32l4xx_hal_flash.c ****   ******************************************************************************
  85:Drivers/STM32L4xx_HAL_Driver/Src/stm32l4xx_hal_flash.c ****   */
  86:Drivers/STM32L4xx_HAL_Driver/Src/stm32l4xx_hal_flash.c **** 
  87:Drivers/STM32L4xx_HAL_Driver/Src/stm32l4xx_hal_flash.c **** /* Includes ------------------------------------------------------------------*/
  88:Drivers/STM32L4xx_HAL_Driver/Src/stm32l4xx_hal_flash.c **** #include "stm32l4xx_hal.h"
  89:Drivers/STM32L4xx_HAL_Driver/Src/stm32l4xx_hal_flash.c **** 
  90:Drivers/STM32L4xx_HAL_Driver/Src/stm32l4xx_hal_flash.c **** /** @addtogroup STM32L4xx_HAL_Driver
  91:Drivers/STM32L4xx_HAL_Driver/Src/stm32l4xx_hal_flash.c ****   * @{
  92:Drivers/STM32L4xx_HAL_Driver/Src/stm32l4xx_hal_flash.c ****   */
  93:Drivers/STM32L4xx_HAL_Driver/Src/stm32l4xx_hal_flash.c **** 
  94:Drivers/STM32L4xx_HAL_Driver/Src/stm32l4xx_hal_flash.c **** /** @defgroup FLASH FLASH
  95:Drivers/STM32L4xx_HAL_Driver/Src/stm32l4xx_hal_flash.c ****   * @brief FLASH HAL module driver
  96:Drivers/STM32L4xx_HAL_Driver/Src/stm32l4xx_hal_flash.c ****   * @{
  97:Drivers/STM32L4xx_HAL_Driver/Src/stm32l4xx_hal_flash.c ****   */
  98:Drivers/STM32L4xx_HAL_Driver/Src/stm32l4xx_hal_flash.c **** 
  99:Drivers/STM32L4xx_HAL_Driver/Src/stm32l4xx_hal_flash.c **** #ifdef HAL_FLASH_MODULE_ENABLED
 100:Drivers/STM32L4xx_HAL_Driver/Src/stm32l4xx_hal_flash.c **** 
 101:Drivers/STM32L4xx_HAL_Driver/Src/stm32l4xx_hal_flash.c **** /* Private typedef -----------------------------------------------------------*/
 102:Drivers/STM32L4xx_HAL_Driver/Src/stm32l4xx_hal_flash.c **** /* Private defines -----------------------------------------------------------*/
 103:Drivers/STM32L4xx_HAL_Driver/Src/stm32l4xx_hal_flash.c **** #if defined (STM32L4P5xx) || defined (STM32L4Q5xx) || defined (STM32L4R5xx) || defined (STM32L4R7xx
 104:Drivers/STM32L4xx_HAL_Driver/Src/stm32l4xx_hal_flash.c **** #define FLASH_NB_DOUBLE_WORDS_IN_ROW  64
 105:Drivers/STM32L4xx_HAL_Driver/Src/stm32l4xx_hal_flash.c **** #else
 106:Drivers/STM32L4xx_HAL_Driver/Src/stm32l4xx_hal_flash.c **** #define FLASH_NB_DOUBLE_WORDS_IN_ROW  32
 107:Drivers/STM32L4xx_HAL_Driver/Src/stm32l4xx_hal_flash.c **** #endif
 108:Drivers/STM32L4xx_HAL_Driver/Src/stm32l4xx_hal_flash.c **** /* Private macros ------------------------------------------------------------*/
 109:Drivers/STM32L4xx_HAL_Driver/Src/stm32l4xx_hal_flash.c **** /* Private variables ---------------------------------------------------------*/
 110:Drivers/STM32L4xx_HAL_Driver/Src/stm32l4xx_hal_flash.c **** /** @defgroup FLASH_Private_Variables FLASH Private Variables
 111:Drivers/STM32L4xx_HAL_Driver/Src/stm32l4xx_hal_flash.c ****  * @{
 112:Drivers/STM32L4xx_HAL_Driver/Src/stm32l4xx_hal_flash.c ****  */
 113:Drivers/STM32L4xx_HAL_Driver/Src/stm32l4xx_hal_flash.c **** /**
 114:Drivers/STM32L4xx_HAL_Driver/Src/stm32l4xx_hal_flash.c ****   * @brief  Variable used for Program/Erase sectors under interruption
 115:Drivers/STM32L4xx_HAL_Driver/Src/stm32l4xx_hal_flash.c ****   */
 116:Drivers/STM32L4xx_HAL_Driver/Src/stm32l4xx_hal_flash.c **** FLASH_ProcessTypeDef pFlash = {.Lock = HAL_UNLOCKED, \
 117:Drivers/STM32L4xx_HAL_Driver/Src/stm32l4xx_hal_flash.c ****                                .ErrorCode = HAL_FLASH_ERROR_NONE, \
 118:Drivers/STM32L4xx_HAL_Driver/Src/stm32l4xx_hal_flash.c ****                                .ProcedureOnGoing = FLASH_PROC_NONE, \
 119:Drivers/STM32L4xx_HAL_Driver/Src/stm32l4xx_hal_flash.c ****                                .Address = 0U, \
 120:Drivers/STM32L4xx_HAL_Driver/Src/stm32l4xx_hal_flash.c ****                                .Bank = FLASH_BANK_1, \
 121:Drivers/STM32L4xx_HAL_Driver/Src/stm32l4xx_hal_flash.c ****                                .Page = 0U, \
 122:Drivers/STM32L4xx_HAL_Driver/Src/stm32l4xx_hal_flash.c ****                                .NbPagesToErase = 0U, \
 123:Drivers/STM32L4xx_HAL_Driver/Src/stm32l4xx_hal_flash.c ****                                .CacheToReactivate = FLASH_CACHE_DISABLED};
 124:Drivers/STM32L4xx_HAL_Driver/Src/stm32l4xx_hal_flash.c **** /**
ARM GAS  /tmp/cc9mqueP.s 			page 4


 125:Drivers/STM32L4xx_HAL_Driver/Src/stm32l4xx_hal_flash.c ****   * @}
 126:Drivers/STM32L4xx_HAL_Driver/Src/stm32l4xx_hal_flash.c ****   */
 127:Drivers/STM32L4xx_HAL_Driver/Src/stm32l4xx_hal_flash.c **** 
 128:Drivers/STM32L4xx_HAL_Driver/Src/stm32l4xx_hal_flash.c **** /* Private function prototypes -----------------------------------------------*/
 129:Drivers/STM32L4xx_HAL_Driver/Src/stm32l4xx_hal_flash.c **** /** @defgroup FLASH_Private_Functions FLASH Private Functions
 130:Drivers/STM32L4xx_HAL_Driver/Src/stm32l4xx_hal_flash.c ****  * @{
 131:Drivers/STM32L4xx_HAL_Driver/Src/stm32l4xx_hal_flash.c ****  */
 132:Drivers/STM32L4xx_HAL_Driver/Src/stm32l4xx_hal_flash.c **** static void          FLASH_Program_DoubleWord(uint32_t Address, uint64_t Data);
 133:Drivers/STM32L4xx_HAL_Driver/Src/stm32l4xx_hal_flash.c **** static void          FLASH_Program_Fast(uint32_t Address, uint32_t DataAddress);
 134:Drivers/STM32L4xx_HAL_Driver/Src/stm32l4xx_hal_flash.c **** /**
 135:Drivers/STM32L4xx_HAL_Driver/Src/stm32l4xx_hal_flash.c ****   * @}
 136:Drivers/STM32L4xx_HAL_Driver/Src/stm32l4xx_hal_flash.c ****   */
 137:Drivers/STM32L4xx_HAL_Driver/Src/stm32l4xx_hal_flash.c **** 
 138:Drivers/STM32L4xx_HAL_Driver/Src/stm32l4xx_hal_flash.c **** /* Exported functions --------------------------------------------------------*/
 139:Drivers/STM32L4xx_HAL_Driver/Src/stm32l4xx_hal_flash.c **** /** @defgroup FLASH_Exported_Functions FLASH Exported Functions
 140:Drivers/STM32L4xx_HAL_Driver/Src/stm32l4xx_hal_flash.c ****   * @{
 141:Drivers/STM32L4xx_HAL_Driver/Src/stm32l4xx_hal_flash.c ****   */
 142:Drivers/STM32L4xx_HAL_Driver/Src/stm32l4xx_hal_flash.c **** 
 143:Drivers/STM32L4xx_HAL_Driver/Src/stm32l4xx_hal_flash.c **** /** @defgroup FLASH_Exported_Functions_Group1 Programming operation functions
 144:Drivers/STM32L4xx_HAL_Driver/Src/stm32l4xx_hal_flash.c ****  *  @brief   Programming operation functions
 145:Drivers/STM32L4xx_HAL_Driver/Src/stm32l4xx_hal_flash.c ****  *
 146:Drivers/STM32L4xx_HAL_Driver/Src/stm32l4xx_hal_flash.c **** @verbatim
 147:Drivers/STM32L4xx_HAL_Driver/Src/stm32l4xx_hal_flash.c ****  ===============================================================================
 148:Drivers/STM32L4xx_HAL_Driver/Src/stm32l4xx_hal_flash.c ****                   ##### Programming operation functions #####
 149:Drivers/STM32L4xx_HAL_Driver/Src/stm32l4xx_hal_flash.c ****  ===============================================================================
 150:Drivers/STM32L4xx_HAL_Driver/Src/stm32l4xx_hal_flash.c ****     [..]
 151:Drivers/STM32L4xx_HAL_Driver/Src/stm32l4xx_hal_flash.c ****     This subsection provides a set of functions allowing to manage the FLASH
 152:Drivers/STM32L4xx_HAL_Driver/Src/stm32l4xx_hal_flash.c ****     program operations.
 153:Drivers/STM32L4xx_HAL_Driver/Src/stm32l4xx_hal_flash.c **** 
 154:Drivers/STM32L4xx_HAL_Driver/Src/stm32l4xx_hal_flash.c **** @endverbatim
 155:Drivers/STM32L4xx_HAL_Driver/Src/stm32l4xx_hal_flash.c ****   * @{
 156:Drivers/STM32L4xx_HAL_Driver/Src/stm32l4xx_hal_flash.c ****   */
 157:Drivers/STM32L4xx_HAL_Driver/Src/stm32l4xx_hal_flash.c **** 
 158:Drivers/STM32L4xx_HAL_Driver/Src/stm32l4xx_hal_flash.c **** /**
 159:Drivers/STM32L4xx_HAL_Driver/Src/stm32l4xx_hal_flash.c ****   * @brief  Program double word or fast program of a row at a specified address.
 160:Drivers/STM32L4xx_HAL_Driver/Src/stm32l4xx_hal_flash.c ****   * @param  TypeProgram  Indicate the way to program at a specified address.
 161:Drivers/STM32L4xx_HAL_Driver/Src/stm32l4xx_hal_flash.c ****   *                           This parameter can be a value of @ref FLASH_Type_Program
 162:Drivers/STM32L4xx_HAL_Driver/Src/stm32l4xx_hal_flash.c ****   * @param  Address  specifies the address to be programmed.
 163:Drivers/STM32L4xx_HAL_Driver/Src/stm32l4xx_hal_flash.c ****   * @param  Data specifies the data to be programmed
 164:Drivers/STM32L4xx_HAL_Driver/Src/stm32l4xx_hal_flash.c ****   *                This parameter is the data for the double word program and the address where
 165:Drivers/STM32L4xx_HAL_Driver/Src/stm32l4xx_hal_flash.c ****   *                are stored the data for the row fast program
 166:Drivers/STM32L4xx_HAL_Driver/Src/stm32l4xx_hal_flash.c ****   *
 167:Drivers/STM32L4xx_HAL_Driver/Src/stm32l4xx_hal_flash.c ****   * @retval HAL_StatusTypeDef HAL Status
 168:Drivers/STM32L4xx_HAL_Driver/Src/stm32l4xx_hal_flash.c ****   */
 169:Drivers/STM32L4xx_HAL_Driver/Src/stm32l4xx_hal_flash.c **** HAL_StatusTypeDef HAL_FLASH_Program(uint32_t TypeProgram, uint32_t Address, uint64_t Data)
 170:Drivers/STM32L4xx_HAL_Driver/Src/stm32l4xx_hal_flash.c **** {
  52              		.loc 1 170 1
  53              		.cfi_startproc
  54              		@ args = 0, pretend = 0, frame = 24
  55              		@ frame_needed = 1, uses_anonymous_args = 0
  56 0000 80B5     		push	{r7, lr}
  57              		.cfi_def_cfa_offset 8
  58              		.cfi_offset 7, -8
  59              		.cfi_offset 14, -4
  60 0002 86B0     		sub	sp, sp, #24
  61              		.cfi_def_cfa_offset 32
  62 0004 00AF     		add	r7, sp, #0
ARM GAS  /tmp/cc9mqueP.s 			page 5


  63              		.cfi_def_cfa_register 7
  64 0006 F860     		str	r0, [r7, #12]
  65 0008 B960     		str	r1, [r7, #8]
  66 000a C7E90023 		strd	r2, [r7]
 171:Drivers/STM32L4xx_HAL_Driver/Src/stm32l4xx_hal_flash.c ****   HAL_StatusTypeDef status;
 172:Drivers/STM32L4xx_HAL_Driver/Src/stm32l4xx_hal_flash.c ****   uint32_t prog_bit = 0;
  67              		.loc 1 172 12
  68 000e 0023     		movs	r3, #0
  69 0010 3B61     		str	r3, [r7, #16]
 173:Drivers/STM32L4xx_HAL_Driver/Src/stm32l4xx_hal_flash.c **** 
 174:Drivers/STM32L4xx_HAL_Driver/Src/stm32l4xx_hal_flash.c ****   /* Process Locked */
 175:Drivers/STM32L4xx_HAL_Driver/Src/stm32l4xx_hal_flash.c ****   __HAL_LOCK(&pFlash);
  70              		.loc 1 175 3
  71 0012 2F4B     		ldr	r3, .L11
  72 0014 1B78     		ldrb	r3, [r3]	@ zero_extendqisi2
  73 0016 012B     		cmp	r3, #1
  74 0018 01D1     		bne	.L2
  75              		.loc 1 175 3 is_stmt 0 discriminator 1
  76 001a 0223     		movs	r3, #2
  77              		.loc 1 175 3
  78 001c 53E0     		b	.L3
  79              	.L2:
  80              		.loc 1 175 3 discriminator 2
  81 001e 2C4B     		ldr	r3, .L11
  82 0020 0122     		movs	r2, #1
  83 0022 1A70     		strb	r2, [r3]
 176:Drivers/STM32L4xx_HAL_Driver/Src/stm32l4xx_hal_flash.c **** 
 177:Drivers/STM32L4xx_HAL_Driver/Src/stm32l4xx_hal_flash.c ****   /* Check the parameters */
 178:Drivers/STM32L4xx_HAL_Driver/Src/stm32l4xx_hal_flash.c ****   assert_param(IS_FLASH_TYPEPROGRAM(TypeProgram));
 179:Drivers/STM32L4xx_HAL_Driver/Src/stm32l4xx_hal_flash.c **** 
 180:Drivers/STM32L4xx_HAL_Driver/Src/stm32l4xx_hal_flash.c ****   /* Wait for last operation to be completed */
 181:Drivers/STM32L4xx_HAL_Driver/Src/stm32l4xx_hal_flash.c ****   status = FLASH_WaitForLastOperation((uint32_t)FLASH_TIMEOUT_VALUE);
  84              		.loc 1 181 12 is_stmt 1
  85 0024 4CF25030 		movw	r0, #50000
  86 0028 FFF7FEFF 		bl	FLASH_WaitForLastOperation
  87 002c 0346     		mov	r3, r0
  88 002e FB75     		strb	r3, [r7, #23]
 182:Drivers/STM32L4xx_HAL_Driver/Src/stm32l4xx_hal_flash.c **** 
 183:Drivers/STM32L4xx_HAL_Driver/Src/stm32l4xx_hal_flash.c ****   if(status == HAL_OK)
  89              		.loc 1 183 5
  90 0030 FB7D     		ldrb	r3, [r7, #23]	@ zero_extendqisi2
  91 0032 002B     		cmp	r3, #0
  92 0034 43D1     		bne	.L4
 184:Drivers/STM32L4xx_HAL_Driver/Src/stm32l4xx_hal_flash.c ****   {
 185:Drivers/STM32L4xx_HAL_Driver/Src/stm32l4xx_hal_flash.c ****     pFlash.ErrorCode = HAL_FLASH_ERROR_NONE;
  93              		.loc 1 185 22
  94 0036 264B     		ldr	r3, .L11
  95 0038 0022     		movs	r2, #0
  96 003a 5A60     		str	r2, [r3, #4]
 186:Drivers/STM32L4xx_HAL_Driver/Src/stm32l4xx_hal_flash.c **** 
 187:Drivers/STM32L4xx_HAL_Driver/Src/stm32l4xx_hal_flash.c ****     /* Deactivate the data cache if they are activated to avoid data misbehavior */
 188:Drivers/STM32L4xx_HAL_Driver/Src/stm32l4xx_hal_flash.c ****     if(READ_BIT(FLASH->ACR, FLASH_ACR_DCEN) != 0U)
  97              		.loc 1 188 8
  98 003c 254B     		ldr	r3, .L11+4
  99 003e 1B68     		ldr	r3, [r3]
 100 0040 03F48063 		and	r3, r3, #1024
 101              		.loc 1 188 7
ARM GAS  /tmp/cc9mqueP.s 			page 6


 102 0044 002B     		cmp	r3, #0
 103 0046 09D0     		beq	.L5
 189:Drivers/STM32L4xx_HAL_Driver/Src/stm32l4xx_hal_flash.c ****     {
 190:Drivers/STM32L4xx_HAL_Driver/Src/stm32l4xx_hal_flash.c ****       /* Disable data cache  */
 191:Drivers/STM32L4xx_HAL_Driver/Src/stm32l4xx_hal_flash.c ****       __HAL_FLASH_DATA_CACHE_DISABLE();
 104              		.loc 1 191 7
 105 0048 224B     		ldr	r3, .L11+4
 106 004a 1B68     		ldr	r3, [r3]
 107 004c 214A     		ldr	r2, .L11+4
 108 004e 23F48063 		bic	r3, r3, #1024
 109 0052 1360     		str	r3, [r2]
 192:Drivers/STM32L4xx_HAL_Driver/Src/stm32l4xx_hal_flash.c ****       pFlash.CacheToReactivate = FLASH_CACHE_DCACHE_ENABLED;
 110              		.loc 1 192 32
 111 0054 1E4B     		ldr	r3, .L11
 112 0056 0222     		movs	r2, #2
 113 0058 1A77     		strb	r2, [r3, #28]
 114 005a 02E0     		b	.L6
 115              	.L5:
 193:Drivers/STM32L4xx_HAL_Driver/Src/stm32l4xx_hal_flash.c ****     }
 194:Drivers/STM32L4xx_HAL_Driver/Src/stm32l4xx_hal_flash.c ****     else
 195:Drivers/STM32L4xx_HAL_Driver/Src/stm32l4xx_hal_flash.c ****     {
 196:Drivers/STM32L4xx_HAL_Driver/Src/stm32l4xx_hal_flash.c ****       pFlash.CacheToReactivate = FLASH_CACHE_DISABLED;
 116              		.loc 1 196 32
 117 005c 1C4B     		ldr	r3, .L11
 118 005e 0022     		movs	r2, #0
 119 0060 1A77     		strb	r2, [r3, #28]
 120              	.L6:
 197:Drivers/STM32L4xx_HAL_Driver/Src/stm32l4xx_hal_flash.c ****     }
 198:Drivers/STM32L4xx_HAL_Driver/Src/stm32l4xx_hal_flash.c **** 
 199:Drivers/STM32L4xx_HAL_Driver/Src/stm32l4xx_hal_flash.c ****     if(TypeProgram == FLASH_TYPEPROGRAM_DOUBLEWORD)
 121              		.loc 1 199 7
 122 0062 FB68     		ldr	r3, [r7, #12]
 123 0064 002B     		cmp	r3, #0
 124 0066 07D1     		bne	.L7
 200:Drivers/STM32L4xx_HAL_Driver/Src/stm32l4xx_hal_flash.c ****     {
 201:Drivers/STM32L4xx_HAL_Driver/Src/stm32l4xx_hal_flash.c ****       /* Program double-word (64-bit) at a specified address */
 202:Drivers/STM32L4xx_HAL_Driver/Src/stm32l4xx_hal_flash.c ****       FLASH_Program_DoubleWord(Address, Data);
 125              		.loc 1 202 7
 126 0068 D7E90023 		ldrd	r2, [r7]
 127 006c B868     		ldr	r0, [r7, #8]
 128 006e FFF7FEFF 		bl	FLASH_Program_DoubleWord
 203:Drivers/STM32L4xx_HAL_Driver/Src/stm32l4xx_hal_flash.c ****       prog_bit = FLASH_CR_PG;
 129              		.loc 1 203 16
 130 0072 0123     		movs	r3, #1
 131 0074 3B61     		str	r3, [r7, #16]
 132 0076 10E0     		b	.L8
 133              	.L7:
 204:Drivers/STM32L4xx_HAL_Driver/Src/stm32l4xx_hal_flash.c ****     }
 205:Drivers/STM32L4xx_HAL_Driver/Src/stm32l4xx_hal_flash.c ****     else if((TypeProgram == FLASH_TYPEPROGRAM_FAST) || (TypeProgram == FLASH_TYPEPROGRAM_FAST_AND_L
 134              		.loc 1 205 12
 135 0078 FB68     		ldr	r3, [r7, #12]
 136 007a 012B     		cmp	r3, #1
 137 007c 02D0     		beq	.L9
 138              		.loc 1 205 53 discriminator 1
 139 007e FB68     		ldr	r3, [r7, #12]
 140 0080 022B     		cmp	r3, #2
 141 0082 0AD1     		bne	.L8
ARM GAS  /tmp/cc9mqueP.s 			page 7


 142              	.L9:
 206:Drivers/STM32L4xx_HAL_Driver/Src/stm32l4xx_hal_flash.c ****     {
 207:Drivers/STM32L4xx_HAL_Driver/Src/stm32l4xx_hal_flash.c ****       /* Fast program a 32 row double-word (64-bit) at a specified address */
 208:Drivers/STM32L4xx_HAL_Driver/Src/stm32l4xx_hal_flash.c ****       FLASH_Program_Fast(Address, (uint32_t)Data);
 143              		.loc 1 208 7
 144 0084 3B68     		ldr	r3, [r7]
 145 0086 1946     		mov	r1, r3
 146 0088 B868     		ldr	r0, [r7, #8]
 147 008a FFF7FEFF 		bl	FLASH_Program_Fast
 209:Drivers/STM32L4xx_HAL_Driver/Src/stm32l4xx_hal_flash.c **** 
 210:Drivers/STM32L4xx_HAL_Driver/Src/stm32l4xx_hal_flash.c ****       /* If it is the last row, the bit will be cleared at the end of the operation */
 211:Drivers/STM32L4xx_HAL_Driver/Src/stm32l4xx_hal_flash.c ****       if(TypeProgram == FLASH_TYPEPROGRAM_FAST_AND_LAST)
 148              		.loc 1 211 9
 149 008e FB68     		ldr	r3, [r7, #12]
 150 0090 022B     		cmp	r3, #2
 151 0092 02D1     		bne	.L8
 212:Drivers/STM32L4xx_HAL_Driver/Src/stm32l4xx_hal_flash.c ****       {
 213:Drivers/STM32L4xx_HAL_Driver/Src/stm32l4xx_hal_flash.c ****         prog_bit = FLASH_CR_FSTPG;
 152              		.loc 1 213 18
 153 0094 4FF48023 		mov	r3, #262144
 154 0098 3B61     		str	r3, [r7, #16]
 155              	.L8:
 214:Drivers/STM32L4xx_HAL_Driver/Src/stm32l4xx_hal_flash.c ****       }
 215:Drivers/STM32L4xx_HAL_Driver/Src/stm32l4xx_hal_flash.c ****     }
 216:Drivers/STM32L4xx_HAL_Driver/Src/stm32l4xx_hal_flash.c ****     else
 217:Drivers/STM32L4xx_HAL_Driver/Src/stm32l4xx_hal_flash.c ****     {
 218:Drivers/STM32L4xx_HAL_Driver/Src/stm32l4xx_hal_flash.c ****       /* Nothing to do */
 219:Drivers/STM32L4xx_HAL_Driver/Src/stm32l4xx_hal_flash.c ****     }
 220:Drivers/STM32L4xx_HAL_Driver/Src/stm32l4xx_hal_flash.c **** 
 221:Drivers/STM32L4xx_HAL_Driver/Src/stm32l4xx_hal_flash.c ****     /* Wait for last operation to be completed */
 222:Drivers/STM32L4xx_HAL_Driver/Src/stm32l4xx_hal_flash.c ****     status = FLASH_WaitForLastOperation((uint32_t)FLASH_TIMEOUT_VALUE);
 156              		.loc 1 222 14
 157 009a 4CF25030 		movw	r0, #50000
 158 009e FFF7FEFF 		bl	FLASH_WaitForLastOperation
 159 00a2 0346     		mov	r3, r0
 160 00a4 FB75     		strb	r3, [r7, #23]
 223:Drivers/STM32L4xx_HAL_Driver/Src/stm32l4xx_hal_flash.c **** 
 224:Drivers/STM32L4xx_HAL_Driver/Src/stm32l4xx_hal_flash.c ****     /* If the program operation is completed, disable the PG or FSTPG Bit */
 225:Drivers/STM32L4xx_HAL_Driver/Src/stm32l4xx_hal_flash.c ****     if (prog_bit != 0U)
 161              		.loc 1 225 8
 162 00a6 3B69     		ldr	r3, [r7, #16]
 163 00a8 002B     		cmp	r3, #0
 164 00aa 06D0     		beq	.L10
 226:Drivers/STM32L4xx_HAL_Driver/Src/stm32l4xx_hal_flash.c ****     {
 227:Drivers/STM32L4xx_HAL_Driver/Src/stm32l4xx_hal_flash.c ****       CLEAR_BIT(FLASH->CR, prog_bit);
 165              		.loc 1 227 7
 166 00ac 094B     		ldr	r3, .L11+4
 167 00ae 5A69     		ldr	r2, [r3, #20]
 168 00b0 3B69     		ldr	r3, [r7, #16]
 169 00b2 DB43     		mvns	r3, r3
 170 00b4 0749     		ldr	r1, .L11+4
 171 00b6 1340     		ands	r3, r3, r2
 172 00b8 4B61     		str	r3, [r1, #20]
 173              	.L10:
 228:Drivers/STM32L4xx_HAL_Driver/Src/stm32l4xx_hal_flash.c ****     }
 229:Drivers/STM32L4xx_HAL_Driver/Src/stm32l4xx_hal_flash.c **** 
 230:Drivers/STM32L4xx_HAL_Driver/Src/stm32l4xx_hal_flash.c ****     /* Flush the caches to be sure of the data consistency */
ARM GAS  /tmp/cc9mqueP.s 			page 8


 231:Drivers/STM32L4xx_HAL_Driver/Src/stm32l4xx_hal_flash.c ****     FLASH_FlushCaches();
 174              		.loc 1 231 5
 175 00ba FFF7FEFF 		bl	FLASH_FlushCaches
 176              	.L4:
 232:Drivers/STM32L4xx_HAL_Driver/Src/stm32l4xx_hal_flash.c ****   }
 233:Drivers/STM32L4xx_HAL_Driver/Src/stm32l4xx_hal_flash.c **** 
 234:Drivers/STM32L4xx_HAL_Driver/Src/stm32l4xx_hal_flash.c ****   /* Process Unlocked */
 235:Drivers/STM32L4xx_HAL_Driver/Src/stm32l4xx_hal_flash.c ****   __HAL_UNLOCK(&pFlash);
 177              		.loc 1 235 3
 178 00be 044B     		ldr	r3, .L11
 179 00c0 0022     		movs	r2, #0
 180 00c2 1A70     		strb	r2, [r3]
 236:Drivers/STM32L4xx_HAL_Driver/Src/stm32l4xx_hal_flash.c **** 
 237:Drivers/STM32L4xx_HAL_Driver/Src/stm32l4xx_hal_flash.c ****   return status;
 181              		.loc 1 237 10
 182 00c4 FB7D     		ldrb	r3, [r7, #23]	@ zero_extendqisi2
 183              	.L3:
 238:Drivers/STM32L4xx_HAL_Driver/Src/stm32l4xx_hal_flash.c **** }
 184              		.loc 1 238 1
 185 00c6 1846     		mov	r0, r3
 186 00c8 1837     		adds	r7, r7, #24
 187              		.cfi_def_cfa_offset 8
 188 00ca BD46     		mov	sp, r7
 189              		.cfi_def_cfa_register 13
 190              		@ sp needed
 191 00cc 80BD     		pop	{r7, pc}
 192              	.L12:
 193 00ce 00BF     		.align	2
 194              	.L11:
 195 00d0 00000000 		.word	pFlash
 196 00d4 00200240 		.word	1073881088
 197              		.cfi_endproc
 198              	.LFE445:
 200              		.section	.text.HAL_FLASH_Program_IT,"ax",%progbits
 201              		.align	1
 202              		.global	HAL_FLASH_Program_IT
 203              		.syntax unified
 204              		.thumb
 205              		.thumb_func
 207              	HAL_FLASH_Program_IT:
 208              	.LFB446:
 239:Drivers/STM32L4xx_HAL_Driver/Src/stm32l4xx_hal_flash.c **** 
 240:Drivers/STM32L4xx_HAL_Driver/Src/stm32l4xx_hal_flash.c **** /**
 241:Drivers/STM32L4xx_HAL_Driver/Src/stm32l4xx_hal_flash.c ****   * @brief  Program double word or fast program of a row at a specified address with interrupt enab
 242:Drivers/STM32L4xx_HAL_Driver/Src/stm32l4xx_hal_flash.c ****   * @param  TypeProgram  Indicate the way to program at a specified address.
 243:Drivers/STM32L4xx_HAL_Driver/Src/stm32l4xx_hal_flash.c ****   *                           This parameter can be a value of @ref FLASH_Type_Program
 244:Drivers/STM32L4xx_HAL_Driver/Src/stm32l4xx_hal_flash.c ****   * @param  Address  specifies the address to be programmed.
 245:Drivers/STM32L4xx_HAL_Driver/Src/stm32l4xx_hal_flash.c ****   * @param  Data specifies the data to be programmed
 246:Drivers/STM32L4xx_HAL_Driver/Src/stm32l4xx_hal_flash.c ****   *                This parameter is the data for the double word program and the address where
 247:Drivers/STM32L4xx_HAL_Driver/Src/stm32l4xx_hal_flash.c ****   *                are stored the data for the row fast program
 248:Drivers/STM32L4xx_HAL_Driver/Src/stm32l4xx_hal_flash.c ****   *
 249:Drivers/STM32L4xx_HAL_Driver/Src/stm32l4xx_hal_flash.c ****   * @retval HAL Status
 250:Drivers/STM32L4xx_HAL_Driver/Src/stm32l4xx_hal_flash.c ****   */
 251:Drivers/STM32L4xx_HAL_Driver/Src/stm32l4xx_hal_flash.c **** HAL_StatusTypeDef HAL_FLASH_Program_IT(uint32_t TypeProgram, uint32_t Address, uint64_t Data)
 252:Drivers/STM32L4xx_HAL_Driver/Src/stm32l4xx_hal_flash.c **** {
 209              		.loc 1 252 1
 210              		.cfi_startproc
ARM GAS  /tmp/cc9mqueP.s 			page 9


 211              		@ args = 0, pretend = 0, frame = 24
 212              		@ frame_needed = 1, uses_anonymous_args = 0
 213 0000 80B5     		push	{r7, lr}
 214              		.cfi_def_cfa_offset 8
 215              		.cfi_offset 7, -8
 216              		.cfi_offset 14, -4
 217 0002 86B0     		sub	sp, sp, #24
 218              		.cfi_def_cfa_offset 32
 219 0004 00AF     		add	r7, sp, #0
 220              		.cfi_def_cfa_register 7
 221 0006 F860     		str	r0, [r7, #12]
 222 0008 B960     		str	r1, [r7, #8]
 223 000a C7E90023 		strd	r2, [r7]
 253:Drivers/STM32L4xx_HAL_Driver/Src/stm32l4xx_hal_flash.c ****   HAL_StatusTypeDef status = HAL_OK;
 224              		.loc 1 253 21
 225 000e 0023     		movs	r3, #0
 226 0010 FB75     		strb	r3, [r7, #23]
 254:Drivers/STM32L4xx_HAL_Driver/Src/stm32l4xx_hal_flash.c **** 
 255:Drivers/STM32L4xx_HAL_Driver/Src/stm32l4xx_hal_flash.c ****   /* Check the parameters */
 256:Drivers/STM32L4xx_HAL_Driver/Src/stm32l4xx_hal_flash.c ****   assert_param(IS_FLASH_TYPEPROGRAM(TypeProgram));
 257:Drivers/STM32L4xx_HAL_Driver/Src/stm32l4xx_hal_flash.c **** 
 258:Drivers/STM32L4xx_HAL_Driver/Src/stm32l4xx_hal_flash.c ****   /* Process Locked */
 259:Drivers/STM32L4xx_HAL_Driver/Src/stm32l4xx_hal_flash.c ****   __HAL_LOCK(&pFlash);
 227              		.loc 1 259 3
 228 0012 254B     		ldr	r3, .L23
 229 0014 1B78     		ldrb	r3, [r3]	@ zero_extendqisi2
 230 0016 012B     		cmp	r3, #1
 231 0018 01D1     		bne	.L14
 232              		.loc 1 259 3 is_stmt 0 discriminator 1
 233 001a 0223     		movs	r3, #2
 234              		.loc 1 259 3
 235 001c 40E0     		b	.L15
 236              	.L14:
 237              		.loc 1 259 3 discriminator 2
 238 001e 224B     		ldr	r3, .L23
 239 0020 0122     		movs	r2, #1
 240 0022 1A70     		strb	r2, [r3]
 260:Drivers/STM32L4xx_HAL_Driver/Src/stm32l4xx_hal_flash.c **** 
 261:Drivers/STM32L4xx_HAL_Driver/Src/stm32l4xx_hal_flash.c ****   pFlash.ErrorCode = HAL_FLASH_ERROR_NONE;
 241              		.loc 1 261 20 is_stmt 1
 242 0024 204B     		ldr	r3, .L23
 243 0026 0022     		movs	r2, #0
 244 0028 5A60     		str	r2, [r3, #4]
 262:Drivers/STM32L4xx_HAL_Driver/Src/stm32l4xx_hal_flash.c **** 
 263:Drivers/STM32L4xx_HAL_Driver/Src/stm32l4xx_hal_flash.c ****   /* Deactivate the data cache if they are activated to avoid data misbehavior */
 264:Drivers/STM32L4xx_HAL_Driver/Src/stm32l4xx_hal_flash.c ****   if(READ_BIT(FLASH->ACR, FLASH_ACR_DCEN) != 0U)
 245              		.loc 1 264 6
 246 002a 204B     		ldr	r3, .L23+4
 247 002c 1B68     		ldr	r3, [r3]
 248 002e 03F48063 		and	r3, r3, #1024
 249              		.loc 1 264 5
 250 0032 002B     		cmp	r3, #0
 251 0034 09D0     		beq	.L16
 265:Drivers/STM32L4xx_HAL_Driver/Src/stm32l4xx_hal_flash.c ****   {
 266:Drivers/STM32L4xx_HAL_Driver/Src/stm32l4xx_hal_flash.c ****     /* Disable data cache  */
 267:Drivers/STM32L4xx_HAL_Driver/Src/stm32l4xx_hal_flash.c ****     __HAL_FLASH_DATA_CACHE_DISABLE();
 252              		.loc 1 267 5
ARM GAS  /tmp/cc9mqueP.s 			page 10


 253 0036 1D4B     		ldr	r3, .L23+4
 254 0038 1B68     		ldr	r3, [r3]
 255 003a 1C4A     		ldr	r2, .L23+4
 256 003c 23F48063 		bic	r3, r3, #1024
 257 0040 1360     		str	r3, [r2]
 268:Drivers/STM32L4xx_HAL_Driver/Src/stm32l4xx_hal_flash.c ****     pFlash.CacheToReactivate = FLASH_CACHE_DCACHE_ENABLED;
 258              		.loc 1 268 30
 259 0042 194B     		ldr	r3, .L23
 260 0044 0222     		movs	r2, #2
 261 0046 1A77     		strb	r2, [r3, #28]
 262 0048 02E0     		b	.L17
 263              	.L16:
 269:Drivers/STM32L4xx_HAL_Driver/Src/stm32l4xx_hal_flash.c ****   }
 270:Drivers/STM32L4xx_HAL_Driver/Src/stm32l4xx_hal_flash.c ****   else
 271:Drivers/STM32L4xx_HAL_Driver/Src/stm32l4xx_hal_flash.c ****   {
 272:Drivers/STM32L4xx_HAL_Driver/Src/stm32l4xx_hal_flash.c ****     pFlash.CacheToReactivate = FLASH_CACHE_DISABLED;
 264              		.loc 1 272 30
 265 004a 174B     		ldr	r3, .L23
 266 004c 0022     		movs	r2, #0
 267 004e 1A77     		strb	r2, [r3, #28]
 268              	.L17:
 273:Drivers/STM32L4xx_HAL_Driver/Src/stm32l4xx_hal_flash.c ****   }
 274:Drivers/STM32L4xx_HAL_Driver/Src/stm32l4xx_hal_flash.c **** 
 275:Drivers/STM32L4xx_HAL_Driver/Src/stm32l4xx_hal_flash.c ****   /* Set internal variables used by the IRQ handler */
 276:Drivers/STM32L4xx_HAL_Driver/Src/stm32l4xx_hal_flash.c ****   if(TypeProgram == FLASH_TYPEPROGRAM_FAST_AND_LAST)
 269              		.loc 1 276 5
 270 0050 FB68     		ldr	r3, [r7, #12]
 271 0052 022B     		cmp	r3, #2
 272 0054 03D1     		bne	.L18
 277:Drivers/STM32L4xx_HAL_Driver/Src/stm32l4xx_hal_flash.c ****   {
 278:Drivers/STM32L4xx_HAL_Driver/Src/stm32l4xx_hal_flash.c ****     pFlash.ProcedureOnGoing = FLASH_PROC_PROGRAM_LAST;
 273              		.loc 1 278 29
 274 0056 144B     		ldr	r3, .L23
 275 0058 0422     		movs	r2, #4
 276 005a 1A72     		strb	r2, [r3, #8]
 277 005c 02E0     		b	.L19
 278              	.L18:
 279:Drivers/STM32L4xx_HAL_Driver/Src/stm32l4xx_hal_flash.c ****   }
 280:Drivers/STM32L4xx_HAL_Driver/Src/stm32l4xx_hal_flash.c ****   else
 281:Drivers/STM32L4xx_HAL_Driver/Src/stm32l4xx_hal_flash.c ****   {
 282:Drivers/STM32L4xx_HAL_Driver/Src/stm32l4xx_hal_flash.c ****     pFlash.ProcedureOnGoing = FLASH_PROC_PROGRAM;
 279              		.loc 1 282 29
 280 005e 124B     		ldr	r3, .L23
 281 0060 0322     		movs	r2, #3
 282 0062 1A72     		strb	r2, [r3, #8]
 283              	.L19:
 283:Drivers/STM32L4xx_HAL_Driver/Src/stm32l4xx_hal_flash.c ****   }
 284:Drivers/STM32L4xx_HAL_Driver/Src/stm32l4xx_hal_flash.c ****   pFlash.Address = Address;
 284              		.loc 1 284 18
 285 0064 104A     		ldr	r2, .L23
 286 0066 BB68     		ldr	r3, [r7, #8]
 287 0068 D360     		str	r3, [r2, #12]
 285:Drivers/STM32L4xx_HAL_Driver/Src/stm32l4xx_hal_flash.c **** 
 286:Drivers/STM32L4xx_HAL_Driver/Src/stm32l4xx_hal_flash.c ****   /* Enable End of Operation and Error interrupts */
 287:Drivers/STM32L4xx_HAL_Driver/Src/stm32l4xx_hal_flash.c ****   __HAL_FLASH_ENABLE_IT(FLASH_IT_EOP | FLASH_IT_OPERR);
 288              		.loc 1 287 3 discriminator 4
 289 006a 104B     		ldr	r3, .L23+4
ARM GAS  /tmp/cc9mqueP.s 			page 11


 290 006c 5B69     		ldr	r3, [r3, #20]
 291 006e 0F4A     		ldr	r2, .L23+4
 292 0070 43F04073 		orr	r3, r3, #50331648
 293 0074 5361     		str	r3, [r2, #20]
 288:Drivers/STM32L4xx_HAL_Driver/Src/stm32l4xx_hal_flash.c **** 
 289:Drivers/STM32L4xx_HAL_Driver/Src/stm32l4xx_hal_flash.c ****   if(TypeProgram == FLASH_TYPEPROGRAM_DOUBLEWORD)
 294              		.loc 1 289 5
 295 0076 FB68     		ldr	r3, [r7, #12]
 296 0078 002B     		cmp	r3, #0
 297 007a 05D1     		bne	.L20
 290:Drivers/STM32L4xx_HAL_Driver/Src/stm32l4xx_hal_flash.c ****   {
 291:Drivers/STM32L4xx_HAL_Driver/Src/stm32l4xx_hal_flash.c ****     /* Program double-word (64-bit) at a specified address */
 292:Drivers/STM32L4xx_HAL_Driver/Src/stm32l4xx_hal_flash.c ****     FLASH_Program_DoubleWord(Address, Data);
 298              		.loc 1 292 5
 299 007c D7E90023 		ldrd	r2, [r7]
 300 0080 B868     		ldr	r0, [r7, #8]
 301 0082 FFF7FEFF 		bl	FLASH_Program_DoubleWord
 302 0086 0AE0     		b	.L21
 303              	.L20:
 293:Drivers/STM32L4xx_HAL_Driver/Src/stm32l4xx_hal_flash.c ****   }
 294:Drivers/STM32L4xx_HAL_Driver/Src/stm32l4xx_hal_flash.c ****   else if((TypeProgram == FLASH_TYPEPROGRAM_FAST) || (TypeProgram == FLASH_TYPEPROGRAM_FAST_AND_LAS
 304              		.loc 1 294 10
 305 0088 FB68     		ldr	r3, [r7, #12]
 306 008a 012B     		cmp	r3, #1
 307 008c 02D0     		beq	.L22
 308              		.loc 1 294 51 discriminator 1
 309 008e FB68     		ldr	r3, [r7, #12]
 310 0090 022B     		cmp	r3, #2
 311 0092 04D1     		bne	.L21
 312              	.L22:
 295:Drivers/STM32L4xx_HAL_Driver/Src/stm32l4xx_hal_flash.c ****   {
 296:Drivers/STM32L4xx_HAL_Driver/Src/stm32l4xx_hal_flash.c ****     /* Fast program a 32 row double-word (64-bit) at a specified address */
 297:Drivers/STM32L4xx_HAL_Driver/Src/stm32l4xx_hal_flash.c ****     FLASH_Program_Fast(Address, (uint32_t)Data);
 313              		.loc 1 297 5
 314 0094 3B68     		ldr	r3, [r7]
 315 0096 1946     		mov	r1, r3
 316 0098 B868     		ldr	r0, [r7, #8]
 317 009a FFF7FEFF 		bl	FLASH_Program_Fast
 318              	.L21:
 298:Drivers/STM32L4xx_HAL_Driver/Src/stm32l4xx_hal_flash.c ****   }
 299:Drivers/STM32L4xx_HAL_Driver/Src/stm32l4xx_hal_flash.c ****   else
 300:Drivers/STM32L4xx_HAL_Driver/Src/stm32l4xx_hal_flash.c ****   {
 301:Drivers/STM32L4xx_HAL_Driver/Src/stm32l4xx_hal_flash.c ****     /* Nothing to do */
 302:Drivers/STM32L4xx_HAL_Driver/Src/stm32l4xx_hal_flash.c ****   }
 303:Drivers/STM32L4xx_HAL_Driver/Src/stm32l4xx_hal_flash.c **** 
 304:Drivers/STM32L4xx_HAL_Driver/Src/stm32l4xx_hal_flash.c ****   return status;
 319              		.loc 1 304 10
 320 009e FB7D     		ldrb	r3, [r7, #23]	@ zero_extendqisi2
 321              	.L15:
 305:Drivers/STM32L4xx_HAL_Driver/Src/stm32l4xx_hal_flash.c **** }
 322              		.loc 1 305 1
 323 00a0 1846     		mov	r0, r3
 324 00a2 1837     		adds	r7, r7, #24
 325              		.cfi_def_cfa_offset 8
 326 00a4 BD46     		mov	sp, r7
 327              		.cfi_def_cfa_register 13
 328              		@ sp needed
ARM GAS  /tmp/cc9mqueP.s 			page 12


 329 00a6 80BD     		pop	{r7, pc}
 330              	.L24:
 331              		.align	2
 332              	.L23:
 333 00a8 00000000 		.word	pFlash
 334 00ac 00200240 		.word	1073881088
 335              		.cfi_endproc
 336              	.LFE446:
 338              		.section	.text.HAL_FLASH_IRQHandler,"ax",%progbits
 339              		.align	1
 340              		.global	HAL_FLASH_IRQHandler
 341              		.syntax unified
 342              		.thumb
 343              		.thumb_func
 345              	HAL_FLASH_IRQHandler:
 346              	.LFB447:
 306:Drivers/STM32L4xx_HAL_Driver/Src/stm32l4xx_hal_flash.c **** 
 307:Drivers/STM32L4xx_HAL_Driver/Src/stm32l4xx_hal_flash.c **** /**
 308:Drivers/STM32L4xx_HAL_Driver/Src/stm32l4xx_hal_flash.c ****   * @brief Handle FLASH interrupt request.
 309:Drivers/STM32L4xx_HAL_Driver/Src/stm32l4xx_hal_flash.c ****   * @retval None
 310:Drivers/STM32L4xx_HAL_Driver/Src/stm32l4xx_hal_flash.c ****   */
 311:Drivers/STM32L4xx_HAL_Driver/Src/stm32l4xx_hal_flash.c **** void HAL_FLASH_IRQHandler(void)
 312:Drivers/STM32L4xx_HAL_Driver/Src/stm32l4xx_hal_flash.c **** {
 347              		.loc 1 312 1
 348              		.cfi_startproc
 349              		@ args = 0, pretend = 0, frame = 16
 350              		@ frame_needed = 1, uses_anonymous_args = 0
 351 0000 80B5     		push	{r7, lr}
 352              		.cfi_def_cfa_offset 8
 353              		.cfi_offset 7, -8
 354              		.cfi_offset 14, -4
 355 0002 84B0     		sub	sp, sp, #16
 356              		.cfi_def_cfa_offset 24
 357 0004 00AF     		add	r7, sp, #0
 358              		.cfi_def_cfa_register 7
 313:Drivers/STM32L4xx_HAL_Driver/Src/stm32l4xx_hal_flash.c ****   uint32_t tmp_page;
 314:Drivers/STM32L4xx_HAL_Driver/Src/stm32l4xx_hal_flash.c ****   uint32_t error;
 315:Drivers/STM32L4xx_HAL_Driver/Src/stm32l4xx_hal_flash.c ****   FLASH_ProcedureTypeDef procedure;
 316:Drivers/STM32L4xx_HAL_Driver/Src/stm32l4xx_hal_flash.c **** 
 317:Drivers/STM32L4xx_HAL_Driver/Src/stm32l4xx_hal_flash.c ****   /* If the operation is completed, disable the PG, PNB, MER1, MER2 and PER Bit */
 318:Drivers/STM32L4xx_HAL_Driver/Src/stm32l4xx_hal_flash.c ****   CLEAR_BIT(FLASH->CR, (FLASH_CR_PG | FLASH_CR_MER1 | FLASH_CR_PER | FLASH_CR_PNB));
 359              		.loc 1 318 3
 360 0006 674B     		ldr	r3, .L43
 361 0008 5B69     		ldr	r3, [r3, #20]
 362 000a 664A     		ldr	r2, .L43
 363 000c 23F4FF63 		bic	r3, r3, #2040
 364 0010 23F00703 		bic	r3, r3, #7
 365 0014 5361     		str	r3, [r2, #20]
 319:Drivers/STM32L4xx_HAL_Driver/Src/stm32l4xx_hal_flash.c **** #if defined (STM32L471xx) || defined (STM32L475xx) || defined (STM32L476xx) || defined (STM32L485xx
 320:Drivers/STM32L4xx_HAL_Driver/Src/stm32l4xx_hal_flash.c ****     defined (STM32L496xx) || defined (STM32L4A6xx) || \
 321:Drivers/STM32L4xx_HAL_Driver/Src/stm32l4xx_hal_flash.c ****     defined (STM32L4P5xx) || defined (STM32L4Q5xx) || \
 322:Drivers/STM32L4xx_HAL_Driver/Src/stm32l4xx_hal_flash.c ****     defined (STM32L4R5xx) || defined (STM32L4R7xx) || defined (STM32L4R9xx) || defined (STM32L4S5xx
 323:Drivers/STM32L4xx_HAL_Driver/Src/stm32l4xx_hal_flash.c ****   CLEAR_BIT(FLASH->CR, FLASH_CR_MER2);
 366              		.loc 1 323 3
 367 0016 634B     		ldr	r3, .L43
 368 0018 5B69     		ldr	r3, [r3, #20]
 369 001a 624A     		ldr	r2, .L43
ARM GAS  /tmp/cc9mqueP.s 			page 13


 370 001c 23F40043 		bic	r3, r3, #32768
 371 0020 5361     		str	r3, [r2, #20]
 324:Drivers/STM32L4xx_HAL_Driver/Src/stm32l4xx_hal_flash.c **** #endif
 325:Drivers/STM32L4xx_HAL_Driver/Src/stm32l4xx_hal_flash.c **** 
 326:Drivers/STM32L4xx_HAL_Driver/Src/stm32l4xx_hal_flash.c ****   /* Disable the FSTPG Bit only if it is the last row programmed */
 327:Drivers/STM32L4xx_HAL_Driver/Src/stm32l4xx_hal_flash.c ****   if(pFlash.ProcedureOnGoing == FLASH_PROC_PROGRAM_LAST)
 372              		.loc 1 327 12
 373 0022 614B     		ldr	r3, .L43+4
 374 0024 1B7A     		ldrb	r3, [r3, #8]
 375 0026 DBB2     		uxtb	r3, r3
 376              		.loc 1 327 5
 377 0028 042B     		cmp	r3, #4
 378 002a 05D1     		bne	.L26
 328:Drivers/STM32L4xx_HAL_Driver/Src/stm32l4xx_hal_flash.c ****   {
 329:Drivers/STM32L4xx_HAL_Driver/Src/stm32l4xx_hal_flash.c ****     CLEAR_BIT(FLASH->CR, FLASH_CR_FSTPG);
 379              		.loc 1 329 5
 380 002c 5D4B     		ldr	r3, .L43
 381 002e 5B69     		ldr	r3, [r3, #20]
 382 0030 5C4A     		ldr	r2, .L43
 383 0032 23F48023 		bic	r3, r3, #262144
 384 0036 5361     		str	r3, [r2, #20]
 385              	.L26:
 330:Drivers/STM32L4xx_HAL_Driver/Src/stm32l4xx_hal_flash.c ****   }
 331:Drivers/STM32L4xx_HAL_Driver/Src/stm32l4xx_hal_flash.c **** 
 332:Drivers/STM32L4xx_HAL_Driver/Src/stm32l4xx_hal_flash.c ****   /* Check FLASH operation error flags */
 333:Drivers/STM32L4xx_HAL_Driver/Src/stm32l4xx_hal_flash.c ****   error = (FLASH->SR & FLASH_FLAG_SR_ERRORS);
 386              		.loc 1 333 17
 387 0038 5A4B     		ldr	r3, .L43
 388 003a 1A69     		ldr	r2, [r3, #16]
 389              		.loc 1 333 9
 390 003c 4CF2FA33 		movw	r3, #50170
 391 0040 1340     		ands	r3, r3, r2
 392 0042 FB60     		str	r3, [r7, #12]
 334:Drivers/STM32L4xx_HAL_Driver/Src/stm32l4xx_hal_flash.c **** 
 335:Drivers/STM32L4xx_HAL_Driver/Src/stm32l4xx_hal_flash.c ****   if (error !=0U)
 393              		.loc 1 335 6
 394 0044 FB68     		ldr	r3, [r7, #12]
 395 0046 002B     		cmp	r3, #0
 396 0048 44D0     		beq	.L27
 336:Drivers/STM32L4xx_HAL_Driver/Src/stm32l4xx_hal_flash.c ****   {
 337:Drivers/STM32L4xx_HAL_Driver/Src/stm32l4xx_hal_flash.c ****     /*Save the error code*/
 338:Drivers/STM32L4xx_HAL_Driver/Src/stm32l4xx_hal_flash.c ****     pFlash.ErrorCode |= error;
 397              		.loc 1 338 11
 398 004a 574B     		ldr	r3, .L43+4
 399 004c 5A68     		ldr	r2, [r3, #4]
 400              		.loc 1 338 22
 401 004e FB68     		ldr	r3, [r7, #12]
 402 0050 1343     		orrs	r3, r3, r2
 403 0052 554A     		ldr	r2, .L43+4
 404 0054 5360     		str	r3, [r2, #4]
 339:Drivers/STM32L4xx_HAL_Driver/Src/stm32l4xx_hal_flash.c **** 
 340:Drivers/STM32L4xx_HAL_Driver/Src/stm32l4xx_hal_flash.c ****     /* Clear error programming flags */
 341:Drivers/STM32L4xx_HAL_Driver/Src/stm32l4xx_hal_flash.c ****     __HAL_FLASH_CLEAR_FLAG(error);
 405              		.loc 1 341 5
 406 0056 FB68     		ldr	r3, [r7, #12]
 407 0058 B3F1804F 		cmp	r3, #1073741824
 408 005c 07D3     		bcc	.L28
ARM GAS  /tmp/cc9mqueP.s 			page 14


 409              		.loc 1 341 5 is_stmt 0 discriminator 1
 410 005e 514B     		ldr	r3, .L43
 411 0060 9A69     		ldr	r2, [r3, #24]
 412 0062 FB68     		ldr	r3, [r7, #12]
 413 0064 03F04043 		and	r3, r3, #-1073741824
 414 0068 4E49     		ldr	r1, .L43
 415 006a 1343     		orrs	r3, r3, r2
 416 006c 8B61     		str	r3, [r1, #24]
 417              	.L28:
 418              		.loc 1 341 5 discriminator 3
 419 006e FB68     		ldr	r3, [r7, #12]
 420 0070 23F04043 		bic	r3, r3, #-1073741824
 421 0074 002B     		cmp	r3, #0
 422 0076 04D0     		beq	.L29
 423              		.loc 1 341 5 discriminator 4
 424 0078 4A4A     		ldr	r2, .L43
 425 007a FB68     		ldr	r3, [r7, #12]
 426 007c 23F04043 		bic	r3, r3, #-1073741824
 427 0080 1361     		str	r3, [r2, #16]
 428              	.L29:
 342:Drivers/STM32L4xx_HAL_Driver/Src/stm32l4xx_hal_flash.c **** 
 343:Drivers/STM32L4xx_HAL_Driver/Src/stm32l4xx_hal_flash.c ****     /* Flush the caches to be sure of the data consistency */
 344:Drivers/STM32L4xx_HAL_Driver/Src/stm32l4xx_hal_flash.c ****     FLASH_FlushCaches() ;
 429              		.loc 1 344 5 is_stmt 1
 430 0082 FFF7FEFF 		bl	FLASH_FlushCaches
 345:Drivers/STM32L4xx_HAL_Driver/Src/stm32l4xx_hal_flash.c **** 
 346:Drivers/STM32L4xx_HAL_Driver/Src/stm32l4xx_hal_flash.c ****     /* FLASH error interrupt user callback */
 347:Drivers/STM32L4xx_HAL_Driver/Src/stm32l4xx_hal_flash.c ****     procedure = pFlash.ProcedureOnGoing;
 431              		.loc 1 347 15
 432 0086 484B     		ldr	r3, .L43+4
 433 0088 1B7A     		ldrb	r3, [r3, #8]
 434 008a FB72     		strb	r3, [r7, #11]
 348:Drivers/STM32L4xx_HAL_Driver/Src/stm32l4xx_hal_flash.c ****     if(procedure == FLASH_PROC_PAGE_ERASE)
 435              		.loc 1 348 7
 436 008c FB7A     		ldrb	r3, [r7, #11]	@ zero_extendqisi2
 437 008e 012B     		cmp	r3, #1
 438 0090 05D1     		bne	.L30
 349:Drivers/STM32L4xx_HAL_Driver/Src/stm32l4xx_hal_flash.c ****     {
 350:Drivers/STM32L4xx_HAL_Driver/Src/stm32l4xx_hal_flash.c ****        HAL_FLASH_OperationErrorCallback(pFlash.Page);
 439              		.loc 1 350 47
 440 0092 454B     		ldr	r3, .L43+4
 441 0094 5B69     		ldr	r3, [r3, #20]
 442              		.loc 1 350 8
 443 0096 1846     		mov	r0, r3
 444 0098 FFF7FEFF 		bl	HAL_FLASH_OperationErrorCallback
 445 009c 17E0     		b	.L31
 446              	.L30:
 351:Drivers/STM32L4xx_HAL_Driver/Src/stm32l4xx_hal_flash.c ****     }
 352:Drivers/STM32L4xx_HAL_Driver/Src/stm32l4xx_hal_flash.c ****     else if(procedure == FLASH_PROC_MASS_ERASE)
 447              		.loc 1 352 12
 448 009e FB7A     		ldrb	r3, [r7, #11]	@ zero_extendqisi2
 449 00a0 022B     		cmp	r3, #2
 450 00a2 05D1     		bne	.L32
 353:Drivers/STM32L4xx_HAL_Driver/Src/stm32l4xx_hal_flash.c ****     {
 354:Drivers/STM32L4xx_HAL_Driver/Src/stm32l4xx_hal_flash.c ****         HAL_FLASH_OperationErrorCallback(pFlash.Bank);
 451              		.loc 1 354 48
 452 00a4 404B     		ldr	r3, .L43+4
ARM GAS  /tmp/cc9mqueP.s 			page 15


 453 00a6 1B69     		ldr	r3, [r3, #16]
 454              		.loc 1 354 9
 455 00a8 1846     		mov	r0, r3
 456 00aa FFF7FEFF 		bl	HAL_FLASH_OperationErrorCallback
 457 00ae 0EE0     		b	.L31
 458              	.L32:
 355:Drivers/STM32L4xx_HAL_Driver/Src/stm32l4xx_hal_flash.c ****     }
 356:Drivers/STM32L4xx_HAL_Driver/Src/stm32l4xx_hal_flash.c ****     else if((procedure == FLASH_PROC_PROGRAM) ||
 459              		.loc 1 356 12
 460 00b0 FB7A     		ldrb	r3, [r7, #11]	@ zero_extendqisi2
 461 00b2 032B     		cmp	r3, #3
 462 00b4 02D0     		beq	.L33
 463              		.loc 1 356 47 discriminator 1
 464 00b6 FB7A     		ldrb	r3, [r7, #11]	@ zero_extendqisi2
 465 00b8 042B     		cmp	r3, #4
 466 00ba 05D1     		bne	.L34
 467              	.L33:
 357:Drivers/STM32L4xx_HAL_Driver/Src/stm32l4xx_hal_flash.c ****             (procedure == FLASH_PROC_PROGRAM_LAST))
 358:Drivers/STM32L4xx_HAL_Driver/Src/stm32l4xx_hal_flash.c ****     {
 359:Drivers/STM32L4xx_HAL_Driver/Src/stm32l4xx_hal_flash.c ****        HAL_FLASH_OperationErrorCallback(pFlash.Address);
 468              		.loc 1 359 47
 469 00bc 3A4B     		ldr	r3, .L43+4
 470 00be DB68     		ldr	r3, [r3, #12]
 471              		.loc 1 359 8
 472 00c0 1846     		mov	r0, r3
 473 00c2 FFF7FEFF 		bl	HAL_FLASH_OperationErrorCallback
 474 00c6 02E0     		b	.L31
 475              	.L34:
 360:Drivers/STM32L4xx_HAL_Driver/Src/stm32l4xx_hal_flash.c ****     }
 361:Drivers/STM32L4xx_HAL_Driver/Src/stm32l4xx_hal_flash.c ****     else
 362:Drivers/STM32L4xx_HAL_Driver/Src/stm32l4xx_hal_flash.c ****     {
 363:Drivers/STM32L4xx_HAL_Driver/Src/stm32l4xx_hal_flash.c ****        HAL_FLASH_OperationErrorCallback(0U);
 476              		.loc 1 363 8
 477 00c8 0020     		movs	r0, #0
 478 00ca FFF7FEFF 		bl	HAL_FLASH_OperationErrorCallback
 479              	.L31:
 364:Drivers/STM32L4xx_HAL_Driver/Src/stm32l4xx_hal_flash.c ****     }
 365:Drivers/STM32L4xx_HAL_Driver/Src/stm32l4xx_hal_flash.c **** 
 366:Drivers/STM32L4xx_HAL_Driver/Src/stm32l4xx_hal_flash.c ****     /*Stop the procedure ongoing*/
 367:Drivers/STM32L4xx_HAL_Driver/Src/stm32l4xx_hal_flash.c ****     pFlash.ProcedureOnGoing = FLASH_PROC_NONE;
 480              		.loc 1 367 29
 481 00ce 364B     		ldr	r3, .L43+4
 482 00d0 0022     		movs	r2, #0
 483 00d2 1A72     		strb	r2, [r3, #8]
 484              	.L27:
 368:Drivers/STM32L4xx_HAL_Driver/Src/stm32l4xx_hal_flash.c ****   }
 369:Drivers/STM32L4xx_HAL_Driver/Src/stm32l4xx_hal_flash.c **** 
 370:Drivers/STM32L4xx_HAL_Driver/Src/stm32l4xx_hal_flash.c ****   /* Check FLASH End of Operation flag  */
 371:Drivers/STM32L4xx_HAL_Driver/Src/stm32l4xx_hal_flash.c ****   if(__HAL_FLASH_GET_FLAG(FLASH_FLAG_EOP) != 0U)
 485              		.loc 1 371 6
 486 00d4 334B     		ldr	r3, .L43
 487 00d6 1B69     		ldr	r3, [r3, #16]
 488 00d8 03F00103 		and	r3, r3, #1
 489              		.loc 1 371 5
 490 00dc 002B     		cmp	r3, #0
 491 00de 4FD0     		beq	.L35
 372:Drivers/STM32L4xx_HAL_Driver/Src/stm32l4xx_hal_flash.c ****   {
ARM GAS  /tmp/cc9mqueP.s 			page 16


 373:Drivers/STM32L4xx_HAL_Driver/Src/stm32l4xx_hal_flash.c ****     /* Clear FLASH End of Operation pending bit */
 374:Drivers/STM32L4xx_HAL_Driver/Src/stm32l4xx_hal_flash.c ****     __HAL_FLASH_CLEAR_FLAG(FLASH_FLAG_EOP);
 492              		.loc 1 374 5 discriminator 4
 493 00e0 304B     		ldr	r3, .L43
 494 00e2 0122     		movs	r2, #1
 495 00e4 1A61     		str	r2, [r3, #16]
 375:Drivers/STM32L4xx_HAL_Driver/Src/stm32l4xx_hal_flash.c **** 
 376:Drivers/STM32L4xx_HAL_Driver/Src/stm32l4xx_hal_flash.c ****     if(pFlash.ProcedureOnGoing == FLASH_PROC_PAGE_ERASE)
 496              		.loc 1 376 14
 497 00e6 304B     		ldr	r3, .L43+4
 498 00e8 1B7A     		ldrb	r3, [r3, #8]
 499 00ea DBB2     		uxtb	r3, r3
 500              		.loc 1 376 7
 501 00ec 012B     		cmp	r3, #1
 502 00ee 2BD1     		bne	.L36
 377:Drivers/STM32L4xx_HAL_Driver/Src/stm32l4xx_hal_flash.c ****     {
 378:Drivers/STM32L4xx_HAL_Driver/Src/stm32l4xx_hal_flash.c ****       /* Nb of pages to erased can be decreased */
 379:Drivers/STM32L4xx_HAL_Driver/Src/stm32l4xx_hal_flash.c ****       pFlash.NbPagesToErase--;
 503              		.loc 1 379 13
 504 00f0 2D4B     		ldr	r3, .L43+4
 505 00f2 9B69     		ldr	r3, [r3, #24]
 506              		.loc 1 379 28
 507 00f4 013B     		subs	r3, r3, #1
 508 00f6 2C4A     		ldr	r2, .L43+4
 509 00f8 9361     		str	r3, [r2, #24]
 380:Drivers/STM32L4xx_HAL_Driver/Src/stm32l4xx_hal_flash.c **** 
 381:Drivers/STM32L4xx_HAL_Driver/Src/stm32l4xx_hal_flash.c ****       /* Check if there are still pages to erase*/
 382:Drivers/STM32L4xx_HAL_Driver/Src/stm32l4xx_hal_flash.c ****       if(pFlash.NbPagesToErase != 0U)
 510              		.loc 1 382 16
 511 00fa 2B4B     		ldr	r3, .L43+4
 512 00fc 9B69     		ldr	r3, [r3, #24]
 513              		.loc 1 382 9
 514 00fe 002B     		cmp	r3, #0
 515 0100 13D0     		beq	.L37
 383:Drivers/STM32L4xx_HAL_Driver/Src/stm32l4xx_hal_flash.c ****       {
 384:Drivers/STM32L4xx_HAL_Driver/Src/stm32l4xx_hal_flash.c ****         /* Indicate user which page has been erased*/
 385:Drivers/STM32L4xx_HAL_Driver/Src/stm32l4xx_hal_flash.c ****         HAL_FLASH_EndOfOperationCallback(pFlash.Page);
 516              		.loc 1 385 48
 517 0102 294B     		ldr	r3, .L43+4
 518 0104 5B69     		ldr	r3, [r3, #20]
 519              		.loc 1 385 9
 520 0106 1846     		mov	r0, r3
 521 0108 FFF7FEFF 		bl	HAL_FLASH_EndOfOperationCallback
 386:Drivers/STM32L4xx_HAL_Driver/Src/stm32l4xx_hal_flash.c **** 
 387:Drivers/STM32L4xx_HAL_Driver/Src/stm32l4xx_hal_flash.c ****         /* Increment page number */
 388:Drivers/STM32L4xx_HAL_Driver/Src/stm32l4xx_hal_flash.c ****         pFlash.Page++;
 522              		.loc 1 388 15
 523 010c 264B     		ldr	r3, .L43+4
 524 010e 5B69     		ldr	r3, [r3, #20]
 525              		.loc 1 388 20
 526 0110 0133     		adds	r3, r3, #1
 527 0112 254A     		ldr	r2, .L43+4
 528 0114 5361     		str	r3, [r2, #20]
 389:Drivers/STM32L4xx_HAL_Driver/Src/stm32l4xx_hal_flash.c ****         tmp_page = pFlash.Page;
 529              		.loc 1 389 18
 530 0116 244B     		ldr	r3, .L43+4
 531 0118 5B69     		ldr	r3, [r3, #20]
ARM GAS  /tmp/cc9mqueP.s 			page 17


 532 011a 7B60     		str	r3, [r7, #4]
 390:Drivers/STM32L4xx_HAL_Driver/Src/stm32l4xx_hal_flash.c ****         FLASH_PageErase(tmp_page, pFlash.Bank);
 533              		.loc 1 390 41
 534 011c 224B     		ldr	r3, .L43+4
 535 011e 1B69     		ldr	r3, [r3, #16]
 536              		.loc 1 390 9
 537 0120 1946     		mov	r1, r3
 538 0122 7868     		ldr	r0, [r7, #4]
 539 0124 FFF7FEFF 		bl	FLASH_PageErase
 540 0128 2AE0     		b	.L35
 541              	.L37:
 391:Drivers/STM32L4xx_HAL_Driver/Src/stm32l4xx_hal_flash.c ****       }
 392:Drivers/STM32L4xx_HAL_Driver/Src/stm32l4xx_hal_flash.c ****       else
 393:Drivers/STM32L4xx_HAL_Driver/Src/stm32l4xx_hal_flash.c ****       {
 394:Drivers/STM32L4xx_HAL_Driver/Src/stm32l4xx_hal_flash.c ****         /* No more pages to Erase */
 395:Drivers/STM32L4xx_HAL_Driver/Src/stm32l4xx_hal_flash.c ****         /* Reset Address and stop Erase pages procedure */
 396:Drivers/STM32L4xx_HAL_Driver/Src/stm32l4xx_hal_flash.c ****         pFlash.Page = 0xFFFFFFFFU;
 542              		.loc 1 396 21
 543 012a 1F4B     		ldr	r3, .L43+4
 544 012c 4FF0FF32 		mov	r2, #-1
 545 0130 5A61     		str	r2, [r3, #20]
 397:Drivers/STM32L4xx_HAL_Driver/Src/stm32l4xx_hal_flash.c ****         pFlash.ProcedureOnGoing = FLASH_PROC_NONE;
 546              		.loc 1 397 33
 547 0132 1D4B     		ldr	r3, .L43+4
 548 0134 0022     		movs	r2, #0
 549 0136 1A72     		strb	r2, [r3, #8]
 398:Drivers/STM32L4xx_HAL_Driver/Src/stm32l4xx_hal_flash.c **** 
 399:Drivers/STM32L4xx_HAL_Driver/Src/stm32l4xx_hal_flash.c ****         /* Flush the caches to be sure of the data consistency */
 400:Drivers/STM32L4xx_HAL_Driver/Src/stm32l4xx_hal_flash.c ****         FLASH_FlushCaches() ;
 550              		.loc 1 400 9
 551 0138 FFF7FEFF 		bl	FLASH_FlushCaches
 401:Drivers/STM32L4xx_HAL_Driver/Src/stm32l4xx_hal_flash.c **** 
 402:Drivers/STM32L4xx_HAL_Driver/Src/stm32l4xx_hal_flash.c ****         /* FLASH EOP interrupt user callback */
 403:Drivers/STM32L4xx_HAL_Driver/Src/stm32l4xx_hal_flash.c ****         HAL_FLASH_EndOfOperationCallback(pFlash.Page);
 552              		.loc 1 403 48
 553 013c 1A4B     		ldr	r3, .L43+4
 554 013e 5B69     		ldr	r3, [r3, #20]
 555              		.loc 1 403 9
 556 0140 1846     		mov	r0, r3
 557 0142 FFF7FEFF 		bl	HAL_FLASH_EndOfOperationCallback
 558 0146 1BE0     		b	.L35
 559              	.L36:
 404:Drivers/STM32L4xx_HAL_Driver/Src/stm32l4xx_hal_flash.c ****       }
 405:Drivers/STM32L4xx_HAL_Driver/Src/stm32l4xx_hal_flash.c ****     }
 406:Drivers/STM32L4xx_HAL_Driver/Src/stm32l4xx_hal_flash.c ****     else
 407:Drivers/STM32L4xx_HAL_Driver/Src/stm32l4xx_hal_flash.c ****     {
 408:Drivers/STM32L4xx_HAL_Driver/Src/stm32l4xx_hal_flash.c ****       /* Flush the caches to be sure of the data consistency */
 409:Drivers/STM32L4xx_HAL_Driver/Src/stm32l4xx_hal_flash.c ****       FLASH_FlushCaches() ;
 560              		.loc 1 409 7
 561 0148 FFF7FEFF 		bl	FLASH_FlushCaches
 410:Drivers/STM32L4xx_HAL_Driver/Src/stm32l4xx_hal_flash.c **** 
 411:Drivers/STM32L4xx_HAL_Driver/Src/stm32l4xx_hal_flash.c ****       procedure = pFlash.ProcedureOnGoing;
 562              		.loc 1 411 17
 563 014c 164B     		ldr	r3, .L43+4
 564 014e 1B7A     		ldrb	r3, [r3, #8]
 565 0150 FB72     		strb	r3, [r7, #11]
 412:Drivers/STM32L4xx_HAL_Driver/Src/stm32l4xx_hal_flash.c ****       if(procedure == FLASH_PROC_MASS_ERASE)
ARM GAS  /tmp/cc9mqueP.s 			page 18


 566              		.loc 1 412 9
 567 0152 FB7A     		ldrb	r3, [r7, #11]	@ zero_extendqisi2
 568 0154 022B     		cmp	r3, #2
 569 0156 05D1     		bne	.L38
 413:Drivers/STM32L4xx_HAL_Driver/Src/stm32l4xx_hal_flash.c ****       {
 414:Drivers/STM32L4xx_HAL_Driver/Src/stm32l4xx_hal_flash.c ****         /* MassErase ended. Return the selected bank */
 415:Drivers/STM32L4xx_HAL_Driver/Src/stm32l4xx_hal_flash.c ****         /* FLASH EOP interrupt user callback */
 416:Drivers/STM32L4xx_HAL_Driver/Src/stm32l4xx_hal_flash.c ****         HAL_FLASH_EndOfOperationCallback(pFlash.Bank);
 570              		.loc 1 416 48
 571 0158 134B     		ldr	r3, .L43+4
 572 015a 1B69     		ldr	r3, [r3, #16]
 573              		.loc 1 416 9
 574 015c 1846     		mov	r0, r3
 575 015e FFF7FEFF 		bl	HAL_FLASH_EndOfOperationCallback
 576 0162 0AE0     		b	.L39
 577              	.L38:
 417:Drivers/STM32L4xx_HAL_Driver/Src/stm32l4xx_hal_flash.c ****       }
 418:Drivers/STM32L4xx_HAL_Driver/Src/stm32l4xx_hal_flash.c ****       else if((procedure == FLASH_PROC_PROGRAM) ||
 578              		.loc 1 418 14
 579 0164 FB7A     		ldrb	r3, [r7, #11]	@ zero_extendqisi2
 580 0166 032B     		cmp	r3, #3
 581 0168 02D0     		beq	.L40
 582              		.loc 1 418 49 discriminator 1
 583 016a FB7A     		ldrb	r3, [r7, #11]	@ zero_extendqisi2
 584 016c 042B     		cmp	r3, #4
 585 016e 04D1     		bne	.L39
 586              	.L40:
 419:Drivers/STM32L4xx_HAL_Driver/Src/stm32l4xx_hal_flash.c ****               (procedure == FLASH_PROC_PROGRAM_LAST))
 420:Drivers/STM32L4xx_HAL_Driver/Src/stm32l4xx_hal_flash.c ****       {
 421:Drivers/STM32L4xx_HAL_Driver/Src/stm32l4xx_hal_flash.c ****         /* Program ended. Return the selected address */
 422:Drivers/STM32L4xx_HAL_Driver/Src/stm32l4xx_hal_flash.c ****         /* FLASH EOP interrupt user callback */
 423:Drivers/STM32L4xx_HAL_Driver/Src/stm32l4xx_hal_flash.c ****         HAL_FLASH_EndOfOperationCallback(pFlash.Address);
 587              		.loc 1 423 48
 588 0170 0D4B     		ldr	r3, .L43+4
 589 0172 DB68     		ldr	r3, [r3, #12]
 590              		.loc 1 423 9
 591 0174 1846     		mov	r0, r3
 592 0176 FFF7FEFF 		bl	HAL_FLASH_EndOfOperationCallback
 593              	.L39:
 424:Drivers/STM32L4xx_HAL_Driver/Src/stm32l4xx_hal_flash.c ****       }
 425:Drivers/STM32L4xx_HAL_Driver/Src/stm32l4xx_hal_flash.c ****       else
 426:Drivers/STM32L4xx_HAL_Driver/Src/stm32l4xx_hal_flash.c ****       {
 427:Drivers/STM32L4xx_HAL_Driver/Src/stm32l4xx_hal_flash.c ****         /* Nothing to do */
 428:Drivers/STM32L4xx_HAL_Driver/Src/stm32l4xx_hal_flash.c ****       }
 429:Drivers/STM32L4xx_HAL_Driver/Src/stm32l4xx_hal_flash.c **** 
 430:Drivers/STM32L4xx_HAL_Driver/Src/stm32l4xx_hal_flash.c ****       /*Clear the procedure ongoing*/
 431:Drivers/STM32L4xx_HAL_Driver/Src/stm32l4xx_hal_flash.c ****       pFlash.ProcedureOnGoing = FLASH_PROC_NONE;
 594              		.loc 1 431 31
 595 017a 0B4B     		ldr	r3, .L43+4
 596 017c 0022     		movs	r2, #0
 597 017e 1A72     		strb	r2, [r3, #8]
 598              	.L35:
 432:Drivers/STM32L4xx_HAL_Driver/Src/stm32l4xx_hal_flash.c ****     }
 433:Drivers/STM32L4xx_HAL_Driver/Src/stm32l4xx_hal_flash.c ****   }
 434:Drivers/STM32L4xx_HAL_Driver/Src/stm32l4xx_hal_flash.c **** 
 435:Drivers/STM32L4xx_HAL_Driver/Src/stm32l4xx_hal_flash.c ****   if(pFlash.ProcedureOnGoing == FLASH_PROC_NONE)
 599              		.loc 1 435 12
ARM GAS  /tmp/cc9mqueP.s 			page 19


 600 0180 094B     		ldr	r3, .L43+4
 601 0182 1B7A     		ldrb	r3, [r3, #8]
 602 0184 DBB2     		uxtb	r3, r3
 603              		.loc 1 435 5
 604 0186 002B     		cmp	r3, #0
 605 0188 08D1     		bne	.L42
 436:Drivers/STM32L4xx_HAL_Driver/Src/stm32l4xx_hal_flash.c ****   {
 437:Drivers/STM32L4xx_HAL_Driver/Src/stm32l4xx_hal_flash.c ****     /* Disable End of Operation and Error interrupts */
 438:Drivers/STM32L4xx_HAL_Driver/Src/stm32l4xx_hal_flash.c ****     __HAL_FLASH_DISABLE_IT(FLASH_IT_EOP | FLASH_IT_OPERR);
 606              		.loc 1 438 5 discriminator 4
 607 018a 064B     		ldr	r3, .L43
 608 018c 5B69     		ldr	r3, [r3, #20]
 609 018e 054A     		ldr	r2, .L43
 610 0190 23F04073 		bic	r3, r3, #50331648
 611 0194 5361     		str	r3, [r2, #20]
 439:Drivers/STM32L4xx_HAL_Driver/Src/stm32l4xx_hal_flash.c **** 
 440:Drivers/STM32L4xx_HAL_Driver/Src/stm32l4xx_hal_flash.c ****     /* Process Unlocked */
 441:Drivers/STM32L4xx_HAL_Driver/Src/stm32l4xx_hal_flash.c ****     __HAL_UNLOCK(&pFlash);
 612              		.loc 1 441 5
 613 0196 044B     		ldr	r3, .L43+4
 614 0198 0022     		movs	r2, #0
 615 019a 1A70     		strb	r2, [r3]
 616              	.L42:
 442:Drivers/STM32L4xx_HAL_Driver/Src/stm32l4xx_hal_flash.c ****   }
 443:Drivers/STM32L4xx_HAL_Driver/Src/stm32l4xx_hal_flash.c **** }
 617              		.loc 1 443 1
 618 019c 00BF     		nop
 619 019e 1037     		adds	r7, r7, #16
 620              		.cfi_def_cfa_offset 8
 621 01a0 BD46     		mov	sp, r7
 622              		.cfi_def_cfa_register 13
 623              		@ sp needed
 624 01a2 80BD     		pop	{r7, pc}
 625              	.L44:
 626              		.align	2
 627              	.L43:
 628 01a4 00200240 		.word	1073881088
 629 01a8 00000000 		.word	pFlash
 630              		.cfi_endproc
 631              	.LFE447:
 633              		.section	.text.HAL_FLASH_EndOfOperationCallback,"ax",%progbits
 634              		.align	1
 635              		.weak	HAL_FLASH_EndOfOperationCallback
 636              		.syntax unified
 637              		.thumb
 638              		.thumb_func
 640              	HAL_FLASH_EndOfOperationCallback:
 641              	.LFB448:
 444:Drivers/STM32L4xx_HAL_Driver/Src/stm32l4xx_hal_flash.c **** 
 445:Drivers/STM32L4xx_HAL_Driver/Src/stm32l4xx_hal_flash.c **** /**
 446:Drivers/STM32L4xx_HAL_Driver/Src/stm32l4xx_hal_flash.c ****   * @brief  FLASH end of operation interrupt callback.
 447:Drivers/STM32L4xx_HAL_Driver/Src/stm32l4xx_hal_flash.c ****   * @param  ReturnValue The value saved in this parameter depends on the ongoing procedure
 448:Drivers/STM32L4xx_HAL_Driver/Src/stm32l4xx_hal_flash.c ****   *                  Mass Erase: Bank number which has been requested to erase
 449:Drivers/STM32L4xx_HAL_Driver/Src/stm32l4xx_hal_flash.c ****   *                  Page Erase: Page which has been erased
 450:Drivers/STM32L4xx_HAL_Driver/Src/stm32l4xx_hal_flash.c ****   *                    (if 0xFFFFFFFF, it means that all the selected pages have been erased)
 451:Drivers/STM32L4xx_HAL_Driver/Src/stm32l4xx_hal_flash.c ****   *                  Program: Address which was selected for data program
 452:Drivers/STM32L4xx_HAL_Driver/Src/stm32l4xx_hal_flash.c ****   * @retval None
ARM GAS  /tmp/cc9mqueP.s 			page 20


 453:Drivers/STM32L4xx_HAL_Driver/Src/stm32l4xx_hal_flash.c ****   */
 454:Drivers/STM32L4xx_HAL_Driver/Src/stm32l4xx_hal_flash.c **** __weak void HAL_FLASH_EndOfOperationCallback(uint32_t ReturnValue)
 455:Drivers/STM32L4xx_HAL_Driver/Src/stm32l4xx_hal_flash.c **** {
 642              		.loc 1 455 1
 643              		.cfi_startproc
 644              		@ args = 0, pretend = 0, frame = 8
 645              		@ frame_needed = 1, uses_anonymous_args = 0
 646              		@ link register save eliminated.
 647 0000 80B4     		push	{r7}
 648              		.cfi_def_cfa_offset 4
 649              		.cfi_offset 7, -4
 650 0002 83B0     		sub	sp, sp, #12
 651              		.cfi_def_cfa_offset 16
 652 0004 00AF     		add	r7, sp, #0
 653              		.cfi_def_cfa_register 7
 654 0006 7860     		str	r0, [r7, #4]
 456:Drivers/STM32L4xx_HAL_Driver/Src/stm32l4xx_hal_flash.c ****   /* Prevent unused argument(s) compilation warning */
 457:Drivers/STM32L4xx_HAL_Driver/Src/stm32l4xx_hal_flash.c ****   UNUSED(ReturnValue);
 458:Drivers/STM32L4xx_HAL_Driver/Src/stm32l4xx_hal_flash.c **** 
 459:Drivers/STM32L4xx_HAL_Driver/Src/stm32l4xx_hal_flash.c ****   /* NOTE : This function should not be modified, when the callback is needed,
 460:Drivers/STM32L4xx_HAL_Driver/Src/stm32l4xx_hal_flash.c ****             the HAL_FLASH_EndOfOperationCallback could be implemented in the user file
 461:Drivers/STM32L4xx_HAL_Driver/Src/stm32l4xx_hal_flash.c ****    */
 462:Drivers/STM32L4xx_HAL_Driver/Src/stm32l4xx_hal_flash.c **** }
 655              		.loc 1 462 1
 656 0008 00BF     		nop
 657 000a 0C37     		adds	r7, r7, #12
 658              		.cfi_def_cfa_offset 4
 659 000c BD46     		mov	sp, r7
 660              		.cfi_def_cfa_register 13
 661              		@ sp needed
 662 000e 5DF8047B 		ldr	r7, [sp], #4
 663              		.cfi_restore 7
 664              		.cfi_def_cfa_offset 0
 665 0012 7047     		bx	lr
 666              		.cfi_endproc
 667              	.LFE448:
 669              		.section	.text.HAL_FLASH_OperationErrorCallback,"ax",%progbits
 670              		.align	1
 671              		.weak	HAL_FLASH_OperationErrorCallback
 672              		.syntax unified
 673              		.thumb
 674              		.thumb_func
 676              	HAL_FLASH_OperationErrorCallback:
 677              	.LFB449:
 463:Drivers/STM32L4xx_HAL_Driver/Src/stm32l4xx_hal_flash.c **** 
 464:Drivers/STM32L4xx_HAL_Driver/Src/stm32l4xx_hal_flash.c **** /**
 465:Drivers/STM32L4xx_HAL_Driver/Src/stm32l4xx_hal_flash.c ****   * @brief  FLASH operation error interrupt callback.
 466:Drivers/STM32L4xx_HAL_Driver/Src/stm32l4xx_hal_flash.c ****   * @param  ReturnValue The value saved in this parameter depends on the ongoing procedure
 467:Drivers/STM32L4xx_HAL_Driver/Src/stm32l4xx_hal_flash.c ****   *                 Mass Erase: Bank number which has been requested to erase
 468:Drivers/STM32L4xx_HAL_Driver/Src/stm32l4xx_hal_flash.c ****   *                 Page Erase: Page number which returned an error
 469:Drivers/STM32L4xx_HAL_Driver/Src/stm32l4xx_hal_flash.c ****   *                 Program: Address which was selected for data program
 470:Drivers/STM32L4xx_HAL_Driver/Src/stm32l4xx_hal_flash.c ****   * @retval None
 471:Drivers/STM32L4xx_HAL_Driver/Src/stm32l4xx_hal_flash.c ****   */
 472:Drivers/STM32L4xx_HAL_Driver/Src/stm32l4xx_hal_flash.c **** __weak void HAL_FLASH_OperationErrorCallback(uint32_t ReturnValue)
 473:Drivers/STM32L4xx_HAL_Driver/Src/stm32l4xx_hal_flash.c **** {
 678              		.loc 1 473 1
 679              		.cfi_startproc
ARM GAS  /tmp/cc9mqueP.s 			page 21


 680              		@ args = 0, pretend = 0, frame = 8
 681              		@ frame_needed = 1, uses_anonymous_args = 0
 682              		@ link register save eliminated.
 683 0000 80B4     		push	{r7}
 684              		.cfi_def_cfa_offset 4
 685              		.cfi_offset 7, -4
 686 0002 83B0     		sub	sp, sp, #12
 687              		.cfi_def_cfa_offset 16
 688 0004 00AF     		add	r7, sp, #0
 689              		.cfi_def_cfa_register 7
 690 0006 7860     		str	r0, [r7, #4]
 474:Drivers/STM32L4xx_HAL_Driver/Src/stm32l4xx_hal_flash.c ****   /* Prevent unused argument(s) compilation warning */
 475:Drivers/STM32L4xx_HAL_Driver/Src/stm32l4xx_hal_flash.c ****   UNUSED(ReturnValue);
 476:Drivers/STM32L4xx_HAL_Driver/Src/stm32l4xx_hal_flash.c **** 
 477:Drivers/STM32L4xx_HAL_Driver/Src/stm32l4xx_hal_flash.c ****   /* NOTE : This function should not be modified, when the callback is needed,
 478:Drivers/STM32L4xx_HAL_Driver/Src/stm32l4xx_hal_flash.c ****             the HAL_FLASH_OperationErrorCallback could be implemented in the user file
 479:Drivers/STM32L4xx_HAL_Driver/Src/stm32l4xx_hal_flash.c ****    */
 480:Drivers/STM32L4xx_HAL_Driver/Src/stm32l4xx_hal_flash.c **** }
 691              		.loc 1 480 1
 692 0008 00BF     		nop
 693 000a 0C37     		adds	r7, r7, #12
 694              		.cfi_def_cfa_offset 4
 695 000c BD46     		mov	sp, r7
 696              		.cfi_def_cfa_register 13
 697              		@ sp needed
 698 000e 5DF8047B 		ldr	r7, [sp], #4
 699              		.cfi_restore 7
 700              		.cfi_def_cfa_offset 0
 701 0012 7047     		bx	lr
 702              		.cfi_endproc
 703              	.LFE449:
 705              		.section	.text.HAL_FLASH_Unlock,"ax",%progbits
 706              		.align	1
 707              		.global	HAL_FLASH_Unlock
 708              		.syntax unified
 709              		.thumb
 710              		.thumb_func
 712              	HAL_FLASH_Unlock:
 713              	.LFB450:
 481:Drivers/STM32L4xx_HAL_Driver/Src/stm32l4xx_hal_flash.c **** 
 482:Drivers/STM32L4xx_HAL_Driver/Src/stm32l4xx_hal_flash.c **** /**
 483:Drivers/STM32L4xx_HAL_Driver/Src/stm32l4xx_hal_flash.c ****   * @}
 484:Drivers/STM32L4xx_HAL_Driver/Src/stm32l4xx_hal_flash.c ****   */
 485:Drivers/STM32L4xx_HAL_Driver/Src/stm32l4xx_hal_flash.c **** 
 486:Drivers/STM32L4xx_HAL_Driver/Src/stm32l4xx_hal_flash.c **** /** @defgroup FLASH_Exported_Functions_Group2 Peripheral Control functions
 487:Drivers/STM32L4xx_HAL_Driver/Src/stm32l4xx_hal_flash.c ****  *  @brief   Management functions
 488:Drivers/STM32L4xx_HAL_Driver/Src/stm32l4xx_hal_flash.c ****  *
 489:Drivers/STM32L4xx_HAL_Driver/Src/stm32l4xx_hal_flash.c **** @verbatim
 490:Drivers/STM32L4xx_HAL_Driver/Src/stm32l4xx_hal_flash.c ****  ===============================================================================
 491:Drivers/STM32L4xx_HAL_Driver/Src/stm32l4xx_hal_flash.c ****                       ##### Peripheral Control functions #####
 492:Drivers/STM32L4xx_HAL_Driver/Src/stm32l4xx_hal_flash.c ****  ===============================================================================
 493:Drivers/STM32L4xx_HAL_Driver/Src/stm32l4xx_hal_flash.c ****     [..]
 494:Drivers/STM32L4xx_HAL_Driver/Src/stm32l4xx_hal_flash.c ****     This subsection provides a set of functions allowing to control the FLASH
 495:Drivers/STM32L4xx_HAL_Driver/Src/stm32l4xx_hal_flash.c ****     memory operations.
 496:Drivers/STM32L4xx_HAL_Driver/Src/stm32l4xx_hal_flash.c **** 
 497:Drivers/STM32L4xx_HAL_Driver/Src/stm32l4xx_hal_flash.c **** @endverbatim
 498:Drivers/STM32L4xx_HAL_Driver/Src/stm32l4xx_hal_flash.c ****   * @{
ARM GAS  /tmp/cc9mqueP.s 			page 22


 499:Drivers/STM32L4xx_HAL_Driver/Src/stm32l4xx_hal_flash.c ****   */
 500:Drivers/STM32L4xx_HAL_Driver/Src/stm32l4xx_hal_flash.c **** 
 501:Drivers/STM32L4xx_HAL_Driver/Src/stm32l4xx_hal_flash.c **** /**
 502:Drivers/STM32L4xx_HAL_Driver/Src/stm32l4xx_hal_flash.c ****   * @brief  Unlock the FLASH control register access.
 503:Drivers/STM32L4xx_HAL_Driver/Src/stm32l4xx_hal_flash.c ****   * @retval HAL Status
 504:Drivers/STM32L4xx_HAL_Driver/Src/stm32l4xx_hal_flash.c ****   */
 505:Drivers/STM32L4xx_HAL_Driver/Src/stm32l4xx_hal_flash.c **** HAL_StatusTypeDef HAL_FLASH_Unlock(void)
 506:Drivers/STM32L4xx_HAL_Driver/Src/stm32l4xx_hal_flash.c **** {
 714              		.loc 1 506 1
 715              		.cfi_startproc
 716              		@ args = 0, pretend = 0, frame = 8
 717              		@ frame_needed = 1, uses_anonymous_args = 0
 718              		@ link register save eliminated.
 719 0000 80B4     		push	{r7}
 720              		.cfi_def_cfa_offset 4
 721              		.cfi_offset 7, -4
 722 0002 83B0     		sub	sp, sp, #12
 723              		.cfi_def_cfa_offset 16
 724 0004 00AF     		add	r7, sp, #0
 725              		.cfi_def_cfa_register 7
 507:Drivers/STM32L4xx_HAL_Driver/Src/stm32l4xx_hal_flash.c ****   HAL_StatusTypeDef status = HAL_OK;
 726              		.loc 1 507 21
 727 0006 0023     		movs	r3, #0
 728 0008 FB71     		strb	r3, [r7, #7]
 508:Drivers/STM32L4xx_HAL_Driver/Src/stm32l4xx_hal_flash.c **** 
 509:Drivers/STM32L4xx_HAL_Driver/Src/stm32l4xx_hal_flash.c ****   if(READ_BIT(FLASH->CR, FLASH_CR_LOCK) != 0U)
 729              		.loc 1 509 6
 730 000a 0B4B     		ldr	r3, .L50
 731 000c 5B69     		ldr	r3, [r3, #20]
 732              		.loc 1 509 5
 733 000e 002B     		cmp	r3, #0
 734 0010 0BDA     		bge	.L48
 510:Drivers/STM32L4xx_HAL_Driver/Src/stm32l4xx_hal_flash.c ****   {
 511:Drivers/STM32L4xx_HAL_Driver/Src/stm32l4xx_hal_flash.c ****     /* Authorize the FLASH Registers access */
 512:Drivers/STM32L4xx_HAL_Driver/Src/stm32l4xx_hal_flash.c ****     WRITE_REG(FLASH->KEYR, FLASH_KEY1);
 735              		.loc 1 512 5
 736 0012 094B     		ldr	r3, .L50
 737 0014 094A     		ldr	r2, .L50+4
 738 0016 9A60     		str	r2, [r3, #8]
 513:Drivers/STM32L4xx_HAL_Driver/Src/stm32l4xx_hal_flash.c ****     WRITE_REG(FLASH->KEYR, FLASH_KEY2);
 739              		.loc 1 513 5
 740 0018 074B     		ldr	r3, .L50
 741 001a 094A     		ldr	r2, .L50+8
 742 001c 9A60     		str	r2, [r3, #8]
 514:Drivers/STM32L4xx_HAL_Driver/Src/stm32l4xx_hal_flash.c **** 
 515:Drivers/STM32L4xx_HAL_Driver/Src/stm32l4xx_hal_flash.c ****     /* Verify Flash is unlocked */
 516:Drivers/STM32L4xx_HAL_Driver/Src/stm32l4xx_hal_flash.c ****     if(READ_BIT(FLASH->CR, FLASH_CR_LOCK) != 0U)
 743              		.loc 1 516 8
 744 001e 064B     		ldr	r3, .L50
 745 0020 5B69     		ldr	r3, [r3, #20]
 746              		.loc 1 516 7
 747 0022 002B     		cmp	r3, #0
 748 0024 01DA     		bge	.L48
 517:Drivers/STM32L4xx_HAL_Driver/Src/stm32l4xx_hal_flash.c ****     {
 518:Drivers/STM32L4xx_HAL_Driver/Src/stm32l4xx_hal_flash.c ****       status = HAL_ERROR;
 749              		.loc 1 518 14
 750 0026 0123     		movs	r3, #1
ARM GAS  /tmp/cc9mqueP.s 			page 23


 751 0028 FB71     		strb	r3, [r7, #7]
 752              	.L48:
 519:Drivers/STM32L4xx_HAL_Driver/Src/stm32l4xx_hal_flash.c ****     }
 520:Drivers/STM32L4xx_HAL_Driver/Src/stm32l4xx_hal_flash.c ****   }
 521:Drivers/STM32L4xx_HAL_Driver/Src/stm32l4xx_hal_flash.c **** 
 522:Drivers/STM32L4xx_HAL_Driver/Src/stm32l4xx_hal_flash.c ****   return status;
 753              		.loc 1 522 10
 754 002a FB79     		ldrb	r3, [r7, #7]	@ zero_extendqisi2
 523:Drivers/STM32L4xx_HAL_Driver/Src/stm32l4xx_hal_flash.c **** }
 755              		.loc 1 523 1
 756 002c 1846     		mov	r0, r3
 757 002e 0C37     		adds	r7, r7, #12
 758              		.cfi_def_cfa_offset 4
 759 0030 BD46     		mov	sp, r7
 760              		.cfi_def_cfa_register 13
 761              		@ sp needed
 762 0032 5DF8047B 		ldr	r7, [sp], #4
 763              		.cfi_restore 7
 764              		.cfi_def_cfa_offset 0
 765 0036 7047     		bx	lr
 766              	.L51:
 767              		.align	2
 768              	.L50:
 769 0038 00200240 		.word	1073881088
 770 003c 23016745 		.word	1164378403
 771 0040 AB89EFCD 		.word	-839939669
 772              		.cfi_endproc
 773              	.LFE450:
 775              		.section	.text.HAL_FLASH_Lock,"ax",%progbits
 776              		.align	1
 777              		.global	HAL_FLASH_Lock
 778              		.syntax unified
 779              		.thumb
 780              		.thumb_func
 782              	HAL_FLASH_Lock:
 783              	.LFB451:
 524:Drivers/STM32L4xx_HAL_Driver/Src/stm32l4xx_hal_flash.c **** 
 525:Drivers/STM32L4xx_HAL_Driver/Src/stm32l4xx_hal_flash.c **** /**
 526:Drivers/STM32L4xx_HAL_Driver/Src/stm32l4xx_hal_flash.c ****   * @brief  Lock the FLASH control register access.
 527:Drivers/STM32L4xx_HAL_Driver/Src/stm32l4xx_hal_flash.c ****   * @retval HAL Status
 528:Drivers/STM32L4xx_HAL_Driver/Src/stm32l4xx_hal_flash.c ****   */
 529:Drivers/STM32L4xx_HAL_Driver/Src/stm32l4xx_hal_flash.c **** HAL_StatusTypeDef HAL_FLASH_Lock(void)
 530:Drivers/STM32L4xx_HAL_Driver/Src/stm32l4xx_hal_flash.c **** {
 784              		.loc 1 530 1
 785              		.cfi_startproc
 786              		@ args = 0, pretend = 0, frame = 0
 787              		@ frame_needed = 1, uses_anonymous_args = 0
 788              		@ link register save eliminated.
 789 0000 80B4     		push	{r7}
 790              		.cfi_def_cfa_offset 4
 791              		.cfi_offset 7, -4
 792 0002 00AF     		add	r7, sp, #0
 793              		.cfi_def_cfa_register 7
 531:Drivers/STM32L4xx_HAL_Driver/Src/stm32l4xx_hal_flash.c ****   /* Set the LOCK Bit to lock the FLASH Registers access */
 532:Drivers/STM32L4xx_HAL_Driver/Src/stm32l4xx_hal_flash.c ****   SET_BIT(FLASH->CR, FLASH_CR_LOCK);
 794              		.loc 1 532 3
 795 0004 054B     		ldr	r3, .L54
ARM GAS  /tmp/cc9mqueP.s 			page 24


 796 0006 5B69     		ldr	r3, [r3, #20]
 797 0008 044A     		ldr	r2, .L54
 798 000a 43F00043 		orr	r3, r3, #-2147483648
 799 000e 5361     		str	r3, [r2, #20]
 533:Drivers/STM32L4xx_HAL_Driver/Src/stm32l4xx_hal_flash.c **** 
 534:Drivers/STM32L4xx_HAL_Driver/Src/stm32l4xx_hal_flash.c ****   return HAL_OK;
 800              		.loc 1 534 10
 801 0010 0023     		movs	r3, #0
 535:Drivers/STM32L4xx_HAL_Driver/Src/stm32l4xx_hal_flash.c **** }
 802              		.loc 1 535 1
 803 0012 1846     		mov	r0, r3
 804 0014 BD46     		mov	sp, r7
 805              		.cfi_def_cfa_register 13
 806              		@ sp needed
 807 0016 5DF8047B 		ldr	r7, [sp], #4
 808              		.cfi_restore 7
 809              		.cfi_def_cfa_offset 0
 810 001a 7047     		bx	lr
 811              	.L55:
 812              		.align	2
 813              	.L54:
 814 001c 00200240 		.word	1073881088
 815              		.cfi_endproc
 816              	.LFE451:
 818              		.section	.text.HAL_FLASH_OB_Unlock,"ax",%progbits
 819              		.align	1
 820              		.global	HAL_FLASH_OB_Unlock
 821              		.syntax unified
 822              		.thumb
 823              		.thumb_func
 825              	HAL_FLASH_OB_Unlock:
 826              	.LFB452:
 536:Drivers/STM32L4xx_HAL_Driver/Src/stm32l4xx_hal_flash.c **** 
 537:Drivers/STM32L4xx_HAL_Driver/Src/stm32l4xx_hal_flash.c **** /**
 538:Drivers/STM32L4xx_HAL_Driver/Src/stm32l4xx_hal_flash.c ****   * @brief  Unlock the FLASH Option Bytes Registers access.
 539:Drivers/STM32L4xx_HAL_Driver/Src/stm32l4xx_hal_flash.c ****   * @retval HAL Status
 540:Drivers/STM32L4xx_HAL_Driver/Src/stm32l4xx_hal_flash.c ****   */
 541:Drivers/STM32L4xx_HAL_Driver/Src/stm32l4xx_hal_flash.c **** HAL_StatusTypeDef HAL_FLASH_OB_Unlock(void)
 542:Drivers/STM32L4xx_HAL_Driver/Src/stm32l4xx_hal_flash.c **** {
 827              		.loc 1 542 1
 828              		.cfi_startproc
 829              		@ args = 0, pretend = 0, frame = 0
 830              		@ frame_needed = 1, uses_anonymous_args = 0
 831              		@ link register save eliminated.
 832 0000 80B4     		push	{r7}
 833              		.cfi_def_cfa_offset 4
 834              		.cfi_offset 7, -4
 835 0002 00AF     		add	r7, sp, #0
 836              		.cfi_def_cfa_register 7
 543:Drivers/STM32L4xx_HAL_Driver/Src/stm32l4xx_hal_flash.c ****   if(READ_BIT(FLASH->CR, FLASH_CR_OPTLOCK) != 0U)
 837              		.loc 1 543 6
 838 0004 094B     		ldr	r3, .L60
 839 0006 5B69     		ldr	r3, [r3, #20]
 840 0008 03F08043 		and	r3, r3, #1073741824
 841              		.loc 1 543 5
 842 000c 002B     		cmp	r3, #0
 843 000e 07D0     		beq	.L57
ARM GAS  /tmp/cc9mqueP.s 			page 25


 544:Drivers/STM32L4xx_HAL_Driver/Src/stm32l4xx_hal_flash.c ****   {
 545:Drivers/STM32L4xx_HAL_Driver/Src/stm32l4xx_hal_flash.c ****     /* Authorizes the Option Byte register programming */
 546:Drivers/STM32L4xx_HAL_Driver/Src/stm32l4xx_hal_flash.c ****     WRITE_REG(FLASH->OPTKEYR, FLASH_OPTKEY1);
 844              		.loc 1 546 5
 845 0010 064B     		ldr	r3, .L60
 846 0012 074A     		ldr	r2, .L60+4
 847 0014 DA60     		str	r2, [r3, #12]
 547:Drivers/STM32L4xx_HAL_Driver/Src/stm32l4xx_hal_flash.c ****     WRITE_REG(FLASH->OPTKEYR, FLASH_OPTKEY2);
 848              		.loc 1 547 5
 849 0016 054B     		ldr	r3, .L60
 850 0018 064A     		ldr	r2, .L60+8
 851 001a DA60     		str	r2, [r3, #12]
 548:Drivers/STM32L4xx_HAL_Driver/Src/stm32l4xx_hal_flash.c ****   }
 549:Drivers/STM32L4xx_HAL_Driver/Src/stm32l4xx_hal_flash.c ****   else
 550:Drivers/STM32L4xx_HAL_Driver/Src/stm32l4xx_hal_flash.c ****   {
 551:Drivers/STM32L4xx_HAL_Driver/Src/stm32l4xx_hal_flash.c ****     return HAL_ERROR;
 552:Drivers/STM32L4xx_HAL_Driver/Src/stm32l4xx_hal_flash.c ****   }
 553:Drivers/STM32L4xx_HAL_Driver/Src/stm32l4xx_hal_flash.c **** 
 554:Drivers/STM32L4xx_HAL_Driver/Src/stm32l4xx_hal_flash.c ****   return HAL_OK;
 852              		.loc 1 554 10
 853 001c 0023     		movs	r3, #0
 854 001e 00E0     		b	.L59
 855              	.L57:
 551:Drivers/STM32L4xx_HAL_Driver/Src/stm32l4xx_hal_flash.c ****   }
 856              		.loc 1 551 12
 857 0020 0123     		movs	r3, #1
 858              	.L59:
 555:Drivers/STM32L4xx_HAL_Driver/Src/stm32l4xx_hal_flash.c **** }
 859              		.loc 1 555 1
 860 0022 1846     		mov	r0, r3
 861 0024 BD46     		mov	sp, r7
 862              		.cfi_def_cfa_register 13
 863              		@ sp needed
 864 0026 5DF8047B 		ldr	r7, [sp], #4
 865              		.cfi_restore 7
 866              		.cfi_def_cfa_offset 0
 867 002a 7047     		bx	lr
 868              	.L61:
 869              		.align	2
 870              	.L60:
 871 002c 00200240 		.word	1073881088
 872 0030 3B2A1908 		.word	135866939
 873 0034 7F6E5D4C 		.word	1281191551
 874              		.cfi_endproc
 875              	.LFE452:
 877              		.section	.text.HAL_FLASH_OB_Lock,"ax",%progbits
 878              		.align	1
 879              		.global	HAL_FLASH_OB_Lock
 880              		.syntax unified
 881              		.thumb
 882              		.thumb_func
 884              	HAL_FLASH_OB_Lock:
 885              	.LFB453:
 556:Drivers/STM32L4xx_HAL_Driver/Src/stm32l4xx_hal_flash.c **** 
 557:Drivers/STM32L4xx_HAL_Driver/Src/stm32l4xx_hal_flash.c **** /**
 558:Drivers/STM32L4xx_HAL_Driver/Src/stm32l4xx_hal_flash.c ****   * @brief  Lock the FLASH Option Bytes Registers access.
 559:Drivers/STM32L4xx_HAL_Driver/Src/stm32l4xx_hal_flash.c ****   * @retval HAL Status
ARM GAS  /tmp/cc9mqueP.s 			page 26


 560:Drivers/STM32L4xx_HAL_Driver/Src/stm32l4xx_hal_flash.c ****   */
 561:Drivers/STM32L4xx_HAL_Driver/Src/stm32l4xx_hal_flash.c **** HAL_StatusTypeDef HAL_FLASH_OB_Lock(void)
 562:Drivers/STM32L4xx_HAL_Driver/Src/stm32l4xx_hal_flash.c **** {
 886              		.loc 1 562 1
 887              		.cfi_startproc
 888              		@ args = 0, pretend = 0, frame = 0
 889              		@ frame_needed = 1, uses_anonymous_args = 0
 890              		@ link register save eliminated.
 891 0000 80B4     		push	{r7}
 892              		.cfi_def_cfa_offset 4
 893              		.cfi_offset 7, -4
 894 0002 00AF     		add	r7, sp, #0
 895              		.cfi_def_cfa_register 7
 563:Drivers/STM32L4xx_HAL_Driver/Src/stm32l4xx_hal_flash.c ****   /* Set the OPTLOCK Bit to lock the FLASH Option Byte Registers access */
 564:Drivers/STM32L4xx_HAL_Driver/Src/stm32l4xx_hal_flash.c ****   SET_BIT(FLASH->CR, FLASH_CR_OPTLOCK);
 896              		.loc 1 564 3
 897 0004 054B     		ldr	r3, .L64
 898 0006 5B69     		ldr	r3, [r3, #20]
 899 0008 044A     		ldr	r2, .L64
 900 000a 43F08043 		orr	r3, r3, #1073741824
 901 000e 5361     		str	r3, [r2, #20]
 565:Drivers/STM32L4xx_HAL_Driver/Src/stm32l4xx_hal_flash.c **** 
 566:Drivers/STM32L4xx_HAL_Driver/Src/stm32l4xx_hal_flash.c ****   return HAL_OK;
 902              		.loc 1 566 10
 903 0010 0023     		movs	r3, #0
 567:Drivers/STM32L4xx_HAL_Driver/Src/stm32l4xx_hal_flash.c **** }
 904              		.loc 1 567 1
 905 0012 1846     		mov	r0, r3
 906 0014 BD46     		mov	sp, r7
 907              		.cfi_def_cfa_register 13
 908              		@ sp needed
 909 0016 5DF8047B 		ldr	r7, [sp], #4
 910              		.cfi_restore 7
 911              		.cfi_def_cfa_offset 0
 912 001a 7047     		bx	lr
 913              	.L65:
 914              		.align	2
 915              	.L64:
 916 001c 00200240 		.word	1073881088
 917              		.cfi_endproc
 918              	.LFE453:
 920              		.section	.text.HAL_FLASH_OB_Launch,"ax",%progbits
 921              		.align	1
 922              		.global	HAL_FLASH_OB_Launch
 923              		.syntax unified
 924              		.thumb
 925              		.thumb_func
 927              	HAL_FLASH_OB_Launch:
 928              	.LFB454:
 568:Drivers/STM32L4xx_HAL_Driver/Src/stm32l4xx_hal_flash.c **** 
 569:Drivers/STM32L4xx_HAL_Driver/Src/stm32l4xx_hal_flash.c **** /**
 570:Drivers/STM32L4xx_HAL_Driver/Src/stm32l4xx_hal_flash.c ****   * @brief  Launch the option byte loading.
 571:Drivers/STM32L4xx_HAL_Driver/Src/stm32l4xx_hal_flash.c ****   * @retval HAL Status
 572:Drivers/STM32L4xx_HAL_Driver/Src/stm32l4xx_hal_flash.c ****   */
 573:Drivers/STM32L4xx_HAL_Driver/Src/stm32l4xx_hal_flash.c **** HAL_StatusTypeDef HAL_FLASH_OB_Launch(void)
 574:Drivers/STM32L4xx_HAL_Driver/Src/stm32l4xx_hal_flash.c **** {
 929              		.loc 1 574 1
ARM GAS  /tmp/cc9mqueP.s 			page 27


 930              		.cfi_startproc
 931              		@ args = 0, pretend = 0, frame = 0
 932              		@ frame_needed = 1, uses_anonymous_args = 0
 933 0000 80B5     		push	{r7, lr}
 934              		.cfi_def_cfa_offset 8
 935              		.cfi_offset 7, -8
 936              		.cfi_offset 14, -4
 937 0002 00AF     		add	r7, sp, #0
 938              		.cfi_def_cfa_register 7
 575:Drivers/STM32L4xx_HAL_Driver/Src/stm32l4xx_hal_flash.c ****   /* Set the bit to force the option byte reloading */
 576:Drivers/STM32L4xx_HAL_Driver/Src/stm32l4xx_hal_flash.c ****   SET_BIT(FLASH->CR, FLASH_CR_OBL_LAUNCH);
 939              		.loc 1 576 3
 940 0004 064B     		ldr	r3, .L68
 941 0006 5B69     		ldr	r3, [r3, #20]
 942 0008 054A     		ldr	r2, .L68
 943 000a 43F00063 		orr	r3, r3, #134217728
 944 000e 5361     		str	r3, [r2, #20]
 577:Drivers/STM32L4xx_HAL_Driver/Src/stm32l4xx_hal_flash.c **** 
 578:Drivers/STM32L4xx_HAL_Driver/Src/stm32l4xx_hal_flash.c ****   /* Wait for last operation to be completed */
 579:Drivers/STM32L4xx_HAL_Driver/Src/stm32l4xx_hal_flash.c ****   return(FLASH_WaitForLastOperation((uint32_t)FLASH_TIMEOUT_VALUE));
 945              		.loc 1 579 10
 946 0010 4CF25030 		movw	r0, #50000
 947 0014 FFF7FEFF 		bl	FLASH_WaitForLastOperation
 948 0018 0346     		mov	r3, r0
 580:Drivers/STM32L4xx_HAL_Driver/Src/stm32l4xx_hal_flash.c **** }
 949              		.loc 1 580 1
 950 001a 1846     		mov	r0, r3
 951 001c 80BD     		pop	{r7, pc}
 952              	.L69:
 953 001e 00BF     		.align	2
 954              	.L68:
 955 0020 00200240 		.word	1073881088
 956              		.cfi_endproc
 957              	.LFE454:
 959              		.section	.text.HAL_FLASH_GetError,"ax",%progbits
 960              		.align	1
 961              		.global	HAL_FLASH_GetError
 962              		.syntax unified
 963              		.thumb
 964              		.thumb_func
 966              	HAL_FLASH_GetError:
 967              	.LFB455:
 581:Drivers/STM32L4xx_HAL_Driver/Src/stm32l4xx_hal_flash.c **** 
 582:Drivers/STM32L4xx_HAL_Driver/Src/stm32l4xx_hal_flash.c **** /**
 583:Drivers/STM32L4xx_HAL_Driver/Src/stm32l4xx_hal_flash.c ****   * @}
 584:Drivers/STM32L4xx_HAL_Driver/Src/stm32l4xx_hal_flash.c ****   */
 585:Drivers/STM32L4xx_HAL_Driver/Src/stm32l4xx_hal_flash.c **** 
 586:Drivers/STM32L4xx_HAL_Driver/Src/stm32l4xx_hal_flash.c **** /** @defgroup FLASH_Exported_Functions_Group3 Peripheral State and Errors functions
 587:Drivers/STM32L4xx_HAL_Driver/Src/stm32l4xx_hal_flash.c ****  *  @brief   Peripheral Errors functions
 588:Drivers/STM32L4xx_HAL_Driver/Src/stm32l4xx_hal_flash.c ****  *
 589:Drivers/STM32L4xx_HAL_Driver/Src/stm32l4xx_hal_flash.c **** @verbatim
 590:Drivers/STM32L4xx_HAL_Driver/Src/stm32l4xx_hal_flash.c ****  ===============================================================================
 591:Drivers/STM32L4xx_HAL_Driver/Src/stm32l4xx_hal_flash.c ****                 ##### Peripheral Errors functions #####
 592:Drivers/STM32L4xx_HAL_Driver/Src/stm32l4xx_hal_flash.c ****  ===============================================================================
 593:Drivers/STM32L4xx_HAL_Driver/Src/stm32l4xx_hal_flash.c ****     [..]
 594:Drivers/STM32L4xx_HAL_Driver/Src/stm32l4xx_hal_flash.c ****     This subsection permits to get in run-time Errors of the FLASH peripheral.
 595:Drivers/STM32L4xx_HAL_Driver/Src/stm32l4xx_hal_flash.c **** 
ARM GAS  /tmp/cc9mqueP.s 			page 28


 596:Drivers/STM32L4xx_HAL_Driver/Src/stm32l4xx_hal_flash.c **** @endverbatim
 597:Drivers/STM32L4xx_HAL_Driver/Src/stm32l4xx_hal_flash.c ****   * @{
 598:Drivers/STM32L4xx_HAL_Driver/Src/stm32l4xx_hal_flash.c ****   */
 599:Drivers/STM32L4xx_HAL_Driver/Src/stm32l4xx_hal_flash.c **** 
 600:Drivers/STM32L4xx_HAL_Driver/Src/stm32l4xx_hal_flash.c **** /**
 601:Drivers/STM32L4xx_HAL_Driver/Src/stm32l4xx_hal_flash.c ****   * @brief  Get the specific FLASH error flag.
 602:Drivers/STM32L4xx_HAL_Driver/Src/stm32l4xx_hal_flash.c ****   * @retval FLASH_ErrorCode: The returned value can be:
 603:Drivers/STM32L4xx_HAL_Driver/Src/stm32l4xx_hal_flash.c ****   *            @arg HAL_FLASH_ERROR_RD: FLASH Read Protection error flag (PCROP)
 604:Drivers/STM32L4xx_HAL_Driver/Src/stm32l4xx_hal_flash.c ****   *            @arg HAL_FLASH_ERROR_PGS: FLASH Programming Sequence error flag
 605:Drivers/STM32L4xx_HAL_Driver/Src/stm32l4xx_hal_flash.c ****   *            @arg HAL_FLASH_ERROR_PGP: FLASH Programming Parallelism error flag
 606:Drivers/STM32L4xx_HAL_Driver/Src/stm32l4xx_hal_flash.c ****   *            @arg HAL_FLASH_ERROR_PGA: FLASH Programming Alignment error flag
 607:Drivers/STM32L4xx_HAL_Driver/Src/stm32l4xx_hal_flash.c ****   *            @arg HAL_FLASH_ERROR_WRP: FLASH Write protected error flag
 608:Drivers/STM32L4xx_HAL_Driver/Src/stm32l4xx_hal_flash.c ****   *            @arg HAL_FLASH_ERROR_OPERATION: FLASH operation Error flag
 609:Drivers/STM32L4xx_HAL_Driver/Src/stm32l4xx_hal_flash.c ****   *            @arg HAL_FLASH_ERROR_NONE: No error set
 610:Drivers/STM32L4xx_HAL_Driver/Src/stm32l4xx_hal_flash.c ****   *            @arg HAL_FLASH_ERROR_OP: FLASH Operation error
 611:Drivers/STM32L4xx_HAL_Driver/Src/stm32l4xx_hal_flash.c ****   *            @arg HAL_FLASH_ERROR_PROG: FLASH Programming error
 612:Drivers/STM32L4xx_HAL_Driver/Src/stm32l4xx_hal_flash.c ****   *            @arg HAL_FLASH_ERROR_WRP: FLASH Write protection error
 613:Drivers/STM32L4xx_HAL_Driver/Src/stm32l4xx_hal_flash.c ****   *            @arg HAL_FLASH_ERROR_PGA: FLASH Programming alignment error
 614:Drivers/STM32L4xx_HAL_Driver/Src/stm32l4xx_hal_flash.c ****   *            @arg HAL_FLASH_ERROR_SIZ: FLASH Size error
 615:Drivers/STM32L4xx_HAL_Driver/Src/stm32l4xx_hal_flash.c ****   *            @arg HAL_FLASH_ERROR_PGS: FLASH Programming sequence error
 616:Drivers/STM32L4xx_HAL_Driver/Src/stm32l4xx_hal_flash.c ****   *            @arg HAL_FLASH_ERROR_MIS: FLASH Fast programming data miss error
 617:Drivers/STM32L4xx_HAL_Driver/Src/stm32l4xx_hal_flash.c ****   *            @arg HAL_FLASH_ERROR_FAST: FLASH Fast programming error
 618:Drivers/STM32L4xx_HAL_Driver/Src/stm32l4xx_hal_flash.c ****   *            @arg HAL_FLASH_ERROR_RD: FLASH PCROP read error
 619:Drivers/STM32L4xx_HAL_Driver/Src/stm32l4xx_hal_flash.c ****   *            @arg HAL_FLASH_ERROR_OPTV: FLASH Option validity error
 620:Drivers/STM32L4xx_HAL_Driver/Src/stm32l4xx_hal_flash.c ****   *            @arg FLASH_FLAG_PEMPTY : FLASH Boot from not programmed flash (apply only for STM32L
 621:Drivers/STM32L4xx_HAL_Driver/Src/stm32l4xx_hal_flash.c ****   */
 622:Drivers/STM32L4xx_HAL_Driver/Src/stm32l4xx_hal_flash.c **** uint32_t HAL_FLASH_GetError(void)
 623:Drivers/STM32L4xx_HAL_Driver/Src/stm32l4xx_hal_flash.c **** {
 968              		.loc 1 623 1
 969              		.cfi_startproc
 970              		@ args = 0, pretend = 0, frame = 0
 971              		@ frame_needed = 1, uses_anonymous_args = 0
 972              		@ link register save eliminated.
 973 0000 80B4     		push	{r7}
 974              		.cfi_def_cfa_offset 4
 975              		.cfi_offset 7, -4
 976 0002 00AF     		add	r7, sp, #0
 977              		.cfi_def_cfa_register 7
 624:Drivers/STM32L4xx_HAL_Driver/Src/stm32l4xx_hal_flash.c ****    return pFlash.ErrorCode;
 978              		.loc 1 624 17
 979 0004 034B     		ldr	r3, .L72
 980 0006 5B68     		ldr	r3, [r3, #4]
 625:Drivers/STM32L4xx_HAL_Driver/Src/stm32l4xx_hal_flash.c **** }
 981              		.loc 1 625 1
 982 0008 1846     		mov	r0, r3
 983 000a BD46     		mov	sp, r7
 984              		.cfi_def_cfa_register 13
 985              		@ sp needed
 986 000c 5DF8047B 		ldr	r7, [sp], #4
 987              		.cfi_restore 7
 988              		.cfi_def_cfa_offset 0
 989 0010 7047     		bx	lr
 990              	.L73:
 991 0012 00BF     		.align	2
 992              	.L72:
 993 0014 00000000 		.word	pFlash
 994              		.cfi_endproc
ARM GAS  /tmp/cc9mqueP.s 			page 29


 995              	.LFE455:
 997              		.section	.text.FLASH_WaitForLastOperation,"ax",%progbits
 998              		.align	1
 999              		.global	FLASH_WaitForLastOperation
 1000              		.syntax unified
 1001              		.thumb
 1002              		.thumb_func
 1004              	FLASH_WaitForLastOperation:
 1005              	.LFB456:
 626:Drivers/STM32L4xx_HAL_Driver/Src/stm32l4xx_hal_flash.c **** 
 627:Drivers/STM32L4xx_HAL_Driver/Src/stm32l4xx_hal_flash.c **** /**
 628:Drivers/STM32L4xx_HAL_Driver/Src/stm32l4xx_hal_flash.c ****   * @}
 629:Drivers/STM32L4xx_HAL_Driver/Src/stm32l4xx_hal_flash.c ****   */
 630:Drivers/STM32L4xx_HAL_Driver/Src/stm32l4xx_hal_flash.c **** 
 631:Drivers/STM32L4xx_HAL_Driver/Src/stm32l4xx_hal_flash.c **** /**
 632:Drivers/STM32L4xx_HAL_Driver/Src/stm32l4xx_hal_flash.c ****   * @}
 633:Drivers/STM32L4xx_HAL_Driver/Src/stm32l4xx_hal_flash.c ****   */
 634:Drivers/STM32L4xx_HAL_Driver/Src/stm32l4xx_hal_flash.c **** 
 635:Drivers/STM32L4xx_HAL_Driver/Src/stm32l4xx_hal_flash.c **** /* Private functions ---------------------------------------------------------*/
 636:Drivers/STM32L4xx_HAL_Driver/Src/stm32l4xx_hal_flash.c **** 
 637:Drivers/STM32L4xx_HAL_Driver/Src/stm32l4xx_hal_flash.c **** /** @addtogroup FLASH_Private_Functions
 638:Drivers/STM32L4xx_HAL_Driver/Src/stm32l4xx_hal_flash.c ****   * @{
 639:Drivers/STM32L4xx_HAL_Driver/Src/stm32l4xx_hal_flash.c ****   */
 640:Drivers/STM32L4xx_HAL_Driver/Src/stm32l4xx_hal_flash.c **** 
 641:Drivers/STM32L4xx_HAL_Driver/Src/stm32l4xx_hal_flash.c **** /**
 642:Drivers/STM32L4xx_HAL_Driver/Src/stm32l4xx_hal_flash.c ****   * @brief  Wait for a FLASH operation to complete.
 643:Drivers/STM32L4xx_HAL_Driver/Src/stm32l4xx_hal_flash.c ****   * @param  Timeout maximum flash operation timeout
 644:Drivers/STM32L4xx_HAL_Driver/Src/stm32l4xx_hal_flash.c ****   * @retval HAL_StatusTypeDef HAL Status
 645:Drivers/STM32L4xx_HAL_Driver/Src/stm32l4xx_hal_flash.c ****   */
 646:Drivers/STM32L4xx_HAL_Driver/Src/stm32l4xx_hal_flash.c **** HAL_StatusTypeDef FLASH_WaitForLastOperation(uint32_t Timeout)
 647:Drivers/STM32L4xx_HAL_Driver/Src/stm32l4xx_hal_flash.c **** {
 1006              		.loc 1 647 1
 1007              		.cfi_startproc
 1008              		@ args = 0, pretend = 0, frame = 16
 1009              		@ frame_needed = 1, uses_anonymous_args = 0
 1010 0000 80B5     		push	{r7, lr}
 1011              		.cfi_def_cfa_offset 8
 1012              		.cfi_offset 7, -8
 1013              		.cfi_offset 14, -4
 1014 0002 84B0     		sub	sp, sp, #16
 1015              		.cfi_def_cfa_offset 24
 1016 0004 00AF     		add	r7, sp, #0
 1017              		.cfi_def_cfa_register 7
 1018 0006 7860     		str	r0, [r7, #4]
 648:Drivers/STM32L4xx_HAL_Driver/Src/stm32l4xx_hal_flash.c ****   /* Wait for the FLASH operation to complete by polling on BUSY flag to be reset.
 649:Drivers/STM32L4xx_HAL_Driver/Src/stm32l4xx_hal_flash.c ****      Even if the FLASH operation fails, the BUSY flag will be reset and an error
 650:Drivers/STM32L4xx_HAL_Driver/Src/stm32l4xx_hal_flash.c ****      flag will be set */
 651:Drivers/STM32L4xx_HAL_Driver/Src/stm32l4xx_hal_flash.c **** 
 652:Drivers/STM32L4xx_HAL_Driver/Src/stm32l4xx_hal_flash.c ****   uint32_t tickstart = HAL_GetTick();
 1019              		.loc 1 652 24
 1020 0008 FFF7FEFF 		bl	HAL_GetTick
 1021 000c F860     		str	r0, [r7, #12]
 653:Drivers/STM32L4xx_HAL_Driver/Src/stm32l4xx_hal_flash.c ****   uint32_t error;
 654:Drivers/STM32L4xx_HAL_Driver/Src/stm32l4xx_hal_flash.c **** 
 655:Drivers/STM32L4xx_HAL_Driver/Src/stm32l4xx_hal_flash.c ****   while(__HAL_FLASH_GET_FLAG(FLASH_FLAG_BSY))
 1022              		.loc 1 655 8
 1023 000e 0DE0     		b	.L76
ARM GAS  /tmp/cc9mqueP.s 			page 30


 1024              	.L78:
 656:Drivers/STM32L4xx_HAL_Driver/Src/stm32l4xx_hal_flash.c ****   {
 657:Drivers/STM32L4xx_HAL_Driver/Src/stm32l4xx_hal_flash.c ****     if(Timeout != HAL_MAX_DELAY)
 1025              		.loc 1 657 7
 1026 0010 7B68     		ldr	r3, [r7, #4]
 1027 0012 B3F1FF3F 		cmp	r3, #-1
 1028 0016 09D0     		beq	.L76
 658:Drivers/STM32L4xx_HAL_Driver/Src/stm32l4xx_hal_flash.c ****     {
 659:Drivers/STM32L4xx_HAL_Driver/Src/stm32l4xx_hal_flash.c ****       if((HAL_GetTick() - tickstart) >= Timeout)
 1029              		.loc 1 659 11
 1030 0018 FFF7FEFF 		bl	HAL_GetTick
 1031 001c 0246     		mov	r2, r0
 1032              		.loc 1 659 25 discriminator 1
 1033 001e FB68     		ldr	r3, [r7, #12]
 1034 0020 D31A     		subs	r3, r2, r3
 1035              		.loc 1 659 9 discriminator 1
 1036 0022 7A68     		ldr	r2, [r7, #4]
 1037 0024 9A42     		cmp	r2, r3
 1038 0026 01D8     		bhi	.L76
 660:Drivers/STM32L4xx_HAL_Driver/Src/stm32l4xx_hal_flash.c ****       {
 661:Drivers/STM32L4xx_HAL_Driver/Src/stm32l4xx_hal_flash.c ****         return HAL_TIMEOUT;
 1039              		.loc 1 661 16
 1040 0028 0323     		movs	r3, #3
 1041 002a 36E0     		b	.L77
 1042              	.L76:
 655:Drivers/STM32L4xx_HAL_Driver/Src/stm32l4xx_hal_flash.c ****   {
 1043              		.loc 1 655 9
 1044 002c 1D4B     		ldr	r3, .L83
 1045 002e 1B69     		ldr	r3, [r3, #16]
 1046 0030 03F48033 		and	r3, r3, #65536
 1047 0034 002B     		cmp	r3, #0
 1048 0036 EBD1     		bne	.L78
 662:Drivers/STM32L4xx_HAL_Driver/Src/stm32l4xx_hal_flash.c ****       }
 663:Drivers/STM32L4xx_HAL_Driver/Src/stm32l4xx_hal_flash.c ****     }
 664:Drivers/STM32L4xx_HAL_Driver/Src/stm32l4xx_hal_flash.c ****   }
 665:Drivers/STM32L4xx_HAL_Driver/Src/stm32l4xx_hal_flash.c **** 
 666:Drivers/STM32L4xx_HAL_Driver/Src/stm32l4xx_hal_flash.c ****   error = (FLASH->SR & FLASH_FLAG_SR_ERRORS);
 1049              		.loc 1 666 17
 1050 0038 1A4B     		ldr	r3, .L83
 1051 003a 1A69     		ldr	r2, [r3, #16]
 1052              		.loc 1 666 9
 1053 003c 4CF2FA33 		movw	r3, #50170
 1054 0040 1340     		ands	r3, r3, r2
 1055 0042 BB60     		str	r3, [r7, #8]
 667:Drivers/STM32L4xx_HAL_Driver/Src/stm32l4xx_hal_flash.c **** 
 668:Drivers/STM32L4xx_HAL_Driver/Src/stm32l4xx_hal_flash.c ****   if(error != 0u)
 1056              		.loc 1 668 5
 1057 0044 BB68     		ldr	r3, [r7, #8]
 1058 0046 002B     		cmp	r3, #0
 1059 0048 1DD0     		beq	.L79
 669:Drivers/STM32L4xx_HAL_Driver/Src/stm32l4xx_hal_flash.c ****   {
 670:Drivers/STM32L4xx_HAL_Driver/Src/stm32l4xx_hal_flash.c ****     /*Save the error code*/
 671:Drivers/STM32L4xx_HAL_Driver/Src/stm32l4xx_hal_flash.c ****     pFlash.ErrorCode |= error;
 1060              		.loc 1 671 11
 1061 004a 174B     		ldr	r3, .L83+4
 1062 004c 5A68     		ldr	r2, [r3, #4]
 1063              		.loc 1 671 22
ARM GAS  /tmp/cc9mqueP.s 			page 31


 1064 004e BB68     		ldr	r3, [r7, #8]
 1065 0050 1343     		orrs	r3, r3, r2
 1066 0052 154A     		ldr	r2, .L83+4
 1067 0054 5360     		str	r3, [r2, #4]
 672:Drivers/STM32L4xx_HAL_Driver/Src/stm32l4xx_hal_flash.c **** 
 673:Drivers/STM32L4xx_HAL_Driver/Src/stm32l4xx_hal_flash.c ****     /* Clear error programming flags */
 674:Drivers/STM32L4xx_HAL_Driver/Src/stm32l4xx_hal_flash.c ****     __HAL_FLASH_CLEAR_FLAG(error);
 1068              		.loc 1 674 5
 1069 0056 BB68     		ldr	r3, [r7, #8]
 1070 0058 B3F1804F 		cmp	r3, #1073741824
 1071 005c 07D3     		bcc	.L80
 1072              		.loc 1 674 5 is_stmt 0 discriminator 1
 1073 005e 114B     		ldr	r3, .L83
 1074 0060 9A69     		ldr	r2, [r3, #24]
 1075 0062 BB68     		ldr	r3, [r7, #8]
 1076 0064 03F04043 		and	r3, r3, #-1073741824
 1077 0068 0E49     		ldr	r1, .L83
 1078 006a 1343     		orrs	r3, r3, r2
 1079 006c 8B61     		str	r3, [r1, #24]
 1080              	.L80:
 1081              		.loc 1 674 5 discriminator 3
 1082 006e BB68     		ldr	r3, [r7, #8]
 1083 0070 23F04043 		bic	r3, r3, #-1073741824
 1084 0074 002B     		cmp	r3, #0
 1085 0076 04D0     		beq	.L81
 1086              		.loc 1 674 5 discriminator 4
 1087 0078 0A4A     		ldr	r2, .L83
 1088 007a BB68     		ldr	r3, [r7, #8]
 1089 007c 23F04043 		bic	r3, r3, #-1073741824
 1090 0080 1361     		str	r3, [r2, #16]
 1091              	.L81:
 675:Drivers/STM32L4xx_HAL_Driver/Src/stm32l4xx_hal_flash.c **** 
 676:Drivers/STM32L4xx_HAL_Driver/Src/stm32l4xx_hal_flash.c ****     return HAL_ERROR;
 1092              		.loc 1 676 12 is_stmt 1
 1093 0082 0123     		movs	r3, #1
 1094 0084 09E0     		b	.L77
 1095              	.L79:
 677:Drivers/STM32L4xx_HAL_Driver/Src/stm32l4xx_hal_flash.c ****   }
 678:Drivers/STM32L4xx_HAL_Driver/Src/stm32l4xx_hal_flash.c **** 
 679:Drivers/STM32L4xx_HAL_Driver/Src/stm32l4xx_hal_flash.c ****   /* Check FLASH End of Operation flag  */
 680:Drivers/STM32L4xx_HAL_Driver/Src/stm32l4xx_hal_flash.c ****   if (__HAL_FLASH_GET_FLAG(FLASH_FLAG_EOP))
 1096              		.loc 1 680 7
 1097 0086 074B     		ldr	r3, .L83
 1098 0088 1B69     		ldr	r3, [r3, #16]
 1099 008a 03F00103 		and	r3, r3, #1
 1100              		.loc 1 680 6
 1101 008e 002B     		cmp	r3, #0
 1102 0090 02D0     		beq	.L82
 681:Drivers/STM32L4xx_HAL_Driver/Src/stm32l4xx_hal_flash.c ****   {
 682:Drivers/STM32L4xx_HAL_Driver/Src/stm32l4xx_hal_flash.c ****     /* Clear FLASH End of Operation pending bit */
 683:Drivers/STM32L4xx_HAL_Driver/Src/stm32l4xx_hal_flash.c ****     __HAL_FLASH_CLEAR_FLAG(FLASH_FLAG_EOP);
 1103              		.loc 1 683 5 discriminator 4
 1104 0092 044B     		ldr	r3, .L83
 1105 0094 0122     		movs	r2, #1
 1106 0096 1A61     		str	r2, [r3, #16]
 1107              	.L82:
 684:Drivers/STM32L4xx_HAL_Driver/Src/stm32l4xx_hal_flash.c ****   }
ARM GAS  /tmp/cc9mqueP.s 			page 32


 685:Drivers/STM32L4xx_HAL_Driver/Src/stm32l4xx_hal_flash.c **** 
 686:Drivers/STM32L4xx_HAL_Driver/Src/stm32l4xx_hal_flash.c ****   /* If there is an error flag set */
 687:Drivers/STM32L4xx_HAL_Driver/Src/stm32l4xx_hal_flash.c ****   return HAL_OK;
 1108              		.loc 1 687 10
 1109 0098 0023     		movs	r3, #0
 1110              	.L77:
 688:Drivers/STM32L4xx_HAL_Driver/Src/stm32l4xx_hal_flash.c **** }
 1111              		.loc 1 688 1
 1112 009a 1846     		mov	r0, r3
 1113 009c 1037     		adds	r7, r7, #16
 1114              		.cfi_def_cfa_offset 8
 1115 009e BD46     		mov	sp, r7
 1116              		.cfi_def_cfa_register 13
 1117              		@ sp needed
 1118 00a0 80BD     		pop	{r7, pc}
 1119              	.L84:
 1120 00a2 00BF     		.align	2
 1121              	.L83:
 1122 00a4 00200240 		.word	1073881088
 1123 00a8 00000000 		.word	pFlash
 1124              		.cfi_endproc
 1125              	.LFE456:
 1127              		.section	.text.FLASH_Program_DoubleWord,"ax",%progbits
 1128              		.align	1
 1129              		.syntax unified
 1130              		.thumb
 1131              		.thumb_func
 1133              	FLASH_Program_DoubleWord:
 1134              	.LFB457:
 689:Drivers/STM32L4xx_HAL_Driver/Src/stm32l4xx_hal_flash.c **** 
 690:Drivers/STM32L4xx_HAL_Driver/Src/stm32l4xx_hal_flash.c **** /**
 691:Drivers/STM32L4xx_HAL_Driver/Src/stm32l4xx_hal_flash.c ****   * @brief  Program double-word (64-bit) at a specified address.
 692:Drivers/STM32L4xx_HAL_Driver/Src/stm32l4xx_hal_flash.c ****   * @param  Address specifies the address to be programmed.
 693:Drivers/STM32L4xx_HAL_Driver/Src/stm32l4xx_hal_flash.c ****   * @param  Data specifies the data to be programmed.
 694:Drivers/STM32L4xx_HAL_Driver/Src/stm32l4xx_hal_flash.c ****   * @retval None
 695:Drivers/STM32L4xx_HAL_Driver/Src/stm32l4xx_hal_flash.c ****   */
 696:Drivers/STM32L4xx_HAL_Driver/Src/stm32l4xx_hal_flash.c **** static void FLASH_Program_DoubleWord(uint32_t Address, uint64_t Data)
 697:Drivers/STM32L4xx_HAL_Driver/Src/stm32l4xx_hal_flash.c **** {
 1135              		.loc 1 697 1
 1136              		.cfi_startproc
 1137              		@ args = 0, pretend = 0, frame = 16
 1138              		@ frame_needed = 1, uses_anonymous_args = 0
 1139              		@ link register save eliminated.
 1140 0000 80B4     		push	{r7}
 1141              		.cfi_def_cfa_offset 4
 1142              		.cfi_offset 7, -4
 1143 0002 85B0     		sub	sp, sp, #20
 1144              		.cfi_def_cfa_offset 24
 1145 0004 00AF     		add	r7, sp, #0
 1146              		.cfi_def_cfa_register 7
 1147 0006 F860     		str	r0, [r7, #12]
 1148 0008 C7E90023 		strd	r2, [r7]
 698:Drivers/STM32L4xx_HAL_Driver/Src/stm32l4xx_hal_flash.c ****   /* Check the parameters */
 699:Drivers/STM32L4xx_HAL_Driver/Src/stm32l4xx_hal_flash.c ****   assert_param(IS_FLASH_PROGRAM_ADDRESS(Address));
 700:Drivers/STM32L4xx_HAL_Driver/Src/stm32l4xx_hal_flash.c **** 
 701:Drivers/STM32L4xx_HAL_Driver/Src/stm32l4xx_hal_flash.c ****   /* Set PG bit */
 702:Drivers/STM32L4xx_HAL_Driver/Src/stm32l4xx_hal_flash.c ****   SET_BIT(FLASH->CR, FLASH_CR_PG);
ARM GAS  /tmp/cc9mqueP.s 			page 33


 1149              		.loc 1 702 3
 1150 000c 0E4B     		ldr	r3, .L86
 1151 000e 5B69     		ldr	r3, [r3, #20]
 1152 0010 0D4A     		ldr	r2, .L86
 1153 0012 43F00103 		orr	r3, r3, #1
 1154 0016 5361     		str	r3, [r2, #20]
 703:Drivers/STM32L4xx_HAL_Driver/Src/stm32l4xx_hal_flash.c **** 
 704:Drivers/STM32L4xx_HAL_Driver/Src/stm32l4xx_hal_flash.c ****   /* Program first word */
 705:Drivers/STM32L4xx_HAL_Driver/Src/stm32l4xx_hal_flash.c ****   *(__IO uint32_t*)Address = (uint32_t)Data;
 1155              		.loc 1 705 4
 1156 0018 FB68     		ldr	r3, [r7, #12]
 1157              		.loc 1 705 30
 1158 001a 3A68     		ldr	r2, [r7]
 1159              		.loc 1 705 28
 1160 001c 1A60     		str	r2, [r3]
 1161              	.LBB10:
 1162              	.LBB11:
 1163              		.file 2 "Drivers/CMSIS/Core/Include/cmsis_gcc.h"
   1:Drivers/CMSIS/Core/Include/cmsis_gcc.h **** /**************************************************************************//**
   2:Drivers/CMSIS/Core/Include/cmsis_gcc.h ****  * @file     cmsis_gcc.h
   3:Drivers/CMSIS/Core/Include/cmsis_gcc.h ****  * @brief    CMSIS compiler GCC header file
   4:Drivers/CMSIS/Core/Include/cmsis_gcc.h ****  * @version  V5.2.0
   5:Drivers/CMSIS/Core/Include/cmsis_gcc.h ****  * @date     08. May 2019
   6:Drivers/CMSIS/Core/Include/cmsis_gcc.h ****  ******************************************************************************/
   7:Drivers/CMSIS/Core/Include/cmsis_gcc.h **** /*
   8:Drivers/CMSIS/Core/Include/cmsis_gcc.h ****  * Copyright (c) 2009-2019 Arm Limited. All rights reserved.
   9:Drivers/CMSIS/Core/Include/cmsis_gcc.h ****  *
  10:Drivers/CMSIS/Core/Include/cmsis_gcc.h ****  * SPDX-License-Identifier: Apache-2.0
  11:Drivers/CMSIS/Core/Include/cmsis_gcc.h ****  *
  12:Drivers/CMSIS/Core/Include/cmsis_gcc.h ****  * Licensed under the Apache License, Version 2.0 (the License); you may
  13:Drivers/CMSIS/Core/Include/cmsis_gcc.h ****  * not use this file except in compliance with the License.
  14:Drivers/CMSIS/Core/Include/cmsis_gcc.h ****  * You may obtain a copy of the License at
  15:Drivers/CMSIS/Core/Include/cmsis_gcc.h ****  *
  16:Drivers/CMSIS/Core/Include/cmsis_gcc.h ****  * www.apache.org/licenses/LICENSE-2.0
  17:Drivers/CMSIS/Core/Include/cmsis_gcc.h ****  *
  18:Drivers/CMSIS/Core/Include/cmsis_gcc.h ****  * Unless required by applicable law or agreed to in writing, software
  19:Drivers/CMSIS/Core/Include/cmsis_gcc.h ****  * distributed under the License is distributed on an AS IS BASIS, WITHOUT
  20:Drivers/CMSIS/Core/Include/cmsis_gcc.h ****  * WARRANTIES OR CONDITIONS OF ANY KIND, either express or implied.
  21:Drivers/CMSIS/Core/Include/cmsis_gcc.h ****  * See the License for the specific language governing permissions and
  22:Drivers/CMSIS/Core/Include/cmsis_gcc.h ****  * limitations under the License.
  23:Drivers/CMSIS/Core/Include/cmsis_gcc.h ****  */
  24:Drivers/CMSIS/Core/Include/cmsis_gcc.h **** 
  25:Drivers/CMSIS/Core/Include/cmsis_gcc.h **** #ifndef __CMSIS_GCC_H
  26:Drivers/CMSIS/Core/Include/cmsis_gcc.h **** #define __CMSIS_GCC_H
  27:Drivers/CMSIS/Core/Include/cmsis_gcc.h **** 
  28:Drivers/CMSIS/Core/Include/cmsis_gcc.h **** /* ignore some GCC warnings */
  29:Drivers/CMSIS/Core/Include/cmsis_gcc.h **** #pragma GCC diagnostic push
  30:Drivers/CMSIS/Core/Include/cmsis_gcc.h **** #pragma GCC diagnostic ignored "-Wsign-conversion"
  31:Drivers/CMSIS/Core/Include/cmsis_gcc.h **** #pragma GCC diagnostic ignored "-Wconversion"
  32:Drivers/CMSIS/Core/Include/cmsis_gcc.h **** #pragma GCC diagnostic ignored "-Wunused-parameter"
  33:Drivers/CMSIS/Core/Include/cmsis_gcc.h **** 
  34:Drivers/CMSIS/Core/Include/cmsis_gcc.h **** /* Fallback for __has_builtin */
  35:Drivers/CMSIS/Core/Include/cmsis_gcc.h **** #ifndef __has_builtin
  36:Drivers/CMSIS/Core/Include/cmsis_gcc.h ****   #define __has_builtin(x) (0)
  37:Drivers/CMSIS/Core/Include/cmsis_gcc.h **** #endif
  38:Drivers/CMSIS/Core/Include/cmsis_gcc.h **** 
  39:Drivers/CMSIS/Core/Include/cmsis_gcc.h **** /* CMSIS compiler specific defines */
ARM GAS  /tmp/cc9mqueP.s 			page 34


  40:Drivers/CMSIS/Core/Include/cmsis_gcc.h **** #ifndef   __ASM
  41:Drivers/CMSIS/Core/Include/cmsis_gcc.h ****   #define __ASM                                  __asm
  42:Drivers/CMSIS/Core/Include/cmsis_gcc.h **** #endif
  43:Drivers/CMSIS/Core/Include/cmsis_gcc.h **** #ifndef   __INLINE
  44:Drivers/CMSIS/Core/Include/cmsis_gcc.h ****   #define __INLINE                               inline
  45:Drivers/CMSIS/Core/Include/cmsis_gcc.h **** #endif
  46:Drivers/CMSIS/Core/Include/cmsis_gcc.h **** #ifndef   __STATIC_INLINE
  47:Drivers/CMSIS/Core/Include/cmsis_gcc.h ****   #define __STATIC_INLINE                        static inline
  48:Drivers/CMSIS/Core/Include/cmsis_gcc.h **** #endif
  49:Drivers/CMSIS/Core/Include/cmsis_gcc.h **** #ifndef   __STATIC_FORCEINLINE                 
  50:Drivers/CMSIS/Core/Include/cmsis_gcc.h ****   #define __STATIC_FORCEINLINE                   __attribute__((always_inline)) static inline
  51:Drivers/CMSIS/Core/Include/cmsis_gcc.h **** #endif                                           
  52:Drivers/CMSIS/Core/Include/cmsis_gcc.h **** #ifndef   __NO_RETURN
  53:Drivers/CMSIS/Core/Include/cmsis_gcc.h ****   #define __NO_RETURN                            __attribute__((__noreturn__))
  54:Drivers/CMSIS/Core/Include/cmsis_gcc.h **** #endif
  55:Drivers/CMSIS/Core/Include/cmsis_gcc.h **** #ifndef   __USED
  56:Drivers/CMSIS/Core/Include/cmsis_gcc.h ****   #define __USED                                 __attribute__((used))
  57:Drivers/CMSIS/Core/Include/cmsis_gcc.h **** #endif
  58:Drivers/CMSIS/Core/Include/cmsis_gcc.h **** #ifndef   __WEAK
  59:Drivers/CMSIS/Core/Include/cmsis_gcc.h ****   #define __WEAK                                 __attribute__((weak))
  60:Drivers/CMSIS/Core/Include/cmsis_gcc.h **** #endif
  61:Drivers/CMSIS/Core/Include/cmsis_gcc.h **** #ifndef   __PACKED
  62:Drivers/CMSIS/Core/Include/cmsis_gcc.h ****   #define __PACKED                               __attribute__((packed, aligned(1)))
  63:Drivers/CMSIS/Core/Include/cmsis_gcc.h **** #endif
  64:Drivers/CMSIS/Core/Include/cmsis_gcc.h **** #ifndef   __PACKED_STRUCT
  65:Drivers/CMSIS/Core/Include/cmsis_gcc.h ****   #define __PACKED_STRUCT                        struct __attribute__((packed, aligned(1)))
  66:Drivers/CMSIS/Core/Include/cmsis_gcc.h **** #endif
  67:Drivers/CMSIS/Core/Include/cmsis_gcc.h **** #ifndef   __PACKED_UNION
  68:Drivers/CMSIS/Core/Include/cmsis_gcc.h ****   #define __PACKED_UNION                         union __attribute__((packed, aligned(1)))
  69:Drivers/CMSIS/Core/Include/cmsis_gcc.h **** #endif
  70:Drivers/CMSIS/Core/Include/cmsis_gcc.h **** #ifndef   __UNALIGNED_UINT32        /* deprecated */
  71:Drivers/CMSIS/Core/Include/cmsis_gcc.h ****   #pragma GCC diagnostic push
  72:Drivers/CMSIS/Core/Include/cmsis_gcc.h ****   #pragma GCC diagnostic ignored "-Wpacked"
  73:Drivers/CMSIS/Core/Include/cmsis_gcc.h ****   #pragma GCC diagnostic ignored "-Wattributes"
  74:Drivers/CMSIS/Core/Include/cmsis_gcc.h ****   struct __attribute__((packed)) T_UINT32 { uint32_t v; };
  75:Drivers/CMSIS/Core/Include/cmsis_gcc.h ****   #pragma GCC diagnostic pop
  76:Drivers/CMSIS/Core/Include/cmsis_gcc.h ****   #define __UNALIGNED_UINT32(x)                  (((struct T_UINT32 *)(x))->v)
  77:Drivers/CMSIS/Core/Include/cmsis_gcc.h **** #endif
  78:Drivers/CMSIS/Core/Include/cmsis_gcc.h **** #ifndef   __UNALIGNED_UINT16_WRITE
  79:Drivers/CMSIS/Core/Include/cmsis_gcc.h ****   #pragma GCC diagnostic push
  80:Drivers/CMSIS/Core/Include/cmsis_gcc.h ****   #pragma GCC diagnostic ignored "-Wpacked"
  81:Drivers/CMSIS/Core/Include/cmsis_gcc.h ****   #pragma GCC diagnostic ignored "-Wattributes"
  82:Drivers/CMSIS/Core/Include/cmsis_gcc.h ****   __PACKED_STRUCT T_UINT16_WRITE { uint16_t v; };
  83:Drivers/CMSIS/Core/Include/cmsis_gcc.h ****   #pragma GCC diagnostic pop
  84:Drivers/CMSIS/Core/Include/cmsis_gcc.h ****   #define __UNALIGNED_UINT16_WRITE(addr, val)    (void)((((struct T_UINT16_WRITE *)(void *)(addr))-
  85:Drivers/CMSIS/Core/Include/cmsis_gcc.h **** #endif
  86:Drivers/CMSIS/Core/Include/cmsis_gcc.h **** #ifndef   __UNALIGNED_UINT16_READ
  87:Drivers/CMSIS/Core/Include/cmsis_gcc.h ****   #pragma GCC diagnostic push
  88:Drivers/CMSIS/Core/Include/cmsis_gcc.h ****   #pragma GCC diagnostic ignored "-Wpacked"
  89:Drivers/CMSIS/Core/Include/cmsis_gcc.h ****   #pragma GCC diagnostic ignored "-Wattributes"
  90:Drivers/CMSIS/Core/Include/cmsis_gcc.h ****   __PACKED_STRUCT T_UINT16_READ { uint16_t v; };
  91:Drivers/CMSIS/Core/Include/cmsis_gcc.h ****   #pragma GCC diagnostic pop
  92:Drivers/CMSIS/Core/Include/cmsis_gcc.h ****   #define __UNALIGNED_UINT16_READ(addr)          (((const struct T_UINT16_READ *)(const void *)(add
  93:Drivers/CMSIS/Core/Include/cmsis_gcc.h **** #endif
  94:Drivers/CMSIS/Core/Include/cmsis_gcc.h **** #ifndef   __UNALIGNED_UINT32_WRITE
  95:Drivers/CMSIS/Core/Include/cmsis_gcc.h ****   #pragma GCC diagnostic push
  96:Drivers/CMSIS/Core/Include/cmsis_gcc.h ****   #pragma GCC diagnostic ignored "-Wpacked"
ARM GAS  /tmp/cc9mqueP.s 			page 35


  97:Drivers/CMSIS/Core/Include/cmsis_gcc.h ****   #pragma GCC diagnostic ignored "-Wattributes"
  98:Drivers/CMSIS/Core/Include/cmsis_gcc.h ****   __PACKED_STRUCT T_UINT32_WRITE { uint32_t v; };
  99:Drivers/CMSIS/Core/Include/cmsis_gcc.h ****   #pragma GCC diagnostic pop
 100:Drivers/CMSIS/Core/Include/cmsis_gcc.h ****   #define __UNALIGNED_UINT32_WRITE(addr, val)    (void)((((struct T_UINT32_WRITE *)(void *)(addr))-
 101:Drivers/CMSIS/Core/Include/cmsis_gcc.h **** #endif
 102:Drivers/CMSIS/Core/Include/cmsis_gcc.h **** #ifndef   __UNALIGNED_UINT32_READ
 103:Drivers/CMSIS/Core/Include/cmsis_gcc.h ****   #pragma GCC diagnostic push
 104:Drivers/CMSIS/Core/Include/cmsis_gcc.h ****   #pragma GCC diagnostic ignored "-Wpacked"
 105:Drivers/CMSIS/Core/Include/cmsis_gcc.h ****   #pragma GCC diagnostic ignored "-Wattributes"
 106:Drivers/CMSIS/Core/Include/cmsis_gcc.h ****   __PACKED_STRUCT T_UINT32_READ { uint32_t v; };
 107:Drivers/CMSIS/Core/Include/cmsis_gcc.h ****   #pragma GCC diagnostic pop
 108:Drivers/CMSIS/Core/Include/cmsis_gcc.h ****   #define __UNALIGNED_UINT32_READ(addr)          (((const struct T_UINT32_READ *)(const void *)(add
 109:Drivers/CMSIS/Core/Include/cmsis_gcc.h **** #endif
 110:Drivers/CMSIS/Core/Include/cmsis_gcc.h **** #ifndef   __ALIGNED
 111:Drivers/CMSIS/Core/Include/cmsis_gcc.h ****   #define __ALIGNED(x)                           __attribute__((aligned(x)))
 112:Drivers/CMSIS/Core/Include/cmsis_gcc.h **** #endif
 113:Drivers/CMSIS/Core/Include/cmsis_gcc.h **** #ifndef   __RESTRICT
 114:Drivers/CMSIS/Core/Include/cmsis_gcc.h ****   #define __RESTRICT                             __restrict
 115:Drivers/CMSIS/Core/Include/cmsis_gcc.h **** #endif
 116:Drivers/CMSIS/Core/Include/cmsis_gcc.h **** #ifndef   __COMPILER_BARRIER
 117:Drivers/CMSIS/Core/Include/cmsis_gcc.h ****   #define __COMPILER_BARRIER()                   __ASM volatile("":::"memory")
 118:Drivers/CMSIS/Core/Include/cmsis_gcc.h **** #endif
 119:Drivers/CMSIS/Core/Include/cmsis_gcc.h **** 
 120:Drivers/CMSIS/Core/Include/cmsis_gcc.h **** /* #########################  Startup and Lowlevel Init  ######################## */
 121:Drivers/CMSIS/Core/Include/cmsis_gcc.h **** 
 122:Drivers/CMSIS/Core/Include/cmsis_gcc.h **** #ifndef __PROGRAM_START
 123:Drivers/CMSIS/Core/Include/cmsis_gcc.h **** 
 124:Drivers/CMSIS/Core/Include/cmsis_gcc.h **** /**
 125:Drivers/CMSIS/Core/Include/cmsis_gcc.h ****   \brief   Initializes data and bss sections
 126:Drivers/CMSIS/Core/Include/cmsis_gcc.h ****   \details This default implementations initialized all data and additional bss
 127:Drivers/CMSIS/Core/Include/cmsis_gcc.h ****            sections relying on .copy.table and .zero.table specified properly
 128:Drivers/CMSIS/Core/Include/cmsis_gcc.h ****            in the used linker script.
 129:Drivers/CMSIS/Core/Include/cmsis_gcc.h ****   
 130:Drivers/CMSIS/Core/Include/cmsis_gcc.h ****  */
 131:Drivers/CMSIS/Core/Include/cmsis_gcc.h **** __STATIC_FORCEINLINE __NO_RETURN void __cmsis_start(void)
 132:Drivers/CMSIS/Core/Include/cmsis_gcc.h **** {
 133:Drivers/CMSIS/Core/Include/cmsis_gcc.h ****   extern void _start(void) __NO_RETURN;
 134:Drivers/CMSIS/Core/Include/cmsis_gcc.h ****   
 135:Drivers/CMSIS/Core/Include/cmsis_gcc.h ****   typedef struct {
 136:Drivers/CMSIS/Core/Include/cmsis_gcc.h ****     uint32_t const* src;
 137:Drivers/CMSIS/Core/Include/cmsis_gcc.h ****     uint32_t* dest;
 138:Drivers/CMSIS/Core/Include/cmsis_gcc.h ****     uint32_t  wlen;
 139:Drivers/CMSIS/Core/Include/cmsis_gcc.h ****   } __copy_table_t;
 140:Drivers/CMSIS/Core/Include/cmsis_gcc.h ****   
 141:Drivers/CMSIS/Core/Include/cmsis_gcc.h ****   typedef struct {
 142:Drivers/CMSIS/Core/Include/cmsis_gcc.h ****     uint32_t* dest;
 143:Drivers/CMSIS/Core/Include/cmsis_gcc.h ****     uint32_t  wlen;
 144:Drivers/CMSIS/Core/Include/cmsis_gcc.h ****   } __zero_table_t;
 145:Drivers/CMSIS/Core/Include/cmsis_gcc.h ****   
 146:Drivers/CMSIS/Core/Include/cmsis_gcc.h ****   extern const __copy_table_t __copy_table_start__;
 147:Drivers/CMSIS/Core/Include/cmsis_gcc.h ****   extern const __copy_table_t __copy_table_end__;
 148:Drivers/CMSIS/Core/Include/cmsis_gcc.h ****   extern const __zero_table_t __zero_table_start__;
 149:Drivers/CMSIS/Core/Include/cmsis_gcc.h ****   extern const __zero_table_t __zero_table_end__;
 150:Drivers/CMSIS/Core/Include/cmsis_gcc.h **** 
 151:Drivers/CMSIS/Core/Include/cmsis_gcc.h ****   for (__copy_table_t const* pTable = &__copy_table_start__; pTable < &__copy_table_end__; ++pTable
 152:Drivers/CMSIS/Core/Include/cmsis_gcc.h ****     for(uint32_t i=0u; i<pTable->wlen; ++i) {
 153:Drivers/CMSIS/Core/Include/cmsis_gcc.h ****       pTable->dest[i] = pTable->src[i];
ARM GAS  /tmp/cc9mqueP.s 			page 36


 154:Drivers/CMSIS/Core/Include/cmsis_gcc.h ****     }
 155:Drivers/CMSIS/Core/Include/cmsis_gcc.h ****   }
 156:Drivers/CMSIS/Core/Include/cmsis_gcc.h ****  
 157:Drivers/CMSIS/Core/Include/cmsis_gcc.h ****   for (__zero_table_t const* pTable = &__zero_table_start__; pTable < &__zero_table_end__; ++pTable
 158:Drivers/CMSIS/Core/Include/cmsis_gcc.h ****     for(uint32_t i=0u; i<pTable->wlen; ++i) {
 159:Drivers/CMSIS/Core/Include/cmsis_gcc.h ****       pTable->dest[i] = 0u;
 160:Drivers/CMSIS/Core/Include/cmsis_gcc.h ****     }
 161:Drivers/CMSIS/Core/Include/cmsis_gcc.h ****   }
 162:Drivers/CMSIS/Core/Include/cmsis_gcc.h ****  
 163:Drivers/CMSIS/Core/Include/cmsis_gcc.h ****   _start();
 164:Drivers/CMSIS/Core/Include/cmsis_gcc.h **** }
 165:Drivers/CMSIS/Core/Include/cmsis_gcc.h ****   
 166:Drivers/CMSIS/Core/Include/cmsis_gcc.h **** #define __PROGRAM_START           __cmsis_start
 167:Drivers/CMSIS/Core/Include/cmsis_gcc.h **** #endif
 168:Drivers/CMSIS/Core/Include/cmsis_gcc.h **** 
 169:Drivers/CMSIS/Core/Include/cmsis_gcc.h **** #ifndef __INITIAL_SP
 170:Drivers/CMSIS/Core/Include/cmsis_gcc.h **** #define __INITIAL_SP              __StackTop
 171:Drivers/CMSIS/Core/Include/cmsis_gcc.h **** #endif
 172:Drivers/CMSIS/Core/Include/cmsis_gcc.h **** 
 173:Drivers/CMSIS/Core/Include/cmsis_gcc.h **** #ifndef __STACK_LIMIT
 174:Drivers/CMSIS/Core/Include/cmsis_gcc.h **** #define __STACK_LIMIT             __StackLimit
 175:Drivers/CMSIS/Core/Include/cmsis_gcc.h **** #endif
 176:Drivers/CMSIS/Core/Include/cmsis_gcc.h **** 
 177:Drivers/CMSIS/Core/Include/cmsis_gcc.h **** #ifndef __VECTOR_TABLE
 178:Drivers/CMSIS/Core/Include/cmsis_gcc.h **** #define __VECTOR_TABLE            __Vectors
 179:Drivers/CMSIS/Core/Include/cmsis_gcc.h **** #endif
 180:Drivers/CMSIS/Core/Include/cmsis_gcc.h **** 
 181:Drivers/CMSIS/Core/Include/cmsis_gcc.h **** #ifndef __VECTOR_TABLE_ATTRIBUTE
 182:Drivers/CMSIS/Core/Include/cmsis_gcc.h **** #define __VECTOR_TABLE_ATTRIBUTE  __attribute((used, section(".vectors")))
 183:Drivers/CMSIS/Core/Include/cmsis_gcc.h **** #endif
 184:Drivers/CMSIS/Core/Include/cmsis_gcc.h **** 
 185:Drivers/CMSIS/Core/Include/cmsis_gcc.h **** /* ###########################  Core Function Access  ########################### */
 186:Drivers/CMSIS/Core/Include/cmsis_gcc.h **** /** \ingroup  CMSIS_Core_FunctionInterface
 187:Drivers/CMSIS/Core/Include/cmsis_gcc.h ****     \defgroup CMSIS_Core_RegAccFunctions CMSIS Core Register Access Functions
 188:Drivers/CMSIS/Core/Include/cmsis_gcc.h ****   @{
 189:Drivers/CMSIS/Core/Include/cmsis_gcc.h ****  */
 190:Drivers/CMSIS/Core/Include/cmsis_gcc.h **** 
 191:Drivers/CMSIS/Core/Include/cmsis_gcc.h **** /**
 192:Drivers/CMSIS/Core/Include/cmsis_gcc.h ****   \brief   Enable IRQ Interrupts
 193:Drivers/CMSIS/Core/Include/cmsis_gcc.h ****   \details Enables IRQ interrupts by clearing the I-bit in the CPSR.
 194:Drivers/CMSIS/Core/Include/cmsis_gcc.h ****            Can only be executed in Privileged modes.
 195:Drivers/CMSIS/Core/Include/cmsis_gcc.h ****  */
 196:Drivers/CMSIS/Core/Include/cmsis_gcc.h **** __STATIC_FORCEINLINE void __enable_irq(void)
 197:Drivers/CMSIS/Core/Include/cmsis_gcc.h **** {
 198:Drivers/CMSIS/Core/Include/cmsis_gcc.h ****   __ASM volatile ("cpsie i" : : : "memory");
 199:Drivers/CMSIS/Core/Include/cmsis_gcc.h **** }
 200:Drivers/CMSIS/Core/Include/cmsis_gcc.h **** 
 201:Drivers/CMSIS/Core/Include/cmsis_gcc.h **** 
 202:Drivers/CMSIS/Core/Include/cmsis_gcc.h **** /**
 203:Drivers/CMSIS/Core/Include/cmsis_gcc.h ****   \brief   Disable IRQ Interrupts
 204:Drivers/CMSIS/Core/Include/cmsis_gcc.h ****   \details Disables IRQ interrupts by setting the I-bit in the CPSR.
 205:Drivers/CMSIS/Core/Include/cmsis_gcc.h ****            Can only be executed in Privileged modes.
 206:Drivers/CMSIS/Core/Include/cmsis_gcc.h ****  */
 207:Drivers/CMSIS/Core/Include/cmsis_gcc.h **** __STATIC_FORCEINLINE void __disable_irq(void)
 208:Drivers/CMSIS/Core/Include/cmsis_gcc.h **** {
 209:Drivers/CMSIS/Core/Include/cmsis_gcc.h ****   __ASM volatile ("cpsid i" : : : "memory");
 210:Drivers/CMSIS/Core/Include/cmsis_gcc.h **** }
ARM GAS  /tmp/cc9mqueP.s 			page 37


 211:Drivers/CMSIS/Core/Include/cmsis_gcc.h **** 
 212:Drivers/CMSIS/Core/Include/cmsis_gcc.h **** 
 213:Drivers/CMSIS/Core/Include/cmsis_gcc.h **** /**
 214:Drivers/CMSIS/Core/Include/cmsis_gcc.h ****   \brief   Get Control Register
 215:Drivers/CMSIS/Core/Include/cmsis_gcc.h ****   \details Returns the content of the Control Register.
 216:Drivers/CMSIS/Core/Include/cmsis_gcc.h ****   \return               Control Register value
 217:Drivers/CMSIS/Core/Include/cmsis_gcc.h ****  */
 218:Drivers/CMSIS/Core/Include/cmsis_gcc.h **** __STATIC_FORCEINLINE uint32_t __get_CONTROL(void)
 219:Drivers/CMSIS/Core/Include/cmsis_gcc.h **** {
 220:Drivers/CMSIS/Core/Include/cmsis_gcc.h ****   uint32_t result;
 221:Drivers/CMSIS/Core/Include/cmsis_gcc.h **** 
 222:Drivers/CMSIS/Core/Include/cmsis_gcc.h ****   __ASM volatile ("MRS %0, control" : "=r" (result) );
 223:Drivers/CMSIS/Core/Include/cmsis_gcc.h ****   return(result);
 224:Drivers/CMSIS/Core/Include/cmsis_gcc.h **** }
 225:Drivers/CMSIS/Core/Include/cmsis_gcc.h **** 
 226:Drivers/CMSIS/Core/Include/cmsis_gcc.h **** 
 227:Drivers/CMSIS/Core/Include/cmsis_gcc.h **** #if (defined (__ARM_FEATURE_CMSE ) && (__ARM_FEATURE_CMSE == 3))
 228:Drivers/CMSIS/Core/Include/cmsis_gcc.h **** /**
 229:Drivers/CMSIS/Core/Include/cmsis_gcc.h ****   \brief   Get Control Register (non-secure)
 230:Drivers/CMSIS/Core/Include/cmsis_gcc.h ****   \details Returns the content of the non-secure Control Register when in secure mode.
 231:Drivers/CMSIS/Core/Include/cmsis_gcc.h ****   \return               non-secure Control Register value
 232:Drivers/CMSIS/Core/Include/cmsis_gcc.h ****  */
 233:Drivers/CMSIS/Core/Include/cmsis_gcc.h **** __STATIC_FORCEINLINE uint32_t __TZ_get_CONTROL_NS(void)
 234:Drivers/CMSIS/Core/Include/cmsis_gcc.h **** {
 235:Drivers/CMSIS/Core/Include/cmsis_gcc.h ****   uint32_t result;
 236:Drivers/CMSIS/Core/Include/cmsis_gcc.h **** 
 237:Drivers/CMSIS/Core/Include/cmsis_gcc.h ****   __ASM volatile ("MRS %0, control_ns" : "=r" (result) );
 238:Drivers/CMSIS/Core/Include/cmsis_gcc.h ****   return(result);
 239:Drivers/CMSIS/Core/Include/cmsis_gcc.h **** }
 240:Drivers/CMSIS/Core/Include/cmsis_gcc.h **** #endif
 241:Drivers/CMSIS/Core/Include/cmsis_gcc.h **** 
 242:Drivers/CMSIS/Core/Include/cmsis_gcc.h **** 
 243:Drivers/CMSIS/Core/Include/cmsis_gcc.h **** /**
 244:Drivers/CMSIS/Core/Include/cmsis_gcc.h ****   \brief   Set Control Register
 245:Drivers/CMSIS/Core/Include/cmsis_gcc.h ****   \details Writes the given value to the Control Register.
 246:Drivers/CMSIS/Core/Include/cmsis_gcc.h ****   \param [in]    control  Control Register value to set
 247:Drivers/CMSIS/Core/Include/cmsis_gcc.h ****  */
 248:Drivers/CMSIS/Core/Include/cmsis_gcc.h **** __STATIC_FORCEINLINE void __set_CONTROL(uint32_t control)
 249:Drivers/CMSIS/Core/Include/cmsis_gcc.h **** {
 250:Drivers/CMSIS/Core/Include/cmsis_gcc.h ****   __ASM volatile ("MSR control, %0" : : "r" (control) : "memory");
 251:Drivers/CMSIS/Core/Include/cmsis_gcc.h **** }
 252:Drivers/CMSIS/Core/Include/cmsis_gcc.h **** 
 253:Drivers/CMSIS/Core/Include/cmsis_gcc.h **** 
 254:Drivers/CMSIS/Core/Include/cmsis_gcc.h **** #if (defined (__ARM_FEATURE_CMSE ) && (__ARM_FEATURE_CMSE == 3))
 255:Drivers/CMSIS/Core/Include/cmsis_gcc.h **** /**
 256:Drivers/CMSIS/Core/Include/cmsis_gcc.h ****   \brief   Set Control Register (non-secure)
 257:Drivers/CMSIS/Core/Include/cmsis_gcc.h ****   \details Writes the given value to the non-secure Control Register when in secure state.
 258:Drivers/CMSIS/Core/Include/cmsis_gcc.h ****   \param [in]    control  Control Register value to set
 259:Drivers/CMSIS/Core/Include/cmsis_gcc.h ****  */
 260:Drivers/CMSIS/Core/Include/cmsis_gcc.h **** __STATIC_FORCEINLINE void __TZ_set_CONTROL_NS(uint32_t control)
 261:Drivers/CMSIS/Core/Include/cmsis_gcc.h **** {
 262:Drivers/CMSIS/Core/Include/cmsis_gcc.h ****   __ASM volatile ("MSR control_ns, %0" : : "r" (control) : "memory");
 263:Drivers/CMSIS/Core/Include/cmsis_gcc.h **** }
 264:Drivers/CMSIS/Core/Include/cmsis_gcc.h **** #endif
 265:Drivers/CMSIS/Core/Include/cmsis_gcc.h **** 
 266:Drivers/CMSIS/Core/Include/cmsis_gcc.h **** 
 267:Drivers/CMSIS/Core/Include/cmsis_gcc.h **** /**
ARM GAS  /tmp/cc9mqueP.s 			page 38


 268:Drivers/CMSIS/Core/Include/cmsis_gcc.h ****   \brief   Get IPSR Register
 269:Drivers/CMSIS/Core/Include/cmsis_gcc.h ****   \details Returns the content of the IPSR Register.
 270:Drivers/CMSIS/Core/Include/cmsis_gcc.h ****   \return               IPSR Register value
 271:Drivers/CMSIS/Core/Include/cmsis_gcc.h ****  */
 272:Drivers/CMSIS/Core/Include/cmsis_gcc.h **** __STATIC_FORCEINLINE uint32_t __get_IPSR(void)
 273:Drivers/CMSIS/Core/Include/cmsis_gcc.h **** {
 274:Drivers/CMSIS/Core/Include/cmsis_gcc.h ****   uint32_t result;
 275:Drivers/CMSIS/Core/Include/cmsis_gcc.h **** 
 276:Drivers/CMSIS/Core/Include/cmsis_gcc.h ****   __ASM volatile ("MRS %0, ipsr" : "=r" (result) );
 277:Drivers/CMSIS/Core/Include/cmsis_gcc.h ****   return(result);
 278:Drivers/CMSIS/Core/Include/cmsis_gcc.h **** }
 279:Drivers/CMSIS/Core/Include/cmsis_gcc.h **** 
 280:Drivers/CMSIS/Core/Include/cmsis_gcc.h **** 
 281:Drivers/CMSIS/Core/Include/cmsis_gcc.h **** /**
 282:Drivers/CMSIS/Core/Include/cmsis_gcc.h ****   \brief   Get APSR Register
 283:Drivers/CMSIS/Core/Include/cmsis_gcc.h ****   \details Returns the content of the APSR Register.
 284:Drivers/CMSIS/Core/Include/cmsis_gcc.h ****   \return               APSR Register value
 285:Drivers/CMSIS/Core/Include/cmsis_gcc.h ****  */
 286:Drivers/CMSIS/Core/Include/cmsis_gcc.h **** __STATIC_FORCEINLINE uint32_t __get_APSR(void)
 287:Drivers/CMSIS/Core/Include/cmsis_gcc.h **** {
 288:Drivers/CMSIS/Core/Include/cmsis_gcc.h ****   uint32_t result;
 289:Drivers/CMSIS/Core/Include/cmsis_gcc.h **** 
 290:Drivers/CMSIS/Core/Include/cmsis_gcc.h ****   __ASM volatile ("MRS %0, apsr" : "=r" (result) );
 291:Drivers/CMSIS/Core/Include/cmsis_gcc.h ****   return(result);
 292:Drivers/CMSIS/Core/Include/cmsis_gcc.h **** }
 293:Drivers/CMSIS/Core/Include/cmsis_gcc.h **** 
 294:Drivers/CMSIS/Core/Include/cmsis_gcc.h **** 
 295:Drivers/CMSIS/Core/Include/cmsis_gcc.h **** /**
 296:Drivers/CMSIS/Core/Include/cmsis_gcc.h ****   \brief   Get xPSR Register
 297:Drivers/CMSIS/Core/Include/cmsis_gcc.h ****   \details Returns the content of the xPSR Register.
 298:Drivers/CMSIS/Core/Include/cmsis_gcc.h ****   \return               xPSR Register value
 299:Drivers/CMSIS/Core/Include/cmsis_gcc.h ****  */
 300:Drivers/CMSIS/Core/Include/cmsis_gcc.h **** __STATIC_FORCEINLINE uint32_t __get_xPSR(void)
 301:Drivers/CMSIS/Core/Include/cmsis_gcc.h **** {
 302:Drivers/CMSIS/Core/Include/cmsis_gcc.h ****   uint32_t result;
 303:Drivers/CMSIS/Core/Include/cmsis_gcc.h **** 
 304:Drivers/CMSIS/Core/Include/cmsis_gcc.h ****   __ASM volatile ("MRS %0, xpsr" : "=r" (result) );
 305:Drivers/CMSIS/Core/Include/cmsis_gcc.h ****   return(result);
 306:Drivers/CMSIS/Core/Include/cmsis_gcc.h **** }
 307:Drivers/CMSIS/Core/Include/cmsis_gcc.h **** 
 308:Drivers/CMSIS/Core/Include/cmsis_gcc.h **** 
 309:Drivers/CMSIS/Core/Include/cmsis_gcc.h **** /**
 310:Drivers/CMSIS/Core/Include/cmsis_gcc.h ****   \brief   Get Process Stack Pointer
 311:Drivers/CMSIS/Core/Include/cmsis_gcc.h ****   \details Returns the current value of the Process Stack Pointer (PSP).
 312:Drivers/CMSIS/Core/Include/cmsis_gcc.h ****   \return               PSP Register value
 313:Drivers/CMSIS/Core/Include/cmsis_gcc.h ****  */
 314:Drivers/CMSIS/Core/Include/cmsis_gcc.h **** __STATIC_FORCEINLINE uint32_t __get_PSP(void)
 315:Drivers/CMSIS/Core/Include/cmsis_gcc.h **** {
 316:Drivers/CMSIS/Core/Include/cmsis_gcc.h ****   uint32_t result;
 317:Drivers/CMSIS/Core/Include/cmsis_gcc.h **** 
 318:Drivers/CMSIS/Core/Include/cmsis_gcc.h ****   __ASM volatile ("MRS %0, psp"  : "=r" (result) );
 319:Drivers/CMSIS/Core/Include/cmsis_gcc.h ****   return(result);
 320:Drivers/CMSIS/Core/Include/cmsis_gcc.h **** }
 321:Drivers/CMSIS/Core/Include/cmsis_gcc.h **** 
 322:Drivers/CMSIS/Core/Include/cmsis_gcc.h **** 
 323:Drivers/CMSIS/Core/Include/cmsis_gcc.h **** #if (defined (__ARM_FEATURE_CMSE ) && (__ARM_FEATURE_CMSE == 3))
 324:Drivers/CMSIS/Core/Include/cmsis_gcc.h **** /**
ARM GAS  /tmp/cc9mqueP.s 			page 39


 325:Drivers/CMSIS/Core/Include/cmsis_gcc.h ****   \brief   Get Process Stack Pointer (non-secure)
 326:Drivers/CMSIS/Core/Include/cmsis_gcc.h ****   \details Returns the current value of the non-secure Process Stack Pointer (PSP) when in secure s
 327:Drivers/CMSIS/Core/Include/cmsis_gcc.h ****   \return               PSP Register value
 328:Drivers/CMSIS/Core/Include/cmsis_gcc.h ****  */
 329:Drivers/CMSIS/Core/Include/cmsis_gcc.h **** __STATIC_FORCEINLINE uint32_t __TZ_get_PSP_NS(void)
 330:Drivers/CMSIS/Core/Include/cmsis_gcc.h **** {
 331:Drivers/CMSIS/Core/Include/cmsis_gcc.h ****   uint32_t result;
 332:Drivers/CMSIS/Core/Include/cmsis_gcc.h **** 
 333:Drivers/CMSIS/Core/Include/cmsis_gcc.h ****   __ASM volatile ("MRS %0, psp_ns"  : "=r" (result) );
 334:Drivers/CMSIS/Core/Include/cmsis_gcc.h ****   return(result);
 335:Drivers/CMSIS/Core/Include/cmsis_gcc.h **** }
 336:Drivers/CMSIS/Core/Include/cmsis_gcc.h **** #endif
 337:Drivers/CMSIS/Core/Include/cmsis_gcc.h **** 
 338:Drivers/CMSIS/Core/Include/cmsis_gcc.h **** 
 339:Drivers/CMSIS/Core/Include/cmsis_gcc.h **** /**
 340:Drivers/CMSIS/Core/Include/cmsis_gcc.h ****   \brief   Set Process Stack Pointer
 341:Drivers/CMSIS/Core/Include/cmsis_gcc.h ****   \details Assigns the given value to the Process Stack Pointer (PSP).
 342:Drivers/CMSIS/Core/Include/cmsis_gcc.h ****   \param [in]    topOfProcStack  Process Stack Pointer value to set
 343:Drivers/CMSIS/Core/Include/cmsis_gcc.h ****  */
 344:Drivers/CMSIS/Core/Include/cmsis_gcc.h **** __STATIC_FORCEINLINE void __set_PSP(uint32_t topOfProcStack)
 345:Drivers/CMSIS/Core/Include/cmsis_gcc.h **** {
 346:Drivers/CMSIS/Core/Include/cmsis_gcc.h ****   __ASM volatile ("MSR psp, %0" : : "r" (topOfProcStack) : );
 347:Drivers/CMSIS/Core/Include/cmsis_gcc.h **** }
 348:Drivers/CMSIS/Core/Include/cmsis_gcc.h **** 
 349:Drivers/CMSIS/Core/Include/cmsis_gcc.h **** 
 350:Drivers/CMSIS/Core/Include/cmsis_gcc.h **** #if (defined (__ARM_FEATURE_CMSE ) && (__ARM_FEATURE_CMSE == 3))
 351:Drivers/CMSIS/Core/Include/cmsis_gcc.h **** /**
 352:Drivers/CMSIS/Core/Include/cmsis_gcc.h ****   \brief   Set Process Stack Pointer (non-secure)
 353:Drivers/CMSIS/Core/Include/cmsis_gcc.h ****   \details Assigns the given value to the non-secure Process Stack Pointer (PSP) when in secure sta
 354:Drivers/CMSIS/Core/Include/cmsis_gcc.h ****   \param [in]    topOfProcStack  Process Stack Pointer value to set
 355:Drivers/CMSIS/Core/Include/cmsis_gcc.h ****  */
 356:Drivers/CMSIS/Core/Include/cmsis_gcc.h **** __STATIC_FORCEINLINE void __TZ_set_PSP_NS(uint32_t topOfProcStack)
 357:Drivers/CMSIS/Core/Include/cmsis_gcc.h **** {
 358:Drivers/CMSIS/Core/Include/cmsis_gcc.h ****   __ASM volatile ("MSR psp_ns, %0" : : "r" (topOfProcStack) : );
 359:Drivers/CMSIS/Core/Include/cmsis_gcc.h **** }
 360:Drivers/CMSIS/Core/Include/cmsis_gcc.h **** #endif
 361:Drivers/CMSIS/Core/Include/cmsis_gcc.h **** 
 362:Drivers/CMSIS/Core/Include/cmsis_gcc.h **** 
 363:Drivers/CMSIS/Core/Include/cmsis_gcc.h **** /**
 364:Drivers/CMSIS/Core/Include/cmsis_gcc.h ****   \brief   Get Main Stack Pointer
 365:Drivers/CMSIS/Core/Include/cmsis_gcc.h ****   \details Returns the current value of the Main Stack Pointer (MSP).
 366:Drivers/CMSIS/Core/Include/cmsis_gcc.h ****   \return               MSP Register value
 367:Drivers/CMSIS/Core/Include/cmsis_gcc.h ****  */
 368:Drivers/CMSIS/Core/Include/cmsis_gcc.h **** __STATIC_FORCEINLINE uint32_t __get_MSP(void)
 369:Drivers/CMSIS/Core/Include/cmsis_gcc.h **** {
 370:Drivers/CMSIS/Core/Include/cmsis_gcc.h ****   uint32_t result;
 371:Drivers/CMSIS/Core/Include/cmsis_gcc.h **** 
 372:Drivers/CMSIS/Core/Include/cmsis_gcc.h ****   __ASM volatile ("MRS %0, msp" : "=r" (result) );
 373:Drivers/CMSIS/Core/Include/cmsis_gcc.h ****   return(result);
 374:Drivers/CMSIS/Core/Include/cmsis_gcc.h **** }
 375:Drivers/CMSIS/Core/Include/cmsis_gcc.h **** 
 376:Drivers/CMSIS/Core/Include/cmsis_gcc.h **** 
 377:Drivers/CMSIS/Core/Include/cmsis_gcc.h **** #if (defined (__ARM_FEATURE_CMSE ) && (__ARM_FEATURE_CMSE == 3))
 378:Drivers/CMSIS/Core/Include/cmsis_gcc.h **** /**
 379:Drivers/CMSIS/Core/Include/cmsis_gcc.h ****   \brief   Get Main Stack Pointer (non-secure)
 380:Drivers/CMSIS/Core/Include/cmsis_gcc.h ****   \details Returns the current value of the non-secure Main Stack Pointer (MSP) when in secure stat
 381:Drivers/CMSIS/Core/Include/cmsis_gcc.h ****   \return               MSP Register value
ARM GAS  /tmp/cc9mqueP.s 			page 40


 382:Drivers/CMSIS/Core/Include/cmsis_gcc.h ****  */
 383:Drivers/CMSIS/Core/Include/cmsis_gcc.h **** __STATIC_FORCEINLINE uint32_t __TZ_get_MSP_NS(void)
 384:Drivers/CMSIS/Core/Include/cmsis_gcc.h **** {
 385:Drivers/CMSIS/Core/Include/cmsis_gcc.h ****   uint32_t result;
 386:Drivers/CMSIS/Core/Include/cmsis_gcc.h **** 
 387:Drivers/CMSIS/Core/Include/cmsis_gcc.h ****   __ASM volatile ("MRS %0, msp_ns" : "=r" (result) );
 388:Drivers/CMSIS/Core/Include/cmsis_gcc.h ****   return(result);
 389:Drivers/CMSIS/Core/Include/cmsis_gcc.h **** }
 390:Drivers/CMSIS/Core/Include/cmsis_gcc.h **** #endif
 391:Drivers/CMSIS/Core/Include/cmsis_gcc.h **** 
 392:Drivers/CMSIS/Core/Include/cmsis_gcc.h **** 
 393:Drivers/CMSIS/Core/Include/cmsis_gcc.h **** /**
 394:Drivers/CMSIS/Core/Include/cmsis_gcc.h ****   \brief   Set Main Stack Pointer
 395:Drivers/CMSIS/Core/Include/cmsis_gcc.h ****   \details Assigns the given value to the Main Stack Pointer (MSP).
 396:Drivers/CMSIS/Core/Include/cmsis_gcc.h ****   \param [in]    topOfMainStack  Main Stack Pointer value to set
 397:Drivers/CMSIS/Core/Include/cmsis_gcc.h ****  */
 398:Drivers/CMSIS/Core/Include/cmsis_gcc.h **** __STATIC_FORCEINLINE void __set_MSP(uint32_t topOfMainStack)
 399:Drivers/CMSIS/Core/Include/cmsis_gcc.h **** {
 400:Drivers/CMSIS/Core/Include/cmsis_gcc.h ****   __ASM volatile ("MSR msp, %0" : : "r" (topOfMainStack) : );
 401:Drivers/CMSIS/Core/Include/cmsis_gcc.h **** }
 402:Drivers/CMSIS/Core/Include/cmsis_gcc.h **** 
 403:Drivers/CMSIS/Core/Include/cmsis_gcc.h **** 
 404:Drivers/CMSIS/Core/Include/cmsis_gcc.h **** #if (defined (__ARM_FEATURE_CMSE ) && (__ARM_FEATURE_CMSE == 3))
 405:Drivers/CMSIS/Core/Include/cmsis_gcc.h **** /**
 406:Drivers/CMSIS/Core/Include/cmsis_gcc.h ****   \brief   Set Main Stack Pointer (non-secure)
 407:Drivers/CMSIS/Core/Include/cmsis_gcc.h ****   \details Assigns the given value to the non-secure Main Stack Pointer (MSP) when in secure state.
 408:Drivers/CMSIS/Core/Include/cmsis_gcc.h ****   \param [in]    topOfMainStack  Main Stack Pointer value to set
 409:Drivers/CMSIS/Core/Include/cmsis_gcc.h ****  */
 410:Drivers/CMSIS/Core/Include/cmsis_gcc.h **** __STATIC_FORCEINLINE void __TZ_set_MSP_NS(uint32_t topOfMainStack)
 411:Drivers/CMSIS/Core/Include/cmsis_gcc.h **** {
 412:Drivers/CMSIS/Core/Include/cmsis_gcc.h ****   __ASM volatile ("MSR msp_ns, %0" : : "r" (topOfMainStack) : );
 413:Drivers/CMSIS/Core/Include/cmsis_gcc.h **** }
 414:Drivers/CMSIS/Core/Include/cmsis_gcc.h **** #endif
 415:Drivers/CMSIS/Core/Include/cmsis_gcc.h **** 
 416:Drivers/CMSIS/Core/Include/cmsis_gcc.h **** 
 417:Drivers/CMSIS/Core/Include/cmsis_gcc.h **** #if (defined (__ARM_FEATURE_CMSE ) && (__ARM_FEATURE_CMSE == 3))
 418:Drivers/CMSIS/Core/Include/cmsis_gcc.h **** /**
 419:Drivers/CMSIS/Core/Include/cmsis_gcc.h ****   \brief   Get Stack Pointer (non-secure)
 420:Drivers/CMSIS/Core/Include/cmsis_gcc.h ****   \details Returns the current value of the non-secure Stack Pointer (SP) when in secure state.
 421:Drivers/CMSIS/Core/Include/cmsis_gcc.h ****   \return               SP Register value
 422:Drivers/CMSIS/Core/Include/cmsis_gcc.h ****  */
 423:Drivers/CMSIS/Core/Include/cmsis_gcc.h **** __STATIC_FORCEINLINE uint32_t __TZ_get_SP_NS(void)
 424:Drivers/CMSIS/Core/Include/cmsis_gcc.h **** {
 425:Drivers/CMSIS/Core/Include/cmsis_gcc.h ****   uint32_t result;
 426:Drivers/CMSIS/Core/Include/cmsis_gcc.h **** 
 427:Drivers/CMSIS/Core/Include/cmsis_gcc.h ****   __ASM volatile ("MRS %0, sp_ns" : "=r" (result) );
 428:Drivers/CMSIS/Core/Include/cmsis_gcc.h ****   return(result);
 429:Drivers/CMSIS/Core/Include/cmsis_gcc.h **** }
 430:Drivers/CMSIS/Core/Include/cmsis_gcc.h **** 
 431:Drivers/CMSIS/Core/Include/cmsis_gcc.h **** 
 432:Drivers/CMSIS/Core/Include/cmsis_gcc.h **** /**
 433:Drivers/CMSIS/Core/Include/cmsis_gcc.h ****   \brief   Set Stack Pointer (non-secure)
 434:Drivers/CMSIS/Core/Include/cmsis_gcc.h ****   \details Assigns the given value to the non-secure Stack Pointer (SP) when in secure state.
 435:Drivers/CMSIS/Core/Include/cmsis_gcc.h ****   \param [in]    topOfStack  Stack Pointer value to set
 436:Drivers/CMSIS/Core/Include/cmsis_gcc.h ****  */
 437:Drivers/CMSIS/Core/Include/cmsis_gcc.h **** __STATIC_FORCEINLINE void __TZ_set_SP_NS(uint32_t topOfStack)
 438:Drivers/CMSIS/Core/Include/cmsis_gcc.h **** {
ARM GAS  /tmp/cc9mqueP.s 			page 41


 439:Drivers/CMSIS/Core/Include/cmsis_gcc.h ****   __ASM volatile ("MSR sp_ns, %0" : : "r" (topOfStack) : );
 440:Drivers/CMSIS/Core/Include/cmsis_gcc.h **** }
 441:Drivers/CMSIS/Core/Include/cmsis_gcc.h **** #endif
 442:Drivers/CMSIS/Core/Include/cmsis_gcc.h **** 
 443:Drivers/CMSIS/Core/Include/cmsis_gcc.h **** 
 444:Drivers/CMSIS/Core/Include/cmsis_gcc.h **** /**
 445:Drivers/CMSIS/Core/Include/cmsis_gcc.h ****   \brief   Get Priority Mask
 446:Drivers/CMSIS/Core/Include/cmsis_gcc.h ****   \details Returns the current state of the priority mask bit from the Priority Mask Register.
 447:Drivers/CMSIS/Core/Include/cmsis_gcc.h ****   \return               Priority Mask value
 448:Drivers/CMSIS/Core/Include/cmsis_gcc.h ****  */
 449:Drivers/CMSIS/Core/Include/cmsis_gcc.h **** __STATIC_FORCEINLINE uint32_t __get_PRIMASK(void)
 450:Drivers/CMSIS/Core/Include/cmsis_gcc.h **** {
 451:Drivers/CMSIS/Core/Include/cmsis_gcc.h ****   uint32_t result;
 452:Drivers/CMSIS/Core/Include/cmsis_gcc.h **** 
 453:Drivers/CMSIS/Core/Include/cmsis_gcc.h ****   __ASM volatile ("MRS %0, primask" : "=r" (result) :: "memory");
 454:Drivers/CMSIS/Core/Include/cmsis_gcc.h ****   return(result);
 455:Drivers/CMSIS/Core/Include/cmsis_gcc.h **** }
 456:Drivers/CMSIS/Core/Include/cmsis_gcc.h **** 
 457:Drivers/CMSIS/Core/Include/cmsis_gcc.h **** 
 458:Drivers/CMSIS/Core/Include/cmsis_gcc.h **** #if (defined (__ARM_FEATURE_CMSE ) && (__ARM_FEATURE_CMSE == 3))
 459:Drivers/CMSIS/Core/Include/cmsis_gcc.h **** /**
 460:Drivers/CMSIS/Core/Include/cmsis_gcc.h ****   \brief   Get Priority Mask (non-secure)
 461:Drivers/CMSIS/Core/Include/cmsis_gcc.h ****   \details Returns the current state of the non-secure priority mask bit from the Priority Mask Reg
 462:Drivers/CMSIS/Core/Include/cmsis_gcc.h ****   \return               Priority Mask value
 463:Drivers/CMSIS/Core/Include/cmsis_gcc.h ****  */
 464:Drivers/CMSIS/Core/Include/cmsis_gcc.h **** __STATIC_FORCEINLINE uint32_t __TZ_get_PRIMASK_NS(void)
 465:Drivers/CMSIS/Core/Include/cmsis_gcc.h **** {
 466:Drivers/CMSIS/Core/Include/cmsis_gcc.h ****   uint32_t result;
 467:Drivers/CMSIS/Core/Include/cmsis_gcc.h **** 
 468:Drivers/CMSIS/Core/Include/cmsis_gcc.h ****   __ASM volatile ("MRS %0, primask_ns" : "=r" (result) :: "memory");
 469:Drivers/CMSIS/Core/Include/cmsis_gcc.h ****   return(result);
 470:Drivers/CMSIS/Core/Include/cmsis_gcc.h **** }
 471:Drivers/CMSIS/Core/Include/cmsis_gcc.h **** #endif
 472:Drivers/CMSIS/Core/Include/cmsis_gcc.h **** 
 473:Drivers/CMSIS/Core/Include/cmsis_gcc.h **** 
 474:Drivers/CMSIS/Core/Include/cmsis_gcc.h **** /**
 475:Drivers/CMSIS/Core/Include/cmsis_gcc.h ****   \brief   Set Priority Mask
 476:Drivers/CMSIS/Core/Include/cmsis_gcc.h ****   \details Assigns the given value to the Priority Mask Register.
 477:Drivers/CMSIS/Core/Include/cmsis_gcc.h ****   \param [in]    priMask  Priority Mask
 478:Drivers/CMSIS/Core/Include/cmsis_gcc.h ****  */
 479:Drivers/CMSIS/Core/Include/cmsis_gcc.h **** __STATIC_FORCEINLINE void __set_PRIMASK(uint32_t priMask)
 480:Drivers/CMSIS/Core/Include/cmsis_gcc.h **** {
 481:Drivers/CMSIS/Core/Include/cmsis_gcc.h ****   __ASM volatile ("MSR primask, %0" : : "r" (priMask) : "memory");
 482:Drivers/CMSIS/Core/Include/cmsis_gcc.h **** }
 483:Drivers/CMSIS/Core/Include/cmsis_gcc.h **** 
 484:Drivers/CMSIS/Core/Include/cmsis_gcc.h **** 
 485:Drivers/CMSIS/Core/Include/cmsis_gcc.h **** #if (defined (__ARM_FEATURE_CMSE ) && (__ARM_FEATURE_CMSE == 3))
 486:Drivers/CMSIS/Core/Include/cmsis_gcc.h **** /**
 487:Drivers/CMSIS/Core/Include/cmsis_gcc.h ****   \brief   Set Priority Mask (non-secure)
 488:Drivers/CMSIS/Core/Include/cmsis_gcc.h ****   \details Assigns the given value to the non-secure Priority Mask Register when in secure state.
 489:Drivers/CMSIS/Core/Include/cmsis_gcc.h ****   \param [in]    priMask  Priority Mask
 490:Drivers/CMSIS/Core/Include/cmsis_gcc.h ****  */
 491:Drivers/CMSIS/Core/Include/cmsis_gcc.h **** __STATIC_FORCEINLINE void __TZ_set_PRIMASK_NS(uint32_t priMask)
 492:Drivers/CMSIS/Core/Include/cmsis_gcc.h **** {
 493:Drivers/CMSIS/Core/Include/cmsis_gcc.h ****   __ASM volatile ("MSR primask_ns, %0" : : "r" (priMask) : "memory");
 494:Drivers/CMSIS/Core/Include/cmsis_gcc.h **** }
 495:Drivers/CMSIS/Core/Include/cmsis_gcc.h **** #endif
ARM GAS  /tmp/cc9mqueP.s 			page 42


 496:Drivers/CMSIS/Core/Include/cmsis_gcc.h **** 
 497:Drivers/CMSIS/Core/Include/cmsis_gcc.h **** 
 498:Drivers/CMSIS/Core/Include/cmsis_gcc.h **** #if ((defined (__ARM_ARCH_7M__      ) && (__ARM_ARCH_7M__      == 1)) || \
 499:Drivers/CMSIS/Core/Include/cmsis_gcc.h ****      (defined (__ARM_ARCH_7EM__     ) && (__ARM_ARCH_7EM__     == 1)) || \
 500:Drivers/CMSIS/Core/Include/cmsis_gcc.h ****      (defined (__ARM_ARCH_8M_MAIN__ ) && (__ARM_ARCH_8M_MAIN__ == 1))    )
 501:Drivers/CMSIS/Core/Include/cmsis_gcc.h **** /**
 502:Drivers/CMSIS/Core/Include/cmsis_gcc.h ****   \brief   Enable FIQ
 503:Drivers/CMSIS/Core/Include/cmsis_gcc.h ****   \details Enables FIQ interrupts by clearing the F-bit in the CPSR.
 504:Drivers/CMSIS/Core/Include/cmsis_gcc.h ****            Can only be executed in Privileged modes.
 505:Drivers/CMSIS/Core/Include/cmsis_gcc.h ****  */
 506:Drivers/CMSIS/Core/Include/cmsis_gcc.h **** __STATIC_FORCEINLINE void __enable_fault_irq(void)
 507:Drivers/CMSIS/Core/Include/cmsis_gcc.h **** {
 508:Drivers/CMSIS/Core/Include/cmsis_gcc.h ****   __ASM volatile ("cpsie f" : : : "memory");
 509:Drivers/CMSIS/Core/Include/cmsis_gcc.h **** }
 510:Drivers/CMSIS/Core/Include/cmsis_gcc.h **** 
 511:Drivers/CMSIS/Core/Include/cmsis_gcc.h **** 
 512:Drivers/CMSIS/Core/Include/cmsis_gcc.h **** /**
 513:Drivers/CMSIS/Core/Include/cmsis_gcc.h ****   \brief   Disable FIQ
 514:Drivers/CMSIS/Core/Include/cmsis_gcc.h ****   \details Disables FIQ interrupts by setting the F-bit in the CPSR.
 515:Drivers/CMSIS/Core/Include/cmsis_gcc.h ****            Can only be executed in Privileged modes.
 516:Drivers/CMSIS/Core/Include/cmsis_gcc.h ****  */
 517:Drivers/CMSIS/Core/Include/cmsis_gcc.h **** __STATIC_FORCEINLINE void __disable_fault_irq(void)
 518:Drivers/CMSIS/Core/Include/cmsis_gcc.h **** {
 519:Drivers/CMSIS/Core/Include/cmsis_gcc.h ****   __ASM volatile ("cpsid f" : : : "memory");
 520:Drivers/CMSIS/Core/Include/cmsis_gcc.h **** }
 521:Drivers/CMSIS/Core/Include/cmsis_gcc.h **** 
 522:Drivers/CMSIS/Core/Include/cmsis_gcc.h **** 
 523:Drivers/CMSIS/Core/Include/cmsis_gcc.h **** /**
 524:Drivers/CMSIS/Core/Include/cmsis_gcc.h ****   \brief   Get Base Priority
 525:Drivers/CMSIS/Core/Include/cmsis_gcc.h ****   \details Returns the current value of the Base Priority register.
 526:Drivers/CMSIS/Core/Include/cmsis_gcc.h ****   \return               Base Priority register value
 527:Drivers/CMSIS/Core/Include/cmsis_gcc.h ****  */
 528:Drivers/CMSIS/Core/Include/cmsis_gcc.h **** __STATIC_FORCEINLINE uint32_t __get_BASEPRI(void)
 529:Drivers/CMSIS/Core/Include/cmsis_gcc.h **** {
 530:Drivers/CMSIS/Core/Include/cmsis_gcc.h ****   uint32_t result;
 531:Drivers/CMSIS/Core/Include/cmsis_gcc.h **** 
 532:Drivers/CMSIS/Core/Include/cmsis_gcc.h ****   __ASM volatile ("MRS %0, basepri" : "=r" (result) );
 533:Drivers/CMSIS/Core/Include/cmsis_gcc.h ****   return(result);
 534:Drivers/CMSIS/Core/Include/cmsis_gcc.h **** }
 535:Drivers/CMSIS/Core/Include/cmsis_gcc.h **** 
 536:Drivers/CMSIS/Core/Include/cmsis_gcc.h **** 
 537:Drivers/CMSIS/Core/Include/cmsis_gcc.h **** #if (defined (__ARM_FEATURE_CMSE ) && (__ARM_FEATURE_CMSE == 3))
 538:Drivers/CMSIS/Core/Include/cmsis_gcc.h **** /**
 539:Drivers/CMSIS/Core/Include/cmsis_gcc.h ****   \brief   Get Base Priority (non-secure)
 540:Drivers/CMSIS/Core/Include/cmsis_gcc.h ****   \details Returns the current value of the non-secure Base Priority register when in secure state.
 541:Drivers/CMSIS/Core/Include/cmsis_gcc.h ****   \return               Base Priority register value
 542:Drivers/CMSIS/Core/Include/cmsis_gcc.h ****  */
 543:Drivers/CMSIS/Core/Include/cmsis_gcc.h **** __STATIC_FORCEINLINE uint32_t __TZ_get_BASEPRI_NS(void)
 544:Drivers/CMSIS/Core/Include/cmsis_gcc.h **** {
 545:Drivers/CMSIS/Core/Include/cmsis_gcc.h ****   uint32_t result;
 546:Drivers/CMSIS/Core/Include/cmsis_gcc.h **** 
 547:Drivers/CMSIS/Core/Include/cmsis_gcc.h ****   __ASM volatile ("MRS %0, basepri_ns" : "=r" (result) );
 548:Drivers/CMSIS/Core/Include/cmsis_gcc.h ****   return(result);
 549:Drivers/CMSIS/Core/Include/cmsis_gcc.h **** }
 550:Drivers/CMSIS/Core/Include/cmsis_gcc.h **** #endif
 551:Drivers/CMSIS/Core/Include/cmsis_gcc.h **** 
 552:Drivers/CMSIS/Core/Include/cmsis_gcc.h **** 
ARM GAS  /tmp/cc9mqueP.s 			page 43


 553:Drivers/CMSIS/Core/Include/cmsis_gcc.h **** /**
 554:Drivers/CMSIS/Core/Include/cmsis_gcc.h ****   \brief   Set Base Priority
 555:Drivers/CMSIS/Core/Include/cmsis_gcc.h ****   \details Assigns the given value to the Base Priority register.
 556:Drivers/CMSIS/Core/Include/cmsis_gcc.h ****   \param [in]    basePri  Base Priority value to set
 557:Drivers/CMSIS/Core/Include/cmsis_gcc.h ****  */
 558:Drivers/CMSIS/Core/Include/cmsis_gcc.h **** __STATIC_FORCEINLINE void __set_BASEPRI(uint32_t basePri)
 559:Drivers/CMSIS/Core/Include/cmsis_gcc.h **** {
 560:Drivers/CMSIS/Core/Include/cmsis_gcc.h ****   __ASM volatile ("MSR basepri, %0" : : "r" (basePri) : "memory");
 561:Drivers/CMSIS/Core/Include/cmsis_gcc.h **** }
 562:Drivers/CMSIS/Core/Include/cmsis_gcc.h **** 
 563:Drivers/CMSIS/Core/Include/cmsis_gcc.h **** 
 564:Drivers/CMSIS/Core/Include/cmsis_gcc.h **** #if (defined (__ARM_FEATURE_CMSE ) && (__ARM_FEATURE_CMSE == 3))
 565:Drivers/CMSIS/Core/Include/cmsis_gcc.h **** /**
 566:Drivers/CMSIS/Core/Include/cmsis_gcc.h ****   \brief   Set Base Priority (non-secure)
 567:Drivers/CMSIS/Core/Include/cmsis_gcc.h ****   \details Assigns the given value to the non-secure Base Priority register when in secure state.
 568:Drivers/CMSIS/Core/Include/cmsis_gcc.h ****   \param [in]    basePri  Base Priority value to set
 569:Drivers/CMSIS/Core/Include/cmsis_gcc.h ****  */
 570:Drivers/CMSIS/Core/Include/cmsis_gcc.h **** __STATIC_FORCEINLINE void __TZ_set_BASEPRI_NS(uint32_t basePri)
 571:Drivers/CMSIS/Core/Include/cmsis_gcc.h **** {
 572:Drivers/CMSIS/Core/Include/cmsis_gcc.h ****   __ASM volatile ("MSR basepri_ns, %0" : : "r" (basePri) : "memory");
 573:Drivers/CMSIS/Core/Include/cmsis_gcc.h **** }
 574:Drivers/CMSIS/Core/Include/cmsis_gcc.h **** #endif
 575:Drivers/CMSIS/Core/Include/cmsis_gcc.h **** 
 576:Drivers/CMSIS/Core/Include/cmsis_gcc.h **** 
 577:Drivers/CMSIS/Core/Include/cmsis_gcc.h **** /**
 578:Drivers/CMSIS/Core/Include/cmsis_gcc.h ****   \brief   Set Base Priority with condition
 579:Drivers/CMSIS/Core/Include/cmsis_gcc.h ****   \details Assigns the given value to the Base Priority register only if BASEPRI masking is disable
 580:Drivers/CMSIS/Core/Include/cmsis_gcc.h ****            or the new value increases the BASEPRI priority level.
 581:Drivers/CMSIS/Core/Include/cmsis_gcc.h ****   \param [in]    basePri  Base Priority value to set
 582:Drivers/CMSIS/Core/Include/cmsis_gcc.h ****  */
 583:Drivers/CMSIS/Core/Include/cmsis_gcc.h **** __STATIC_FORCEINLINE void __set_BASEPRI_MAX(uint32_t basePri)
 584:Drivers/CMSIS/Core/Include/cmsis_gcc.h **** {
 585:Drivers/CMSIS/Core/Include/cmsis_gcc.h ****   __ASM volatile ("MSR basepri_max, %0" : : "r" (basePri) : "memory");
 586:Drivers/CMSIS/Core/Include/cmsis_gcc.h **** }
 587:Drivers/CMSIS/Core/Include/cmsis_gcc.h **** 
 588:Drivers/CMSIS/Core/Include/cmsis_gcc.h **** 
 589:Drivers/CMSIS/Core/Include/cmsis_gcc.h **** /**
 590:Drivers/CMSIS/Core/Include/cmsis_gcc.h ****   \brief   Get Fault Mask
 591:Drivers/CMSIS/Core/Include/cmsis_gcc.h ****   \details Returns the current value of the Fault Mask register.
 592:Drivers/CMSIS/Core/Include/cmsis_gcc.h ****   \return               Fault Mask register value
 593:Drivers/CMSIS/Core/Include/cmsis_gcc.h ****  */
 594:Drivers/CMSIS/Core/Include/cmsis_gcc.h **** __STATIC_FORCEINLINE uint32_t __get_FAULTMASK(void)
 595:Drivers/CMSIS/Core/Include/cmsis_gcc.h **** {
 596:Drivers/CMSIS/Core/Include/cmsis_gcc.h ****   uint32_t result;
 597:Drivers/CMSIS/Core/Include/cmsis_gcc.h **** 
 598:Drivers/CMSIS/Core/Include/cmsis_gcc.h ****   __ASM volatile ("MRS %0, faultmask" : "=r" (result) );
 599:Drivers/CMSIS/Core/Include/cmsis_gcc.h ****   return(result);
 600:Drivers/CMSIS/Core/Include/cmsis_gcc.h **** }
 601:Drivers/CMSIS/Core/Include/cmsis_gcc.h **** 
 602:Drivers/CMSIS/Core/Include/cmsis_gcc.h **** 
 603:Drivers/CMSIS/Core/Include/cmsis_gcc.h **** #if (defined (__ARM_FEATURE_CMSE ) && (__ARM_FEATURE_CMSE == 3))
 604:Drivers/CMSIS/Core/Include/cmsis_gcc.h **** /**
 605:Drivers/CMSIS/Core/Include/cmsis_gcc.h ****   \brief   Get Fault Mask (non-secure)
 606:Drivers/CMSIS/Core/Include/cmsis_gcc.h ****   \details Returns the current value of the non-secure Fault Mask register when in secure state.
 607:Drivers/CMSIS/Core/Include/cmsis_gcc.h ****   \return               Fault Mask register value
 608:Drivers/CMSIS/Core/Include/cmsis_gcc.h ****  */
 609:Drivers/CMSIS/Core/Include/cmsis_gcc.h **** __STATIC_FORCEINLINE uint32_t __TZ_get_FAULTMASK_NS(void)
ARM GAS  /tmp/cc9mqueP.s 			page 44


 610:Drivers/CMSIS/Core/Include/cmsis_gcc.h **** {
 611:Drivers/CMSIS/Core/Include/cmsis_gcc.h ****   uint32_t result;
 612:Drivers/CMSIS/Core/Include/cmsis_gcc.h **** 
 613:Drivers/CMSIS/Core/Include/cmsis_gcc.h ****   __ASM volatile ("MRS %0, faultmask_ns" : "=r" (result) );
 614:Drivers/CMSIS/Core/Include/cmsis_gcc.h ****   return(result);
 615:Drivers/CMSIS/Core/Include/cmsis_gcc.h **** }
 616:Drivers/CMSIS/Core/Include/cmsis_gcc.h **** #endif
 617:Drivers/CMSIS/Core/Include/cmsis_gcc.h **** 
 618:Drivers/CMSIS/Core/Include/cmsis_gcc.h **** 
 619:Drivers/CMSIS/Core/Include/cmsis_gcc.h **** /**
 620:Drivers/CMSIS/Core/Include/cmsis_gcc.h ****   \brief   Set Fault Mask
 621:Drivers/CMSIS/Core/Include/cmsis_gcc.h ****   \details Assigns the given value to the Fault Mask register.
 622:Drivers/CMSIS/Core/Include/cmsis_gcc.h ****   \param [in]    faultMask  Fault Mask value to set
 623:Drivers/CMSIS/Core/Include/cmsis_gcc.h ****  */
 624:Drivers/CMSIS/Core/Include/cmsis_gcc.h **** __STATIC_FORCEINLINE void __set_FAULTMASK(uint32_t faultMask)
 625:Drivers/CMSIS/Core/Include/cmsis_gcc.h **** {
 626:Drivers/CMSIS/Core/Include/cmsis_gcc.h ****   __ASM volatile ("MSR faultmask, %0" : : "r" (faultMask) : "memory");
 627:Drivers/CMSIS/Core/Include/cmsis_gcc.h **** }
 628:Drivers/CMSIS/Core/Include/cmsis_gcc.h **** 
 629:Drivers/CMSIS/Core/Include/cmsis_gcc.h **** 
 630:Drivers/CMSIS/Core/Include/cmsis_gcc.h **** #if (defined (__ARM_FEATURE_CMSE ) && (__ARM_FEATURE_CMSE == 3))
 631:Drivers/CMSIS/Core/Include/cmsis_gcc.h **** /**
 632:Drivers/CMSIS/Core/Include/cmsis_gcc.h ****   \brief   Set Fault Mask (non-secure)
 633:Drivers/CMSIS/Core/Include/cmsis_gcc.h ****   \details Assigns the given value to the non-secure Fault Mask register when in secure state.
 634:Drivers/CMSIS/Core/Include/cmsis_gcc.h ****   \param [in]    faultMask  Fault Mask value to set
 635:Drivers/CMSIS/Core/Include/cmsis_gcc.h ****  */
 636:Drivers/CMSIS/Core/Include/cmsis_gcc.h **** __STATIC_FORCEINLINE void __TZ_set_FAULTMASK_NS(uint32_t faultMask)
 637:Drivers/CMSIS/Core/Include/cmsis_gcc.h **** {
 638:Drivers/CMSIS/Core/Include/cmsis_gcc.h ****   __ASM volatile ("MSR faultmask_ns, %0" : : "r" (faultMask) : "memory");
 639:Drivers/CMSIS/Core/Include/cmsis_gcc.h **** }
 640:Drivers/CMSIS/Core/Include/cmsis_gcc.h **** #endif
 641:Drivers/CMSIS/Core/Include/cmsis_gcc.h **** 
 642:Drivers/CMSIS/Core/Include/cmsis_gcc.h **** #endif /* ((defined (__ARM_ARCH_7M__      ) && (__ARM_ARCH_7M__      == 1)) || \
 643:Drivers/CMSIS/Core/Include/cmsis_gcc.h ****            (defined (__ARM_ARCH_7EM__     ) && (__ARM_ARCH_7EM__     == 1)) || \
 644:Drivers/CMSIS/Core/Include/cmsis_gcc.h ****            (defined (__ARM_ARCH_8M_MAIN__ ) && (__ARM_ARCH_8M_MAIN__ == 1))    ) */
 645:Drivers/CMSIS/Core/Include/cmsis_gcc.h **** 
 646:Drivers/CMSIS/Core/Include/cmsis_gcc.h **** 
 647:Drivers/CMSIS/Core/Include/cmsis_gcc.h **** #if ((defined (__ARM_ARCH_8M_MAIN__ ) && (__ARM_ARCH_8M_MAIN__ == 1)) || \
 648:Drivers/CMSIS/Core/Include/cmsis_gcc.h ****      (defined (__ARM_ARCH_8M_BASE__ ) && (__ARM_ARCH_8M_BASE__ == 1))    )
 649:Drivers/CMSIS/Core/Include/cmsis_gcc.h **** 
 650:Drivers/CMSIS/Core/Include/cmsis_gcc.h **** /**
 651:Drivers/CMSIS/Core/Include/cmsis_gcc.h ****   \brief   Get Process Stack Pointer Limit
 652:Drivers/CMSIS/Core/Include/cmsis_gcc.h ****   Devices without ARMv8-M Main Extensions (i.e. Cortex-M23) lack the non-secure
 653:Drivers/CMSIS/Core/Include/cmsis_gcc.h ****   Stack Pointer Limit register hence zero is returned always in non-secure
 654:Drivers/CMSIS/Core/Include/cmsis_gcc.h ****   mode.
 655:Drivers/CMSIS/Core/Include/cmsis_gcc.h ****   
 656:Drivers/CMSIS/Core/Include/cmsis_gcc.h ****   \details Returns the current value of the Process Stack Pointer Limit (PSPLIM).
 657:Drivers/CMSIS/Core/Include/cmsis_gcc.h ****   \return               PSPLIM Register value
 658:Drivers/CMSIS/Core/Include/cmsis_gcc.h ****  */
 659:Drivers/CMSIS/Core/Include/cmsis_gcc.h **** __STATIC_FORCEINLINE uint32_t __get_PSPLIM(void)
 660:Drivers/CMSIS/Core/Include/cmsis_gcc.h **** {
 661:Drivers/CMSIS/Core/Include/cmsis_gcc.h **** #if (!(defined (__ARM_ARCH_8M_MAIN__ ) && (__ARM_ARCH_8M_MAIN__ == 1)) && \
 662:Drivers/CMSIS/Core/Include/cmsis_gcc.h ****     (!defined (__ARM_FEATURE_CMSE) || (__ARM_FEATURE_CMSE < 3)))
 663:Drivers/CMSIS/Core/Include/cmsis_gcc.h ****     // without main extensions, the non-secure PSPLIM is RAZ/WI
 664:Drivers/CMSIS/Core/Include/cmsis_gcc.h ****   return 0U;
 665:Drivers/CMSIS/Core/Include/cmsis_gcc.h **** #else
 666:Drivers/CMSIS/Core/Include/cmsis_gcc.h ****   uint32_t result;
ARM GAS  /tmp/cc9mqueP.s 			page 45


 667:Drivers/CMSIS/Core/Include/cmsis_gcc.h ****   __ASM volatile ("MRS %0, psplim"  : "=r" (result) );
 668:Drivers/CMSIS/Core/Include/cmsis_gcc.h ****   return result;
 669:Drivers/CMSIS/Core/Include/cmsis_gcc.h **** #endif
 670:Drivers/CMSIS/Core/Include/cmsis_gcc.h **** }
 671:Drivers/CMSIS/Core/Include/cmsis_gcc.h **** 
 672:Drivers/CMSIS/Core/Include/cmsis_gcc.h **** #if (defined (__ARM_FEATURE_CMSE) && (__ARM_FEATURE_CMSE == 3))
 673:Drivers/CMSIS/Core/Include/cmsis_gcc.h **** /**
 674:Drivers/CMSIS/Core/Include/cmsis_gcc.h ****   \brief   Get Process Stack Pointer Limit (non-secure)
 675:Drivers/CMSIS/Core/Include/cmsis_gcc.h ****   Devices without ARMv8-M Main Extensions (i.e. Cortex-M23) lack the non-secure
 676:Drivers/CMSIS/Core/Include/cmsis_gcc.h ****   Stack Pointer Limit register hence zero is returned always.
 677:Drivers/CMSIS/Core/Include/cmsis_gcc.h **** 
 678:Drivers/CMSIS/Core/Include/cmsis_gcc.h ****   \details Returns the current value of the non-secure Process Stack Pointer Limit (PSPLIM) when in
 679:Drivers/CMSIS/Core/Include/cmsis_gcc.h ****   \return               PSPLIM Register value
 680:Drivers/CMSIS/Core/Include/cmsis_gcc.h ****  */
 681:Drivers/CMSIS/Core/Include/cmsis_gcc.h **** __STATIC_FORCEINLINE uint32_t __TZ_get_PSPLIM_NS(void)
 682:Drivers/CMSIS/Core/Include/cmsis_gcc.h **** {
 683:Drivers/CMSIS/Core/Include/cmsis_gcc.h **** #if (!(defined (__ARM_ARCH_8M_MAIN__ ) && (__ARM_ARCH_8M_MAIN__ == 1)))
 684:Drivers/CMSIS/Core/Include/cmsis_gcc.h ****   // without main extensions, the non-secure PSPLIM is RAZ/WI
 685:Drivers/CMSIS/Core/Include/cmsis_gcc.h ****   return 0U;
 686:Drivers/CMSIS/Core/Include/cmsis_gcc.h **** #else
 687:Drivers/CMSIS/Core/Include/cmsis_gcc.h ****   uint32_t result;
 688:Drivers/CMSIS/Core/Include/cmsis_gcc.h ****   __ASM volatile ("MRS %0, psplim_ns"  : "=r" (result) );
 689:Drivers/CMSIS/Core/Include/cmsis_gcc.h ****   return result;
 690:Drivers/CMSIS/Core/Include/cmsis_gcc.h **** #endif
 691:Drivers/CMSIS/Core/Include/cmsis_gcc.h **** }
 692:Drivers/CMSIS/Core/Include/cmsis_gcc.h **** #endif
 693:Drivers/CMSIS/Core/Include/cmsis_gcc.h **** 
 694:Drivers/CMSIS/Core/Include/cmsis_gcc.h **** 
 695:Drivers/CMSIS/Core/Include/cmsis_gcc.h **** /**
 696:Drivers/CMSIS/Core/Include/cmsis_gcc.h ****   \brief   Set Process Stack Pointer Limit
 697:Drivers/CMSIS/Core/Include/cmsis_gcc.h ****   Devices without ARMv8-M Main Extensions (i.e. Cortex-M23) lack the non-secure
 698:Drivers/CMSIS/Core/Include/cmsis_gcc.h ****   Stack Pointer Limit register hence the write is silently ignored in non-secure
 699:Drivers/CMSIS/Core/Include/cmsis_gcc.h ****   mode.
 700:Drivers/CMSIS/Core/Include/cmsis_gcc.h ****   
 701:Drivers/CMSIS/Core/Include/cmsis_gcc.h ****   \details Assigns the given value to the Process Stack Pointer Limit (PSPLIM).
 702:Drivers/CMSIS/Core/Include/cmsis_gcc.h ****   \param [in]    ProcStackPtrLimit  Process Stack Pointer Limit value to set
 703:Drivers/CMSIS/Core/Include/cmsis_gcc.h ****  */
 704:Drivers/CMSIS/Core/Include/cmsis_gcc.h **** __STATIC_FORCEINLINE void __set_PSPLIM(uint32_t ProcStackPtrLimit)
 705:Drivers/CMSIS/Core/Include/cmsis_gcc.h **** {
 706:Drivers/CMSIS/Core/Include/cmsis_gcc.h **** #if (!(defined (__ARM_ARCH_8M_MAIN__ ) && (__ARM_ARCH_8M_MAIN__ == 1)) && \
 707:Drivers/CMSIS/Core/Include/cmsis_gcc.h ****     (!defined (__ARM_FEATURE_CMSE) || (__ARM_FEATURE_CMSE < 3)))
 708:Drivers/CMSIS/Core/Include/cmsis_gcc.h ****   // without main extensions, the non-secure PSPLIM is RAZ/WI
 709:Drivers/CMSIS/Core/Include/cmsis_gcc.h ****   (void)ProcStackPtrLimit;
 710:Drivers/CMSIS/Core/Include/cmsis_gcc.h **** #else
 711:Drivers/CMSIS/Core/Include/cmsis_gcc.h ****   __ASM volatile ("MSR psplim, %0" : : "r" (ProcStackPtrLimit));
 712:Drivers/CMSIS/Core/Include/cmsis_gcc.h **** #endif
 713:Drivers/CMSIS/Core/Include/cmsis_gcc.h **** }
 714:Drivers/CMSIS/Core/Include/cmsis_gcc.h **** 
 715:Drivers/CMSIS/Core/Include/cmsis_gcc.h **** 
 716:Drivers/CMSIS/Core/Include/cmsis_gcc.h **** #if (defined (__ARM_FEATURE_CMSE  ) && (__ARM_FEATURE_CMSE   == 3))
 717:Drivers/CMSIS/Core/Include/cmsis_gcc.h **** /**
 718:Drivers/CMSIS/Core/Include/cmsis_gcc.h ****   \brief   Set Process Stack Pointer (non-secure)
 719:Drivers/CMSIS/Core/Include/cmsis_gcc.h ****   Devices without ARMv8-M Main Extensions (i.e. Cortex-M23) lack the non-secure
 720:Drivers/CMSIS/Core/Include/cmsis_gcc.h ****   Stack Pointer Limit register hence the write is silently ignored.
 721:Drivers/CMSIS/Core/Include/cmsis_gcc.h **** 
 722:Drivers/CMSIS/Core/Include/cmsis_gcc.h ****   \details Assigns the given value to the non-secure Process Stack Pointer Limit (PSPLIM) when in s
 723:Drivers/CMSIS/Core/Include/cmsis_gcc.h ****   \param [in]    ProcStackPtrLimit  Process Stack Pointer Limit value to set
ARM GAS  /tmp/cc9mqueP.s 			page 46


 724:Drivers/CMSIS/Core/Include/cmsis_gcc.h ****  */
 725:Drivers/CMSIS/Core/Include/cmsis_gcc.h **** __STATIC_FORCEINLINE void __TZ_set_PSPLIM_NS(uint32_t ProcStackPtrLimit)
 726:Drivers/CMSIS/Core/Include/cmsis_gcc.h **** {
 727:Drivers/CMSIS/Core/Include/cmsis_gcc.h **** #if (!(defined (__ARM_ARCH_8M_MAIN__ ) && (__ARM_ARCH_8M_MAIN__ == 1)))
 728:Drivers/CMSIS/Core/Include/cmsis_gcc.h ****   // without main extensions, the non-secure PSPLIM is RAZ/WI
 729:Drivers/CMSIS/Core/Include/cmsis_gcc.h ****   (void)ProcStackPtrLimit;
 730:Drivers/CMSIS/Core/Include/cmsis_gcc.h **** #else
 731:Drivers/CMSIS/Core/Include/cmsis_gcc.h ****   __ASM volatile ("MSR psplim_ns, %0\n" : : "r" (ProcStackPtrLimit));
 732:Drivers/CMSIS/Core/Include/cmsis_gcc.h **** #endif
 733:Drivers/CMSIS/Core/Include/cmsis_gcc.h **** }
 734:Drivers/CMSIS/Core/Include/cmsis_gcc.h **** #endif
 735:Drivers/CMSIS/Core/Include/cmsis_gcc.h **** 
 736:Drivers/CMSIS/Core/Include/cmsis_gcc.h **** 
 737:Drivers/CMSIS/Core/Include/cmsis_gcc.h **** /**
 738:Drivers/CMSIS/Core/Include/cmsis_gcc.h ****   \brief   Get Main Stack Pointer Limit
 739:Drivers/CMSIS/Core/Include/cmsis_gcc.h ****   Devices without ARMv8-M Main Extensions (i.e. Cortex-M23) lack the non-secure
 740:Drivers/CMSIS/Core/Include/cmsis_gcc.h ****   Stack Pointer Limit register hence zero is returned always in non-secure
 741:Drivers/CMSIS/Core/Include/cmsis_gcc.h ****   mode.
 742:Drivers/CMSIS/Core/Include/cmsis_gcc.h **** 
 743:Drivers/CMSIS/Core/Include/cmsis_gcc.h ****   \details Returns the current value of the Main Stack Pointer Limit (MSPLIM).
 744:Drivers/CMSIS/Core/Include/cmsis_gcc.h ****   \return               MSPLIM Register value
 745:Drivers/CMSIS/Core/Include/cmsis_gcc.h ****  */
 746:Drivers/CMSIS/Core/Include/cmsis_gcc.h **** __STATIC_FORCEINLINE uint32_t __get_MSPLIM(void)
 747:Drivers/CMSIS/Core/Include/cmsis_gcc.h **** {
 748:Drivers/CMSIS/Core/Include/cmsis_gcc.h **** #if (!(defined (__ARM_ARCH_8M_MAIN__ ) && (__ARM_ARCH_8M_MAIN__ == 1)) && \
 749:Drivers/CMSIS/Core/Include/cmsis_gcc.h ****     (!defined (__ARM_FEATURE_CMSE) || (__ARM_FEATURE_CMSE < 3)))
 750:Drivers/CMSIS/Core/Include/cmsis_gcc.h ****   // without main extensions, the non-secure MSPLIM is RAZ/WI
 751:Drivers/CMSIS/Core/Include/cmsis_gcc.h ****   return 0U;
 752:Drivers/CMSIS/Core/Include/cmsis_gcc.h **** #else
 753:Drivers/CMSIS/Core/Include/cmsis_gcc.h ****   uint32_t result;
 754:Drivers/CMSIS/Core/Include/cmsis_gcc.h ****   __ASM volatile ("MRS %0, msplim" : "=r" (result) );
 755:Drivers/CMSIS/Core/Include/cmsis_gcc.h ****   return result;
 756:Drivers/CMSIS/Core/Include/cmsis_gcc.h **** #endif
 757:Drivers/CMSIS/Core/Include/cmsis_gcc.h **** }
 758:Drivers/CMSIS/Core/Include/cmsis_gcc.h **** 
 759:Drivers/CMSIS/Core/Include/cmsis_gcc.h **** 
 760:Drivers/CMSIS/Core/Include/cmsis_gcc.h **** #if (defined (__ARM_FEATURE_CMSE  ) && (__ARM_FEATURE_CMSE   == 3))
 761:Drivers/CMSIS/Core/Include/cmsis_gcc.h **** /**
 762:Drivers/CMSIS/Core/Include/cmsis_gcc.h ****   \brief   Get Main Stack Pointer Limit (non-secure)
 763:Drivers/CMSIS/Core/Include/cmsis_gcc.h ****   Devices without ARMv8-M Main Extensions (i.e. Cortex-M23) lack the non-secure
 764:Drivers/CMSIS/Core/Include/cmsis_gcc.h ****   Stack Pointer Limit register hence zero is returned always.
 765:Drivers/CMSIS/Core/Include/cmsis_gcc.h **** 
 766:Drivers/CMSIS/Core/Include/cmsis_gcc.h ****   \details Returns the current value of the non-secure Main Stack Pointer Limit(MSPLIM) when in sec
 767:Drivers/CMSIS/Core/Include/cmsis_gcc.h ****   \return               MSPLIM Register value
 768:Drivers/CMSIS/Core/Include/cmsis_gcc.h ****  */
 769:Drivers/CMSIS/Core/Include/cmsis_gcc.h **** __STATIC_FORCEINLINE uint32_t __TZ_get_MSPLIM_NS(void)
 770:Drivers/CMSIS/Core/Include/cmsis_gcc.h **** {
 771:Drivers/CMSIS/Core/Include/cmsis_gcc.h **** #if (!(defined (__ARM_ARCH_8M_MAIN__ ) && (__ARM_ARCH_8M_MAIN__ == 1)))
 772:Drivers/CMSIS/Core/Include/cmsis_gcc.h ****   // without main extensions, the non-secure MSPLIM is RAZ/WI
 773:Drivers/CMSIS/Core/Include/cmsis_gcc.h ****   return 0U;
 774:Drivers/CMSIS/Core/Include/cmsis_gcc.h **** #else
 775:Drivers/CMSIS/Core/Include/cmsis_gcc.h ****   uint32_t result;
 776:Drivers/CMSIS/Core/Include/cmsis_gcc.h ****   __ASM volatile ("MRS %0, msplim_ns" : "=r" (result) );
 777:Drivers/CMSIS/Core/Include/cmsis_gcc.h ****   return result;
 778:Drivers/CMSIS/Core/Include/cmsis_gcc.h **** #endif
 779:Drivers/CMSIS/Core/Include/cmsis_gcc.h **** }
 780:Drivers/CMSIS/Core/Include/cmsis_gcc.h **** #endif
ARM GAS  /tmp/cc9mqueP.s 			page 47


 781:Drivers/CMSIS/Core/Include/cmsis_gcc.h **** 
 782:Drivers/CMSIS/Core/Include/cmsis_gcc.h **** 
 783:Drivers/CMSIS/Core/Include/cmsis_gcc.h **** /**
 784:Drivers/CMSIS/Core/Include/cmsis_gcc.h ****   \brief   Set Main Stack Pointer Limit
 785:Drivers/CMSIS/Core/Include/cmsis_gcc.h ****   Devices without ARMv8-M Main Extensions (i.e. Cortex-M23) lack the non-secure
 786:Drivers/CMSIS/Core/Include/cmsis_gcc.h ****   Stack Pointer Limit register hence the write is silently ignored in non-secure
 787:Drivers/CMSIS/Core/Include/cmsis_gcc.h ****   mode.
 788:Drivers/CMSIS/Core/Include/cmsis_gcc.h **** 
 789:Drivers/CMSIS/Core/Include/cmsis_gcc.h ****   \details Assigns the given value to the Main Stack Pointer Limit (MSPLIM).
 790:Drivers/CMSIS/Core/Include/cmsis_gcc.h ****   \param [in]    MainStackPtrLimit  Main Stack Pointer Limit value to set
 791:Drivers/CMSIS/Core/Include/cmsis_gcc.h ****  */
 792:Drivers/CMSIS/Core/Include/cmsis_gcc.h **** __STATIC_FORCEINLINE void __set_MSPLIM(uint32_t MainStackPtrLimit)
 793:Drivers/CMSIS/Core/Include/cmsis_gcc.h **** {
 794:Drivers/CMSIS/Core/Include/cmsis_gcc.h **** #if (!(defined (__ARM_ARCH_8M_MAIN__ ) && (__ARM_ARCH_8M_MAIN__ == 1)) && \
 795:Drivers/CMSIS/Core/Include/cmsis_gcc.h ****     (!defined (__ARM_FEATURE_CMSE) || (__ARM_FEATURE_CMSE < 3)))
 796:Drivers/CMSIS/Core/Include/cmsis_gcc.h ****   // without main extensions, the non-secure MSPLIM is RAZ/WI
 797:Drivers/CMSIS/Core/Include/cmsis_gcc.h ****   (void)MainStackPtrLimit;
 798:Drivers/CMSIS/Core/Include/cmsis_gcc.h **** #else
 799:Drivers/CMSIS/Core/Include/cmsis_gcc.h ****   __ASM volatile ("MSR msplim, %0" : : "r" (MainStackPtrLimit));
 800:Drivers/CMSIS/Core/Include/cmsis_gcc.h **** #endif
 801:Drivers/CMSIS/Core/Include/cmsis_gcc.h **** }
 802:Drivers/CMSIS/Core/Include/cmsis_gcc.h **** 
 803:Drivers/CMSIS/Core/Include/cmsis_gcc.h **** 
 804:Drivers/CMSIS/Core/Include/cmsis_gcc.h **** #if (defined (__ARM_FEATURE_CMSE  ) && (__ARM_FEATURE_CMSE   == 3))
 805:Drivers/CMSIS/Core/Include/cmsis_gcc.h **** /**
 806:Drivers/CMSIS/Core/Include/cmsis_gcc.h ****   \brief   Set Main Stack Pointer Limit (non-secure)
 807:Drivers/CMSIS/Core/Include/cmsis_gcc.h ****   Devices without ARMv8-M Main Extensions (i.e. Cortex-M23) lack the non-secure
 808:Drivers/CMSIS/Core/Include/cmsis_gcc.h ****   Stack Pointer Limit register hence the write is silently ignored.
 809:Drivers/CMSIS/Core/Include/cmsis_gcc.h **** 
 810:Drivers/CMSIS/Core/Include/cmsis_gcc.h ****   \details Assigns the given value to the non-secure Main Stack Pointer Limit (MSPLIM) when in secu
 811:Drivers/CMSIS/Core/Include/cmsis_gcc.h ****   \param [in]    MainStackPtrLimit  Main Stack Pointer value to set
 812:Drivers/CMSIS/Core/Include/cmsis_gcc.h ****  */
 813:Drivers/CMSIS/Core/Include/cmsis_gcc.h **** __STATIC_FORCEINLINE void __TZ_set_MSPLIM_NS(uint32_t MainStackPtrLimit)
 814:Drivers/CMSIS/Core/Include/cmsis_gcc.h **** {
 815:Drivers/CMSIS/Core/Include/cmsis_gcc.h **** #if (!(defined (__ARM_ARCH_8M_MAIN__ ) && (__ARM_ARCH_8M_MAIN__ == 1)))
 816:Drivers/CMSIS/Core/Include/cmsis_gcc.h ****   // without main extensions, the non-secure MSPLIM is RAZ/WI
 817:Drivers/CMSIS/Core/Include/cmsis_gcc.h ****   (void)MainStackPtrLimit;
 818:Drivers/CMSIS/Core/Include/cmsis_gcc.h **** #else
 819:Drivers/CMSIS/Core/Include/cmsis_gcc.h ****   __ASM volatile ("MSR msplim_ns, %0" : : "r" (MainStackPtrLimit));
 820:Drivers/CMSIS/Core/Include/cmsis_gcc.h **** #endif
 821:Drivers/CMSIS/Core/Include/cmsis_gcc.h **** }
 822:Drivers/CMSIS/Core/Include/cmsis_gcc.h **** #endif
 823:Drivers/CMSIS/Core/Include/cmsis_gcc.h **** 
 824:Drivers/CMSIS/Core/Include/cmsis_gcc.h **** #endif /* ((defined (__ARM_ARCH_8M_MAIN__ ) && (__ARM_ARCH_8M_MAIN__ == 1)) || \
 825:Drivers/CMSIS/Core/Include/cmsis_gcc.h ****            (defined (__ARM_ARCH_8M_BASE__ ) && (__ARM_ARCH_8M_BASE__ == 1))    ) */
 826:Drivers/CMSIS/Core/Include/cmsis_gcc.h **** 
 827:Drivers/CMSIS/Core/Include/cmsis_gcc.h **** 
 828:Drivers/CMSIS/Core/Include/cmsis_gcc.h **** /**
 829:Drivers/CMSIS/Core/Include/cmsis_gcc.h ****   \brief   Get FPSCR
 830:Drivers/CMSIS/Core/Include/cmsis_gcc.h ****   \details Returns the current value of the Floating Point Status/Control register.
 831:Drivers/CMSIS/Core/Include/cmsis_gcc.h ****   \return               Floating Point Status/Control register value
 832:Drivers/CMSIS/Core/Include/cmsis_gcc.h ****  */
 833:Drivers/CMSIS/Core/Include/cmsis_gcc.h **** __STATIC_FORCEINLINE uint32_t __get_FPSCR(void)
 834:Drivers/CMSIS/Core/Include/cmsis_gcc.h **** {
 835:Drivers/CMSIS/Core/Include/cmsis_gcc.h **** #if ((defined (__FPU_PRESENT) && (__FPU_PRESENT == 1U)) && \
 836:Drivers/CMSIS/Core/Include/cmsis_gcc.h ****      (defined (__FPU_USED   ) && (__FPU_USED    == 1U))     )
 837:Drivers/CMSIS/Core/Include/cmsis_gcc.h **** #if __has_builtin(__builtin_arm_get_fpscr) 
ARM GAS  /tmp/cc9mqueP.s 			page 48


 838:Drivers/CMSIS/Core/Include/cmsis_gcc.h **** // Re-enable using built-in when GCC has been fixed
 839:Drivers/CMSIS/Core/Include/cmsis_gcc.h **** // || (__GNUC__ > 7) || (__GNUC__ == 7 && __GNUC_MINOR__ >= 2)
 840:Drivers/CMSIS/Core/Include/cmsis_gcc.h ****   /* see https://gcc.gnu.org/ml/gcc-patches/2017-04/msg00443.html */
 841:Drivers/CMSIS/Core/Include/cmsis_gcc.h ****   return __builtin_arm_get_fpscr();
 842:Drivers/CMSIS/Core/Include/cmsis_gcc.h **** #else
 843:Drivers/CMSIS/Core/Include/cmsis_gcc.h ****   uint32_t result;
 844:Drivers/CMSIS/Core/Include/cmsis_gcc.h **** 
 845:Drivers/CMSIS/Core/Include/cmsis_gcc.h ****   __ASM volatile ("VMRS %0, fpscr" : "=r" (result) );
 846:Drivers/CMSIS/Core/Include/cmsis_gcc.h ****   return(result);
 847:Drivers/CMSIS/Core/Include/cmsis_gcc.h **** #endif
 848:Drivers/CMSIS/Core/Include/cmsis_gcc.h **** #else
 849:Drivers/CMSIS/Core/Include/cmsis_gcc.h ****   return(0U);
 850:Drivers/CMSIS/Core/Include/cmsis_gcc.h **** #endif
 851:Drivers/CMSIS/Core/Include/cmsis_gcc.h **** }
 852:Drivers/CMSIS/Core/Include/cmsis_gcc.h **** 
 853:Drivers/CMSIS/Core/Include/cmsis_gcc.h **** 
 854:Drivers/CMSIS/Core/Include/cmsis_gcc.h **** /**
 855:Drivers/CMSIS/Core/Include/cmsis_gcc.h ****   \brief   Set FPSCR
 856:Drivers/CMSIS/Core/Include/cmsis_gcc.h ****   \details Assigns the given value to the Floating Point Status/Control register.
 857:Drivers/CMSIS/Core/Include/cmsis_gcc.h ****   \param [in]    fpscr  Floating Point Status/Control value to set
 858:Drivers/CMSIS/Core/Include/cmsis_gcc.h ****  */
 859:Drivers/CMSIS/Core/Include/cmsis_gcc.h **** __STATIC_FORCEINLINE void __set_FPSCR(uint32_t fpscr)
 860:Drivers/CMSIS/Core/Include/cmsis_gcc.h **** {
 861:Drivers/CMSIS/Core/Include/cmsis_gcc.h **** #if ((defined (__FPU_PRESENT) && (__FPU_PRESENT == 1U)) && \
 862:Drivers/CMSIS/Core/Include/cmsis_gcc.h ****      (defined (__FPU_USED   ) && (__FPU_USED    == 1U))     )
 863:Drivers/CMSIS/Core/Include/cmsis_gcc.h **** #if __has_builtin(__builtin_arm_set_fpscr)
 864:Drivers/CMSIS/Core/Include/cmsis_gcc.h **** // Re-enable using built-in when GCC has been fixed
 865:Drivers/CMSIS/Core/Include/cmsis_gcc.h **** // || (__GNUC__ > 7) || (__GNUC__ == 7 && __GNUC_MINOR__ >= 2)
 866:Drivers/CMSIS/Core/Include/cmsis_gcc.h ****   /* see https://gcc.gnu.org/ml/gcc-patches/2017-04/msg00443.html */
 867:Drivers/CMSIS/Core/Include/cmsis_gcc.h ****   __builtin_arm_set_fpscr(fpscr);
 868:Drivers/CMSIS/Core/Include/cmsis_gcc.h **** #else
 869:Drivers/CMSIS/Core/Include/cmsis_gcc.h ****   __ASM volatile ("VMSR fpscr, %0" : : "r" (fpscr) : "vfpcc", "memory");
 870:Drivers/CMSIS/Core/Include/cmsis_gcc.h **** #endif
 871:Drivers/CMSIS/Core/Include/cmsis_gcc.h **** #else
 872:Drivers/CMSIS/Core/Include/cmsis_gcc.h ****   (void)fpscr;
 873:Drivers/CMSIS/Core/Include/cmsis_gcc.h **** #endif
 874:Drivers/CMSIS/Core/Include/cmsis_gcc.h **** }
 875:Drivers/CMSIS/Core/Include/cmsis_gcc.h **** 
 876:Drivers/CMSIS/Core/Include/cmsis_gcc.h **** 
 877:Drivers/CMSIS/Core/Include/cmsis_gcc.h **** /*@} end of CMSIS_Core_RegAccFunctions */
 878:Drivers/CMSIS/Core/Include/cmsis_gcc.h **** 
 879:Drivers/CMSIS/Core/Include/cmsis_gcc.h **** 
 880:Drivers/CMSIS/Core/Include/cmsis_gcc.h **** /* ##########################  Core Instruction Access  ######################### */
 881:Drivers/CMSIS/Core/Include/cmsis_gcc.h **** /** \defgroup CMSIS_Core_InstructionInterface CMSIS Core Instruction Interface
 882:Drivers/CMSIS/Core/Include/cmsis_gcc.h ****   Access to dedicated instructions
 883:Drivers/CMSIS/Core/Include/cmsis_gcc.h ****   @{
 884:Drivers/CMSIS/Core/Include/cmsis_gcc.h **** */
 885:Drivers/CMSIS/Core/Include/cmsis_gcc.h **** 
 886:Drivers/CMSIS/Core/Include/cmsis_gcc.h **** /* Define macros for porting to both thumb1 and thumb2.
 887:Drivers/CMSIS/Core/Include/cmsis_gcc.h ****  * For thumb1, use low register (r0-r7), specified by constraint "l"
 888:Drivers/CMSIS/Core/Include/cmsis_gcc.h ****  * Otherwise, use general registers, specified by constraint "r" */
 889:Drivers/CMSIS/Core/Include/cmsis_gcc.h **** #if defined (__thumb__) && !defined (__thumb2__)
 890:Drivers/CMSIS/Core/Include/cmsis_gcc.h **** #define __CMSIS_GCC_OUT_REG(r) "=l" (r)
 891:Drivers/CMSIS/Core/Include/cmsis_gcc.h **** #define __CMSIS_GCC_RW_REG(r) "+l" (r)
 892:Drivers/CMSIS/Core/Include/cmsis_gcc.h **** #define __CMSIS_GCC_USE_REG(r) "l" (r)
 893:Drivers/CMSIS/Core/Include/cmsis_gcc.h **** #else
 894:Drivers/CMSIS/Core/Include/cmsis_gcc.h **** #define __CMSIS_GCC_OUT_REG(r) "=r" (r)
ARM GAS  /tmp/cc9mqueP.s 			page 49


 895:Drivers/CMSIS/Core/Include/cmsis_gcc.h **** #define __CMSIS_GCC_RW_REG(r) "+r" (r)
 896:Drivers/CMSIS/Core/Include/cmsis_gcc.h **** #define __CMSIS_GCC_USE_REG(r) "r" (r)
 897:Drivers/CMSIS/Core/Include/cmsis_gcc.h **** #endif
 898:Drivers/CMSIS/Core/Include/cmsis_gcc.h **** 
 899:Drivers/CMSIS/Core/Include/cmsis_gcc.h **** /**
 900:Drivers/CMSIS/Core/Include/cmsis_gcc.h ****   \brief   No Operation
 901:Drivers/CMSIS/Core/Include/cmsis_gcc.h ****   \details No Operation does nothing. This instruction can be used for code alignment purposes.
 902:Drivers/CMSIS/Core/Include/cmsis_gcc.h ****  */
 903:Drivers/CMSIS/Core/Include/cmsis_gcc.h **** #define __NOP()                             __ASM volatile ("nop")
 904:Drivers/CMSIS/Core/Include/cmsis_gcc.h **** 
 905:Drivers/CMSIS/Core/Include/cmsis_gcc.h **** /**
 906:Drivers/CMSIS/Core/Include/cmsis_gcc.h ****   \brief   Wait For Interrupt
 907:Drivers/CMSIS/Core/Include/cmsis_gcc.h ****   \details Wait For Interrupt is a hint instruction that suspends execution until one of a number o
 908:Drivers/CMSIS/Core/Include/cmsis_gcc.h ****  */
 909:Drivers/CMSIS/Core/Include/cmsis_gcc.h **** #define __WFI()                             __ASM volatile ("wfi")
 910:Drivers/CMSIS/Core/Include/cmsis_gcc.h **** 
 911:Drivers/CMSIS/Core/Include/cmsis_gcc.h **** 
 912:Drivers/CMSIS/Core/Include/cmsis_gcc.h **** /**
 913:Drivers/CMSIS/Core/Include/cmsis_gcc.h ****   \brief   Wait For Event
 914:Drivers/CMSIS/Core/Include/cmsis_gcc.h ****   \details Wait For Event is a hint instruction that permits the processor to enter
 915:Drivers/CMSIS/Core/Include/cmsis_gcc.h ****            a low-power state until one of a number of events occurs.
 916:Drivers/CMSIS/Core/Include/cmsis_gcc.h ****  */
 917:Drivers/CMSIS/Core/Include/cmsis_gcc.h **** #define __WFE()                             __ASM volatile ("wfe")
 918:Drivers/CMSIS/Core/Include/cmsis_gcc.h **** 
 919:Drivers/CMSIS/Core/Include/cmsis_gcc.h **** 
 920:Drivers/CMSIS/Core/Include/cmsis_gcc.h **** /**
 921:Drivers/CMSIS/Core/Include/cmsis_gcc.h ****   \brief   Send Event
 922:Drivers/CMSIS/Core/Include/cmsis_gcc.h ****   \details Send Event is a hint instruction. It causes an event to be signaled to the CPU.
 923:Drivers/CMSIS/Core/Include/cmsis_gcc.h ****  */
 924:Drivers/CMSIS/Core/Include/cmsis_gcc.h **** #define __SEV()                             __ASM volatile ("sev")
 925:Drivers/CMSIS/Core/Include/cmsis_gcc.h **** 
 926:Drivers/CMSIS/Core/Include/cmsis_gcc.h **** 
 927:Drivers/CMSIS/Core/Include/cmsis_gcc.h **** /**
 928:Drivers/CMSIS/Core/Include/cmsis_gcc.h ****   \brief   Instruction Synchronization Barrier
 929:Drivers/CMSIS/Core/Include/cmsis_gcc.h ****   \details Instruction Synchronization Barrier flushes the pipeline in the processor,
 930:Drivers/CMSIS/Core/Include/cmsis_gcc.h ****            so that all instructions following the ISB are fetched from cache or memory,
 931:Drivers/CMSIS/Core/Include/cmsis_gcc.h ****            after the instruction has been completed.
 932:Drivers/CMSIS/Core/Include/cmsis_gcc.h ****  */
 933:Drivers/CMSIS/Core/Include/cmsis_gcc.h **** __STATIC_FORCEINLINE void __ISB(void)
 934:Drivers/CMSIS/Core/Include/cmsis_gcc.h **** {
 935:Drivers/CMSIS/Core/Include/cmsis_gcc.h ****   __ASM volatile ("isb 0xF":::"memory");
 1164              		.loc 2 935 3
 1165              		.syntax unified
 1166              	@ 935 "Drivers/CMSIS/Core/Include/cmsis_gcc.h" 1
 1167 001e BFF36F8F 		isb 0xF
 1168              	@ 0 "" 2
 936:Drivers/CMSIS/Core/Include/cmsis_gcc.h **** }
 1169              		.loc 2 936 1
 1170              		.thumb
 1171              		.syntax unified
 1172 0022 00BF     		nop
 1173              	.LBE11:
 1174              	.LBE10:
 706:Drivers/STM32L4xx_HAL_Driver/Src/stm32l4xx_hal_flash.c **** 
 707:Drivers/STM32L4xx_HAL_Driver/Src/stm32l4xx_hal_flash.c ****   /* Barrier to ensure programming is performed in 2 steps, in right order
 708:Drivers/STM32L4xx_HAL_Driver/Src/stm32l4xx_hal_flash.c ****     (independently of compiler optimization behavior) */
 709:Drivers/STM32L4xx_HAL_Driver/Src/stm32l4xx_hal_flash.c ****   __ISB();
ARM GAS  /tmp/cc9mqueP.s 			page 50


 710:Drivers/STM32L4xx_HAL_Driver/Src/stm32l4xx_hal_flash.c **** 
 711:Drivers/STM32L4xx_HAL_Driver/Src/stm32l4xx_hal_flash.c ****   /* Program second word */
 712:Drivers/STM32L4xx_HAL_Driver/Src/stm32l4xx_hal_flash.c ****   *(__IO uint32_t*)(Address+4U) = (uint32_t)(Data >> 32);
 1175              		.loc 1 712 51
 1176 0024 D7E90001 		ldrd	r0, [r7]
 1177 0028 4FF00002 		mov	r2, #0
 1178 002c 4FF00003 		mov	r3, #0
 1179 0030 0A00     		movs	r2, r1
 1180 0032 0023     		movs	r3, #0
 1181              		.loc 1 712 28
 1182 0034 F968     		ldr	r1, [r7, #12]
 1183 0036 0431     		adds	r1, r1, #4
 1184              		.loc 1 712 35
 1185 0038 1346     		mov	r3, r2
 1186              		.loc 1 712 33
 1187 003a 0B60     		str	r3, [r1]
 713:Drivers/STM32L4xx_HAL_Driver/Src/stm32l4xx_hal_flash.c **** }
 1188              		.loc 1 713 1
 1189 003c 00BF     		nop
 1190 003e 1437     		adds	r7, r7, #20
 1191              		.cfi_def_cfa_offset 4
 1192 0040 BD46     		mov	sp, r7
 1193              		.cfi_def_cfa_register 13
 1194              		@ sp needed
 1195 0042 5DF8047B 		ldr	r7, [sp], #4
 1196              		.cfi_restore 7
 1197              		.cfi_def_cfa_offset 0
 1198 0046 7047     		bx	lr
 1199              	.L87:
 1200              		.align	2
 1201              	.L86:
 1202 0048 00200240 		.word	1073881088
 1203              		.cfi_endproc
 1204              	.LFE457:
 1206              		.section	.text.FLASH_Program_Fast,"ax",%progbits
 1207              		.align	1
 1208              		.syntax unified
 1209              		.thumb
 1210              		.thumb_func
 1212              	FLASH_Program_Fast:
 1213              	.LFB458:
 714:Drivers/STM32L4xx_HAL_Driver/Src/stm32l4xx_hal_flash.c **** 
 715:Drivers/STM32L4xx_HAL_Driver/Src/stm32l4xx_hal_flash.c **** /**
 716:Drivers/STM32L4xx_HAL_Driver/Src/stm32l4xx_hal_flash.c ****   * @brief  Fast program a row double-word (64-bit) at a specified address.
 717:Drivers/STM32L4xx_HAL_Driver/Src/stm32l4xx_hal_flash.c ****   * @param  Address specifies the address to be programmed.
 718:Drivers/STM32L4xx_HAL_Driver/Src/stm32l4xx_hal_flash.c ****   * @param  DataAddress specifies the address where the data are stored.
 719:Drivers/STM32L4xx_HAL_Driver/Src/stm32l4xx_hal_flash.c ****   * @retval None
 720:Drivers/STM32L4xx_HAL_Driver/Src/stm32l4xx_hal_flash.c ****   */
 721:Drivers/STM32L4xx_HAL_Driver/Src/stm32l4xx_hal_flash.c **** static void FLASH_Program_Fast(uint32_t Address, uint32_t DataAddress)
 722:Drivers/STM32L4xx_HAL_Driver/Src/stm32l4xx_hal_flash.c **** {
 1214              		.loc 1 722 1
 1215              		.cfi_startproc
 1216              		@ args = 0, pretend = 0, frame = 32
 1217              		@ frame_needed = 1, uses_anonymous_args = 0
 1218              		@ link register save eliminated.
 1219 0000 80B4     		push	{r7}
 1220              		.cfi_def_cfa_offset 4
ARM GAS  /tmp/cc9mqueP.s 			page 51


 1221              		.cfi_offset 7, -4
 1222 0002 89B0     		sub	sp, sp, #36
 1223              		.cfi_def_cfa_offset 40
 1224 0004 00AF     		add	r7, sp, #0
 1225              		.cfi_def_cfa_register 7
 1226 0006 7860     		str	r0, [r7, #4]
 1227 0008 3960     		str	r1, [r7]
 723:Drivers/STM32L4xx_HAL_Driver/Src/stm32l4xx_hal_flash.c ****   uint32_t primask_bit;
 724:Drivers/STM32L4xx_HAL_Driver/Src/stm32l4xx_hal_flash.c ****   uint8_t row_index = (2*FLASH_NB_DOUBLE_WORDS_IN_ROW);
 1228              		.loc 1 724 11
 1229 000a 4023     		movs	r3, #64
 1230 000c FB77     		strb	r3, [r7, #31]
 725:Drivers/STM32L4xx_HAL_Driver/Src/stm32l4xx_hal_flash.c ****   __IO uint32_t *dest_addr = (__IO uint32_t*)Address;
 1231              		.loc 1 725 18
 1232 000e 7B68     		ldr	r3, [r7, #4]
 1233 0010 BB61     		str	r3, [r7, #24]
 726:Drivers/STM32L4xx_HAL_Driver/Src/stm32l4xx_hal_flash.c ****   __IO uint32_t *src_addr = (__IO uint32_t*)DataAddress;
 1234              		.loc 1 726 18
 1235 0012 3B68     		ldr	r3, [r7]
 1236 0014 7B61     		str	r3, [r7, #20]
 727:Drivers/STM32L4xx_HAL_Driver/Src/stm32l4xx_hal_flash.c **** 
 728:Drivers/STM32L4xx_HAL_Driver/Src/stm32l4xx_hal_flash.c ****   /* Check the parameters */
 729:Drivers/STM32L4xx_HAL_Driver/Src/stm32l4xx_hal_flash.c ****   assert_param(IS_FLASH_MAIN_MEM_ADDRESS(Address));
 730:Drivers/STM32L4xx_HAL_Driver/Src/stm32l4xx_hal_flash.c **** 
 731:Drivers/STM32L4xx_HAL_Driver/Src/stm32l4xx_hal_flash.c ****   /* Set FSTPG bit */
 732:Drivers/STM32L4xx_HAL_Driver/Src/stm32l4xx_hal_flash.c ****   SET_BIT(FLASH->CR, FLASH_CR_FSTPG);
 1237              		.loc 1 732 3
 1238 0016 144B     		ldr	r3, .L91
 1239 0018 5B69     		ldr	r3, [r3, #20]
 1240 001a 134A     		ldr	r2, .L91
 1241 001c 43F48023 		orr	r3, r3, #262144
 1242 0020 5361     		str	r3, [r2, #20]
 1243              	.LBB12:
 1244              	.LBB13:
 453:Drivers/CMSIS/Core/Include/cmsis_gcc.h ****   return(result);
 1245              		.loc 2 453 3
 1246              		.syntax unified
 1247              	@ 453 "Drivers/CMSIS/Core/Include/cmsis_gcc.h" 1
 1248 0022 EFF31083 		MRS r3, primask
 1249              	@ 0 "" 2
 1250              		.thumb
 1251              		.syntax unified
 1252 0026 FB60     		str	r3, [r7, #12]
 454:Drivers/CMSIS/Core/Include/cmsis_gcc.h **** }
 1253              		.loc 2 454 9
 1254 0028 FB68     		ldr	r3, [r7, #12]
 1255              	.LBE13:
 1256              	.LBE12:
 733:Drivers/STM32L4xx_HAL_Driver/Src/stm32l4xx_hal_flash.c **** 
 734:Drivers/STM32L4xx_HAL_Driver/Src/stm32l4xx_hal_flash.c ****   /* Disable interrupts to avoid any interruption during the loop */
 735:Drivers/STM32L4xx_HAL_Driver/Src/stm32l4xx_hal_flash.c ****   primask_bit = __get_PRIMASK();
 1257              		.loc 1 735 17
 1258 002a 3B61     		str	r3, [r7, #16]
 1259              	.LBB14:
 1260              	.LBB15:
 209:Drivers/CMSIS/Core/Include/cmsis_gcc.h **** }
 1261              		.loc 2 209 3
ARM GAS  /tmp/cc9mqueP.s 			page 52


 1262              		.syntax unified
 1263              	@ 209 "Drivers/CMSIS/Core/Include/cmsis_gcc.h" 1
 1264 002c 72B6     		cpsid i
 1265              	@ 0 "" 2
 210:Drivers/CMSIS/Core/Include/cmsis_gcc.h **** 
 1266              		.loc 2 210 1
 1267              		.thumb
 1268              		.syntax unified
 1269 002e 00BF     		nop
 1270              	.L90:
 1271              	.LBE15:
 1272              	.LBE14:
 736:Drivers/STM32L4xx_HAL_Driver/Src/stm32l4xx_hal_flash.c ****   __disable_irq();
 737:Drivers/STM32L4xx_HAL_Driver/Src/stm32l4xx_hal_flash.c **** 
 738:Drivers/STM32L4xx_HAL_Driver/Src/stm32l4xx_hal_flash.c ****   /* Program the double word of the row */
 739:Drivers/STM32L4xx_HAL_Driver/Src/stm32l4xx_hal_flash.c ****   do
 740:Drivers/STM32L4xx_HAL_Driver/Src/stm32l4xx_hal_flash.c ****   {
 741:Drivers/STM32L4xx_HAL_Driver/Src/stm32l4xx_hal_flash.c ****     *dest_addr = *src_addr;
 1273              		.loc 1 741 18
 1274 0030 7B69     		ldr	r3, [r7, #20]
 1275 0032 1A68     		ldr	r2, [r3]
 1276              		.loc 1 741 16
 1277 0034 BB69     		ldr	r3, [r7, #24]
 1278 0036 1A60     		str	r2, [r3]
 742:Drivers/STM32L4xx_HAL_Driver/Src/stm32l4xx_hal_flash.c ****     dest_addr++;
 1279              		.loc 1 742 14
 1280 0038 BB69     		ldr	r3, [r7, #24]
 1281 003a 0433     		adds	r3, r3, #4
 1282 003c BB61     		str	r3, [r7, #24]
 743:Drivers/STM32L4xx_HAL_Driver/Src/stm32l4xx_hal_flash.c ****     src_addr++;
 1283              		.loc 1 743 13
 1284 003e 7B69     		ldr	r3, [r7, #20]
 1285 0040 0433     		adds	r3, r3, #4
 1286 0042 7B61     		str	r3, [r7, #20]
 744:Drivers/STM32L4xx_HAL_Driver/Src/stm32l4xx_hal_flash.c ****     row_index--;
 1287              		.loc 1 744 14
 1288 0044 FB7F     		ldrb	r3, [r7, #31]	@ zero_extendqisi2
 1289 0046 013B     		subs	r3, r3, #1
 1290 0048 FB77     		strb	r3, [r7, #31]
 745:Drivers/STM32L4xx_HAL_Driver/Src/stm32l4xx_hal_flash.c ****   } while (row_index != 0U);
 1291              		.loc 1 745 22 discriminator 1
 1292 004a FB7F     		ldrb	r3, [r7, #31]	@ zero_extendqisi2
 1293 004c 002B     		cmp	r3, #0
 1294 004e EFD1     		bne	.L90
 1295 0050 3B69     		ldr	r3, [r7, #16]
 1296 0052 BB60     		str	r3, [r7, #8]
 1297              	.LBB16:
 1298              	.LBB17:
 481:Drivers/CMSIS/Core/Include/cmsis_gcc.h **** }
 1299              		.loc 2 481 3
 1300 0054 BB68     		ldr	r3, [r7, #8]
 1301              		.syntax unified
 1302              	@ 481 "Drivers/CMSIS/Core/Include/cmsis_gcc.h" 1
 1303 0056 83F31088 		MSR primask, r3
 1304              	@ 0 "" 2
 482:Drivers/CMSIS/Core/Include/cmsis_gcc.h **** 
 1305              		.loc 2 482 1
ARM GAS  /tmp/cc9mqueP.s 			page 53


 1306              		.thumb
 1307              		.syntax unified
 1308 005a 00BF     		nop
 1309              	.LBE17:
 1310              	.LBE16:
 746:Drivers/STM32L4xx_HAL_Driver/Src/stm32l4xx_hal_flash.c **** 
 747:Drivers/STM32L4xx_HAL_Driver/Src/stm32l4xx_hal_flash.c ****   /* Re-enable the interrupts */
 748:Drivers/STM32L4xx_HAL_Driver/Src/stm32l4xx_hal_flash.c ****   __set_PRIMASK(primask_bit);
 749:Drivers/STM32L4xx_HAL_Driver/Src/stm32l4xx_hal_flash.c **** }
 1311              		.loc 1 749 1
 1312 005c 00BF     		nop
 1313 005e 2437     		adds	r7, r7, #36
 1314              		.cfi_def_cfa_offset 4
 1315 0060 BD46     		mov	sp, r7
 1316              		.cfi_def_cfa_register 13
 1317              		@ sp needed
 1318 0062 5DF8047B 		ldr	r7, [sp], #4
 1319              		.cfi_restore 7
 1320              		.cfi_def_cfa_offset 0
 1321 0066 7047     		bx	lr
 1322              	.L92:
 1323              		.align	2
 1324              	.L91:
 1325 0068 00200240 		.word	1073881088
 1326              		.cfi_endproc
 1327              	.LFE458:
 1329              		.text
 1330              	.Letext0:
 1331              		.file 3 "/usr/lib/gcc/arm-none-eabi/13.2.1/include/stdint.h"
 1332              		.file 4 "Drivers/CMSIS/Device/ST/STM32L4xx/Include/stm32l475xx.h"
 1333              		.file 5 "Drivers/STM32L4xx_HAL_Driver/Inc/stm32l4xx_hal_def.h"
 1334              		.file 6 "Drivers/STM32L4xx_HAL_Driver/Inc/stm32l4xx_hal_flash.h"
 1335              		.file 7 "Drivers/STM32L4xx_HAL_Driver/Inc/stm32l4xx_ll_dma.h"
 1336              		.file 8 "Drivers/STM32L4xx_HAL_Driver/Inc/stm32l4xx_hal.h"
 1337              		.file 9 "Drivers/STM32L4xx_HAL_Driver/Inc/stm32l4xx_hal_flash_ex.h"
ARM GAS  /tmp/cc9mqueP.s 			page 54

