ARM GAS  /tmp/ccsLb3N5.s 			page 1


   1              		.cpu cortex-m4
   2              		.arch armv7e-m
   3              		.fpu fpv4-sp-d16
   4              		.eabi_attribute 27, 1
   5              		.eabi_attribute 28, 1
   6              		.eabi_attribute 20, 1
   7              		.eabi_attribute 21, 1
   8              		.eabi_attribute 23, 3
   9              		.eabi_attribute 24, 1
  10              		.eabi_attribute 25, 1
  11              		.eabi_attribute 26, 1
  12              		.eabi_attribute 30, 6
  13              		.eabi_attribute 34, 1
  14              		.eabi_attribute 18, 4
  15              		.file	"stm32l4xx_hal_sd.c"
  16              		.text
  17              	.Ltext0:
  18              		.cfi_sections	.debug_frame
  19              		.file 1 "Drivers/STM32L4xx_HAL_Driver/Src/stm32l4xx_hal_sd.c"
  20              		.section	.rodata.CHANNEL_OFFSET_TAB,"a"
  21              		.align	2
  24              	CHANNEL_OFFSET_TAB:
  25 0000 081C3044 		.ascii	"\010\0340DXl\200"
  25      586C80
  26              		.section	.text.HAL_SD_Init,"ax",%progbits
  27              		.align	1
  28              		.global	HAL_SD_Init
  29              		.syntax unified
  30              		.thumb
  31              		.thumb_func
  33              	HAL_SD_Init:
  34              	.LFB445:
   1:Drivers/STM32L4xx_HAL_Driver/Src/stm32l4xx_hal_sd.c **** /**
   2:Drivers/STM32L4xx_HAL_Driver/Src/stm32l4xx_hal_sd.c ****   ******************************************************************************
   3:Drivers/STM32L4xx_HAL_Driver/Src/stm32l4xx_hal_sd.c ****   * @file    stm32l4xx_hal_sd.c
   4:Drivers/STM32L4xx_HAL_Driver/Src/stm32l4xx_hal_sd.c ****   * @author  MCD Application Team
   5:Drivers/STM32L4xx_HAL_Driver/Src/stm32l4xx_hal_sd.c ****   * @brief   SD card HAL module driver.
   6:Drivers/STM32L4xx_HAL_Driver/Src/stm32l4xx_hal_sd.c ****   *          This file provides firmware functions to manage the following
   7:Drivers/STM32L4xx_HAL_Driver/Src/stm32l4xx_hal_sd.c ****   *          functionalities of the Secure Digital (SD) peripheral:
   8:Drivers/STM32L4xx_HAL_Driver/Src/stm32l4xx_hal_sd.c ****   *           + Initialization and de-initialization functions
   9:Drivers/STM32L4xx_HAL_Driver/Src/stm32l4xx_hal_sd.c ****   *           + IO operation functions
  10:Drivers/STM32L4xx_HAL_Driver/Src/stm32l4xx_hal_sd.c ****   *           + Peripheral Control functions
  11:Drivers/STM32L4xx_HAL_Driver/Src/stm32l4xx_hal_sd.c ****   *           + Peripheral State functions
  12:Drivers/STM32L4xx_HAL_Driver/Src/stm32l4xx_hal_sd.c ****   *
  13:Drivers/STM32L4xx_HAL_Driver/Src/stm32l4xx_hal_sd.c ****   ******************************************************************************
  14:Drivers/STM32L4xx_HAL_Driver/Src/stm32l4xx_hal_sd.c ****   * @attention
  15:Drivers/STM32L4xx_HAL_Driver/Src/stm32l4xx_hal_sd.c ****   *
  16:Drivers/STM32L4xx_HAL_Driver/Src/stm32l4xx_hal_sd.c ****   * Copyright (c) 2017 STMicroelectronics.
  17:Drivers/STM32L4xx_HAL_Driver/Src/stm32l4xx_hal_sd.c ****   * All rights reserved.
  18:Drivers/STM32L4xx_HAL_Driver/Src/stm32l4xx_hal_sd.c ****   *
  19:Drivers/STM32L4xx_HAL_Driver/Src/stm32l4xx_hal_sd.c ****   * This software is licensed under terms that can be found in the LICENSE file
  20:Drivers/STM32L4xx_HAL_Driver/Src/stm32l4xx_hal_sd.c ****   * in the root directory of this software component.
  21:Drivers/STM32L4xx_HAL_Driver/Src/stm32l4xx_hal_sd.c ****   * If no LICENSE file comes with this software, it is provided AS-IS.
  22:Drivers/STM32L4xx_HAL_Driver/Src/stm32l4xx_hal_sd.c ****   *
  23:Drivers/STM32L4xx_HAL_Driver/Src/stm32l4xx_hal_sd.c ****   ******************************************************************************
  24:Drivers/STM32L4xx_HAL_Driver/Src/stm32l4xx_hal_sd.c ****   @verbatim
  25:Drivers/STM32L4xx_HAL_Driver/Src/stm32l4xx_hal_sd.c ****   ==============================================================================
ARM GAS  /tmp/ccsLb3N5.s 			page 2


  26:Drivers/STM32L4xx_HAL_Driver/Src/stm32l4xx_hal_sd.c ****                         ##### How to use this driver #####
  27:Drivers/STM32L4xx_HAL_Driver/Src/stm32l4xx_hal_sd.c ****   ==============================================================================
  28:Drivers/STM32L4xx_HAL_Driver/Src/stm32l4xx_hal_sd.c ****   [..]
  29:Drivers/STM32L4xx_HAL_Driver/Src/stm32l4xx_hal_sd.c ****     This driver implements a high level communication layer for read and write from/to
  30:Drivers/STM32L4xx_HAL_Driver/Src/stm32l4xx_hal_sd.c ****     this memory. The needed STM32 hardware resources (SDMMC and GPIO) are performed by
  31:Drivers/STM32L4xx_HAL_Driver/Src/stm32l4xx_hal_sd.c ****     the user in HAL_SD_MspInit() function (MSP layer).
  32:Drivers/STM32L4xx_HAL_Driver/Src/stm32l4xx_hal_sd.c ****     Basically, the MSP layer configuration should be the same as we provide in the
  33:Drivers/STM32L4xx_HAL_Driver/Src/stm32l4xx_hal_sd.c ****     examples.
  34:Drivers/STM32L4xx_HAL_Driver/Src/stm32l4xx_hal_sd.c ****     You can easily tailor this configuration according to hardware resources.
  35:Drivers/STM32L4xx_HAL_Driver/Src/stm32l4xx_hal_sd.c **** 
  36:Drivers/STM32L4xx_HAL_Driver/Src/stm32l4xx_hal_sd.c ****   [..]
  37:Drivers/STM32L4xx_HAL_Driver/Src/stm32l4xx_hal_sd.c ****     This driver is a generic layered driver for SDMMC memories which uses the HAL
  38:Drivers/STM32L4xx_HAL_Driver/Src/stm32l4xx_hal_sd.c ****     SDMMC driver functions to interface with SD and uSD cards devices.
  39:Drivers/STM32L4xx_HAL_Driver/Src/stm32l4xx_hal_sd.c ****     It is used as follows:
  40:Drivers/STM32L4xx_HAL_Driver/Src/stm32l4xx_hal_sd.c **** 
  41:Drivers/STM32L4xx_HAL_Driver/Src/stm32l4xx_hal_sd.c ****     (#)Initialize the SDMMC low level resources by implementing the HAL_SD_MspInit() API:
  42:Drivers/STM32L4xx_HAL_Driver/Src/stm32l4xx_hal_sd.c ****         (##) Call the function HAL_RCCEx_PeriphCLKConfig with RCC_PERIPHCLK_SDMMC1 for
  43:Drivers/STM32L4xx_HAL_Driver/Src/stm32l4xx_hal_sd.c ****         PeriphClockSelection and select SDMMC1 clock source (MSI, main PLL or PLLSAI1)
  44:Drivers/STM32L4xx_HAL_Driver/Src/stm32l4xx_hal_sd.c ****         (##) Enable the SDMMC interface clock using __HAL_RCC_SDMMC1_CLK_ENABLE();
  45:Drivers/STM32L4xx_HAL_Driver/Src/stm32l4xx_hal_sd.c ****         (##) SDMMC pins configuration for SD card
  46:Drivers/STM32L4xx_HAL_Driver/Src/stm32l4xx_hal_sd.c ****             (+++) Enable the clock for the SDMMC GPIOs using the functions __HAL_RCC_GPIOx_CLK_ENAB
  47:Drivers/STM32L4xx_HAL_Driver/Src/stm32l4xx_hal_sd.c ****             (+++) Configure these SDMMC pins as alternate function pull-up using HAL_GPIO_Init()
  48:Drivers/STM32L4xx_HAL_Driver/Src/stm32l4xx_hal_sd.c ****                   and according to your pin assignment;
  49:Drivers/STM32L4xx_HAL_Driver/Src/stm32l4xx_hal_sd.c ****         (##) On STM32L4Rx/STM32L4Sxx devices, no DMA configuration is needed,
  50:Drivers/STM32L4xx_HAL_Driver/Src/stm32l4xx_hal_sd.c ****         (##) An internal DMA for SDMMC Peripheral is used.
  51:Drivers/STM32L4xx_HAL_Driver/Src/stm32l4xx_hal_sd.c ****         (##) On other devices, perform DMA configuration if you need to use DMA process (HAL_SD_Rea
  52:Drivers/STM32L4xx_HAL_Driver/Src/stm32l4xx_hal_sd.c ****              and HAL_SD_WriteBlocks_DMA() APIs).
  53:Drivers/STM32L4xx_HAL_Driver/Src/stm32l4xx_hal_sd.c ****             (+++) Enable the DMAx interface clock using __HAL_RCC_DMAx_CLK_ENABLE();
  54:Drivers/STM32L4xx_HAL_Driver/Src/stm32l4xx_hal_sd.c ****             (+++) Configure the DMA using the function HAL_DMA_Init() with predeclared and filled.
  55:Drivers/STM32L4xx_HAL_Driver/Src/stm32l4xx_hal_sd.c ****         (##) NVIC configuration if you need to use interrupt process when using DMA transfer.
  56:Drivers/STM32L4xx_HAL_Driver/Src/stm32l4xx_hal_sd.c ****             (+++) Configure the SDMMC and DMA interrupt priorities using functions
  57:Drivers/STM32L4xx_HAL_Driver/Src/stm32l4xx_hal_sd.c ****                   HAL_NVIC_SetPriority(); DMA priority is superior to SDMMC's priority
  58:Drivers/STM32L4xx_HAL_Driver/Src/stm32l4xx_hal_sd.c ****             (+++) Enable the NVIC DMA and SDMMC IRQs using function HAL_NVIC_EnableIRQ()
  59:Drivers/STM32L4xx_HAL_Driver/Src/stm32l4xx_hal_sd.c ****             (+++) SDMMC interrupts are managed using the macros __HAL_SD_ENABLE_IT()
  60:Drivers/STM32L4xx_HAL_Driver/Src/stm32l4xx_hal_sd.c ****                   and __HAL_SD_DISABLE_IT() inside the communication process.
  61:Drivers/STM32L4xx_HAL_Driver/Src/stm32l4xx_hal_sd.c ****             (+++) SDMMC interrupts pending bits are managed using the macros __HAL_SD_GET_IT()
  62:Drivers/STM32L4xx_HAL_Driver/Src/stm32l4xx_hal_sd.c ****                   and __HAL_SD_CLEAR_IT()
  63:Drivers/STM32L4xx_HAL_Driver/Src/stm32l4xx_hal_sd.c ****         (##) NVIC configuration if you need to use interrupt process (HAL_SD_ReadBlocks_IT()
  64:Drivers/STM32L4xx_HAL_Driver/Src/stm32l4xx_hal_sd.c ****              and HAL_SD_WriteBlocks_IT() APIs).
  65:Drivers/STM32L4xx_HAL_Driver/Src/stm32l4xx_hal_sd.c ****             (+++) Configure the SDMMC interrupt priorities using function HAL_NVIC_SetPriority();
  66:Drivers/STM32L4xx_HAL_Driver/Src/stm32l4xx_hal_sd.c ****             (+++) Enable the NVIC SDMMC IRQs using function HAL_NVIC_EnableIRQ()
  67:Drivers/STM32L4xx_HAL_Driver/Src/stm32l4xx_hal_sd.c ****             (+++) SDMMC interrupts are managed using the macros __HAL_SD_ENABLE_IT()
  68:Drivers/STM32L4xx_HAL_Driver/Src/stm32l4xx_hal_sd.c ****                   and __HAL_SD_DISABLE_IT() inside the communication process.
  69:Drivers/STM32L4xx_HAL_Driver/Src/stm32l4xx_hal_sd.c ****             (+++) SDMMC interrupts pending bits are managed using the macros __HAL_SD_GET_IT()
  70:Drivers/STM32L4xx_HAL_Driver/Src/stm32l4xx_hal_sd.c ****                   and __HAL_SD_CLEAR_IT()
  71:Drivers/STM32L4xx_HAL_Driver/Src/stm32l4xx_hal_sd.c ****     (#) At this stage, you can perform SD read/write/erase operations after SD card initialization
  72:Drivers/STM32L4xx_HAL_Driver/Src/stm32l4xx_hal_sd.c **** 
  73:Drivers/STM32L4xx_HAL_Driver/Src/stm32l4xx_hal_sd.c **** 
  74:Drivers/STM32L4xx_HAL_Driver/Src/stm32l4xx_hal_sd.c ****   *** SD Card Initialization and configuration ***
  75:Drivers/STM32L4xx_HAL_Driver/Src/stm32l4xx_hal_sd.c ****   ================================================
  76:Drivers/STM32L4xx_HAL_Driver/Src/stm32l4xx_hal_sd.c ****   [..]
  77:Drivers/STM32L4xx_HAL_Driver/Src/stm32l4xx_hal_sd.c ****     To initialize the SD Card, use the HAL_SD_Init() function. It Initializes
  78:Drivers/STM32L4xx_HAL_Driver/Src/stm32l4xx_hal_sd.c ****     SDMMC Peripheral(STM32 side) and the SD Card, and put it into StandBy State (Ready for data tra
  79:Drivers/STM32L4xx_HAL_Driver/Src/stm32l4xx_hal_sd.c ****     This function provide the following operations:
  80:Drivers/STM32L4xx_HAL_Driver/Src/stm32l4xx_hal_sd.c **** 
  81:Drivers/STM32L4xx_HAL_Driver/Src/stm32l4xx_hal_sd.c ****     (#) Apply the SD Card initialization process at 400KHz and check the SD Card
  82:Drivers/STM32L4xx_HAL_Driver/Src/stm32l4xx_hal_sd.c ****         type (Standard Capacity or High Capacity). You can change or adapt this
ARM GAS  /tmp/ccsLb3N5.s 			page 3


  83:Drivers/STM32L4xx_HAL_Driver/Src/stm32l4xx_hal_sd.c ****         frequency by adjusting the "ClockDiv" field.
  84:Drivers/STM32L4xx_HAL_Driver/Src/stm32l4xx_hal_sd.c ****         The SD Card frequency (SDMMC_CK) is computed as follows:
  85:Drivers/STM32L4xx_HAL_Driver/Src/stm32l4xx_hal_sd.c **** 
  86:Drivers/STM32L4xx_HAL_Driver/Src/stm32l4xx_hal_sd.c ****            SDMMC_CK = SDMMCCLK / (2 * ClockDiv) on STM32L4Rx/STM32L4Sxx devices
  87:Drivers/STM32L4xx_HAL_Driver/Src/stm32l4xx_hal_sd.c ****            SDMMC_CK = SDMMCCLK / (ClockDiv + 2) on other devices
  88:Drivers/STM32L4xx_HAL_Driver/Src/stm32l4xx_hal_sd.c **** 
  89:Drivers/STM32L4xx_HAL_Driver/Src/stm32l4xx_hal_sd.c ****         In initialization mode and according to the SD Card standard,
  90:Drivers/STM32L4xx_HAL_Driver/Src/stm32l4xx_hal_sd.c ****         make sure that the SDMMC_CK frequency doesn't exceed 400KHz.
  91:Drivers/STM32L4xx_HAL_Driver/Src/stm32l4xx_hal_sd.c **** 
  92:Drivers/STM32L4xx_HAL_Driver/Src/stm32l4xx_hal_sd.c ****         This phase of initialization is done through SDMMC_Init() and
  93:Drivers/STM32L4xx_HAL_Driver/Src/stm32l4xx_hal_sd.c ****         SDMMC_PowerState_ON() SDMMC low level APIs.
  94:Drivers/STM32L4xx_HAL_Driver/Src/stm32l4xx_hal_sd.c **** 
  95:Drivers/STM32L4xx_HAL_Driver/Src/stm32l4xx_hal_sd.c ****     (#) Initialize the SD card. The API used is HAL_SD_InitCard().
  96:Drivers/STM32L4xx_HAL_Driver/Src/stm32l4xx_hal_sd.c ****         This phase allows the card initialization and identification
  97:Drivers/STM32L4xx_HAL_Driver/Src/stm32l4xx_hal_sd.c ****         and check the SD Card type (Standard Capacity or High Capacity)
  98:Drivers/STM32L4xx_HAL_Driver/Src/stm32l4xx_hal_sd.c ****         The initialization flow is compatible with SD standard.
  99:Drivers/STM32L4xx_HAL_Driver/Src/stm32l4xx_hal_sd.c **** 
 100:Drivers/STM32L4xx_HAL_Driver/Src/stm32l4xx_hal_sd.c ****         This API (HAL_SD_InitCard()) could be used also to reinitialize the card in case
 101:Drivers/STM32L4xx_HAL_Driver/Src/stm32l4xx_hal_sd.c ****         of plug-off plug-in.
 102:Drivers/STM32L4xx_HAL_Driver/Src/stm32l4xx_hal_sd.c **** 
 103:Drivers/STM32L4xx_HAL_Driver/Src/stm32l4xx_hal_sd.c ****     (#) Configure the SD Card Data transfer frequency. You can change or adapt this
 104:Drivers/STM32L4xx_HAL_Driver/Src/stm32l4xx_hal_sd.c ****         frequency by adjusting the "ClockDiv" field.
 105:Drivers/STM32L4xx_HAL_Driver/Src/stm32l4xx_hal_sd.c ****         In transfer mode and according to the SD Card standard, make sure that the
 106:Drivers/STM32L4xx_HAL_Driver/Src/stm32l4xx_hal_sd.c ****     SDMMC_CK frequency doesn't exceed 25MHz and 100MHz in High-speed mode switch.
 107:Drivers/STM32L4xx_HAL_Driver/Src/stm32l4xx_hal_sd.c **** 
 108:Drivers/STM32L4xx_HAL_Driver/Src/stm32l4xx_hal_sd.c ****     (#) Select the corresponding SD Card according to the address read with the step 2.
 109:Drivers/STM32L4xx_HAL_Driver/Src/stm32l4xx_hal_sd.c **** 
 110:Drivers/STM32L4xx_HAL_Driver/Src/stm32l4xx_hal_sd.c ****     (#) Configure the SD Card in wide bus mode: 4-bits data.
 111:Drivers/STM32L4xx_HAL_Driver/Src/stm32l4xx_hal_sd.c **** 
 112:Drivers/STM32L4xx_HAL_Driver/Src/stm32l4xx_hal_sd.c ****   *** SD Card Read operation ***
 113:Drivers/STM32L4xx_HAL_Driver/Src/stm32l4xx_hal_sd.c ****   ==============================
 114:Drivers/STM32L4xx_HAL_Driver/Src/stm32l4xx_hal_sd.c ****   [..]
 115:Drivers/STM32L4xx_HAL_Driver/Src/stm32l4xx_hal_sd.c ****     (+) You can read from SD card in polling mode by using function HAL_SD_ReadBlocks().
 116:Drivers/STM32L4xx_HAL_Driver/Src/stm32l4xx_hal_sd.c ****         This function support only 512-bytes block length (the block size should be
 117:Drivers/STM32L4xx_HAL_Driver/Src/stm32l4xx_hal_sd.c ****         chosen as 512 bytes).
 118:Drivers/STM32L4xx_HAL_Driver/Src/stm32l4xx_hal_sd.c ****         You can choose either one block read operation or multiple block read operation
 119:Drivers/STM32L4xx_HAL_Driver/Src/stm32l4xx_hal_sd.c ****         by adjusting the "NumberOfBlocks" parameter.
 120:Drivers/STM32L4xx_HAL_Driver/Src/stm32l4xx_hal_sd.c ****         After this, you have to ensure that the transfer is done correctly. The check is done
 121:Drivers/STM32L4xx_HAL_Driver/Src/stm32l4xx_hal_sd.c ****         through HAL_SD_GetCardState() function for SD card state.
 122:Drivers/STM32L4xx_HAL_Driver/Src/stm32l4xx_hal_sd.c **** 
 123:Drivers/STM32L4xx_HAL_Driver/Src/stm32l4xx_hal_sd.c ****     (+) You can read from SD card in DMA mode by using function HAL_SD_ReadBlocks_DMA().
 124:Drivers/STM32L4xx_HAL_Driver/Src/stm32l4xx_hal_sd.c ****         This function support only 512-bytes block length (the block size should be
 125:Drivers/STM32L4xx_HAL_Driver/Src/stm32l4xx_hal_sd.c ****         chosen as 512 bytes).
 126:Drivers/STM32L4xx_HAL_Driver/Src/stm32l4xx_hal_sd.c ****         You can choose either one block read operation or multiple block read operation
 127:Drivers/STM32L4xx_HAL_Driver/Src/stm32l4xx_hal_sd.c ****         by adjusting the "NumberOfBlocks" parameter.
 128:Drivers/STM32L4xx_HAL_Driver/Src/stm32l4xx_hal_sd.c ****         After this, you have to ensure that the transfer is done correctly. The check is done
 129:Drivers/STM32L4xx_HAL_Driver/Src/stm32l4xx_hal_sd.c ****         through HAL_SD_GetCardState() function for SD card state.
 130:Drivers/STM32L4xx_HAL_Driver/Src/stm32l4xx_hal_sd.c ****         You could also check the DMA transfer process through the SD Rx interrupt event.
 131:Drivers/STM32L4xx_HAL_Driver/Src/stm32l4xx_hal_sd.c **** 
 132:Drivers/STM32L4xx_HAL_Driver/Src/stm32l4xx_hal_sd.c ****     (+) You can read from SD card in Interrupt mode by using function HAL_SD_ReadBlocks_IT().
 133:Drivers/STM32L4xx_HAL_Driver/Src/stm32l4xx_hal_sd.c ****         This function support only 512-bytes block length (the block size should be
 134:Drivers/STM32L4xx_HAL_Driver/Src/stm32l4xx_hal_sd.c ****         chosen as 512 bytes).
 135:Drivers/STM32L4xx_HAL_Driver/Src/stm32l4xx_hal_sd.c ****         You can choose either one block read operation or multiple block read operation
 136:Drivers/STM32L4xx_HAL_Driver/Src/stm32l4xx_hal_sd.c ****         by adjusting the "NumberOfBlocks" parameter.
 137:Drivers/STM32L4xx_HAL_Driver/Src/stm32l4xx_hal_sd.c ****         After this, you have to ensure that the transfer is done correctly. The check is done
 138:Drivers/STM32L4xx_HAL_Driver/Src/stm32l4xx_hal_sd.c ****         through HAL_SD_GetCardState() function for SD card state.
 139:Drivers/STM32L4xx_HAL_Driver/Src/stm32l4xx_hal_sd.c ****         You could also check the IT transfer process through the SD Rx interrupt event.
ARM GAS  /tmp/ccsLb3N5.s 			page 4


 140:Drivers/STM32L4xx_HAL_Driver/Src/stm32l4xx_hal_sd.c **** 
 141:Drivers/STM32L4xx_HAL_Driver/Src/stm32l4xx_hal_sd.c ****   *** SD Card Write operation ***
 142:Drivers/STM32L4xx_HAL_Driver/Src/stm32l4xx_hal_sd.c ****   ===============================
 143:Drivers/STM32L4xx_HAL_Driver/Src/stm32l4xx_hal_sd.c ****   [..]
 144:Drivers/STM32L4xx_HAL_Driver/Src/stm32l4xx_hal_sd.c ****     (+) You can write to SD card in polling mode by using function HAL_SD_WriteBlocks().
 145:Drivers/STM32L4xx_HAL_Driver/Src/stm32l4xx_hal_sd.c ****         This function support only 512-bytes block length (the block size should be
 146:Drivers/STM32L4xx_HAL_Driver/Src/stm32l4xx_hal_sd.c ****         chosen as 512 bytes).
 147:Drivers/STM32L4xx_HAL_Driver/Src/stm32l4xx_hal_sd.c ****         You can choose either one block read operation or multiple block read operation
 148:Drivers/STM32L4xx_HAL_Driver/Src/stm32l4xx_hal_sd.c ****         by adjusting the "NumberOfBlocks" parameter.
 149:Drivers/STM32L4xx_HAL_Driver/Src/stm32l4xx_hal_sd.c ****         After this, you have to ensure that the transfer is done correctly. The check is done
 150:Drivers/STM32L4xx_HAL_Driver/Src/stm32l4xx_hal_sd.c ****         through HAL_SD_GetCardState() function for SD card state.
 151:Drivers/STM32L4xx_HAL_Driver/Src/stm32l4xx_hal_sd.c **** 
 152:Drivers/STM32L4xx_HAL_Driver/Src/stm32l4xx_hal_sd.c ****     (+) You can write to SD card in DMA mode by using function HAL_SD_WriteBlocks_DMA().
 153:Drivers/STM32L4xx_HAL_Driver/Src/stm32l4xx_hal_sd.c ****         This function support only 512-bytes block length (the block size should be
 154:Drivers/STM32L4xx_HAL_Driver/Src/stm32l4xx_hal_sd.c ****         chosen as 512 bytes).
 155:Drivers/STM32L4xx_HAL_Driver/Src/stm32l4xx_hal_sd.c ****         You can choose either one block read operation or multiple block read operation
 156:Drivers/STM32L4xx_HAL_Driver/Src/stm32l4xx_hal_sd.c ****         by adjusting the "NumberOfBlocks" parameter.
 157:Drivers/STM32L4xx_HAL_Driver/Src/stm32l4xx_hal_sd.c ****         After this, you have to ensure that the transfer is done correctly. The check is done
 158:Drivers/STM32L4xx_HAL_Driver/Src/stm32l4xx_hal_sd.c ****         through HAL_SD_GetCardState() function for SD card state.
 159:Drivers/STM32L4xx_HAL_Driver/Src/stm32l4xx_hal_sd.c ****         You could also check the DMA transfer process through the SD Tx interrupt event.
 160:Drivers/STM32L4xx_HAL_Driver/Src/stm32l4xx_hal_sd.c **** 
 161:Drivers/STM32L4xx_HAL_Driver/Src/stm32l4xx_hal_sd.c ****     (+) You can write to SD card in Interrupt mode by using function HAL_SD_WriteBlocks_IT().
 162:Drivers/STM32L4xx_HAL_Driver/Src/stm32l4xx_hal_sd.c ****         This function support only 512-bytes block length (the block size should be
 163:Drivers/STM32L4xx_HAL_Driver/Src/stm32l4xx_hal_sd.c ****         chosen as 512 bytes).
 164:Drivers/STM32L4xx_HAL_Driver/Src/stm32l4xx_hal_sd.c ****         You can choose either one block read operation or multiple block read operation
 165:Drivers/STM32L4xx_HAL_Driver/Src/stm32l4xx_hal_sd.c ****         by adjusting the "NumberOfBlocks" parameter.
 166:Drivers/STM32L4xx_HAL_Driver/Src/stm32l4xx_hal_sd.c ****         After this, you have to ensure that the transfer is done correctly. The check is done
 167:Drivers/STM32L4xx_HAL_Driver/Src/stm32l4xx_hal_sd.c ****         through HAL_SD_GetCardState() function for SD card state.
 168:Drivers/STM32L4xx_HAL_Driver/Src/stm32l4xx_hal_sd.c ****         You could also check the IT transfer process through the SD Tx interrupt event.
 169:Drivers/STM32L4xx_HAL_Driver/Src/stm32l4xx_hal_sd.c **** 
 170:Drivers/STM32L4xx_HAL_Driver/Src/stm32l4xx_hal_sd.c ****   *** SD card status ***
 171:Drivers/STM32L4xx_HAL_Driver/Src/stm32l4xx_hal_sd.c ****   ======================
 172:Drivers/STM32L4xx_HAL_Driver/Src/stm32l4xx_hal_sd.c ****   [..]
 173:Drivers/STM32L4xx_HAL_Driver/Src/stm32l4xx_hal_sd.c ****     (+) The SD Status contains status bits that are related to the SD Memory
 174:Drivers/STM32L4xx_HAL_Driver/Src/stm32l4xx_hal_sd.c ****         Card proprietary features. To get SD card status use the HAL_SD_GetCardStatus().
 175:Drivers/STM32L4xx_HAL_Driver/Src/stm32l4xx_hal_sd.c **** 
 176:Drivers/STM32L4xx_HAL_Driver/Src/stm32l4xx_hal_sd.c ****   *** SD card information ***
 177:Drivers/STM32L4xx_HAL_Driver/Src/stm32l4xx_hal_sd.c ****   ===========================
 178:Drivers/STM32L4xx_HAL_Driver/Src/stm32l4xx_hal_sd.c ****   [..]
 179:Drivers/STM32L4xx_HAL_Driver/Src/stm32l4xx_hal_sd.c ****     (+) To get SD card information, you can use the function HAL_SD_GetCardInfo().
 180:Drivers/STM32L4xx_HAL_Driver/Src/stm32l4xx_hal_sd.c ****         It returns useful information about the SD card such as block size, card type,
 181:Drivers/STM32L4xx_HAL_Driver/Src/stm32l4xx_hal_sd.c ****         block number ...
 182:Drivers/STM32L4xx_HAL_Driver/Src/stm32l4xx_hal_sd.c **** 
 183:Drivers/STM32L4xx_HAL_Driver/Src/stm32l4xx_hal_sd.c ****   *** SD card CSD register ***
 184:Drivers/STM32L4xx_HAL_Driver/Src/stm32l4xx_hal_sd.c ****   ============================
 185:Drivers/STM32L4xx_HAL_Driver/Src/stm32l4xx_hal_sd.c ****     (+) The HAL_SD_GetCardCSD() API allows to get the parameters of the CSD register.
 186:Drivers/STM32L4xx_HAL_Driver/Src/stm32l4xx_hal_sd.c ****         Some of the CSD parameters are useful for card initialization and identification.
 187:Drivers/STM32L4xx_HAL_Driver/Src/stm32l4xx_hal_sd.c **** 
 188:Drivers/STM32L4xx_HAL_Driver/Src/stm32l4xx_hal_sd.c ****   *** SD card CID register ***
 189:Drivers/STM32L4xx_HAL_Driver/Src/stm32l4xx_hal_sd.c ****   ============================
 190:Drivers/STM32L4xx_HAL_Driver/Src/stm32l4xx_hal_sd.c ****     (+) The HAL_SD_GetCardCID() API allows to get the parameters of the CID register.
 191:Drivers/STM32L4xx_HAL_Driver/Src/stm32l4xx_hal_sd.c ****         Some of the CSD parameters are useful for card initialization and identification.
 192:Drivers/STM32L4xx_HAL_Driver/Src/stm32l4xx_hal_sd.c **** 
 193:Drivers/STM32L4xx_HAL_Driver/Src/stm32l4xx_hal_sd.c ****   *** SD HAL driver macros list ***
 194:Drivers/STM32L4xx_HAL_Driver/Src/stm32l4xx_hal_sd.c ****   ==================================
 195:Drivers/STM32L4xx_HAL_Driver/Src/stm32l4xx_hal_sd.c ****   [..]
 196:Drivers/STM32L4xx_HAL_Driver/Src/stm32l4xx_hal_sd.c ****     Below the list of most used macros in SD HAL driver.
ARM GAS  /tmp/ccsLb3N5.s 			page 5


 197:Drivers/STM32L4xx_HAL_Driver/Src/stm32l4xx_hal_sd.c **** 
 198:Drivers/STM32L4xx_HAL_Driver/Src/stm32l4xx_hal_sd.c ****     (+) __HAL_SD_ENABLE : Enable the SD device
 199:Drivers/STM32L4xx_HAL_Driver/Src/stm32l4xx_hal_sd.c ****     (+) __HAL_SD_DISABLE : Disable the SD device
 200:Drivers/STM32L4xx_HAL_Driver/Src/stm32l4xx_hal_sd.c ****     (+) __HAL_SD_DMA_ENABLE: Enable the SDMMC DMA transfer
 201:Drivers/STM32L4xx_HAL_Driver/Src/stm32l4xx_hal_sd.c ****     (+) __HAL_SD_DMA_DISABLE: Disable the SDMMC DMA transfer
 202:Drivers/STM32L4xx_HAL_Driver/Src/stm32l4xx_hal_sd.c ****     (+) __HAL_SD_ENABLE_IT: Enable the SD device interrupt
 203:Drivers/STM32L4xx_HAL_Driver/Src/stm32l4xx_hal_sd.c ****     (+) __HAL_SD_DISABLE_IT: Disable the SD device interrupt
 204:Drivers/STM32L4xx_HAL_Driver/Src/stm32l4xx_hal_sd.c ****     (+) __HAL_SD_GET_FLAG:Check whether the specified SD flag is set or not
 205:Drivers/STM32L4xx_HAL_Driver/Src/stm32l4xx_hal_sd.c ****     (+) __HAL_SD_CLEAR_FLAG: Clear the SD's pending flags
 206:Drivers/STM32L4xx_HAL_Driver/Src/stm32l4xx_hal_sd.c **** 
 207:Drivers/STM32L4xx_HAL_Driver/Src/stm32l4xx_hal_sd.c ****     (@) You can refer to the SD HAL driver header file for more useful macros
 208:Drivers/STM32L4xx_HAL_Driver/Src/stm32l4xx_hal_sd.c **** 
 209:Drivers/STM32L4xx_HAL_Driver/Src/stm32l4xx_hal_sd.c ****   *** Callback registration ***
 210:Drivers/STM32L4xx_HAL_Driver/Src/stm32l4xx_hal_sd.c ****   =============================================
 211:Drivers/STM32L4xx_HAL_Driver/Src/stm32l4xx_hal_sd.c ****   [..]
 212:Drivers/STM32L4xx_HAL_Driver/Src/stm32l4xx_hal_sd.c ****     The compilation define USE_HAL_SD_REGISTER_CALLBACKS when set to 1
 213:Drivers/STM32L4xx_HAL_Driver/Src/stm32l4xx_hal_sd.c ****     allows the user to configure dynamically the driver callbacks.
 214:Drivers/STM32L4xx_HAL_Driver/Src/stm32l4xx_hal_sd.c **** 
 215:Drivers/STM32L4xx_HAL_Driver/Src/stm32l4xx_hal_sd.c ****     Use Functions HAL_SD_RegisterCallback() to register a user callback,
 216:Drivers/STM32L4xx_HAL_Driver/Src/stm32l4xx_hal_sd.c ****     it allows to register following callbacks:
 217:Drivers/STM32L4xx_HAL_Driver/Src/stm32l4xx_hal_sd.c ****       (+) TxCpltCallback : callback when a transmission transfer is completed.
 218:Drivers/STM32L4xx_HAL_Driver/Src/stm32l4xx_hal_sd.c ****       (+) RxCpltCallback : callback when a reception transfer is completed.
 219:Drivers/STM32L4xx_HAL_Driver/Src/stm32l4xx_hal_sd.c ****       (+) ErrorCallback : callback when error occurs.
 220:Drivers/STM32L4xx_HAL_Driver/Src/stm32l4xx_hal_sd.c ****       (+) AbortCpltCallback : callback when abort is completed.
 221:Drivers/STM32L4xx_HAL_Driver/Src/stm32l4xx_hal_sd.c ****       (+) Read_DMADblBuf0CpltCallback : callback when the DMA reception of first buffer is complete
 222:Drivers/STM32L4xx_HAL_Driver/Src/stm32l4xx_hal_sd.c ****       (+) Read_DMADblBuf1CpltCallback : callback when the DMA reception of second buffer is complet
 223:Drivers/STM32L4xx_HAL_Driver/Src/stm32l4xx_hal_sd.c ****       (+) Write_DMADblBuf0CpltCallback : callback when the DMA transmission of first buffer is comp
 224:Drivers/STM32L4xx_HAL_Driver/Src/stm32l4xx_hal_sd.c ****       (+) Write_DMADblBuf1CpltCallback : callback when the DMA transmission of second buffer is com
 225:Drivers/STM32L4xx_HAL_Driver/Src/stm32l4xx_hal_sd.c ****       (+) MspInitCallback    : SD MspInit.
 226:Drivers/STM32L4xx_HAL_Driver/Src/stm32l4xx_hal_sd.c ****       (+) MspDeInitCallback  : SD MspDeInit.
 227:Drivers/STM32L4xx_HAL_Driver/Src/stm32l4xx_hal_sd.c ****     This function takes as parameters the HAL peripheral handle, the Callback ID
 228:Drivers/STM32L4xx_HAL_Driver/Src/stm32l4xx_hal_sd.c ****     and a pointer to the user callback function.
 229:Drivers/STM32L4xx_HAL_Driver/Src/stm32l4xx_hal_sd.c ****     For specific callbacks TransceiverCallback use dedicated register callbacks:
 230:Drivers/STM32L4xx_HAL_Driver/Src/stm32l4xx_hal_sd.c ****     respectively HAL_SD_RegisterTransceiverCallback().
 231:Drivers/STM32L4xx_HAL_Driver/Src/stm32l4xx_hal_sd.c **** 
 232:Drivers/STM32L4xx_HAL_Driver/Src/stm32l4xx_hal_sd.c ****     Use function HAL_SD_UnRegisterCallback() to reset a callback to the default
 233:Drivers/STM32L4xx_HAL_Driver/Src/stm32l4xx_hal_sd.c ****     weak (surcharged) function. It allows to reset following callbacks:
 234:Drivers/STM32L4xx_HAL_Driver/Src/stm32l4xx_hal_sd.c ****       (+) TxCpltCallback : callback when a transmission transfer is completed.
 235:Drivers/STM32L4xx_HAL_Driver/Src/stm32l4xx_hal_sd.c ****       (+) RxCpltCallback : callback when a reception transfer is completed.
 236:Drivers/STM32L4xx_HAL_Driver/Src/stm32l4xx_hal_sd.c ****       (+) ErrorCallback : callback when error occurs.
 237:Drivers/STM32L4xx_HAL_Driver/Src/stm32l4xx_hal_sd.c ****       (+) AbortCpltCallback : callback when abort is completed.
 238:Drivers/STM32L4xx_HAL_Driver/Src/stm32l4xx_hal_sd.c ****       (+) Read_DMADblBuf0CpltCallback : callback when the DMA reception of first buffer is complete
 239:Drivers/STM32L4xx_HAL_Driver/Src/stm32l4xx_hal_sd.c ****       (+) Read_DMADblBuf1CpltCallback : callback when the DMA reception of second buffer is complet
 240:Drivers/STM32L4xx_HAL_Driver/Src/stm32l4xx_hal_sd.c ****       (+) Write_DMADblBuf0CpltCallback : callback when the DMA transmission of first buffer is comp
 241:Drivers/STM32L4xx_HAL_Driver/Src/stm32l4xx_hal_sd.c ****       (+) Write_DMADblBuf1CpltCallback : callback when the DMA transmission of second buffer is com
 242:Drivers/STM32L4xx_HAL_Driver/Src/stm32l4xx_hal_sd.c ****       (+) MspInitCallback    : SD MspInit.
 243:Drivers/STM32L4xx_HAL_Driver/Src/stm32l4xx_hal_sd.c ****       (+) MspDeInitCallback  : SD MspDeInit.
 244:Drivers/STM32L4xx_HAL_Driver/Src/stm32l4xx_hal_sd.c ****     This function) takes as parameters the HAL peripheral handle and the Callback ID.
 245:Drivers/STM32L4xx_HAL_Driver/Src/stm32l4xx_hal_sd.c ****     For specific callbacks TransceiverCallback use dedicated unregister callbacks:
 246:Drivers/STM32L4xx_HAL_Driver/Src/stm32l4xx_hal_sd.c ****     respectively HAL_SD_UnRegisterTransceiverCallback().
 247:Drivers/STM32L4xx_HAL_Driver/Src/stm32l4xx_hal_sd.c **** 
 248:Drivers/STM32L4xx_HAL_Driver/Src/stm32l4xx_hal_sd.c ****     By default, after the HAL_SD_Init and if the state is HAL_SD_STATE_RESET
 249:Drivers/STM32L4xx_HAL_Driver/Src/stm32l4xx_hal_sd.c ****     all callbacks are reset to the corresponding legacy weak (surcharged) functions.
 250:Drivers/STM32L4xx_HAL_Driver/Src/stm32l4xx_hal_sd.c ****     Exception done for MspInit and MspDeInit callbacks that are respectively
 251:Drivers/STM32L4xx_HAL_Driver/Src/stm32l4xx_hal_sd.c ****     reset to the legacy weak (surcharged) functions in the HAL_SD_Init
 252:Drivers/STM32L4xx_HAL_Driver/Src/stm32l4xx_hal_sd.c ****     and  HAL_SD_DeInit only when these callbacks are null (not registered beforehand).
 253:Drivers/STM32L4xx_HAL_Driver/Src/stm32l4xx_hal_sd.c ****     If not, MspInit or MspDeInit are not null, the HAL_SD_Init and HAL_SD_DeInit
ARM GAS  /tmp/ccsLb3N5.s 			page 6


 254:Drivers/STM32L4xx_HAL_Driver/Src/stm32l4xx_hal_sd.c ****     keep and use the user MspInit/MspDeInit callbacks (registered beforehand)
 255:Drivers/STM32L4xx_HAL_Driver/Src/stm32l4xx_hal_sd.c **** 
 256:Drivers/STM32L4xx_HAL_Driver/Src/stm32l4xx_hal_sd.c ****     Callbacks can be registered/unregistered in READY state only.
 257:Drivers/STM32L4xx_HAL_Driver/Src/stm32l4xx_hal_sd.c ****     Exception done for MspInit/MspDeInit callbacks that can be registered/unregistered
 258:Drivers/STM32L4xx_HAL_Driver/Src/stm32l4xx_hal_sd.c ****     in READY or RESET state, thus registered (user) MspInit/DeInit callbacks can be used
 259:Drivers/STM32L4xx_HAL_Driver/Src/stm32l4xx_hal_sd.c ****     during the Init/DeInit.
 260:Drivers/STM32L4xx_HAL_Driver/Src/stm32l4xx_hal_sd.c ****     In that case first register the MspInit/MspDeInit user callbacks
 261:Drivers/STM32L4xx_HAL_Driver/Src/stm32l4xx_hal_sd.c ****     using HAL_SD_RegisterCallback before calling HAL_SD_DeInit
 262:Drivers/STM32L4xx_HAL_Driver/Src/stm32l4xx_hal_sd.c ****     or HAL_SD_Init function.
 263:Drivers/STM32L4xx_HAL_Driver/Src/stm32l4xx_hal_sd.c **** 
 264:Drivers/STM32L4xx_HAL_Driver/Src/stm32l4xx_hal_sd.c ****     When The compilation define USE_HAL_SD_REGISTER_CALLBACKS is set to 0 or
 265:Drivers/STM32L4xx_HAL_Driver/Src/stm32l4xx_hal_sd.c ****     not defined, the callback registering feature is not available
 266:Drivers/STM32L4xx_HAL_Driver/Src/stm32l4xx_hal_sd.c ****     and weak (surcharged) callbacks are used.
 267:Drivers/STM32L4xx_HAL_Driver/Src/stm32l4xx_hal_sd.c **** 
 268:Drivers/STM32L4xx_HAL_Driver/Src/stm32l4xx_hal_sd.c ****   @endverbatim
 269:Drivers/STM32L4xx_HAL_Driver/Src/stm32l4xx_hal_sd.c ****   ******************************************************************************
 270:Drivers/STM32L4xx_HAL_Driver/Src/stm32l4xx_hal_sd.c ****   */
 271:Drivers/STM32L4xx_HAL_Driver/Src/stm32l4xx_hal_sd.c **** 
 272:Drivers/STM32L4xx_HAL_Driver/Src/stm32l4xx_hal_sd.c **** /* Includes ------------------------------------------------------------------*/
 273:Drivers/STM32L4xx_HAL_Driver/Src/stm32l4xx_hal_sd.c **** #include "stm32l4xx_hal.h"
 274:Drivers/STM32L4xx_HAL_Driver/Src/stm32l4xx_hal_sd.c **** 
 275:Drivers/STM32L4xx_HAL_Driver/Src/stm32l4xx_hal_sd.c **** #if defined(SDMMC1)
 276:Drivers/STM32L4xx_HAL_Driver/Src/stm32l4xx_hal_sd.c **** 
 277:Drivers/STM32L4xx_HAL_Driver/Src/stm32l4xx_hal_sd.c **** /** @addtogroup STM32L4xx_HAL_Driver
 278:Drivers/STM32L4xx_HAL_Driver/Src/stm32l4xx_hal_sd.c ****   * @{
 279:Drivers/STM32L4xx_HAL_Driver/Src/stm32l4xx_hal_sd.c ****   */
 280:Drivers/STM32L4xx_HAL_Driver/Src/stm32l4xx_hal_sd.c **** 
 281:Drivers/STM32L4xx_HAL_Driver/Src/stm32l4xx_hal_sd.c **** /** @addtogroup SD
 282:Drivers/STM32L4xx_HAL_Driver/Src/stm32l4xx_hal_sd.c ****   * @{
 283:Drivers/STM32L4xx_HAL_Driver/Src/stm32l4xx_hal_sd.c ****   */
 284:Drivers/STM32L4xx_HAL_Driver/Src/stm32l4xx_hal_sd.c **** 
 285:Drivers/STM32L4xx_HAL_Driver/Src/stm32l4xx_hal_sd.c **** #ifdef HAL_SD_MODULE_ENABLED
 286:Drivers/STM32L4xx_HAL_Driver/Src/stm32l4xx_hal_sd.c **** 
 287:Drivers/STM32L4xx_HAL_Driver/Src/stm32l4xx_hal_sd.c **** /* Private typedef -----------------------------------------------------------*/
 288:Drivers/STM32L4xx_HAL_Driver/Src/stm32l4xx_hal_sd.c **** /* Private define ------------------------------------------------------------*/
 289:Drivers/STM32L4xx_HAL_Driver/Src/stm32l4xx_hal_sd.c **** /** @addtogroup SD_Private_Defines
 290:Drivers/STM32L4xx_HAL_Driver/Src/stm32l4xx_hal_sd.c ****   * @{
 291:Drivers/STM32L4xx_HAL_Driver/Src/stm32l4xx_hal_sd.c ****   */
 292:Drivers/STM32L4xx_HAL_Driver/Src/stm32l4xx_hal_sd.c **** 
 293:Drivers/STM32L4xx_HAL_Driver/Src/stm32l4xx_hal_sd.c **** /* Frequencies used in the driver for clock divider calculation */
 294:Drivers/STM32L4xx_HAL_Driver/Src/stm32l4xx_hal_sd.c **** #define SD_INIT_FREQ                   400000U   /* Initialization phase : 400 kHz max */
 295:Drivers/STM32L4xx_HAL_Driver/Src/stm32l4xx_hal_sd.c **** #define SD_NORMAL_SPEED_FREQ           25000000U /* Normal speed phase : 25 MHz max */
 296:Drivers/STM32L4xx_HAL_Driver/Src/stm32l4xx_hal_sd.c **** #define SD_HIGH_SPEED_FREQ             50000000U /* High speed phase : 50 MHz max */
 297:Drivers/STM32L4xx_HAL_Driver/Src/stm32l4xx_hal_sd.c **** /**
 298:Drivers/STM32L4xx_HAL_Driver/Src/stm32l4xx_hal_sd.c ****   * @}
 299:Drivers/STM32L4xx_HAL_Driver/Src/stm32l4xx_hal_sd.c ****   */
 300:Drivers/STM32L4xx_HAL_Driver/Src/stm32l4xx_hal_sd.c **** 
 301:Drivers/STM32L4xx_HAL_Driver/Src/stm32l4xx_hal_sd.c **** /* Private macro -------------------------------------------------------------*/
 302:Drivers/STM32L4xx_HAL_Driver/Src/stm32l4xx_hal_sd.c **** /* Private variables ---------------------------------------------------------*/
 303:Drivers/STM32L4xx_HAL_Driver/Src/stm32l4xx_hal_sd.c **** /* Private function prototypes -----------------------------------------------*/
 304:Drivers/STM32L4xx_HAL_Driver/Src/stm32l4xx_hal_sd.c **** /* Private functions ---------------------------------------------------------*/
 305:Drivers/STM32L4xx_HAL_Driver/Src/stm32l4xx_hal_sd.c **** /** @defgroup SD_Private_Functions SD Private Functions
 306:Drivers/STM32L4xx_HAL_Driver/Src/stm32l4xx_hal_sd.c ****   * @{
 307:Drivers/STM32L4xx_HAL_Driver/Src/stm32l4xx_hal_sd.c ****   */
 308:Drivers/STM32L4xx_HAL_Driver/Src/stm32l4xx_hal_sd.c **** static uint32_t SD_InitCard(SD_HandleTypeDef *hsd);
 309:Drivers/STM32L4xx_HAL_Driver/Src/stm32l4xx_hal_sd.c **** static uint32_t SD_PowerON(SD_HandleTypeDef *hsd);
 310:Drivers/STM32L4xx_HAL_Driver/Src/stm32l4xx_hal_sd.c **** static uint32_t SD_SendSDStatus(SD_HandleTypeDef *hsd, uint32_t *pSDstatus);
ARM GAS  /tmp/ccsLb3N5.s 			page 7


 311:Drivers/STM32L4xx_HAL_Driver/Src/stm32l4xx_hal_sd.c **** static uint32_t SD_SendStatus(SD_HandleTypeDef *hsd, uint32_t *pCardStatus);
 312:Drivers/STM32L4xx_HAL_Driver/Src/stm32l4xx_hal_sd.c **** static uint32_t SD_WideBus_Enable(SD_HandleTypeDef *hsd);
 313:Drivers/STM32L4xx_HAL_Driver/Src/stm32l4xx_hal_sd.c **** static uint32_t SD_WideBus_Disable(SD_HandleTypeDef *hsd);
 314:Drivers/STM32L4xx_HAL_Driver/Src/stm32l4xx_hal_sd.c **** static uint32_t SD_FindSCR(SD_HandleTypeDef *hsd, uint32_t *pSCR);
 315:Drivers/STM32L4xx_HAL_Driver/Src/stm32l4xx_hal_sd.c **** static void SD_PowerOFF(SD_HandleTypeDef *hsd);
 316:Drivers/STM32L4xx_HAL_Driver/Src/stm32l4xx_hal_sd.c **** static void SD_Write_IT(SD_HandleTypeDef *hsd);
 317:Drivers/STM32L4xx_HAL_Driver/Src/stm32l4xx_hal_sd.c **** static void SD_Read_IT(SD_HandleTypeDef *hsd);
 318:Drivers/STM32L4xx_HAL_Driver/Src/stm32l4xx_hal_sd.c **** #if !defined(STM32L4P5xx) && !defined(STM32L4Q5xx) && !defined(STM32L4R5xx) && !defined(STM32L4R7xx
 319:Drivers/STM32L4xx_HAL_Driver/Src/stm32l4xx_hal_sd.c **** static void     SD_DMATransmitCplt(DMA_HandleTypeDef *hdma);
 320:Drivers/STM32L4xx_HAL_Driver/Src/stm32l4xx_hal_sd.c **** static void     SD_DMAReceiveCplt(DMA_HandleTypeDef *hdma);
 321:Drivers/STM32L4xx_HAL_Driver/Src/stm32l4xx_hal_sd.c **** static void     SD_DMAError(DMA_HandleTypeDef *hdma);
 322:Drivers/STM32L4xx_HAL_Driver/Src/stm32l4xx_hal_sd.c **** static void     SD_DMATxAbort(DMA_HandleTypeDef *hdma);
 323:Drivers/STM32L4xx_HAL_Driver/Src/stm32l4xx_hal_sd.c **** static void     SD_DMARxAbort(DMA_HandleTypeDef *hdma);
 324:Drivers/STM32L4xx_HAL_Driver/Src/stm32l4xx_hal_sd.c **** #else
 325:Drivers/STM32L4xx_HAL_Driver/Src/stm32l4xx_hal_sd.c **** static uint32_t SD_UltraHighSpeed(SD_HandleTypeDef *hsd);
 326:Drivers/STM32L4xx_HAL_Driver/Src/stm32l4xx_hal_sd.c **** static uint32_t SD_DDR_Mode(SD_HandleTypeDef *hsd);
 327:Drivers/STM32L4xx_HAL_Driver/Src/stm32l4xx_hal_sd.c **** #endif /* !STM32L4P5xx && !STM32L4Q5xx && !STM32L4R5xx && !STM32L4R7xx && !STM32L4R9xx \
 328:Drivers/STM32L4xx_HAL_Driver/Src/stm32l4xx_hal_sd.c ****           && !STM32L4S5xx && !STM32L4S7xx && !STM32L4S9xx */
 329:Drivers/STM32L4xx_HAL_Driver/Src/stm32l4xx_hal_sd.c **** /**
 330:Drivers/STM32L4xx_HAL_Driver/Src/stm32l4xx_hal_sd.c ****   * @}
 331:Drivers/STM32L4xx_HAL_Driver/Src/stm32l4xx_hal_sd.c ****   */
 332:Drivers/STM32L4xx_HAL_Driver/Src/stm32l4xx_hal_sd.c **** 
 333:Drivers/STM32L4xx_HAL_Driver/Src/stm32l4xx_hal_sd.c **** /* Exported functions --------------------------------------------------------*/
 334:Drivers/STM32L4xx_HAL_Driver/Src/stm32l4xx_hal_sd.c **** /** @addtogroup SD_Exported_Functions
 335:Drivers/STM32L4xx_HAL_Driver/Src/stm32l4xx_hal_sd.c ****   * @{
 336:Drivers/STM32L4xx_HAL_Driver/Src/stm32l4xx_hal_sd.c ****   */
 337:Drivers/STM32L4xx_HAL_Driver/Src/stm32l4xx_hal_sd.c **** 
 338:Drivers/STM32L4xx_HAL_Driver/Src/stm32l4xx_hal_sd.c **** /** @addtogroup SD_Exported_Functions_Group1
 339:Drivers/STM32L4xx_HAL_Driver/Src/stm32l4xx_hal_sd.c ****   *  @brief   Initialization and de-initialization functions
 340:Drivers/STM32L4xx_HAL_Driver/Src/stm32l4xx_hal_sd.c ****   *
 341:Drivers/STM32L4xx_HAL_Driver/Src/stm32l4xx_hal_sd.c **** @verbatim
 342:Drivers/STM32L4xx_HAL_Driver/Src/stm32l4xx_hal_sd.c ****   ==============================================================================
 343:Drivers/STM32L4xx_HAL_Driver/Src/stm32l4xx_hal_sd.c ****           ##### Initialization and de-initialization functions #####
 344:Drivers/STM32L4xx_HAL_Driver/Src/stm32l4xx_hal_sd.c ****   ==============================================================================
 345:Drivers/STM32L4xx_HAL_Driver/Src/stm32l4xx_hal_sd.c ****   [..]
 346:Drivers/STM32L4xx_HAL_Driver/Src/stm32l4xx_hal_sd.c ****     This section provides functions allowing to initialize/de-initialize the SD
 347:Drivers/STM32L4xx_HAL_Driver/Src/stm32l4xx_hal_sd.c ****     card device to be ready for use.
 348:Drivers/STM32L4xx_HAL_Driver/Src/stm32l4xx_hal_sd.c **** 
 349:Drivers/STM32L4xx_HAL_Driver/Src/stm32l4xx_hal_sd.c **** @endverbatim
 350:Drivers/STM32L4xx_HAL_Driver/Src/stm32l4xx_hal_sd.c ****   * @{
 351:Drivers/STM32L4xx_HAL_Driver/Src/stm32l4xx_hal_sd.c ****   */
 352:Drivers/STM32L4xx_HAL_Driver/Src/stm32l4xx_hal_sd.c **** 
 353:Drivers/STM32L4xx_HAL_Driver/Src/stm32l4xx_hal_sd.c **** /**
 354:Drivers/STM32L4xx_HAL_Driver/Src/stm32l4xx_hal_sd.c ****   * @brief  Initializes the SD according to the specified parameters in the
 355:Drivers/STM32L4xx_HAL_Driver/Src/stm32l4xx_hal_sd.c ****             SD_HandleTypeDef and create the associated handle.
 356:Drivers/STM32L4xx_HAL_Driver/Src/stm32l4xx_hal_sd.c ****   * @param  hsd: Pointer to the SD handle
 357:Drivers/STM32L4xx_HAL_Driver/Src/stm32l4xx_hal_sd.c ****   * @retval HAL status
 358:Drivers/STM32L4xx_HAL_Driver/Src/stm32l4xx_hal_sd.c ****   */
 359:Drivers/STM32L4xx_HAL_Driver/Src/stm32l4xx_hal_sd.c **** HAL_StatusTypeDef HAL_SD_Init(SD_HandleTypeDef *hsd)
 360:Drivers/STM32L4xx_HAL_Driver/Src/stm32l4xx_hal_sd.c **** {
  35              		.loc 1 360 1
  36              		.cfi_startproc
  37              		@ args = 0, pretend = 0, frame = 8
  38              		@ frame_needed = 1, uses_anonymous_args = 0
  39 0000 80B5     		push	{r7, lr}
  40              		.cfi_def_cfa_offset 8
  41              		.cfi_offset 7, -8
ARM GAS  /tmp/ccsLb3N5.s 			page 8


  42              		.cfi_offset 14, -4
  43 0002 82B0     		sub	sp, sp, #8
  44              		.cfi_def_cfa_offset 16
  45 0004 00AF     		add	r7, sp, #0
  46              		.cfi_def_cfa_register 7
  47 0006 7860     		str	r0, [r7, #4]
 361:Drivers/STM32L4xx_HAL_Driver/Src/stm32l4xx_hal_sd.c **** #if defined(STM32L4P5xx) || defined(STM32L4Q5xx) || defined(STM32L4R5xx) || defined(STM32L4R7xx) ||
 362:Drivers/STM32L4xx_HAL_Driver/Src/stm32l4xx_hal_sd.c ****   HAL_SD_CardStatusTypeDef CardStatus;
 363:Drivers/STM32L4xx_HAL_Driver/Src/stm32l4xx_hal_sd.c ****   uint32_t speedgrade;
 364:Drivers/STM32L4xx_HAL_Driver/Src/stm32l4xx_hal_sd.c ****   uint32_t unitsize;
 365:Drivers/STM32L4xx_HAL_Driver/Src/stm32l4xx_hal_sd.c ****   uint32_t tickstart;
 366:Drivers/STM32L4xx_HAL_Driver/Src/stm32l4xx_hal_sd.c **** #endif /* STM32L4P5xx || STM32L4Q5xx || STM32L4R5xx || STM32L4R7xx || STM32L4R9xx \
 367:Drivers/STM32L4xx_HAL_Driver/Src/stm32l4xx_hal_sd.c ****           || STM32L4S5xx || STM32L4S7xx || STM32L4S9xx */
 368:Drivers/STM32L4xx_HAL_Driver/Src/stm32l4xx_hal_sd.c **** 
 369:Drivers/STM32L4xx_HAL_Driver/Src/stm32l4xx_hal_sd.c ****   /* Check the SD handle allocation */
 370:Drivers/STM32L4xx_HAL_Driver/Src/stm32l4xx_hal_sd.c ****   if (hsd == NULL)
  48              		.loc 1 370 6
  49 0008 7B68     		ldr	r3, [r7, #4]
  50 000a 002B     		cmp	r3, #0
  51 000c 01D1     		bne	.L2
 371:Drivers/STM32L4xx_HAL_Driver/Src/stm32l4xx_hal_sd.c ****   {
 372:Drivers/STM32L4xx_HAL_Driver/Src/stm32l4xx_hal_sd.c ****     return HAL_ERROR;
  52              		.loc 1 372 12
  53 000e 0123     		movs	r3, #1
  54 0010 38E0     		b	.L3
  55              	.L2:
 373:Drivers/STM32L4xx_HAL_Driver/Src/stm32l4xx_hal_sd.c ****   }
 374:Drivers/STM32L4xx_HAL_Driver/Src/stm32l4xx_hal_sd.c **** 
 375:Drivers/STM32L4xx_HAL_Driver/Src/stm32l4xx_hal_sd.c ****   /* Check the parameters */
 376:Drivers/STM32L4xx_HAL_Driver/Src/stm32l4xx_hal_sd.c ****   assert_param(IS_SDMMC_ALL_INSTANCE(hsd->Instance));
 377:Drivers/STM32L4xx_HAL_Driver/Src/stm32l4xx_hal_sd.c ****   assert_param(IS_SDMMC_CLOCK_EDGE(hsd->Init.ClockEdge));
 378:Drivers/STM32L4xx_HAL_Driver/Src/stm32l4xx_hal_sd.c **** #if !defined(STM32L4P5xx) && !defined(STM32L4Q5xx) && !defined(STM32L4R5xx) && !defined(STM32L4R7xx
 379:Drivers/STM32L4xx_HAL_Driver/Src/stm32l4xx_hal_sd.c ****   assert_param(IS_SDMMC_CLOCK_BYPASS(hsd->Init.ClockBypass));
 380:Drivers/STM32L4xx_HAL_Driver/Src/stm32l4xx_hal_sd.c **** #endif /* !STM32L4P5xx && !STM32L4Q5xx && !STM32L4R5xx && !STM32L4R7xx && !STM32L4R9xx \
 381:Drivers/STM32L4xx_HAL_Driver/Src/stm32l4xx_hal_sd.c ****           && !STM32L4S5xx && !STM32L4S7xx && !STM32L4S9xx */
 382:Drivers/STM32L4xx_HAL_Driver/Src/stm32l4xx_hal_sd.c ****   assert_param(IS_SDMMC_CLOCK_POWER_SAVE(hsd->Init.ClockPowerSave));
 383:Drivers/STM32L4xx_HAL_Driver/Src/stm32l4xx_hal_sd.c ****   assert_param(IS_SDMMC_BUS_WIDE(hsd->Init.BusWide));
 384:Drivers/STM32L4xx_HAL_Driver/Src/stm32l4xx_hal_sd.c ****   assert_param(IS_SDMMC_HARDWARE_FLOW_CONTROL(hsd->Init.HardwareFlowControl));
 385:Drivers/STM32L4xx_HAL_Driver/Src/stm32l4xx_hal_sd.c ****   assert_param(IS_SDMMC_CLKDIV(hsd->Init.ClockDiv));
 386:Drivers/STM32L4xx_HAL_Driver/Src/stm32l4xx_hal_sd.c **** 
 387:Drivers/STM32L4xx_HAL_Driver/Src/stm32l4xx_hal_sd.c ****   if (hsd->State == HAL_SD_STATE_RESET)
  56              		.loc 1 387 10
  57 0012 7B68     		ldr	r3, [r7, #4]
  58 0014 93F83430 		ldrb	r3, [r3, #52]
  59 0018 DBB2     		uxtb	r3, r3
  60              		.loc 1 387 6
  61 001a 002B     		cmp	r3, #0
  62 001c 05D1     		bne	.L4
 388:Drivers/STM32L4xx_HAL_Driver/Src/stm32l4xx_hal_sd.c ****   {
 389:Drivers/STM32L4xx_HAL_Driver/Src/stm32l4xx_hal_sd.c ****     /* Allocate lock resource and initialize it */
 390:Drivers/STM32L4xx_HAL_Driver/Src/stm32l4xx_hal_sd.c ****     hsd->Lock = HAL_UNLOCKED;
  63              		.loc 1 390 15
  64 001e 7B68     		ldr	r3, [r7, #4]
  65 0020 0022     		movs	r2, #0
  66 0022 1A77     		strb	r2, [r3, #28]
 391:Drivers/STM32L4xx_HAL_Driver/Src/stm32l4xx_hal_sd.c **** #if defined (USE_HAL_SD_REGISTER_CALLBACKS) && (USE_HAL_SD_REGISTER_CALLBACKS == 1U)
 392:Drivers/STM32L4xx_HAL_Driver/Src/stm32l4xx_hal_sd.c ****     /* Reset Callback pointers in HAL_SD_STATE_RESET only */
ARM GAS  /tmp/ccsLb3N5.s 			page 9


 393:Drivers/STM32L4xx_HAL_Driver/Src/stm32l4xx_hal_sd.c ****     hsd->TxCpltCallback    = HAL_SD_TxCpltCallback;
 394:Drivers/STM32L4xx_HAL_Driver/Src/stm32l4xx_hal_sd.c ****     hsd->RxCpltCallback    = HAL_SD_RxCpltCallback;
 395:Drivers/STM32L4xx_HAL_Driver/Src/stm32l4xx_hal_sd.c ****     hsd->ErrorCallback     = HAL_SD_ErrorCallback;
 396:Drivers/STM32L4xx_HAL_Driver/Src/stm32l4xx_hal_sd.c ****     hsd->AbortCpltCallback = HAL_SD_AbortCallback;
 397:Drivers/STM32L4xx_HAL_Driver/Src/stm32l4xx_hal_sd.c **** #if defined(STM32L4P5xx) || defined(STM32L4Q5xx) || defined(STM32L4R5xx) || defined(STM32L4R7xx) ||
 398:Drivers/STM32L4xx_HAL_Driver/Src/stm32l4xx_hal_sd.c ****     hsd->Read_DMADblBuf0CpltCallback = HAL_SDEx_Read_DMADoubleBuffer0CpltCallback;
 399:Drivers/STM32L4xx_HAL_Driver/Src/stm32l4xx_hal_sd.c ****     hsd->Read_DMADblBuf1CpltCallback = HAL_SDEx_Read_DMADoubleBuffer1CpltCallback;
 400:Drivers/STM32L4xx_HAL_Driver/Src/stm32l4xx_hal_sd.c ****     hsd->Write_DMADblBuf0CpltCallback = HAL_SDEx_Write_DMADoubleBuffer0CpltCallback;
 401:Drivers/STM32L4xx_HAL_Driver/Src/stm32l4xx_hal_sd.c ****     hsd->Write_DMADblBuf1CpltCallback = HAL_SDEx_Write_DMADoubleBuffer1CpltCallback;
 402:Drivers/STM32L4xx_HAL_Driver/Src/stm32l4xx_hal_sd.c ****     hsd->DriveTransceiver_1_8V_Callback = HAL_SDEx_DriveTransceiver_1_8V_Callback;
 403:Drivers/STM32L4xx_HAL_Driver/Src/stm32l4xx_hal_sd.c **** #endif /* STM32L4P5xx || STM32L4Q5xx || STM32L4R5xx || STM32L4R7xx || STM32L4R9xx \
 404:Drivers/STM32L4xx_HAL_Driver/Src/stm32l4xx_hal_sd.c ****           || STM32L4S5xx || STM32L4S7xx || STM32L4S9xx */
 405:Drivers/STM32L4xx_HAL_Driver/Src/stm32l4xx_hal_sd.c **** 
 406:Drivers/STM32L4xx_HAL_Driver/Src/stm32l4xx_hal_sd.c ****     if (hsd->MspInitCallback == NULL)
 407:Drivers/STM32L4xx_HAL_Driver/Src/stm32l4xx_hal_sd.c ****     {
 408:Drivers/STM32L4xx_HAL_Driver/Src/stm32l4xx_hal_sd.c ****       hsd->MspInitCallback = HAL_SD_MspInit;
 409:Drivers/STM32L4xx_HAL_Driver/Src/stm32l4xx_hal_sd.c ****     }
 410:Drivers/STM32L4xx_HAL_Driver/Src/stm32l4xx_hal_sd.c **** 
 411:Drivers/STM32L4xx_HAL_Driver/Src/stm32l4xx_hal_sd.c ****     /* Init the low level hardware */
 412:Drivers/STM32L4xx_HAL_Driver/Src/stm32l4xx_hal_sd.c ****     hsd->MspInitCallback(hsd);
 413:Drivers/STM32L4xx_HAL_Driver/Src/stm32l4xx_hal_sd.c **** #else
 414:Drivers/STM32L4xx_HAL_Driver/Src/stm32l4xx_hal_sd.c ****     /* Init the low level hardware : GPIO, CLOCK, CORTEX...etc */
 415:Drivers/STM32L4xx_HAL_Driver/Src/stm32l4xx_hal_sd.c ****     HAL_SD_MspInit(hsd);
  67              		.loc 1 415 5
  68 0024 7868     		ldr	r0, [r7, #4]
  69 0026 FFF7FEFF 		bl	HAL_SD_MspInit
  70              	.L4:
 416:Drivers/STM32L4xx_HAL_Driver/Src/stm32l4xx_hal_sd.c **** #endif /* USE_HAL_SD_REGISTER_CALLBACKS */
 417:Drivers/STM32L4xx_HAL_Driver/Src/stm32l4xx_hal_sd.c ****   }
 418:Drivers/STM32L4xx_HAL_Driver/Src/stm32l4xx_hal_sd.c **** 
 419:Drivers/STM32L4xx_HAL_Driver/Src/stm32l4xx_hal_sd.c ****   hsd->State = HAL_SD_STATE_BUSY;
  71              		.loc 1 419 14
  72 002a 7B68     		ldr	r3, [r7, #4]
  73 002c 0322     		movs	r2, #3
  74 002e 83F83420 		strb	r2, [r3, #52]
 420:Drivers/STM32L4xx_HAL_Driver/Src/stm32l4xx_hal_sd.c **** 
 421:Drivers/STM32L4xx_HAL_Driver/Src/stm32l4xx_hal_sd.c ****   /* Initialize the Card parameters */
 422:Drivers/STM32L4xx_HAL_Driver/Src/stm32l4xx_hal_sd.c ****   if (HAL_SD_InitCard(hsd) != HAL_OK)
  75              		.loc 1 422 7
  76 0032 7868     		ldr	r0, [r7, #4]
  77 0034 FFF7FEFF 		bl	HAL_SD_InitCard
  78 0038 0346     		mov	r3, r0
  79              		.loc 1 422 6 discriminator 1
  80 003a 002B     		cmp	r3, #0
  81 003c 01D0     		beq	.L5
 423:Drivers/STM32L4xx_HAL_Driver/Src/stm32l4xx_hal_sd.c ****   {
 424:Drivers/STM32L4xx_HAL_Driver/Src/stm32l4xx_hal_sd.c ****     return HAL_ERROR;
  82              		.loc 1 424 12
  83 003e 0123     		movs	r3, #1
  84 0040 20E0     		b	.L3
  85              	.L5:
 425:Drivers/STM32L4xx_HAL_Driver/Src/stm32l4xx_hal_sd.c ****   }
 426:Drivers/STM32L4xx_HAL_Driver/Src/stm32l4xx_hal_sd.c **** 
 427:Drivers/STM32L4xx_HAL_Driver/Src/stm32l4xx_hal_sd.c ****   /* Configure the bus wide with the specified value in the SD_HandleTypeDef */
 428:Drivers/STM32L4xx_HAL_Driver/Src/stm32l4xx_hal_sd.c ****   if (HAL_SD_ConfigWideBusOperation(hsd, hsd->Init.BusWide) != HAL_OK)
  86              		.loc 1 428 7
  87 0042 7B68     		ldr	r3, [r7, #4]
ARM GAS  /tmp/ccsLb3N5.s 			page 10


  88 0044 1B69     		ldr	r3, [r3, #16]
  89 0046 1946     		mov	r1, r3
  90 0048 7868     		ldr	r0, [r7, #4]
  91 004a FFF7FEFF 		bl	HAL_SD_ConfigWideBusOperation
  92 004e 0346     		mov	r3, r0
  93              		.loc 1 428 6 discriminator 1
  94 0050 002B     		cmp	r3, #0
  95 0052 01D0     		beq	.L6
 429:Drivers/STM32L4xx_HAL_Driver/Src/stm32l4xx_hal_sd.c ****   {
 430:Drivers/STM32L4xx_HAL_Driver/Src/stm32l4xx_hal_sd.c ****     return HAL_ERROR;
  96              		.loc 1 430 12
  97 0054 0123     		movs	r3, #1
  98 0056 15E0     		b	.L3
  99              	.L6:
 431:Drivers/STM32L4xx_HAL_Driver/Src/stm32l4xx_hal_sd.c ****   }
 432:Drivers/STM32L4xx_HAL_Driver/Src/stm32l4xx_hal_sd.c **** 
 433:Drivers/STM32L4xx_HAL_Driver/Src/stm32l4xx_hal_sd.c **** #if defined(STM32L4P5xx) || defined(STM32L4Q5xx) || defined(STM32L4R5xx) || defined(STM32L4R7xx) ||
 434:Drivers/STM32L4xx_HAL_Driver/Src/stm32l4xx_hal_sd.c ****   if (HAL_SD_GetCardStatus(hsd, &CardStatus) != HAL_OK)
 435:Drivers/STM32L4xx_HAL_Driver/Src/stm32l4xx_hal_sd.c ****   {
 436:Drivers/STM32L4xx_HAL_Driver/Src/stm32l4xx_hal_sd.c ****     return HAL_ERROR;
 437:Drivers/STM32L4xx_HAL_Driver/Src/stm32l4xx_hal_sd.c ****   }
 438:Drivers/STM32L4xx_HAL_Driver/Src/stm32l4xx_hal_sd.c ****   /* Get Initial Card Speed from Card Status*/
 439:Drivers/STM32L4xx_HAL_Driver/Src/stm32l4xx_hal_sd.c ****   speedgrade = CardStatus.UhsSpeedGrade;
 440:Drivers/STM32L4xx_HAL_Driver/Src/stm32l4xx_hal_sd.c ****   unitsize = CardStatus.UhsAllocationUnitSize;
 441:Drivers/STM32L4xx_HAL_Driver/Src/stm32l4xx_hal_sd.c ****   if ((hsd->SdCard.CardType == CARD_SDHC_SDXC) && ((speedgrade != 0U) || (unitsize != 0U)))
 442:Drivers/STM32L4xx_HAL_Driver/Src/stm32l4xx_hal_sd.c ****   {
 443:Drivers/STM32L4xx_HAL_Driver/Src/stm32l4xx_hal_sd.c ****     hsd->SdCard.CardSpeed = CARD_ULTRA_HIGH_SPEED;
 444:Drivers/STM32L4xx_HAL_Driver/Src/stm32l4xx_hal_sd.c ****   }
 445:Drivers/STM32L4xx_HAL_Driver/Src/stm32l4xx_hal_sd.c ****   else
 446:Drivers/STM32L4xx_HAL_Driver/Src/stm32l4xx_hal_sd.c ****   {
 447:Drivers/STM32L4xx_HAL_Driver/Src/stm32l4xx_hal_sd.c ****     if (hsd->SdCard.CardType == CARD_SDHC_SDXC)
 448:Drivers/STM32L4xx_HAL_Driver/Src/stm32l4xx_hal_sd.c ****     {
 449:Drivers/STM32L4xx_HAL_Driver/Src/stm32l4xx_hal_sd.c ****       hsd->SdCard.CardSpeed  = CARD_HIGH_SPEED;
 450:Drivers/STM32L4xx_HAL_Driver/Src/stm32l4xx_hal_sd.c ****     }
 451:Drivers/STM32L4xx_HAL_Driver/Src/stm32l4xx_hal_sd.c ****     else
 452:Drivers/STM32L4xx_HAL_Driver/Src/stm32l4xx_hal_sd.c ****     {
 453:Drivers/STM32L4xx_HAL_Driver/Src/stm32l4xx_hal_sd.c ****       hsd->SdCard.CardSpeed  = CARD_NORMAL_SPEED;
 454:Drivers/STM32L4xx_HAL_Driver/Src/stm32l4xx_hal_sd.c ****     }
 455:Drivers/STM32L4xx_HAL_Driver/Src/stm32l4xx_hal_sd.c **** 
 456:Drivers/STM32L4xx_HAL_Driver/Src/stm32l4xx_hal_sd.c ****   }
 457:Drivers/STM32L4xx_HAL_Driver/Src/stm32l4xx_hal_sd.c ****   /* Configure the bus wide */
 458:Drivers/STM32L4xx_HAL_Driver/Src/stm32l4xx_hal_sd.c ****   if (HAL_SD_ConfigWideBusOperation(hsd, hsd->Init.BusWide) != HAL_OK)
 459:Drivers/STM32L4xx_HAL_Driver/Src/stm32l4xx_hal_sd.c ****   {
 460:Drivers/STM32L4xx_HAL_Driver/Src/stm32l4xx_hal_sd.c ****     return HAL_ERROR;
 461:Drivers/STM32L4xx_HAL_Driver/Src/stm32l4xx_hal_sd.c ****   }
 462:Drivers/STM32L4xx_HAL_Driver/Src/stm32l4xx_hal_sd.c **** 
 463:Drivers/STM32L4xx_HAL_Driver/Src/stm32l4xx_hal_sd.c ****   /* Verify that SD card is ready to use after Initialization */
 464:Drivers/STM32L4xx_HAL_Driver/Src/stm32l4xx_hal_sd.c ****   tickstart = HAL_GetTick();
 465:Drivers/STM32L4xx_HAL_Driver/Src/stm32l4xx_hal_sd.c ****   while ((HAL_SD_GetCardState(hsd) != HAL_SD_CARD_TRANSFER))
 466:Drivers/STM32L4xx_HAL_Driver/Src/stm32l4xx_hal_sd.c ****   {
 467:Drivers/STM32L4xx_HAL_Driver/Src/stm32l4xx_hal_sd.c ****     if ((HAL_GetTick() - tickstart) >=  SDMMC_DATATIMEOUT)
 468:Drivers/STM32L4xx_HAL_Driver/Src/stm32l4xx_hal_sd.c ****     {
 469:Drivers/STM32L4xx_HAL_Driver/Src/stm32l4xx_hal_sd.c ****       hsd->ErrorCode = HAL_SD_ERROR_TIMEOUT;
 470:Drivers/STM32L4xx_HAL_Driver/Src/stm32l4xx_hal_sd.c ****       hsd->State = HAL_SD_STATE_READY;
 471:Drivers/STM32L4xx_HAL_Driver/Src/stm32l4xx_hal_sd.c ****       hsd->Context = SD_CONTEXT_NONE;
 472:Drivers/STM32L4xx_HAL_Driver/Src/stm32l4xx_hal_sd.c ****       return HAL_TIMEOUT;
 473:Drivers/STM32L4xx_HAL_Driver/Src/stm32l4xx_hal_sd.c ****     }
ARM GAS  /tmp/ccsLb3N5.s 			page 11


 474:Drivers/STM32L4xx_HAL_Driver/Src/stm32l4xx_hal_sd.c ****   }
 475:Drivers/STM32L4xx_HAL_Driver/Src/stm32l4xx_hal_sd.c **** #endif /* STM32L4P5xx || STM32L4Q5xx || STM32L4R5xx || STM32L4R7xx || STM32L4R9xx \
 476:Drivers/STM32L4xx_HAL_Driver/Src/stm32l4xx_hal_sd.c ****           || STM32L4S5xx || STM32L4S7xx || STM32L4S9xx */
 477:Drivers/STM32L4xx_HAL_Driver/Src/stm32l4xx_hal_sd.c **** 
 478:Drivers/STM32L4xx_HAL_Driver/Src/stm32l4xx_hal_sd.c ****   /* Configure the bus wide with the specified value in the SD_HandleTypeDef */
 479:Drivers/STM32L4xx_HAL_Driver/Src/stm32l4xx_hal_sd.c ****   if (HAL_SD_ConfigWideBusOperation(hsd, hsd->Init.BusWide) != HAL_OK)
 100              		.loc 1 479 7
 101 0058 7B68     		ldr	r3, [r7, #4]
 102 005a 1B69     		ldr	r3, [r3, #16]
 103 005c 1946     		mov	r1, r3
 104 005e 7868     		ldr	r0, [r7, #4]
 105 0060 FFF7FEFF 		bl	HAL_SD_ConfigWideBusOperation
 106 0064 0346     		mov	r3, r0
 107              		.loc 1 479 6 discriminator 1
 108 0066 002B     		cmp	r3, #0
 109 0068 01D0     		beq	.L7
 480:Drivers/STM32L4xx_HAL_Driver/Src/stm32l4xx_hal_sd.c ****   {
 481:Drivers/STM32L4xx_HAL_Driver/Src/stm32l4xx_hal_sd.c ****     return HAL_ERROR;
 110              		.loc 1 481 12
 111 006a 0123     		movs	r3, #1
 112 006c 0AE0     		b	.L3
 113              	.L7:
 482:Drivers/STM32L4xx_HAL_Driver/Src/stm32l4xx_hal_sd.c ****   }
 483:Drivers/STM32L4xx_HAL_Driver/Src/stm32l4xx_hal_sd.c **** 
 484:Drivers/STM32L4xx_HAL_Driver/Src/stm32l4xx_hal_sd.c **** 
 485:Drivers/STM32L4xx_HAL_Driver/Src/stm32l4xx_hal_sd.c ****   /* Initialize the error code */
 486:Drivers/STM32L4xx_HAL_Driver/Src/stm32l4xx_hal_sd.c ****   hsd->ErrorCode = HAL_SD_ERROR_NONE;
 114              		.loc 1 486 18
 115 006e 7B68     		ldr	r3, [r7, #4]
 116 0070 0022     		movs	r2, #0
 117 0072 9A63     		str	r2, [r3, #56]
 487:Drivers/STM32L4xx_HAL_Driver/Src/stm32l4xx_hal_sd.c **** 
 488:Drivers/STM32L4xx_HAL_Driver/Src/stm32l4xx_hal_sd.c ****   /* Initialize the SD operation */
 489:Drivers/STM32L4xx_HAL_Driver/Src/stm32l4xx_hal_sd.c ****   hsd->Context = SD_CONTEXT_NONE;
 118              		.loc 1 489 16
 119 0074 7B68     		ldr	r3, [r7, #4]
 120 0076 0022     		movs	r2, #0
 121 0078 1A63     		str	r2, [r3, #48]
 490:Drivers/STM32L4xx_HAL_Driver/Src/stm32l4xx_hal_sd.c **** 
 491:Drivers/STM32L4xx_HAL_Driver/Src/stm32l4xx_hal_sd.c ****   /* Initialize the SD state */
 492:Drivers/STM32L4xx_HAL_Driver/Src/stm32l4xx_hal_sd.c ****   hsd->State = HAL_SD_STATE_READY;
 122              		.loc 1 492 14
 123 007a 7B68     		ldr	r3, [r7, #4]
 124 007c 0122     		movs	r2, #1
 125 007e 83F83420 		strb	r2, [r3, #52]
 493:Drivers/STM32L4xx_HAL_Driver/Src/stm32l4xx_hal_sd.c **** 
 494:Drivers/STM32L4xx_HAL_Driver/Src/stm32l4xx_hal_sd.c ****   return HAL_OK;
 126              		.loc 1 494 10
 127 0082 0023     		movs	r3, #0
 128              	.L3:
 495:Drivers/STM32L4xx_HAL_Driver/Src/stm32l4xx_hal_sd.c **** }
 129              		.loc 1 495 1
 130 0084 1846     		mov	r0, r3
 131 0086 0837     		adds	r7, r7, #8
 132              		.cfi_def_cfa_offset 8
 133 0088 BD46     		mov	sp, r7
 134              		.cfi_def_cfa_register 13
ARM GAS  /tmp/ccsLb3N5.s 			page 12


 135              		@ sp needed
 136 008a 80BD     		pop	{r7, pc}
 137              		.cfi_endproc
 138              	.LFE445:
 140              		.section	.text.HAL_SD_InitCard,"ax",%progbits
 141              		.align	1
 142              		.global	HAL_SD_InitCard
 143              		.syntax unified
 144              		.thumb
 145              		.thumb_func
 147              	HAL_SD_InitCard:
 148              	.LFB446:
 496:Drivers/STM32L4xx_HAL_Driver/Src/stm32l4xx_hal_sd.c **** 
 497:Drivers/STM32L4xx_HAL_Driver/Src/stm32l4xx_hal_sd.c **** /**
 498:Drivers/STM32L4xx_HAL_Driver/Src/stm32l4xx_hal_sd.c ****   * @brief  Initializes the SD Card.
 499:Drivers/STM32L4xx_HAL_Driver/Src/stm32l4xx_hal_sd.c ****   * @param  hsd: Pointer to SD handle
 500:Drivers/STM32L4xx_HAL_Driver/Src/stm32l4xx_hal_sd.c ****   * @note   This function initializes the SD card. It could be used when a card
 501:Drivers/STM32L4xx_HAL_Driver/Src/stm32l4xx_hal_sd.c ****             re-initialization is needed.
 502:Drivers/STM32L4xx_HAL_Driver/Src/stm32l4xx_hal_sd.c ****   * @retval HAL status
 503:Drivers/STM32L4xx_HAL_Driver/Src/stm32l4xx_hal_sd.c ****   */
 504:Drivers/STM32L4xx_HAL_Driver/Src/stm32l4xx_hal_sd.c **** HAL_StatusTypeDef HAL_SD_InitCard(SD_HandleTypeDef *hsd)
 505:Drivers/STM32L4xx_HAL_Driver/Src/stm32l4xx_hal_sd.c **** {
 149              		.loc 1 505 1
 150              		.cfi_startproc
 151              		@ args = 0, pretend = 0, frame = 48
 152              		@ frame_needed = 1, uses_anonymous_args = 0
 153 0000 B0B5     		push	{r4, r5, r7, lr}
 154              		.cfi_def_cfa_offset 16
 155              		.cfi_offset 4, -16
 156              		.cfi_offset 5, -12
 157              		.cfi_offset 7, -8
 158              		.cfi_offset 14, -4
 159 0002 90B0     		sub	sp, sp, #64
 160              		.cfi_def_cfa_offset 80
 161 0004 04AF     		add	r7, sp, #16
 162              		.cfi_def_cfa 7, 64
 163 0006 7860     		str	r0, [r7, #4]
 506:Drivers/STM32L4xx_HAL_Driver/Src/stm32l4xx_hal_sd.c ****   uint32_t errorstate;
 507:Drivers/STM32L4xx_HAL_Driver/Src/stm32l4xx_hal_sd.c ****   SD_InitTypeDef Init;
 508:Drivers/STM32L4xx_HAL_Driver/Src/stm32l4xx_hal_sd.c ****   HAL_StatusTypeDef status;
 509:Drivers/STM32L4xx_HAL_Driver/Src/stm32l4xx_hal_sd.c **** 
 510:Drivers/STM32L4xx_HAL_Driver/Src/stm32l4xx_hal_sd.c ****   uint32_t sdmmc_clk;
 511:Drivers/STM32L4xx_HAL_Driver/Src/stm32l4xx_hal_sd.c ****   /* Default SDMMC peripheral configuration for SD card initialization */
 512:Drivers/STM32L4xx_HAL_Driver/Src/stm32l4xx_hal_sd.c ****   Init.ClockEdge           = SDMMC_CLOCK_EDGE_RISING;
 164              		.loc 1 512 28
 165 0008 0023     		movs	r3, #0
 166 000a FB60     		str	r3, [r7, #12]
 513:Drivers/STM32L4xx_HAL_Driver/Src/stm32l4xx_hal_sd.c **** #if !defined(STM32L4P5xx) && !defined(STM32L4Q5xx) && !defined(STM32L4R5xx) && !defined(STM32L4R7xx
 514:Drivers/STM32L4xx_HAL_Driver/Src/stm32l4xx_hal_sd.c ****   Init.ClockBypass         = SDMMC_CLOCK_BYPASS_DISABLE;
 167              		.loc 1 514 28
 168 000c 0023     		movs	r3, #0
 169 000e 3B61     		str	r3, [r7, #16]
 515:Drivers/STM32L4xx_HAL_Driver/Src/stm32l4xx_hal_sd.c **** #endif /* !STM32L4P5xx && !STM32L4Q5xx && !STM32L4R5xx && !STM32L4R7xx && !STM32L4R9xx \
 516:Drivers/STM32L4xx_HAL_Driver/Src/stm32l4xx_hal_sd.c ****           && !STM32L4S5xx && !STM32L4S7xx && !STM32L4S9xx */
 517:Drivers/STM32L4xx_HAL_Driver/Src/stm32l4xx_hal_sd.c ****   Init.ClockPowerSave      = SDMMC_CLOCK_POWER_SAVE_DISABLE;
 170              		.loc 1 517 28
 171 0010 0023     		movs	r3, #0
ARM GAS  /tmp/ccsLb3N5.s 			page 13


 172 0012 7B61     		str	r3, [r7, #20]
 518:Drivers/STM32L4xx_HAL_Driver/Src/stm32l4xx_hal_sd.c ****   Init.BusWide             = SDMMC_BUS_WIDE_1B;
 173              		.loc 1 518 28
 174 0014 0023     		movs	r3, #0
 175 0016 BB61     		str	r3, [r7, #24]
 519:Drivers/STM32L4xx_HAL_Driver/Src/stm32l4xx_hal_sd.c ****   Init.HardwareFlowControl = SDMMC_HARDWARE_FLOW_CONTROL_DISABLE;
 176              		.loc 1 519 28
 177 0018 0023     		movs	r3, #0
 178 001a FB61     		str	r3, [r7, #28]
 520:Drivers/STM32L4xx_HAL_Driver/Src/stm32l4xx_hal_sd.c ****   /* Init Clock should be less or equal to 400Khz*/
 521:Drivers/STM32L4xx_HAL_Driver/Src/stm32l4xx_hal_sd.c ****   sdmmc_clk = HAL_RCCEx_GetPeriphCLKFreq(RCC_PERIPHCLK_SDMMC1);
 179              		.loc 1 521 15
 180 001c 4FF40020 		mov	r0, #524288
 181 0020 FFF7FEFF 		bl	HAL_RCCEx_GetPeriphCLKFreq
 182 0024 F862     		str	r0, [r7, #44]
 522:Drivers/STM32L4xx_HAL_Driver/Src/stm32l4xx_hal_sd.c ****   if (sdmmc_clk == 0U)
 183              		.loc 1 522 6
 184 0026 FB6A     		ldr	r3, [r7, #44]
 185 0028 002B     		cmp	r3, #0
 186 002a 09D1     		bne	.L9
 523:Drivers/STM32L4xx_HAL_Driver/Src/stm32l4xx_hal_sd.c ****   {
 524:Drivers/STM32L4xx_HAL_Driver/Src/stm32l4xx_hal_sd.c ****     hsd->State = HAL_SD_STATE_READY;
 187              		.loc 1 524 16
 188 002c 7B68     		ldr	r3, [r7, #4]
 189 002e 0122     		movs	r2, #1
 190 0030 83F83420 		strb	r2, [r3, #52]
 525:Drivers/STM32L4xx_HAL_Driver/Src/stm32l4xx_hal_sd.c ****     hsd->ErrorCode = SDMMC_ERROR_INVALID_PARAMETER;
 191              		.loc 1 525 20
 192 0034 7B68     		ldr	r3, [r7, #4]
 193 0036 4FF00062 		mov	r2, #134217728
 194 003a 9A63     		str	r2, [r3, #56]
 526:Drivers/STM32L4xx_HAL_Driver/Src/stm32l4xx_hal_sd.c ****     return HAL_ERROR;
 195              		.loc 1 526 12
 196 003c 0123     		movs	r3, #1
 197 003e 84E0     		b	.L15
 198              	.L9:
 527:Drivers/STM32L4xx_HAL_Driver/Src/stm32l4xx_hal_sd.c ****   }
 528:Drivers/STM32L4xx_HAL_Driver/Src/stm32l4xx_hal_sd.c **** #if !defined(STM32L4P5xx) && !defined(STM32L4Q5xx) && !defined(STM32L4R5xx) && !defined(STM32L4R7xx
 529:Drivers/STM32L4xx_HAL_Driver/Src/stm32l4xx_hal_sd.c ****   Init.ClockDiv = ((sdmmc_clk / SD_INIT_FREQ) - 2U);
 199              		.loc 1 529 31
 200 0040 FB6A     		ldr	r3, [r7, #44]
 201 0042 DB09     		lsrs	r3, r3, #7
 202 0044 434A     		ldr	r2, .L16
 203 0046 A2FB0323 		umull	r2, r3, r2, r3
 204 004a 1B09     		lsrs	r3, r3, #4
 205              		.loc 1 529 47
 206 004c 023B     		subs	r3, r3, #2
 207              		.loc 1 529 17
 208 004e 3B62     		str	r3, [r7, #32]
 530:Drivers/STM32L4xx_HAL_Driver/Src/stm32l4xx_hal_sd.c **** #else
 531:Drivers/STM32L4xx_HAL_Driver/Src/stm32l4xx_hal_sd.c ****   Init.ClockDiv = sdmmc_clk / (2U * SD_INIT_FREQ);
 532:Drivers/STM32L4xx_HAL_Driver/Src/stm32l4xx_hal_sd.c **** #endif /* !STM32L4P5xx && !STM32L4Q5xx && !STM32L4R5xx && !STM32L4R7xx && !STM32L4R9xx \
 533:Drivers/STM32L4xx_HAL_Driver/Src/stm32l4xx_hal_sd.c ****           && !STM32L4S5xx && !STM32L4S7xx && !STM32L4S9xx */
 534:Drivers/STM32L4xx_HAL_Driver/Src/stm32l4xx_hal_sd.c **** 
 535:Drivers/STM32L4xx_HAL_Driver/Src/stm32l4xx_hal_sd.c **** #if defined(STM32L4P5xx) || defined(STM32L4Q5xx) || defined(STM32L4R5xx) || defined(STM32L4R7xx) ||
 536:Drivers/STM32L4xx_HAL_Driver/Src/stm32l4xx_hal_sd.c ****   Init.Transceiver = hsd->Init.Transceiver;
 537:Drivers/STM32L4xx_HAL_Driver/Src/stm32l4xx_hal_sd.c ****   if (hsd->Init.Transceiver == SDMMC_TRANSCEIVER_ENABLE)
ARM GAS  /tmp/ccsLb3N5.s 			page 14


 538:Drivers/STM32L4xx_HAL_Driver/Src/stm32l4xx_hal_sd.c ****   {
 539:Drivers/STM32L4xx_HAL_Driver/Src/stm32l4xx_hal_sd.c ****     /* Set Transceiver polarity */
 540:Drivers/STM32L4xx_HAL_Driver/Src/stm32l4xx_hal_sd.c ****     hsd->Instance->POWER |= SDMMC_POWER_DIRPOL;
 541:Drivers/STM32L4xx_HAL_Driver/Src/stm32l4xx_hal_sd.c ****   }
 542:Drivers/STM32L4xx_HAL_Driver/Src/stm32l4xx_hal_sd.c **** #endif /* STM32L4P5xx || STM32L4Q5xx || STM32L4R5xx || STM32L4R7xx || STM32L4R9xx \
 543:Drivers/STM32L4xx_HAL_Driver/Src/stm32l4xx_hal_sd.c ****           || STM32L4S5xx || STM32L4S7xx || STM32L4S9xx */
 544:Drivers/STM32L4xx_HAL_Driver/Src/stm32l4xx_hal_sd.c **** 
 545:Drivers/STM32L4xx_HAL_Driver/Src/stm32l4xx_hal_sd.c ****   /* Initialize SDMMC peripheral interface with default configuration */
 546:Drivers/STM32L4xx_HAL_Driver/Src/stm32l4xx_hal_sd.c ****   status = SDMMC_Init(hsd->Instance, Init);
 209              		.loc 1 546 12
 210 0050 7B68     		ldr	r3, [r7, #4]
 211 0052 1D68     		ldr	r5, [r3]
 212 0054 6C46     		mov	r4, sp
 213 0056 07F11803 		add	r3, r7, #24
 214 005a 93E80700 		ldm	r3, {r0, r1, r2}
 215 005e 84E80700 		stm	r4, {r0, r1, r2}
 216 0062 07F10C03 		add	r3, r7, #12
 217 0066 0ECB     		ldm	r3, {r1, r2, r3}
 218 0068 2846     		mov	r0, r5
 219 006a FFF7FEFF 		bl	SDMMC_Init
 220 006e 0346     		mov	r3, r0
 221 0070 87F82B30 		strb	r3, [r7, #43]
 547:Drivers/STM32L4xx_HAL_Driver/Src/stm32l4xx_hal_sd.c ****   if (status == HAL_ERROR)
 222              		.loc 1 547 6
 223 0074 97F82B30 		ldrb	r3, [r7, #43]	@ zero_extendqisi2
 224 0078 012B     		cmp	r3, #1
 225 007a 01D1     		bne	.L11
 548:Drivers/STM32L4xx_HAL_Driver/Src/stm32l4xx_hal_sd.c ****   {
 549:Drivers/STM32L4xx_HAL_Driver/Src/stm32l4xx_hal_sd.c ****     return HAL_ERROR;
 226              		.loc 1 549 12
 227 007c 0123     		movs	r3, #1
 228 007e 64E0     		b	.L15
 229              	.L11:
 550:Drivers/STM32L4xx_HAL_Driver/Src/stm32l4xx_hal_sd.c ****   }
 551:Drivers/STM32L4xx_HAL_Driver/Src/stm32l4xx_hal_sd.c **** 
 552:Drivers/STM32L4xx_HAL_Driver/Src/stm32l4xx_hal_sd.c **** #if !defined(STM32L4P5xx) && !defined(STM32L4Q5xx) && !defined(STM32L4R5xx) && !defined(STM32L4R7xx
 553:Drivers/STM32L4xx_HAL_Driver/Src/stm32l4xx_hal_sd.c ****   /* Disable SDMMC Clock */
 554:Drivers/STM32L4xx_HAL_Driver/Src/stm32l4xx_hal_sd.c ****   __HAL_SD_DISABLE(hsd);
 230              		.loc 1 554 3
 231 0080 7B68     		ldr	r3, [r7, #4]
 232 0082 1B68     		ldr	r3, [r3]
 233 0084 5A68     		ldr	r2, [r3, #4]
 234 0086 7B68     		ldr	r3, [r7, #4]
 235 0088 1B68     		ldr	r3, [r3]
 236 008a 22F48072 		bic	r2, r2, #256
 237 008e 5A60     		str	r2, [r3, #4]
 555:Drivers/STM32L4xx_HAL_Driver/Src/stm32l4xx_hal_sd.c **** #endif /* !STM32L4P5xx && !STM32L4Q5xx && !STM32L4R5xx && !STM32L4R7xx && !STM32L4R9xx \
 556:Drivers/STM32L4xx_HAL_Driver/Src/stm32l4xx_hal_sd.c ****           && !STM32L4S5xx && !STM32L4S7xx && !STM32L4S9xx */
 557:Drivers/STM32L4xx_HAL_Driver/Src/stm32l4xx_hal_sd.c **** 
 558:Drivers/STM32L4xx_HAL_Driver/Src/stm32l4xx_hal_sd.c ****   /* Set Power State to ON */
 559:Drivers/STM32L4xx_HAL_Driver/Src/stm32l4xx_hal_sd.c ****   (void)SDMMC_PowerState_ON(hsd->Instance);
 238              		.loc 1 559 9
 239 0090 7B68     		ldr	r3, [r7, #4]
 240 0092 1B68     		ldr	r3, [r3]
 241 0094 1846     		mov	r0, r3
 242 0096 FFF7FEFF 		bl	SDMMC_PowerState_ON
 560:Drivers/STM32L4xx_HAL_Driver/Src/stm32l4xx_hal_sd.c **** 
ARM GAS  /tmp/ccsLb3N5.s 			page 15


 561:Drivers/STM32L4xx_HAL_Driver/Src/stm32l4xx_hal_sd.c **** #if !defined(STM32L4P5xx) && !defined(STM32L4Q5xx) && !defined(STM32L4R5xx) && !defined(STM32L4R7xx
 562:Drivers/STM32L4xx_HAL_Driver/Src/stm32l4xx_hal_sd.c ****   /* Enable SDMMC Clock */
 563:Drivers/STM32L4xx_HAL_Driver/Src/stm32l4xx_hal_sd.c ****   __HAL_SD_ENABLE(hsd);
 243              		.loc 1 563 3
 244 009a 7B68     		ldr	r3, [r7, #4]
 245 009c 1B68     		ldr	r3, [r3]
 246 009e 5A68     		ldr	r2, [r3, #4]
 247 00a0 7B68     		ldr	r3, [r7, #4]
 248 00a2 1B68     		ldr	r3, [r3]
 249 00a4 42F48072 		orr	r2, r2, #256
 250 00a8 5A60     		str	r2, [r3, #4]
 564:Drivers/STM32L4xx_HAL_Driver/Src/stm32l4xx_hal_sd.c **** #endif /* !STM32L4P5xx && !STM32L4Q5xx && !STM32L4R5xx && !STM32L4R7xx && !STM32L4R9xx \
 565:Drivers/STM32L4xx_HAL_Driver/Src/stm32l4xx_hal_sd.c ****           && !STM32L4S5xx && !STM32L4S7xx && !STM32L4S9xx */
 566:Drivers/STM32L4xx_HAL_Driver/Src/stm32l4xx_hal_sd.c **** 
 567:Drivers/STM32L4xx_HAL_Driver/Src/stm32l4xx_hal_sd.c ****   /* wait 74 Cycles: required power up waiting time before starting
 568:Drivers/STM32L4xx_HAL_Driver/Src/stm32l4xx_hal_sd.c ****      the SD initialization sequence */
 569:Drivers/STM32L4xx_HAL_Driver/Src/stm32l4xx_hal_sd.c **** #if !defined(STM32L4P5xx) && !defined(STM32L4Q5xx) && !defined(STM32L4R5xx) && !defined(STM32L4R7xx
 570:Drivers/STM32L4xx_HAL_Driver/Src/stm32l4xx_hal_sd.c ****   sdmmc_clk = sdmmc_clk / (Init.ClockDiv + 2U);
 251              		.loc 1 570 32
 252 00aa 3B6A     		ldr	r3, [r7, #32]
 253              		.loc 1 570 42
 254 00ac 0233     		adds	r3, r3, #2
 255              		.loc 1 570 13
 256 00ae FA6A     		ldr	r2, [r7, #44]
 257 00b0 B2FBF3F3 		udiv	r3, r2, r3
 258 00b4 FB62     		str	r3, [r7, #44]
 571:Drivers/STM32L4xx_HAL_Driver/Src/stm32l4xx_hal_sd.c **** #else
 572:Drivers/STM32L4xx_HAL_Driver/Src/stm32l4xx_hal_sd.c ****   sdmmc_clk = sdmmc_clk / (2U * Init.ClockDiv);
 573:Drivers/STM32L4xx_HAL_Driver/Src/stm32l4xx_hal_sd.c **** #endif /* !STM32L4P5xx && !STM32L4Q5xx && !STM32L4R5xx && !STM32L4R7xx && !STM32L4R9xx \
 574:Drivers/STM32L4xx_HAL_Driver/Src/stm32l4xx_hal_sd.c ****           && !STM32L4S5xx && !STM32L4S7xx && !STM32L4S9xx */
 575:Drivers/STM32L4xx_HAL_Driver/Src/stm32l4xx_hal_sd.c ****   HAL_Delay(1U + (74U * 1000U / (sdmmc_clk)));
 259              		.loc 1 575 31
 260 00b6 284A     		ldr	r2, .L16+4
 261 00b8 FB6A     		ldr	r3, [r7, #44]
 262 00ba B2FBF3F3 		udiv	r3, r2, r3
 263              		.loc 1 575 3
 264 00be 0133     		adds	r3, r3, #1
 265 00c0 1846     		mov	r0, r3
 266 00c2 FFF7FEFF 		bl	HAL_Delay
 576:Drivers/STM32L4xx_HAL_Driver/Src/stm32l4xx_hal_sd.c **** 
 577:Drivers/STM32L4xx_HAL_Driver/Src/stm32l4xx_hal_sd.c ****   /* Identify card operating voltage */
 578:Drivers/STM32L4xx_HAL_Driver/Src/stm32l4xx_hal_sd.c ****   errorstate = SD_PowerON(hsd);
 267              		.loc 1 578 16
 268 00c6 7868     		ldr	r0, [r7, #4]
 269 00c8 FFF7FEFF 		bl	SD_PowerON
 270 00cc 7862     		str	r0, [r7, #36]
 579:Drivers/STM32L4xx_HAL_Driver/Src/stm32l4xx_hal_sd.c ****   if (errorstate != HAL_SD_ERROR_NONE)
 271              		.loc 1 579 6
 272 00ce 7B6A     		ldr	r3, [r7, #36]
 273 00d0 002B     		cmp	r3, #0
 274 00d2 0BD0     		beq	.L12
 580:Drivers/STM32L4xx_HAL_Driver/Src/stm32l4xx_hal_sd.c ****   {
 581:Drivers/STM32L4xx_HAL_Driver/Src/stm32l4xx_hal_sd.c ****     hsd->State = HAL_SD_STATE_READY;
 275              		.loc 1 581 16
 276 00d4 7B68     		ldr	r3, [r7, #4]
 277 00d6 0122     		movs	r2, #1
 278 00d8 83F83420 		strb	r2, [r3, #52]
ARM GAS  /tmp/ccsLb3N5.s 			page 16


 582:Drivers/STM32L4xx_HAL_Driver/Src/stm32l4xx_hal_sd.c ****     hsd->ErrorCode |= errorstate;
 279              		.loc 1 582 8
 280 00dc 7B68     		ldr	r3, [r7, #4]
 281 00de 9A6B     		ldr	r2, [r3, #56]
 282              		.loc 1 582 20
 283 00e0 7B6A     		ldr	r3, [r7, #36]
 284 00e2 1A43     		orrs	r2, r2, r3
 285 00e4 7B68     		ldr	r3, [r7, #4]
 286 00e6 9A63     		str	r2, [r3, #56]
 583:Drivers/STM32L4xx_HAL_Driver/Src/stm32l4xx_hal_sd.c ****     return HAL_ERROR;
 287              		.loc 1 583 12
 288 00e8 0123     		movs	r3, #1
 289 00ea 2EE0     		b	.L15
 290              	.L12:
 584:Drivers/STM32L4xx_HAL_Driver/Src/stm32l4xx_hal_sd.c ****   }
 585:Drivers/STM32L4xx_HAL_Driver/Src/stm32l4xx_hal_sd.c **** 
 586:Drivers/STM32L4xx_HAL_Driver/Src/stm32l4xx_hal_sd.c ****   /* Card initialization */
 587:Drivers/STM32L4xx_HAL_Driver/Src/stm32l4xx_hal_sd.c ****   errorstate = SD_InitCard(hsd);
 291              		.loc 1 587 16
 292 00ec 7868     		ldr	r0, [r7, #4]
 293 00ee FFF7FEFF 		bl	SD_InitCard
 294 00f2 7862     		str	r0, [r7, #36]
 588:Drivers/STM32L4xx_HAL_Driver/Src/stm32l4xx_hal_sd.c ****   if (errorstate != HAL_SD_ERROR_NONE)
 295              		.loc 1 588 6
 296 00f4 7B6A     		ldr	r3, [r7, #36]
 297 00f6 002B     		cmp	r3, #0
 298 00f8 0BD0     		beq	.L13
 589:Drivers/STM32L4xx_HAL_Driver/Src/stm32l4xx_hal_sd.c ****   {
 590:Drivers/STM32L4xx_HAL_Driver/Src/stm32l4xx_hal_sd.c ****     hsd->State = HAL_SD_STATE_READY;
 299              		.loc 1 590 16
 300 00fa 7B68     		ldr	r3, [r7, #4]
 301 00fc 0122     		movs	r2, #1
 302 00fe 83F83420 		strb	r2, [r3, #52]
 591:Drivers/STM32L4xx_HAL_Driver/Src/stm32l4xx_hal_sd.c ****     hsd->ErrorCode |= errorstate;
 303              		.loc 1 591 8
 304 0102 7B68     		ldr	r3, [r7, #4]
 305 0104 9A6B     		ldr	r2, [r3, #56]
 306              		.loc 1 591 20
 307 0106 7B6A     		ldr	r3, [r7, #36]
 308 0108 1A43     		orrs	r2, r2, r3
 309 010a 7B68     		ldr	r3, [r7, #4]
 310 010c 9A63     		str	r2, [r3, #56]
 592:Drivers/STM32L4xx_HAL_Driver/Src/stm32l4xx_hal_sd.c ****     return HAL_ERROR;
 311              		.loc 1 592 12
 312 010e 0123     		movs	r3, #1
 313 0110 1BE0     		b	.L15
 314              	.L13:
 593:Drivers/STM32L4xx_HAL_Driver/Src/stm32l4xx_hal_sd.c ****   }
 594:Drivers/STM32L4xx_HAL_Driver/Src/stm32l4xx_hal_sd.c **** 
 595:Drivers/STM32L4xx_HAL_Driver/Src/stm32l4xx_hal_sd.c ****   /* Set Block Size for Card */
 596:Drivers/STM32L4xx_HAL_Driver/Src/stm32l4xx_hal_sd.c ****   errorstate = SDMMC_CmdBlockLength(hsd->Instance, BLOCKSIZE);
 315              		.loc 1 596 16
 316 0112 7B68     		ldr	r3, [r7, #4]
 317 0114 1B68     		ldr	r3, [r3]
 318 0116 4FF40071 		mov	r1, #512
 319 011a 1846     		mov	r0, r3
 320 011c FFF7FEFF 		bl	SDMMC_CmdBlockLength
ARM GAS  /tmp/ccsLb3N5.s 			page 17


 321 0120 7862     		str	r0, [r7, #36]
 597:Drivers/STM32L4xx_HAL_Driver/Src/stm32l4xx_hal_sd.c ****   if (errorstate != HAL_SD_ERROR_NONE)
 322              		.loc 1 597 6
 323 0122 7B6A     		ldr	r3, [r7, #36]
 324 0124 002B     		cmp	r3, #0
 325 0126 0FD0     		beq	.L14
 598:Drivers/STM32L4xx_HAL_Driver/Src/stm32l4xx_hal_sd.c ****   {
 599:Drivers/STM32L4xx_HAL_Driver/Src/stm32l4xx_hal_sd.c ****     /* Clear all the static flags */
 600:Drivers/STM32L4xx_HAL_Driver/Src/stm32l4xx_hal_sd.c ****     __HAL_SD_CLEAR_FLAG(hsd, SDMMC_STATIC_FLAGS);
 326              		.loc 1 600 5
 327 0128 7B68     		ldr	r3, [r7, #4]
 328 012a 1B68     		ldr	r3, [r3]
 329 012c 0B4A     		ldr	r2, .L16+8
 330 012e 9A63     		str	r2, [r3, #56]
 601:Drivers/STM32L4xx_HAL_Driver/Src/stm32l4xx_hal_sd.c ****     hsd->ErrorCode |= errorstate;
 331              		.loc 1 601 8
 332 0130 7B68     		ldr	r3, [r7, #4]
 333 0132 9A6B     		ldr	r2, [r3, #56]
 334              		.loc 1 601 20
 335 0134 7B6A     		ldr	r3, [r7, #36]
 336 0136 1A43     		orrs	r2, r2, r3
 337 0138 7B68     		ldr	r3, [r7, #4]
 338 013a 9A63     		str	r2, [r3, #56]
 602:Drivers/STM32L4xx_HAL_Driver/Src/stm32l4xx_hal_sd.c ****     hsd->State = HAL_SD_STATE_READY;
 339              		.loc 1 602 16
 340 013c 7B68     		ldr	r3, [r7, #4]
 341 013e 0122     		movs	r2, #1
 342 0140 83F83420 		strb	r2, [r3, #52]
 603:Drivers/STM32L4xx_HAL_Driver/Src/stm32l4xx_hal_sd.c ****     return HAL_ERROR;
 343              		.loc 1 603 12
 344 0144 0123     		movs	r3, #1
 345 0146 00E0     		b	.L15
 346              	.L14:
 604:Drivers/STM32L4xx_HAL_Driver/Src/stm32l4xx_hal_sd.c ****   }
 605:Drivers/STM32L4xx_HAL_Driver/Src/stm32l4xx_hal_sd.c **** 
 606:Drivers/STM32L4xx_HAL_Driver/Src/stm32l4xx_hal_sd.c ****   return HAL_OK;
 347              		.loc 1 606 10
 348 0148 0023     		movs	r3, #0
 349              	.L15:
 607:Drivers/STM32L4xx_HAL_Driver/Src/stm32l4xx_hal_sd.c **** }
 350              		.loc 1 607 1
 351 014a 1846     		mov	r0, r3
 352 014c 3037     		adds	r7, r7, #48
 353              		.cfi_def_cfa_offset 16
 354 014e BD46     		mov	sp, r7
 355              		.cfi_def_cfa_register 13
 356              		@ sp needed
 357 0150 B0BD     		pop	{r4, r5, r7, pc}
 358              	.L17:
 359 0152 00BF     		.align	2
 360              	.L16:
 361 0154 598B4F01 		.word	21990233
 362 0158 10210100 		.word	74000
 363 015c FF054000 		.word	4195839
 364              		.cfi_endproc
 365              	.LFE446:
 367              		.section	.text.HAL_SD_DeInit,"ax",%progbits
ARM GAS  /tmp/ccsLb3N5.s 			page 18


 368              		.align	1
 369              		.global	HAL_SD_DeInit
 370              		.syntax unified
 371              		.thumb
 372              		.thumb_func
 374              	HAL_SD_DeInit:
 375              	.LFB447:
 608:Drivers/STM32L4xx_HAL_Driver/Src/stm32l4xx_hal_sd.c **** 
 609:Drivers/STM32L4xx_HAL_Driver/Src/stm32l4xx_hal_sd.c **** /**
 610:Drivers/STM32L4xx_HAL_Driver/Src/stm32l4xx_hal_sd.c ****   * @brief  De-Initializes the SD card.
 611:Drivers/STM32L4xx_HAL_Driver/Src/stm32l4xx_hal_sd.c ****   * @param  hsd: Pointer to SD handle
 612:Drivers/STM32L4xx_HAL_Driver/Src/stm32l4xx_hal_sd.c ****   * @retval HAL status
 613:Drivers/STM32L4xx_HAL_Driver/Src/stm32l4xx_hal_sd.c ****   */
 614:Drivers/STM32L4xx_HAL_Driver/Src/stm32l4xx_hal_sd.c **** HAL_StatusTypeDef HAL_SD_DeInit(SD_HandleTypeDef *hsd)
 615:Drivers/STM32L4xx_HAL_Driver/Src/stm32l4xx_hal_sd.c **** {
 376              		.loc 1 615 1
 377              		.cfi_startproc
 378              		@ args = 0, pretend = 0, frame = 8
 379              		@ frame_needed = 1, uses_anonymous_args = 0
 380 0000 80B5     		push	{r7, lr}
 381              		.cfi_def_cfa_offset 8
 382              		.cfi_offset 7, -8
 383              		.cfi_offset 14, -4
 384 0002 82B0     		sub	sp, sp, #8
 385              		.cfi_def_cfa_offset 16
 386 0004 00AF     		add	r7, sp, #0
 387              		.cfi_def_cfa_register 7
 388 0006 7860     		str	r0, [r7, #4]
 616:Drivers/STM32L4xx_HAL_Driver/Src/stm32l4xx_hal_sd.c ****   /* Check the SD handle allocation */
 617:Drivers/STM32L4xx_HAL_Driver/Src/stm32l4xx_hal_sd.c ****   if (hsd == NULL)
 389              		.loc 1 617 6
 390 0008 7B68     		ldr	r3, [r7, #4]
 391 000a 002B     		cmp	r3, #0
 392 000c 01D1     		bne	.L19
 618:Drivers/STM32L4xx_HAL_Driver/Src/stm32l4xx_hal_sd.c ****   {
 619:Drivers/STM32L4xx_HAL_Driver/Src/stm32l4xx_hal_sd.c ****     return HAL_ERROR;
 393              		.loc 1 619 12
 394 000e 0123     		movs	r3, #1
 395 0010 11E0     		b	.L20
 396              	.L19:
 620:Drivers/STM32L4xx_HAL_Driver/Src/stm32l4xx_hal_sd.c ****   }
 621:Drivers/STM32L4xx_HAL_Driver/Src/stm32l4xx_hal_sd.c **** 
 622:Drivers/STM32L4xx_HAL_Driver/Src/stm32l4xx_hal_sd.c ****   /* Check the parameters */
 623:Drivers/STM32L4xx_HAL_Driver/Src/stm32l4xx_hal_sd.c ****   assert_param(IS_SDMMC_ALL_INSTANCE(hsd->Instance));
 624:Drivers/STM32L4xx_HAL_Driver/Src/stm32l4xx_hal_sd.c **** 
 625:Drivers/STM32L4xx_HAL_Driver/Src/stm32l4xx_hal_sd.c ****   hsd->State = HAL_SD_STATE_BUSY;
 397              		.loc 1 625 14
 398 0012 7B68     		ldr	r3, [r7, #4]
 399 0014 0322     		movs	r2, #3
 400 0016 83F83420 		strb	r2, [r3, #52]
 626:Drivers/STM32L4xx_HAL_Driver/Src/stm32l4xx_hal_sd.c **** #if defined(STM32L4P5xx) || defined(STM32L4Q5xx) || defined(STM32L4R5xx) || defined(STM32L4R7xx) ||
 627:Drivers/STM32L4xx_HAL_Driver/Src/stm32l4xx_hal_sd.c ****   /* Deactivate the 1.8V Mode */
 628:Drivers/STM32L4xx_HAL_Driver/Src/stm32l4xx_hal_sd.c ****   if (hsd->Init.Transceiver == SDMMC_TRANSCEIVER_ENABLE)
 629:Drivers/STM32L4xx_HAL_Driver/Src/stm32l4xx_hal_sd.c ****   {
 630:Drivers/STM32L4xx_HAL_Driver/Src/stm32l4xx_hal_sd.c **** #if defined (USE_HAL_SD_REGISTER_CALLBACKS) && (USE_HAL_SD_REGISTER_CALLBACKS == 1U)
 631:Drivers/STM32L4xx_HAL_Driver/Src/stm32l4xx_hal_sd.c ****     if (hsd->DriveTransceiver_1_8V_Callback == NULL)
 632:Drivers/STM32L4xx_HAL_Driver/Src/stm32l4xx_hal_sd.c ****     {
ARM GAS  /tmp/ccsLb3N5.s 			page 19


 633:Drivers/STM32L4xx_HAL_Driver/Src/stm32l4xx_hal_sd.c ****       hsd->DriveTransceiver_1_8V_Callback = HAL_SDEx_DriveTransceiver_1_8V_Callback;
 634:Drivers/STM32L4xx_HAL_Driver/Src/stm32l4xx_hal_sd.c ****     }
 635:Drivers/STM32L4xx_HAL_Driver/Src/stm32l4xx_hal_sd.c ****     hsd->DriveTransceiver_1_8V_Callback(RESET);
 636:Drivers/STM32L4xx_HAL_Driver/Src/stm32l4xx_hal_sd.c **** #else
 637:Drivers/STM32L4xx_HAL_Driver/Src/stm32l4xx_hal_sd.c ****     HAL_SDEx_DriveTransceiver_1_8V_Callback(RESET);
 638:Drivers/STM32L4xx_HAL_Driver/Src/stm32l4xx_hal_sd.c **** #endif /* USE_HAL_SD_REGISTER_CALLBACKS */
 639:Drivers/STM32L4xx_HAL_Driver/Src/stm32l4xx_hal_sd.c ****   }
 640:Drivers/STM32L4xx_HAL_Driver/Src/stm32l4xx_hal_sd.c **** #endif /* STM32L4P5xx || STM32L4Q5xx || STM32L4R5xx || STM32L4R7xx || STM32L4R9xx \
 641:Drivers/STM32L4xx_HAL_Driver/Src/stm32l4xx_hal_sd.c ****           || STM32L4S5xx || STM32L4S7xx || STM32L4S9xx */
 642:Drivers/STM32L4xx_HAL_Driver/Src/stm32l4xx_hal_sd.c **** 
 643:Drivers/STM32L4xx_HAL_Driver/Src/stm32l4xx_hal_sd.c ****   /* Set SD power state to off */
 644:Drivers/STM32L4xx_HAL_Driver/Src/stm32l4xx_hal_sd.c ****   SD_PowerOFF(hsd);
 401              		.loc 1 644 3
 402 001a 7868     		ldr	r0, [r7, #4]
 403 001c FFF7FEFF 		bl	SD_PowerOFF
 645:Drivers/STM32L4xx_HAL_Driver/Src/stm32l4xx_hal_sd.c **** 
 646:Drivers/STM32L4xx_HAL_Driver/Src/stm32l4xx_hal_sd.c **** #if defined (USE_HAL_SD_REGISTER_CALLBACKS) && (USE_HAL_SD_REGISTER_CALLBACKS == 1U)
 647:Drivers/STM32L4xx_HAL_Driver/Src/stm32l4xx_hal_sd.c ****   if (hsd->MspDeInitCallback == NULL)
 648:Drivers/STM32L4xx_HAL_Driver/Src/stm32l4xx_hal_sd.c ****   {
 649:Drivers/STM32L4xx_HAL_Driver/Src/stm32l4xx_hal_sd.c ****     hsd->MspDeInitCallback = HAL_SD_MspDeInit;
 650:Drivers/STM32L4xx_HAL_Driver/Src/stm32l4xx_hal_sd.c ****   }
 651:Drivers/STM32L4xx_HAL_Driver/Src/stm32l4xx_hal_sd.c **** 
 652:Drivers/STM32L4xx_HAL_Driver/Src/stm32l4xx_hal_sd.c ****   /* DeInit the low level hardware */
 653:Drivers/STM32L4xx_HAL_Driver/Src/stm32l4xx_hal_sd.c ****   hsd->MspDeInitCallback(hsd);
 654:Drivers/STM32L4xx_HAL_Driver/Src/stm32l4xx_hal_sd.c **** #else
 655:Drivers/STM32L4xx_HAL_Driver/Src/stm32l4xx_hal_sd.c ****   /* De-Initialize the MSP layer */
 656:Drivers/STM32L4xx_HAL_Driver/Src/stm32l4xx_hal_sd.c ****   HAL_SD_MspDeInit(hsd);
 404              		.loc 1 656 3
 405 0020 7868     		ldr	r0, [r7, #4]
 406 0022 FFF7FEFF 		bl	HAL_SD_MspDeInit
 657:Drivers/STM32L4xx_HAL_Driver/Src/stm32l4xx_hal_sd.c **** #endif /* USE_HAL_SD_REGISTER_CALLBACKS */
 658:Drivers/STM32L4xx_HAL_Driver/Src/stm32l4xx_hal_sd.c **** 
 659:Drivers/STM32L4xx_HAL_Driver/Src/stm32l4xx_hal_sd.c ****   hsd->ErrorCode = HAL_SD_ERROR_NONE;
 407              		.loc 1 659 18
 408 0026 7B68     		ldr	r3, [r7, #4]
 409 0028 0022     		movs	r2, #0
 410 002a 9A63     		str	r2, [r3, #56]
 660:Drivers/STM32L4xx_HAL_Driver/Src/stm32l4xx_hal_sd.c ****   hsd->State = HAL_SD_STATE_RESET;
 411              		.loc 1 660 14
 412 002c 7B68     		ldr	r3, [r7, #4]
 413 002e 0022     		movs	r2, #0
 414 0030 83F83420 		strb	r2, [r3, #52]
 661:Drivers/STM32L4xx_HAL_Driver/Src/stm32l4xx_hal_sd.c **** 
 662:Drivers/STM32L4xx_HAL_Driver/Src/stm32l4xx_hal_sd.c ****   return HAL_OK;
 415              		.loc 1 662 10
 416 0034 0023     		movs	r3, #0
 417              	.L20:
 663:Drivers/STM32L4xx_HAL_Driver/Src/stm32l4xx_hal_sd.c **** }
 418              		.loc 1 663 1
 419 0036 1846     		mov	r0, r3
 420 0038 0837     		adds	r7, r7, #8
 421              		.cfi_def_cfa_offset 8
 422 003a BD46     		mov	sp, r7
 423              		.cfi_def_cfa_register 13
 424              		@ sp needed
 425 003c 80BD     		pop	{r7, pc}
 426              		.cfi_endproc
ARM GAS  /tmp/ccsLb3N5.s 			page 20


 427              	.LFE447:
 429              		.section	.text.HAL_SD_MspInit,"ax",%progbits
 430              		.align	1
 431              		.weak	HAL_SD_MspInit
 432              		.syntax unified
 433              		.thumb
 434              		.thumb_func
 436              	HAL_SD_MspInit:
 437              	.LFB448:
 664:Drivers/STM32L4xx_HAL_Driver/Src/stm32l4xx_hal_sd.c **** 
 665:Drivers/STM32L4xx_HAL_Driver/Src/stm32l4xx_hal_sd.c **** 
 666:Drivers/STM32L4xx_HAL_Driver/Src/stm32l4xx_hal_sd.c **** /**
 667:Drivers/STM32L4xx_HAL_Driver/Src/stm32l4xx_hal_sd.c ****   * @brief  Initializes the SD MSP.
 668:Drivers/STM32L4xx_HAL_Driver/Src/stm32l4xx_hal_sd.c ****   * @param  hsd: Pointer to SD handle
 669:Drivers/STM32L4xx_HAL_Driver/Src/stm32l4xx_hal_sd.c ****   * @retval None
 670:Drivers/STM32L4xx_HAL_Driver/Src/stm32l4xx_hal_sd.c ****   */
 671:Drivers/STM32L4xx_HAL_Driver/Src/stm32l4xx_hal_sd.c **** __weak void HAL_SD_MspInit(SD_HandleTypeDef *hsd)
 672:Drivers/STM32L4xx_HAL_Driver/Src/stm32l4xx_hal_sd.c **** {
 438              		.loc 1 672 1
 439              		.cfi_startproc
 440              		@ args = 0, pretend = 0, frame = 8
 441              		@ frame_needed = 1, uses_anonymous_args = 0
 442              		@ link register save eliminated.
 443 0000 80B4     		push	{r7}
 444              		.cfi_def_cfa_offset 4
 445              		.cfi_offset 7, -4
 446 0002 83B0     		sub	sp, sp, #12
 447              		.cfi_def_cfa_offset 16
 448 0004 00AF     		add	r7, sp, #0
 449              		.cfi_def_cfa_register 7
 450 0006 7860     		str	r0, [r7, #4]
 673:Drivers/STM32L4xx_HAL_Driver/Src/stm32l4xx_hal_sd.c ****   /* Prevent unused argument(s) compilation warning */
 674:Drivers/STM32L4xx_HAL_Driver/Src/stm32l4xx_hal_sd.c ****   UNUSED(hsd);
 675:Drivers/STM32L4xx_HAL_Driver/Src/stm32l4xx_hal_sd.c **** 
 676:Drivers/STM32L4xx_HAL_Driver/Src/stm32l4xx_hal_sd.c ****   /* NOTE : This function should not be modified, when the callback is needed,
 677:Drivers/STM32L4xx_HAL_Driver/Src/stm32l4xx_hal_sd.c ****             the HAL_SD_MspInit could be implemented in the user file
 678:Drivers/STM32L4xx_HAL_Driver/Src/stm32l4xx_hal_sd.c ****    */
 679:Drivers/STM32L4xx_HAL_Driver/Src/stm32l4xx_hal_sd.c **** }
 451              		.loc 1 679 1
 452 0008 00BF     		nop
 453 000a 0C37     		adds	r7, r7, #12
 454              		.cfi_def_cfa_offset 4
 455 000c BD46     		mov	sp, r7
 456              		.cfi_def_cfa_register 13
 457              		@ sp needed
 458 000e 5DF8047B 		ldr	r7, [sp], #4
 459              		.cfi_restore 7
 460              		.cfi_def_cfa_offset 0
 461 0012 7047     		bx	lr
 462              		.cfi_endproc
 463              	.LFE448:
 465              		.section	.text.HAL_SD_MspDeInit,"ax",%progbits
 466              		.align	1
 467              		.weak	HAL_SD_MspDeInit
 468              		.syntax unified
 469              		.thumb
 470              		.thumb_func
ARM GAS  /tmp/ccsLb3N5.s 			page 21


 472              	HAL_SD_MspDeInit:
 473              	.LFB449:
 680:Drivers/STM32L4xx_HAL_Driver/Src/stm32l4xx_hal_sd.c **** 
 681:Drivers/STM32L4xx_HAL_Driver/Src/stm32l4xx_hal_sd.c **** /**
 682:Drivers/STM32L4xx_HAL_Driver/Src/stm32l4xx_hal_sd.c ****   * @brief  De-Initialize SD MSP.
 683:Drivers/STM32L4xx_HAL_Driver/Src/stm32l4xx_hal_sd.c ****   * @param  hsd: Pointer to SD handle
 684:Drivers/STM32L4xx_HAL_Driver/Src/stm32l4xx_hal_sd.c ****   * @retval None
 685:Drivers/STM32L4xx_HAL_Driver/Src/stm32l4xx_hal_sd.c ****   */
 686:Drivers/STM32L4xx_HAL_Driver/Src/stm32l4xx_hal_sd.c **** __weak void HAL_SD_MspDeInit(SD_HandleTypeDef *hsd)
 687:Drivers/STM32L4xx_HAL_Driver/Src/stm32l4xx_hal_sd.c **** {
 474              		.loc 1 687 1
 475              		.cfi_startproc
 476              		@ args = 0, pretend = 0, frame = 8
 477              		@ frame_needed = 1, uses_anonymous_args = 0
 478              		@ link register save eliminated.
 479 0000 80B4     		push	{r7}
 480              		.cfi_def_cfa_offset 4
 481              		.cfi_offset 7, -4
 482 0002 83B0     		sub	sp, sp, #12
 483              		.cfi_def_cfa_offset 16
 484 0004 00AF     		add	r7, sp, #0
 485              		.cfi_def_cfa_register 7
 486 0006 7860     		str	r0, [r7, #4]
 688:Drivers/STM32L4xx_HAL_Driver/Src/stm32l4xx_hal_sd.c ****   /* Prevent unused argument(s) compilation warning */
 689:Drivers/STM32L4xx_HAL_Driver/Src/stm32l4xx_hal_sd.c ****   UNUSED(hsd);
 690:Drivers/STM32L4xx_HAL_Driver/Src/stm32l4xx_hal_sd.c **** 
 691:Drivers/STM32L4xx_HAL_Driver/Src/stm32l4xx_hal_sd.c ****   /* NOTE : This function should not be modified, when the callback is needed,
 692:Drivers/STM32L4xx_HAL_Driver/Src/stm32l4xx_hal_sd.c ****             the HAL_SD_MspDeInit could be implemented in the user file
 693:Drivers/STM32L4xx_HAL_Driver/Src/stm32l4xx_hal_sd.c ****    */
 694:Drivers/STM32L4xx_HAL_Driver/Src/stm32l4xx_hal_sd.c **** }
 487              		.loc 1 694 1
 488 0008 00BF     		nop
 489 000a 0C37     		adds	r7, r7, #12
 490              		.cfi_def_cfa_offset 4
 491 000c BD46     		mov	sp, r7
 492              		.cfi_def_cfa_register 13
 493              		@ sp needed
 494 000e 5DF8047B 		ldr	r7, [sp], #4
 495              		.cfi_restore 7
 496              		.cfi_def_cfa_offset 0
 497 0012 7047     		bx	lr
 498              		.cfi_endproc
 499              	.LFE449:
 501              		.section	.text.HAL_SD_ReadBlocks,"ax",%progbits
 502              		.align	1
 503              		.global	HAL_SD_ReadBlocks
 504              		.syntax unified
 505              		.thumb
 506              		.thumb_func
 508              	HAL_SD_ReadBlocks:
 509              	.LFB450:
 695:Drivers/STM32L4xx_HAL_Driver/Src/stm32l4xx_hal_sd.c **** 
 696:Drivers/STM32L4xx_HAL_Driver/Src/stm32l4xx_hal_sd.c **** /**
 697:Drivers/STM32L4xx_HAL_Driver/Src/stm32l4xx_hal_sd.c ****   * @}
 698:Drivers/STM32L4xx_HAL_Driver/Src/stm32l4xx_hal_sd.c ****   */
 699:Drivers/STM32L4xx_HAL_Driver/Src/stm32l4xx_hal_sd.c **** 
 700:Drivers/STM32L4xx_HAL_Driver/Src/stm32l4xx_hal_sd.c **** /** @addtogroup SD_Exported_Functions_Group2
ARM GAS  /tmp/ccsLb3N5.s 			page 22


 701:Drivers/STM32L4xx_HAL_Driver/Src/stm32l4xx_hal_sd.c ****   *  @brief   Data transfer functions
 702:Drivers/STM32L4xx_HAL_Driver/Src/stm32l4xx_hal_sd.c ****   *
 703:Drivers/STM32L4xx_HAL_Driver/Src/stm32l4xx_hal_sd.c **** @verbatim
 704:Drivers/STM32L4xx_HAL_Driver/Src/stm32l4xx_hal_sd.c ****   ==============================================================================
 705:Drivers/STM32L4xx_HAL_Driver/Src/stm32l4xx_hal_sd.c ****                         ##### IO operation functions #####
 706:Drivers/STM32L4xx_HAL_Driver/Src/stm32l4xx_hal_sd.c ****   ==============================================================================
 707:Drivers/STM32L4xx_HAL_Driver/Src/stm32l4xx_hal_sd.c ****   [..]
 708:Drivers/STM32L4xx_HAL_Driver/Src/stm32l4xx_hal_sd.c ****     This subsection provides a set of functions allowing to manage the data
 709:Drivers/STM32L4xx_HAL_Driver/Src/stm32l4xx_hal_sd.c ****     transfer from/to SD card.
 710:Drivers/STM32L4xx_HAL_Driver/Src/stm32l4xx_hal_sd.c **** 
 711:Drivers/STM32L4xx_HAL_Driver/Src/stm32l4xx_hal_sd.c **** @endverbatim
 712:Drivers/STM32L4xx_HAL_Driver/Src/stm32l4xx_hal_sd.c ****   * @{
 713:Drivers/STM32L4xx_HAL_Driver/Src/stm32l4xx_hal_sd.c ****   */
 714:Drivers/STM32L4xx_HAL_Driver/Src/stm32l4xx_hal_sd.c **** 
 715:Drivers/STM32L4xx_HAL_Driver/Src/stm32l4xx_hal_sd.c **** /**
 716:Drivers/STM32L4xx_HAL_Driver/Src/stm32l4xx_hal_sd.c ****   * @brief  Reads block(s) from a specified address in a card. The Data transfer
 717:Drivers/STM32L4xx_HAL_Driver/Src/stm32l4xx_hal_sd.c ****   *         is managed by polling mode.
 718:Drivers/STM32L4xx_HAL_Driver/Src/stm32l4xx_hal_sd.c ****   * @note   This API should be followed by a check on the card state through
 719:Drivers/STM32L4xx_HAL_Driver/Src/stm32l4xx_hal_sd.c ****   *         HAL_SD_GetCardState().
 720:Drivers/STM32L4xx_HAL_Driver/Src/stm32l4xx_hal_sd.c ****   * @param  hsd: Pointer to SD handle
 721:Drivers/STM32L4xx_HAL_Driver/Src/stm32l4xx_hal_sd.c ****   * @param  pData: pointer to the buffer that will contain the received data
 722:Drivers/STM32L4xx_HAL_Driver/Src/stm32l4xx_hal_sd.c ****   * @param  BlockAdd: Block Address from where data is to be read
 723:Drivers/STM32L4xx_HAL_Driver/Src/stm32l4xx_hal_sd.c ****   * @param  NumberOfBlocks: Number of SD blocks to read
 724:Drivers/STM32L4xx_HAL_Driver/Src/stm32l4xx_hal_sd.c ****   * @param  Timeout: Specify timeout value
 725:Drivers/STM32L4xx_HAL_Driver/Src/stm32l4xx_hal_sd.c ****   * @retval HAL status
 726:Drivers/STM32L4xx_HAL_Driver/Src/stm32l4xx_hal_sd.c ****   */
 727:Drivers/STM32L4xx_HAL_Driver/Src/stm32l4xx_hal_sd.c **** HAL_StatusTypeDef HAL_SD_ReadBlocks(SD_HandleTypeDef *hsd, uint8_t *pData, uint32_t BlockAdd, uint3
 728:Drivers/STM32L4xx_HAL_Driver/Src/stm32l4xx_hal_sd.c ****                                     uint32_t Timeout)
 729:Drivers/STM32L4xx_HAL_Driver/Src/stm32l4xx_hal_sd.c **** {
 510              		.loc 1 729 1
 511              		.cfi_startproc
 512              		@ args = 4, pretend = 0, frame = 72
 513              		@ frame_needed = 1, uses_anonymous_args = 0
 514 0000 80B5     		push	{r7, lr}
 515              		.cfi_def_cfa_offset 8
 516              		.cfi_offset 7, -8
 517              		.cfi_offset 14, -4
 518 0002 92B0     		sub	sp, sp, #72
 519              		.cfi_def_cfa_offset 80
 520 0004 00AF     		add	r7, sp, #0
 521              		.cfi_def_cfa_register 7
 522 0006 F860     		str	r0, [r7, #12]
 523 0008 B960     		str	r1, [r7, #8]
 524 000a 7A60     		str	r2, [r7, #4]
 525 000c 3B60     		str	r3, [r7]
 730:Drivers/STM32L4xx_HAL_Driver/Src/stm32l4xx_hal_sd.c ****   SDMMC_DataInitTypeDef config;
 731:Drivers/STM32L4xx_HAL_Driver/Src/stm32l4xx_hal_sd.c ****   uint32_t errorstate;
 732:Drivers/STM32L4xx_HAL_Driver/Src/stm32l4xx_hal_sd.c ****   uint32_t tickstart = HAL_GetTick();
 526              		.loc 1 732 24
 527 000e FFF7FEFF 		bl	HAL_GetTick
 528 0012 3863     		str	r0, [r7, #48]
 733:Drivers/STM32L4xx_HAL_Driver/Src/stm32l4xx_hal_sd.c ****   uint32_t count;
 734:Drivers/STM32L4xx_HAL_Driver/Src/stm32l4xx_hal_sd.c ****   uint32_t data;
 735:Drivers/STM32L4xx_HAL_Driver/Src/stm32l4xx_hal_sd.c ****   uint32_t dataremaining;
 736:Drivers/STM32L4xx_HAL_Driver/Src/stm32l4xx_hal_sd.c ****   uint32_t add = BlockAdd;
 529              		.loc 1 736 12
 530 0014 7B68     		ldr	r3, [r7, #4]
ARM GAS  /tmp/ccsLb3N5.s 			page 23


 531 0016 BB63     		str	r3, [r7, #56]
 737:Drivers/STM32L4xx_HAL_Driver/Src/stm32l4xx_hal_sd.c ****   uint8_t *tempbuff = pData;
 532              		.loc 1 737 12
 533 0018 BB68     		ldr	r3, [r7, #8]
 534 001a 7B63     		str	r3, [r7, #52]
 738:Drivers/STM32L4xx_HAL_Driver/Src/stm32l4xx_hal_sd.c **** 
 739:Drivers/STM32L4xx_HAL_Driver/Src/stm32l4xx_hal_sd.c ****   if (NULL == pData)
 535              		.loc 1 739 6
 536 001c BB68     		ldr	r3, [r7, #8]
 537 001e 002B     		cmp	r3, #0
 538 0020 07D1     		bne	.L24
 740:Drivers/STM32L4xx_HAL_Driver/Src/stm32l4xx_hal_sd.c ****   {
 741:Drivers/STM32L4xx_HAL_Driver/Src/stm32l4xx_hal_sd.c ****     hsd->ErrorCode |= HAL_SD_ERROR_PARAM;
 539              		.loc 1 741 8
 540 0022 FB68     		ldr	r3, [r7, #12]
 541 0024 9B6B     		ldr	r3, [r3, #56]
 542              		.loc 1 741 20
 543 0026 43F00062 		orr	r2, r3, #134217728
 544 002a FB68     		ldr	r3, [r7, #12]
 545 002c 9A63     		str	r2, [r3, #56]
 742:Drivers/STM32L4xx_HAL_Driver/Src/stm32l4xx_hal_sd.c ****     return HAL_ERROR;
 546              		.loc 1 742 12
 547 002e 0123     		movs	r3, #1
 548 0030 BDE1     		b	.L46
 549              	.L24:
 743:Drivers/STM32L4xx_HAL_Driver/Src/stm32l4xx_hal_sd.c ****   }
 744:Drivers/STM32L4xx_HAL_Driver/Src/stm32l4xx_hal_sd.c **** 
 745:Drivers/STM32L4xx_HAL_Driver/Src/stm32l4xx_hal_sd.c ****   if (hsd->State == HAL_SD_STATE_READY)
 550              		.loc 1 745 10
 551 0032 FB68     		ldr	r3, [r7, #12]
 552 0034 93F83430 		ldrb	r3, [r3, #52]
 553 0038 DBB2     		uxtb	r3, r3
 554              		.loc 1 745 6
 555 003a 012B     		cmp	r3, #1
 556 003c 40F0B081 		bne	.L26
 746:Drivers/STM32L4xx_HAL_Driver/Src/stm32l4xx_hal_sd.c ****   {
 747:Drivers/STM32L4xx_HAL_Driver/Src/stm32l4xx_hal_sd.c ****     hsd->ErrorCode = HAL_SD_ERROR_NONE;
 557              		.loc 1 747 20
 558 0040 FB68     		ldr	r3, [r7, #12]
 559 0042 0022     		movs	r2, #0
 560 0044 9A63     		str	r2, [r3, #56]
 748:Drivers/STM32L4xx_HAL_Driver/Src/stm32l4xx_hal_sd.c **** 
 749:Drivers/STM32L4xx_HAL_Driver/Src/stm32l4xx_hal_sd.c ****     if ((add + NumberOfBlocks) > (hsd->SdCard.LogBlockNbr))
 561              		.loc 1 749 14
 562 0046 BA6B     		ldr	r2, [r7, #56]
 563 0048 3B68     		ldr	r3, [r7]
 564 004a 1A44     		add	r2, r2, r3
 565              		.loc 1 749 46
 566 004c FB68     		ldr	r3, [r7, #12]
 567 004e DB6D     		ldr	r3, [r3, #92]
 568              		.loc 1 749 8
 569 0050 9A42     		cmp	r2, r3
 570 0052 07D9     		bls	.L27
 750:Drivers/STM32L4xx_HAL_Driver/Src/stm32l4xx_hal_sd.c ****     {
 751:Drivers/STM32L4xx_HAL_Driver/Src/stm32l4xx_hal_sd.c ****       hsd->ErrorCode |= HAL_SD_ERROR_ADDR_OUT_OF_RANGE;
 571              		.loc 1 751 10
 572 0054 FB68     		ldr	r3, [r7, #12]
ARM GAS  /tmp/ccsLb3N5.s 			page 24


 573 0056 9B6B     		ldr	r3, [r3, #56]
 574              		.loc 1 751 22
 575 0058 43F00072 		orr	r2, r3, #33554432
 576 005c FB68     		ldr	r3, [r7, #12]
 577 005e 9A63     		str	r2, [r3, #56]
 752:Drivers/STM32L4xx_HAL_Driver/Src/stm32l4xx_hal_sd.c ****       return HAL_ERROR;
 578              		.loc 1 752 14
 579 0060 0123     		movs	r3, #1
 580 0062 A4E1     		b	.L46
 581              	.L27:
 753:Drivers/STM32L4xx_HAL_Driver/Src/stm32l4xx_hal_sd.c ****     }
 754:Drivers/STM32L4xx_HAL_Driver/Src/stm32l4xx_hal_sd.c **** 
 755:Drivers/STM32L4xx_HAL_Driver/Src/stm32l4xx_hal_sd.c ****     hsd->State = HAL_SD_STATE_BUSY;
 582              		.loc 1 755 16
 583 0064 FB68     		ldr	r3, [r7, #12]
 584 0066 0322     		movs	r2, #3
 585 0068 83F83420 		strb	r2, [r3, #52]
 756:Drivers/STM32L4xx_HAL_Driver/Src/stm32l4xx_hal_sd.c **** 
 757:Drivers/STM32L4xx_HAL_Driver/Src/stm32l4xx_hal_sd.c ****     /* Initialize data control register */
 758:Drivers/STM32L4xx_HAL_Driver/Src/stm32l4xx_hal_sd.c ****     hsd->Instance->DCTRL = 0U;
 586              		.loc 1 758 8
 587 006c FB68     		ldr	r3, [r7, #12]
 588 006e 1B68     		ldr	r3, [r3]
 589              		.loc 1 758 26
 590 0070 0022     		movs	r2, #0
 591 0072 DA62     		str	r2, [r3, #44]
 759:Drivers/STM32L4xx_HAL_Driver/Src/stm32l4xx_hal_sd.c **** 
 760:Drivers/STM32L4xx_HAL_Driver/Src/stm32l4xx_hal_sd.c ****     if (hsd->SdCard.CardType != CARD_SDHC_SDXC)
 592              		.loc 1 760 20
 593 0074 FB68     		ldr	r3, [r7, #12]
 594 0076 5B6C     		ldr	r3, [r3, #68]
 595              		.loc 1 760 8
 596 0078 012B     		cmp	r3, #1
 597 007a 02D0     		beq	.L28
 761:Drivers/STM32L4xx_HAL_Driver/Src/stm32l4xx_hal_sd.c ****     {
 762:Drivers/STM32L4xx_HAL_Driver/Src/stm32l4xx_hal_sd.c ****       add *= BLOCKSIZE;
 598              		.loc 1 762 11
 599 007c BB6B     		ldr	r3, [r7, #56]
 600 007e 5B02     		lsls	r3, r3, #9
 601 0080 BB63     		str	r3, [r7, #56]
 602              	.L28:
 763:Drivers/STM32L4xx_HAL_Driver/Src/stm32l4xx_hal_sd.c ****     }
 764:Drivers/STM32L4xx_HAL_Driver/Src/stm32l4xx_hal_sd.c **** 
 765:Drivers/STM32L4xx_HAL_Driver/Src/stm32l4xx_hal_sd.c ****     /* Configure the SD DPSM (Data Path State Machine) */
 766:Drivers/STM32L4xx_HAL_Driver/Src/stm32l4xx_hal_sd.c ****     config.DataTimeOut   = SDMMC_DATATIMEOUT;
 603              		.loc 1 766 26
 604 0082 4FF0FF33 		mov	r3, #-1
 605 0086 7B61     		str	r3, [r7, #20]
 767:Drivers/STM32L4xx_HAL_Driver/Src/stm32l4xx_hal_sd.c ****     config.DataLength    = NumberOfBlocks * BLOCKSIZE;
 606              		.loc 1 767 43
 607 0088 3B68     		ldr	r3, [r7]
 608 008a 5B02     		lsls	r3, r3, #9
 609              		.loc 1 767 26
 610 008c BB61     		str	r3, [r7, #24]
 768:Drivers/STM32L4xx_HAL_Driver/Src/stm32l4xx_hal_sd.c ****     config.DataBlockSize = SDMMC_DATABLOCK_SIZE_512B;
 611              		.loc 1 768 26
 612 008e 9023     		movs	r3, #144
ARM GAS  /tmp/ccsLb3N5.s 			page 25


 613 0090 FB61     		str	r3, [r7, #28]
 769:Drivers/STM32L4xx_HAL_Driver/Src/stm32l4xx_hal_sd.c ****     config.TransferDir   = SDMMC_TRANSFER_DIR_TO_SDMMC;
 614              		.loc 1 769 26
 615 0092 0223     		movs	r3, #2
 616 0094 3B62     		str	r3, [r7, #32]
 770:Drivers/STM32L4xx_HAL_Driver/Src/stm32l4xx_hal_sd.c ****     config.TransferMode  = SDMMC_TRANSFER_MODE_BLOCK;
 617              		.loc 1 770 26
 618 0096 0023     		movs	r3, #0
 619 0098 7B62     		str	r3, [r7, #36]
 771:Drivers/STM32L4xx_HAL_Driver/Src/stm32l4xx_hal_sd.c **** #if defined(STM32L4P5xx) || defined(STM32L4Q5xx) || defined(STM32L4R5xx) || defined(STM32L4R7xx) ||
 772:Drivers/STM32L4xx_HAL_Driver/Src/stm32l4xx_hal_sd.c ****     config.DPSM          = SDMMC_DPSM_DISABLE;
 773:Drivers/STM32L4xx_HAL_Driver/Src/stm32l4xx_hal_sd.c **** #else
 774:Drivers/STM32L4xx_HAL_Driver/Src/stm32l4xx_hal_sd.c ****     config.DPSM          = SDMMC_DPSM_ENABLE;
 620              		.loc 1 774 26
 621 009a 0123     		movs	r3, #1
 622 009c BB62     		str	r3, [r7, #40]
 775:Drivers/STM32L4xx_HAL_Driver/Src/stm32l4xx_hal_sd.c **** #endif /* STM32L4P5xx || STM32L4Q5xx || STM32L4R5xx || STM32L4R7xx || STM32L4R9xx \
 776:Drivers/STM32L4xx_HAL_Driver/Src/stm32l4xx_hal_sd.c ****           || STM32L4S5xx || STM32L4S7xx || STM32L4S9xx */
 777:Drivers/STM32L4xx_HAL_Driver/Src/stm32l4xx_hal_sd.c ****     (void)SDMMC_ConfigData(hsd->Instance, &config);
 623              		.loc 1 777 11
 624 009e FB68     		ldr	r3, [r7, #12]
 625 00a0 1B68     		ldr	r3, [r3]
 626 00a2 07F11402 		add	r2, r7, #20
 627 00a6 1146     		mov	r1, r2
 628 00a8 1846     		mov	r0, r3
 629 00aa FFF7FEFF 		bl	SDMMC_ConfigData
 778:Drivers/STM32L4xx_HAL_Driver/Src/stm32l4xx_hal_sd.c **** #if defined(STM32L4P5xx) || defined(STM32L4Q5xx) || defined(STM32L4R5xx) || defined(STM32L4R7xx) ||
 779:Drivers/STM32L4xx_HAL_Driver/Src/stm32l4xx_hal_sd.c ****     __SDMMC_CMDTRANS_ENABLE(hsd->Instance);
 780:Drivers/STM32L4xx_HAL_Driver/Src/stm32l4xx_hal_sd.c **** #endif /* STM32L4P5xx || STM32L4Q5xx || STM32L4R5xx || STM32L4R7xx || STM32L4R9xx \
 781:Drivers/STM32L4xx_HAL_Driver/Src/stm32l4xx_hal_sd.c ****           || STM32L4S5xx || STM32L4S7xx || STM32L4S9xx */
 782:Drivers/STM32L4xx_HAL_Driver/Src/stm32l4xx_hal_sd.c **** 
 783:Drivers/STM32L4xx_HAL_Driver/Src/stm32l4xx_hal_sd.c ****     /* Read block(s) in polling mode */
 784:Drivers/STM32L4xx_HAL_Driver/Src/stm32l4xx_hal_sd.c ****     if (NumberOfBlocks > 1U)
 630              		.loc 1 784 8
 631 00ae 3B68     		ldr	r3, [r7]
 632 00b0 012B     		cmp	r3, #1
 633 00b2 0AD9     		bls	.L29
 785:Drivers/STM32L4xx_HAL_Driver/Src/stm32l4xx_hal_sd.c ****     {
 786:Drivers/STM32L4xx_HAL_Driver/Src/stm32l4xx_hal_sd.c ****       hsd->Context = SD_CONTEXT_READ_MULTIPLE_BLOCK;
 634              		.loc 1 786 20
 635 00b4 FB68     		ldr	r3, [r7, #12]
 636 00b6 0222     		movs	r2, #2
 637 00b8 1A63     		str	r2, [r3, #48]
 787:Drivers/STM32L4xx_HAL_Driver/Src/stm32l4xx_hal_sd.c **** 
 788:Drivers/STM32L4xx_HAL_Driver/Src/stm32l4xx_hal_sd.c ****       /* Read Multi Block command */
 789:Drivers/STM32L4xx_HAL_Driver/Src/stm32l4xx_hal_sd.c ****       errorstate = SDMMC_CmdReadMultiBlock(hsd->Instance, add);
 638              		.loc 1 789 20
 639 00ba FB68     		ldr	r3, [r7, #12]
 640 00bc 1B68     		ldr	r3, [r3]
 641 00be B96B     		ldr	r1, [r7, #56]
 642 00c0 1846     		mov	r0, r3
 643 00c2 FFF7FEFF 		bl	SDMMC_CmdReadMultiBlock
 644 00c6 7864     		str	r0, [r7, #68]
 645 00c8 09E0     		b	.L30
 646              	.L29:
 790:Drivers/STM32L4xx_HAL_Driver/Src/stm32l4xx_hal_sd.c ****     }
 791:Drivers/STM32L4xx_HAL_Driver/Src/stm32l4xx_hal_sd.c ****     else
ARM GAS  /tmp/ccsLb3N5.s 			page 26


 792:Drivers/STM32L4xx_HAL_Driver/Src/stm32l4xx_hal_sd.c ****     {
 793:Drivers/STM32L4xx_HAL_Driver/Src/stm32l4xx_hal_sd.c ****       hsd->Context = SD_CONTEXT_READ_SINGLE_BLOCK;
 647              		.loc 1 793 20
 648 00ca FB68     		ldr	r3, [r7, #12]
 649 00cc 0122     		movs	r2, #1
 650 00ce 1A63     		str	r2, [r3, #48]
 794:Drivers/STM32L4xx_HAL_Driver/Src/stm32l4xx_hal_sd.c **** 
 795:Drivers/STM32L4xx_HAL_Driver/Src/stm32l4xx_hal_sd.c ****       /* Read Single Block command */
 796:Drivers/STM32L4xx_HAL_Driver/Src/stm32l4xx_hal_sd.c ****       errorstate = SDMMC_CmdReadSingleBlock(hsd->Instance, add);
 651              		.loc 1 796 20
 652 00d0 FB68     		ldr	r3, [r7, #12]
 653 00d2 1B68     		ldr	r3, [r3]
 654 00d4 B96B     		ldr	r1, [r7, #56]
 655 00d6 1846     		mov	r0, r3
 656 00d8 FFF7FEFF 		bl	SDMMC_CmdReadSingleBlock
 657 00dc 7864     		str	r0, [r7, #68]
 658              	.L30:
 797:Drivers/STM32L4xx_HAL_Driver/Src/stm32l4xx_hal_sd.c ****     }
 798:Drivers/STM32L4xx_HAL_Driver/Src/stm32l4xx_hal_sd.c ****     if (errorstate != HAL_SD_ERROR_NONE)
 659              		.loc 1 798 8
 660 00de 7B6C     		ldr	r3, [r7, #68]
 661 00e0 002B     		cmp	r3, #0
 662 00e2 12D0     		beq	.L31
 799:Drivers/STM32L4xx_HAL_Driver/Src/stm32l4xx_hal_sd.c ****     {
 800:Drivers/STM32L4xx_HAL_Driver/Src/stm32l4xx_hal_sd.c ****       /* Clear all the static flags */
 801:Drivers/STM32L4xx_HAL_Driver/Src/stm32l4xx_hal_sd.c ****       __HAL_SD_CLEAR_FLAG(hsd, SDMMC_STATIC_FLAGS);
 663              		.loc 1 801 7
 664 00e4 FB68     		ldr	r3, [r7, #12]
 665 00e6 1B68     		ldr	r3, [r3]
 666 00e8 7A4A     		ldr	r2, .L47
 667 00ea 9A63     		str	r2, [r3, #56]
 802:Drivers/STM32L4xx_HAL_Driver/Src/stm32l4xx_hal_sd.c ****       hsd->ErrorCode |= errorstate;
 668              		.loc 1 802 10
 669 00ec FB68     		ldr	r3, [r7, #12]
 670 00ee 9A6B     		ldr	r2, [r3, #56]
 671              		.loc 1 802 22
 672 00f0 7B6C     		ldr	r3, [r7, #68]
 673 00f2 1A43     		orrs	r2, r2, r3
 674 00f4 FB68     		ldr	r3, [r7, #12]
 675 00f6 9A63     		str	r2, [r3, #56]
 803:Drivers/STM32L4xx_HAL_Driver/Src/stm32l4xx_hal_sd.c ****       hsd->State = HAL_SD_STATE_READY;
 676              		.loc 1 803 18
 677 00f8 FB68     		ldr	r3, [r7, #12]
 678 00fa 0122     		movs	r2, #1
 679 00fc 83F83420 		strb	r2, [r3, #52]
 804:Drivers/STM32L4xx_HAL_Driver/Src/stm32l4xx_hal_sd.c ****       hsd->Context = SD_CONTEXT_NONE;
 680              		.loc 1 804 20
 681 0100 FB68     		ldr	r3, [r7, #12]
 682 0102 0022     		movs	r2, #0
 683 0104 1A63     		str	r2, [r3, #48]
 805:Drivers/STM32L4xx_HAL_Driver/Src/stm32l4xx_hal_sd.c ****       return HAL_ERROR;
 684              		.loc 1 805 14
 685 0106 0123     		movs	r3, #1
 686 0108 51E1     		b	.L46
 687              	.L31:
 806:Drivers/STM32L4xx_HAL_Driver/Src/stm32l4xx_hal_sd.c ****     }
 807:Drivers/STM32L4xx_HAL_Driver/Src/stm32l4xx_hal_sd.c **** 
ARM GAS  /tmp/ccsLb3N5.s 			page 27


 808:Drivers/STM32L4xx_HAL_Driver/Src/stm32l4xx_hal_sd.c ****     /* Poll on SDMMC flags */
 809:Drivers/STM32L4xx_HAL_Driver/Src/stm32l4xx_hal_sd.c ****     dataremaining = config.DataLength;
 688              		.loc 1 809 19
 689 010a BB69     		ldr	r3, [r7, #24]
 690 010c FB63     		str	r3, [r7, #60]
 810:Drivers/STM32L4xx_HAL_Driver/Src/stm32l4xx_hal_sd.c ****     while (!__HAL_SD_GET_FLAG(hsd,
 691              		.loc 1 810 11
 692 010e 61E0     		b	.L32
 693              	.L37:
 811:Drivers/STM32L4xx_HAL_Driver/Src/stm32l4xx_hal_sd.c ****                               SDMMC_FLAG_RXOVERR | SDMMC_FLAG_DCRCFAIL | SDMMC_FLAG_DTIMEOUT | SDMM
 812:Drivers/STM32L4xx_HAL_Driver/Src/stm32l4xx_hal_sd.c ****     {
 813:Drivers/STM32L4xx_HAL_Driver/Src/stm32l4xx_hal_sd.c ****       if (__HAL_SD_GET_FLAG(hsd, SDMMC_FLAG_RXFIFOHF) && (dataremaining > 0U))
 694              		.loc 1 813 11
 695 0110 FB68     		ldr	r3, [r7, #12]
 696 0112 1B68     		ldr	r3, [r3]
 697 0114 5B6B     		ldr	r3, [r3, #52]
 698 0116 03F40043 		and	r3, r3, #32768
 699              		.loc 1 813 10
 700 011a 002B     		cmp	r3, #0
 701 011c 3CD0     		beq	.L33
 702              		.loc 1 813 55 discriminator 1
 703 011e FB6B     		ldr	r3, [r7, #60]
 704 0120 002B     		cmp	r3, #0
 705 0122 39D0     		beq	.L33
 814:Drivers/STM32L4xx_HAL_Driver/Src/stm32l4xx_hal_sd.c ****       {
 815:Drivers/STM32L4xx_HAL_Driver/Src/stm32l4xx_hal_sd.c ****         /* Read data from SDMMC Rx FIFO */
 816:Drivers/STM32L4xx_HAL_Driver/Src/stm32l4xx_hal_sd.c ****         for (count = 0U; count < 8U; count++)
 706              		.loc 1 816 20
 707 0124 0023     		movs	r3, #0
 708 0126 3B64     		str	r3, [r7, #64]
 709              		.loc 1 816 9
 710 0128 33E0     		b	.L34
 711              	.L35:
 817:Drivers/STM32L4xx_HAL_Driver/Src/stm32l4xx_hal_sd.c ****         {
 818:Drivers/STM32L4xx_HAL_Driver/Src/stm32l4xx_hal_sd.c ****           data = SDMMC_ReadFIFO(hsd->Instance);
 712              		.loc 1 818 36
 713 012a FB68     		ldr	r3, [r7, #12]
 714 012c 1B68     		ldr	r3, [r3]
 715              		.loc 1 818 18
 716 012e 1846     		mov	r0, r3
 717 0130 FFF7FEFF 		bl	SDMMC_ReadFIFO
 718 0134 F862     		str	r0, [r7, #44]
 819:Drivers/STM32L4xx_HAL_Driver/Src/stm32l4xx_hal_sd.c ****           *tempbuff = (uint8_t)(data & 0xFFU);
 719              		.loc 1 819 23
 720 0136 FB6A     		ldr	r3, [r7, #44]
 721 0138 DAB2     		uxtb	r2, r3
 722              		.loc 1 819 21
 723 013a 7B6B     		ldr	r3, [r7, #52]
 724 013c 1A70     		strb	r2, [r3]
 820:Drivers/STM32L4xx_HAL_Driver/Src/stm32l4xx_hal_sd.c ****           tempbuff++;
 725              		.loc 1 820 19
 726 013e 7B6B     		ldr	r3, [r7, #52]
 727 0140 0133     		adds	r3, r3, #1
 728 0142 7B63     		str	r3, [r7, #52]
 821:Drivers/STM32L4xx_HAL_Driver/Src/stm32l4xx_hal_sd.c ****           dataremaining--;
 729              		.loc 1 821 24
 730 0144 FB6B     		ldr	r3, [r7, #60]
ARM GAS  /tmp/ccsLb3N5.s 			page 28


 731 0146 013B     		subs	r3, r3, #1
 732 0148 FB63     		str	r3, [r7, #60]
 822:Drivers/STM32L4xx_HAL_Driver/Src/stm32l4xx_hal_sd.c ****           *tempbuff = (uint8_t)((data >> 8U) & 0xFFU);
 733              		.loc 1 822 39
 734 014a FB6A     		ldr	r3, [r7, #44]
 735 014c 1B0A     		lsrs	r3, r3, #8
 736              		.loc 1 822 23
 737 014e DAB2     		uxtb	r2, r3
 738              		.loc 1 822 21
 739 0150 7B6B     		ldr	r3, [r7, #52]
 740 0152 1A70     		strb	r2, [r3]
 823:Drivers/STM32L4xx_HAL_Driver/Src/stm32l4xx_hal_sd.c ****           tempbuff++;
 741              		.loc 1 823 19
 742 0154 7B6B     		ldr	r3, [r7, #52]
 743 0156 0133     		adds	r3, r3, #1
 744 0158 7B63     		str	r3, [r7, #52]
 824:Drivers/STM32L4xx_HAL_Driver/Src/stm32l4xx_hal_sd.c ****           dataremaining--;
 745              		.loc 1 824 24
 746 015a FB6B     		ldr	r3, [r7, #60]
 747 015c 013B     		subs	r3, r3, #1
 748 015e FB63     		str	r3, [r7, #60]
 825:Drivers/STM32L4xx_HAL_Driver/Src/stm32l4xx_hal_sd.c ****           *tempbuff = (uint8_t)((data >> 16U) & 0xFFU);
 749              		.loc 1 825 39
 750 0160 FB6A     		ldr	r3, [r7, #44]
 751 0162 1B0C     		lsrs	r3, r3, #16
 752              		.loc 1 825 23
 753 0164 DAB2     		uxtb	r2, r3
 754              		.loc 1 825 21
 755 0166 7B6B     		ldr	r3, [r7, #52]
 756 0168 1A70     		strb	r2, [r3]
 826:Drivers/STM32L4xx_HAL_Driver/Src/stm32l4xx_hal_sd.c ****           tempbuff++;
 757              		.loc 1 826 19
 758 016a 7B6B     		ldr	r3, [r7, #52]
 759 016c 0133     		adds	r3, r3, #1
 760 016e 7B63     		str	r3, [r7, #52]
 827:Drivers/STM32L4xx_HAL_Driver/Src/stm32l4xx_hal_sd.c ****           dataremaining--;
 761              		.loc 1 827 24
 762 0170 FB6B     		ldr	r3, [r7, #60]
 763 0172 013B     		subs	r3, r3, #1
 764 0174 FB63     		str	r3, [r7, #60]
 828:Drivers/STM32L4xx_HAL_Driver/Src/stm32l4xx_hal_sd.c ****           *tempbuff = (uint8_t)((data >> 24U) & 0xFFU);
 765              		.loc 1 828 39
 766 0176 FB6A     		ldr	r3, [r7, #44]
 767 0178 1B0E     		lsrs	r3, r3, #24
 768              		.loc 1 828 23
 769 017a DAB2     		uxtb	r2, r3
 770              		.loc 1 828 21
 771 017c 7B6B     		ldr	r3, [r7, #52]
 772 017e 1A70     		strb	r2, [r3]
 829:Drivers/STM32L4xx_HAL_Driver/Src/stm32l4xx_hal_sd.c ****           tempbuff++;
 773              		.loc 1 829 19
 774 0180 7B6B     		ldr	r3, [r7, #52]
 775 0182 0133     		adds	r3, r3, #1
 776 0184 7B63     		str	r3, [r7, #52]
 830:Drivers/STM32L4xx_HAL_Driver/Src/stm32l4xx_hal_sd.c ****           dataremaining--;
 777              		.loc 1 830 24
 778 0186 FB6B     		ldr	r3, [r7, #60]
ARM GAS  /tmp/ccsLb3N5.s 			page 29


 779 0188 013B     		subs	r3, r3, #1
 780 018a FB63     		str	r3, [r7, #60]
 816:Drivers/STM32L4xx_HAL_Driver/Src/stm32l4xx_hal_sd.c ****         {
 781              		.loc 1 816 43 discriminator 3
 782 018c 3B6C     		ldr	r3, [r7, #64]
 783 018e 0133     		adds	r3, r3, #1
 784 0190 3B64     		str	r3, [r7, #64]
 785              	.L34:
 816:Drivers/STM32L4xx_HAL_Driver/Src/stm32l4xx_hal_sd.c ****         {
 786              		.loc 1 816 32 discriminator 1
 787 0192 3B6C     		ldr	r3, [r7, #64]
 788 0194 072B     		cmp	r3, #7
 789 0196 C8D9     		bls	.L35
 790              	.L33:
 831:Drivers/STM32L4xx_HAL_Driver/Src/stm32l4xx_hal_sd.c ****         }
 832:Drivers/STM32L4xx_HAL_Driver/Src/stm32l4xx_hal_sd.c ****       }
 833:Drivers/STM32L4xx_HAL_Driver/Src/stm32l4xx_hal_sd.c **** 
 834:Drivers/STM32L4xx_HAL_Driver/Src/stm32l4xx_hal_sd.c ****       if (((HAL_GetTick() - tickstart) >=  Timeout) || (Timeout == 0U))
 791              		.loc 1 834 13
 792 0198 FFF7FEFF 		bl	HAL_GetTick
 793 019c 0246     		mov	r2, r0
 794              		.loc 1 834 27 discriminator 1
 795 019e 3B6B     		ldr	r3, [r7, #48]
 796 01a0 D31A     		subs	r3, r2, r3
 797              		.loc 1 834 10 discriminator 1
 798 01a2 3A6D     		ldr	r2, [r7, #80]
 799 01a4 9A42     		cmp	r2, r3
 800 01a6 02D9     		bls	.L36
 801              		.loc 1 834 53 discriminator 1
 802 01a8 3B6D     		ldr	r3, [r7, #80]
 803 01aa 002B     		cmp	r3, #0
 804 01ac 12D1     		bne	.L32
 805              	.L36:
 835:Drivers/STM32L4xx_HAL_Driver/Src/stm32l4xx_hal_sd.c ****       {
 836:Drivers/STM32L4xx_HAL_Driver/Src/stm32l4xx_hal_sd.c ****         /* Clear all the static flags */
 837:Drivers/STM32L4xx_HAL_Driver/Src/stm32l4xx_hal_sd.c ****         __HAL_SD_CLEAR_FLAG(hsd, SDMMC_STATIC_FLAGS);
 806              		.loc 1 837 9
 807 01ae FB68     		ldr	r3, [r7, #12]
 808 01b0 1B68     		ldr	r3, [r3]
 809 01b2 484A     		ldr	r2, .L47
 810 01b4 9A63     		str	r2, [r3, #56]
 838:Drivers/STM32L4xx_HAL_Driver/Src/stm32l4xx_hal_sd.c ****         hsd->ErrorCode |= HAL_SD_ERROR_TIMEOUT;
 811              		.loc 1 838 12
 812 01b6 FB68     		ldr	r3, [r7, #12]
 813 01b8 9B6B     		ldr	r3, [r3, #56]
 814              		.loc 1 838 24
 815 01ba 43F00042 		orr	r2, r3, #-2147483648
 816 01be FB68     		ldr	r3, [r7, #12]
 817 01c0 9A63     		str	r2, [r3, #56]
 839:Drivers/STM32L4xx_HAL_Driver/Src/stm32l4xx_hal_sd.c ****         hsd->State = HAL_SD_STATE_READY;
 818              		.loc 1 839 20
 819 01c2 FB68     		ldr	r3, [r7, #12]
 820 01c4 0122     		movs	r2, #1
 821 01c6 83F83420 		strb	r2, [r3, #52]
 840:Drivers/STM32L4xx_HAL_Driver/Src/stm32l4xx_hal_sd.c ****         hsd->Context = SD_CONTEXT_NONE;
 822              		.loc 1 840 22
 823 01ca FB68     		ldr	r3, [r7, #12]
ARM GAS  /tmp/ccsLb3N5.s 			page 30


 824 01cc 0022     		movs	r2, #0
 825 01ce 1A63     		str	r2, [r3, #48]
 841:Drivers/STM32L4xx_HAL_Driver/Src/stm32l4xx_hal_sd.c ****         return HAL_TIMEOUT;
 826              		.loc 1 841 16
 827 01d0 0323     		movs	r3, #3
 828 01d2 ECE0     		b	.L46
 829              	.L32:
 810:Drivers/STM32L4xx_HAL_Driver/Src/stm32l4xx_hal_sd.c ****                               SDMMC_FLAG_RXOVERR | SDMMC_FLAG_DCRCFAIL | SDMMC_FLAG_DTIMEOUT | SDMM
 830              		.loc 1 810 13
 831 01d4 FB68     		ldr	r3, [r7, #12]
 832 01d6 1B68     		ldr	r3, [r3]
 833 01d8 5B6B     		ldr	r3, [r3, #52]
 834 01da 03F49573 		and	r3, r3, #298
 810:Drivers/STM32L4xx_HAL_Driver/Src/stm32l4xx_hal_sd.c ****                               SDMMC_FLAG_RXOVERR | SDMMC_FLAG_DCRCFAIL | SDMMC_FLAG_DTIMEOUT | SDMM
 835              		.loc 1 810 12
 836 01de 002B     		cmp	r3, #0
 837 01e0 96D0     		beq	.L37
 842:Drivers/STM32L4xx_HAL_Driver/Src/stm32l4xx_hal_sd.c ****       }
 843:Drivers/STM32L4xx_HAL_Driver/Src/stm32l4xx_hal_sd.c ****     }
 844:Drivers/STM32L4xx_HAL_Driver/Src/stm32l4xx_hal_sd.c **** 
 845:Drivers/STM32L4xx_HAL_Driver/Src/stm32l4xx_hal_sd.c **** #if defined(STM32L4P5xx) || defined(STM32L4Q5xx) || defined(STM32L4R5xx) || defined(STM32L4R7xx) ||
 846:Drivers/STM32L4xx_HAL_Driver/Src/stm32l4xx_hal_sd.c ****     __SDMMC_CMDTRANS_DISABLE(hsd->Instance);
 847:Drivers/STM32L4xx_HAL_Driver/Src/stm32l4xx_hal_sd.c **** #endif /* STM32L4P5xx || STM32L4Q5xx || STM32L4R5xx || STM32L4R7xx || STM32L4R9xx \
 848:Drivers/STM32L4xx_HAL_Driver/Src/stm32l4xx_hal_sd.c ****           || STM32L4S5xx || STM32L4S7xx || STM32L4S9xx */
 849:Drivers/STM32L4xx_HAL_Driver/Src/stm32l4xx_hal_sd.c **** 
 850:Drivers/STM32L4xx_HAL_Driver/Src/stm32l4xx_hal_sd.c ****     /* Send stop transmission command in case of multiblock read */
 851:Drivers/STM32L4xx_HAL_Driver/Src/stm32l4xx_hal_sd.c ****     if (__HAL_SD_GET_FLAG(hsd, SDMMC_FLAG_DATAEND) && (NumberOfBlocks > 1U))
 838              		.loc 1 851 9
 839 01e2 FB68     		ldr	r3, [r7, #12]
 840 01e4 1B68     		ldr	r3, [r3]
 841 01e6 5B6B     		ldr	r3, [r3, #52]
 842 01e8 03F48073 		and	r3, r3, #256
 843              		.loc 1 851 8
 844 01ec 002B     		cmp	r3, #0
 845 01ee 22D0     		beq	.L38
 846              		.loc 1 851 52 discriminator 1
 847 01f0 3B68     		ldr	r3, [r7]
 848 01f2 012B     		cmp	r3, #1
 849 01f4 1FD9     		bls	.L38
 852:Drivers/STM32L4xx_HAL_Driver/Src/stm32l4xx_hal_sd.c ****     {
 853:Drivers/STM32L4xx_HAL_Driver/Src/stm32l4xx_hal_sd.c ****       if (hsd->SdCard.CardType != CARD_SECURED)
 850              		.loc 1 853 22
 851 01f6 FB68     		ldr	r3, [r7, #12]
 852 01f8 5B6C     		ldr	r3, [r3, #68]
 853              		.loc 1 853 10
 854 01fa 032B     		cmp	r3, #3
 855 01fc 1BD0     		beq	.L38
 854:Drivers/STM32L4xx_HAL_Driver/Src/stm32l4xx_hal_sd.c ****       {
 855:Drivers/STM32L4xx_HAL_Driver/Src/stm32l4xx_hal_sd.c ****         /* Send stop transmission command */
 856:Drivers/STM32L4xx_HAL_Driver/Src/stm32l4xx_hal_sd.c ****         errorstate = SDMMC_CmdStopTransfer(hsd->Instance);
 856              		.loc 1 856 22
 857 01fe FB68     		ldr	r3, [r7, #12]
 858 0200 1B68     		ldr	r3, [r3]
 859 0202 1846     		mov	r0, r3
 860 0204 FFF7FEFF 		bl	SDMMC_CmdStopTransfer
 861 0208 7864     		str	r0, [r7, #68]
 857:Drivers/STM32L4xx_HAL_Driver/Src/stm32l4xx_hal_sd.c ****         if (errorstate != HAL_SD_ERROR_NONE)
ARM GAS  /tmp/ccsLb3N5.s 			page 31


 862              		.loc 1 857 12
 863 020a 7B6C     		ldr	r3, [r7, #68]
 864 020c 002B     		cmp	r3, #0
 865 020e 12D0     		beq	.L38
 858:Drivers/STM32L4xx_HAL_Driver/Src/stm32l4xx_hal_sd.c ****         {
 859:Drivers/STM32L4xx_HAL_Driver/Src/stm32l4xx_hal_sd.c ****           /* Clear all the static flags */
 860:Drivers/STM32L4xx_HAL_Driver/Src/stm32l4xx_hal_sd.c ****           __HAL_SD_CLEAR_FLAG(hsd, SDMMC_STATIC_FLAGS);
 866              		.loc 1 860 11
 867 0210 FB68     		ldr	r3, [r7, #12]
 868 0212 1B68     		ldr	r3, [r3]
 869 0214 2F4A     		ldr	r2, .L47
 870 0216 9A63     		str	r2, [r3, #56]
 861:Drivers/STM32L4xx_HAL_Driver/Src/stm32l4xx_hal_sd.c ****           hsd->ErrorCode |= errorstate;
 871              		.loc 1 861 14
 872 0218 FB68     		ldr	r3, [r7, #12]
 873 021a 9A6B     		ldr	r2, [r3, #56]
 874              		.loc 1 861 26
 875 021c 7B6C     		ldr	r3, [r7, #68]
 876 021e 1A43     		orrs	r2, r2, r3
 877 0220 FB68     		ldr	r3, [r7, #12]
 878 0222 9A63     		str	r2, [r3, #56]
 862:Drivers/STM32L4xx_HAL_Driver/Src/stm32l4xx_hal_sd.c ****           hsd->State = HAL_SD_STATE_READY;
 879              		.loc 1 862 22
 880 0224 FB68     		ldr	r3, [r7, #12]
 881 0226 0122     		movs	r2, #1
 882 0228 83F83420 		strb	r2, [r3, #52]
 863:Drivers/STM32L4xx_HAL_Driver/Src/stm32l4xx_hal_sd.c ****           hsd->Context = SD_CONTEXT_NONE;
 883              		.loc 1 863 24
 884 022c FB68     		ldr	r3, [r7, #12]
 885 022e 0022     		movs	r2, #0
 886 0230 1A63     		str	r2, [r3, #48]
 864:Drivers/STM32L4xx_HAL_Driver/Src/stm32l4xx_hal_sd.c ****           return HAL_ERROR;
 887              		.loc 1 864 18
 888 0232 0123     		movs	r3, #1
 889 0234 BBE0     		b	.L46
 890              	.L38:
 865:Drivers/STM32L4xx_HAL_Driver/Src/stm32l4xx_hal_sd.c ****         }
 866:Drivers/STM32L4xx_HAL_Driver/Src/stm32l4xx_hal_sd.c ****       }
 867:Drivers/STM32L4xx_HAL_Driver/Src/stm32l4xx_hal_sd.c ****     }
 868:Drivers/STM32L4xx_HAL_Driver/Src/stm32l4xx_hal_sd.c **** 
 869:Drivers/STM32L4xx_HAL_Driver/Src/stm32l4xx_hal_sd.c ****     /* Get error state */
 870:Drivers/STM32L4xx_HAL_Driver/Src/stm32l4xx_hal_sd.c ****     if (__HAL_SD_GET_FLAG(hsd, SDMMC_FLAG_DTIMEOUT))
 891              		.loc 1 870 9
 892 0236 FB68     		ldr	r3, [r7, #12]
 893 0238 1B68     		ldr	r3, [r3]
 894 023a 5B6B     		ldr	r3, [r3, #52]
 895 023c 03F00803 		and	r3, r3, #8
 896              		.loc 1 870 8
 897 0240 002B     		cmp	r3, #0
 898 0242 12D0     		beq	.L39
 871:Drivers/STM32L4xx_HAL_Driver/Src/stm32l4xx_hal_sd.c ****     {
 872:Drivers/STM32L4xx_HAL_Driver/Src/stm32l4xx_hal_sd.c ****       /* Clear all the static flags */
 873:Drivers/STM32L4xx_HAL_Driver/Src/stm32l4xx_hal_sd.c ****       __HAL_SD_CLEAR_FLAG(hsd, SDMMC_STATIC_FLAGS);
 899              		.loc 1 873 7
 900 0244 FB68     		ldr	r3, [r7, #12]
 901 0246 1B68     		ldr	r3, [r3]
 902 0248 224A     		ldr	r2, .L47
ARM GAS  /tmp/ccsLb3N5.s 			page 32


 903 024a 9A63     		str	r2, [r3, #56]
 874:Drivers/STM32L4xx_HAL_Driver/Src/stm32l4xx_hal_sd.c ****       hsd->ErrorCode |= HAL_SD_ERROR_DATA_TIMEOUT;
 904              		.loc 1 874 10
 905 024c FB68     		ldr	r3, [r7, #12]
 906 024e 9B6B     		ldr	r3, [r3, #56]
 907              		.loc 1 874 22
 908 0250 43F00802 		orr	r2, r3, #8
 909 0254 FB68     		ldr	r3, [r7, #12]
 910 0256 9A63     		str	r2, [r3, #56]
 875:Drivers/STM32L4xx_HAL_Driver/Src/stm32l4xx_hal_sd.c ****       hsd->State = HAL_SD_STATE_READY;
 911              		.loc 1 875 18
 912 0258 FB68     		ldr	r3, [r7, #12]
 913 025a 0122     		movs	r2, #1
 914 025c 83F83420 		strb	r2, [r3, #52]
 876:Drivers/STM32L4xx_HAL_Driver/Src/stm32l4xx_hal_sd.c ****       hsd->Context = SD_CONTEXT_NONE;
 915              		.loc 1 876 20
 916 0260 FB68     		ldr	r3, [r7, #12]
 917 0262 0022     		movs	r2, #0
 918 0264 1A63     		str	r2, [r3, #48]
 877:Drivers/STM32L4xx_HAL_Driver/Src/stm32l4xx_hal_sd.c ****       return HAL_ERROR;
 919              		.loc 1 877 14
 920 0266 0123     		movs	r3, #1
 921 0268 A1E0     		b	.L46
 922              	.L39:
 878:Drivers/STM32L4xx_HAL_Driver/Src/stm32l4xx_hal_sd.c ****     }
 879:Drivers/STM32L4xx_HAL_Driver/Src/stm32l4xx_hal_sd.c ****     else if (__HAL_SD_GET_FLAG(hsd, SDMMC_FLAG_DCRCFAIL))
 923              		.loc 1 879 14
 924 026a FB68     		ldr	r3, [r7, #12]
 925 026c 1B68     		ldr	r3, [r3]
 926 026e 5B6B     		ldr	r3, [r3, #52]
 927 0270 03F00203 		and	r3, r3, #2
 928              		.loc 1 879 13
 929 0274 002B     		cmp	r3, #0
 930 0276 12D0     		beq	.L40
 880:Drivers/STM32L4xx_HAL_Driver/Src/stm32l4xx_hal_sd.c ****     {
 881:Drivers/STM32L4xx_HAL_Driver/Src/stm32l4xx_hal_sd.c ****       /* Clear all the static flags */
 882:Drivers/STM32L4xx_HAL_Driver/Src/stm32l4xx_hal_sd.c ****       __HAL_SD_CLEAR_FLAG(hsd, SDMMC_STATIC_FLAGS);
 931              		.loc 1 882 7
 932 0278 FB68     		ldr	r3, [r7, #12]
 933 027a 1B68     		ldr	r3, [r3]
 934 027c 154A     		ldr	r2, .L47
 935 027e 9A63     		str	r2, [r3, #56]
 883:Drivers/STM32L4xx_HAL_Driver/Src/stm32l4xx_hal_sd.c ****       hsd->ErrorCode |= HAL_SD_ERROR_DATA_CRC_FAIL;
 936              		.loc 1 883 10
 937 0280 FB68     		ldr	r3, [r7, #12]
 938 0282 9B6B     		ldr	r3, [r3, #56]
 939              		.loc 1 883 22
 940 0284 43F00202 		orr	r2, r3, #2
 941 0288 FB68     		ldr	r3, [r7, #12]
 942 028a 9A63     		str	r2, [r3, #56]
 884:Drivers/STM32L4xx_HAL_Driver/Src/stm32l4xx_hal_sd.c ****       hsd->State = HAL_SD_STATE_READY;
 943              		.loc 1 884 18
 944 028c FB68     		ldr	r3, [r7, #12]
 945 028e 0122     		movs	r2, #1
 946 0290 83F83420 		strb	r2, [r3, #52]
 885:Drivers/STM32L4xx_HAL_Driver/Src/stm32l4xx_hal_sd.c ****       hsd->Context = SD_CONTEXT_NONE;
 947              		.loc 1 885 20
ARM GAS  /tmp/ccsLb3N5.s 			page 33


 948 0294 FB68     		ldr	r3, [r7, #12]
 949 0296 0022     		movs	r2, #0
 950 0298 1A63     		str	r2, [r3, #48]
 886:Drivers/STM32L4xx_HAL_Driver/Src/stm32l4xx_hal_sd.c ****       return HAL_ERROR;
 951              		.loc 1 886 14
 952 029a 0123     		movs	r3, #1
 953 029c 87E0     		b	.L46
 954              	.L40:
 887:Drivers/STM32L4xx_HAL_Driver/Src/stm32l4xx_hal_sd.c ****     }
 888:Drivers/STM32L4xx_HAL_Driver/Src/stm32l4xx_hal_sd.c ****     else if (__HAL_SD_GET_FLAG(hsd, SDMMC_FLAG_RXOVERR))
 955              		.loc 1 888 14
 956 029e FB68     		ldr	r3, [r7, #12]
 957 02a0 1B68     		ldr	r3, [r3]
 958 02a2 5B6B     		ldr	r3, [r3, #52]
 959 02a4 03F02003 		and	r3, r3, #32
 960              		.loc 1 888 13
 961 02a8 002B     		cmp	r3, #0
 962 02aa 64D0     		beq	.L42
 889:Drivers/STM32L4xx_HAL_Driver/Src/stm32l4xx_hal_sd.c ****     {
 890:Drivers/STM32L4xx_HAL_Driver/Src/stm32l4xx_hal_sd.c ****       /* Clear all the static flags */
 891:Drivers/STM32L4xx_HAL_Driver/Src/stm32l4xx_hal_sd.c ****       __HAL_SD_CLEAR_FLAG(hsd, SDMMC_STATIC_FLAGS);
 963              		.loc 1 891 7
 964 02ac FB68     		ldr	r3, [r7, #12]
 965 02ae 1B68     		ldr	r3, [r3]
 966 02b0 084A     		ldr	r2, .L47
 967 02b2 9A63     		str	r2, [r3, #56]
 892:Drivers/STM32L4xx_HAL_Driver/Src/stm32l4xx_hal_sd.c ****       hsd->ErrorCode |= HAL_SD_ERROR_RX_OVERRUN;
 968              		.loc 1 892 10
 969 02b4 FB68     		ldr	r3, [r7, #12]
 970 02b6 9B6B     		ldr	r3, [r3, #56]
 971              		.loc 1 892 22
 972 02b8 43F02002 		orr	r2, r3, #32
 973 02bc FB68     		ldr	r3, [r7, #12]
 974 02be 9A63     		str	r2, [r3, #56]
 893:Drivers/STM32L4xx_HAL_Driver/Src/stm32l4xx_hal_sd.c ****       hsd->State = HAL_SD_STATE_READY;
 975              		.loc 1 893 18
 976 02c0 FB68     		ldr	r3, [r7, #12]
 977 02c2 0122     		movs	r2, #1
 978 02c4 83F83420 		strb	r2, [r3, #52]
 894:Drivers/STM32L4xx_HAL_Driver/Src/stm32l4xx_hal_sd.c ****       hsd->Context = SD_CONTEXT_NONE;
 979              		.loc 1 894 20
 980 02c8 FB68     		ldr	r3, [r7, #12]
 981 02ca 0022     		movs	r2, #0
 982 02cc 1A63     		str	r2, [r3, #48]
 895:Drivers/STM32L4xx_HAL_Driver/Src/stm32l4xx_hal_sd.c ****       return HAL_ERROR;
 983              		.loc 1 895 14
 984 02ce 0123     		movs	r3, #1
 985 02d0 6DE0     		b	.L46
 986              	.L48:
 987 02d2 00BF     		.align	2
 988              	.L47:
 989 02d4 FF054000 		.word	4195839
 990              	.L45:
 896:Drivers/STM32L4xx_HAL_Driver/Src/stm32l4xx_hal_sd.c ****     }
 897:Drivers/STM32L4xx_HAL_Driver/Src/stm32l4xx_hal_sd.c ****     else
 898:Drivers/STM32L4xx_HAL_Driver/Src/stm32l4xx_hal_sd.c ****     {
 899:Drivers/STM32L4xx_HAL_Driver/Src/stm32l4xx_hal_sd.c ****       /* Nothing to do */
ARM GAS  /tmp/ccsLb3N5.s 			page 34


 900:Drivers/STM32L4xx_HAL_Driver/Src/stm32l4xx_hal_sd.c ****     }
 901:Drivers/STM32L4xx_HAL_Driver/Src/stm32l4xx_hal_sd.c **** #if !defined(STM32L4P5xx) && !defined(STM32L4Q5xx) && !defined(STM32L4R5xx) && !defined(STM32L4R7xx
 902:Drivers/STM32L4xx_HAL_Driver/Src/stm32l4xx_hal_sd.c ****     /* Empty FIFO if there is still any data */
 903:Drivers/STM32L4xx_HAL_Driver/Src/stm32l4xx_hal_sd.c ****     while ((__HAL_SD_GET_FLAG(hsd, SDMMC_FLAG_RXDAVL)) && (dataremaining > 0U))
 904:Drivers/STM32L4xx_HAL_Driver/Src/stm32l4xx_hal_sd.c ****     {
 905:Drivers/STM32L4xx_HAL_Driver/Src/stm32l4xx_hal_sd.c ****       data = SDMMC_ReadFIFO(hsd->Instance);
 991              		.loc 1 905 32
 992 02d8 FB68     		ldr	r3, [r7, #12]
 993 02da 1B68     		ldr	r3, [r3]
 994              		.loc 1 905 14
 995 02dc 1846     		mov	r0, r3
 996 02de FFF7FEFF 		bl	SDMMC_ReadFIFO
 997 02e2 F862     		str	r0, [r7, #44]
 906:Drivers/STM32L4xx_HAL_Driver/Src/stm32l4xx_hal_sd.c ****       *tempbuff = (uint8_t)(data & 0xFFU);
 998              		.loc 1 906 19
 999 02e4 FB6A     		ldr	r3, [r7, #44]
 1000 02e6 DAB2     		uxtb	r2, r3
 1001              		.loc 1 906 17
 1002 02e8 7B6B     		ldr	r3, [r7, #52]
 1003 02ea 1A70     		strb	r2, [r3]
 907:Drivers/STM32L4xx_HAL_Driver/Src/stm32l4xx_hal_sd.c ****       tempbuff++;
 1004              		.loc 1 907 15
 1005 02ec 7B6B     		ldr	r3, [r7, #52]
 1006 02ee 0133     		adds	r3, r3, #1
 1007 02f0 7B63     		str	r3, [r7, #52]
 908:Drivers/STM32L4xx_HAL_Driver/Src/stm32l4xx_hal_sd.c ****       dataremaining--;
 1008              		.loc 1 908 20
 1009 02f2 FB6B     		ldr	r3, [r7, #60]
 1010 02f4 013B     		subs	r3, r3, #1
 1011 02f6 FB63     		str	r3, [r7, #60]
 909:Drivers/STM32L4xx_HAL_Driver/Src/stm32l4xx_hal_sd.c ****       *tempbuff = (uint8_t)((data >> 8U) & 0xFFU);
 1012              		.loc 1 909 35
 1013 02f8 FB6A     		ldr	r3, [r7, #44]
 1014 02fa 1B0A     		lsrs	r3, r3, #8
 1015              		.loc 1 909 19
 1016 02fc DAB2     		uxtb	r2, r3
 1017              		.loc 1 909 17
 1018 02fe 7B6B     		ldr	r3, [r7, #52]
 1019 0300 1A70     		strb	r2, [r3]
 910:Drivers/STM32L4xx_HAL_Driver/Src/stm32l4xx_hal_sd.c ****       tempbuff++;
 1020              		.loc 1 910 15
 1021 0302 7B6B     		ldr	r3, [r7, #52]
 1022 0304 0133     		adds	r3, r3, #1
 1023 0306 7B63     		str	r3, [r7, #52]
 911:Drivers/STM32L4xx_HAL_Driver/Src/stm32l4xx_hal_sd.c ****       dataremaining--;
 1024              		.loc 1 911 20
 1025 0308 FB6B     		ldr	r3, [r7, #60]
 1026 030a 013B     		subs	r3, r3, #1
 1027 030c FB63     		str	r3, [r7, #60]
 912:Drivers/STM32L4xx_HAL_Driver/Src/stm32l4xx_hal_sd.c ****       *tempbuff = (uint8_t)((data >> 16U) & 0xFFU);
 1028              		.loc 1 912 35
 1029 030e FB6A     		ldr	r3, [r7, #44]
 1030 0310 1B0C     		lsrs	r3, r3, #16
 1031              		.loc 1 912 19
 1032 0312 DAB2     		uxtb	r2, r3
 1033              		.loc 1 912 17
 1034 0314 7B6B     		ldr	r3, [r7, #52]
ARM GAS  /tmp/ccsLb3N5.s 			page 35


 1035 0316 1A70     		strb	r2, [r3]
 913:Drivers/STM32L4xx_HAL_Driver/Src/stm32l4xx_hal_sd.c ****       tempbuff++;
 1036              		.loc 1 913 15
 1037 0318 7B6B     		ldr	r3, [r7, #52]
 1038 031a 0133     		adds	r3, r3, #1
 1039 031c 7B63     		str	r3, [r7, #52]
 914:Drivers/STM32L4xx_HAL_Driver/Src/stm32l4xx_hal_sd.c ****       dataremaining--;
 1040              		.loc 1 914 20
 1041 031e FB6B     		ldr	r3, [r7, #60]
 1042 0320 013B     		subs	r3, r3, #1
 1043 0322 FB63     		str	r3, [r7, #60]
 915:Drivers/STM32L4xx_HAL_Driver/Src/stm32l4xx_hal_sd.c ****       *tempbuff = (uint8_t)((data >> 24U) & 0xFFU);
 1044              		.loc 1 915 35
 1045 0324 FB6A     		ldr	r3, [r7, #44]
 1046 0326 1B0E     		lsrs	r3, r3, #24
 1047              		.loc 1 915 19
 1048 0328 DAB2     		uxtb	r2, r3
 1049              		.loc 1 915 17
 1050 032a 7B6B     		ldr	r3, [r7, #52]
 1051 032c 1A70     		strb	r2, [r3]
 916:Drivers/STM32L4xx_HAL_Driver/Src/stm32l4xx_hal_sd.c ****       tempbuff++;
 1052              		.loc 1 916 15
 1053 032e 7B6B     		ldr	r3, [r7, #52]
 1054 0330 0133     		adds	r3, r3, #1
 1055 0332 7B63     		str	r3, [r7, #52]
 917:Drivers/STM32L4xx_HAL_Driver/Src/stm32l4xx_hal_sd.c ****       dataremaining--;
 1056              		.loc 1 917 20
 1057 0334 FB6B     		ldr	r3, [r7, #60]
 1058 0336 013B     		subs	r3, r3, #1
 1059 0338 FB63     		str	r3, [r7, #60]
 918:Drivers/STM32L4xx_HAL_Driver/Src/stm32l4xx_hal_sd.c **** 
 919:Drivers/STM32L4xx_HAL_Driver/Src/stm32l4xx_hal_sd.c ****       if (((HAL_GetTick() - tickstart) >=  Timeout) || (Timeout == 0U))
 1060              		.loc 1 919 13
 1061 033a FFF7FEFF 		bl	HAL_GetTick
 1062 033e 0246     		mov	r2, r0
 1063              		.loc 1 919 27 discriminator 1
 1064 0340 3B6B     		ldr	r3, [r7, #48]
 1065 0342 D31A     		subs	r3, r2, r3
 1066              		.loc 1 919 10 discriminator 1
 1067 0344 3A6D     		ldr	r2, [r7, #80]
 1068 0346 9A42     		cmp	r2, r3
 1069 0348 02D9     		bls	.L43
 1070              		.loc 1 919 53 discriminator 1
 1071 034a 3B6D     		ldr	r3, [r7, #80]
 1072 034c 002B     		cmp	r3, #0
 1073 034e 12D1     		bne	.L42
 1074              	.L43:
 920:Drivers/STM32L4xx_HAL_Driver/Src/stm32l4xx_hal_sd.c ****       {
 921:Drivers/STM32L4xx_HAL_Driver/Src/stm32l4xx_hal_sd.c ****         /* Clear all the static flags */
 922:Drivers/STM32L4xx_HAL_Driver/Src/stm32l4xx_hal_sd.c ****         __HAL_SD_CLEAR_FLAG(hsd, SDMMC_STATIC_FLAGS);
 1075              		.loc 1 922 9
 1076 0350 FB68     		ldr	r3, [r7, #12]
 1077 0352 1B68     		ldr	r3, [r3]
 1078 0354 184A     		ldr	r2, .L49
 1079 0356 9A63     		str	r2, [r3, #56]
 923:Drivers/STM32L4xx_HAL_Driver/Src/stm32l4xx_hal_sd.c ****         hsd->ErrorCode |= HAL_SD_ERROR_TIMEOUT;
 1080              		.loc 1 923 12
ARM GAS  /tmp/ccsLb3N5.s 			page 36


 1081 0358 FB68     		ldr	r3, [r7, #12]
 1082 035a 9B6B     		ldr	r3, [r3, #56]
 1083              		.loc 1 923 24
 1084 035c 43F00042 		orr	r2, r3, #-2147483648
 1085 0360 FB68     		ldr	r3, [r7, #12]
 1086 0362 9A63     		str	r2, [r3, #56]
 924:Drivers/STM32L4xx_HAL_Driver/Src/stm32l4xx_hal_sd.c ****         hsd->State = HAL_SD_STATE_READY;
 1087              		.loc 1 924 20
 1088 0364 FB68     		ldr	r3, [r7, #12]
 1089 0366 0122     		movs	r2, #1
 1090 0368 83F83420 		strb	r2, [r3, #52]
 925:Drivers/STM32L4xx_HAL_Driver/Src/stm32l4xx_hal_sd.c ****         hsd->Context = SD_CONTEXT_NONE;
 1091              		.loc 1 925 22
 1092 036c FB68     		ldr	r3, [r7, #12]
 1093 036e 0022     		movs	r2, #0
 1094 0370 1A63     		str	r2, [r3, #48]
 926:Drivers/STM32L4xx_HAL_Driver/Src/stm32l4xx_hal_sd.c ****         return HAL_ERROR;
 1095              		.loc 1 926 16
 1096 0372 0123     		movs	r3, #1
 1097 0374 1BE0     		b	.L46
 1098              	.L42:
 903:Drivers/STM32L4xx_HAL_Driver/Src/stm32l4xx_hal_sd.c ****     {
 1099              		.loc 1 903 13
 1100 0376 FB68     		ldr	r3, [r7, #12]
 1101 0378 1B68     		ldr	r3, [r3]
 1102 037a 5B6B     		ldr	r3, [r3, #52]
 1103 037c 03F40013 		and	r3, r3, #2097152
 903:Drivers/STM32L4xx_HAL_Driver/Src/stm32l4xx_hal_sd.c ****     {
 1104              		.loc 1 903 56
 1105 0380 002B     		cmp	r3, #0
 1106 0382 02D0     		beq	.L44
 903:Drivers/STM32L4xx_HAL_Driver/Src/stm32l4xx_hal_sd.c ****     {
 1107              		.loc 1 903 56 is_stmt 0 discriminator 1
 1108 0384 FB6B     		ldr	r3, [r7, #60]
 1109 0386 002B     		cmp	r3, #0
 1110 0388 A6D1     		bne	.L45
 1111              	.L44:
 927:Drivers/STM32L4xx_HAL_Driver/Src/stm32l4xx_hal_sd.c ****       }
 928:Drivers/STM32L4xx_HAL_Driver/Src/stm32l4xx_hal_sd.c ****     }
 929:Drivers/STM32L4xx_HAL_Driver/Src/stm32l4xx_hal_sd.c **** #endif /* !STM32L4P5xx && !STM32L4Q5xx && !STM32L4R5xx && !STM32L4R7xx && !STM32L4R9xx \
 930:Drivers/STM32L4xx_HAL_Driver/Src/stm32l4xx_hal_sd.c ****           && !STM32L4S5xx && !STM32L4S7xx && !STM32L4S9xx */
 931:Drivers/STM32L4xx_HAL_Driver/Src/stm32l4xx_hal_sd.c **** 
 932:Drivers/STM32L4xx_HAL_Driver/Src/stm32l4xx_hal_sd.c ****     /* Clear all the static flags */
 933:Drivers/STM32L4xx_HAL_Driver/Src/stm32l4xx_hal_sd.c ****     __HAL_SD_CLEAR_FLAG(hsd, SDMMC_STATIC_DATA_FLAGS);
 1112              		.loc 1 933 5 is_stmt 1
 1113 038a FB68     		ldr	r3, [r7, #12]
 1114 038c 1B68     		ldr	r3, [r3]
 1115 038e 40F23A52 		movw	r2, #1338
 1116 0392 9A63     		str	r2, [r3, #56]
 934:Drivers/STM32L4xx_HAL_Driver/Src/stm32l4xx_hal_sd.c **** 
 935:Drivers/STM32L4xx_HAL_Driver/Src/stm32l4xx_hal_sd.c ****     hsd->State = HAL_SD_STATE_READY;
 1117              		.loc 1 935 16
 1118 0394 FB68     		ldr	r3, [r7, #12]
 1119 0396 0122     		movs	r2, #1
 1120 0398 83F83420 		strb	r2, [r3, #52]
 936:Drivers/STM32L4xx_HAL_Driver/Src/stm32l4xx_hal_sd.c **** 
 937:Drivers/STM32L4xx_HAL_Driver/Src/stm32l4xx_hal_sd.c ****     return HAL_OK;
ARM GAS  /tmp/ccsLb3N5.s 			page 37


 1121              		.loc 1 937 12
 1122 039c 0023     		movs	r3, #0
 1123 039e 06E0     		b	.L46
 1124              	.L26:
 938:Drivers/STM32L4xx_HAL_Driver/Src/stm32l4xx_hal_sd.c ****   }
 939:Drivers/STM32L4xx_HAL_Driver/Src/stm32l4xx_hal_sd.c ****   else
 940:Drivers/STM32L4xx_HAL_Driver/Src/stm32l4xx_hal_sd.c ****   {
 941:Drivers/STM32L4xx_HAL_Driver/Src/stm32l4xx_hal_sd.c ****     hsd->ErrorCode |= HAL_SD_ERROR_BUSY;
 1125              		.loc 1 941 8
 1126 03a0 FB68     		ldr	r3, [r7, #12]
 1127 03a2 9B6B     		ldr	r3, [r3, #56]
 1128              		.loc 1 941 20
 1129 03a4 43F00052 		orr	r2, r3, #536870912
 1130 03a8 FB68     		ldr	r3, [r7, #12]
 1131 03aa 9A63     		str	r2, [r3, #56]
 942:Drivers/STM32L4xx_HAL_Driver/Src/stm32l4xx_hal_sd.c ****     return HAL_ERROR;
 1132              		.loc 1 942 12
 1133 03ac 0123     		movs	r3, #1
 1134              	.L46:
 943:Drivers/STM32L4xx_HAL_Driver/Src/stm32l4xx_hal_sd.c ****   }
 944:Drivers/STM32L4xx_HAL_Driver/Src/stm32l4xx_hal_sd.c **** }
 1135              		.loc 1 944 1
 1136 03ae 1846     		mov	r0, r3
 1137 03b0 4837     		adds	r7, r7, #72
 1138              		.cfi_def_cfa_offset 8
 1139 03b2 BD46     		mov	sp, r7
 1140              		.cfi_def_cfa_register 13
 1141              		@ sp needed
 1142 03b4 80BD     		pop	{r7, pc}
 1143              	.L50:
 1144 03b6 00BF     		.align	2
 1145              	.L49:
 1146 03b8 FF054000 		.word	4195839
 1147              		.cfi_endproc
 1148              	.LFE450:
 1150              		.section	.text.HAL_SD_WriteBlocks,"ax",%progbits
 1151              		.align	1
 1152              		.global	HAL_SD_WriteBlocks
 1153              		.syntax unified
 1154              		.thumb
 1155              		.thumb_func
 1157              	HAL_SD_WriteBlocks:
 1158              	.LFB451:
 945:Drivers/STM32L4xx_HAL_Driver/Src/stm32l4xx_hal_sd.c **** 
 946:Drivers/STM32L4xx_HAL_Driver/Src/stm32l4xx_hal_sd.c **** /**
 947:Drivers/STM32L4xx_HAL_Driver/Src/stm32l4xx_hal_sd.c ****   * @brief  Allows to write block(s) to a specified address in a card. The Data
 948:Drivers/STM32L4xx_HAL_Driver/Src/stm32l4xx_hal_sd.c ****   *         transfer is managed by polling mode.
 949:Drivers/STM32L4xx_HAL_Driver/Src/stm32l4xx_hal_sd.c ****   * @note   This API should be followed by a check on the card state through
 950:Drivers/STM32L4xx_HAL_Driver/Src/stm32l4xx_hal_sd.c ****   *         HAL_SD_GetCardState().
 951:Drivers/STM32L4xx_HAL_Driver/Src/stm32l4xx_hal_sd.c ****   * @param  hsd: Pointer to SD handle
 952:Drivers/STM32L4xx_HAL_Driver/Src/stm32l4xx_hal_sd.c ****   * @param  pData: pointer to the buffer that will contain the data to transmit
 953:Drivers/STM32L4xx_HAL_Driver/Src/stm32l4xx_hal_sd.c ****   * @param  BlockAdd: Block Address where data will be written
 954:Drivers/STM32L4xx_HAL_Driver/Src/stm32l4xx_hal_sd.c ****   * @param  NumberOfBlocks: Number of SD blocks to write
 955:Drivers/STM32L4xx_HAL_Driver/Src/stm32l4xx_hal_sd.c ****   * @param  Timeout: Specify timeout value
 956:Drivers/STM32L4xx_HAL_Driver/Src/stm32l4xx_hal_sd.c ****   * @retval HAL status
 957:Drivers/STM32L4xx_HAL_Driver/Src/stm32l4xx_hal_sd.c ****   */
 958:Drivers/STM32L4xx_HAL_Driver/Src/stm32l4xx_hal_sd.c **** HAL_StatusTypeDef HAL_SD_WriteBlocks(SD_HandleTypeDef *hsd, const uint8_t *pData, uint32_t BlockAdd
ARM GAS  /tmp/ccsLb3N5.s 			page 38


 959:Drivers/STM32L4xx_HAL_Driver/Src/stm32l4xx_hal_sd.c ****                                      uint32_t NumberOfBlocks, uint32_t Timeout)
 960:Drivers/STM32L4xx_HAL_Driver/Src/stm32l4xx_hal_sd.c **** {
 1159              		.loc 1 960 1
 1160              		.cfi_startproc
 1161              		@ args = 4, pretend = 0, frame = 72
 1162              		@ frame_needed = 1, uses_anonymous_args = 0
 1163 0000 80B5     		push	{r7, lr}
 1164              		.cfi_def_cfa_offset 8
 1165              		.cfi_offset 7, -8
 1166              		.cfi_offset 14, -4
 1167 0002 92B0     		sub	sp, sp, #72
 1168              		.cfi_def_cfa_offset 80
 1169 0004 00AF     		add	r7, sp, #0
 1170              		.cfi_def_cfa_register 7
 1171 0006 F860     		str	r0, [r7, #12]
 1172 0008 B960     		str	r1, [r7, #8]
 1173 000a 7A60     		str	r2, [r7, #4]
 1174 000c 3B60     		str	r3, [r7]
 961:Drivers/STM32L4xx_HAL_Driver/Src/stm32l4xx_hal_sd.c ****   SDMMC_DataInitTypeDef config;
 962:Drivers/STM32L4xx_HAL_Driver/Src/stm32l4xx_hal_sd.c ****   uint32_t errorstate;
 963:Drivers/STM32L4xx_HAL_Driver/Src/stm32l4xx_hal_sd.c ****   uint32_t tickstart = HAL_GetTick();
 1175              		.loc 1 963 24
 1176 000e FFF7FEFF 		bl	HAL_GetTick
 1177 0012 3863     		str	r0, [r7, #48]
 964:Drivers/STM32L4xx_HAL_Driver/Src/stm32l4xx_hal_sd.c ****   uint32_t count;
 965:Drivers/STM32L4xx_HAL_Driver/Src/stm32l4xx_hal_sd.c ****   uint32_t data;
 966:Drivers/STM32L4xx_HAL_Driver/Src/stm32l4xx_hal_sd.c ****   uint32_t dataremaining;
 967:Drivers/STM32L4xx_HAL_Driver/Src/stm32l4xx_hal_sd.c ****   uint32_t add = BlockAdd;
 1178              		.loc 1 967 12
 1179 0014 7B68     		ldr	r3, [r7, #4]
 1180 0016 BB63     		str	r3, [r7, #56]
 968:Drivers/STM32L4xx_HAL_Driver/Src/stm32l4xx_hal_sd.c ****   const uint8_t *tempbuff = pData;
 1181              		.loc 1 968 18
 1182 0018 BB68     		ldr	r3, [r7, #8]
 1183 001a 7B63     		str	r3, [r7, #52]
 969:Drivers/STM32L4xx_HAL_Driver/Src/stm32l4xx_hal_sd.c **** 
 970:Drivers/STM32L4xx_HAL_Driver/Src/stm32l4xx_hal_sd.c ****   if (NULL == pData)
 1184              		.loc 1 970 6
 1185 001c BB68     		ldr	r3, [r7, #8]
 1186 001e 002B     		cmp	r3, #0
 1187 0020 07D1     		bne	.L52
 971:Drivers/STM32L4xx_HAL_Driver/Src/stm32l4xx_hal_sd.c ****   {
 972:Drivers/STM32L4xx_HAL_Driver/Src/stm32l4xx_hal_sd.c ****     hsd->ErrorCode |= HAL_SD_ERROR_PARAM;
 1188              		.loc 1 972 8
 1189 0022 FB68     		ldr	r3, [r7, #12]
 1190 0024 9B6B     		ldr	r3, [r3, #56]
 1191              		.loc 1 972 20
 1192 0026 43F00062 		orr	r2, r3, #134217728
 1193 002a FB68     		ldr	r3, [r7, #12]
 1194 002c 9A63     		str	r2, [r3, #56]
 973:Drivers/STM32L4xx_HAL_Driver/Src/stm32l4xx_hal_sd.c ****     return HAL_ERROR;
 1195              		.loc 1 973 12
 1196 002e 0123     		movs	r3, #1
 1197 0030 65E1     		b	.L70
 1198              	.L52:
 974:Drivers/STM32L4xx_HAL_Driver/Src/stm32l4xx_hal_sd.c ****   }
 975:Drivers/STM32L4xx_HAL_Driver/Src/stm32l4xx_hal_sd.c **** 
ARM GAS  /tmp/ccsLb3N5.s 			page 39


 976:Drivers/STM32L4xx_HAL_Driver/Src/stm32l4xx_hal_sd.c ****   if (hsd->State == HAL_SD_STATE_READY)
 1199              		.loc 1 976 10
 1200 0032 FB68     		ldr	r3, [r7, #12]
 1201 0034 93F83430 		ldrb	r3, [r3, #52]
 1202 0038 DBB2     		uxtb	r3, r3
 1203              		.loc 1 976 6
 1204 003a 012B     		cmp	r3, #1
 1205 003c 40F05881 		bne	.L54
 977:Drivers/STM32L4xx_HAL_Driver/Src/stm32l4xx_hal_sd.c ****   {
 978:Drivers/STM32L4xx_HAL_Driver/Src/stm32l4xx_hal_sd.c ****     hsd->ErrorCode = HAL_SD_ERROR_NONE;
 1206              		.loc 1 978 20
 1207 0040 FB68     		ldr	r3, [r7, #12]
 1208 0042 0022     		movs	r2, #0
 1209 0044 9A63     		str	r2, [r3, #56]
 979:Drivers/STM32L4xx_HAL_Driver/Src/stm32l4xx_hal_sd.c **** 
 980:Drivers/STM32L4xx_HAL_Driver/Src/stm32l4xx_hal_sd.c ****     if ((add + NumberOfBlocks) > (hsd->SdCard.LogBlockNbr))
 1210              		.loc 1 980 14
 1211 0046 BA6B     		ldr	r2, [r7, #56]
 1212 0048 3B68     		ldr	r3, [r7]
 1213 004a 1A44     		add	r2, r2, r3
 1214              		.loc 1 980 46
 1215 004c FB68     		ldr	r3, [r7, #12]
 1216 004e DB6D     		ldr	r3, [r3, #92]
 1217              		.loc 1 980 8
 1218 0050 9A42     		cmp	r2, r3
 1219 0052 07D9     		bls	.L55
 981:Drivers/STM32L4xx_HAL_Driver/Src/stm32l4xx_hal_sd.c ****     {
 982:Drivers/STM32L4xx_HAL_Driver/Src/stm32l4xx_hal_sd.c ****       hsd->ErrorCode |= HAL_SD_ERROR_ADDR_OUT_OF_RANGE;
 1220              		.loc 1 982 10
 1221 0054 FB68     		ldr	r3, [r7, #12]
 1222 0056 9B6B     		ldr	r3, [r3, #56]
 1223              		.loc 1 982 22
 1224 0058 43F00072 		orr	r2, r3, #33554432
 1225 005c FB68     		ldr	r3, [r7, #12]
 1226 005e 9A63     		str	r2, [r3, #56]
 983:Drivers/STM32L4xx_HAL_Driver/Src/stm32l4xx_hal_sd.c ****       return HAL_ERROR;
 1227              		.loc 1 983 14
 1228 0060 0123     		movs	r3, #1
 1229 0062 4CE1     		b	.L70
 1230              	.L55:
 984:Drivers/STM32L4xx_HAL_Driver/Src/stm32l4xx_hal_sd.c ****     }
 985:Drivers/STM32L4xx_HAL_Driver/Src/stm32l4xx_hal_sd.c **** 
 986:Drivers/STM32L4xx_HAL_Driver/Src/stm32l4xx_hal_sd.c ****     hsd->State = HAL_SD_STATE_BUSY;
 1231              		.loc 1 986 16
 1232 0064 FB68     		ldr	r3, [r7, #12]
 1233 0066 0322     		movs	r2, #3
 1234 0068 83F83420 		strb	r2, [r3, #52]
 987:Drivers/STM32L4xx_HAL_Driver/Src/stm32l4xx_hal_sd.c **** 
 988:Drivers/STM32L4xx_HAL_Driver/Src/stm32l4xx_hal_sd.c ****     /* Initialize data control register */
 989:Drivers/STM32L4xx_HAL_Driver/Src/stm32l4xx_hal_sd.c ****     hsd->Instance->DCTRL = 0U;
 1235              		.loc 1 989 8
 1236 006c FB68     		ldr	r3, [r7, #12]
 1237 006e 1B68     		ldr	r3, [r3]
 1238              		.loc 1 989 26
 1239 0070 0022     		movs	r2, #0
 1240 0072 DA62     		str	r2, [r3, #44]
 990:Drivers/STM32L4xx_HAL_Driver/Src/stm32l4xx_hal_sd.c **** 
ARM GAS  /tmp/ccsLb3N5.s 			page 40


 991:Drivers/STM32L4xx_HAL_Driver/Src/stm32l4xx_hal_sd.c ****     if (hsd->SdCard.CardType != CARD_SDHC_SDXC)
 1241              		.loc 1 991 20
 1242 0074 FB68     		ldr	r3, [r7, #12]
 1243 0076 5B6C     		ldr	r3, [r3, #68]
 1244              		.loc 1 991 8
 1245 0078 012B     		cmp	r3, #1
 1246 007a 02D0     		beq	.L56
 992:Drivers/STM32L4xx_HAL_Driver/Src/stm32l4xx_hal_sd.c ****     {
 993:Drivers/STM32L4xx_HAL_Driver/Src/stm32l4xx_hal_sd.c ****       add *= BLOCKSIZE;
 1247              		.loc 1 993 11
 1248 007c BB6B     		ldr	r3, [r7, #56]
 1249 007e 5B02     		lsls	r3, r3, #9
 1250 0080 BB63     		str	r3, [r7, #56]
 1251              	.L56:
 994:Drivers/STM32L4xx_HAL_Driver/Src/stm32l4xx_hal_sd.c ****     }
 995:Drivers/STM32L4xx_HAL_Driver/Src/stm32l4xx_hal_sd.c **** 
 996:Drivers/STM32L4xx_HAL_Driver/Src/stm32l4xx_hal_sd.c ****     /* Configure the SD DPSM (Data Path State Machine) */
 997:Drivers/STM32L4xx_HAL_Driver/Src/stm32l4xx_hal_sd.c ****     config.DataTimeOut   = SDMMC_DATATIMEOUT;
 1252              		.loc 1 997 26
 1253 0082 4FF0FF33 		mov	r3, #-1
 1254 0086 BB61     		str	r3, [r7, #24]
 998:Drivers/STM32L4xx_HAL_Driver/Src/stm32l4xx_hal_sd.c ****     config.DataLength    = NumberOfBlocks * BLOCKSIZE;
 1255              		.loc 1 998 43
 1256 0088 3B68     		ldr	r3, [r7]
 1257 008a 5B02     		lsls	r3, r3, #9
 1258              		.loc 1 998 26
 1259 008c FB61     		str	r3, [r7, #28]
 999:Drivers/STM32L4xx_HAL_Driver/Src/stm32l4xx_hal_sd.c ****     config.DataBlockSize = SDMMC_DATABLOCK_SIZE_512B;
 1260              		.loc 1 999 26
 1261 008e 9023     		movs	r3, #144
 1262 0090 3B62     		str	r3, [r7, #32]
1000:Drivers/STM32L4xx_HAL_Driver/Src/stm32l4xx_hal_sd.c ****     config.TransferDir   = SDMMC_TRANSFER_DIR_TO_CARD;
 1263              		.loc 1 1000 26
 1264 0092 0023     		movs	r3, #0
 1265 0094 7B62     		str	r3, [r7, #36]
1001:Drivers/STM32L4xx_HAL_Driver/Src/stm32l4xx_hal_sd.c ****     config.TransferMode  = SDMMC_TRANSFER_MODE_BLOCK;
 1266              		.loc 1 1001 26
 1267 0096 0023     		movs	r3, #0
 1268 0098 BB62     		str	r3, [r7, #40]
1002:Drivers/STM32L4xx_HAL_Driver/Src/stm32l4xx_hal_sd.c **** #if defined(STM32L4P5xx) || defined(STM32L4Q5xx) || defined(STM32L4R5xx) || defined(STM32L4R7xx) ||
1003:Drivers/STM32L4xx_HAL_Driver/Src/stm32l4xx_hal_sd.c ****     config.DPSM          = SDMMC_DPSM_DISABLE;
1004:Drivers/STM32L4xx_HAL_Driver/Src/stm32l4xx_hal_sd.c **** #else
1005:Drivers/STM32L4xx_HAL_Driver/Src/stm32l4xx_hal_sd.c ****     config.DPSM          = SDMMC_DPSM_ENABLE;
 1269              		.loc 1 1005 26
 1270 009a 0123     		movs	r3, #1
 1271 009c FB62     		str	r3, [r7, #44]
1006:Drivers/STM32L4xx_HAL_Driver/Src/stm32l4xx_hal_sd.c **** #endif /* STM32L4P5xx || STM32L4Q5xx || STM32L4R5xx || STM32L4R7xx || STM32L4R9xx \
1007:Drivers/STM32L4xx_HAL_Driver/Src/stm32l4xx_hal_sd.c ****           || STM32L4S5xx || STM32L4S7xx || STM32L4S9xx */
1008:Drivers/STM32L4xx_HAL_Driver/Src/stm32l4xx_hal_sd.c ****     (void)SDMMC_ConfigData(hsd->Instance, &config);
 1272              		.loc 1 1008 11
 1273 009e FB68     		ldr	r3, [r7, #12]
 1274 00a0 1B68     		ldr	r3, [r3]
 1275 00a2 07F11802 		add	r2, r7, #24
 1276 00a6 1146     		mov	r1, r2
 1277 00a8 1846     		mov	r0, r3
 1278 00aa FFF7FEFF 		bl	SDMMC_ConfigData
1009:Drivers/STM32L4xx_HAL_Driver/Src/stm32l4xx_hal_sd.c **** #if defined(STM32L4P5xx) || defined(STM32L4Q5xx) || defined(STM32L4R5xx) || defined(STM32L4R7xx) ||
ARM GAS  /tmp/ccsLb3N5.s 			page 41


1010:Drivers/STM32L4xx_HAL_Driver/Src/stm32l4xx_hal_sd.c ****     __SDMMC_CMDTRANS_ENABLE(hsd->Instance);
1011:Drivers/STM32L4xx_HAL_Driver/Src/stm32l4xx_hal_sd.c **** #endif /* STM32L4P5xx || STM32L4Q5xx || STM32L4R5xx || STM32L4R7xx || STM32L4R9xx \
1012:Drivers/STM32L4xx_HAL_Driver/Src/stm32l4xx_hal_sd.c ****           || STM32L4S5xx || STM32L4S7xx || STM32L4S9xx */
1013:Drivers/STM32L4xx_HAL_Driver/Src/stm32l4xx_hal_sd.c **** 
1014:Drivers/STM32L4xx_HAL_Driver/Src/stm32l4xx_hal_sd.c ****     /* Write Blocks in Polling mode */
1015:Drivers/STM32L4xx_HAL_Driver/Src/stm32l4xx_hal_sd.c ****     if (NumberOfBlocks > 1U)
 1279              		.loc 1 1015 8
 1280 00ae 3B68     		ldr	r3, [r7]
 1281 00b0 012B     		cmp	r3, #1
 1282 00b2 0AD9     		bls	.L57
1016:Drivers/STM32L4xx_HAL_Driver/Src/stm32l4xx_hal_sd.c ****     {
1017:Drivers/STM32L4xx_HAL_Driver/Src/stm32l4xx_hal_sd.c ****       hsd->Context = SD_CONTEXT_WRITE_MULTIPLE_BLOCK;
 1283              		.loc 1 1017 20
 1284 00b4 FB68     		ldr	r3, [r7, #12]
 1285 00b6 2022     		movs	r2, #32
 1286 00b8 1A63     		str	r2, [r3, #48]
1018:Drivers/STM32L4xx_HAL_Driver/Src/stm32l4xx_hal_sd.c **** 
1019:Drivers/STM32L4xx_HAL_Driver/Src/stm32l4xx_hal_sd.c ****       /* Write Multi Block command */
1020:Drivers/STM32L4xx_HAL_Driver/Src/stm32l4xx_hal_sd.c ****       errorstate = SDMMC_CmdWriteMultiBlock(hsd->Instance, add);
 1287              		.loc 1 1020 20
 1288 00ba FB68     		ldr	r3, [r7, #12]
 1289 00bc 1B68     		ldr	r3, [r3]
 1290 00be B96B     		ldr	r1, [r7, #56]
 1291 00c0 1846     		mov	r0, r3
 1292 00c2 FFF7FEFF 		bl	SDMMC_CmdWriteMultiBlock
 1293 00c6 7864     		str	r0, [r7, #68]
 1294 00c8 09E0     		b	.L58
 1295              	.L57:
1021:Drivers/STM32L4xx_HAL_Driver/Src/stm32l4xx_hal_sd.c ****     }
1022:Drivers/STM32L4xx_HAL_Driver/Src/stm32l4xx_hal_sd.c ****     else
1023:Drivers/STM32L4xx_HAL_Driver/Src/stm32l4xx_hal_sd.c ****     {
1024:Drivers/STM32L4xx_HAL_Driver/Src/stm32l4xx_hal_sd.c ****       hsd->Context = SD_CONTEXT_WRITE_SINGLE_BLOCK;
 1296              		.loc 1 1024 20
 1297 00ca FB68     		ldr	r3, [r7, #12]
 1298 00cc 1022     		movs	r2, #16
 1299 00ce 1A63     		str	r2, [r3, #48]
1025:Drivers/STM32L4xx_HAL_Driver/Src/stm32l4xx_hal_sd.c **** 
1026:Drivers/STM32L4xx_HAL_Driver/Src/stm32l4xx_hal_sd.c ****       /* Write Single Block command */
1027:Drivers/STM32L4xx_HAL_Driver/Src/stm32l4xx_hal_sd.c ****       errorstate = SDMMC_CmdWriteSingleBlock(hsd->Instance, add);
 1300              		.loc 1 1027 20
 1301 00d0 FB68     		ldr	r3, [r7, #12]
 1302 00d2 1B68     		ldr	r3, [r3]
 1303 00d4 B96B     		ldr	r1, [r7, #56]
 1304 00d6 1846     		mov	r0, r3
 1305 00d8 FFF7FEFF 		bl	SDMMC_CmdWriteSingleBlock
 1306 00dc 7864     		str	r0, [r7, #68]
 1307              	.L58:
1028:Drivers/STM32L4xx_HAL_Driver/Src/stm32l4xx_hal_sd.c ****     }
1029:Drivers/STM32L4xx_HAL_Driver/Src/stm32l4xx_hal_sd.c ****     if (errorstate != HAL_SD_ERROR_NONE)
 1308              		.loc 1 1029 8
 1309 00de 7B6C     		ldr	r3, [r7, #68]
 1310 00e0 002B     		cmp	r3, #0
 1311 00e2 12D0     		beq	.L59
1030:Drivers/STM32L4xx_HAL_Driver/Src/stm32l4xx_hal_sd.c ****     {
1031:Drivers/STM32L4xx_HAL_Driver/Src/stm32l4xx_hal_sd.c ****       /* Clear all the static flags */
1032:Drivers/STM32L4xx_HAL_Driver/Src/stm32l4xx_hal_sd.c ****       __HAL_SD_CLEAR_FLAG(hsd, SDMMC_STATIC_FLAGS);
 1312              		.loc 1 1032 7
ARM GAS  /tmp/ccsLb3N5.s 			page 42


 1313 00e4 FB68     		ldr	r3, [r7, #12]
 1314 00e6 1B68     		ldr	r3, [r3]
 1315 00e8 874A     		ldr	r2, .L71
 1316 00ea 9A63     		str	r2, [r3, #56]
1033:Drivers/STM32L4xx_HAL_Driver/Src/stm32l4xx_hal_sd.c ****       hsd->ErrorCode |= errorstate;
 1317              		.loc 1 1033 10
 1318 00ec FB68     		ldr	r3, [r7, #12]
 1319 00ee 9A6B     		ldr	r2, [r3, #56]
 1320              		.loc 1 1033 22
 1321 00f0 7B6C     		ldr	r3, [r7, #68]
 1322 00f2 1A43     		orrs	r2, r2, r3
 1323 00f4 FB68     		ldr	r3, [r7, #12]
 1324 00f6 9A63     		str	r2, [r3, #56]
1034:Drivers/STM32L4xx_HAL_Driver/Src/stm32l4xx_hal_sd.c ****       hsd->State = HAL_SD_STATE_READY;
 1325              		.loc 1 1034 18
 1326 00f8 FB68     		ldr	r3, [r7, #12]
 1327 00fa 0122     		movs	r2, #1
 1328 00fc 83F83420 		strb	r2, [r3, #52]
1035:Drivers/STM32L4xx_HAL_Driver/Src/stm32l4xx_hal_sd.c ****       hsd->Context = SD_CONTEXT_NONE;
 1329              		.loc 1 1035 20
 1330 0100 FB68     		ldr	r3, [r7, #12]
 1331 0102 0022     		movs	r2, #0
 1332 0104 1A63     		str	r2, [r3, #48]
1036:Drivers/STM32L4xx_HAL_Driver/Src/stm32l4xx_hal_sd.c ****       return HAL_ERROR;
 1333              		.loc 1 1036 14
 1334 0106 0123     		movs	r3, #1
 1335 0108 F9E0     		b	.L70
 1336              	.L59:
1037:Drivers/STM32L4xx_HAL_Driver/Src/stm32l4xx_hal_sd.c ****     }
1038:Drivers/STM32L4xx_HAL_Driver/Src/stm32l4xx_hal_sd.c **** 
1039:Drivers/STM32L4xx_HAL_Driver/Src/stm32l4xx_hal_sd.c ****     /* Write block(s) in polling mode */
1040:Drivers/STM32L4xx_HAL_Driver/Src/stm32l4xx_hal_sd.c ****     dataremaining = config.DataLength;
 1337              		.loc 1 1040 19
 1338 010a FB69     		ldr	r3, [r7, #28]
 1339 010c FB63     		str	r3, [r7, #60]
1041:Drivers/STM32L4xx_HAL_Driver/Src/stm32l4xx_hal_sd.c ****     while (!__HAL_SD_GET_FLAG(hsd,
 1340              		.loc 1 1041 11
 1341 010e 65E0     		b	.L60
 1342              	.L65:
1042:Drivers/STM32L4xx_HAL_Driver/Src/stm32l4xx_hal_sd.c ****                               SDMMC_FLAG_TXUNDERR | SDMMC_FLAG_DCRCFAIL | SDMMC_FLAG_DTIMEOUT | SDM
1043:Drivers/STM32L4xx_HAL_Driver/Src/stm32l4xx_hal_sd.c ****     {
1044:Drivers/STM32L4xx_HAL_Driver/Src/stm32l4xx_hal_sd.c ****       if (__HAL_SD_GET_FLAG(hsd, SDMMC_FLAG_TXFIFOHE) && (dataremaining > 0U))
 1343              		.loc 1 1044 11
 1344 0110 FB68     		ldr	r3, [r7, #12]
 1345 0112 1B68     		ldr	r3, [r3]
 1346 0114 5B6B     		ldr	r3, [r3, #52]
 1347 0116 03F48043 		and	r3, r3, #16384
 1348              		.loc 1 1044 10
 1349 011a 002B     		cmp	r3, #0
 1350 011c 40D0     		beq	.L61
 1351              		.loc 1 1044 55 discriminator 1
 1352 011e FB6B     		ldr	r3, [r7, #60]
 1353 0120 002B     		cmp	r3, #0
 1354 0122 3DD0     		beq	.L61
1045:Drivers/STM32L4xx_HAL_Driver/Src/stm32l4xx_hal_sd.c ****       {
1046:Drivers/STM32L4xx_HAL_Driver/Src/stm32l4xx_hal_sd.c ****         /* Write data to SDMMC Tx FIFO */
1047:Drivers/STM32L4xx_HAL_Driver/Src/stm32l4xx_hal_sd.c ****         for (count = 0U; count < 8U; count++)
ARM GAS  /tmp/ccsLb3N5.s 			page 43


 1355              		.loc 1 1047 20
 1356 0124 0023     		movs	r3, #0
 1357 0126 3B64     		str	r3, [r7, #64]
 1358              		.loc 1 1047 9
 1359 0128 37E0     		b	.L62
 1360              	.L63:
1048:Drivers/STM32L4xx_HAL_Driver/Src/stm32l4xx_hal_sd.c ****         {
1049:Drivers/STM32L4xx_HAL_Driver/Src/stm32l4xx_hal_sd.c ****           data = (uint32_t)(*tempbuff);
 1361              		.loc 1 1049 29
 1362 012a 7B6B     		ldr	r3, [r7, #52]
 1363 012c 1B78     		ldrb	r3, [r3]	@ zero_extendqisi2
 1364              		.loc 1 1049 16
 1365 012e 7B61     		str	r3, [r7, #20]
1050:Drivers/STM32L4xx_HAL_Driver/Src/stm32l4xx_hal_sd.c ****           tempbuff++;
 1366              		.loc 1 1050 19
 1367 0130 7B6B     		ldr	r3, [r7, #52]
 1368 0132 0133     		adds	r3, r3, #1
 1369 0134 7B63     		str	r3, [r7, #52]
1051:Drivers/STM32L4xx_HAL_Driver/Src/stm32l4xx_hal_sd.c ****           dataremaining--;
 1370              		.loc 1 1051 24
 1371 0136 FB6B     		ldr	r3, [r7, #60]
 1372 0138 013B     		subs	r3, r3, #1
 1373 013a FB63     		str	r3, [r7, #60]
1052:Drivers/STM32L4xx_HAL_Driver/Src/stm32l4xx_hal_sd.c ****           data |= ((uint32_t)(*tempbuff) << 8U);
 1374              		.loc 1 1052 31
 1375 013c 7B6B     		ldr	r3, [r7, #52]
 1376 013e 1B78     		ldrb	r3, [r3]	@ zero_extendqisi2
 1377              		.loc 1 1052 42
 1378 0140 1A02     		lsls	r2, r3, #8
 1379              		.loc 1 1052 16
 1380 0142 7B69     		ldr	r3, [r7, #20]
 1381 0144 1343     		orrs	r3, r3, r2
 1382 0146 7B61     		str	r3, [r7, #20]
1053:Drivers/STM32L4xx_HAL_Driver/Src/stm32l4xx_hal_sd.c ****           tempbuff++;
 1383              		.loc 1 1053 19
 1384 0148 7B6B     		ldr	r3, [r7, #52]
 1385 014a 0133     		adds	r3, r3, #1
 1386 014c 7B63     		str	r3, [r7, #52]
1054:Drivers/STM32L4xx_HAL_Driver/Src/stm32l4xx_hal_sd.c ****           dataremaining--;
 1387              		.loc 1 1054 24
 1388 014e FB6B     		ldr	r3, [r7, #60]
 1389 0150 013B     		subs	r3, r3, #1
 1390 0152 FB63     		str	r3, [r7, #60]
1055:Drivers/STM32L4xx_HAL_Driver/Src/stm32l4xx_hal_sd.c ****           data |= ((uint32_t)(*tempbuff) << 16U);
 1391              		.loc 1 1055 31
 1392 0154 7B6B     		ldr	r3, [r7, #52]
 1393 0156 1B78     		ldrb	r3, [r3]	@ zero_extendqisi2
 1394              		.loc 1 1055 42
 1395 0158 1A04     		lsls	r2, r3, #16
 1396              		.loc 1 1055 16
 1397 015a 7B69     		ldr	r3, [r7, #20]
 1398 015c 1343     		orrs	r3, r3, r2
 1399 015e 7B61     		str	r3, [r7, #20]
1056:Drivers/STM32L4xx_HAL_Driver/Src/stm32l4xx_hal_sd.c ****           tempbuff++;
 1400              		.loc 1 1056 19
 1401 0160 7B6B     		ldr	r3, [r7, #52]
 1402 0162 0133     		adds	r3, r3, #1
ARM GAS  /tmp/ccsLb3N5.s 			page 44


 1403 0164 7B63     		str	r3, [r7, #52]
1057:Drivers/STM32L4xx_HAL_Driver/Src/stm32l4xx_hal_sd.c ****           dataremaining--;
 1404              		.loc 1 1057 24
 1405 0166 FB6B     		ldr	r3, [r7, #60]
 1406 0168 013B     		subs	r3, r3, #1
 1407 016a FB63     		str	r3, [r7, #60]
1058:Drivers/STM32L4xx_HAL_Driver/Src/stm32l4xx_hal_sd.c ****           data |= ((uint32_t)(*tempbuff) << 24U);
 1408              		.loc 1 1058 31
 1409 016c 7B6B     		ldr	r3, [r7, #52]
 1410 016e 1B78     		ldrb	r3, [r3]	@ zero_extendqisi2
 1411              		.loc 1 1058 42
 1412 0170 1A06     		lsls	r2, r3, #24
 1413              		.loc 1 1058 16
 1414 0172 7B69     		ldr	r3, [r7, #20]
 1415 0174 1343     		orrs	r3, r3, r2
 1416 0176 7B61     		str	r3, [r7, #20]
1059:Drivers/STM32L4xx_HAL_Driver/Src/stm32l4xx_hal_sd.c ****           tempbuff++;
 1417              		.loc 1 1059 19
 1418 0178 7B6B     		ldr	r3, [r7, #52]
 1419 017a 0133     		adds	r3, r3, #1
 1420 017c 7B63     		str	r3, [r7, #52]
1060:Drivers/STM32L4xx_HAL_Driver/Src/stm32l4xx_hal_sd.c ****           dataremaining--;
 1421              		.loc 1 1060 24
 1422 017e FB6B     		ldr	r3, [r7, #60]
 1423 0180 013B     		subs	r3, r3, #1
 1424 0182 FB63     		str	r3, [r7, #60]
1061:Drivers/STM32L4xx_HAL_Driver/Src/stm32l4xx_hal_sd.c ****           (void)SDMMC_WriteFIFO(hsd->Instance, &data);
 1425              		.loc 1 1061 17
 1426 0184 FB68     		ldr	r3, [r7, #12]
 1427 0186 1B68     		ldr	r3, [r3]
 1428 0188 07F11402 		add	r2, r7, #20
 1429 018c 1146     		mov	r1, r2
 1430 018e 1846     		mov	r0, r3
 1431 0190 FFF7FEFF 		bl	SDMMC_WriteFIFO
1047:Drivers/STM32L4xx_HAL_Driver/Src/stm32l4xx_hal_sd.c ****         {
 1432              		.loc 1 1047 43 discriminator 3
 1433 0194 3B6C     		ldr	r3, [r7, #64]
 1434 0196 0133     		adds	r3, r3, #1
 1435 0198 3B64     		str	r3, [r7, #64]
 1436              	.L62:
1047:Drivers/STM32L4xx_HAL_Driver/Src/stm32l4xx_hal_sd.c ****         {
 1437              		.loc 1 1047 32 discriminator 1
 1438 019a 3B6C     		ldr	r3, [r7, #64]
 1439 019c 072B     		cmp	r3, #7
 1440 019e C4D9     		bls	.L63
 1441              	.L61:
1062:Drivers/STM32L4xx_HAL_Driver/Src/stm32l4xx_hal_sd.c ****         }
1063:Drivers/STM32L4xx_HAL_Driver/Src/stm32l4xx_hal_sd.c ****       }
1064:Drivers/STM32L4xx_HAL_Driver/Src/stm32l4xx_hal_sd.c **** 
1065:Drivers/STM32L4xx_HAL_Driver/Src/stm32l4xx_hal_sd.c ****       if (((HAL_GetTick() - tickstart) >=  Timeout) || (Timeout == 0U))
 1442              		.loc 1 1065 13
 1443 01a0 FFF7FEFF 		bl	HAL_GetTick
 1444 01a4 0246     		mov	r2, r0
 1445              		.loc 1 1065 27 discriminator 1
 1446 01a6 3B6B     		ldr	r3, [r7, #48]
 1447 01a8 D31A     		subs	r3, r2, r3
 1448              		.loc 1 1065 10 discriminator 1
ARM GAS  /tmp/ccsLb3N5.s 			page 45


 1449 01aa 3A6D     		ldr	r2, [r7, #80]
 1450 01ac 9A42     		cmp	r2, r3
 1451 01ae 02D9     		bls	.L64
 1452              		.loc 1 1065 53 discriminator 1
 1453 01b0 3B6D     		ldr	r3, [r7, #80]
 1454 01b2 002B     		cmp	r3, #0
 1455 01b4 12D1     		bne	.L60
 1456              	.L64:
1066:Drivers/STM32L4xx_HAL_Driver/Src/stm32l4xx_hal_sd.c ****       {
1067:Drivers/STM32L4xx_HAL_Driver/Src/stm32l4xx_hal_sd.c ****         /* Clear all the static flags */
1068:Drivers/STM32L4xx_HAL_Driver/Src/stm32l4xx_hal_sd.c ****         __HAL_SD_CLEAR_FLAG(hsd, SDMMC_STATIC_FLAGS);
 1457              		.loc 1 1068 9
 1458 01b6 FB68     		ldr	r3, [r7, #12]
 1459 01b8 1B68     		ldr	r3, [r3]
 1460 01ba 534A     		ldr	r2, .L71
 1461 01bc 9A63     		str	r2, [r3, #56]
1069:Drivers/STM32L4xx_HAL_Driver/Src/stm32l4xx_hal_sd.c ****         hsd->ErrorCode |= errorstate;
 1462              		.loc 1 1069 12
 1463 01be FB68     		ldr	r3, [r7, #12]
 1464 01c0 9A6B     		ldr	r2, [r3, #56]
 1465              		.loc 1 1069 24
 1466 01c2 7B6C     		ldr	r3, [r7, #68]
 1467 01c4 1A43     		orrs	r2, r2, r3
 1468 01c6 FB68     		ldr	r3, [r7, #12]
 1469 01c8 9A63     		str	r2, [r3, #56]
1070:Drivers/STM32L4xx_HAL_Driver/Src/stm32l4xx_hal_sd.c ****         hsd->State = HAL_SD_STATE_READY;
 1470              		.loc 1 1070 20
 1471 01ca FB68     		ldr	r3, [r7, #12]
 1472 01cc 0122     		movs	r2, #1
 1473 01ce 83F83420 		strb	r2, [r3, #52]
1071:Drivers/STM32L4xx_HAL_Driver/Src/stm32l4xx_hal_sd.c ****         hsd->Context = SD_CONTEXT_NONE;
 1474              		.loc 1 1071 22
 1475 01d2 FB68     		ldr	r3, [r7, #12]
 1476 01d4 0022     		movs	r2, #0
 1477 01d6 1A63     		str	r2, [r3, #48]
1072:Drivers/STM32L4xx_HAL_Driver/Src/stm32l4xx_hal_sd.c ****         return HAL_TIMEOUT;
 1478              		.loc 1 1072 16
 1479 01d8 0323     		movs	r3, #3
 1480 01da 90E0     		b	.L70
 1481              	.L60:
1041:Drivers/STM32L4xx_HAL_Driver/Src/stm32l4xx_hal_sd.c ****                               SDMMC_FLAG_TXUNDERR | SDMMC_FLAG_DCRCFAIL | SDMMC_FLAG_DTIMEOUT | SDM
 1482              		.loc 1 1041 13
 1483 01dc FB68     		ldr	r3, [r7, #12]
 1484 01de 1B68     		ldr	r3, [r3]
 1485 01e0 5B6B     		ldr	r3, [r3, #52]
 1486 01e2 03F48D73 		and	r3, r3, #282
1041:Drivers/STM32L4xx_HAL_Driver/Src/stm32l4xx_hal_sd.c ****                               SDMMC_FLAG_TXUNDERR | SDMMC_FLAG_DCRCFAIL | SDMMC_FLAG_DTIMEOUT | SDM
 1487              		.loc 1 1041 12
 1488 01e6 002B     		cmp	r3, #0
 1489 01e8 92D0     		beq	.L65
1073:Drivers/STM32L4xx_HAL_Driver/Src/stm32l4xx_hal_sd.c ****       }
1074:Drivers/STM32L4xx_HAL_Driver/Src/stm32l4xx_hal_sd.c ****     }
1075:Drivers/STM32L4xx_HAL_Driver/Src/stm32l4xx_hal_sd.c **** 
1076:Drivers/STM32L4xx_HAL_Driver/Src/stm32l4xx_hal_sd.c **** #if defined(STM32L4P5xx) || defined(STM32L4Q5xx) || defined(STM32L4R5xx) || defined(STM32L4R7xx) ||
1077:Drivers/STM32L4xx_HAL_Driver/Src/stm32l4xx_hal_sd.c ****     __SDMMC_CMDTRANS_DISABLE(hsd->Instance);
1078:Drivers/STM32L4xx_HAL_Driver/Src/stm32l4xx_hal_sd.c **** #endif /* STM32L4P5xx || STM32L4Q5xx || STM32L4R5xx || STM32L4R7xx || STM32L4R9xx \
1079:Drivers/STM32L4xx_HAL_Driver/Src/stm32l4xx_hal_sd.c ****           || STM32L4S5xx || STM32L4S7xx || STM32L4S9xx */
ARM GAS  /tmp/ccsLb3N5.s 			page 46


1080:Drivers/STM32L4xx_HAL_Driver/Src/stm32l4xx_hal_sd.c **** 
1081:Drivers/STM32L4xx_HAL_Driver/Src/stm32l4xx_hal_sd.c ****     /* Send stop transmission command in case of multiblock write */
1082:Drivers/STM32L4xx_HAL_Driver/Src/stm32l4xx_hal_sd.c ****     if (__HAL_SD_GET_FLAG(hsd, SDMMC_FLAG_DATAEND) && (NumberOfBlocks > 1U))
 1490              		.loc 1 1082 9
 1491 01ea FB68     		ldr	r3, [r7, #12]
 1492 01ec 1B68     		ldr	r3, [r3]
 1493 01ee 5B6B     		ldr	r3, [r3, #52]
 1494 01f0 03F48073 		and	r3, r3, #256
 1495              		.loc 1 1082 8
 1496 01f4 002B     		cmp	r3, #0
 1497 01f6 22D0     		beq	.L66
 1498              		.loc 1 1082 52 discriminator 1
 1499 01f8 3B68     		ldr	r3, [r7]
 1500 01fa 012B     		cmp	r3, #1
 1501 01fc 1FD9     		bls	.L66
1083:Drivers/STM32L4xx_HAL_Driver/Src/stm32l4xx_hal_sd.c ****     {
1084:Drivers/STM32L4xx_HAL_Driver/Src/stm32l4xx_hal_sd.c ****       if (hsd->SdCard.CardType != CARD_SECURED)
 1502              		.loc 1 1084 22
 1503 01fe FB68     		ldr	r3, [r7, #12]
 1504 0200 5B6C     		ldr	r3, [r3, #68]
 1505              		.loc 1 1084 10
 1506 0202 032B     		cmp	r3, #3
 1507 0204 1BD0     		beq	.L66
1085:Drivers/STM32L4xx_HAL_Driver/Src/stm32l4xx_hal_sd.c ****       {
1086:Drivers/STM32L4xx_HAL_Driver/Src/stm32l4xx_hal_sd.c ****         /* Send stop transmission command */
1087:Drivers/STM32L4xx_HAL_Driver/Src/stm32l4xx_hal_sd.c ****         errorstate = SDMMC_CmdStopTransfer(hsd->Instance);
 1508              		.loc 1 1087 22
 1509 0206 FB68     		ldr	r3, [r7, #12]
 1510 0208 1B68     		ldr	r3, [r3]
 1511 020a 1846     		mov	r0, r3
 1512 020c FFF7FEFF 		bl	SDMMC_CmdStopTransfer
 1513 0210 7864     		str	r0, [r7, #68]
1088:Drivers/STM32L4xx_HAL_Driver/Src/stm32l4xx_hal_sd.c ****         if (errorstate != HAL_SD_ERROR_NONE)
 1514              		.loc 1 1088 12
 1515 0212 7B6C     		ldr	r3, [r7, #68]
 1516 0214 002B     		cmp	r3, #0
 1517 0216 12D0     		beq	.L66
1089:Drivers/STM32L4xx_HAL_Driver/Src/stm32l4xx_hal_sd.c ****         {
1090:Drivers/STM32L4xx_HAL_Driver/Src/stm32l4xx_hal_sd.c ****           /* Clear all the static flags */
1091:Drivers/STM32L4xx_HAL_Driver/Src/stm32l4xx_hal_sd.c ****           __HAL_SD_CLEAR_FLAG(hsd, SDMMC_STATIC_FLAGS);
 1518              		.loc 1 1091 11
 1519 0218 FB68     		ldr	r3, [r7, #12]
 1520 021a 1B68     		ldr	r3, [r3]
 1521 021c 3A4A     		ldr	r2, .L71
 1522 021e 9A63     		str	r2, [r3, #56]
1092:Drivers/STM32L4xx_HAL_Driver/Src/stm32l4xx_hal_sd.c ****           hsd->ErrorCode |= errorstate;
 1523              		.loc 1 1092 14
 1524 0220 FB68     		ldr	r3, [r7, #12]
 1525 0222 9A6B     		ldr	r2, [r3, #56]
 1526              		.loc 1 1092 26
 1527 0224 7B6C     		ldr	r3, [r7, #68]
 1528 0226 1A43     		orrs	r2, r2, r3
 1529 0228 FB68     		ldr	r3, [r7, #12]
 1530 022a 9A63     		str	r2, [r3, #56]
1093:Drivers/STM32L4xx_HAL_Driver/Src/stm32l4xx_hal_sd.c ****           hsd->State = HAL_SD_STATE_READY;
 1531              		.loc 1 1093 22
 1532 022c FB68     		ldr	r3, [r7, #12]
ARM GAS  /tmp/ccsLb3N5.s 			page 47


 1533 022e 0122     		movs	r2, #1
 1534 0230 83F83420 		strb	r2, [r3, #52]
1094:Drivers/STM32L4xx_HAL_Driver/Src/stm32l4xx_hal_sd.c ****           hsd->Context = SD_CONTEXT_NONE;
 1535              		.loc 1 1094 24
 1536 0234 FB68     		ldr	r3, [r7, #12]
 1537 0236 0022     		movs	r2, #0
 1538 0238 1A63     		str	r2, [r3, #48]
1095:Drivers/STM32L4xx_HAL_Driver/Src/stm32l4xx_hal_sd.c ****           return HAL_ERROR;
 1539              		.loc 1 1095 18
 1540 023a 0123     		movs	r3, #1
 1541 023c 5FE0     		b	.L70
 1542              	.L66:
1096:Drivers/STM32L4xx_HAL_Driver/Src/stm32l4xx_hal_sd.c ****         }
1097:Drivers/STM32L4xx_HAL_Driver/Src/stm32l4xx_hal_sd.c ****       }
1098:Drivers/STM32L4xx_HAL_Driver/Src/stm32l4xx_hal_sd.c ****     }
1099:Drivers/STM32L4xx_HAL_Driver/Src/stm32l4xx_hal_sd.c **** 
1100:Drivers/STM32L4xx_HAL_Driver/Src/stm32l4xx_hal_sd.c ****     /* Get error state */
1101:Drivers/STM32L4xx_HAL_Driver/Src/stm32l4xx_hal_sd.c ****     if (__HAL_SD_GET_FLAG(hsd, SDMMC_FLAG_DTIMEOUT))
 1543              		.loc 1 1101 9
 1544 023e FB68     		ldr	r3, [r7, #12]
 1545 0240 1B68     		ldr	r3, [r3]
 1546 0242 5B6B     		ldr	r3, [r3, #52]
 1547 0244 03F00803 		and	r3, r3, #8
 1548              		.loc 1 1101 8
 1549 0248 002B     		cmp	r3, #0
 1550 024a 12D0     		beq	.L67
1102:Drivers/STM32L4xx_HAL_Driver/Src/stm32l4xx_hal_sd.c ****     {
1103:Drivers/STM32L4xx_HAL_Driver/Src/stm32l4xx_hal_sd.c ****       /* Clear all the static flags */
1104:Drivers/STM32L4xx_HAL_Driver/Src/stm32l4xx_hal_sd.c ****       __HAL_SD_CLEAR_FLAG(hsd, SDMMC_STATIC_FLAGS);
 1551              		.loc 1 1104 7
 1552 024c FB68     		ldr	r3, [r7, #12]
 1553 024e 1B68     		ldr	r3, [r3]
 1554 0250 2D4A     		ldr	r2, .L71
 1555 0252 9A63     		str	r2, [r3, #56]
1105:Drivers/STM32L4xx_HAL_Driver/Src/stm32l4xx_hal_sd.c ****       hsd->ErrorCode |= HAL_SD_ERROR_DATA_TIMEOUT;
 1556              		.loc 1 1105 10
 1557 0254 FB68     		ldr	r3, [r7, #12]
 1558 0256 9B6B     		ldr	r3, [r3, #56]
 1559              		.loc 1 1105 22
 1560 0258 43F00802 		orr	r2, r3, #8
 1561 025c FB68     		ldr	r3, [r7, #12]
 1562 025e 9A63     		str	r2, [r3, #56]
1106:Drivers/STM32L4xx_HAL_Driver/Src/stm32l4xx_hal_sd.c ****       hsd->State = HAL_SD_STATE_READY;
 1563              		.loc 1 1106 18
 1564 0260 FB68     		ldr	r3, [r7, #12]
 1565 0262 0122     		movs	r2, #1
 1566 0264 83F83420 		strb	r2, [r3, #52]
1107:Drivers/STM32L4xx_HAL_Driver/Src/stm32l4xx_hal_sd.c ****       hsd->Context = SD_CONTEXT_NONE;
 1567              		.loc 1 1107 20
 1568 0268 FB68     		ldr	r3, [r7, #12]
 1569 026a 0022     		movs	r2, #0
 1570 026c 1A63     		str	r2, [r3, #48]
1108:Drivers/STM32L4xx_HAL_Driver/Src/stm32l4xx_hal_sd.c ****       return HAL_ERROR;
 1571              		.loc 1 1108 14
 1572 026e 0123     		movs	r3, #1
 1573 0270 45E0     		b	.L70
 1574              	.L67:
ARM GAS  /tmp/ccsLb3N5.s 			page 48


1109:Drivers/STM32L4xx_HAL_Driver/Src/stm32l4xx_hal_sd.c ****     }
1110:Drivers/STM32L4xx_HAL_Driver/Src/stm32l4xx_hal_sd.c ****     else if (__HAL_SD_GET_FLAG(hsd, SDMMC_FLAG_DCRCFAIL))
 1575              		.loc 1 1110 14
 1576 0272 FB68     		ldr	r3, [r7, #12]
 1577 0274 1B68     		ldr	r3, [r3]
 1578 0276 5B6B     		ldr	r3, [r3, #52]
 1579 0278 03F00203 		and	r3, r3, #2
 1580              		.loc 1 1110 13
 1581 027c 002B     		cmp	r3, #0
 1582 027e 12D0     		beq	.L68
1111:Drivers/STM32L4xx_HAL_Driver/Src/stm32l4xx_hal_sd.c ****     {
1112:Drivers/STM32L4xx_HAL_Driver/Src/stm32l4xx_hal_sd.c ****       /* Clear all the static flags */
1113:Drivers/STM32L4xx_HAL_Driver/Src/stm32l4xx_hal_sd.c ****       __HAL_SD_CLEAR_FLAG(hsd, SDMMC_STATIC_FLAGS);
 1583              		.loc 1 1113 7
 1584 0280 FB68     		ldr	r3, [r7, #12]
 1585 0282 1B68     		ldr	r3, [r3]
 1586 0284 204A     		ldr	r2, .L71
 1587 0286 9A63     		str	r2, [r3, #56]
1114:Drivers/STM32L4xx_HAL_Driver/Src/stm32l4xx_hal_sd.c ****       hsd->ErrorCode |= HAL_SD_ERROR_DATA_CRC_FAIL;
 1588              		.loc 1 1114 10
 1589 0288 FB68     		ldr	r3, [r7, #12]
 1590 028a 9B6B     		ldr	r3, [r3, #56]
 1591              		.loc 1 1114 22
 1592 028c 43F00202 		orr	r2, r3, #2
 1593 0290 FB68     		ldr	r3, [r7, #12]
 1594 0292 9A63     		str	r2, [r3, #56]
1115:Drivers/STM32L4xx_HAL_Driver/Src/stm32l4xx_hal_sd.c ****       hsd->State = HAL_SD_STATE_READY;
 1595              		.loc 1 1115 18
 1596 0294 FB68     		ldr	r3, [r7, #12]
 1597 0296 0122     		movs	r2, #1
 1598 0298 83F83420 		strb	r2, [r3, #52]
1116:Drivers/STM32L4xx_HAL_Driver/Src/stm32l4xx_hal_sd.c ****       hsd->Context = SD_CONTEXT_NONE;
 1599              		.loc 1 1116 20
 1600 029c FB68     		ldr	r3, [r7, #12]
 1601 029e 0022     		movs	r2, #0
 1602 02a0 1A63     		str	r2, [r3, #48]
1117:Drivers/STM32L4xx_HAL_Driver/Src/stm32l4xx_hal_sd.c ****       return HAL_ERROR;
 1603              		.loc 1 1117 14
 1604 02a2 0123     		movs	r3, #1
 1605 02a4 2BE0     		b	.L70
 1606              	.L68:
1118:Drivers/STM32L4xx_HAL_Driver/Src/stm32l4xx_hal_sd.c ****     }
1119:Drivers/STM32L4xx_HAL_Driver/Src/stm32l4xx_hal_sd.c ****     else if (__HAL_SD_GET_FLAG(hsd, SDMMC_FLAG_TXUNDERR))
 1607              		.loc 1 1119 14
 1608 02a6 FB68     		ldr	r3, [r7, #12]
 1609 02a8 1B68     		ldr	r3, [r3]
 1610 02aa 5B6B     		ldr	r3, [r3, #52]
 1611 02ac 03F01003 		and	r3, r3, #16
 1612              		.loc 1 1119 13
 1613 02b0 002B     		cmp	r3, #0
 1614 02b2 12D0     		beq	.L69
1120:Drivers/STM32L4xx_HAL_Driver/Src/stm32l4xx_hal_sd.c ****     {
1121:Drivers/STM32L4xx_HAL_Driver/Src/stm32l4xx_hal_sd.c ****       /* Clear all the static flags */
1122:Drivers/STM32L4xx_HAL_Driver/Src/stm32l4xx_hal_sd.c ****       __HAL_SD_CLEAR_FLAG(hsd, SDMMC_STATIC_FLAGS);
 1615              		.loc 1 1122 7
 1616 02b4 FB68     		ldr	r3, [r7, #12]
 1617 02b6 1B68     		ldr	r3, [r3]
ARM GAS  /tmp/ccsLb3N5.s 			page 49


 1618 02b8 134A     		ldr	r2, .L71
 1619 02ba 9A63     		str	r2, [r3, #56]
1123:Drivers/STM32L4xx_HAL_Driver/Src/stm32l4xx_hal_sd.c ****       hsd->ErrorCode |= HAL_SD_ERROR_TX_UNDERRUN;
 1620              		.loc 1 1123 10
 1621 02bc FB68     		ldr	r3, [r7, #12]
 1622 02be 9B6B     		ldr	r3, [r3, #56]
 1623              		.loc 1 1123 22
 1624 02c0 43F01002 		orr	r2, r3, #16
 1625 02c4 FB68     		ldr	r3, [r7, #12]
 1626 02c6 9A63     		str	r2, [r3, #56]
1124:Drivers/STM32L4xx_HAL_Driver/Src/stm32l4xx_hal_sd.c ****       hsd->State = HAL_SD_STATE_READY;
 1627              		.loc 1 1124 18
 1628 02c8 FB68     		ldr	r3, [r7, #12]
 1629 02ca 0122     		movs	r2, #1
 1630 02cc 83F83420 		strb	r2, [r3, #52]
1125:Drivers/STM32L4xx_HAL_Driver/Src/stm32l4xx_hal_sd.c ****       hsd->Context = SD_CONTEXT_NONE;
 1631              		.loc 1 1125 20
 1632 02d0 FB68     		ldr	r3, [r7, #12]
 1633 02d2 0022     		movs	r2, #0
 1634 02d4 1A63     		str	r2, [r3, #48]
1126:Drivers/STM32L4xx_HAL_Driver/Src/stm32l4xx_hal_sd.c ****       return HAL_ERROR;
 1635              		.loc 1 1126 14
 1636 02d6 0123     		movs	r3, #1
 1637 02d8 11E0     		b	.L70
 1638              	.L69:
1127:Drivers/STM32L4xx_HAL_Driver/Src/stm32l4xx_hal_sd.c ****     }
1128:Drivers/STM32L4xx_HAL_Driver/Src/stm32l4xx_hal_sd.c ****     else
1129:Drivers/STM32L4xx_HAL_Driver/Src/stm32l4xx_hal_sd.c ****     {
1130:Drivers/STM32L4xx_HAL_Driver/Src/stm32l4xx_hal_sd.c ****       /* Nothing to do */
1131:Drivers/STM32L4xx_HAL_Driver/Src/stm32l4xx_hal_sd.c ****     }
1132:Drivers/STM32L4xx_HAL_Driver/Src/stm32l4xx_hal_sd.c **** 
1133:Drivers/STM32L4xx_HAL_Driver/Src/stm32l4xx_hal_sd.c ****     /* Clear all the static flags */
1134:Drivers/STM32L4xx_HAL_Driver/Src/stm32l4xx_hal_sd.c ****     __HAL_SD_CLEAR_FLAG(hsd, SDMMC_STATIC_DATA_FLAGS);
 1639              		.loc 1 1134 5
 1640 02da FB68     		ldr	r3, [r7, #12]
 1641 02dc 1B68     		ldr	r3, [r3]
 1642 02de 40F23A52 		movw	r2, #1338
 1643 02e2 9A63     		str	r2, [r3, #56]
1135:Drivers/STM32L4xx_HAL_Driver/Src/stm32l4xx_hal_sd.c **** 
1136:Drivers/STM32L4xx_HAL_Driver/Src/stm32l4xx_hal_sd.c ****     hsd->State = HAL_SD_STATE_READY;
 1644              		.loc 1 1136 16
 1645 02e4 FB68     		ldr	r3, [r7, #12]
 1646 02e6 0122     		movs	r2, #1
 1647 02e8 83F83420 		strb	r2, [r3, #52]
1137:Drivers/STM32L4xx_HAL_Driver/Src/stm32l4xx_hal_sd.c **** 
1138:Drivers/STM32L4xx_HAL_Driver/Src/stm32l4xx_hal_sd.c ****     return HAL_OK;
 1648              		.loc 1 1138 12
 1649 02ec 0023     		movs	r3, #0
 1650 02ee 06E0     		b	.L70
 1651              	.L54:
1139:Drivers/STM32L4xx_HAL_Driver/Src/stm32l4xx_hal_sd.c ****   }
1140:Drivers/STM32L4xx_HAL_Driver/Src/stm32l4xx_hal_sd.c ****   else
1141:Drivers/STM32L4xx_HAL_Driver/Src/stm32l4xx_hal_sd.c ****   {
1142:Drivers/STM32L4xx_HAL_Driver/Src/stm32l4xx_hal_sd.c ****     hsd->ErrorCode |= HAL_SD_ERROR_BUSY;
 1652              		.loc 1 1142 8
 1653 02f0 FB68     		ldr	r3, [r7, #12]
 1654 02f2 9B6B     		ldr	r3, [r3, #56]
ARM GAS  /tmp/ccsLb3N5.s 			page 50


 1655              		.loc 1 1142 20
 1656 02f4 43F00052 		orr	r2, r3, #536870912
 1657 02f8 FB68     		ldr	r3, [r7, #12]
 1658 02fa 9A63     		str	r2, [r3, #56]
1143:Drivers/STM32L4xx_HAL_Driver/Src/stm32l4xx_hal_sd.c ****     return HAL_ERROR;
 1659              		.loc 1 1143 12
 1660 02fc 0123     		movs	r3, #1
 1661              	.L70:
1144:Drivers/STM32L4xx_HAL_Driver/Src/stm32l4xx_hal_sd.c ****   }
1145:Drivers/STM32L4xx_HAL_Driver/Src/stm32l4xx_hal_sd.c **** }
 1662              		.loc 1 1145 1
 1663 02fe 1846     		mov	r0, r3
 1664 0300 4837     		adds	r7, r7, #72
 1665              		.cfi_def_cfa_offset 8
 1666 0302 BD46     		mov	sp, r7
 1667              		.cfi_def_cfa_register 13
 1668              		@ sp needed
 1669 0304 80BD     		pop	{r7, pc}
 1670              	.L72:
 1671 0306 00BF     		.align	2
 1672              	.L71:
 1673 0308 FF054000 		.word	4195839
 1674              		.cfi_endproc
 1675              	.LFE451:
 1677              		.section	.text.HAL_SD_ReadBlocks_IT,"ax",%progbits
 1678              		.align	1
 1679              		.global	HAL_SD_ReadBlocks_IT
 1680              		.syntax unified
 1681              		.thumb
 1682              		.thumb_func
 1684              	HAL_SD_ReadBlocks_IT:
 1685              	.LFB452:
1146:Drivers/STM32L4xx_HAL_Driver/Src/stm32l4xx_hal_sd.c **** 
1147:Drivers/STM32L4xx_HAL_Driver/Src/stm32l4xx_hal_sd.c **** /**
1148:Drivers/STM32L4xx_HAL_Driver/Src/stm32l4xx_hal_sd.c ****   * @brief  Reads block(s) from a specified address in a card. The Data transfer
1149:Drivers/STM32L4xx_HAL_Driver/Src/stm32l4xx_hal_sd.c ****   *         is managed in interrupt mode.
1150:Drivers/STM32L4xx_HAL_Driver/Src/stm32l4xx_hal_sd.c ****   * @note   This API should be followed by a check on the card state through
1151:Drivers/STM32L4xx_HAL_Driver/Src/stm32l4xx_hal_sd.c ****   *         HAL_SD_GetCardState().
1152:Drivers/STM32L4xx_HAL_Driver/Src/stm32l4xx_hal_sd.c ****   * @note   You could also check the IT transfer process through the SD Rx
1153:Drivers/STM32L4xx_HAL_Driver/Src/stm32l4xx_hal_sd.c ****   *         interrupt event.
1154:Drivers/STM32L4xx_HAL_Driver/Src/stm32l4xx_hal_sd.c ****   * @param  hsd: Pointer to SD handle
1155:Drivers/STM32L4xx_HAL_Driver/Src/stm32l4xx_hal_sd.c ****   * @param  pData: Pointer to the buffer that will contain the received data
1156:Drivers/STM32L4xx_HAL_Driver/Src/stm32l4xx_hal_sd.c ****   * @param  BlockAdd: Block Address from where data is to be read
1157:Drivers/STM32L4xx_HAL_Driver/Src/stm32l4xx_hal_sd.c ****   * @param  NumberOfBlocks: Number of blocks to read.
1158:Drivers/STM32L4xx_HAL_Driver/Src/stm32l4xx_hal_sd.c ****   * @retval HAL status
1159:Drivers/STM32L4xx_HAL_Driver/Src/stm32l4xx_hal_sd.c ****   */
1160:Drivers/STM32L4xx_HAL_Driver/Src/stm32l4xx_hal_sd.c **** HAL_StatusTypeDef HAL_SD_ReadBlocks_IT(SD_HandleTypeDef *hsd, uint8_t *pData, uint32_t BlockAdd,
1161:Drivers/STM32L4xx_HAL_Driver/Src/stm32l4xx_hal_sd.c ****                                        uint32_t NumberOfBlocks)
1162:Drivers/STM32L4xx_HAL_Driver/Src/stm32l4xx_hal_sd.c **** {
 1686              		.loc 1 1162 1
 1687              		.cfi_startproc
 1688              		@ args = 0, pretend = 0, frame = 48
 1689              		@ frame_needed = 1, uses_anonymous_args = 0
 1690 0000 80B5     		push	{r7, lr}
 1691              		.cfi_def_cfa_offset 8
 1692              		.cfi_offset 7, -8
 1693              		.cfi_offset 14, -4
ARM GAS  /tmp/ccsLb3N5.s 			page 51


 1694 0002 8CB0     		sub	sp, sp, #48
 1695              		.cfi_def_cfa_offset 56
 1696 0004 00AF     		add	r7, sp, #0
 1697              		.cfi_def_cfa_register 7
 1698 0006 F860     		str	r0, [r7, #12]
 1699 0008 B960     		str	r1, [r7, #8]
 1700 000a 7A60     		str	r2, [r7, #4]
 1701 000c 3B60     		str	r3, [r7]
1163:Drivers/STM32L4xx_HAL_Driver/Src/stm32l4xx_hal_sd.c ****   SDMMC_DataInitTypeDef config;
1164:Drivers/STM32L4xx_HAL_Driver/Src/stm32l4xx_hal_sd.c ****   uint32_t errorstate;
1165:Drivers/STM32L4xx_HAL_Driver/Src/stm32l4xx_hal_sd.c ****   uint32_t add = BlockAdd;
 1702              		.loc 1 1165 12
 1703 000e 7B68     		ldr	r3, [r7, #4]
 1704 0010 BB62     		str	r3, [r7, #40]
1166:Drivers/STM32L4xx_HAL_Driver/Src/stm32l4xx_hal_sd.c **** 
1167:Drivers/STM32L4xx_HAL_Driver/Src/stm32l4xx_hal_sd.c ****   if (NULL == pData)
 1705              		.loc 1 1167 6
 1706 0012 BB68     		ldr	r3, [r7, #8]
 1707 0014 002B     		cmp	r3, #0
 1708 0016 07D1     		bne	.L74
1168:Drivers/STM32L4xx_HAL_Driver/Src/stm32l4xx_hal_sd.c ****   {
1169:Drivers/STM32L4xx_HAL_Driver/Src/stm32l4xx_hal_sd.c ****     hsd->ErrorCode |= HAL_SD_ERROR_PARAM;
 1709              		.loc 1 1169 8
 1710 0018 FB68     		ldr	r3, [r7, #12]
 1711 001a 9B6B     		ldr	r3, [r3, #56]
 1712              		.loc 1 1169 20
 1713 001c 43F00062 		orr	r2, r3, #134217728
 1714 0020 FB68     		ldr	r3, [r7, #12]
 1715 0022 9A63     		str	r2, [r3, #56]
1170:Drivers/STM32L4xx_HAL_Driver/Src/stm32l4xx_hal_sd.c ****     return HAL_ERROR;
 1716              		.loc 1 1170 12
 1717 0024 0123     		movs	r3, #1
 1718 0026 7EE0     		b	.L82
 1719              	.L74:
1171:Drivers/STM32L4xx_HAL_Driver/Src/stm32l4xx_hal_sd.c ****   }
1172:Drivers/STM32L4xx_HAL_Driver/Src/stm32l4xx_hal_sd.c **** 
1173:Drivers/STM32L4xx_HAL_Driver/Src/stm32l4xx_hal_sd.c ****   if (hsd->State == HAL_SD_STATE_READY)
 1720              		.loc 1 1173 10
 1721 0028 FB68     		ldr	r3, [r7, #12]
 1722 002a 93F83430 		ldrb	r3, [r3, #52]
 1723 002e DBB2     		uxtb	r3, r3
 1724              		.loc 1 1173 6
 1725 0030 012B     		cmp	r3, #1
 1726 0032 77D1     		bne	.L76
1174:Drivers/STM32L4xx_HAL_Driver/Src/stm32l4xx_hal_sd.c ****   {
1175:Drivers/STM32L4xx_HAL_Driver/Src/stm32l4xx_hal_sd.c ****     hsd->ErrorCode = HAL_SD_ERROR_NONE;
 1727              		.loc 1 1175 20
 1728 0034 FB68     		ldr	r3, [r7, #12]
 1729 0036 0022     		movs	r2, #0
 1730 0038 9A63     		str	r2, [r3, #56]
1176:Drivers/STM32L4xx_HAL_Driver/Src/stm32l4xx_hal_sd.c **** 
1177:Drivers/STM32L4xx_HAL_Driver/Src/stm32l4xx_hal_sd.c ****     if ((add + NumberOfBlocks) > (hsd->SdCard.LogBlockNbr))
 1731              		.loc 1 1177 14
 1732 003a BA6A     		ldr	r2, [r7, #40]
 1733 003c 3B68     		ldr	r3, [r7]
 1734 003e 1A44     		add	r2, r2, r3
 1735              		.loc 1 1177 46
ARM GAS  /tmp/ccsLb3N5.s 			page 52


 1736 0040 FB68     		ldr	r3, [r7, #12]
 1737 0042 DB6D     		ldr	r3, [r3, #92]
 1738              		.loc 1 1177 8
 1739 0044 9A42     		cmp	r2, r3
 1740 0046 07D9     		bls	.L77
1178:Drivers/STM32L4xx_HAL_Driver/Src/stm32l4xx_hal_sd.c ****     {
1179:Drivers/STM32L4xx_HAL_Driver/Src/stm32l4xx_hal_sd.c ****       hsd->ErrorCode |= HAL_SD_ERROR_ADDR_OUT_OF_RANGE;
 1741              		.loc 1 1179 10
 1742 0048 FB68     		ldr	r3, [r7, #12]
 1743 004a 9B6B     		ldr	r3, [r3, #56]
 1744              		.loc 1 1179 22
 1745 004c 43F00072 		orr	r2, r3, #33554432
 1746 0050 FB68     		ldr	r3, [r7, #12]
 1747 0052 9A63     		str	r2, [r3, #56]
1180:Drivers/STM32L4xx_HAL_Driver/Src/stm32l4xx_hal_sd.c ****       return HAL_ERROR;
 1748              		.loc 1 1180 14
 1749 0054 0123     		movs	r3, #1
 1750 0056 66E0     		b	.L82
 1751              	.L77:
1181:Drivers/STM32L4xx_HAL_Driver/Src/stm32l4xx_hal_sd.c ****     }
1182:Drivers/STM32L4xx_HAL_Driver/Src/stm32l4xx_hal_sd.c **** 
1183:Drivers/STM32L4xx_HAL_Driver/Src/stm32l4xx_hal_sd.c ****     hsd->State = HAL_SD_STATE_BUSY;
 1752              		.loc 1 1183 16
 1753 0058 FB68     		ldr	r3, [r7, #12]
 1754 005a 0322     		movs	r2, #3
 1755 005c 83F83420 		strb	r2, [r3, #52]
1184:Drivers/STM32L4xx_HAL_Driver/Src/stm32l4xx_hal_sd.c **** 
1185:Drivers/STM32L4xx_HAL_Driver/Src/stm32l4xx_hal_sd.c ****     /* Initialize data control register */
1186:Drivers/STM32L4xx_HAL_Driver/Src/stm32l4xx_hal_sd.c ****     hsd->Instance->DCTRL = 0U;
 1756              		.loc 1 1186 8
 1757 0060 FB68     		ldr	r3, [r7, #12]
 1758 0062 1B68     		ldr	r3, [r3]
 1759              		.loc 1 1186 26
 1760 0064 0022     		movs	r2, #0
 1761 0066 DA62     		str	r2, [r3, #44]
1187:Drivers/STM32L4xx_HAL_Driver/Src/stm32l4xx_hal_sd.c **** 
1188:Drivers/STM32L4xx_HAL_Driver/Src/stm32l4xx_hal_sd.c ****     hsd->pRxBuffPtr = pData;
 1762              		.loc 1 1188 21
 1763 0068 FB68     		ldr	r3, [r7, #12]
 1764 006a BA68     		ldr	r2, [r7, #8]
 1765 006c 9A62     		str	r2, [r3, #40]
1189:Drivers/STM32L4xx_HAL_Driver/Src/stm32l4xx_hal_sd.c ****     hsd->RxXferSize = BLOCKSIZE * NumberOfBlocks;
 1766              		.loc 1 1189 33
 1767 006e 3B68     		ldr	r3, [r7]
 1768 0070 5A02     		lsls	r2, r3, #9
 1769              		.loc 1 1189 21
 1770 0072 FB68     		ldr	r3, [r7, #12]
 1771 0074 DA62     		str	r2, [r3, #44]
1190:Drivers/STM32L4xx_HAL_Driver/Src/stm32l4xx_hal_sd.c **** 
1191:Drivers/STM32L4xx_HAL_Driver/Src/stm32l4xx_hal_sd.c ****     if (hsd->SdCard.CardType != CARD_SDHC_SDXC)
 1772              		.loc 1 1191 20
 1773 0076 FB68     		ldr	r3, [r7, #12]
 1774 0078 5B6C     		ldr	r3, [r3, #68]
 1775              		.loc 1 1191 8
 1776 007a 012B     		cmp	r3, #1
 1777 007c 02D0     		beq	.L78
1192:Drivers/STM32L4xx_HAL_Driver/Src/stm32l4xx_hal_sd.c ****     {
ARM GAS  /tmp/ccsLb3N5.s 			page 53


1193:Drivers/STM32L4xx_HAL_Driver/Src/stm32l4xx_hal_sd.c ****       add *= BLOCKSIZE;
 1778              		.loc 1 1193 11
 1779 007e BB6A     		ldr	r3, [r7, #40]
 1780 0080 5B02     		lsls	r3, r3, #9
 1781 0082 BB62     		str	r3, [r7, #40]
 1782              	.L78:
1194:Drivers/STM32L4xx_HAL_Driver/Src/stm32l4xx_hal_sd.c ****     }
1195:Drivers/STM32L4xx_HAL_Driver/Src/stm32l4xx_hal_sd.c **** 
1196:Drivers/STM32L4xx_HAL_Driver/Src/stm32l4xx_hal_sd.c ****     /* Configure the SD DPSM (Data Path State Machine) */
1197:Drivers/STM32L4xx_HAL_Driver/Src/stm32l4xx_hal_sd.c ****     config.DataTimeOut   = SDMMC_DATATIMEOUT;
 1783              		.loc 1 1197 26
 1784 0084 4FF0FF33 		mov	r3, #-1
 1785 0088 3B61     		str	r3, [r7, #16]
1198:Drivers/STM32L4xx_HAL_Driver/Src/stm32l4xx_hal_sd.c ****     config.DataLength    = BLOCKSIZE * NumberOfBlocks;
 1786              		.loc 1 1198 38
 1787 008a 3B68     		ldr	r3, [r7]
 1788 008c 5B02     		lsls	r3, r3, #9
 1789              		.loc 1 1198 26
 1790 008e 7B61     		str	r3, [r7, #20]
1199:Drivers/STM32L4xx_HAL_Driver/Src/stm32l4xx_hal_sd.c ****     config.DataBlockSize = SDMMC_DATABLOCK_SIZE_512B;
 1791              		.loc 1 1199 26
 1792 0090 9023     		movs	r3, #144
 1793 0092 BB61     		str	r3, [r7, #24]
1200:Drivers/STM32L4xx_HAL_Driver/Src/stm32l4xx_hal_sd.c ****     config.TransferDir   = SDMMC_TRANSFER_DIR_TO_SDMMC;
 1794              		.loc 1 1200 26
 1795 0094 0223     		movs	r3, #2
 1796 0096 FB61     		str	r3, [r7, #28]
1201:Drivers/STM32L4xx_HAL_Driver/Src/stm32l4xx_hal_sd.c ****     config.TransferMode  = SDMMC_TRANSFER_MODE_BLOCK;
 1797              		.loc 1 1201 26
 1798 0098 0023     		movs	r3, #0
 1799 009a 3B62     		str	r3, [r7, #32]
1202:Drivers/STM32L4xx_HAL_Driver/Src/stm32l4xx_hal_sd.c **** #if defined(STM32L4P5xx) || defined(STM32L4Q5xx) || defined(STM32L4R5xx) || defined(STM32L4R7xx) ||
1203:Drivers/STM32L4xx_HAL_Driver/Src/stm32l4xx_hal_sd.c ****     config.DPSM          = SDMMC_DPSM_DISABLE;
1204:Drivers/STM32L4xx_HAL_Driver/Src/stm32l4xx_hal_sd.c **** #else
1205:Drivers/STM32L4xx_HAL_Driver/Src/stm32l4xx_hal_sd.c ****     config.DPSM          = SDMMC_DPSM_ENABLE;
 1800              		.loc 1 1205 26
 1801 009c 0123     		movs	r3, #1
 1802 009e 7B62     		str	r3, [r7, #36]
1206:Drivers/STM32L4xx_HAL_Driver/Src/stm32l4xx_hal_sd.c **** #endif /* STM32L4P5xx || STM32L4Q5xx || STM32L4R5xx || STM32L4R7xx || STM32L4R9xx \
1207:Drivers/STM32L4xx_HAL_Driver/Src/stm32l4xx_hal_sd.c ****           || STM32L4S5xx || STM32L4S7xx || STM32L4S9xx */
1208:Drivers/STM32L4xx_HAL_Driver/Src/stm32l4xx_hal_sd.c ****     (void)SDMMC_ConfigData(hsd->Instance, &config);
 1803              		.loc 1 1208 11
 1804 00a0 FB68     		ldr	r3, [r7, #12]
 1805 00a2 1B68     		ldr	r3, [r3]
 1806 00a4 07F11002 		add	r2, r7, #16
 1807 00a8 1146     		mov	r1, r2
 1808 00aa 1846     		mov	r0, r3
 1809 00ac FFF7FEFF 		bl	SDMMC_ConfigData
1209:Drivers/STM32L4xx_HAL_Driver/Src/stm32l4xx_hal_sd.c **** #if defined(STM32L4P5xx) || defined(STM32L4Q5xx) || defined(STM32L4R5xx) || defined(STM32L4R7xx) ||
1210:Drivers/STM32L4xx_HAL_Driver/Src/stm32l4xx_hal_sd.c ****     __SDMMC_CMDTRANS_ENABLE(hsd->Instance);
1211:Drivers/STM32L4xx_HAL_Driver/Src/stm32l4xx_hal_sd.c **** #endif /* STM32L4P5xx || STM32L4Q5xx || STM32L4R5xx || STM32L4R7xx || STM32L4R9xx \
1212:Drivers/STM32L4xx_HAL_Driver/Src/stm32l4xx_hal_sd.c ****           || STM32L4S5xx || STM32L4S7xx || STM32L4S9xx */
1213:Drivers/STM32L4xx_HAL_Driver/Src/stm32l4xx_hal_sd.c **** 
1214:Drivers/STM32L4xx_HAL_Driver/Src/stm32l4xx_hal_sd.c ****     /* Read Blocks in IT mode */
1215:Drivers/STM32L4xx_HAL_Driver/Src/stm32l4xx_hal_sd.c ****     if (NumberOfBlocks > 1U)
 1810              		.loc 1 1215 8
 1811 00b0 3B68     		ldr	r3, [r7]
ARM GAS  /tmp/ccsLb3N5.s 			page 54


 1812 00b2 012B     		cmp	r3, #1
 1813 00b4 0AD9     		bls	.L79
1216:Drivers/STM32L4xx_HAL_Driver/Src/stm32l4xx_hal_sd.c ****     {
1217:Drivers/STM32L4xx_HAL_Driver/Src/stm32l4xx_hal_sd.c ****       hsd->Context = (SD_CONTEXT_READ_MULTIPLE_BLOCK | SD_CONTEXT_IT);
 1814              		.loc 1 1217 20
 1815 00b6 FB68     		ldr	r3, [r7, #12]
 1816 00b8 0A22     		movs	r2, #10
 1817 00ba 1A63     		str	r2, [r3, #48]
1218:Drivers/STM32L4xx_HAL_Driver/Src/stm32l4xx_hal_sd.c **** 
1219:Drivers/STM32L4xx_HAL_Driver/Src/stm32l4xx_hal_sd.c ****       /* Read Multi Block command */
1220:Drivers/STM32L4xx_HAL_Driver/Src/stm32l4xx_hal_sd.c ****       errorstate = SDMMC_CmdReadMultiBlock(hsd->Instance, add);
 1818              		.loc 1 1220 20
 1819 00bc FB68     		ldr	r3, [r7, #12]
 1820 00be 1B68     		ldr	r3, [r3]
 1821 00c0 B96A     		ldr	r1, [r7, #40]
 1822 00c2 1846     		mov	r0, r3
 1823 00c4 FFF7FEFF 		bl	SDMMC_CmdReadMultiBlock
 1824 00c8 F862     		str	r0, [r7, #44]
 1825 00ca 09E0     		b	.L80
 1826              	.L79:
1221:Drivers/STM32L4xx_HAL_Driver/Src/stm32l4xx_hal_sd.c ****     }
1222:Drivers/STM32L4xx_HAL_Driver/Src/stm32l4xx_hal_sd.c ****     else
1223:Drivers/STM32L4xx_HAL_Driver/Src/stm32l4xx_hal_sd.c ****     {
1224:Drivers/STM32L4xx_HAL_Driver/Src/stm32l4xx_hal_sd.c ****       hsd->Context = (SD_CONTEXT_READ_SINGLE_BLOCK | SD_CONTEXT_IT);
 1827              		.loc 1 1224 20
 1828 00cc FB68     		ldr	r3, [r7, #12]
 1829 00ce 0922     		movs	r2, #9
 1830 00d0 1A63     		str	r2, [r3, #48]
1225:Drivers/STM32L4xx_HAL_Driver/Src/stm32l4xx_hal_sd.c **** 
1226:Drivers/STM32L4xx_HAL_Driver/Src/stm32l4xx_hal_sd.c ****       /* Read Single Block command */
1227:Drivers/STM32L4xx_HAL_Driver/Src/stm32l4xx_hal_sd.c ****       errorstate = SDMMC_CmdReadSingleBlock(hsd->Instance, add);
 1831              		.loc 1 1227 20
 1832 00d2 FB68     		ldr	r3, [r7, #12]
 1833 00d4 1B68     		ldr	r3, [r3]
 1834 00d6 B96A     		ldr	r1, [r7, #40]
 1835 00d8 1846     		mov	r0, r3
 1836 00da FFF7FEFF 		bl	SDMMC_CmdReadSingleBlock
 1837 00de F862     		str	r0, [r7, #44]
 1838              	.L80:
1228:Drivers/STM32L4xx_HAL_Driver/Src/stm32l4xx_hal_sd.c ****     }
1229:Drivers/STM32L4xx_HAL_Driver/Src/stm32l4xx_hal_sd.c ****     if (errorstate != HAL_SD_ERROR_NONE)
 1839              		.loc 1 1229 8
 1840 00e0 FB6A     		ldr	r3, [r7, #44]
 1841 00e2 002B     		cmp	r3, #0
 1842 00e4 12D0     		beq	.L81
1230:Drivers/STM32L4xx_HAL_Driver/Src/stm32l4xx_hal_sd.c ****     {
1231:Drivers/STM32L4xx_HAL_Driver/Src/stm32l4xx_hal_sd.c ****       /* Clear all the static flags */
1232:Drivers/STM32L4xx_HAL_Driver/Src/stm32l4xx_hal_sd.c ****       __HAL_SD_CLEAR_FLAG(hsd, SDMMC_STATIC_FLAGS);
 1843              		.loc 1 1232 7
 1844 00e6 FB68     		ldr	r3, [r7, #12]
 1845 00e8 1B68     		ldr	r3, [r3]
 1846 00ea 114A     		ldr	r2, .L83
 1847 00ec 9A63     		str	r2, [r3, #56]
1233:Drivers/STM32L4xx_HAL_Driver/Src/stm32l4xx_hal_sd.c ****       hsd->ErrorCode |= errorstate;
 1848              		.loc 1 1233 10
 1849 00ee FB68     		ldr	r3, [r7, #12]
 1850 00f0 9A6B     		ldr	r2, [r3, #56]
ARM GAS  /tmp/ccsLb3N5.s 			page 55


 1851              		.loc 1 1233 22
 1852 00f2 FB6A     		ldr	r3, [r7, #44]
 1853 00f4 1A43     		orrs	r2, r2, r3
 1854 00f6 FB68     		ldr	r3, [r7, #12]
 1855 00f8 9A63     		str	r2, [r3, #56]
1234:Drivers/STM32L4xx_HAL_Driver/Src/stm32l4xx_hal_sd.c ****       hsd->State = HAL_SD_STATE_READY;
 1856              		.loc 1 1234 18
 1857 00fa FB68     		ldr	r3, [r7, #12]
 1858 00fc 0122     		movs	r2, #1
 1859 00fe 83F83420 		strb	r2, [r3, #52]
1235:Drivers/STM32L4xx_HAL_Driver/Src/stm32l4xx_hal_sd.c ****       hsd->Context = SD_CONTEXT_NONE;
 1860              		.loc 1 1235 20
 1861 0102 FB68     		ldr	r3, [r7, #12]
 1862 0104 0022     		movs	r2, #0
 1863 0106 1A63     		str	r2, [r3, #48]
1236:Drivers/STM32L4xx_HAL_Driver/Src/stm32l4xx_hal_sd.c ****       return HAL_ERROR;
 1864              		.loc 1 1236 14
 1865 0108 0123     		movs	r3, #1
 1866 010a 0CE0     		b	.L82
 1867              	.L81:
1237:Drivers/STM32L4xx_HAL_Driver/Src/stm32l4xx_hal_sd.c ****     }
1238:Drivers/STM32L4xx_HAL_Driver/Src/stm32l4xx_hal_sd.c **** 
1239:Drivers/STM32L4xx_HAL_Driver/Src/stm32l4xx_hal_sd.c ****     /* Enable transfer interrupts */
1240:Drivers/STM32L4xx_HAL_Driver/Src/stm32l4xx_hal_sd.c ****     __HAL_SD_ENABLE_IT(hsd, (SDMMC_IT_DCRCFAIL | SDMMC_IT_DTIMEOUT | SDMMC_IT_RXOVERR |
 1868              		.loc 1 1240 5
 1869 010c FB68     		ldr	r3, [r7, #12]
 1870 010e 1B68     		ldr	r3, [r3]
 1871 0110 DB6B     		ldr	r3, [r3, #60]
 1872 0112 FA68     		ldr	r2, [r7, #12]
 1873 0114 1268     		ldr	r2, [r2]
 1874 0116 43F40143 		orr	r3, r3, #33024
 1875 011a 43F02A03 		orr	r3, r3, #42
 1876 011e D363     		str	r3, [r2, #60]
1241:Drivers/STM32L4xx_HAL_Driver/Src/stm32l4xx_hal_sd.c ****                              SDMMC_IT_DATAEND | SDMMC_FLAG_RXFIFOHF));
1242:Drivers/STM32L4xx_HAL_Driver/Src/stm32l4xx_hal_sd.c **** 
1243:Drivers/STM32L4xx_HAL_Driver/Src/stm32l4xx_hal_sd.c ****     return HAL_OK;
 1877              		.loc 1 1243 12
 1878 0120 0023     		movs	r3, #0
 1879 0122 00E0     		b	.L82
 1880              	.L76:
1244:Drivers/STM32L4xx_HAL_Driver/Src/stm32l4xx_hal_sd.c ****   }
1245:Drivers/STM32L4xx_HAL_Driver/Src/stm32l4xx_hal_sd.c ****   else
1246:Drivers/STM32L4xx_HAL_Driver/Src/stm32l4xx_hal_sd.c ****   {
1247:Drivers/STM32L4xx_HAL_Driver/Src/stm32l4xx_hal_sd.c ****     return HAL_BUSY;
 1881              		.loc 1 1247 12
 1882 0124 0223     		movs	r3, #2
 1883              	.L82:
1248:Drivers/STM32L4xx_HAL_Driver/Src/stm32l4xx_hal_sd.c ****   }
1249:Drivers/STM32L4xx_HAL_Driver/Src/stm32l4xx_hal_sd.c **** }
 1884              		.loc 1 1249 1
 1885 0126 1846     		mov	r0, r3
 1886 0128 3037     		adds	r7, r7, #48
 1887              		.cfi_def_cfa_offset 8
 1888 012a BD46     		mov	sp, r7
 1889              		.cfi_def_cfa_register 13
 1890              		@ sp needed
 1891 012c 80BD     		pop	{r7, pc}
ARM GAS  /tmp/ccsLb3N5.s 			page 56


 1892              	.L84:
 1893 012e 00BF     		.align	2
 1894              	.L83:
 1895 0130 FF054000 		.word	4195839
 1896              		.cfi_endproc
 1897              	.LFE452:
 1899              		.section	.text.HAL_SD_WriteBlocks_IT,"ax",%progbits
 1900              		.align	1
 1901              		.global	HAL_SD_WriteBlocks_IT
 1902              		.syntax unified
 1903              		.thumb
 1904              		.thumb_func
 1906              	HAL_SD_WriteBlocks_IT:
 1907              	.LFB453:
1250:Drivers/STM32L4xx_HAL_Driver/Src/stm32l4xx_hal_sd.c **** 
1251:Drivers/STM32L4xx_HAL_Driver/Src/stm32l4xx_hal_sd.c **** /**
1252:Drivers/STM32L4xx_HAL_Driver/Src/stm32l4xx_hal_sd.c ****   * @brief  Writes block(s) to a specified address in a card. The Data transfer
1253:Drivers/STM32L4xx_HAL_Driver/Src/stm32l4xx_hal_sd.c ****   *         is managed in interrupt mode.
1254:Drivers/STM32L4xx_HAL_Driver/Src/stm32l4xx_hal_sd.c ****   * @note   This API should be followed by a check on the card state through
1255:Drivers/STM32L4xx_HAL_Driver/Src/stm32l4xx_hal_sd.c ****   *         HAL_SD_GetCardState().
1256:Drivers/STM32L4xx_HAL_Driver/Src/stm32l4xx_hal_sd.c ****   * @note   You could also check the IT transfer process through the SD Tx
1257:Drivers/STM32L4xx_HAL_Driver/Src/stm32l4xx_hal_sd.c ****   *         interrupt event.
1258:Drivers/STM32L4xx_HAL_Driver/Src/stm32l4xx_hal_sd.c ****   * @param  hsd: Pointer to SD handle
1259:Drivers/STM32L4xx_HAL_Driver/Src/stm32l4xx_hal_sd.c ****   * @param  pData: Pointer to the buffer that will contain the data to transmit
1260:Drivers/STM32L4xx_HAL_Driver/Src/stm32l4xx_hal_sd.c ****   * @param  BlockAdd: Block Address where data will be written
1261:Drivers/STM32L4xx_HAL_Driver/Src/stm32l4xx_hal_sd.c ****   * @param  NumberOfBlocks: Number of blocks to write
1262:Drivers/STM32L4xx_HAL_Driver/Src/stm32l4xx_hal_sd.c ****   * @retval HAL status
1263:Drivers/STM32L4xx_HAL_Driver/Src/stm32l4xx_hal_sd.c ****   */
1264:Drivers/STM32L4xx_HAL_Driver/Src/stm32l4xx_hal_sd.c **** HAL_StatusTypeDef HAL_SD_WriteBlocks_IT(SD_HandleTypeDef *hsd, uint8_t *pData, uint32_t BlockAdd,
1265:Drivers/STM32L4xx_HAL_Driver/Src/stm32l4xx_hal_sd.c ****                                         uint32_t NumberOfBlocks)
1266:Drivers/STM32L4xx_HAL_Driver/Src/stm32l4xx_hal_sd.c **** {
 1908              		.loc 1 1266 1
 1909              		.cfi_startproc
 1910              		@ args = 0, pretend = 0, frame = 48
 1911              		@ frame_needed = 1, uses_anonymous_args = 0
 1912 0000 80B5     		push	{r7, lr}
 1913              		.cfi_def_cfa_offset 8
 1914              		.cfi_offset 7, -8
 1915              		.cfi_offset 14, -4
 1916 0002 8CB0     		sub	sp, sp, #48
 1917              		.cfi_def_cfa_offset 56
 1918 0004 00AF     		add	r7, sp, #0
 1919              		.cfi_def_cfa_register 7
 1920 0006 F860     		str	r0, [r7, #12]
 1921 0008 B960     		str	r1, [r7, #8]
 1922 000a 7A60     		str	r2, [r7, #4]
 1923 000c 3B60     		str	r3, [r7]
1267:Drivers/STM32L4xx_HAL_Driver/Src/stm32l4xx_hal_sd.c ****   SDMMC_DataInitTypeDef config;
1268:Drivers/STM32L4xx_HAL_Driver/Src/stm32l4xx_hal_sd.c ****   uint32_t errorstate;
1269:Drivers/STM32L4xx_HAL_Driver/Src/stm32l4xx_hal_sd.c ****   uint32_t add = BlockAdd;
 1924              		.loc 1 1269 12
 1925 000e 7B68     		ldr	r3, [r7, #4]
 1926 0010 BB62     		str	r3, [r7, #40]
1270:Drivers/STM32L4xx_HAL_Driver/Src/stm32l4xx_hal_sd.c **** 
1271:Drivers/STM32L4xx_HAL_Driver/Src/stm32l4xx_hal_sd.c ****   if (NULL == pData)
 1927              		.loc 1 1271 6
 1928 0012 BB68     		ldr	r3, [r7, #8]
ARM GAS  /tmp/ccsLb3N5.s 			page 57


 1929 0014 002B     		cmp	r3, #0
 1930 0016 07D1     		bne	.L86
1272:Drivers/STM32L4xx_HAL_Driver/Src/stm32l4xx_hal_sd.c ****   {
1273:Drivers/STM32L4xx_HAL_Driver/Src/stm32l4xx_hal_sd.c ****     hsd->ErrorCode |= HAL_SD_ERROR_PARAM;
 1931              		.loc 1 1273 8
 1932 0018 FB68     		ldr	r3, [r7, #12]
 1933 001a 9B6B     		ldr	r3, [r3, #56]
 1934              		.loc 1 1273 20
 1935 001c 43F00062 		orr	r2, r3, #134217728
 1936 0020 FB68     		ldr	r3, [r7, #12]
 1937 0022 9A63     		str	r2, [r3, #56]
1274:Drivers/STM32L4xx_HAL_Driver/Src/stm32l4xx_hal_sd.c ****     return HAL_ERROR;
 1938              		.loc 1 1274 12
 1939 0024 0123     		movs	r3, #1
 1940 0026 7EE0     		b	.L94
 1941              	.L86:
1275:Drivers/STM32L4xx_HAL_Driver/Src/stm32l4xx_hal_sd.c ****   }
1276:Drivers/STM32L4xx_HAL_Driver/Src/stm32l4xx_hal_sd.c **** 
1277:Drivers/STM32L4xx_HAL_Driver/Src/stm32l4xx_hal_sd.c ****   if (hsd->State == HAL_SD_STATE_READY)
 1942              		.loc 1 1277 10
 1943 0028 FB68     		ldr	r3, [r7, #12]
 1944 002a 93F83430 		ldrb	r3, [r3, #52]
 1945 002e DBB2     		uxtb	r3, r3
 1946              		.loc 1 1277 6
 1947 0030 012B     		cmp	r3, #1
 1948 0032 77D1     		bne	.L88
1278:Drivers/STM32L4xx_HAL_Driver/Src/stm32l4xx_hal_sd.c ****   {
1279:Drivers/STM32L4xx_HAL_Driver/Src/stm32l4xx_hal_sd.c ****     hsd->ErrorCode = HAL_SD_ERROR_NONE;
 1949              		.loc 1 1279 20
 1950 0034 FB68     		ldr	r3, [r7, #12]
 1951 0036 0022     		movs	r2, #0
 1952 0038 9A63     		str	r2, [r3, #56]
1280:Drivers/STM32L4xx_HAL_Driver/Src/stm32l4xx_hal_sd.c **** 
1281:Drivers/STM32L4xx_HAL_Driver/Src/stm32l4xx_hal_sd.c ****     if ((add + NumberOfBlocks) > (hsd->SdCard.LogBlockNbr))
 1953              		.loc 1 1281 14
 1954 003a BA6A     		ldr	r2, [r7, #40]
 1955 003c 3B68     		ldr	r3, [r7]
 1956 003e 1A44     		add	r2, r2, r3
 1957              		.loc 1 1281 46
 1958 0040 FB68     		ldr	r3, [r7, #12]
 1959 0042 DB6D     		ldr	r3, [r3, #92]
 1960              		.loc 1 1281 8
 1961 0044 9A42     		cmp	r2, r3
 1962 0046 07D9     		bls	.L89
1282:Drivers/STM32L4xx_HAL_Driver/Src/stm32l4xx_hal_sd.c ****     {
1283:Drivers/STM32L4xx_HAL_Driver/Src/stm32l4xx_hal_sd.c ****       hsd->ErrorCode |= HAL_SD_ERROR_ADDR_OUT_OF_RANGE;
 1963              		.loc 1 1283 10
 1964 0048 FB68     		ldr	r3, [r7, #12]
 1965 004a 9B6B     		ldr	r3, [r3, #56]
 1966              		.loc 1 1283 22
 1967 004c 43F00072 		orr	r2, r3, #33554432
 1968 0050 FB68     		ldr	r3, [r7, #12]
 1969 0052 9A63     		str	r2, [r3, #56]
1284:Drivers/STM32L4xx_HAL_Driver/Src/stm32l4xx_hal_sd.c ****       return HAL_ERROR;
 1970              		.loc 1 1284 14
 1971 0054 0123     		movs	r3, #1
 1972 0056 66E0     		b	.L94
ARM GAS  /tmp/ccsLb3N5.s 			page 58


 1973              	.L89:
1285:Drivers/STM32L4xx_HAL_Driver/Src/stm32l4xx_hal_sd.c ****     }
1286:Drivers/STM32L4xx_HAL_Driver/Src/stm32l4xx_hal_sd.c **** 
1287:Drivers/STM32L4xx_HAL_Driver/Src/stm32l4xx_hal_sd.c ****     hsd->State = HAL_SD_STATE_BUSY;
 1974              		.loc 1 1287 16
 1975 0058 FB68     		ldr	r3, [r7, #12]
 1976 005a 0322     		movs	r2, #3
 1977 005c 83F83420 		strb	r2, [r3, #52]
1288:Drivers/STM32L4xx_HAL_Driver/Src/stm32l4xx_hal_sd.c **** 
1289:Drivers/STM32L4xx_HAL_Driver/Src/stm32l4xx_hal_sd.c ****     /* Initialize data control register */
1290:Drivers/STM32L4xx_HAL_Driver/Src/stm32l4xx_hal_sd.c ****     hsd->Instance->DCTRL = 0U;
 1978              		.loc 1 1290 8
 1979 0060 FB68     		ldr	r3, [r7, #12]
 1980 0062 1B68     		ldr	r3, [r3]
 1981              		.loc 1 1290 26
 1982 0064 0022     		movs	r2, #0
 1983 0066 DA62     		str	r2, [r3, #44]
1291:Drivers/STM32L4xx_HAL_Driver/Src/stm32l4xx_hal_sd.c **** 
1292:Drivers/STM32L4xx_HAL_Driver/Src/stm32l4xx_hal_sd.c ****     hsd->pTxBuffPtr = pData;
 1984              		.loc 1 1292 21
 1985 0068 FB68     		ldr	r3, [r7, #12]
 1986 006a BA68     		ldr	r2, [r7, #8]
 1987 006c 1A62     		str	r2, [r3, #32]
1293:Drivers/STM32L4xx_HAL_Driver/Src/stm32l4xx_hal_sd.c ****     hsd->TxXferSize = BLOCKSIZE * NumberOfBlocks;
 1988              		.loc 1 1293 33
 1989 006e 3B68     		ldr	r3, [r7]
 1990 0070 5A02     		lsls	r2, r3, #9
 1991              		.loc 1 1293 21
 1992 0072 FB68     		ldr	r3, [r7, #12]
 1993 0074 5A62     		str	r2, [r3, #36]
1294:Drivers/STM32L4xx_HAL_Driver/Src/stm32l4xx_hal_sd.c **** 
1295:Drivers/STM32L4xx_HAL_Driver/Src/stm32l4xx_hal_sd.c ****     if (hsd->SdCard.CardType != CARD_SDHC_SDXC)
 1994              		.loc 1 1295 20
 1995 0076 FB68     		ldr	r3, [r7, #12]
 1996 0078 5B6C     		ldr	r3, [r3, #68]
 1997              		.loc 1 1295 8
 1998 007a 012B     		cmp	r3, #1
 1999 007c 02D0     		beq	.L90
1296:Drivers/STM32L4xx_HAL_Driver/Src/stm32l4xx_hal_sd.c ****     {
1297:Drivers/STM32L4xx_HAL_Driver/Src/stm32l4xx_hal_sd.c ****       add *= BLOCKSIZE;
 2000              		.loc 1 1297 11
 2001 007e BB6A     		ldr	r3, [r7, #40]
 2002 0080 5B02     		lsls	r3, r3, #9
 2003 0082 BB62     		str	r3, [r7, #40]
 2004              	.L90:
1298:Drivers/STM32L4xx_HAL_Driver/Src/stm32l4xx_hal_sd.c ****     }
1299:Drivers/STM32L4xx_HAL_Driver/Src/stm32l4xx_hal_sd.c **** 
1300:Drivers/STM32L4xx_HAL_Driver/Src/stm32l4xx_hal_sd.c **** #if defined(STM32L4P5xx) || defined(STM32L4Q5xx) || defined(STM32L4R5xx) || defined(STM32L4R7xx) ||
1301:Drivers/STM32L4xx_HAL_Driver/Src/stm32l4xx_hal_sd.c ****     /* Configure the SD DPSM (Data Path State Machine) */
1302:Drivers/STM32L4xx_HAL_Driver/Src/stm32l4xx_hal_sd.c ****     config.DataTimeOut   = SDMMC_DATATIMEOUT;
1303:Drivers/STM32L4xx_HAL_Driver/Src/stm32l4xx_hal_sd.c ****     config.DataLength    = BLOCKSIZE * NumberOfBlocks;
1304:Drivers/STM32L4xx_HAL_Driver/Src/stm32l4xx_hal_sd.c ****     config.DataBlockSize = SDMMC_DATABLOCK_SIZE_512B;
1305:Drivers/STM32L4xx_HAL_Driver/Src/stm32l4xx_hal_sd.c ****     config.TransferDir   = SDMMC_TRANSFER_DIR_TO_CARD;
1306:Drivers/STM32L4xx_HAL_Driver/Src/stm32l4xx_hal_sd.c ****     config.TransferMode  = SDMMC_TRANSFER_MODE_BLOCK;
1307:Drivers/STM32L4xx_HAL_Driver/Src/stm32l4xx_hal_sd.c ****     config.DPSM          = SDMMC_DPSM_DISABLE;
1308:Drivers/STM32L4xx_HAL_Driver/Src/stm32l4xx_hal_sd.c ****     (void)SDMMC_ConfigData(hsd->Instance, &config);
1309:Drivers/STM32L4xx_HAL_Driver/Src/stm32l4xx_hal_sd.c **** 
ARM GAS  /tmp/ccsLb3N5.s 			page 59


1310:Drivers/STM32L4xx_HAL_Driver/Src/stm32l4xx_hal_sd.c ****     __SDMMC_CMDTRANS_ENABLE(hsd->Instance);
1311:Drivers/STM32L4xx_HAL_Driver/Src/stm32l4xx_hal_sd.c **** #endif /* STM32L4P5xx || STM32L4Q5xx || STM32L4R5xx || STM32L4R7xx || STM32L4R9xx \
1312:Drivers/STM32L4xx_HAL_Driver/Src/stm32l4xx_hal_sd.c ****           || STM32L4S5xx || STM32L4S7xx || STM32L4S9xx */
1313:Drivers/STM32L4xx_HAL_Driver/Src/stm32l4xx_hal_sd.c **** 
1314:Drivers/STM32L4xx_HAL_Driver/Src/stm32l4xx_hal_sd.c ****     /* Write Blocks in Polling mode */
1315:Drivers/STM32L4xx_HAL_Driver/Src/stm32l4xx_hal_sd.c ****     if (NumberOfBlocks > 1U)
 2005              		.loc 1 1315 8
 2006 0084 3B68     		ldr	r3, [r7]
 2007 0086 012B     		cmp	r3, #1
 2008 0088 0AD9     		bls	.L91
1316:Drivers/STM32L4xx_HAL_Driver/Src/stm32l4xx_hal_sd.c ****     {
1317:Drivers/STM32L4xx_HAL_Driver/Src/stm32l4xx_hal_sd.c ****       hsd->Context = (SD_CONTEXT_WRITE_MULTIPLE_BLOCK | SD_CONTEXT_IT);
 2009              		.loc 1 1317 20
 2010 008a FB68     		ldr	r3, [r7, #12]
 2011 008c 2822     		movs	r2, #40
 2012 008e 1A63     		str	r2, [r3, #48]
1318:Drivers/STM32L4xx_HAL_Driver/Src/stm32l4xx_hal_sd.c **** 
1319:Drivers/STM32L4xx_HAL_Driver/Src/stm32l4xx_hal_sd.c ****       /* Write Multi Block command */
1320:Drivers/STM32L4xx_HAL_Driver/Src/stm32l4xx_hal_sd.c ****       errorstate = SDMMC_CmdWriteMultiBlock(hsd->Instance, add);
 2013              		.loc 1 1320 20
 2014 0090 FB68     		ldr	r3, [r7, #12]
 2015 0092 1B68     		ldr	r3, [r3]
 2016 0094 B96A     		ldr	r1, [r7, #40]
 2017 0096 1846     		mov	r0, r3
 2018 0098 FFF7FEFF 		bl	SDMMC_CmdWriteMultiBlock
 2019 009c F862     		str	r0, [r7, #44]
 2020 009e 09E0     		b	.L92
 2021              	.L91:
1321:Drivers/STM32L4xx_HAL_Driver/Src/stm32l4xx_hal_sd.c ****     }
1322:Drivers/STM32L4xx_HAL_Driver/Src/stm32l4xx_hal_sd.c ****     else
1323:Drivers/STM32L4xx_HAL_Driver/Src/stm32l4xx_hal_sd.c ****     {
1324:Drivers/STM32L4xx_HAL_Driver/Src/stm32l4xx_hal_sd.c ****       hsd->Context = (SD_CONTEXT_WRITE_SINGLE_BLOCK | SD_CONTEXT_IT);
 2022              		.loc 1 1324 20
 2023 00a0 FB68     		ldr	r3, [r7, #12]
 2024 00a2 1822     		movs	r2, #24
 2025 00a4 1A63     		str	r2, [r3, #48]
1325:Drivers/STM32L4xx_HAL_Driver/Src/stm32l4xx_hal_sd.c **** 
1326:Drivers/STM32L4xx_HAL_Driver/Src/stm32l4xx_hal_sd.c ****       /* Write Single Block command */
1327:Drivers/STM32L4xx_HAL_Driver/Src/stm32l4xx_hal_sd.c ****       errorstate = SDMMC_CmdWriteSingleBlock(hsd->Instance, add);
 2026              		.loc 1 1327 20
 2027 00a6 FB68     		ldr	r3, [r7, #12]
 2028 00a8 1B68     		ldr	r3, [r3]
 2029 00aa B96A     		ldr	r1, [r7, #40]
 2030 00ac 1846     		mov	r0, r3
 2031 00ae FFF7FEFF 		bl	SDMMC_CmdWriteSingleBlock
 2032 00b2 F862     		str	r0, [r7, #44]
 2033              	.L92:
1328:Drivers/STM32L4xx_HAL_Driver/Src/stm32l4xx_hal_sd.c ****     }
1329:Drivers/STM32L4xx_HAL_Driver/Src/stm32l4xx_hal_sd.c ****     if (errorstate != HAL_SD_ERROR_NONE)
 2034              		.loc 1 1329 8
 2035 00b4 FB6A     		ldr	r3, [r7, #44]
 2036 00b6 002B     		cmp	r3, #0
 2037 00b8 12D0     		beq	.L93
1330:Drivers/STM32L4xx_HAL_Driver/Src/stm32l4xx_hal_sd.c ****     {
1331:Drivers/STM32L4xx_HAL_Driver/Src/stm32l4xx_hal_sd.c ****       /* Clear all the static flags */
1332:Drivers/STM32L4xx_HAL_Driver/Src/stm32l4xx_hal_sd.c ****       __HAL_SD_CLEAR_FLAG(hsd, SDMMC_STATIC_FLAGS);
 2038              		.loc 1 1332 7
ARM GAS  /tmp/ccsLb3N5.s 			page 60


 2039 00ba FB68     		ldr	r3, [r7, #12]
 2040 00bc 1B68     		ldr	r3, [r3]
 2041 00be 1C4A     		ldr	r2, .L95
 2042 00c0 9A63     		str	r2, [r3, #56]
1333:Drivers/STM32L4xx_HAL_Driver/Src/stm32l4xx_hal_sd.c ****       hsd->ErrorCode |= errorstate;
 2043              		.loc 1 1333 10
 2044 00c2 FB68     		ldr	r3, [r7, #12]
 2045 00c4 9A6B     		ldr	r2, [r3, #56]
 2046              		.loc 1 1333 22
 2047 00c6 FB6A     		ldr	r3, [r7, #44]
 2048 00c8 1A43     		orrs	r2, r2, r3
 2049 00ca FB68     		ldr	r3, [r7, #12]
 2050 00cc 9A63     		str	r2, [r3, #56]
1334:Drivers/STM32L4xx_HAL_Driver/Src/stm32l4xx_hal_sd.c ****       hsd->State = HAL_SD_STATE_READY;
 2051              		.loc 1 1334 18
 2052 00ce FB68     		ldr	r3, [r7, #12]
 2053 00d0 0122     		movs	r2, #1
 2054 00d2 83F83420 		strb	r2, [r3, #52]
1335:Drivers/STM32L4xx_HAL_Driver/Src/stm32l4xx_hal_sd.c ****       hsd->Context = SD_CONTEXT_NONE;
 2055              		.loc 1 1335 20
 2056 00d6 FB68     		ldr	r3, [r7, #12]
 2057 00d8 0022     		movs	r2, #0
 2058 00da 1A63     		str	r2, [r3, #48]
1336:Drivers/STM32L4xx_HAL_Driver/Src/stm32l4xx_hal_sd.c ****       return HAL_ERROR;
 2059              		.loc 1 1336 14
 2060 00dc 0123     		movs	r3, #1
 2061 00de 22E0     		b	.L94
 2062              	.L93:
1337:Drivers/STM32L4xx_HAL_Driver/Src/stm32l4xx_hal_sd.c ****     }
1338:Drivers/STM32L4xx_HAL_Driver/Src/stm32l4xx_hal_sd.c **** 
1339:Drivers/STM32L4xx_HAL_Driver/Src/stm32l4xx_hal_sd.c **** #if !defined(STM32L4P5xx) && !defined(STM32L4Q5xx) && !defined(STM32L4R5xx) && !defined(STM32L4R7xx
1340:Drivers/STM32L4xx_HAL_Driver/Src/stm32l4xx_hal_sd.c ****     /* Configure the SD DPSM (Data Path State Machine) */
1341:Drivers/STM32L4xx_HAL_Driver/Src/stm32l4xx_hal_sd.c ****     config.DataTimeOut   = SDMMC_DATATIMEOUT;
 2063              		.loc 1 1341 26
 2064 00e0 4FF0FF33 		mov	r3, #-1
 2065 00e4 3B61     		str	r3, [r7, #16]
1342:Drivers/STM32L4xx_HAL_Driver/Src/stm32l4xx_hal_sd.c ****     config.DataLength    = BLOCKSIZE * NumberOfBlocks;
 2066              		.loc 1 1342 38
 2067 00e6 3B68     		ldr	r3, [r7]
 2068 00e8 5B02     		lsls	r3, r3, #9
 2069              		.loc 1 1342 26
 2070 00ea 7B61     		str	r3, [r7, #20]
1343:Drivers/STM32L4xx_HAL_Driver/Src/stm32l4xx_hal_sd.c ****     config.DataBlockSize = SDMMC_DATABLOCK_SIZE_512B;
 2071              		.loc 1 1343 26
 2072 00ec 9023     		movs	r3, #144
 2073 00ee BB61     		str	r3, [r7, #24]
1344:Drivers/STM32L4xx_HAL_Driver/Src/stm32l4xx_hal_sd.c ****     config.TransferDir   = SDMMC_TRANSFER_DIR_TO_CARD;
 2074              		.loc 1 1344 26
 2075 00f0 0023     		movs	r3, #0
 2076 00f2 FB61     		str	r3, [r7, #28]
1345:Drivers/STM32L4xx_HAL_Driver/Src/stm32l4xx_hal_sd.c ****     config.TransferMode  = SDMMC_TRANSFER_MODE_BLOCK;
 2077              		.loc 1 1345 26
 2078 00f4 0023     		movs	r3, #0
 2079 00f6 3B62     		str	r3, [r7, #32]
1346:Drivers/STM32L4xx_HAL_Driver/Src/stm32l4xx_hal_sd.c ****     config.DPSM          = SDMMC_DPSM_ENABLE;
 2080              		.loc 1 1346 26
 2081 00f8 0123     		movs	r3, #1
ARM GAS  /tmp/ccsLb3N5.s 			page 61


 2082 00fa 7B62     		str	r3, [r7, #36]
1347:Drivers/STM32L4xx_HAL_Driver/Src/stm32l4xx_hal_sd.c ****     (void)SDMMC_ConfigData(hsd->Instance, &config);
 2083              		.loc 1 1347 11
 2084 00fc FB68     		ldr	r3, [r7, #12]
 2085 00fe 1B68     		ldr	r3, [r3]
 2086 0100 07F11002 		add	r2, r7, #16
 2087 0104 1146     		mov	r1, r2
 2088 0106 1846     		mov	r0, r3
 2089 0108 FFF7FEFF 		bl	SDMMC_ConfigData
1348:Drivers/STM32L4xx_HAL_Driver/Src/stm32l4xx_hal_sd.c **** #endif /* !STM32L4P5xx && !STM32L4Q5xx && !STM32L4R5xx && !STM32L4R7xx && !STM32L4R9xx \
1349:Drivers/STM32L4xx_HAL_Driver/Src/stm32l4xx_hal_sd.c ****           && !STM32L4S5xx && !STM32L4S7xx && !STM32L4S9xx */
1350:Drivers/STM32L4xx_HAL_Driver/Src/stm32l4xx_hal_sd.c **** 
1351:Drivers/STM32L4xx_HAL_Driver/Src/stm32l4xx_hal_sd.c ****     /* Enable transfer interrupts */
1352:Drivers/STM32L4xx_HAL_Driver/Src/stm32l4xx_hal_sd.c ****     __HAL_SD_ENABLE_IT(hsd, (SDMMC_IT_DCRCFAIL | SDMMC_IT_DTIMEOUT | SDMMC_IT_TXUNDERR |
 2090              		.loc 1 1352 5
 2091 010c FB68     		ldr	r3, [r7, #12]
 2092 010e 1B68     		ldr	r3, [r3]
 2093 0110 DB6B     		ldr	r3, [r3, #60]
 2094 0112 FA68     		ldr	r2, [r7, #12]
 2095 0114 1268     		ldr	r2, [r2]
 2096 0116 43F48243 		orr	r3, r3, #16640
 2097 011a 43F01A03 		orr	r3, r3, #26
 2098 011e D363     		str	r3, [r2, #60]
1353:Drivers/STM32L4xx_HAL_Driver/Src/stm32l4xx_hal_sd.c ****                              SDMMC_IT_DATAEND | SDMMC_FLAG_TXFIFOHE));
1354:Drivers/STM32L4xx_HAL_Driver/Src/stm32l4xx_hal_sd.c **** 
1355:Drivers/STM32L4xx_HAL_Driver/Src/stm32l4xx_hal_sd.c ****     return HAL_OK;
 2099              		.loc 1 1355 12
 2100 0120 0023     		movs	r3, #0
 2101 0122 00E0     		b	.L94
 2102              	.L88:
1356:Drivers/STM32L4xx_HAL_Driver/Src/stm32l4xx_hal_sd.c ****   }
1357:Drivers/STM32L4xx_HAL_Driver/Src/stm32l4xx_hal_sd.c ****   else
1358:Drivers/STM32L4xx_HAL_Driver/Src/stm32l4xx_hal_sd.c ****   {
1359:Drivers/STM32L4xx_HAL_Driver/Src/stm32l4xx_hal_sd.c ****     return HAL_BUSY;
 2103              		.loc 1 1359 12
 2104 0124 0223     		movs	r3, #2
 2105              	.L94:
1360:Drivers/STM32L4xx_HAL_Driver/Src/stm32l4xx_hal_sd.c ****   }
1361:Drivers/STM32L4xx_HAL_Driver/Src/stm32l4xx_hal_sd.c **** }
 2106              		.loc 1 1361 1
 2107 0126 1846     		mov	r0, r3
 2108 0128 3037     		adds	r7, r7, #48
 2109              		.cfi_def_cfa_offset 8
 2110 012a BD46     		mov	sp, r7
 2111              		.cfi_def_cfa_register 13
 2112              		@ sp needed
 2113 012c 80BD     		pop	{r7, pc}
 2114              	.L96:
 2115 012e 00BF     		.align	2
 2116              	.L95:
 2117 0130 FF054000 		.word	4195839
 2118              		.cfi_endproc
 2119              	.LFE453:
 2121              		.section	.text.HAL_SD_ReadBlocks_DMA,"ax",%progbits
 2122              		.align	1
 2123              		.global	HAL_SD_ReadBlocks_DMA
 2124              		.syntax unified
ARM GAS  /tmp/ccsLb3N5.s 			page 62


 2125              		.thumb
 2126              		.thumb_func
 2128              	HAL_SD_ReadBlocks_DMA:
 2129              	.LFB454:
1362:Drivers/STM32L4xx_HAL_Driver/Src/stm32l4xx_hal_sd.c **** 
1363:Drivers/STM32L4xx_HAL_Driver/Src/stm32l4xx_hal_sd.c **** /**
1364:Drivers/STM32L4xx_HAL_Driver/Src/stm32l4xx_hal_sd.c ****   * @brief  Reads block(s) from a specified address in a card. The Data transfer
1365:Drivers/STM32L4xx_HAL_Driver/Src/stm32l4xx_hal_sd.c ****   *         is managed by DMA mode.
1366:Drivers/STM32L4xx_HAL_Driver/Src/stm32l4xx_hal_sd.c ****   * @note   This API should be followed by a check on the card state through
1367:Drivers/STM32L4xx_HAL_Driver/Src/stm32l4xx_hal_sd.c ****   *         HAL_SD_GetCardState().
1368:Drivers/STM32L4xx_HAL_Driver/Src/stm32l4xx_hal_sd.c ****   * @note   You could also check the DMA transfer process through the SD Rx
1369:Drivers/STM32L4xx_HAL_Driver/Src/stm32l4xx_hal_sd.c ****   *         interrupt event.
1370:Drivers/STM32L4xx_HAL_Driver/Src/stm32l4xx_hal_sd.c ****   * @param  hsd: Pointer SD handle
1371:Drivers/STM32L4xx_HAL_Driver/Src/stm32l4xx_hal_sd.c ****   * @param  pData: Pointer to the buffer that will contain the received data
1372:Drivers/STM32L4xx_HAL_Driver/Src/stm32l4xx_hal_sd.c ****   * @param  BlockAdd: Block Address from where data is to be read
1373:Drivers/STM32L4xx_HAL_Driver/Src/stm32l4xx_hal_sd.c ****   * @param  NumberOfBlocks: Number of blocks to read.
1374:Drivers/STM32L4xx_HAL_Driver/Src/stm32l4xx_hal_sd.c ****   * @retval HAL status
1375:Drivers/STM32L4xx_HAL_Driver/Src/stm32l4xx_hal_sd.c ****   */
1376:Drivers/STM32L4xx_HAL_Driver/Src/stm32l4xx_hal_sd.c **** HAL_StatusTypeDef HAL_SD_ReadBlocks_DMA(SD_HandleTypeDef *hsd, uint8_t *pData, uint32_t BlockAdd,
1377:Drivers/STM32L4xx_HAL_Driver/Src/stm32l4xx_hal_sd.c ****                                         uint32_t NumberOfBlocks)
1378:Drivers/STM32L4xx_HAL_Driver/Src/stm32l4xx_hal_sd.c **** {
 2130              		.loc 1 1378 1
 2131              		.cfi_startproc
 2132              		@ args = 0, pretend = 0, frame = 48
 2133              		@ frame_needed = 1, uses_anonymous_args = 0
 2134 0000 80B5     		push	{r7, lr}
 2135              		.cfi_def_cfa_offset 8
 2136              		.cfi_offset 7, -8
 2137              		.cfi_offset 14, -4
 2138 0002 8CB0     		sub	sp, sp, #48
 2139              		.cfi_def_cfa_offset 56
 2140 0004 00AF     		add	r7, sp, #0
 2141              		.cfi_def_cfa_register 7
 2142 0006 F860     		str	r0, [r7, #12]
 2143 0008 B960     		str	r1, [r7, #8]
 2144 000a 7A60     		str	r2, [r7, #4]
 2145 000c 3B60     		str	r3, [r7]
1379:Drivers/STM32L4xx_HAL_Driver/Src/stm32l4xx_hal_sd.c ****   SDMMC_DataInitTypeDef config;
1380:Drivers/STM32L4xx_HAL_Driver/Src/stm32l4xx_hal_sd.c ****   uint32_t errorstate;
1381:Drivers/STM32L4xx_HAL_Driver/Src/stm32l4xx_hal_sd.c ****   uint32_t add = BlockAdd;
 2146              		.loc 1 1381 12
 2147 000e 7B68     		ldr	r3, [r7, #4]
 2148 0010 BB62     		str	r3, [r7, #40]
1382:Drivers/STM32L4xx_HAL_Driver/Src/stm32l4xx_hal_sd.c **** 
1383:Drivers/STM32L4xx_HAL_Driver/Src/stm32l4xx_hal_sd.c ****   if (NULL == pData)
 2149              		.loc 1 1383 6
 2150 0012 BB68     		ldr	r3, [r7, #8]
 2151 0014 002B     		cmp	r3, #0
 2152 0016 07D1     		bne	.L98
1384:Drivers/STM32L4xx_HAL_Driver/Src/stm32l4xx_hal_sd.c ****   {
1385:Drivers/STM32L4xx_HAL_Driver/Src/stm32l4xx_hal_sd.c ****     hsd->ErrorCode |= HAL_SD_ERROR_PARAM;
 2153              		.loc 1 1385 8
 2154 0018 FB68     		ldr	r3, [r7, #12]
 2155 001a 9B6B     		ldr	r3, [r3, #56]
 2156              		.loc 1 1385 20
 2157 001c 43F00062 		orr	r2, r3, #134217728
 2158 0020 FB68     		ldr	r3, [r7, #12]
ARM GAS  /tmp/ccsLb3N5.s 			page 63


 2159 0022 9A63     		str	r2, [r3, #56]
1386:Drivers/STM32L4xx_HAL_Driver/Src/stm32l4xx_hal_sd.c ****     return HAL_ERROR;
 2160              		.loc 1 1386 12
 2161 0024 0123     		movs	r3, #1
 2162 0026 BBE0     		b	.L107
 2163              	.L98:
1387:Drivers/STM32L4xx_HAL_Driver/Src/stm32l4xx_hal_sd.c ****   }
1388:Drivers/STM32L4xx_HAL_Driver/Src/stm32l4xx_hal_sd.c **** 
1389:Drivers/STM32L4xx_HAL_Driver/Src/stm32l4xx_hal_sd.c ****   if (hsd->State == HAL_SD_STATE_READY)
 2164              		.loc 1 1389 10
 2165 0028 FB68     		ldr	r3, [r7, #12]
 2166 002a 93F83430 		ldrb	r3, [r3, #52]
 2167 002e DBB2     		uxtb	r3, r3
 2168              		.loc 1 1389 6
 2169 0030 012B     		cmp	r3, #1
 2170 0032 40F0B480 		bne	.L100
1390:Drivers/STM32L4xx_HAL_Driver/Src/stm32l4xx_hal_sd.c ****   {
1391:Drivers/STM32L4xx_HAL_Driver/Src/stm32l4xx_hal_sd.c ****     hsd->ErrorCode = HAL_SD_ERROR_NONE;
 2171              		.loc 1 1391 20
 2172 0036 FB68     		ldr	r3, [r7, #12]
 2173 0038 0022     		movs	r2, #0
 2174 003a 9A63     		str	r2, [r3, #56]
1392:Drivers/STM32L4xx_HAL_Driver/Src/stm32l4xx_hal_sd.c **** 
1393:Drivers/STM32L4xx_HAL_Driver/Src/stm32l4xx_hal_sd.c ****     if ((add + NumberOfBlocks) > (hsd->SdCard.LogBlockNbr))
 2175              		.loc 1 1393 14
 2176 003c BA6A     		ldr	r2, [r7, #40]
 2177 003e 3B68     		ldr	r3, [r7]
 2178 0040 1A44     		add	r2, r2, r3
 2179              		.loc 1 1393 46
 2180 0042 FB68     		ldr	r3, [r7, #12]
 2181 0044 DB6D     		ldr	r3, [r3, #92]
 2182              		.loc 1 1393 8
 2183 0046 9A42     		cmp	r2, r3
 2184 0048 07D9     		bls	.L101
1394:Drivers/STM32L4xx_HAL_Driver/Src/stm32l4xx_hal_sd.c ****     {
1395:Drivers/STM32L4xx_HAL_Driver/Src/stm32l4xx_hal_sd.c ****       hsd->ErrorCode |= HAL_SD_ERROR_ADDR_OUT_OF_RANGE;
 2185              		.loc 1 1395 10
 2186 004a FB68     		ldr	r3, [r7, #12]
 2187 004c 9B6B     		ldr	r3, [r3, #56]
 2188              		.loc 1 1395 22
 2189 004e 43F00072 		orr	r2, r3, #33554432
 2190 0052 FB68     		ldr	r3, [r7, #12]
 2191 0054 9A63     		str	r2, [r3, #56]
1396:Drivers/STM32L4xx_HAL_Driver/Src/stm32l4xx_hal_sd.c ****       return HAL_ERROR;
 2192              		.loc 1 1396 14
 2193 0056 0123     		movs	r3, #1
 2194 0058 A2E0     		b	.L107
 2195              	.L101:
1397:Drivers/STM32L4xx_HAL_Driver/Src/stm32l4xx_hal_sd.c ****     }
1398:Drivers/STM32L4xx_HAL_Driver/Src/stm32l4xx_hal_sd.c **** 
1399:Drivers/STM32L4xx_HAL_Driver/Src/stm32l4xx_hal_sd.c ****     hsd->State = HAL_SD_STATE_BUSY;
 2196              		.loc 1 1399 16
 2197 005a FB68     		ldr	r3, [r7, #12]
 2198 005c 0322     		movs	r2, #3
 2199 005e 83F83420 		strb	r2, [r3, #52]
1400:Drivers/STM32L4xx_HAL_Driver/Src/stm32l4xx_hal_sd.c **** 
1401:Drivers/STM32L4xx_HAL_Driver/Src/stm32l4xx_hal_sd.c ****     /* Initialize data control register */
ARM GAS  /tmp/ccsLb3N5.s 			page 64


1402:Drivers/STM32L4xx_HAL_Driver/Src/stm32l4xx_hal_sd.c ****     hsd->Instance->DCTRL = 0U;
 2200              		.loc 1 1402 8
 2201 0062 FB68     		ldr	r3, [r7, #12]
 2202 0064 1B68     		ldr	r3, [r3]
 2203              		.loc 1 1402 26
 2204 0066 0022     		movs	r2, #0
 2205 0068 DA62     		str	r2, [r3, #44]
1403:Drivers/STM32L4xx_HAL_Driver/Src/stm32l4xx_hal_sd.c **** 
1404:Drivers/STM32L4xx_HAL_Driver/Src/stm32l4xx_hal_sd.c **** #if !defined(STM32L4P5xx) && !defined(STM32L4Q5xx) && !defined(STM32L4R5xx) && !defined(STM32L4R7xx
1405:Drivers/STM32L4xx_HAL_Driver/Src/stm32l4xx_hal_sd.c ****     /* Set the DMA transfer complete callback */
1406:Drivers/STM32L4xx_HAL_Driver/Src/stm32l4xx_hal_sd.c ****     hsd->hdmarx->XferCpltCallback = SD_DMAReceiveCplt;
 2206              		.loc 1 1406 8
 2207 006a FB68     		ldr	r3, [r7, #12]
 2208 006c 1B6C     		ldr	r3, [r3, #64]
 2209              		.loc 1 1406 35
 2210 006e 4E4A     		ldr	r2, .L108
 2211 0070 DA62     		str	r2, [r3, #44]
1407:Drivers/STM32L4xx_HAL_Driver/Src/stm32l4xx_hal_sd.c **** 
1408:Drivers/STM32L4xx_HAL_Driver/Src/stm32l4xx_hal_sd.c ****     /* Set the DMA error callback */
1409:Drivers/STM32L4xx_HAL_Driver/Src/stm32l4xx_hal_sd.c ****     hsd->hdmarx->XferErrorCallback = SD_DMAError;
 2212              		.loc 1 1409 8
 2213 0072 FB68     		ldr	r3, [r7, #12]
 2214 0074 1B6C     		ldr	r3, [r3, #64]
 2215              		.loc 1 1409 36
 2216 0076 4D4A     		ldr	r2, .L108+4
 2217 0078 5A63     		str	r2, [r3, #52]
1410:Drivers/STM32L4xx_HAL_Driver/Src/stm32l4xx_hal_sd.c **** 
1411:Drivers/STM32L4xx_HAL_Driver/Src/stm32l4xx_hal_sd.c ****     /* Set the DMA Abort callback */
1412:Drivers/STM32L4xx_HAL_Driver/Src/stm32l4xx_hal_sd.c ****     hsd->hdmarx->XferAbortCallback = NULL;
 2218              		.loc 1 1412 8
 2219 007a FB68     		ldr	r3, [r7, #12]
 2220 007c 1B6C     		ldr	r3, [r3, #64]
 2221              		.loc 1 1412 36
 2222 007e 0022     		movs	r2, #0
 2223 0080 9A63     		str	r2, [r3, #56]
1413:Drivers/STM32L4xx_HAL_Driver/Src/stm32l4xx_hal_sd.c **** 
1414:Drivers/STM32L4xx_HAL_Driver/Src/stm32l4xx_hal_sd.c ****     /* Force DMA Direction */
1415:Drivers/STM32L4xx_HAL_Driver/Src/stm32l4xx_hal_sd.c ****     hsd->hdmarx->Init.Direction = DMA_PERIPH_TO_MEMORY;
 2224              		.loc 1 1415 8
 2225 0082 FB68     		ldr	r3, [r7, #12]
 2226 0084 1B6C     		ldr	r3, [r3, #64]
 2227              		.loc 1 1415 33
 2228 0086 0022     		movs	r2, #0
 2229 0088 9A60     		str	r2, [r3, #8]
1416:Drivers/STM32L4xx_HAL_Driver/Src/stm32l4xx_hal_sd.c ****     MODIFY_REG(hsd->hdmarx->Instance->CCR, DMA_CCR_DIR, hsd->hdmarx->Init.Direction);
 2230              		.loc 1 1416 5
 2231 008a FB68     		ldr	r3, [r7, #12]
 2232 008c 1B6C     		ldr	r3, [r3, #64]
 2233 008e 1B68     		ldr	r3, [r3]
 2234 0090 1B68     		ldr	r3, [r3]
 2235 0092 23F01001 		bic	r1, r3, #16
 2236 0096 FB68     		ldr	r3, [r7, #12]
 2237 0098 1B6C     		ldr	r3, [r3, #64]
 2238 009a 9A68     		ldr	r2, [r3, #8]
 2239 009c FB68     		ldr	r3, [r7, #12]
 2240 009e 1B6C     		ldr	r3, [r3, #64]
 2241 00a0 1B68     		ldr	r3, [r3]
ARM GAS  /tmp/ccsLb3N5.s 			page 65


 2242 00a2 0A43     		orrs	r2, r2, r1
 2243 00a4 1A60     		str	r2, [r3]
1417:Drivers/STM32L4xx_HAL_Driver/Src/stm32l4xx_hal_sd.c **** 
1418:Drivers/STM32L4xx_HAL_Driver/Src/stm32l4xx_hal_sd.c ****     /* Enable the DMA Channel */
1419:Drivers/STM32L4xx_HAL_Driver/Src/stm32l4xx_hal_sd.c ****     if (HAL_DMA_Start_IT(hsd->hdmarx, (uint32_t)&hsd->Instance->FIFO, (uint32_t)pData,
 2244              		.loc 1 1419 9
 2245 00a6 FB68     		ldr	r3, [r7, #12]
 2246 00a8 186C     		ldr	r0, [r3, #64]
 2247              		.loc 1 1419 53
 2248 00aa FB68     		ldr	r3, [r7, #12]
 2249 00ac 1B68     		ldr	r3, [r3]
 2250              		.loc 1 1419 49
 2251 00ae 8033     		adds	r3, r3, #128
 2252              		.loc 1 1419 9
 2253 00b0 1946     		mov	r1, r3
 2254 00b2 BA68     		ldr	r2, [r7, #8]
1420:Drivers/STM32L4xx_HAL_Driver/Src/stm32l4xx_hal_sd.c ****                          (uint32_t)(BLOCKSIZE * NumberOfBlocks) / 4U) != HAL_OK)
 2255              		.loc 1 1420 26
 2256 00b4 3B68     		ldr	r3, [r7]
 2257 00b6 5B02     		lsls	r3, r3, #9
1419:Drivers/STM32L4xx_HAL_Driver/Src/stm32l4xx_hal_sd.c ****                          (uint32_t)(BLOCKSIZE * NumberOfBlocks) / 4U) != HAL_OK)
 2258              		.loc 1 1419 9
 2259 00b8 9B08     		lsrs	r3, r3, #2
 2260 00ba FFF7FEFF 		bl	HAL_DMA_Start_IT
 2261 00be 0346     		mov	r3, r0
1419:Drivers/STM32L4xx_HAL_Driver/Src/stm32l4xx_hal_sd.c ****                          (uint32_t)(BLOCKSIZE * NumberOfBlocks) / 4U) != HAL_OK)
 2262              		.loc 1 1419 8 discriminator 1
 2263 00c0 002B     		cmp	r3, #0
 2264 00c2 0FD0     		beq	.L102
1421:Drivers/STM32L4xx_HAL_Driver/Src/stm32l4xx_hal_sd.c ****     {
1422:Drivers/STM32L4xx_HAL_Driver/Src/stm32l4xx_hal_sd.c ****       __HAL_SD_CLEAR_FLAG(hsd, SDMMC_STATIC_FLAGS);
 2265              		.loc 1 1422 7
 2266 00c4 FB68     		ldr	r3, [r7, #12]
 2267 00c6 1B68     		ldr	r3, [r3]
 2268 00c8 394A     		ldr	r2, .L108+8
 2269 00ca 9A63     		str	r2, [r3, #56]
1423:Drivers/STM32L4xx_HAL_Driver/Src/stm32l4xx_hal_sd.c ****       hsd->ErrorCode |= HAL_SD_ERROR_DMA;
 2270              		.loc 1 1423 10
 2271 00cc FB68     		ldr	r3, [r7, #12]
 2272 00ce 9B6B     		ldr	r3, [r3, #56]
 2273              		.loc 1 1423 22
 2274 00d0 43F08042 		orr	r2, r3, #1073741824
 2275 00d4 FB68     		ldr	r3, [r7, #12]
 2276 00d6 9A63     		str	r2, [r3, #56]
1424:Drivers/STM32L4xx_HAL_Driver/Src/stm32l4xx_hal_sd.c ****       hsd->State = HAL_SD_STATE_READY;
 2277              		.loc 1 1424 18
 2278 00d8 FB68     		ldr	r3, [r7, #12]
 2279 00da 0122     		movs	r2, #1
 2280 00dc 83F83420 		strb	r2, [r3, #52]
1425:Drivers/STM32L4xx_HAL_Driver/Src/stm32l4xx_hal_sd.c ****       return HAL_ERROR;
 2281              		.loc 1 1425 14
 2282 00e0 0123     		movs	r3, #1
 2283 00e2 5DE0     		b	.L107
 2284              	.L102:
1426:Drivers/STM32L4xx_HAL_Driver/Src/stm32l4xx_hal_sd.c ****     }
1427:Drivers/STM32L4xx_HAL_Driver/Src/stm32l4xx_hal_sd.c ****     else
1428:Drivers/STM32L4xx_HAL_Driver/Src/stm32l4xx_hal_sd.c ****     {
ARM GAS  /tmp/ccsLb3N5.s 			page 66


1429:Drivers/STM32L4xx_HAL_Driver/Src/stm32l4xx_hal_sd.c ****       /* Enable SD DMA transfer */
1430:Drivers/STM32L4xx_HAL_Driver/Src/stm32l4xx_hal_sd.c ****       __HAL_SD_DMA_ENABLE(hsd);
 2285              		.loc 1 1430 7
 2286 00e4 FB68     		ldr	r3, [r7, #12]
 2287 00e6 1B68     		ldr	r3, [r3]
 2288 00e8 DA6A     		ldr	r2, [r3, #44]
 2289 00ea FB68     		ldr	r3, [r7, #12]
 2290 00ec 1B68     		ldr	r3, [r3]
 2291 00ee 42F00802 		orr	r2, r2, #8
 2292 00f2 DA62     		str	r2, [r3, #44]
1431:Drivers/STM32L4xx_HAL_Driver/Src/stm32l4xx_hal_sd.c **** #else
1432:Drivers/STM32L4xx_HAL_Driver/Src/stm32l4xx_hal_sd.c ****     hsd->pRxBuffPtr = pData;
1433:Drivers/STM32L4xx_HAL_Driver/Src/stm32l4xx_hal_sd.c ****     hsd->RxXferSize = BLOCKSIZE * NumberOfBlocks;
1434:Drivers/STM32L4xx_HAL_Driver/Src/stm32l4xx_hal_sd.c **** #endif /* !STM32L4P5xx && !STM32L4Q5xx && !STM32L4R5xx && !STM32L4R7xx && !STM32L4R9xx \
1435:Drivers/STM32L4xx_HAL_Driver/Src/stm32l4xx_hal_sd.c ****           && !STM32L4S5xx && !STM32L4S7xx && !STM32L4S9xx */
1436:Drivers/STM32L4xx_HAL_Driver/Src/stm32l4xx_hal_sd.c **** 
1437:Drivers/STM32L4xx_HAL_Driver/Src/stm32l4xx_hal_sd.c ****       if (hsd->SdCard.CardType != CARD_SDHC_SDXC)
 2293              		.loc 1 1437 22
 2294 00f4 FB68     		ldr	r3, [r7, #12]
 2295 00f6 5B6C     		ldr	r3, [r3, #68]
 2296              		.loc 1 1437 10
 2297 00f8 012B     		cmp	r3, #1
 2298 00fa 02D0     		beq	.L103
1438:Drivers/STM32L4xx_HAL_Driver/Src/stm32l4xx_hal_sd.c ****       {
1439:Drivers/STM32L4xx_HAL_Driver/Src/stm32l4xx_hal_sd.c ****         add *= BLOCKSIZE;
 2299              		.loc 1 1439 13
 2300 00fc BB6A     		ldr	r3, [r7, #40]
 2301 00fe 5B02     		lsls	r3, r3, #9
 2302 0100 BB62     		str	r3, [r7, #40]
 2303              	.L103:
1440:Drivers/STM32L4xx_HAL_Driver/Src/stm32l4xx_hal_sd.c ****       }
1441:Drivers/STM32L4xx_HAL_Driver/Src/stm32l4xx_hal_sd.c **** 
1442:Drivers/STM32L4xx_HAL_Driver/Src/stm32l4xx_hal_sd.c ****       /* Configure the SD DPSM (Data Path State Machine) */
1443:Drivers/STM32L4xx_HAL_Driver/Src/stm32l4xx_hal_sd.c ****       config.DataTimeOut   = SDMMC_DATATIMEOUT;
 2304              		.loc 1 1443 28
 2305 0102 4FF0FF33 		mov	r3, #-1
 2306 0106 3B61     		str	r3, [r7, #16]
1444:Drivers/STM32L4xx_HAL_Driver/Src/stm32l4xx_hal_sd.c ****       config.DataLength    = BLOCKSIZE * NumberOfBlocks;
 2307              		.loc 1 1444 40
 2308 0108 3B68     		ldr	r3, [r7]
 2309 010a 5B02     		lsls	r3, r3, #9
 2310              		.loc 1 1444 28
 2311 010c 7B61     		str	r3, [r7, #20]
1445:Drivers/STM32L4xx_HAL_Driver/Src/stm32l4xx_hal_sd.c ****       config.DataBlockSize = SDMMC_DATABLOCK_SIZE_512B;
 2312              		.loc 1 1445 28
 2313 010e 9023     		movs	r3, #144
 2314 0110 BB61     		str	r3, [r7, #24]
1446:Drivers/STM32L4xx_HAL_Driver/Src/stm32l4xx_hal_sd.c ****       config.TransferDir   = SDMMC_TRANSFER_DIR_TO_SDMMC;
 2315              		.loc 1 1446 28
 2316 0112 0223     		movs	r3, #2
 2317 0114 FB61     		str	r3, [r7, #28]
1447:Drivers/STM32L4xx_HAL_Driver/Src/stm32l4xx_hal_sd.c ****       config.TransferMode  = SDMMC_TRANSFER_MODE_BLOCK;
 2318              		.loc 1 1447 28
 2319 0116 0023     		movs	r3, #0
 2320 0118 3B62     		str	r3, [r7, #32]
1448:Drivers/STM32L4xx_HAL_Driver/Src/stm32l4xx_hal_sd.c **** #if defined(STM32L4P5xx) || defined(STM32L4Q5xx) || defined(STM32L4R5xx) || defined(STM32L4R7xx) ||
1449:Drivers/STM32L4xx_HAL_Driver/Src/stm32l4xx_hal_sd.c ****       config.DPSM          = SDMMC_DPSM_DISABLE;
ARM GAS  /tmp/ccsLb3N5.s 			page 67


1450:Drivers/STM32L4xx_HAL_Driver/Src/stm32l4xx_hal_sd.c **** #else
1451:Drivers/STM32L4xx_HAL_Driver/Src/stm32l4xx_hal_sd.c ****       config.DPSM          = SDMMC_DPSM_ENABLE;
 2321              		.loc 1 1451 28
 2322 011a 0123     		movs	r3, #1
 2323 011c 7B62     		str	r3, [r7, #36]
1452:Drivers/STM32L4xx_HAL_Driver/Src/stm32l4xx_hal_sd.c **** #endif /* STM32L4P5xx || STM32L4Q5xx || STM32L4R5xx || STM32L4R7xx || STM32L4R9xx \
1453:Drivers/STM32L4xx_HAL_Driver/Src/stm32l4xx_hal_sd.c ****           || STM32L4S5xx || STM32L4S7xx || STM32L4S9xx */
1454:Drivers/STM32L4xx_HAL_Driver/Src/stm32l4xx_hal_sd.c ****       (void)SDMMC_ConfigData(hsd->Instance, &config);
 2324              		.loc 1 1454 13
 2325 011e FB68     		ldr	r3, [r7, #12]
 2326 0120 1B68     		ldr	r3, [r3]
 2327 0122 07F11002 		add	r2, r7, #16
 2328 0126 1146     		mov	r1, r2
 2329 0128 1846     		mov	r0, r3
 2330 012a FFF7FEFF 		bl	SDMMC_ConfigData
1455:Drivers/STM32L4xx_HAL_Driver/Src/stm32l4xx_hal_sd.c **** 
1456:Drivers/STM32L4xx_HAL_Driver/Src/stm32l4xx_hal_sd.c **** #if defined(STM32L4P5xx) || defined(STM32L4Q5xx) || defined(STM32L4R5xx) || defined(STM32L4R7xx) ||
1457:Drivers/STM32L4xx_HAL_Driver/Src/stm32l4xx_hal_sd.c **** 
1458:Drivers/STM32L4xx_HAL_Driver/Src/stm32l4xx_hal_sd.c ****       __SDMMC_CMDTRANS_ENABLE(hsd->Instance);
1459:Drivers/STM32L4xx_HAL_Driver/Src/stm32l4xx_hal_sd.c ****       hsd->Instance->IDMABASE0 = (uint32_t) pData ;
1460:Drivers/STM32L4xx_HAL_Driver/Src/stm32l4xx_hal_sd.c ****       hsd->Instance->IDMACTRL  = SDMMC_ENABLE_IDMA_SINGLE_BUFF;
1461:Drivers/STM32L4xx_HAL_Driver/Src/stm32l4xx_hal_sd.c **** #endif /* STM32L4P5xx || STM32L4Q5xx || STM32L4R5xx || STM32L4R7xx || STM32L4R9xx \
1462:Drivers/STM32L4xx_HAL_Driver/Src/stm32l4xx_hal_sd.c ****           || STM32L4S5xx || STM32L4S7xx || STM32L4S9xx */
1463:Drivers/STM32L4xx_HAL_Driver/Src/stm32l4xx_hal_sd.c **** 
1464:Drivers/STM32L4xx_HAL_Driver/Src/stm32l4xx_hal_sd.c ****       /* Read Blocks in DMA mode */
1465:Drivers/STM32L4xx_HAL_Driver/Src/stm32l4xx_hal_sd.c ****       if (NumberOfBlocks > 1U)
 2331              		.loc 1 1465 10
 2332 012e 3B68     		ldr	r3, [r7]
 2333 0130 012B     		cmp	r3, #1
 2334 0132 0AD9     		bls	.L104
1466:Drivers/STM32L4xx_HAL_Driver/Src/stm32l4xx_hal_sd.c ****       {
1467:Drivers/STM32L4xx_HAL_Driver/Src/stm32l4xx_hal_sd.c ****         hsd->Context = (SD_CONTEXT_READ_MULTIPLE_BLOCK | SD_CONTEXT_DMA);
 2335              		.loc 1 1467 22
 2336 0134 FB68     		ldr	r3, [r7, #12]
 2337 0136 8222     		movs	r2, #130
 2338 0138 1A63     		str	r2, [r3, #48]
1468:Drivers/STM32L4xx_HAL_Driver/Src/stm32l4xx_hal_sd.c **** 
1469:Drivers/STM32L4xx_HAL_Driver/Src/stm32l4xx_hal_sd.c ****         /* Read Multi Block command */
1470:Drivers/STM32L4xx_HAL_Driver/Src/stm32l4xx_hal_sd.c ****         errorstate = SDMMC_CmdReadMultiBlock(hsd->Instance, add);
 2339              		.loc 1 1470 22
 2340 013a FB68     		ldr	r3, [r7, #12]
 2341 013c 1B68     		ldr	r3, [r3]
 2342 013e B96A     		ldr	r1, [r7, #40]
 2343 0140 1846     		mov	r0, r3
 2344 0142 FFF7FEFF 		bl	SDMMC_CmdReadMultiBlock
 2345 0146 F862     		str	r0, [r7, #44]
 2346 0148 09E0     		b	.L105
 2347              	.L104:
1471:Drivers/STM32L4xx_HAL_Driver/Src/stm32l4xx_hal_sd.c ****       }
1472:Drivers/STM32L4xx_HAL_Driver/Src/stm32l4xx_hal_sd.c ****       else
1473:Drivers/STM32L4xx_HAL_Driver/Src/stm32l4xx_hal_sd.c ****       {
1474:Drivers/STM32L4xx_HAL_Driver/Src/stm32l4xx_hal_sd.c ****         hsd->Context = (SD_CONTEXT_READ_SINGLE_BLOCK | SD_CONTEXT_DMA);
 2348              		.loc 1 1474 22
 2349 014a FB68     		ldr	r3, [r7, #12]
 2350 014c 8122     		movs	r2, #129
 2351 014e 1A63     		str	r2, [r3, #48]
1475:Drivers/STM32L4xx_HAL_Driver/Src/stm32l4xx_hal_sd.c **** 
ARM GAS  /tmp/ccsLb3N5.s 			page 68


1476:Drivers/STM32L4xx_HAL_Driver/Src/stm32l4xx_hal_sd.c ****         /* Read Single Block command */
1477:Drivers/STM32L4xx_HAL_Driver/Src/stm32l4xx_hal_sd.c ****         errorstate = SDMMC_CmdReadSingleBlock(hsd->Instance, add);
 2352              		.loc 1 1477 22
 2353 0150 FB68     		ldr	r3, [r7, #12]
 2354 0152 1B68     		ldr	r3, [r3]
 2355 0154 B96A     		ldr	r1, [r7, #40]
 2356 0156 1846     		mov	r0, r3
 2357 0158 FFF7FEFF 		bl	SDMMC_CmdReadSingleBlock
 2358 015c F862     		str	r0, [r7, #44]
 2359              	.L105:
1478:Drivers/STM32L4xx_HAL_Driver/Src/stm32l4xx_hal_sd.c ****       }
1479:Drivers/STM32L4xx_HAL_Driver/Src/stm32l4xx_hal_sd.c ****       if (errorstate != HAL_SD_ERROR_NONE)
 2360              		.loc 1 1479 10
 2361 015e FB6A     		ldr	r3, [r7, #44]
 2362 0160 002B     		cmp	r3, #0
 2363 0162 12D0     		beq	.L106
1480:Drivers/STM32L4xx_HAL_Driver/Src/stm32l4xx_hal_sd.c ****       {
1481:Drivers/STM32L4xx_HAL_Driver/Src/stm32l4xx_hal_sd.c ****         /* Clear all the static flags */
1482:Drivers/STM32L4xx_HAL_Driver/Src/stm32l4xx_hal_sd.c ****         __HAL_SD_CLEAR_FLAG(hsd, SDMMC_STATIC_FLAGS);
 2364              		.loc 1 1482 9
 2365 0164 FB68     		ldr	r3, [r7, #12]
 2366 0166 1B68     		ldr	r3, [r3]
 2367 0168 114A     		ldr	r2, .L108+8
 2368 016a 9A63     		str	r2, [r3, #56]
1483:Drivers/STM32L4xx_HAL_Driver/Src/stm32l4xx_hal_sd.c ****         hsd->ErrorCode |= errorstate;
 2369              		.loc 1 1483 12
 2370 016c FB68     		ldr	r3, [r7, #12]
 2371 016e 9A6B     		ldr	r2, [r3, #56]
 2372              		.loc 1 1483 24
 2373 0170 FB6A     		ldr	r3, [r7, #44]
 2374 0172 1A43     		orrs	r2, r2, r3
 2375 0174 FB68     		ldr	r3, [r7, #12]
 2376 0176 9A63     		str	r2, [r3, #56]
1484:Drivers/STM32L4xx_HAL_Driver/Src/stm32l4xx_hal_sd.c ****         hsd->State = HAL_SD_STATE_READY;
 2377              		.loc 1 1484 20
 2378 0178 FB68     		ldr	r3, [r7, #12]
 2379 017a 0122     		movs	r2, #1
 2380 017c 83F83420 		strb	r2, [r3, #52]
1485:Drivers/STM32L4xx_HAL_Driver/Src/stm32l4xx_hal_sd.c ****         hsd->Context = SD_CONTEXT_NONE;
 2381              		.loc 1 1485 22
 2382 0180 FB68     		ldr	r3, [r7, #12]
 2383 0182 0022     		movs	r2, #0
 2384 0184 1A63     		str	r2, [r3, #48]
1486:Drivers/STM32L4xx_HAL_Driver/Src/stm32l4xx_hal_sd.c ****         return HAL_ERROR;
 2385              		.loc 1 1486 16
 2386 0186 0123     		movs	r3, #1
 2387 0188 0AE0     		b	.L107
 2388              	.L106:
1487:Drivers/STM32L4xx_HAL_Driver/Src/stm32l4xx_hal_sd.c ****       }
1488:Drivers/STM32L4xx_HAL_Driver/Src/stm32l4xx_hal_sd.c **** 
1489:Drivers/STM32L4xx_HAL_Driver/Src/stm32l4xx_hal_sd.c ****       /* Enable transfer interrupts */
1490:Drivers/STM32L4xx_HAL_Driver/Src/stm32l4xx_hal_sd.c ****       __HAL_SD_ENABLE_IT(hsd, (SDMMC_IT_DCRCFAIL | SDMMC_IT_DTIMEOUT | SDMMC_IT_RXOVERR |
 2389              		.loc 1 1490 7
 2390 018a FB68     		ldr	r3, [r7, #12]
 2391 018c 1B68     		ldr	r3, [r3]
 2392 018e DA6B     		ldr	r2, [r3, #60]
 2393 0190 FB68     		ldr	r3, [r7, #12]
ARM GAS  /tmp/ccsLb3N5.s 			page 69


 2394 0192 1B68     		ldr	r3, [r3]
 2395 0194 42F49572 		orr	r2, r2, #298
 2396 0198 DA63     		str	r2, [r3, #60]
1491:Drivers/STM32L4xx_HAL_Driver/Src/stm32l4xx_hal_sd.c ****                                SDMMC_IT_DATAEND));
1492:Drivers/STM32L4xx_HAL_Driver/Src/stm32l4xx_hal_sd.c **** 
1493:Drivers/STM32L4xx_HAL_Driver/Src/stm32l4xx_hal_sd.c ****       return HAL_OK;
 2397              		.loc 1 1493 14
 2398 019a 0023     		movs	r3, #0
 2399 019c 00E0     		b	.L107
 2400              	.L100:
1494:Drivers/STM32L4xx_HAL_Driver/Src/stm32l4xx_hal_sd.c **** #if !defined(STM32L4P5xx) && !defined(STM32L4Q5xx) && !defined(STM32L4R5xx) && !defined(STM32L4R7xx
1495:Drivers/STM32L4xx_HAL_Driver/Src/stm32l4xx_hal_sd.c ****     }
1496:Drivers/STM32L4xx_HAL_Driver/Src/stm32l4xx_hal_sd.c **** #endif /* !STM32L4P5xx && !STM32L4Q5xx && !STM32L4R5xx && !STM32L4R7xx && !STM32L4R9xx \
1497:Drivers/STM32L4xx_HAL_Driver/Src/stm32l4xx_hal_sd.c ****           && !STM32L4S5xx && !STM32L4S7xx && !STM32L4S9xx */
1498:Drivers/STM32L4xx_HAL_Driver/Src/stm32l4xx_hal_sd.c ****   }
1499:Drivers/STM32L4xx_HAL_Driver/Src/stm32l4xx_hal_sd.c ****   else
1500:Drivers/STM32L4xx_HAL_Driver/Src/stm32l4xx_hal_sd.c ****   {
1501:Drivers/STM32L4xx_HAL_Driver/Src/stm32l4xx_hal_sd.c ****     return HAL_BUSY;
 2401              		.loc 1 1501 12
 2402 019e 0223     		movs	r3, #2
 2403              	.L107:
1502:Drivers/STM32L4xx_HAL_Driver/Src/stm32l4xx_hal_sd.c ****   }
1503:Drivers/STM32L4xx_HAL_Driver/Src/stm32l4xx_hal_sd.c **** }
 2404              		.loc 1 1503 1
 2405 01a0 1846     		mov	r0, r3
 2406 01a2 3037     		adds	r7, r7, #48
 2407              		.cfi_def_cfa_offset 8
 2408 01a4 BD46     		mov	sp, r7
 2409              		.cfi_def_cfa_register 13
 2410              		@ sp needed
 2411 01a6 80BD     		pop	{r7, pc}
 2412              	.L109:
 2413              		.align	2
 2414              	.L108:
 2415 01a8 00000000 		.word	SD_DMAReceiveCplt
 2416 01ac 00000000 		.word	SD_DMAError
 2417 01b0 FF054000 		.word	4195839
 2418              		.cfi_endproc
 2419              	.LFE454:
 2421              		.section	.text.HAL_SD_WriteBlocks_DMA,"ax",%progbits
 2422              		.align	1
 2423              		.global	HAL_SD_WriteBlocks_DMA
 2424              		.syntax unified
 2425              		.thumb
 2426              		.thumb_func
 2428              	HAL_SD_WriteBlocks_DMA:
 2429              	.LFB455:
1504:Drivers/STM32L4xx_HAL_Driver/Src/stm32l4xx_hal_sd.c **** 
1505:Drivers/STM32L4xx_HAL_Driver/Src/stm32l4xx_hal_sd.c **** /**
1506:Drivers/STM32L4xx_HAL_Driver/Src/stm32l4xx_hal_sd.c ****   * @brief  Writes block(s) to a specified address in a card. The Data transfer
1507:Drivers/STM32L4xx_HAL_Driver/Src/stm32l4xx_hal_sd.c ****   *         is managed by DMA mode.
1508:Drivers/STM32L4xx_HAL_Driver/Src/stm32l4xx_hal_sd.c ****   * @note   This API should be followed by a check on the card state through
1509:Drivers/STM32L4xx_HAL_Driver/Src/stm32l4xx_hal_sd.c ****   *         HAL_SD_GetCardState().
1510:Drivers/STM32L4xx_HAL_Driver/Src/stm32l4xx_hal_sd.c ****   * @note   You could also check the DMA transfer process through the SD Tx
1511:Drivers/STM32L4xx_HAL_Driver/Src/stm32l4xx_hal_sd.c ****   *         interrupt event.
1512:Drivers/STM32L4xx_HAL_Driver/Src/stm32l4xx_hal_sd.c ****   * @param  hsd: Pointer to SD handle
1513:Drivers/STM32L4xx_HAL_Driver/Src/stm32l4xx_hal_sd.c ****   * @param  pData: Pointer to the buffer that will contain the data to transmit
ARM GAS  /tmp/ccsLb3N5.s 			page 70


1514:Drivers/STM32L4xx_HAL_Driver/Src/stm32l4xx_hal_sd.c ****   * @param  BlockAdd: Block Address where data will be written
1515:Drivers/STM32L4xx_HAL_Driver/Src/stm32l4xx_hal_sd.c ****   * @param  NumberOfBlocks: Number of blocks to write
1516:Drivers/STM32L4xx_HAL_Driver/Src/stm32l4xx_hal_sd.c ****   * @retval HAL status
1517:Drivers/STM32L4xx_HAL_Driver/Src/stm32l4xx_hal_sd.c ****   */
1518:Drivers/STM32L4xx_HAL_Driver/Src/stm32l4xx_hal_sd.c **** HAL_StatusTypeDef HAL_SD_WriteBlocks_DMA(SD_HandleTypeDef *hsd, uint8_t *pData, uint32_t BlockAdd,
1519:Drivers/STM32L4xx_HAL_Driver/Src/stm32l4xx_hal_sd.c ****                                          uint32_t NumberOfBlocks)
1520:Drivers/STM32L4xx_HAL_Driver/Src/stm32l4xx_hal_sd.c **** {
 2430              		.loc 1 1520 1
 2431              		.cfi_startproc
 2432              		@ args = 0, pretend = 0, frame = 48
 2433              		@ frame_needed = 1, uses_anonymous_args = 0
 2434 0000 80B5     		push	{r7, lr}
 2435              		.cfi_def_cfa_offset 8
 2436              		.cfi_offset 7, -8
 2437              		.cfi_offset 14, -4
 2438 0002 8CB0     		sub	sp, sp, #48
 2439              		.cfi_def_cfa_offset 56
 2440 0004 00AF     		add	r7, sp, #0
 2441              		.cfi_def_cfa_register 7
 2442 0006 F860     		str	r0, [r7, #12]
 2443 0008 B960     		str	r1, [r7, #8]
 2444 000a 7A60     		str	r2, [r7, #4]
 2445 000c 3B60     		str	r3, [r7]
1521:Drivers/STM32L4xx_HAL_Driver/Src/stm32l4xx_hal_sd.c ****   SDMMC_DataInitTypeDef config;
1522:Drivers/STM32L4xx_HAL_Driver/Src/stm32l4xx_hal_sd.c ****   uint32_t errorstate;
1523:Drivers/STM32L4xx_HAL_Driver/Src/stm32l4xx_hal_sd.c ****   uint32_t add = BlockAdd;
 2446              		.loc 1 1523 12
 2447 000e 7B68     		ldr	r3, [r7, #4]
 2448 0010 BB62     		str	r3, [r7, #40]
1524:Drivers/STM32L4xx_HAL_Driver/Src/stm32l4xx_hal_sd.c **** 
1525:Drivers/STM32L4xx_HAL_Driver/Src/stm32l4xx_hal_sd.c ****   if (NULL == pData)
 2449              		.loc 1 1525 6
 2450 0012 BB68     		ldr	r3, [r7, #8]
 2451 0014 002B     		cmp	r3, #0
 2452 0016 07D1     		bne	.L111
1526:Drivers/STM32L4xx_HAL_Driver/Src/stm32l4xx_hal_sd.c ****   {
1527:Drivers/STM32L4xx_HAL_Driver/Src/stm32l4xx_hal_sd.c ****     hsd->ErrorCode |= HAL_SD_ERROR_PARAM;
 2453              		.loc 1 1527 8
 2454 0018 FB68     		ldr	r3, [r7, #12]
 2455 001a 9B6B     		ldr	r3, [r3, #56]
 2456              		.loc 1 1527 20
 2457 001c 43F00062 		orr	r2, r3, #134217728
 2458 0020 FB68     		ldr	r3, [r7, #12]
 2459 0022 9A63     		str	r2, [r3, #56]
1528:Drivers/STM32L4xx_HAL_Driver/Src/stm32l4xx_hal_sd.c ****     return HAL_ERROR;
 2460              		.loc 1 1528 12
 2461 0024 0123     		movs	r3, #1
 2462 0026 ACE0     		b	.L120
 2463              	.L111:
1529:Drivers/STM32L4xx_HAL_Driver/Src/stm32l4xx_hal_sd.c ****   }
1530:Drivers/STM32L4xx_HAL_Driver/Src/stm32l4xx_hal_sd.c **** 
1531:Drivers/STM32L4xx_HAL_Driver/Src/stm32l4xx_hal_sd.c ****   if (hsd->State == HAL_SD_STATE_READY)
 2464              		.loc 1 1531 10
 2465 0028 FB68     		ldr	r3, [r7, #12]
 2466 002a 93F83430 		ldrb	r3, [r3, #52]
 2467 002e DBB2     		uxtb	r3, r3
 2468              		.loc 1 1531 6
ARM GAS  /tmp/ccsLb3N5.s 			page 71


 2469 0030 012B     		cmp	r3, #1
 2470 0032 40F0A580 		bne	.L113
1532:Drivers/STM32L4xx_HAL_Driver/Src/stm32l4xx_hal_sd.c ****   {
1533:Drivers/STM32L4xx_HAL_Driver/Src/stm32l4xx_hal_sd.c ****     hsd->ErrorCode = HAL_SD_ERROR_NONE;
 2471              		.loc 1 1533 20
 2472 0036 FB68     		ldr	r3, [r7, #12]
 2473 0038 0022     		movs	r2, #0
 2474 003a 9A63     		str	r2, [r3, #56]
1534:Drivers/STM32L4xx_HAL_Driver/Src/stm32l4xx_hal_sd.c **** 
1535:Drivers/STM32L4xx_HAL_Driver/Src/stm32l4xx_hal_sd.c ****     if ((add + NumberOfBlocks) > (hsd->SdCard.LogBlockNbr))
 2475              		.loc 1 1535 14
 2476 003c BA6A     		ldr	r2, [r7, #40]
 2477 003e 3B68     		ldr	r3, [r7]
 2478 0040 1A44     		add	r2, r2, r3
 2479              		.loc 1 1535 46
 2480 0042 FB68     		ldr	r3, [r7, #12]
 2481 0044 DB6D     		ldr	r3, [r3, #92]
 2482              		.loc 1 1535 8
 2483 0046 9A42     		cmp	r2, r3
 2484 0048 07D9     		bls	.L114
1536:Drivers/STM32L4xx_HAL_Driver/Src/stm32l4xx_hal_sd.c ****     {
1537:Drivers/STM32L4xx_HAL_Driver/Src/stm32l4xx_hal_sd.c ****       hsd->ErrorCode |= HAL_SD_ERROR_ADDR_OUT_OF_RANGE;
 2485              		.loc 1 1537 10
 2486 004a FB68     		ldr	r3, [r7, #12]
 2487 004c 9B6B     		ldr	r3, [r3, #56]
 2488              		.loc 1 1537 22
 2489 004e 43F00072 		orr	r2, r3, #33554432
 2490 0052 FB68     		ldr	r3, [r7, #12]
 2491 0054 9A63     		str	r2, [r3, #56]
1538:Drivers/STM32L4xx_HAL_Driver/Src/stm32l4xx_hal_sd.c ****       return HAL_ERROR;
 2492              		.loc 1 1538 14
 2493 0056 0123     		movs	r3, #1
 2494 0058 93E0     		b	.L120
 2495              	.L114:
1539:Drivers/STM32L4xx_HAL_Driver/Src/stm32l4xx_hal_sd.c ****     }
1540:Drivers/STM32L4xx_HAL_Driver/Src/stm32l4xx_hal_sd.c **** 
1541:Drivers/STM32L4xx_HAL_Driver/Src/stm32l4xx_hal_sd.c ****     hsd->State = HAL_SD_STATE_BUSY;
 2496              		.loc 1 1541 16
 2497 005a FB68     		ldr	r3, [r7, #12]
 2498 005c 0322     		movs	r2, #3
 2499 005e 83F83420 		strb	r2, [r3, #52]
1542:Drivers/STM32L4xx_HAL_Driver/Src/stm32l4xx_hal_sd.c **** 
1543:Drivers/STM32L4xx_HAL_Driver/Src/stm32l4xx_hal_sd.c ****     /* Initialize data control register */
1544:Drivers/STM32L4xx_HAL_Driver/Src/stm32l4xx_hal_sd.c ****     hsd->Instance->DCTRL = 0U;
 2500              		.loc 1 1544 8
 2501 0062 FB68     		ldr	r3, [r7, #12]
 2502 0064 1B68     		ldr	r3, [r3]
 2503              		.loc 1 1544 26
 2504 0066 0022     		movs	r2, #0
 2505 0068 DA62     		str	r2, [r3, #44]
1545:Drivers/STM32L4xx_HAL_Driver/Src/stm32l4xx_hal_sd.c **** 
1546:Drivers/STM32L4xx_HAL_Driver/Src/stm32l4xx_hal_sd.c **** #if defined(STM32L4P5xx) || defined(STM32L4Q5xx) || defined(STM32L4R5xx) || defined(STM32L4R7xx) ||
1547:Drivers/STM32L4xx_HAL_Driver/Src/stm32l4xx_hal_sd.c ****     hsd->pTxBuffPtr = pData;
1548:Drivers/STM32L4xx_HAL_Driver/Src/stm32l4xx_hal_sd.c ****     hsd->TxXferSize = BLOCKSIZE * NumberOfBlocks;
1549:Drivers/STM32L4xx_HAL_Driver/Src/stm32l4xx_hal_sd.c **** #else
1550:Drivers/STM32L4xx_HAL_Driver/Src/stm32l4xx_hal_sd.c ****     /* Set the DMA transfer complete callback */
1551:Drivers/STM32L4xx_HAL_Driver/Src/stm32l4xx_hal_sd.c ****     hsd->hdmatx->XferCpltCallback = SD_DMATransmitCplt;
ARM GAS  /tmp/ccsLb3N5.s 			page 72


 2506              		.loc 1 1551 8
 2507 006a FB68     		ldr	r3, [r7, #12]
 2508 006c DB6B     		ldr	r3, [r3, #60]
 2509              		.loc 1 1551 35
 2510 006e 474A     		ldr	r2, .L121
 2511 0070 DA62     		str	r2, [r3, #44]
