ARM GAS  /tmp/ccB7T7H1.s 			page 1


   1              		.cpu cortex-m4
   2              		.arch armv7e-m
   3              		.fpu fpv4-sp-d16
   4              		.eabi_attribute 27, 1
   5              		.eabi_attribute 28, 1
   6              		.eabi_attribute 20, 1
   7              		.eabi_attribute 21, 1
   8              		.eabi_attribute 23, 3
   9              		.eabi_attribute 24, 1
  10              		.eabi_attribute 25, 1
  11              		.eabi_attribute 26, 1
  12              		.eabi_attribute 30, 6
  13              		.eabi_attribute 34, 1
  14              		.eabi_attribute 18, 4
  15              		.file	"stm32l4xx_hal_lptim.c"
  16              		.text
  17              	.Ltext0:
  18              		.cfi_sections	.debug_frame
  19              		.file 1 "Drivers/STM32L4xx_HAL_Driver/Src/stm32l4xx_hal_lptim.c"
  20              		.section	.rodata.CHANNEL_OFFSET_TAB,"a"
  21              		.align	2
  24              	CHANNEL_OFFSET_TAB:
  25 0000 081C3044 		.ascii	"\010\0340DXl\200"
  25      586C80
  26              		.section	.text.HAL_LPTIM_Init,"ax",%progbits
  27              		.align	1
  28              		.global	HAL_LPTIM_Init
  29              		.syntax unified
  30              		.thumb
  31              		.thumb_func
  33              	HAL_LPTIM_Init:
  34              	.LFB445:
   1:Drivers/STM32L4xx_HAL_Driver/Src/stm32l4xx_hal_lptim.c **** /**
   2:Drivers/STM32L4xx_HAL_Driver/Src/stm32l4xx_hal_lptim.c ****   ******************************************************************************
   3:Drivers/STM32L4xx_HAL_Driver/Src/stm32l4xx_hal_lptim.c ****   * @file    stm32l4xx_hal_lptim.c
   4:Drivers/STM32L4xx_HAL_Driver/Src/stm32l4xx_hal_lptim.c ****   * @author  MCD Application Team
   5:Drivers/STM32L4xx_HAL_Driver/Src/stm32l4xx_hal_lptim.c ****   * @brief   LPTIM HAL module driver.
   6:Drivers/STM32L4xx_HAL_Driver/Src/stm32l4xx_hal_lptim.c ****   *          This file provides firmware functions to manage the following
   7:Drivers/STM32L4xx_HAL_Driver/Src/stm32l4xx_hal_lptim.c ****   *          functionalities of the Low Power Timer (LPTIM) peripheral:
   8:Drivers/STM32L4xx_HAL_Driver/Src/stm32l4xx_hal_lptim.c ****   *           + Initialization and de-initialization functions.
   9:Drivers/STM32L4xx_HAL_Driver/Src/stm32l4xx_hal_lptim.c ****   *           + Start/Stop operation functions in polling mode.
  10:Drivers/STM32L4xx_HAL_Driver/Src/stm32l4xx_hal_lptim.c ****   *           + Start/Stop operation functions in interrupt mode.
  11:Drivers/STM32L4xx_HAL_Driver/Src/stm32l4xx_hal_lptim.c ****   *           + Reading operation functions.
  12:Drivers/STM32L4xx_HAL_Driver/Src/stm32l4xx_hal_lptim.c ****   *           + Peripheral State functions.
  13:Drivers/STM32L4xx_HAL_Driver/Src/stm32l4xx_hal_lptim.c ****   *
  14:Drivers/STM32L4xx_HAL_Driver/Src/stm32l4xx_hal_lptim.c ****   ******************************************************************************
  15:Drivers/STM32L4xx_HAL_Driver/Src/stm32l4xx_hal_lptim.c ****   * @attention
  16:Drivers/STM32L4xx_HAL_Driver/Src/stm32l4xx_hal_lptim.c ****   *
  17:Drivers/STM32L4xx_HAL_Driver/Src/stm32l4xx_hal_lptim.c ****   * Copyright (c) 2017 STMicroelectronics.
  18:Drivers/STM32L4xx_HAL_Driver/Src/stm32l4xx_hal_lptim.c ****   * All rights reserved.
  19:Drivers/STM32L4xx_HAL_Driver/Src/stm32l4xx_hal_lptim.c ****   *
  20:Drivers/STM32L4xx_HAL_Driver/Src/stm32l4xx_hal_lptim.c ****   * This software is licensed under terms that can be found in the LICENSE file
  21:Drivers/STM32L4xx_HAL_Driver/Src/stm32l4xx_hal_lptim.c ****   * in the root directory of this software component.
  22:Drivers/STM32L4xx_HAL_Driver/Src/stm32l4xx_hal_lptim.c ****   * If no LICENSE file comes with this software, it is provided AS-IS.
  23:Drivers/STM32L4xx_HAL_Driver/Src/stm32l4xx_hal_lptim.c ****   *
  24:Drivers/STM32L4xx_HAL_Driver/Src/stm32l4xx_hal_lptim.c ****   ******************************************************************************
  25:Drivers/STM32L4xx_HAL_Driver/Src/stm32l4xx_hal_lptim.c ****   @verbatim
ARM GAS  /tmp/ccB7T7H1.s 			page 2


  26:Drivers/STM32L4xx_HAL_Driver/Src/stm32l4xx_hal_lptim.c ****   ==============================================================================
  27:Drivers/STM32L4xx_HAL_Driver/Src/stm32l4xx_hal_lptim.c ****                      ##### How to use this driver #####
  28:Drivers/STM32L4xx_HAL_Driver/Src/stm32l4xx_hal_lptim.c ****   ==============================================================================
  29:Drivers/STM32L4xx_HAL_Driver/Src/stm32l4xx_hal_lptim.c ****     [..]
  30:Drivers/STM32L4xx_HAL_Driver/Src/stm32l4xx_hal_lptim.c ****       The LPTIM HAL driver can be used as follows:
  31:Drivers/STM32L4xx_HAL_Driver/Src/stm32l4xx_hal_lptim.c **** 
  32:Drivers/STM32L4xx_HAL_Driver/Src/stm32l4xx_hal_lptim.c ****       (#)Initialize the LPTIM low level resources by implementing the
  33:Drivers/STM32L4xx_HAL_Driver/Src/stm32l4xx_hal_lptim.c ****         HAL_LPTIM_MspInit():
  34:Drivers/STM32L4xx_HAL_Driver/Src/stm32l4xx_hal_lptim.c ****          (++) Enable the LPTIM interface clock using __HAL_RCC_LPTIMx_CLK_ENABLE().
  35:Drivers/STM32L4xx_HAL_Driver/Src/stm32l4xx_hal_lptim.c ****          (++) In case of using interrupts (e.g. HAL_LPTIM_PWM_Start_IT()):
  36:Drivers/STM32L4xx_HAL_Driver/Src/stm32l4xx_hal_lptim.c ****              (+++) Configure the LPTIM interrupt priority using HAL_NVIC_SetPriority().
  37:Drivers/STM32L4xx_HAL_Driver/Src/stm32l4xx_hal_lptim.c ****              (+++) Enable the LPTIM IRQ handler using HAL_NVIC_EnableIRQ().
  38:Drivers/STM32L4xx_HAL_Driver/Src/stm32l4xx_hal_lptim.c ****              (+++) In LPTIM IRQ handler, call HAL_LPTIM_IRQHandler().
  39:Drivers/STM32L4xx_HAL_Driver/Src/stm32l4xx_hal_lptim.c **** 
  40:Drivers/STM32L4xx_HAL_Driver/Src/stm32l4xx_hal_lptim.c ****       (#)Initialize the LPTIM HAL using HAL_LPTIM_Init(). This function
  41:Drivers/STM32L4xx_HAL_Driver/Src/stm32l4xx_hal_lptim.c ****          configures mainly:
  42:Drivers/STM32L4xx_HAL_Driver/Src/stm32l4xx_hal_lptim.c ****          (++) The instance: LPTIM1 or LPTIM2.
  43:Drivers/STM32L4xx_HAL_Driver/Src/stm32l4xx_hal_lptim.c ****          (++) Clock: the counter clock.
  44:Drivers/STM32L4xx_HAL_Driver/Src/stm32l4xx_hal_lptim.c ****              (+++) Source   : it can be either the ULPTIM input (IN1) or one of
  45:Drivers/STM32L4xx_HAL_Driver/Src/stm32l4xx_hal_lptim.c ****                               the internal clock; (APB, LSE, LSI or MSI).
  46:Drivers/STM32L4xx_HAL_Driver/Src/stm32l4xx_hal_lptim.c ****              (+++) Prescaler: select the clock divider.
  47:Drivers/STM32L4xx_HAL_Driver/Src/stm32l4xx_hal_lptim.c ****          (++)  UltraLowPowerClock : To be used only if the ULPTIM is selected
  48:Drivers/STM32L4xx_HAL_Driver/Src/stm32l4xx_hal_lptim.c ****                as counter clock source.
  49:Drivers/STM32L4xx_HAL_Driver/Src/stm32l4xx_hal_lptim.c ****              (+++) Polarity:   polarity of the active edge for the counter unit
  50:Drivers/STM32L4xx_HAL_Driver/Src/stm32l4xx_hal_lptim.c ****                                if the ULPTIM input is selected.
  51:Drivers/STM32L4xx_HAL_Driver/Src/stm32l4xx_hal_lptim.c ****              (+++) SampleTime: clock sampling time to configure the clock glitch
  52:Drivers/STM32L4xx_HAL_Driver/Src/stm32l4xx_hal_lptim.c ****                                filter.
  53:Drivers/STM32L4xx_HAL_Driver/Src/stm32l4xx_hal_lptim.c ****          (++) Trigger: How the counter start.
  54:Drivers/STM32L4xx_HAL_Driver/Src/stm32l4xx_hal_lptim.c ****              (+++) Source: trigger can be software or one of the hardware triggers.
  55:Drivers/STM32L4xx_HAL_Driver/Src/stm32l4xx_hal_lptim.c ****              (+++) ActiveEdge : only for hardware trigger.
  56:Drivers/STM32L4xx_HAL_Driver/Src/stm32l4xx_hal_lptim.c ****              (+++) SampleTime : trigger sampling time to configure the trigger
  57:Drivers/STM32L4xx_HAL_Driver/Src/stm32l4xx_hal_lptim.c ****                                 glitch filter.
  58:Drivers/STM32L4xx_HAL_Driver/Src/stm32l4xx_hal_lptim.c ****          (++) OutputPolarity : 2 opposite polarities are possible.
  59:Drivers/STM32L4xx_HAL_Driver/Src/stm32l4xx_hal_lptim.c ****          (++) UpdateMode: specifies whether the update of the autoreload and
  60:Drivers/STM32L4xx_HAL_Driver/Src/stm32l4xx_hal_lptim.c ****               the compare values is done immediately or after the end of current
  61:Drivers/STM32L4xx_HAL_Driver/Src/stm32l4xx_hal_lptim.c ****               period.
  62:Drivers/STM32L4xx_HAL_Driver/Src/stm32l4xx_hal_lptim.c ****          (++) Input1Source: Source selected for input1 (GPIO or comparator output).
  63:Drivers/STM32L4xx_HAL_Driver/Src/stm32l4xx_hal_lptim.c ****          (++) Input2Source: Source selected for input2 (GPIO or comparator output).
  64:Drivers/STM32L4xx_HAL_Driver/Src/stm32l4xx_hal_lptim.c ****               Input2 is used only for encoder feature so is used only for LPTIM1 instance.
  65:Drivers/STM32L4xx_HAL_Driver/Src/stm32l4xx_hal_lptim.c **** 
  66:Drivers/STM32L4xx_HAL_Driver/Src/stm32l4xx_hal_lptim.c ****       (#)Six modes are available:
  67:Drivers/STM32L4xx_HAL_Driver/Src/stm32l4xx_hal_lptim.c **** 
  68:Drivers/STM32L4xx_HAL_Driver/Src/stm32l4xx_hal_lptim.c ****          (++) PWM Mode: To generate a PWM signal with specified period and pulse,
  69:Drivers/STM32L4xx_HAL_Driver/Src/stm32l4xx_hal_lptim.c ****          call HAL_LPTIM_PWM_Start() or HAL_LPTIM_PWM_Start_IT() for interruption
  70:Drivers/STM32L4xx_HAL_Driver/Src/stm32l4xx_hal_lptim.c ****          mode.
  71:Drivers/STM32L4xx_HAL_Driver/Src/stm32l4xx_hal_lptim.c **** 
  72:Drivers/STM32L4xx_HAL_Driver/Src/stm32l4xx_hal_lptim.c ****          (++) One Pulse Mode: To generate pulse with specified width in response
  73:Drivers/STM32L4xx_HAL_Driver/Src/stm32l4xx_hal_lptim.c ****          to a stimulus, call HAL_LPTIM_OnePulse_Start() or
  74:Drivers/STM32L4xx_HAL_Driver/Src/stm32l4xx_hal_lptim.c ****          HAL_LPTIM_OnePulse_Start_IT() for interruption mode.
  75:Drivers/STM32L4xx_HAL_Driver/Src/stm32l4xx_hal_lptim.c **** 
  76:Drivers/STM32L4xx_HAL_Driver/Src/stm32l4xx_hal_lptim.c ****          (++) Set once Mode: In this mode, the output changes the level (from
  77:Drivers/STM32L4xx_HAL_Driver/Src/stm32l4xx_hal_lptim.c ****          low level to high level if the output polarity is configured high, else
  78:Drivers/STM32L4xx_HAL_Driver/Src/stm32l4xx_hal_lptim.c ****          the opposite) when a compare match occurs. To start this mode, call
  79:Drivers/STM32L4xx_HAL_Driver/Src/stm32l4xx_hal_lptim.c ****          HAL_LPTIM_SetOnce_Start() or HAL_LPTIM_SetOnce_Start_IT() for
  80:Drivers/STM32L4xx_HAL_Driver/Src/stm32l4xx_hal_lptim.c ****          interruption mode.
  81:Drivers/STM32L4xx_HAL_Driver/Src/stm32l4xx_hal_lptim.c **** 
  82:Drivers/STM32L4xx_HAL_Driver/Src/stm32l4xx_hal_lptim.c ****          (++) Encoder Mode: To use the encoder interface call
ARM GAS  /tmp/ccB7T7H1.s 			page 3


  83:Drivers/STM32L4xx_HAL_Driver/Src/stm32l4xx_hal_lptim.c ****          HAL_LPTIM_Encoder_Start() or HAL_LPTIM_Encoder_Start_IT() for
  84:Drivers/STM32L4xx_HAL_Driver/Src/stm32l4xx_hal_lptim.c ****          interruption mode. Only available for LPTIM1 instance.
  85:Drivers/STM32L4xx_HAL_Driver/Src/stm32l4xx_hal_lptim.c **** 
  86:Drivers/STM32L4xx_HAL_Driver/Src/stm32l4xx_hal_lptim.c ****          (++) Time out Mode: an active edge on one selected trigger input rests
  87:Drivers/STM32L4xx_HAL_Driver/Src/stm32l4xx_hal_lptim.c ****          the counter. The first trigger event will start the timer, any
  88:Drivers/STM32L4xx_HAL_Driver/Src/stm32l4xx_hal_lptim.c ****          successive trigger event will reset the counter and the timer will
  89:Drivers/STM32L4xx_HAL_Driver/Src/stm32l4xx_hal_lptim.c ****          restart. To start this mode call HAL_LPTIM_TimeOut_Start_IT() or
  90:Drivers/STM32L4xx_HAL_Driver/Src/stm32l4xx_hal_lptim.c ****          HAL_LPTIM_TimeOut_Start_IT() for interruption mode.
  91:Drivers/STM32L4xx_HAL_Driver/Src/stm32l4xx_hal_lptim.c **** 
  92:Drivers/STM32L4xx_HAL_Driver/Src/stm32l4xx_hal_lptim.c ****          (++) Counter Mode: counter can be used to count external events on
  93:Drivers/STM32L4xx_HAL_Driver/Src/stm32l4xx_hal_lptim.c ****          the LPTIM Input1 or it can be used to count internal clock cycles.
  94:Drivers/STM32L4xx_HAL_Driver/Src/stm32l4xx_hal_lptim.c ****          To start this mode, call HAL_LPTIM_Counter_Start() or
  95:Drivers/STM32L4xx_HAL_Driver/Src/stm32l4xx_hal_lptim.c ****          HAL_LPTIM_Counter_Start_IT() for interruption mode.
  96:Drivers/STM32L4xx_HAL_Driver/Src/stm32l4xx_hal_lptim.c **** 
  97:Drivers/STM32L4xx_HAL_Driver/Src/stm32l4xx_hal_lptim.c **** 
  98:Drivers/STM32L4xx_HAL_Driver/Src/stm32l4xx_hal_lptim.c ****       (#) User can stop any process by calling the corresponding API:
  99:Drivers/STM32L4xx_HAL_Driver/Src/stm32l4xx_hal_lptim.c ****           HAL_LPTIM_Xxx_Stop() or HAL_LPTIM_Xxx_Stop_IT() if the process is
 100:Drivers/STM32L4xx_HAL_Driver/Src/stm32l4xx_hal_lptim.c ****           already started in interruption mode.
 101:Drivers/STM32L4xx_HAL_Driver/Src/stm32l4xx_hal_lptim.c **** 
 102:Drivers/STM32L4xx_HAL_Driver/Src/stm32l4xx_hal_lptim.c ****       (#) De-initialize the LPTIM peripheral using HAL_LPTIM_DeInit().
 103:Drivers/STM32L4xx_HAL_Driver/Src/stm32l4xx_hal_lptim.c **** 
 104:Drivers/STM32L4xx_HAL_Driver/Src/stm32l4xx_hal_lptim.c ****     *** Callback registration ***
 105:Drivers/STM32L4xx_HAL_Driver/Src/stm32l4xx_hal_lptim.c ****   =============================================
 106:Drivers/STM32L4xx_HAL_Driver/Src/stm32l4xx_hal_lptim.c ****   [..]
 107:Drivers/STM32L4xx_HAL_Driver/Src/stm32l4xx_hal_lptim.c ****   The compilation define  USE_HAL_LPTIM_REGISTER_CALLBACKS when set to 1
 108:Drivers/STM32L4xx_HAL_Driver/Src/stm32l4xx_hal_lptim.c ****   allows the user to configure dynamically the driver callbacks.
 109:Drivers/STM32L4xx_HAL_Driver/Src/stm32l4xx_hal_lptim.c ****   [..]
 110:Drivers/STM32L4xx_HAL_Driver/Src/stm32l4xx_hal_lptim.c ****   Use Function HAL_LPTIM_RegisterCallback() to register a callback.
 111:Drivers/STM32L4xx_HAL_Driver/Src/stm32l4xx_hal_lptim.c ****   HAL_LPTIM_RegisterCallback() takes as parameters the HAL peripheral handle,
 112:Drivers/STM32L4xx_HAL_Driver/Src/stm32l4xx_hal_lptim.c ****   the Callback ID and a pointer to the user callback function.
 113:Drivers/STM32L4xx_HAL_Driver/Src/stm32l4xx_hal_lptim.c ****   [..]
 114:Drivers/STM32L4xx_HAL_Driver/Src/stm32l4xx_hal_lptim.c ****   Use function HAL_LPTIM_UnRegisterCallback() to reset a callback to the
 115:Drivers/STM32L4xx_HAL_Driver/Src/stm32l4xx_hal_lptim.c ****   default weak function.
 116:Drivers/STM32L4xx_HAL_Driver/Src/stm32l4xx_hal_lptim.c ****   HAL_LPTIM_UnRegisterCallback takes as parameters the HAL peripheral handle,
 117:Drivers/STM32L4xx_HAL_Driver/Src/stm32l4xx_hal_lptim.c ****   and the Callback ID.
 118:Drivers/STM32L4xx_HAL_Driver/Src/stm32l4xx_hal_lptim.c ****   [..]
 119:Drivers/STM32L4xx_HAL_Driver/Src/stm32l4xx_hal_lptim.c ****   These functions allow to register/unregister following callbacks:
 120:Drivers/STM32L4xx_HAL_Driver/Src/stm32l4xx_hal_lptim.c **** 
 121:Drivers/STM32L4xx_HAL_Driver/Src/stm32l4xx_hal_lptim.c ****     (+) MspInitCallback         : LPTIM Base Msp Init Callback.
 122:Drivers/STM32L4xx_HAL_Driver/Src/stm32l4xx_hal_lptim.c ****     (+) MspDeInitCallback       : LPTIM Base Msp DeInit Callback.
 123:Drivers/STM32L4xx_HAL_Driver/Src/stm32l4xx_hal_lptim.c ****     (+) CompareMatchCallback    : Compare match Callback.
 124:Drivers/STM32L4xx_HAL_Driver/Src/stm32l4xx_hal_lptim.c ****     (+) AutoReloadMatchCallback : Auto-reload match Callback.
 125:Drivers/STM32L4xx_HAL_Driver/Src/stm32l4xx_hal_lptim.c ****     (+) TriggerCallback         : External trigger event detection Callback.
 126:Drivers/STM32L4xx_HAL_Driver/Src/stm32l4xx_hal_lptim.c ****     (+) CompareWriteCallback    : Compare register write complete Callback.
 127:Drivers/STM32L4xx_HAL_Driver/Src/stm32l4xx_hal_lptim.c ****     (+) AutoReloadWriteCallback : Auto-reload register write complete Callback.
 128:Drivers/STM32L4xx_HAL_Driver/Src/stm32l4xx_hal_lptim.c ****     (+) DirectionUpCallback     : Up-counting direction change Callback.
 129:Drivers/STM32L4xx_HAL_Driver/Src/stm32l4xx_hal_lptim.c ****     (+) DirectionDownCallback   : Down-counting direction change Callback.
 130:Drivers/STM32L4xx_HAL_Driver/Src/stm32l4xx_hal_lptim.c **** 
 131:Drivers/STM32L4xx_HAL_Driver/Src/stm32l4xx_hal_lptim.c ****   [..]
 132:Drivers/STM32L4xx_HAL_Driver/Src/stm32l4xx_hal_lptim.c ****   By default, after the Init and when the state is HAL_LPTIM_STATE_RESET
 133:Drivers/STM32L4xx_HAL_Driver/Src/stm32l4xx_hal_lptim.c ****   all interrupt callbacks are set to the corresponding weak functions:
 134:Drivers/STM32L4xx_HAL_Driver/Src/stm32l4xx_hal_lptim.c ****   examples HAL_LPTIM_TriggerCallback(), HAL_LPTIM_CompareMatchCallback().
 135:Drivers/STM32L4xx_HAL_Driver/Src/stm32l4xx_hal_lptim.c **** 
 136:Drivers/STM32L4xx_HAL_Driver/Src/stm32l4xx_hal_lptim.c ****   [..]
 137:Drivers/STM32L4xx_HAL_Driver/Src/stm32l4xx_hal_lptim.c ****   Exception done for MspInit and MspDeInit functions that are reset to the legacy weak
 138:Drivers/STM32L4xx_HAL_Driver/Src/stm32l4xx_hal_lptim.c ****   functionalities in the Init/DeInit only when these callbacks are null
 139:Drivers/STM32L4xx_HAL_Driver/Src/stm32l4xx_hal_lptim.c ****   (not registered beforehand). If not, MspInit or MspDeInit are not null, the Init/DeInit
ARM GAS  /tmp/ccB7T7H1.s 			page 4


 140:Drivers/STM32L4xx_HAL_Driver/Src/stm32l4xx_hal_lptim.c ****   keep and use the user MspInit/MspDeInit callbacks (registered beforehand)
 141:Drivers/STM32L4xx_HAL_Driver/Src/stm32l4xx_hal_lptim.c **** 
 142:Drivers/STM32L4xx_HAL_Driver/Src/stm32l4xx_hal_lptim.c ****   [..]
 143:Drivers/STM32L4xx_HAL_Driver/Src/stm32l4xx_hal_lptim.c ****   Callbacks can be registered/unregistered in HAL_LPTIM_STATE_READY state only.
 144:Drivers/STM32L4xx_HAL_Driver/Src/stm32l4xx_hal_lptim.c ****   Exception done MspInit/MspDeInit that can be registered/unregistered
 145:Drivers/STM32L4xx_HAL_Driver/Src/stm32l4xx_hal_lptim.c ****   in HAL_LPTIM_STATE_READY or HAL_LPTIM_STATE_RESET state,
 146:Drivers/STM32L4xx_HAL_Driver/Src/stm32l4xx_hal_lptim.c ****   thus registered (user) MspInit/DeInit callbacks can be used during the Init/DeInit.
 147:Drivers/STM32L4xx_HAL_Driver/Src/stm32l4xx_hal_lptim.c ****   In that case first register the MspInit/MspDeInit user callbacks
 148:Drivers/STM32L4xx_HAL_Driver/Src/stm32l4xx_hal_lptim.c ****   using HAL_LPTIM_RegisterCallback() before calling DeInit or Init function.
 149:Drivers/STM32L4xx_HAL_Driver/Src/stm32l4xx_hal_lptim.c **** 
 150:Drivers/STM32L4xx_HAL_Driver/Src/stm32l4xx_hal_lptim.c ****   [..]
 151:Drivers/STM32L4xx_HAL_Driver/Src/stm32l4xx_hal_lptim.c ****   When The compilation define USE_HAL_LPTIM_REGISTER_CALLBACKS is set to 0 or
 152:Drivers/STM32L4xx_HAL_Driver/Src/stm32l4xx_hal_lptim.c ****   not defined, the callback registration feature is not available and all callbacks
 153:Drivers/STM32L4xx_HAL_Driver/Src/stm32l4xx_hal_lptim.c ****   are set to the corresponding weak functions.
 154:Drivers/STM32L4xx_HAL_Driver/Src/stm32l4xx_hal_lptim.c **** 
 155:Drivers/STM32L4xx_HAL_Driver/Src/stm32l4xx_hal_lptim.c ****   @endverbatim
 156:Drivers/STM32L4xx_HAL_Driver/Src/stm32l4xx_hal_lptim.c ****   ******************************************************************************
 157:Drivers/STM32L4xx_HAL_Driver/Src/stm32l4xx_hal_lptim.c ****   */
 158:Drivers/STM32L4xx_HAL_Driver/Src/stm32l4xx_hal_lptim.c **** 
 159:Drivers/STM32L4xx_HAL_Driver/Src/stm32l4xx_hal_lptim.c **** /* Includes ------------------------------------------------------------------*/
 160:Drivers/STM32L4xx_HAL_Driver/Src/stm32l4xx_hal_lptim.c **** #include "stm32l4xx_hal.h"
 161:Drivers/STM32L4xx_HAL_Driver/Src/stm32l4xx_hal_lptim.c **** 
 162:Drivers/STM32L4xx_HAL_Driver/Src/stm32l4xx_hal_lptim.c **** /** @addtogroup STM32L4xx_HAL_Driver
 163:Drivers/STM32L4xx_HAL_Driver/Src/stm32l4xx_hal_lptim.c ****   * @{
 164:Drivers/STM32L4xx_HAL_Driver/Src/stm32l4xx_hal_lptim.c ****   */
 165:Drivers/STM32L4xx_HAL_Driver/Src/stm32l4xx_hal_lptim.c **** 
 166:Drivers/STM32L4xx_HAL_Driver/Src/stm32l4xx_hal_lptim.c **** /** @defgroup LPTIM LPTIM
 167:Drivers/STM32L4xx_HAL_Driver/Src/stm32l4xx_hal_lptim.c ****   * @brief LPTIM HAL module driver.
 168:Drivers/STM32L4xx_HAL_Driver/Src/stm32l4xx_hal_lptim.c ****   * @{
 169:Drivers/STM32L4xx_HAL_Driver/Src/stm32l4xx_hal_lptim.c ****   */
 170:Drivers/STM32L4xx_HAL_Driver/Src/stm32l4xx_hal_lptim.c **** 
 171:Drivers/STM32L4xx_HAL_Driver/Src/stm32l4xx_hal_lptim.c **** #ifdef HAL_LPTIM_MODULE_ENABLED
 172:Drivers/STM32L4xx_HAL_Driver/Src/stm32l4xx_hal_lptim.c **** 
 173:Drivers/STM32L4xx_HAL_Driver/Src/stm32l4xx_hal_lptim.c **** #if defined (LPTIM1) || defined (LPTIM2)
 174:Drivers/STM32L4xx_HAL_Driver/Src/stm32l4xx_hal_lptim.c **** 
 175:Drivers/STM32L4xx_HAL_Driver/Src/stm32l4xx_hal_lptim.c **** /* Private typedef -----------------------------------------------------------*/
 176:Drivers/STM32L4xx_HAL_Driver/Src/stm32l4xx_hal_lptim.c **** /* Private define ------------------------------------------------------------*/
 177:Drivers/STM32L4xx_HAL_Driver/Src/stm32l4xx_hal_lptim.c **** /** @addtogroup LPTIM_Private_Constants
 178:Drivers/STM32L4xx_HAL_Driver/Src/stm32l4xx_hal_lptim.c ****   * @{
 179:Drivers/STM32L4xx_HAL_Driver/Src/stm32l4xx_hal_lptim.c ****   */
 180:Drivers/STM32L4xx_HAL_Driver/Src/stm32l4xx_hal_lptim.c **** #define TIMEOUT                                     1000UL /* Timeout is 1s */
 181:Drivers/STM32L4xx_HAL_Driver/Src/stm32l4xx_hal_lptim.c **** /**
 182:Drivers/STM32L4xx_HAL_Driver/Src/stm32l4xx_hal_lptim.c ****   * @}
 183:Drivers/STM32L4xx_HAL_Driver/Src/stm32l4xx_hal_lptim.c ****   */
 184:Drivers/STM32L4xx_HAL_Driver/Src/stm32l4xx_hal_lptim.c **** 
 185:Drivers/STM32L4xx_HAL_Driver/Src/stm32l4xx_hal_lptim.c **** /* Private macro -------------------------------------------------------------*/
 186:Drivers/STM32L4xx_HAL_Driver/Src/stm32l4xx_hal_lptim.c **** /** @addtogroup LPTIM_Private_Macros
 187:Drivers/STM32L4xx_HAL_Driver/Src/stm32l4xx_hal_lptim.c ****   * @{
 188:Drivers/STM32L4xx_HAL_Driver/Src/stm32l4xx_hal_lptim.c ****   */
 189:Drivers/STM32L4xx_HAL_Driver/Src/stm32l4xx_hal_lptim.c **** #if defined(LPTIM2)
 190:Drivers/STM32L4xx_HAL_Driver/Src/stm32l4xx_hal_lptim.c **** #define __HAL_LPTIM_WAKEUPTIMER_EXTI_ENABLE_IT(__INSTANCE__) \
 191:Drivers/STM32L4xx_HAL_Driver/Src/stm32l4xx_hal_lptim.c ****   (((__INSTANCE__) == LPTIM1) ? __HAL_LPTIM_LPTIM1_EXTI_ENABLE_IT() : __HAL_LPTIM_LPTIM2_EXTI_ENABL
 192:Drivers/STM32L4xx_HAL_Driver/Src/stm32l4xx_hal_lptim.c **** 
 193:Drivers/STM32L4xx_HAL_Driver/Src/stm32l4xx_hal_lptim.c **** #define __HAL_LPTIM_WAKEUPTIMER_EXTI_DISABLE_IT(__INSTANCE__) \
 194:Drivers/STM32L4xx_HAL_Driver/Src/stm32l4xx_hal_lptim.c ****   (((__INSTANCE__) == LPTIM1) ? __HAL_LPTIM_LPTIM1_EXTI_DISABLE_IT() : __HAL_LPTIM_LPTIM2_EXTI_DISA
 195:Drivers/STM32L4xx_HAL_Driver/Src/stm32l4xx_hal_lptim.c **** #else
 196:Drivers/STM32L4xx_HAL_Driver/Src/stm32l4xx_hal_lptim.c **** #define __HAL_LPTIM_WAKEUPTIMER_EXTI_ENABLE_IT(__INSTANCE__) __HAL_LPTIM_LPTIM1_EXTI_ENABLE_IT()
ARM GAS  /tmp/ccB7T7H1.s 			page 5


 197:Drivers/STM32L4xx_HAL_Driver/Src/stm32l4xx_hal_lptim.c **** 
 198:Drivers/STM32L4xx_HAL_Driver/Src/stm32l4xx_hal_lptim.c **** #define __HAL_LPTIM_WAKEUPTIMER_EXTI_DISABLE_IT(__INSTANCE__) __HAL_LPTIM_LPTIM1_EXTI_DISABLE_IT()
 199:Drivers/STM32L4xx_HAL_Driver/Src/stm32l4xx_hal_lptim.c **** #endif /* LPTIM2 */
 200:Drivers/STM32L4xx_HAL_Driver/Src/stm32l4xx_hal_lptim.c **** /**
 201:Drivers/STM32L4xx_HAL_Driver/Src/stm32l4xx_hal_lptim.c ****   * @}
 202:Drivers/STM32L4xx_HAL_Driver/Src/stm32l4xx_hal_lptim.c ****   */
 203:Drivers/STM32L4xx_HAL_Driver/Src/stm32l4xx_hal_lptim.c **** 
 204:Drivers/STM32L4xx_HAL_Driver/Src/stm32l4xx_hal_lptim.c **** /* Private variables ---------------------------------------------------------*/
 205:Drivers/STM32L4xx_HAL_Driver/Src/stm32l4xx_hal_lptim.c **** /* Private function prototypes -----------------------------------------------*/
 206:Drivers/STM32L4xx_HAL_Driver/Src/stm32l4xx_hal_lptim.c **** #if (USE_HAL_LPTIM_REGISTER_CALLBACKS == 1)
 207:Drivers/STM32L4xx_HAL_Driver/Src/stm32l4xx_hal_lptim.c **** static void LPTIM_ResetCallback(LPTIM_HandleTypeDef *lptim);
 208:Drivers/STM32L4xx_HAL_Driver/Src/stm32l4xx_hal_lptim.c **** #endif /* USE_HAL_LPTIM_REGISTER_CALLBACKS */
 209:Drivers/STM32L4xx_HAL_Driver/Src/stm32l4xx_hal_lptim.c **** static HAL_StatusTypeDef LPTIM_WaitForFlag(const LPTIM_HandleTypeDef *hlptim, uint32_t flag);
 210:Drivers/STM32L4xx_HAL_Driver/Src/stm32l4xx_hal_lptim.c **** 
 211:Drivers/STM32L4xx_HAL_Driver/Src/stm32l4xx_hal_lptim.c **** /* Exported functions --------------------------------------------------------*/
 212:Drivers/STM32L4xx_HAL_Driver/Src/stm32l4xx_hal_lptim.c **** 
 213:Drivers/STM32L4xx_HAL_Driver/Src/stm32l4xx_hal_lptim.c **** /** @defgroup LPTIM_Exported_Functions LPTIM Exported Functions
 214:Drivers/STM32L4xx_HAL_Driver/Src/stm32l4xx_hal_lptim.c ****   * @{
 215:Drivers/STM32L4xx_HAL_Driver/Src/stm32l4xx_hal_lptim.c ****   */
 216:Drivers/STM32L4xx_HAL_Driver/Src/stm32l4xx_hal_lptim.c **** 
 217:Drivers/STM32L4xx_HAL_Driver/Src/stm32l4xx_hal_lptim.c **** /** @defgroup LPTIM_Exported_Functions_Group1 Initialization/de-initialization functions
 218:Drivers/STM32L4xx_HAL_Driver/Src/stm32l4xx_hal_lptim.c ****   *  @brief    Initialization and Configuration functions.
 219:Drivers/STM32L4xx_HAL_Driver/Src/stm32l4xx_hal_lptim.c ****   *
 220:Drivers/STM32L4xx_HAL_Driver/Src/stm32l4xx_hal_lptim.c **** @verbatim
 221:Drivers/STM32L4xx_HAL_Driver/Src/stm32l4xx_hal_lptim.c ****   ==============================================================================
 222:Drivers/STM32L4xx_HAL_Driver/Src/stm32l4xx_hal_lptim.c ****               ##### Initialization and de-initialization functions #####
 223:Drivers/STM32L4xx_HAL_Driver/Src/stm32l4xx_hal_lptim.c ****   ==============================================================================
 224:Drivers/STM32L4xx_HAL_Driver/Src/stm32l4xx_hal_lptim.c ****     [..]  This section provides functions allowing to:
 225:Drivers/STM32L4xx_HAL_Driver/Src/stm32l4xx_hal_lptim.c ****       (+) Initialize the LPTIM according to the specified parameters in the
 226:Drivers/STM32L4xx_HAL_Driver/Src/stm32l4xx_hal_lptim.c ****           LPTIM_InitTypeDef and initialize the associated handle.
 227:Drivers/STM32L4xx_HAL_Driver/Src/stm32l4xx_hal_lptim.c ****       (+) DeInitialize the LPTIM peripheral.
 228:Drivers/STM32L4xx_HAL_Driver/Src/stm32l4xx_hal_lptim.c ****       (+) Initialize the LPTIM MSP.
 229:Drivers/STM32L4xx_HAL_Driver/Src/stm32l4xx_hal_lptim.c ****       (+) DeInitialize the LPTIM MSP.
 230:Drivers/STM32L4xx_HAL_Driver/Src/stm32l4xx_hal_lptim.c **** 
 231:Drivers/STM32L4xx_HAL_Driver/Src/stm32l4xx_hal_lptim.c **** @endverbatim
 232:Drivers/STM32L4xx_HAL_Driver/Src/stm32l4xx_hal_lptim.c ****   * @{
 233:Drivers/STM32L4xx_HAL_Driver/Src/stm32l4xx_hal_lptim.c ****   */
 234:Drivers/STM32L4xx_HAL_Driver/Src/stm32l4xx_hal_lptim.c **** 
 235:Drivers/STM32L4xx_HAL_Driver/Src/stm32l4xx_hal_lptim.c **** /**
 236:Drivers/STM32L4xx_HAL_Driver/Src/stm32l4xx_hal_lptim.c ****   * @brief  Initialize the LPTIM according to the specified parameters in the
 237:Drivers/STM32L4xx_HAL_Driver/Src/stm32l4xx_hal_lptim.c ****   *         LPTIM_InitTypeDef and initialize the associated handle.
 238:Drivers/STM32L4xx_HAL_Driver/Src/stm32l4xx_hal_lptim.c ****   * @param  hlptim LPTIM handle
 239:Drivers/STM32L4xx_HAL_Driver/Src/stm32l4xx_hal_lptim.c ****   * @retval HAL status
 240:Drivers/STM32L4xx_HAL_Driver/Src/stm32l4xx_hal_lptim.c ****   */
 241:Drivers/STM32L4xx_HAL_Driver/Src/stm32l4xx_hal_lptim.c **** HAL_StatusTypeDef HAL_LPTIM_Init(LPTIM_HandleTypeDef *hlptim)
 242:Drivers/STM32L4xx_HAL_Driver/Src/stm32l4xx_hal_lptim.c **** {
  35              		.loc 1 242 1
  36              		.cfi_startproc
  37              		@ args = 0, pretend = 0, frame = 16
  38              		@ frame_needed = 1, uses_anonymous_args = 0
  39 0000 80B5     		push	{r7, lr}
  40              		.cfi_def_cfa_offset 8
  41              		.cfi_offset 7, -8
  42              		.cfi_offset 14, -4
  43 0002 84B0     		sub	sp, sp, #16
  44              		.cfi_def_cfa_offset 24
  45 0004 00AF     		add	r7, sp, #0
ARM GAS  /tmp/ccB7T7H1.s 			page 6


  46              		.cfi_def_cfa_register 7
  47 0006 7860     		str	r0, [r7, #4]
 243:Drivers/STM32L4xx_HAL_Driver/Src/stm32l4xx_hal_lptim.c ****   uint32_t tmpcfgr;
 244:Drivers/STM32L4xx_HAL_Driver/Src/stm32l4xx_hal_lptim.c **** 
 245:Drivers/STM32L4xx_HAL_Driver/Src/stm32l4xx_hal_lptim.c ****   /* Check the LPTIM handle allocation */
 246:Drivers/STM32L4xx_HAL_Driver/Src/stm32l4xx_hal_lptim.c ****   if (hlptim == NULL)
  48              		.loc 1 246 6
  49 0008 7B68     		ldr	r3, [r7, #4]
  50 000a 002B     		cmp	r3, #0
  51 000c 01D1     		bne	.L2
 247:Drivers/STM32L4xx_HAL_Driver/Src/stm32l4xx_hal_lptim.c ****   {
 248:Drivers/STM32L4xx_HAL_Driver/Src/stm32l4xx_hal_lptim.c ****     return HAL_ERROR;
  52              		.loc 1 248 12
  53 000e 0123     		movs	r3, #1
  54 0010 8FE0     		b	.L3
  55              	.L2:
 249:Drivers/STM32L4xx_HAL_Driver/Src/stm32l4xx_hal_lptim.c ****   }
 250:Drivers/STM32L4xx_HAL_Driver/Src/stm32l4xx_hal_lptim.c **** 
 251:Drivers/STM32L4xx_HAL_Driver/Src/stm32l4xx_hal_lptim.c ****   /* Check the parameters */
 252:Drivers/STM32L4xx_HAL_Driver/Src/stm32l4xx_hal_lptim.c ****   assert_param(IS_LPTIM_INSTANCE(hlptim->Instance));
 253:Drivers/STM32L4xx_HAL_Driver/Src/stm32l4xx_hal_lptim.c **** 
 254:Drivers/STM32L4xx_HAL_Driver/Src/stm32l4xx_hal_lptim.c ****   assert_param(IS_LPTIM_CLOCK_SOURCE(hlptim->Init.Clock.Source));
 255:Drivers/STM32L4xx_HAL_Driver/Src/stm32l4xx_hal_lptim.c ****   assert_param(IS_LPTIM_CLOCK_PRESCALER(hlptim->Init.Clock.Prescaler));
 256:Drivers/STM32L4xx_HAL_Driver/Src/stm32l4xx_hal_lptim.c ****   if ((hlptim->Init.Clock.Source == LPTIM_CLOCKSOURCE_ULPTIM)
  56              		.loc 1 256 26
  57 0012 7B68     		ldr	r3, [r7, #4]
  58 0014 5B68     		ldr	r3, [r3, #4]
  59              		.loc 1 256 6
  60 0016 012B     		cmp	r3, #1
 257:Drivers/STM32L4xx_HAL_Driver/Src/stm32l4xx_hal_lptim.c ****       || (hlptim->Init.CounterSource == LPTIM_COUNTERSOURCE_EXTERNAL))
 258:Drivers/STM32L4xx_HAL_Driver/Src/stm32l4xx_hal_lptim.c ****   {
 259:Drivers/STM32L4xx_HAL_Driver/Src/stm32l4xx_hal_lptim.c ****     assert_param(IS_LPTIM_CLOCK_POLARITY(hlptim->Init.UltraLowPowerClock.Polarity));
 260:Drivers/STM32L4xx_HAL_Driver/Src/stm32l4xx_hal_lptim.c ****     assert_param(IS_LPTIM_CLOCK_SAMPLE_TIME(hlptim->Init.UltraLowPowerClock.SampleTime));
 261:Drivers/STM32L4xx_HAL_Driver/Src/stm32l4xx_hal_lptim.c ****   }
 262:Drivers/STM32L4xx_HAL_Driver/Src/stm32l4xx_hal_lptim.c ****   assert_param(IS_LPTIM_TRG_SOURCE(hlptim->Init.Trigger.Source));
 263:Drivers/STM32L4xx_HAL_Driver/Src/stm32l4xx_hal_lptim.c ****   if (hlptim->Init.Trigger.Source != LPTIM_TRIGSOURCE_SOFTWARE)
 264:Drivers/STM32L4xx_HAL_Driver/Src/stm32l4xx_hal_lptim.c ****   {
 265:Drivers/STM32L4xx_HAL_Driver/Src/stm32l4xx_hal_lptim.c ****     assert_param(IS_LPTIM_EXT_TRG_POLARITY(hlptim->Init.Trigger.ActiveEdge));
 266:Drivers/STM32L4xx_HAL_Driver/Src/stm32l4xx_hal_lptim.c ****     assert_param(IS_LPTIM_TRIG_SAMPLE_TIME(hlptim->Init.Trigger.SampleTime));
 267:Drivers/STM32L4xx_HAL_Driver/Src/stm32l4xx_hal_lptim.c ****   }
 268:Drivers/STM32L4xx_HAL_Driver/Src/stm32l4xx_hal_lptim.c ****   assert_param(IS_LPTIM_OUTPUT_POLARITY(hlptim->Init.OutputPolarity));
 269:Drivers/STM32L4xx_HAL_Driver/Src/stm32l4xx_hal_lptim.c ****   assert_param(IS_LPTIM_UPDATE_MODE(hlptim->Init.UpdateMode));
 270:Drivers/STM32L4xx_HAL_Driver/Src/stm32l4xx_hal_lptim.c ****   assert_param(IS_LPTIM_COUNTER_SOURCE(hlptim->Init.CounterSource));
 271:Drivers/STM32L4xx_HAL_Driver/Src/stm32l4xx_hal_lptim.c **** #if defined(LPTIM_RCR_REP)
 272:Drivers/STM32L4xx_HAL_Driver/Src/stm32l4xx_hal_lptim.c ****   assert_param(IS_LPTIM_REPETITION(hlptim->Init.RepetitionCounter));
 273:Drivers/STM32L4xx_HAL_Driver/Src/stm32l4xx_hal_lptim.c **** #endif
 274:Drivers/STM32L4xx_HAL_Driver/Src/stm32l4xx_hal_lptim.c **** 
 275:Drivers/STM32L4xx_HAL_Driver/Src/stm32l4xx_hal_lptim.c ****   if (hlptim->State == HAL_LPTIM_STATE_RESET)
  61              		.loc 1 275 13
  62 0018 7B68     		ldr	r3, [r7, #4]
  63 001a 93F83630 		ldrb	r3, [r3, #54]
  64 001e DBB2     		uxtb	r3, r3
  65              		.loc 1 275 6
  66 0020 002B     		cmp	r3, #0
  67 0022 06D1     		bne	.L5
 276:Drivers/STM32L4xx_HAL_Driver/Src/stm32l4xx_hal_lptim.c ****   {
 277:Drivers/STM32L4xx_HAL_Driver/Src/stm32l4xx_hal_lptim.c ****     /* Allocate lock resource and initialize it */
ARM GAS  /tmp/ccB7T7H1.s 			page 7


 278:Drivers/STM32L4xx_HAL_Driver/Src/stm32l4xx_hal_lptim.c ****     hlptim->Lock = HAL_UNLOCKED;
  68              		.loc 1 278 18
  69 0024 7B68     		ldr	r3, [r7, #4]
  70 0026 0022     		movs	r2, #0
  71 0028 83F83520 		strb	r2, [r3, #53]
 279:Drivers/STM32L4xx_HAL_Driver/Src/stm32l4xx_hal_lptim.c **** 
 280:Drivers/STM32L4xx_HAL_Driver/Src/stm32l4xx_hal_lptim.c **** #if (USE_HAL_LPTIM_REGISTER_CALLBACKS == 1)
 281:Drivers/STM32L4xx_HAL_Driver/Src/stm32l4xx_hal_lptim.c ****     /* Reset interrupt callbacks to legacy weak callbacks */
 282:Drivers/STM32L4xx_HAL_Driver/Src/stm32l4xx_hal_lptim.c ****     LPTIM_ResetCallback(hlptim);
 283:Drivers/STM32L4xx_HAL_Driver/Src/stm32l4xx_hal_lptim.c **** 
 284:Drivers/STM32L4xx_HAL_Driver/Src/stm32l4xx_hal_lptim.c ****     if (hlptim->MspInitCallback == NULL)
 285:Drivers/STM32L4xx_HAL_Driver/Src/stm32l4xx_hal_lptim.c ****     {
 286:Drivers/STM32L4xx_HAL_Driver/Src/stm32l4xx_hal_lptim.c ****       hlptim->MspInitCallback = HAL_LPTIM_MspInit;
 287:Drivers/STM32L4xx_HAL_Driver/Src/stm32l4xx_hal_lptim.c ****     }
 288:Drivers/STM32L4xx_HAL_Driver/Src/stm32l4xx_hal_lptim.c **** 
 289:Drivers/STM32L4xx_HAL_Driver/Src/stm32l4xx_hal_lptim.c ****     /* Init the low level hardware : GPIO, CLOCK, NVIC */
 290:Drivers/STM32L4xx_HAL_Driver/Src/stm32l4xx_hal_lptim.c ****     hlptim->MspInitCallback(hlptim);
 291:Drivers/STM32L4xx_HAL_Driver/Src/stm32l4xx_hal_lptim.c **** #else
 292:Drivers/STM32L4xx_HAL_Driver/Src/stm32l4xx_hal_lptim.c ****     /* Init the low level hardware : GPIO, CLOCK, NVIC */
 293:Drivers/STM32L4xx_HAL_Driver/Src/stm32l4xx_hal_lptim.c ****     HAL_LPTIM_MspInit(hlptim);
  72              		.loc 1 293 5
  73 002c 7868     		ldr	r0, [r7, #4]
  74 002e FFF7FEFF 		bl	HAL_LPTIM_MspInit
  75              	.L5:
 294:Drivers/STM32L4xx_HAL_Driver/Src/stm32l4xx_hal_lptim.c **** #endif /* USE_HAL_LPTIM_REGISTER_CALLBACKS */
 295:Drivers/STM32L4xx_HAL_Driver/Src/stm32l4xx_hal_lptim.c ****   }
 296:Drivers/STM32L4xx_HAL_Driver/Src/stm32l4xx_hal_lptim.c **** 
 297:Drivers/STM32L4xx_HAL_Driver/Src/stm32l4xx_hal_lptim.c ****   /* Change the LPTIM state */
 298:Drivers/STM32L4xx_HAL_Driver/Src/stm32l4xx_hal_lptim.c ****   hlptim->State = HAL_LPTIM_STATE_BUSY;
  76              		.loc 1 298 17
  77 0032 7B68     		ldr	r3, [r7, #4]
  78 0034 0222     		movs	r2, #2
  79 0036 83F83620 		strb	r2, [r3, #54]
 299:Drivers/STM32L4xx_HAL_Driver/Src/stm32l4xx_hal_lptim.c **** #if defined(LPTIM_RCR_REP)
 300:Drivers/STM32L4xx_HAL_Driver/Src/stm32l4xx_hal_lptim.c **** 
 301:Drivers/STM32L4xx_HAL_Driver/Src/stm32l4xx_hal_lptim.c ****   /* Enable the Peripheral */
 302:Drivers/STM32L4xx_HAL_Driver/Src/stm32l4xx_hal_lptim.c ****   __HAL_LPTIM_ENABLE(hlptim);
 303:Drivers/STM32L4xx_HAL_Driver/Src/stm32l4xx_hal_lptim.c **** 
 304:Drivers/STM32L4xx_HAL_Driver/Src/stm32l4xx_hal_lptim.c ****   /* Clear flag */
 305:Drivers/STM32L4xx_HAL_Driver/Src/stm32l4xx_hal_lptim.c ****   __HAL_LPTIM_CLEAR_FLAG(hlptim, LPTIM_FLAG_REPOK);
 306:Drivers/STM32L4xx_HAL_Driver/Src/stm32l4xx_hal_lptim.c **** 
 307:Drivers/STM32L4xx_HAL_Driver/Src/stm32l4xx_hal_lptim.c ****   /* Set the repetition counter */
 308:Drivers/STM32L4xx_HAL_Driver/Src/stm32l4xx_hal_lptim.c ****   __HAL_LPTIM_REPETITIONCOUNTER_SET(hlptim, hlptim->Init.RepetitionCounter);
 309:Drivers/STM32L4xx_HAL_Driver/Src/stm32l4xx_hal_lptim.c **** 
 310:Drivers/STM32L4xx_HAL_Driver/Src/stm32l4xx_hal_lptim.c ****   /* Wait for the completion of the write operation to the LPTIM_RCR register */
 311:Drivers/STM32L4xx_HAL_Driver/Src/stm32l4xx_hal_lptim.c ****   if (LPTIM_WaitForFlag(hlptim, LPTIM_FLAG_REPOK) == HAL_TIMEOUT)
 312:Drivers/STM32L4xx_HAL_Driver/Src/stm32l4xx_hal_lptim.c ****   {
 313:Drivers/STM32L4xx_HAL_Driver/Src/stm32l4xx_hal_lptim.c ****     return HAL_TIMEOUT;
 314:Drivers/STM32L4xx_HAL_Driver/Src/stm32l4xx_hal_lptim.c ****   }
 315:Drivers/STM32L4xx_HAL_Driver/Src/stm32l4xx_hal_lptim.c **** 
 316:Drivers/STM32L4xx_HAL_Driver/Src/stm32l4xx_hal_lptim.c ****   /* Disable the Peripheral */
 317:Drivers/STM32L4xx_HAL_Driver/Src/stm32l4xx_hal_lptim.c ****   __HAL_LPTIM_DISABLE(hlptim);
 318:Drivers/STM32L4xx_HAL_Driver/Src/stm32l4xx_hal_lptim.c **** 
 319:Drivers/STM32L4xx_HAL_Driver/Src/stm32l4xx_hal_lptim.c ****   if (HAL_LPTIM_GetState(hlptim) == HAL_LPTIM_STATE_TIMEOUT)
 320:Drivers/STM32L4xx_HAL_Driver/Src/stm32l4xx_hal_lptim.c ****   {
 321:Drivers/STM32L4xx_HAL_Driver/Src/stm32l4xx_hal_lptim.c ****     return HAL_TIMEOUT;
 322:Drivers/STM32L4xx_HAL_Driver/Src/stm32l4xx_hal_lptim.c ****   }
ARM GAS  /tmp/ccB7T7H1.s 			page 8


 323:Drivers/STM32L4xx_HAL_Driver/Src/stm32l4xx_hal_lptim.c **** 
 324:Drivers/STM32L4xx_HAL_Driver/Src/stm32l4xx_hal_lptim.c **** #endif
 325:Drivers/STM32L4xx_HAL_Driver/Src/stm32l4xx_hal_lptim.c **** 
 326:Drivers/STM32L4xx_HAL_Driver/Src/stm32l4xx_hal_lptim.c ****   /* Get the LPTIMx CFGR value */
 327:Drivers/STM32L4xx_HAL_Driver/Src/stm32l4xx_hal_lptim.c ****   tmpcfgr = hlptim->Instance->CFGR;
  80              		.loc 1 327 19
  81 003a 7B68     		ldr	r3, [r7, #4]
  82 003c 1B68     		ldr	r3, [r3]
  83              		.loc 1 327 11
  84 003e DB68     		ldr	r3, [r3, #12]
  85 0040 FB60     		str	r3, [r7, #12]
 328:Drivers/STM32L4xx_HAL_Driver/Src/stm32l4xx_hal_lptim.c **** 
 329:Drivers/STM32L4xx_HAL_Driver/Src/stm32l4xx_hal_lptim.c ****   if ((hlptim->Init.Clock.Source == LPTIM_CLOCKSOURCE_ULPTIM)
  86              		.loc 1 329 26
  87 0042 7B68     		ldr	r3, [r7, #4]
  88 0044 5B68     		ldr	r3, [r3, #4]
  89              		.loc 1 329 6
  90 0046 012B     		cmp	r3, #1
  91 0048 04D0     		beq	.L6
 330:Drivers/STM32L4xx_HAL_Driver/Src/stm32l4xx_hal_lptim.c ****       || (hlptim->Init.CounterSource == LPTIM_COUNTERSOURCE_EXTERNAL))
  92              		.loc 1 330 23
  93 004a 7B68     		ldr	r3, [r7, #4]
  94 004c 9B6A     		ldr	r3, [r3, #40]
  95              		.loc 1 330 7
  96 004e B3F5000F 		cmp	r3, #8388608
  97 0052 03D1     		bne	.L7
  98              	.L6:
 331:Drivers/STM32L4xx_HAL_Driver/Src/stm32l4xx_hal_lptim.c ****   {
 332:Drivers/STM32L4xx_HAL_Driver/Src/stm32l4xx_hal_lptim.c ****     tmpcfgr &= (uint32_t)(~(LPTIM_CFGR_CKPOL | LPTIM_CFGR_CKFLT));
  99              		.loc 1 332 13
 100 0054 FB68     		ldr	r3, [r7, #12]
 101 0056 23F01E03 		bic	r3, r3, #30
 102 005a FB60     		str	r3, [r7, #12]
 103              	.L7:
 333:Drivers/STM32L4xx_HAL_Driver/Src/stm32l4xx_hal_lptim.c ****   }
 334:Drivers/STM32L4xx_HAL_Driver/Src/stm32l4xx_hal_lptim.c ****   if (hlptim->Init.Trigger.Source != LPTIM_TRIGSOURCE_SOFTWARE)
 104              		.loc 1 334 27
 105 005c 7B68     		ldr	r3, [r7, #4]
 106 005e 5B69     		ldr	r3, [r3, #20]
 107              		.loc 1 334 6
 108 0060 4FF6FF72 		movw	r2, #65535
 109 0064 9342     		cmp	r3, r2
 110 0066 05D0     		beq	.L8
 335:Drivers/STM32L4xx_HAL_Driver/Src/stm32l4xx_hal_lptim.c ****   {
 336:Drivers/STM32L4xx_HAL_Driver/Src/stm32l4xx_hal_lptim.c ****     tmpcfgr &= (uint32_t)(~(LPTIM_CFGR_TRGFLT | LPTIM_CFGR_TRIGSEL));
 111              		.loc 1 336 13
 112 0068 FB68     		ldr	r3, [r7, #12]
 113 006a 23F46043 		bic	r3, r3, #57344
 114 006e 23F0C003 		bic	r3, r3, #192
 115 0072 FB60     		str	r3, [r7, #12]
 116              	.L8:
 337:Drivers/STM32L4xx_HAL_Driver/Src/stm32l4xx_hal_lptim.c ****   }
 338:Drivers/STM32L4xx_HAL_Driver/Src/stm32l4xx_hal_lptim.c **** 
 339:Drivers/STM32L4xx_HAL_Driver/Src/stm32l4xx_hal_lptim.c ****   /* Clear CKSEL, PRESC, TRIGEN, TRGFLT, WAVPOL, PRELOAD & COUNTMODE bits */
 340:Drivers/STM32L4xx_HAL_Driver/Src/stm32l4xx_hal_lptim.c ****   tmpcfgr &= (uint32_t)(~(LPTIM_CFGR_CKSEL | LPTIM_CFGR_TRIGEN | LPTIM_CFGR_PRELOAD |
 117              		.loc 1 340 11
 118 0074 FA68     		ldr	r2, [r7, #12]
ARM GAS  /tmp/ccB7T7H1.s 			page 9


 119 0076 314B     		ldr	r3, .L15
 120 0078 1340     		ands	r3, r3, r2
 121 007a FB60     		str	r3, [r7, #12]
 341:Drivers/STM32L4xx_HAL_Driver/Src/stm32l4xx_hal_lptim.c ****                           LPTIM_CFGR_WAVPOL | LPTIM_CFGR_PRESC | LPTIM_CFGR_COUNTMODE));
 342:Drivers/STM32L4xx_HAL_Driver/Src/stm32l4xx_hal_lptim.c **** 
 343:Drivers/STM32L4xx_HAL_Driver/Src/stm32l4xx_hal_lptim.c ****   /* Set initialization parameters */
 344:Drivers/STM32L4xx_HAL_Driver/Src/stm32l4xx_hal_lptim.c ****   tmpcfgr |= (hlptim->Init.Clock.Source    |
 122              		.loc 1 344 33
 123 007c 7B68     		ldr	r3, [r7, #4]
 124 007e 5A68     		ldr	r2, [r3, #4]
 345:Drivers/STM32L4xx_HAL_Driver/Src/stm32l4xx_hal_lptim.c ****               hlptim->Init.Clock.Prescaler |
 125              		.loc 1 345 33
 126 0080 7B68     		ldr	r3, [r7, #4]
 127 0082 9B68     		ldr	r3, [r3, #8]
 344:Drivers/STM32L4xx_HAL_Driver/Src/stm32l4xx_hal_lptim.c ****               hlptim->Init.Clock.Prescaler |
 128              		.loc 1 344 44
 129 0084 1A43     		orrs	r2, r2, r3
 346:Drivers/STM32L4xx_HAL_Driver/Src/stm32l4xx_hal_lptim.c ****               hlptim->Init.OutputPolarity  |
 130              		.loc 1 346 27
 131 0086 7B68     		ldr	r3, [r7, #4]
 132 0088 1B6A     		ldr	r3, [r3, #32]
 345:Drivers/STM32L4xx_HAL_Driver/Src/stm32l4xx_hal_lptim.c ****               hlptim->Init.Clock.Prescaler |
 133              		.loc 1 345 44
 134 008a 1A43     		orrs	r2, r2, r3
 347:Drivers/STM32L4xx_HAL_Driver/Src/stm32l4xx_hal_lptim.c ****               hlptim->Init.UpdateMode      |
 135              		.loc 1 347 27
 136 008c 7B68     		ldr	r3, [r7, #4]
 137 008e 5B6A     		ldr	r3, [r3, #36]
 346:Drivers/STM32L4xx_HAL_Driver/Src/stm32l4xx_hal_lptim.c ****               hlptim->Init.OutputPolarity  |
 138              		.loc 1 346 44
 139 0090 1A43     		orrs	r2, r2, r3
 348:Drivers/STM32L4xx_HAL_Driver/Src/stm32l4xx_hal_lptim.c ****               hlptim->Init.CounterSource);
 140              		.loc 1 348 27
 141 0092 7B68     		ldr	r3, [r7, #4]
 142 0094 9B6A     		ldr	r3, [r3, #40]
 347:Drivers/STM32L4xx_HAL_Driver/Src/stm32l4xx_hal_lptim.c ****               hlptim->Init.UpdateMode      |
 143              		.loc 1 347 44
 144 0096 1343     		orrs	r3, r3, r2
 344:Drivers/STM32L4xx_HAL_Driver/Src/stm32l4xx_hal_lptim.c ****               hlptim->Init.Clock.Prescaler |
 145              		.loc 1 344 11
 146 0098 FA68     		ldr	r2, [r7, #12]
 147 009a 1343     		orrs	r3, r3, r2
 148 009c FB60     		str	r3, [r7, #12]
 349:Drivers/STM32L4xx_HAL_Driver/Src/stm32l4xx_hal_lptim.c **** 
 350:Drivers/STM32L4xx_HAL_Driver/Src/stm32l4xx_hal_lptim.c ****   /* Glitch filters for internal triggers and  external inputs are configured
 351:Drivers/STM32L4xx_HAL_Driver/Src/stm32l4xx_hal_lptim.c ****    * only if an internal clock source is provided to the LPTIM
 352:Drivers/STM32L4xx_HAL_Driver/Src/stm32l4xx_hal_lptim.c ****    */
 353:Drivers/STM32L4xx_HAL_Driver/Src/stm32l4xx_hal_lptim.c ****   if (hlptim->Init.Clock.Source == LPTIM_CLOCKSOURCE_APBCLOCK_LPOSC)
 149              		.loc 1 353 25
 150 009e 7B68     		ldr	r3, [r7, #4]
 151 00a0 5B68     		ldr	r3, [r3, #4]
 152              		.loc 1 353 6
 153 00a2 002B     		cmp	r3, #0
 154 00a4 07D1     		bne	.L9
 354:Drivers/STM32L4xx_HAL_Driver/Src/stm32l4xx_hal_lptim.c ****   {
 355:Drivers/STM32L4xx_HAL_Driver/Src/stm32l4xx_hal_lptim.c ****     tmpcfgr |= (hlptim->Init.Trigger.SampleTime |
 155              		.loc 1 355 37
ARM GAS  /tmp/ccB7T7H1.s 			page 10


 156 00a6 7B68     		ldr	r3, [r7, #4]
 157 00a8 DA69     		ldr	r2, [r3, #28]
 356:Drivers/STM32L4xx_HAL_Driver/Src/stm32l4xx_hal_lptim.c ****                 hlptim->Init.UltraLowPowerClock.SampleTime);
 158              		.loc 1 356 48
 159 00aa 7B68     		ldr	r3, [r7, #4]
 160 00ac 1B69     		ldr	r3, [r3, #16]
 355:Drivers/STM32L4xx_HAL_Driver/Src/stm32l4xx_hal_lptim.c ****                 hlptim->Init.UltraLowPowerClock.SampleTime);
 161              		.loc 1 355 49
 162 00ae 1343     		orrs	r3, r3, r2
 355:Drivers/STM32L4xx_HAL_Driver/Src/stm32l4xx_hal_lptim.c ****                 hlptim->Init.UltraLowPowerClock.SampleTime);
 163              		.loc 1 355 13
 164 00b0 FA68     		ldr	r2, [r7, #12]
 165 00b2 1343     		orrs	r3, r3, r2
 166 00b4 FB60     		str	r3, [r7, #12]
 167              	.L9:
 357:Drivers/STM32L4xx_HAL_Driver/Src/stm32l4xx_hal_lptim.c ****   }
 358:Drivers/STM32L4xx_HAL_Driver/Src/stm32l4xx_hal_lptim.c **** 
 359:Drivers/STM32L4xx_HAL_Driver/Src/stm32l4xx_hal_lptim.c ****   /* Configure LPTIM external clock polarity and digital filter */
 360:Drivers/STM32L4xx_HAL_Driver/Src/stm32l4xx_hal_lptim.c ****   if ((hlptim->Init.Clock.Source == LPTIM_CLOCKSOURCE_ULPTIM)
 168              		.loc 1 360 26
 169 00b6 7B68     		ldr	r3, [r7, #4]
 170 00b8 5B68     		ldr	r3, [r3, #4]
 171              		.loc 1 360 6
 172 00ba 012B     		cmp	r3, #1
 173 00bc 04D0     		beq	.L10
 361:Drivers/STM32L4xx_HAL_Driver/Src/stm32l4xx_hal_lptim.c ****       || (hlptim->Init.CounterSource == LPTIM_COUNTERSOURCE_EXTERNAL))
 174              		.loc 1 361 23
 175 00be 7B68     		ldr	r3, [r7, #4]
 176 00c0 9B6A     		ldr	r3, [r3, #40]
 177              		.loc 1 361 7
 178 00c2 B3F5000F 		cmp	r3, #8388608
 179 00c6 07D1     		bne	.L11
 180              	.L10:
 362:Drivers/STM32L4xx_HAL_Driver/Src/stm32l4xx_hal_lptim.c ****   {
 363:Drivers/STM32L4xx_HAL_Driver/Src/stm32l4xx_hal_lptim.c ****     tmpcfgr |= (hlptim->Init.UltraLowPowerClock.Polarity |
 181              		.loc 1 363 48
 182 00c8 7B68     		ldr	r3, [r7, #4]
 183 00ca DA68     		ldr	r2, [r3, #12]
 364:Drivers/STM32L4xx_HAL_Driver/Src/stm32l4xx_hal_lptim.c ****                 hlptim->Init.UltraLowPowerClock.SampleTime);
 184              		.loc 1 364 48
 185 00cc 7B68     		ldr	r3, [r7, #4]
 186 00ce 1B69     		ldr	r3, [r3, #16]
 363:Drivers/STM32L4xx_HAL_Driver/Src/stm32l4xx_hal_lptim.c ****                 hlptim->Init.UltraLowPowerClock.SampleTime);
 187              		.loc 1 363 58
 188 00d0 1343     		orrs	r3, r3, r2
 363:Drivers/STM32L4xx_HAL_Driver/Src/stm32l4xx_hal_lptim.c ****                 hlptim->Init.UltraLowPowerClock.SampleTime);
 189              		.loc 1 363 13
 190 00d2 FA68     		ldr	r2, [r7, #12]
 191 00d4 1343     		orrs	r3, r3, r2
 192 00d6 FB60     		str	r3, [r7, #12]
 193              	.L11:
 365:Drivers/STM32L4xx_HAL_Driver/Src/stm32l4xx_hal_lptim.c ****   }
 366:Drivers/STM32L4xx_HAL_Driver/Src/stm32l4xx_hal_lptim.c **** 
 367:Drivers/STM32L4xx_HAL_Driver/Src/stm32l4xx_hal_lptim.c ****   /* Configure LPTIM external trigger */
 368:Drivers/STM32L4xx_HAL_Driver/Src/stm32l4xx_hal_lptim.c ****   if (hlptim->Init.Trigger.Source != LPTIM_TRIGSOURCE_SOFTWARE)
 194              		.loc 1 368 27
 195 00d8 7B68     		ldr	r3, [r7, #4]
ARM GAS  /tmp/ccB7T7H1.s 			page 11


 196 00da 5B69     		ldr	r3, [r3, #20]
 197              		.loc 1 368 6
 198 00dc 4FF6FF72 		movw	r2, #65535
 199 00e0 9342     		cmp	r3, r2
 200 00e2 0AD0     		beq	.L12
 369:Drivers/STM32L4xx_HAL_Driver/Src/stm32l4xx_hal_lptim.c ****   {
 370:Drivers/STM32L4xx_HAL_Driver/Src/stm32l4xx_hal_lptim.c ****     /* Enable External trigger and set the trigger source */
 371:Drivers/STM32L4xx_HAL_Driver/Src/stm32l4xx_hal_lptim.c ****     tmpcfgr |= (hlptim->Init.Trigger.Source     |
 201              		.loc 1 371 37
 202 00e4 7B68     		ldr	r3, [r7, #4]
 203 00e6 5A69     		ldr	r2, [r3, #20]
 372:Drivers/STM32L4xx_HAL_Driver/Src/stm32l4xx_hal_lptim.c ****                 hlptim->Init.Trigger.ActiveEdge |
 204              		.loc 1 372 37
 205 00e8 7B68     		ldr	r3, [r7, #4]
 206 00ea 9B69     		ldr	r3, [r3, #24]
 371:Drivers/STM32L4xx_HAL_Driver/Src/stm32l4xx_hal_lptim.c ****                 hlptim->Init.Trigger.ActiveEdge |
 207              		.loc 1 371 49
 208 00ec 1A43     		orrs	r2, r2, r3
 373:Drivers/STM32L4xx_HAL_Driver/Src/stm32l4xx_hal_lptim.c ****                 hlptim->Init.Trigger.SampleTime);
 209              		.loc 1 373 37
 210 00ee 7B68     		ldr	r3, [r7, #4]
 211 00f0 DB69     		ldr	r3, [r3, #28]
 372:Drivers/STM32L4xx_HAL_Driver/Src/stm32l4xx_hal_lptim.c ****                 hlptim->Init.Trigger.ActiveEdge |
 212              		.loc 1 372 49
 213 00f2 1343     		orrs	r3, r3, r2
 371:Drivers/STM32L4xx_HAL_Driver/Src/stm32l4xx_hal_lptim.c ****                 hlptim->Init.Trigger.ActiveEdge |
 214              		.loc 1 371 13
 215 00f4 FA68     		ldr	r2, [r7, #12]
 216 00f6 1343     		orrs	r3, r3, r2
 217 00f8 FB60     		str	r3, [r7, #12]
 218              	.L12:
 374:Drivers/STM32L4xx_HAL_Driver/Src/stm32l4xx_hal_lptim.c ****   }
 375:Drivers/STM32L4xx_HAL_Driver/Src/stm32l4xx_hal_lptim.c **** 
 376:Drivers/STM32L4xx_HAL_Driver/Src/stm32l4xx_hal_lptim.c ****   /* Write to LPTIMx CFGR */
 377:Drivers/STM32L4xx_HAL_Driver/Src/stm32l4xx_hal_lptim.c ****   hlptim->Instance->CFGR = tmpcfgr;
 219              		.loc 1 377 9
 220 00fa 7B68     		ldr	r3, [r7, #4]
 221 00fc 1B68     		ldr	r3, [r3]
 222              		.loc 1 377 26
 223 00fe FA68     		ldr	r2, [r7, #12]
 224 0100 DA60     		str	r2, [r3, #12]
 378:Drivers/STM32L4xx_HAL_Driver/Src/stm32l4xx_hal_lptim.c **** 
 379:Drivers/STM32L4xx_HAL_Driver/Src/stm32l4xx_hal_lptim.c ****   /* Configure LPTIM input sources */
 380:Drivers/STM32L4xx_HAL_Driver/Src/stm32l4xx_hal_lptim.c ****   if (hlptim->Instance == LPTIM1)
 225              		.loc 1 380 13
 226 0102 7B68     		ldr	r3, [r7, #4]
 227 0104 1B68     		ldr	r3, [r3]
 228              		.loc 1 380 6
 229 0106 0E4A     		ldr	r2, .L15+4
 230 0108 9342     		cmp	r3, r2
 231 010a 08D1     		bne	.L13
 381:Drivers/STM32L4xx_HAL_Driver/Src/stm32l4xx_hal_lptim.c ****   {
 382:Drivers/STM32L4xx_HAL_Driver/Src/stm32l4xx_hal_lptim.c ****     /* Check LPTIM Input1 and Input2 sources */
 383:Drivers/STM32L4xx_HAL_Driver/Src/stm32l4xx_hal_lptim.c ****     assert_param(IS_LPTIM_INPUT1_SOURCE(hlptim->Instance, hlptim->Init.Input1Source));
 384:Drivers/STM32L4xx_HAL_Driver/Src/stm32l4xx_hal_lptim.c ****     assert_param(IS_LPTIM_INPUT2_SOURCE(hlptim->Instance, hlptim->Init.Input2Source));
 385:Drivers/STM32L4xx_HAL_Driver/Src/stm32l4xx_hal_lptim.c **** 
 386:Drivers/STM32L4xx_HAL_Driver/Src/stm32l4xx_hal_lptim.c ****     /* Configure LPTIM Input1 and Input2 sources */
ARM GAS  /tmp/ccB7T7H1.s 			page 12


 387:Drivers/STM32L4xx_HAL_Driver/Src/stm32l4xx_hal_lptim.c ****     hlptim->Instance->OR = (hlptim->Init.Input1Source | hlptim->Init.Input2Source);
 232              		.loc 1 387 41
 233 010c 7B68     		ldr	r3, [r7, #4]
 234 010e D96A     		ldr	r1, [r3, #44]
 235              		.loc 1 387 69
 236 0110 7B68     		ldr	r3, [r7, #4]
 237 0112 1A6B     		ldr	r2, [r3, #48]
 238              		.loc 1 387 11
 239 0114 7B68     		ldr	r3, [r7, #4]
 240 0116 1B68     		ldr	r3, [r3]
 241              		.loc 1 387 55
 242 0118 0A43     		orrs	r2, r2, r1
 243              		.loc 1 387 26
 244 011a 1A62     		str	r2, [r3, #32]
 245 011c 04E0     		b	.L14
 246              	.L13:
 388:Drivers/STM32L4xx_HAL_Driver/Src/stm32l4xx_hal_lptim.c ****   }
 389:Drivers/STM32L4xx_HAL_Driver/Src/stm32l4xx_hal_lptim.c ****   else
 390:Drivers/STM32L4xx_HAL_Driver/Src/stm32l4xx_hal_lptim.c ****   {
 391:Drivers/STM32L4xx_HAL_Driver/Src/stm32l4xx_hal_lptim.c ****     /* Check LPTIM Input1 source */
 392:Drivers/STM32L4xx_HAL_Driver/Src/stm32l4xx_hal_lptim.c ****     assert_param(IS_LPTIM_INPUT1_SOURCE(hlptim->Instance, hlptim->Init.Input1Source));
 393:Drivers/STM32L4xx_HAL_Driver/Src/stm32l4xx_hal_lptim.c **** 
 394:Drivers/STM32L4xx_HAL_Driver/Src/stm32l4xx_hal_lptim.c ****     /* Configure LPTIM Input1 source */
 395:Drivers/STM32L4xx_HAL_Driver/Src/stm32l4xx_hal_lptim.c ****     hlptim->Instance->OR = hlptim->Init.Input1Source;
 247              		.loc 1 395 11
 248 011e 7B68     		ldr	r3, [r7, #4]
 249 0120 1B68     		ldr	r3, [r3]
 250              		.loc 1 395 40
 251 0122 7A68     		ldr	r2, [r7, #4]
 252 0124 D26A     		ldr	r2, [r2, #44]
 253              		.loc 1 395 26
 254 0126 1A62     		str	r2, [r3, #32]
 255              	.L14:
 396:Drivers/STM32L4xx_HAL_Driver/Src/stm32l4xx_hal_lptim.c ****   }
 397:Drivers/STM32L4xx_HAL_Driver/Src/stm32l4xx_hal_lptim.c **** 
 398:Drivers/STM32L4xx_HAL_Driver/Src/stm32l4xx_hal_lptim.c ****   /* Change the LPTIM state */
 399:Drivers/STM32L4xx_HAL_Driver/Src/stm32l4xx_hal_lptim.c ****   hlptim->State = HAL_LPTIM_STATE_READY;
 256              		.loc 1 399 17
 257 0128 7B68     		ldr	r3, [r7, #4]
 258 012a 0122     		movs	r2, #1
 259 012c 83F83620 		strb	r2, [r3, #54]
 400:Drivers/STM32L4xx_HAL_Driver/Src/stm32l4xx_hal_lptim.c **** 
 401:Drivers/STM32L4xx_HAL_Driver/Src/stm32l4xx_hal_lptim.c ****   /* Return function status */
 402:Drivers/STM32L4xx_HAL_Driver/Src/stm32l4xx_hal_lptim.c ****   return HAL_OK;
 260              		.loc 1 402 10
 261 0130 0023     		movs	r3, #0
 262              	.L3:
 403:Drivers/STM32L4xx_HAL_Driver/Src/stm32l4xx_hal_lptim.c **** }
 263              		.loc 1 403 1
 264 0132 1846     		mov	r0, r3
 265 0134 1037     		adds	r7, r7, #16
 266              		.cfi_def_cfa_offset 8
 267 0136 BD46     		mov	sp, r7
 268              		.cfi_def_cfa_register 13
 269              		@ sp needed
 270 0138 80BD     		pop	{r7, pc}
 271              	.L16:
ARM GAS  /tmp/ccB7T7H1.s 			page 13


 272 013a 00BF     		.align	2
 273              	.L15:
 274 013c FEF119FF 		.word	-15076866
 275 0140 007C0040 		.word	1073773568
 276              		.cfi_endproc
 277              	.LFE445:
 279              		.section	.text.HAL_LPTIM_DeInit,"ax",%progbits
 280              		.align	1
 281              		.global	HAL_LPTIM_DeInit
 282              		.syntax unified
 283              		.thumb
 284              		.thumb_func
 286              	HAL_LPTIM_DeInit:
 287              	.LFB446:
 404:Drivers/STM32L4xx_HAL_Driver/Src/stm32l4xx_hal_lptim.c **** 
 405:Drivers/STM32L4xx_HAL_Driver/Src/stm32l4xx_hal_lptim.c **** /**
 406:Drivers/STM32L4xx_HAL_Driver/Src/stm32l4xx_hal_lptim.c ****   * @brief  DeInitialize the LPTIM peripheral.
 407:Drivers/STM32L4xx_HAL_Driver/Src/stm32l4xx_hal_lptim.c ****   * @param  hlptim LPTIM handle
 408:Drivers/STM32L4xx_HAL_Driver/Src/stm32l4xx_hal_lptim.c ****   * @retval HAL status
 409:Drivers/STM32L4xx_HAL_Driver/Src/stm32l4xx_hal_lptim.c ****   */
 410:Drivers/STM32L4xx_HAL_Driver/Src/stm32l4xx_hal_lptim.c **** HAL_StatusTypeDef HAL_LPTIM_DeInit(LPTIM_HandleTypeDef *hlptim)
 411:Drivers/STM32L4xx_HAL_Driver/Src/stm32l4xx_hal_lptim.c **** {
 288              		.loc 1 411 1
 289              		.cfi_startproc
 290              		@ args = 0, pretend = 0, frame = 8
 291              		@ frame_needed = 1, uses_anonymous_args = 0
 292 0000 80B5     		push	{r7, lr}
 293              		.cfi_def_cfa_offset 8
 294              		.cfi_offset 7, -8
 295              		.cfi_offset 14, -4
 296 0002 82B0     		sub	sp, sp, #8
 297              		.cfi_def_cfa_offset 16
 298 0004 00AF     		add	r7, sp, #0
 299              		.cfi_def_cfa_register 7
 300 0006 7860     		str	r0, [r7, #4]
 412:Drivers/STM32L4xx_HAL_Driver/Src/stm32l4xx_hal_lptim.c ****   /* Check the LPTIM handle allocation */
 413:Drivers/STM32L4xx_HAL_Driver/Src/stm32l4xx_hal_lptim.c ****   if (hlptim == NULL)
 301              		.loc 1 413 6
 302 0008 7B68     		ldr	r3, [r7, #4]
 303 000a 002B     		cmp	r3, #0
 304 000c 01D1     		bne	.L18
 414:Drivers/STM32L4xx_HAL_Driver/Src/stm32l4xx_hal_lptim.c ****   {
 415:Drivers/STM32L4xx_HAL_Driver/Src/stm32l4xx_hal_lptim.c ****     return HAL_ERROR;
 305              		.loc 1 415 12
 306 000e 0123     		movs	r3, #1
 307 0010 1AE0     		b	.L19
 308              	.L18:
 416:Drivers/STM32L4xx_HAL_Driver/Src/stm32l4xx_hal_lptim.c ****   }
 417:Drivers/STM32L4xx_HAL_Driver/Src/stm32l4xx_hal_lptim.c **** 
 418:Drivers/STM32L4xx_HAL_Driver/Src/stm32l4xx_hal_lptim.c ****   /* Change the LPTIM state */
 419:Drivers/STM32L4xx_HAL_Driver/Src/stm32l4xx_hal_lptim.c ****   hlptim->State = HAL_LPTIM_STATE_BUSY;
 309              		.loc 1 419 17
 310 0012 7B68     		ldr	r3, [r7, #4]
 311 0014 0222     		movs	r2, #2
 312 0016 83F83620 		strb	r2, [r3, #54]
 420:Drivers/STM32L4xx_HAL_Driver/Src/stm32l4xx_hal_lptim.c **** 
 421:Drivers/STM32L4xx_HAL_Driver/Src/stm32l4xx_hal_lptim.c ****   /* Disable the LPTIM Peripheral Clock */
ARM GAS  /tmp/ccB7T7H1.s 			page 14


 422:Drivers/STM32L4xx_HAL_Driver/Src/stm32l4xx_hal_lptim.c ****   __HAL_LPTIM_DISABLE(hlptim);
 313              		.loc 1 422 3
 314 001a 7868     		ldr	r0, [r7, #4]
 315 001c FFF7FEFF 		bl	LPTIM_Disable
 423:Drivers/STM32L4xx_HAL_Driver/Src/stm32l4xx_hal_lptim.c **** 
 424:Drivers/STM32L4xx_HAL_Driver/Src/stm32l4xx_hal_lptim.c ****   if (HAL_LPTIM_GetState(hlptim) == HAL_LPTIM_STATE_TIMEOUT)
 316              		.loc 1 424 7
 317 0020 7868     		ldr	r0, [r7, #4]
 318 0022 FFF7FEFF 		bl	HAL_LPTIM_GetState
 319 0026 0346     		mov	r3, r0
 320              		.loc 1 424 6 discriminator 1
 321 0028 032B     		cmp	r3, #3
 322 002a 01D1     		bne	.L20
 425:Drivers/STM32L4xx_HAL_Driver/Src/stm32l4xx_hal_lptim.c ****   {
 426:Drivers/STM32L4xx_HAL_Driver/Src/stm32l4xx_hal_lptim.c ****     return HAL_TIMEOUT;
 323              		.loc 1 426 12
 324 002c 0323     		movs	r3, #3
 325 002e 0BE0     		b	.L19
 326              	.L20:
 427:Drivers/STM32L4xx_HAL_Driver/Src/stm32l4xx_hal_lptim.c ****   }
 428:Drivers/STM32L4xx_HAL_Driver/Src/stm32l4xx_hal_lptim.c **** 
 429:Drivers/STM32L4xx_HAL_Driver/Src/stm32l4xx_hal_lptim.c **** #if (USE_HAL_LPTIM_REGISTER_CALLBACKS == 1)
 430:Drivers/STM32L4xx_HAL_Driver/Src/stm32l4xx_hal_lptim.c ****   if (hlptim->MspDeInitCallback == NULL)
 431:Drivers/STM32L4xx_HAL_Driver/Src/stm32l4xx_hal_lptim.c ****   {
 432:Drivers/STM32L4xx_HAL_Driver/Src/stm32l4xx_hal_lptim.c ****     hlptim->MspDeInitCallback = HAL_LPTIM_MspDeInit;
 433:Drivers/STM32L4xx_HAL_Driver/Src/stm32l4xx_hal_lptim.c ****   }
 434:Drivers/STM32L4xx_HAL_Driver/Src/stm32l4xx_hal_lptim.c **** 
 435:Drivers/STM32L4xx_HAL_Driver/Src/stm32l4xx_hal_lptim.c ****   /* DeInit the low level hardware: CLOCK, NVIC.*/
 436:Drivers/STM32L4xx_HAL_Driver/Src/stm32l4xx_hal_lptim.c ****   hlptim->MspDeInitCallback(hlptim);
 437:Drivers/STM32L4xx_HAL_Driver/Src/stm32l4xx_hal_lptim.c **** #else
 438:Drivers/STM32L4xx_HAL_Driver/Src/stm32l4xx_hal_lptim.c ****   /* DeInit the low level hardware: CLOCK, NVIC.*/
 439:Drivers/STM32L4xx_HAL_Driver/Src/stm32l4xx_hal_lptim.c ****   HAL_LPTIM_MspDeInit(hlptim);
 327              		.loc 1 439 3
 328 0030 7868     		ldr	r0, [r7, #4]
 329 0032 FFF7FEFF 		bl	HAL_LPTIM_MspDeInit
 440:Drivers/STM32L4xx_HAL_Driver/Src/stm32l4xx_hal_lptim.c **** #endif /* USE_HAL_LPTIM_REGISTER_CALLBACKS */
 441:Drivers/STM32L4xx_HAL_Driver/Src/stm32l4xx_hal_lptim.c **** 
 442:Drivers/STM32L4xx_HAL_Driver/Src/stm32l4xx_hal_lptim.c ****   /* Change the LPTIM state */
 443:Drivers/STM32L4xx_HAL_Driver/Src/stm32l4xx_hal_lptim.c ****   hlptim->State = HAL_LPTIM_STATE_RESET;
 330              		.loc 1 443 17
 331 0036 7B68     		ldr	r3, [r7, #4]
 332 0038 0022     		movs	r2, #0
 333 003a 83F83620 		strb	r2, [r3, #54]
 444:Drivers/STM32L4xx_HAL_Driver/Src/stm32l4xx_hal_lptim.c **** 
 445:Drivers/STM32L4xx_HAL_Driver/Src/stm32l4xx_hal_lptim.c ****   /* Release Lock */
 446:Drivers/STM32L4xx_HAL_Driver/Src/stm32l4xx_hal_lptim.c ****   __HAL_UNLOCK(hlptim);
 334              		.loc 1 446 3
 335 003e 7B68     		ldr	r3, [r7, #4]
 336 0040 0022     		movs	r2, #0
 337 0042 83F83520 		strb	r2, [r3, #53]
 447:Drivers/STM32L4xx_HAL_Driver/Src/stm32l4xx_hal_lptim.c **** 
 448:Drivers/STM32L4xx_HAL_Driver/Src/stm32l4xx_hal_lptim.c ****   /* Return function status */
 449:Drivers/STM32L4xx_HAL_Driver/Src/stm32l4xx_hal_lptim.c ****   return HAL_OK;
 338              		.loc 1 449 10
 339 0046 0023     		movs	r3, #0
 340              	.L19:
 450:Drivers/STM32L4xx_HAL_Driver/Src/stm32l4xx_hal_lptim.c **** }
ARM GAS  /tmp/ccB7T7H1.s 			page 15


 341              		.loc 1 450 1
 342 0048 1846     		mov	r0, r3
 343 004a 0837     		adds	r7, r7, #8
 344              		.cfi_def_cfa_offset 8
 345 004c BD46     		mov	sp, r7
 346              		.cfi_def_cfa_register 13
 347              		@ sp needed
 348 004e 80BD     		pop	{r7, pc}
 349              		.cfi_endproc
 350              	.LFE446:
 352              		.section	.text.HAL_LPTIM_MspInit,"ax",%progbits
 353              		.align	1
 354              		.weak	HAL_LPTIM_MspInit
 355              		.syntax unified
 356              		.thumb
 357              		.thumb_func
 359              	HAL_LPTIM_MspInit:
 360              	.LFB447:
 451:Drivers/STM32L4xx_HAL_Driver/Src/stm32l4xx_hal_lptim.c **** 
 452:Drivers/STM32L4xx_HAL_Driver/Src/stm32l4xx_hal_lptim.c **** /**
 453:Drivers/STM32L4xx_HAL_Driver/Src/stm32l4xx_hal_lptim.c ****   * @brief  Initialize the LPTIM MSP.
 454:Drivers/STM32L4xx_HAL_Driver/Src/stm32l4xx_hal_lptim.c ****   * @param  hlptim LPTIM handle
 455:Drivers/STM32L4xx_HAL_Driver/Src/stm32l4xx_hal_lptim.c ****   * @retval None
 456:Drivers/STM32L4xx_HAL_Driver/Src/stm32l4xx_hal_lptim.c ****   */
 457:Drivers/STM32L4xx_HAL_Driver/Src/stm32l4xx_hal_lptim.c **** __weak void HAL_LPTIM_MspInit(LPTIM_HandleTypeDef *hlptim)
 458:Drivers/STM32L4xx_HAL_Driver/Src/stm32l4xx_hal_lptim.c **** {
 361              		.loc 1 458 1
 362              		.cfi_startproc
 363              		@ args = 0, pretend = 0, frame = 8
 364              		@ frame_needed = 1, uses_anonymous_args = 0
 365              		@ link register save eliminated.
 366 0000 80B4     		push	{r7}
 367              		.cfi_def_cfa_offset 4
 368              		.cfi_offset 7, -4
 369 0002 83B0     		sub	sp, sp, #12
 370              		.cfi_def_cfa_offset 16
 371 0004 00AF     		add	r7, sp, #0
 372              		.cfi_def_cfa_register 7
 373 0006 7860     		str	r0, [r7, #4]
 459:Drivers/STM32L4xx_HAL_Driver/Src/stm32l4xx_hal_lptim.c ****   /* Prevent unused argument(s) compilation warning */
 460:Drivers/STM32L4xx_HAL_Driver/Src/stm32l4xx_hal_lptim.c ****   UNUSED(hlptim);
 461:Drivers/STM32L4xx_HAL_Driver/Src/stm32l4xx_hal_lptim.c **** 
 462:Drivers/STM32L4xx_HAL_Driver/Src/stm32l4xx_hal_lptim.c ****   /* NOTE : This function should not be modified, when the callback is needed,
 463:Drivers/STM32L4xx_HAL_Driver/Src/stm32l4xx_hal_lptim.c ****             the HAL_LPTIM_MspInit could be implemented in the user file
 464:Drivers/STM32L4xx_HAL_Driver/Src/stm32l4xx_hal_lptim.c ****    */
 465:Drivers/STM32L4xx_HAL_Driver/Src/stm32l4xx_hal_lptim.c **** }
 374              		.loc 1 465 1
 375 0008 00BF     		nop
 376 000a 0C37     		adds	r7, r7, #12
 377              		.cfi_def_cfa_offset 4
 378 000c BD46     		mov	sp, r7
 379              		.cfi_def_cfa_register 13
 380              		@ sp needed
 381 000e 5DF8047B 		ldr	r7, [sp], #4
 382              		.cfi_restore 7
 383              		.cfi_def_cfa_offset 0
 384 0012 7047     		bx	lr
ARM GAS  /tmp/ccB7T7H1.s 			page 16


 385              		.cfi_endproc
 386              	.LFE447:
 388              		.section	.text.HAL_LPTIM_MspDeInit,"ax",%progbits
 389              		.align	1
 390              		.weak	HAL_LPTIM_MspDeInit
 391              		.syntax unified
 392              		.thumb
 393              		.thumb_func
 395              	HAL_LPTIM_MspDeInit:
 396              	.LFB448:
 466:Drivers/STM32L4xx_HAL_Driver/Src/stm32l4xx_hal_lptim.c **** 
 467:Drivers/STM32L4xx_HAL_Driver/Src/stm32l4xx_hal_lptim.c **** /**
 468:Drivers/STM32L4xx_HAL_Driver/Src/stm32l4xx_hal_lptim.c ****   * @brief  DeInitialize LPTIM MSP.
 469:Drivers/STM32L4xx_HAL_Driver/Src/stm32l4xx_hal_lptim.c ****   * @param  hlptim LPTIM handle
 470:Drivers/STM32L4xx_HAL_Driver/Src/stm32l4xx_hal_lptim.c ****   * @retval None
 471:Drivers/STM32L4xx_HAL_Driver/Src/stm32l4xx_hal_lptim.c ****   */
 472:Drivers/STM32L4xx_HAL_Driver/Src/stm32l4xx_hal_lptim.c **** __weak void HAL_LPTIM_MspDeInit(LPTIM_HandleTypeDef *hlptim)
 473:Drivers/STM32L4xx_HAL_Driver/Src/stm32l4xx_hal_lptim.c **** {
 397              		.loc 1 473 1
 398              		.cfi_startproc
 399              		@ args = 0, pretend = 0, frame = 8
 400              		@ frame_needed = 1, uses_anonymous_args = 0
 401              		@ link register save eliminated.
 402 0000 80B4     		push	{r7}
 403              		.cfi_def_cfa_offset 4
 404              		.cfi_offset 7, -4
 405 0002 83B0     		sub	sp, sp, #12
 406              		.cfi_def_cfa_offset 16
 407 0004 00AF     		add	r7, sp, #0
 408              		.cfi_def_cfa_register 7
 409 0006 7860     		str	r0, [r7, #4]
 474:Drivers/STM32L4xx_HAL_Driver/Src/stm32l4xx_hal_lptim.c ****   /* Prevent unused argument(s) compilation warning */
 475:Drivers/STM32L4xx_HAL_Driver/Src/stm32l4xx_hal_lptim.c ****   UNUSED(hlptim);
 476:Drivers/STM32L4xx_HAL_Driver/Src/stm32l4xx_hal_lptim.c **** 
 477:Drivers/STM32L4xx_HAL_Driver/Src/stm32l4xx_hal_lptim.c ****   /* NOTE : This function should not be modified, when the callback is needed,
 478:Drivers/STM32L4xx_HAL_Driver/Src/stm32l4xx_hal_lptim.c ****             the HAL_LPTIM_MspDeInit could be implemented in the user file
 479:Drivers/STM32L4xx_HAL_Driver/Src/stm32l4xx_hal_lptim.c ****    */
 480:Drivers/STM32L4xx_HAL_Driver/Src/stm32l4xx_hal_lptim.c **** }
 410              		.loc 1 480 1
 411 0008 00BF     		nop
 412 000a 0C37     		adds	r7, r7, #12
 413              		.cfi_def_cfa_offset 4
 414 000c BD46     		mov	sp, r7
 415              		.cfi_def_cfa_register 13
 416              		@ sp needed
 417 000e 5DF8047B 		ldr	r7, [sp], #4
 418              		.cfi_restore 7
 419              		.cfi_def_cfa_offset 0
 420 0012 7047     		bx	lr
 421              		.cfi_endproc
 422              	.LFE448:
 424              		.section	.text.HAL_LPTIM_PWM_Start,"ax",%progbits
 425              		.align	1
 426              		.global	HAL_LPTIM_PWM_Start
 427              		.syntax unified
 428              		.thumb
 429              		.thumb_func
ARM GAS  /tmp/ccB7T7H1.s 			page 17


 431              	HAL_LPTIM_PWM_Start:
 432              	.LFB449:
 481:Drivers/STM32L4xx_HAL_Driver/Src/stm32l4xx_hal_lptim.c **** 
 482:Drivers/STM32L4xx_HAL_Driver/Src/stm32l4xx_hal_lptim.c **** /**
 483:Drivers/STM32L4xx_HAL_Driver/Src/stm32l4xx_hal_lptim.c ****   * @}
 484:Drivers/STM32L4xx_HAL_Driver/Src/stm32l4xx_hal_lptim.c ****   */
 485:Drivers/STM32L4xx_HAL_Driver/Src/stm32l4xx_hal_lptim.c **** 
 486:Drivers/STM32L4xx_HAL_Driver/Src/stm32l4xx_hal_lptim.c **** /** @defgroup LPTIM_Exported_Functions_Group2 LPTIM Start-Stop operation functions
 487:Drivers/STM32L4xx_HAL_Driver/Src/stm32l4xx_hal_lptim.c ****   *  @brief   Start-Stop operation functions.
 488:Drivers/STM32L4xx_HAL_Driver/Src/stm32l4xx_hal_lptim.c ****   *
 489:Drivers/STM32L4xx_HAL_Driver/Src/stm32l4xx_hal_lptim.c **** @verbatim
 490:Drivers/STM32L4xx_HAL_Driver/Src/stm32l4xx_hal_lptim.c ****   ==============================================================================
 491:Drivers/STM32L4xx_HAL_Driver/Src/stm32l4xx_hal_lptim.c ****                 ##### LPTIM Start Stop operation functions #####
 492:Drivers/STM32L4xx_HAL_Driver/Src/stm32l4xx_hal_lptim.c ****   ==============================================================================
 493:Drivers/STM32L4xx_HAL_Driver/Src/stm32l4xx_hal_lptim.c ****     [..]  This section provides functions allowing to:
 494:Drivers/STM32L4xx_HAL_Driver/Src/stm32l4xx_hal_lptim.c ****       (+) Start the PWM mode.
 495:Drivers/STM32L4xx_HAL_Driver/Src/stm32l4xx_hal_lptim.c ****       (+) Stop the PWM mode.
 496:Drivers/STM32L4xx_HAL_Driver/Src/stm32l4xx_hal_lptim.c ****       (+) Start the One pulse mode.
 497:Drivers/STM32L4xx_HAL_Driver/Src/stm32l4xx_hal_lptim.c ****       (+) Stop the One pulse mode.
 498:Drivers/STM32L4xx_HAL_Driver/Src/stm32l4xx_hal_lptim.c ****       (+) Start the Set once mode.
 499:Drivers/STM32L4xx_HAL_Driver/Src/stm32l4xx_hal_lptim.c ****       (+) Stop the Set once mode.
 500:Drivers/STM32L4xx_HAL_Driver/Src/stm32l4xx_hal_lptim.c ****       (+) Start the Encoder mode.
 501:Drivers/STM32L4xx_HAL_Driver/Src/stm32l4xx_hal_lptim.c ****       (+) Stop the Encoder mode.
 502:Drivers/STM32L4xx_HAL_Driver/Src/stm32l4xx_hal_lptim.c ****       (+) Start the Timeout mode.
 503:Drivers/STM32L4xx_HAL_Driver/Src/stm32l4xx_hal_lptim.c ****       (+) Stop the Timeout mode.
 504:Drivers/STM32L4xx_HAL_Driver/Src/stm32l4xx_hal_lptim.c ****       (+) Start the Counter mode.
 505:Drivers/STM32L4xx_HAL_Driver/Src/stm32l4xx_hal_lptim.c ****       (+) Stop the Counter mode.
 506:Drivers/STM32L4xx_HAL_Driver/Src/stm32l4xx_hal_lptim.c **** 
 507:Drivers/STM32L4xx_HAL_Driver/Src/stm32l4xx_hal_lptim.c **** 
 508:Drivers/STM32L4xx_HAL_Driver/Src/stm32l4xx_hal_lptim.c **** @endverbatim
 509:Drivers/STM32L4xx_HAL_Driver/Src/stm32l4xx_hal_lptim.c ****   * @{
 510:Drivers/STM32L4xx_HAL_Driver/Src/stm32l4xx_hal_lptim.c ****   */
 511:Drivers/STM32L4xx_HAL_Driver/Src/stm32l4xx_hal_lptim.c **** 
 512:Drivers/STM32L4xx_HAL_Driver/Src/stm32l4xx_hal_lptim.c **** /**
 513:Drivers/STM32L4xx_HAL_Driver/Src/stm32l4xx_hal_lptim.c ****   * @brief  Start the LPTIM PWM generation.
 514:Drivers/STM32L4xx_HAL_Driver/Src/stm32l4xx_hal_lptim.c ****   * @param  hlptim LPTIM handle
 515:Drivers/STM32L4xx_HAL_Driver/Src/stm32l4xx_hal_lptim.c ****   * @param  Period Specifies the Autoreload value.
 516:Drivers/STM32L4xx_HAL_Driver/Src/stm32l4xx_hal_lptim.c ****   *         This parameter must be a value between 0x0001 and 0xFFFF.
 517:Drivers/STM32L4xx_HAL_Driver/Src/stm32l4xx_hal_lptim.c ****   * @param  Pulse Specifies the compare value.
 518:Drivers/STM32L4xx_HAL_Driver/Src/stm32l4xx_hal_lptim.c ****   *         This parameter must be a value between 0x0000 and 0xFFFF.
 519:Drivers/STM32L4xx_HAL_Driver/Src/stm32l4xx_hal_lptim.c ****   * @retval HAL status
 520:Drivers/STM32L4xx_HAL_Driver/Src/stm32l4xx_hal_lptim.c ****   */
 521:Drivers/STM32L4xx_HAL_Driver/Src/stm32l4xx_hal_lptim.c **** HAL_StatusTypeDef HAL_LPTIM_PWM_Start(LPTIM_HandleTypeDef *hlptim, uint32_t Period, uint32_t Pulse)
 522:Drivers/STM32L4xx_HAL_Driver/Src/stm32l4xx_hal_lptim.c **** {
 433              		.loc 1 522 1
 434              		.cfi_startproc
 435              		@ args = 0, pretend = 0, frame = 16
 436              		@ frame_needed = 1, uses_anonymous_args = 0
 437 0000 80B5     		push	{r7, lr}
 438              		.cfi_def_cfa_offset 8
 439              		.cfi_offset 7, -8
 440              		.cfi_offset 14, -4
 441 0002 84B0     		sub	sp, sp, #16
 442              		.cfi_def_cfa_offset 24
 443 0004 00AF     		add	r7, sp, #0
 444              		.cfi_def_cfa_register 7
 445 0006 F860     		str	r0, [r7, #12]
ARM GAS  /tmp/ccB7T7H1.s 			page 18


 446 0008 B960     		str	r1, [r7, #8]
 447 000a 7A60     		str	r2, [r7, #4]
 523:Drivers/STM32L4xx_HAL_Driver/Src/stm32l4xx_hal_lptim.c ****   /* Check the parameters */
 524:Drivers/STM32L4xx_HAL_Driver/Src/stm32l4xx_hal_lptim.c ****   assert_param(IS_LPTIM_INSTANCE(hlptim->Instance));
 525:Drivers/STM32L4xx_HAL_Driver/Src/stm32l4xx_hal_lptim.c ****   assert_param(IS_LPTIM_PERIOD(Period));
 526:Drivers/STM32L4xx_HAL_Driver/Src/stm32l4xx_hal_lptim.c ****   assert_param(IS_LPTIM_PULSE(Pulse));
 527:Drivers/STM32L4xx_HAL_Driver/Src/stm32l4xx_hal_lptim.c **** 
 528:Drivers/STM32L4xx_HAL_Driver/Src/stm32l4xx_hal_lptim.c ****   /* Set the LPTIM state */
 529:Drivers/STM32L4xx_HAL_Driver/Src/stm32l4xx_hal_lptim.c ****   hlptim->State = HAL_LPTIM_STATE_BUSY;
 448              		.loc 1 529 17
 449 000c FB68     		ldr	r3, [r7, #12]
 450 000e 0222     		movs	r2, #2
 451 0010 83F83620 		strb	r2, [r3, #54]
 530:Drivers/STM32L4xx_HAL_Driver/Src/stm32l4xx_hal_lptim.c **** 
 531:Drivers/STM32L4xx_HAL_Driver/Src/stm32l4xx_hal_lptim.c ****   /* Reset WAVE bit to set PWM mode */
 532:Drivers/STM32L4xx_HAL_Driver/Src/stm32l4xx_hal_lptim.c ****   hlptim->Instance->CFGR &= ~LPTIM_CFGR_WAVE;
 452              		.loc 1 532 9
 453 0014 FB68     		ldr	r3, [r7, #12]
 454 0016 1B68     		ldr	r3, [r3]
 455              		.loc 1 532 19
 456 0018 DA68     		ldr	r2, [r3, #12]
 457              		.loc 1 532 9
 458 001a FB68     		ldr	r3, [r7, #12]
 459 001c 1B68     		ldr	r3, [r3]
 460              		.loc 1 532 26
 461 001e 22F48012 		bic	r2, r2, #1048576
 462 0022 DA60     		str	r2, [r3, #12]
 533:Drivers/STM32L4xx_HAL_Driver/Src/stm32l4xx_hal_lptim.c **** 
 534:Drivers/STM32L4xx_HAL_Driver/Src/stm32l4xx_hal_lptim.c ****   /* Enable the Peripheral */
 535:Drivers/STM32L4xx_HAL_Driver/Src/stm32l4xx_hal_lptim.c ****   __HAL_LPTIM_ENABLE(hlptim);
 463              		.loc 1 535 3
 464 0024 FB68     		ldr	r3, [r7, #12]
 465 0026 1B68     		ldr	r3, [r3]
 466 0028 1A69     		ldr	r2, [r3, #16]
 467 002a FB68     		ldr	r3, [r7, #12]
 468 002c 1B68     		ldr	r3, [r3]
 469 002e 42F00102 		orr	r2, r2, #1
 470 0032 1A61     		str	r2, [r3, #16]
 536:Drivers/STM32L4xx_HAL_Driver/Src/stm32l4xx_hal_lptim.c **** 
 537:Drivers/STM32L4xx_HAL_Driver/Src/stm32l4xx_hal_lptim.c ****   /* Clear flag */
 538:Drivers/STM32L4xx_HAL_Driver/Src/stm32l4xx_hal_lptim.c ****   __HAL_LPTIM_CLEAR_FLAG(hlptim, LPTIM_FLAG_ARROK);
 471              		.loc 1 538 3
 472 0034 FB68     		ldr	r3, [r7, #12]
 473 0036 1B68     		ldr	r3, [r3]
 474 0038 1022     		movs	r2, #16
 475 003a 5A60     		str	r2, [r3, #4]
 539:Drivers/STM32L4xx_HAL_Driver/Src/stm32l4xx_hal_lptim.c **** 
 540:Drivers/STM32L4xx_HAL_Driver/Src/stm32l4xx_hal_lptim.c ****   /* Load the period value in the autoreload register */
 541:Drivers/STM32L4xx_HAL_Driver/Src/stm32l4xx_hal_lptim.c ****   __HAL_LPTIM_AUTORELOAD_SET(hlptim, Period);
 476              		.loc 1 541 3
 477 003c FB68     		ldr	r3, [r7, #12]
 478 003e 1B68     		ldr	r3, [r3]
 479 0040 BA68     		ldr	r2, [r7, #8]
 480 0042 9A61     		str	r2, [r3, #24]
 542:Drivers/STM32L4xx_HAL_Driver/Src/stm32l4xx_hal_lptim.c **** 
 543:Drivers/STM32L4xx_HAL_Driver/Src/stm32l4xx_hal_lptim.c ****   /* Wait for the completion of the write operation to the LPTIM_ARR register */
 544:Drivers/STM32L4xx_HAL_Driver/Src/stm32l4xx_hal_lptim.c ****   if (LPTIM_WaitForFlag(hlptim, LPTIM_FLAG_ARROK) == HAL_TIMEOUT)
ARM GAS  /tmp/ccB7T7H1.s 			page 19


 481              		.loc 1 544 7
 482 0044 1021     		movs	r1, #16
 483 0046 F868     		ldr	r0, [r7, #12]
 484 0048 FFF7FEFF 		bl	LPTIM_WaitForFlag
 485 004c 0346     		mov	r3, r0
 486              		.loc 1 544 6 discriminator 1
 487 004e 032B     		cmp	r3, #3
 488 0050 01D1     		bne	.L24
 545:Drivers/STM32L4xx_HAL_Driver/Src/stm32l4xx_hal_lptim.c ****   {
 546:Drivers/STM32L4xx_HAL_Driver/Src/stm32l4xx_hal_lptim.c ****     return HAL_TIMEOUT;
 489              		.loc 1 546 12
 490 0052 0323     		movs	r3, #3
 491 0054 1DE0     		b	.L25
 492              	.L24:
 547:Drivers/STM32L4xx_HAL_Driver/Src/stm32l4xx_hal_lptim.c ****   }
 548:Drivers/STM32L4xx_HAL_Driver/Src/stm32l4xx_hal_lptim.c **** 
 549:Drivers/STM32L4xx_HAL_Driver/Src/stm32l4xx_hal_lptim.c ****   /* Clear flag */
 550:Drivers/STM32L4xx_HAL_Driver/Src/stm32l4xx_hal_lptim.c ****   __HAL_LPTIM_CLEAR_FLAG(hlptim, LPTIM_FLAG_CMPOK);
 493              		.loc 1 550 3
 494 0056 FB68     		ldr	r3, [r7, #12]
 495 0058 1B68     		ldr	r3, [r3]
 496 005a 0822     		movs	r2, #8
 497 005c 5A60     		str	r2, [r3, #4]
 551:Drivers/STM32L4xx_HAL_Driver/Src/stm32l4xx_hal_lptim.c **** 
 552:Drivers/STM32L4xx_HAL_Driver/Src/stm32l4xx_hal_lptim.c ****   /* Load the pulse value in the compare register */
 553:Drivers/STM32L4xx_HAL_Driver/Src/stm32l4xx_hal_lptim.c ****   __HAL_LPTIM_COMPARE_SET(hlptim, Pulse);
 498              		.loc 1 553 3
 499 005e FB68     		ldr	r3, [r7, #12]
 500 0060 1B68     		ldr	r3, [r3]
 501 0062 7A68     		ldr	r2, [r7, #4]
 502 0064 5A61     		str	r2, [r3, #20]
 554:Drivers/STM32L4xx_HAL_Driver/Src/stm32l4xx_hal_lptim.c **** 
 555:Drivers/STM32L4xx_HAL_Driver/Src/stm32l4xx_hal_lptim.c ****   /* Wait for the completion of the write operation to the LPTIM_CMP register */
 556:Drivers/STM32L4xx_HAL_Driver/Src/stm32l4xx_hal_lptim.c ****   if (LPTIM_WaitForFlag(hlptim, LPTIM_FLAG_CMPOK) == HAL_TIMEOUT)
 503              		.loc 1 556 7
 504 0066 0821     		movs	r1, #8
 505 0068 F868     		ldr	r0, [r7, #12]
 506 006a FFF7FEFF 		bl	LPTIM_WaitForFlag
 507 006e 0346     		mov	r3, r0
 508              		.loc 1 556 6 discriminator 1
 509 0070 032B     		cmp	r3, #3
 510 0072 01D1     		bne	.L26
 557:Drivers/STM32L4xx_HAL_Driver/Src/stm32l4xx_hal_lptim.c ****   {
 558:Drivers/STM32L4xx_HAL_Driver/Src/stm32l4xx_hal_lptim.c ****     return HAL_TIMEOUT;
 511              		.loc 1 558 12
 512 0074 0323     		movs	r3, #3
 513 0076 0CE0     		b	.L25
 514              	.L26:
 559:Drivers/STM32L4xx_HAL_Driver/Src/stm32l4xx_hal_lptim.c ****   }
 560:Drivers/STM32L4xx_HAL_Driver/Src/stm32l4xx_hal_lptim.c **** 
 561:Drivers/STM32L4xx_HAL_Driver/Src/stm32l4xx_hal_lptim.c ****   /* Start timer in continuous mode */
 562:Drivers/STM32L4xx_HAL_Driver/Src/stm32l4xx_hal_lptim.c ****   __HAL_LPTIM_START_CONTINUOUS(hlptim);
 515              		.loc 1 562 3
 516 0078 FB68     		ldr	r3, [r7, #12]
 517 007a 1B68     		ldr	r3, [r3]
 518 007c 1A69     		ldr	r2, [r3, #16]
 519 007e FB68     		ldr	r3, [r7, #12]
ARM GAS  /tmp/ccB7T7H1.s 			page 20


 520 0080 1B68     		ldr	r3, [r3]
 521 0082 42F00402 		orr	r2, r2, #4
 522 0086 1A61     		str	r2, [r3, #16]
 563:Drivers/STM32L4xx_HAL_Driver/Src/stm32l4xx_hal_lptim.c **** 
 564:Drivers/STM32L4xx_HAL_Driver/Src/stm32l4xx_hal_lptim.c ****   /* Change the LPTIM state */
 565:Drivers/STM32L4xx_HAL_Driver/Src/stm32l4xx_hal_lptim.c ****   hlptim->State = HAL_LPTIM_STATE_READY;
 523              		.loc 1 565 17
 524 0088 FB68     		ldr	r3, [r7, #12]
 525 008a 0122     		movs	r2, #1
 526 008c 83F83620 		strb	r2, [r3, #54]
 566:Drivers/STM32L4xx_HAL_Driver/Src/stm32l4xx_hal_lptim.c **** 
 567:Drivers/STM32L4xx_HAL_Driver/Src/stm32l4xx_hal_lptim.c ****   /* Return function status */
 568:Drivers/STM32L4xx_HAL_Driver/Src/stm32l4xx_hal_lptim.c ****   return HAL_OK;
 527              		.loc 1 568 10
 528 0090 0023     		movs	r3, #0
 529              	.L25:
 569:Drivers/STM32L4xx_HAL_Driver/Src/stm32l4xx_hal_lptim.c **** }
 530              		.loc 1 569 1
 531 0092 1846     		mov	r0, r3
 532 0094 1037     		adds	r7, r7, #16
 533              		.cfi_def_cfa_offset 8
 534 0096 BD46     		mov	sp, r7
 535              		.cfi_def_cfa_register 13
 536              		@ sp needed
 537 0098 80BD     		pop	{r7, pc}
 538              		.cfi_endproc
 539              	.LFE449:
 541              		.section	.text.HAL_LPTIM_PWM_Stop,"ax",%progbits
 542              		.align	1
 543              		.global	HAL_LPTIM_PWM_Stop
 544              		.syntax unified
 545              		.thumb
 546              		.thumb_func
 548              	HAL_LPTIM_PWM_Stop:
 549              	.LFB450:
 570:Drivers/STM32L4xx_HAL_Driver/Src/stm32l4xx_hal_lptim.c **** 
 571:Drivers/STM32L4xx_HAL_Driver/Src/stm32l4xx_hal_lptim.c **** /**
 572:Drivers/STM32L4xx_HAL_Driver/Src/stm32l4xx_hal_lptim.c ****   * @brief  Stop the LPTIM PWM generation.
 573:Drivers/STM32L4xx_HAL_Driver/Src/stm32l4xx_hal_lptim.c ****   * @param  hlptim LPTIM handle
 574:Drivers/STM32L4xx_HAL_Driver/Src/stm32l4xx_hal_lptim.c ****   * @retval HAL status
 575:Drivers/STM32L4xx_HAL_Driver/Src/stm32l4xx_hal_lptim.c ****   */
 576:Drivers/STM32L4xx_HAL_Driver/Src/stm32l4xx_hal_lptim.c **** HAL_StatusTypeDef HAL_LPTIM_PWM_Stop(LPTIM_HandleTypeDef *hlptim)
 577:Drivers/STM32L4xx_HAL_Driver/Src/stm32l4xx_hal_lptim.c **** {
 550              		.loc 1 577 1
 551              		.cfi_startproc
 552              		@ args = 0, pretend = 0, frame = 8
 553              		@ frame_needed = 1, uses_anonymous_args = 0
 554 0000 80B5     		push	{r7, lr}
 555              		.cfi_def_cfa_offset 8
 556              		.cfi_offset 7, -8
 557              		.cfi_offset 14, -4
 558 0002 82B0     		sub	sp, sp, #8
 559              		.cfi_def_cfa_offset 16
 560 0004 00AF     		add	r7, sp, #0
 561              		.cfi_def_cfa_register 7
 562 0006 7860     		str	r0, [r7, #4]
 578:Drivers/STM32L4xx_HAL_Driver/Src/stm32l4xx_hal_lptim.c ****   /* Check the parameters */
ARM GAS  /tmp/ccB7T7H1.s 			page 21


 579:Drivers/STM32L4xx_HAL_Driver/Src/stm32l4xx_hal_lptim.c ****   assert_param(IS_LPTIM_INSTANCE(hlptim->Instance));
 580:Drivers/STM32L4xx_HAL_Driver/Src/stm32l4xx_hal_lptim.c **** 
 581:Drivers/STM32L4xx_HAL_Driver/Src/stm32l4xx_hal_lptim.c ****   /* Change the LPTIM state */
 582:Drivers/STM32L4xx_HAL_Driver/Src/stm32l4xx_hal_lptim.c ****   hlptim->State = HAL_LPTIM_STATE_BUSY;
 563              		.loc 1 582 17
 564 0008 7B68     		ldr	r3, [r7, #4]
 565 000a 0222     		movs	r2, #2
 566 000c 83F83620 		strb	r2, [r3, #54]
 583:Drivers/STM32L4xx_HAL_Driver/Src/stm32l4xx_hal_lptim.c **** 
 584:Drivers/STM32L4xx_HAL_Driver/Src/stm32l4xx_hal_lptim.c ****   /* Disable the Peripheral */
 585:Drivers/STM32L4xx_HAL_Driver/Src/stm32l4xx_hal_lptim.c ****   __HAL_LPTIM_DISABLE(hlptim);
 567              		.loc 1 585 3
 568 0010 7868     		ldr	r0, [r7, #4]
 569 0012 FFF7FEFF 		bl	LPTIM_Disable
 586:Drivers/STM32L4xx_HAL_Driver/Src/stm32l4xx_hal_lptim.c **** 
 587:Drivers/STM32L4xx_HAL_Driver/Src/stm32l4xx_hal_lptim.c ****   if (HAL_LPTIM_GetState(hlptim) == HAL_LPTIM_STATE_TIMEOUT)
 570              		.loc 1 587 7
 571 0016 7868     		ldr	r0, [r7, #4]
 572 0018 FFF7FEFF 		bl	HAL_LPTIM_GetState
 573 001c 0346     		mov	r3, r0
 574              		.loc 1 587 6 discriminator 1
 575 001e 032B     		cmp	r3, #3
 576 0020 01D1     		bne	.L28
 588:Drivers/STM32L4xx_HAL_Driver/Src/stm32l4xx_hal_lptim.c ****   {
 589:Drivers/STM32L4xx_HAL_Driver/Src/stm32l4xx_hal_lptim.c ****     return HAL_TIMEOUT;
 577              		.loc 1 589 12
 578 0022 0323     		movs	r3, #3
 579 0024 04E0     		b	.L29
 580              	.L28:
 590:Drivers/STM32L4xx_HAL_Driver/Src/stm32l4xx_hal_lptim.c ****   }
 591:Drivers/STM32L4xx_HAL_Driver/Src/stm32l4xx_hal_lptim.c **** 
 592:Drivers/STM32L4xx_HAL_Driver/Src/stm32l4xx_hal_lptim.c ****   /* Change the LPTIM state */
 593:Drivers/STM32L4xx_HAL_Driver/Src/stm32l4xx_hal_lptim.c ****   hlptim->State = HAL_LPTIM_STATE_READY;
 581              		.loc 1 593 17
 582 0026 7B68     		ldr	r3, [r7, #4]
 583 0028 0122     		movs	r2, #1
 584 002a 83F83620 		strb	r2, [r3, #54]
 594:Drivers/STM32L4xx_HAL_Driver/Src/stm32l4xx_hal_lptim.c **** 
 595:Drivers/STM32L4xx_HAL_Driver/Src/stm32l4xx_hal_lptim.c ****   /* Return function status */
 596:Drivers/STM32L4xx_HAL_Driver/Src/stm32l4xx_hal_lptim.c ****   return HAL_OK;
 585              		.loc 1 596 10
 586 002e 0023     		movs	r3, #0
 587              	.L29:
 597:Drivers/STM32L4xx_HAL_Driver/Src/stm32l4xx_hal_lptim.c **** }
 588              		.loc 1 597 1
 589 0030 1846     		mov	r0, r3
 590 0032 0837     		adds	r7, r7, #8
 591              		.cfi_def_cfa_offset 8
 592 0034 BD46     		mov	sp, r7
 593              		.cfi_def_cfa_register 13
 594              		@ sp needed
 595 0036 80BD     		pop	{r7, pc}
 596              		.cfi_endproc
 597              	.LFE450:
 599              		.section	.text.HAL_LPTIM_PWM_Start_IT,"ax",%progbits
 600              		.align	1
 601              		.global	HAL_LPTIM_PWM_Start_IT
ARM GAS  /tmp/ccB7T7H1.s 			page 22


 602              		.syntax unified
 603              		.thumb
 604              		.thumb_func
 606              	HAL_LPTIM_PWM_Start_IT:
 607              	.LFB451:
 598:Drivers/STM32L4xx_HAL_Driver/Src/stm32l4xx_hal_lptim.c **** 
 599:Drivers/STM32L4xx_HAL_Driver/Src/stm32l4xx_hal_lptim.c **** /**
 600:Drivers/STM32L4xx_HAL_Driver/Src/stm32l4xx_hal_lptim.c ****   * @brief  Start the LPTIM PWM generation in interrupt mode.
 601:Drivers/STM32L4xx_HAL_Driver/Src/stm32l4xx_hal_lptim.c ****   * @param  hlptim LPTIM handle
 602:Drivers/STM32L4xx_HAL_Driver/Src/stm32l4xx_hal_lptim.c ****   * @param  Period Specifies the Autoreload value.
 603:Drivers/STM32L4xx_HAL_Driver/Src/stm32l4xx_hal_lptim.c ****   *         This parameter must be a value between 0x0001 and 0xFFFF
 604:Drivers/STM32L4xx_HAL_Driver/Src/stm32l4xx_hal_lptim.c ****   * @param  Pulse Specifies the compare value.
 605:Drivers/STM32L4xx_HAL_Driver/Src/stm32l4xx_hal_lptim.c ****   *         This parameter must be a value between 0x0000 and 0xFFFF
 606:Drivers/STM32L4xx_HAL_Driver/Src/stm32l4xx_hal_lptim.c ****   * @retval HAL status
 607:Drivers/STM32L4xx_HAL_Driver/Src/stm32l4xx_hal_lptim.c ****   */
 608:Drivers/STM32L4xx_HAL_Driver/Src/stm32l4xx_hal_lptim.c **** HAL_StatusTypeDef HAL_LPTIM_PWM_Start_IT(LPTIM_HandleTypeDef *hlptim, uint32_t Period, uint32_t Pul
 609:Drivers/STM32L4xx_HAL_Driver/Src/stm32l4xx_hal_lptim.c **** {
 608              		.loc 1 609 1
 609              		.cfi_startproc
 610              		@ args = 0, pretend = 0, frame = 16
 611              		@ frame_needed = 1, uses_anonymous_args = 0
 612 0000 80B5     		push	{r7, lr}
 613              		.cfi_def_cfa_offset 8
 614              		.cfi_offset 7, -8
 615              		.cfi_offset 14, -4
 616 0002 84B0     		sub	sp, sp, #16
 617              		.cfi_def_cfa_offset 24
 618 0004 00AF     		add	r7, sp, #0
 619              		.cfi_def_cfa_register 7
 620 0006 F860     		str	r0, [r7, #12]
 621 0008 B960     		str	r1, [r7, #8]
 622 000a 7A60     		str	r2, [r7, #4]
 610:Drivers/STM32L4xx_HAL_Driver/Src/stm32l4xx_hal_lptim.c ****   /* Check the parameters */
 611:Drivers/STM32L4xx_HAL_Driver/Src/stm32l4xx_hal_lptim.c ****   assert_param(IS_LPTIM_INSTANCE(hlptim->Instance));
 612:Drivers/STM32L4xx_HAL_Driver/Src/stm32l4xx_hal_lptim.c ****   assert_param(IS_LPTIM_PERIOD(Period));
 613:Drivers/STM32L4xx_HAL_Driver/Src/stm32l4xx_hal_lptim.c ****   assert_param(IS_LPTIM_PULSE(Pulse));
 614:Drivers/STM32L4xx_HAL_Driver/Src/stm32l4xx_hal_lptim.c **** 
 615:Drivers/STM32L4xx_HAL_Driver/Src/stm32l4xx_hal_lptim.c ****   /* Set the LPTIM state */
 616:Drivers/STM32L4xx_HAL_Driver/Src/stm32l4xx_hal_lptim.c ****   hlptim->State = HAL_LPTIM_STATE_BUSY;
 623              		.loc 1 616 17
 624 000c FB68     		ldr	r3, [r7, #12]
 625 000e 0222     		movs	r2, #2
 626 0010 83F83620 		strb	r2, [r3, #54]
 617:Drivers/STM32L4xx_HAL_Driver/Src/stm32l4xx_hal_lptim.c **** 
 618:Drivers/STM32L4xx_HAL_Driver/Src/stm32l4xx_hal_lptim.c ****   /* Reset WAVE bit to set PWM mode */
 619:Drivers/STM32L4xx_HAL_Driver/Src/stm32l4xx_hal_lptim.c ****   hlptim->Instance->CFGR &= ~LPTIM_CFGR_WAVE;
 627              		.loc 1 619 9
 628 0014 FB68     		ldr	r3, [r7, #12]
 629 0016 1B68     		ldr	r3, [r3]
 630              		.loc 1 619 19
 631 0018 DA68     		ldr	r2, [r3, #12]
 632              		.loc 1 619 9
 633 001a FB68     		ldr	r3, [r7, #12]
 634 001c 1B68     		ldr	r3, [r3]
 635              		.loc 1 619 26
 636 001e 22F48012 		bic	r2, r2, #1048576
 637 0022 DA60     		str	r2, [r3, #12]
ARM GAS  /tmp/ccB7T7H1.s 			page 23


 620:Drivers/STM32L4xx_HAL_Driver/Src/stm32l4xx_hal_lptim.c **** 
 621:Drivers/STM32L4xx_HAL_Driver/Src/stm32l4xx_hal_lptim.c ****   /* Enable the Peripheral */
 622:Drivers/STM32L4xx_HAL_Driver/Src/stm32l4xx_hal_lptim.c ****   __HAL_LPTIM_ENABLE(hlptim);
 638              		.loc 1 622 3
 639 0024 FB68     		ldr	r3, [r7, #12]
 640 0026 1B68     		ldr	r3, [r3]
 641 0028 1A69     		ldr	r2, [r3, #16]
 642 002a FB68     		ldr	r3, [r7, #12]
 643 002c 1B68     		ldr	r3, [r3]
 644 002e 42F00102 		orr	r2, r2, #1
 645 0032 1A61     		str	r2, [r3, #16]
 623:Drivers/STM32L4xx_HAL_Driver/Src/stm32l4xx_hal_lptim.c **** 
 624:Drivers/STM32L4xx_HAL_Driver/Src/stm32l4xx_hal_lptim.c ****   /* Clear flag */
 625:Drivers/STM32L4xx_HAL_Driver/Src/stm32l4xx_hal_lptim.c ****   __HAL_LPTIM_CLEAR_FLAG(hlptim, LPTIM_FLAG_ARROK);
 646              		.loc 1 625 3
 647 0034 FB68     		ldr	r3, [r7, #12]
 648 0036 1B68     		ldr	r3, [r3]
 649 0038 1022     		movs	r2, #16
 650 003a 5A60     		str	r2, [r3, #4]
 626:Drivers/STM32L4xx_HAL_Driver/Src/stm32l4xx_hal_lptim.c **** 
 627:Drivers/STM32L4xx_HAL_Driver/Src/stm32l4xx_hal_lptim.c ****   /* Load the period value in the autoreload register */
 628:Drivers/STM32L4xx_HAL_Driver/Src/stm32l4xx_hal_lptim.c ****   __HAL_LPTIM_AUTORELOAD_SET(hlptim, Period);
 651              		.loc 1 628 3
 652 003c FB68     		ldr	r3, [r7, #12]
 653 003e 1B68     		ldr	r3, [r3]
 654 0040 BA68     		ldr	r2, [r7, #8]
 655 0042 9A61     		str	r2, [r3, #24]
 629:Drivers/STM32L4xx_HAL_Driver/Src/stm32l4xx_hal_lptim.c **** 
 630:Drivers/STM32L4xx_HAL_Driver/Src/stm32l4xx_hal_lptim.c ****   /* Wait for the completion of the write operation to the LPTIM_ARR register */
 631:Drivers/STM32L4xx_HAL_Driver/Src/stm32l4xx_hal_lptim.c ****   if (LPTIM_WaitForFlag(hlptim, LPTIM_FLAG_ARROK) == HAL_TIMEOUT)
 656              		.loc 1 631 7
 657 0044 1021     		movs	r1, #16
 658 0046 F868     		ldr	r0, [r7, #12]
 659 0048 FFF7FEFF 		bl	LPTIM_WaitForFlag
 660 004c 0346     		mov	r3, r0
 661              		.loc 1 631 6 discriminator 1
 662 004e 032B     		cmp	r3, #3
 663 0050 01D1     		bne	.L31
 632:Drivers/STM32L4xx_HAL_Driver/Src/stm32l4xx_hal_lptim.c ****   {
 633:Drivers/STM32L4xx_HAL_Driver/Src/stm32l4xx_hal_lptim.c ****     return HAL_TIMEOUT;
 664              		.loc 1 633 12
 665 0052 0323     		movs	r3, #3
 666 0054 5EE0     		b	.L32
 667              	.L31:
 634:Drivers/STM32L4xx_HAL_Driver/Src/stm32l4xx_hal_lptim.c ****   }
 635:Drivers/STM32L4xx_HAL_Driver/Src/stm32l4xx_hal_lptim.c **** 
 636:Drivers/STM32L4xx_HAL_Driver/Src/stm32l4xx_hal_lptim.c ****   /* Clear flag */
 637:Drivers/STM32L4xx_HAL_Driver/Src/stm32l4xx_hal_lptim.c ****   __HAL_LPTIM_CLEAR_FLAG(hlptim, LPTIM_FLAG_CMPOK);
 668              		.loc 1 637 3
 669 0056 FB68     		ldr	r3, [r7, #12]
 670 0058 1B68     		ldr	r3, [r3]
 671 005a 0822     		movs	r2, #8
 672 005c 5A60     		str	r2, [r3, #4]
 638:Drivers/STM32L4xx_HAL_Driver/Src/stm32l4xx_hal_lptim.c **** 
 639:Drivers/STM32L4xx_HAL_Driver/Src/stm32l4xx_hal_lptim.c ****   /* Load the pulse value in the compare register */
 640:Drivers/STM32L4xx_HAL_Driver/Src/stm32l4xx_hal_lptim.c ****   __HAL_LPTIM_COMPARE_SET(hlptim, Pulse);
 673              		.loc 1 640 3
ARM GAS  /tmp/ccB7T7H1.s 			page 24


 674 005e FB68     		ldr	r3, [r7, #12]
 675 0060 1B68     		ldr	r3, [r3]
 676 0062 7A68     		ldr	r2, [r7, #4]
 677 0064 5A61     		str	r2, [r3, #20]
 641:Drivers/STM32L4xx_HAL_Driver/Src/stm32l4xx_hal_lptim.c **** 
 642:Drivers/STM32L4xx_HAL_Driver/Src/stm32l4xx_hal_lptim.c ****   /* Wait for the completion of the write operation to the LPTIM_CMP register */
 643:Drivers/STM32L4xx_HAL_Driver/Src/stm32l4xx_hal_lptim.c ****   if (LPTIM_WaitForFlag(hlptim, LPTIM_FLAG_CMPOK) == HAL_TIMEOUT)
 678              		.loc 1 643 7
 679 0066 0821     		movs	r1, #8
 680 0068 F868     		ldr	r0, [r7, #12]
 681 006a FFF7FEFF 		bl	LPTIM_WaitForFlag
 682 006e 0346     		mov	r3, r0
 683              		.loc 1 643 6 discriminator 1
 684 0070 032B     		cmp	r3, #3
 685 0072 01D1     		bne	.L33
 644:Drivers/STM32L4xx_HAL_Driver/Src/stm32l4xx_hal_lptim.c ****   {
 645:Drivers/STM32L4xx_HAL_Driver/Src/stm32l4xx_hal_lptim.c ****     return HAL_TIMEOUT;
 686              		.loc 1 645 12
 687 0074 0323     		movs	r3, #3
 688 0076 4DE0     		b	.L32
 689              	.L33:
 646:Drivers/STM32L4xx_HAL_Driver/Src/stm32l4xx_hal_lptim.c ****   }
 647:Drivers/STM32L4xx_HAL_Driver/Src/stm32l4xx_hal_lptim.c **** 
 648:Drivers/STM32L4xx_HAL_Driver/Src/stm32l4xx_hal_lptim.c ****   /* Disable the Peripheral */
 649:Drivers/STM32L4xx_HAL_Driver/Src/stm32l4xx_hal_lptim.c ****   __HAL_LPTIM_DISABLE(hlptim);
 690              		.loc 1 649 3
 691 0078 F868     		ldr	r0, [r7, #12]
 692 007a FFF7FEFF 		bl	LPTIM_Disable
 650:Drivers/STM32L4xx_HAL_Driver/Src/stm32l4xx_hal_lptim.c **** 
 651:Drivers/STM32L4xx_HAL_Driver/Src/stm32l4xx_hal_lptim.c ****   if (HAL_LPTIM_GetState(hlptim) == HAL_LPTIM_STATE_TIMEOUT)
 693              		.loc 1 651 7
 694 007e F868     		ldr	r0, [r7, #12]
 695 0080 FFF7FEFF 		bl	HAL_LPTIM_GetState
 696 0084 0346     		mov	r3, r0
 697              		.loc 1 651 6 discriminator 1
 698 0086 032B     		cmp	r3, #3
 699 0088 01D1     		bne	.L34
 652:Drivers/STM32L4xx_HAL_Driver/Src/stm32l4xx_hal_lptim.c ****   {
 653:Drivers/STM32L4xx_HAL_Driver/Src/stm32l4xx_hal_lptim.c ****     return HAL_TIMEOUT;
 700              		.loc 1 653 12
 701 008a 0323     		movs	r3, #3
 702 008c 42E0     		b	.L32
 703              	.L34:
 654:Drivers/STM32L4xx_HAL_Driver/Src/stm32l4xx_hal_lptim.c ****   }
 655:Drivers/STM32L4xx_HAL_Driver/Src/stm32l4xx_hal_lptim.c **** 
 656:Drivers/STM32L4xx_HAL_Driver/Src/stm32l4xx_hal_lptim.c ****   /* Enable Autoreload write complete interrupt */
 657:Drivers/STM32L4xx_HAL_Driver/Src/stm32l4xx_hal_lptim.c ****   __HAL_LPTIM_ENABLE_IT(hlptim, LPTIM_IT_ARROK);
 704              		.loc 1 657 3
 705 008e FB68     		ldr	r3, [r7, #12]
 706 0090 1B68     		ldr	r3, [r3]
 707 0092 9A68     		ldr	r2, [r3, #8]
 708 0094 FB68     		ldr	r3, [r7, #12]
 709 0096 1B68     		ldr	r3, [r3]
 710 0098 42F01002 		orr	r2, r2, #16
 711 009c 9A60     		str	r2, [r3, #8]
 658:Drivers/STM32L4xx_HAL_Driver/Src/stm32l4xx_hal_lptim.c **** 
 659:Drivers/STM32L4xx_HAL_Driver/Src/stm32l4xx_hal_lptim.c ****   /* Enable Compare write complete interrupt */
ARM GAS  /tmp/ccB7T7H1.s 			page 25


 660:Drivers/STM32L4xx_HAL_Driver/Src/stm32l4xx_hal_lptim.c ****   __HAL_LPTIM_ENABLE_IT(hlptim, LPTIM_IT_CMPOK);
 712              		.loc 1 660 3
 713 009e FB68     		ldr	r3, [r7, #12]
 714 00a0 1B68     		ldr	r3, [r3]
 715 00a2 9A68     		ldr	r2, [r3, #8]
 716 00a4 FB68     		ldr	r3, [r7, #12]
 717 00a6 1B68     		ldr	r3, [r3]
 718 00a8 42F00802 		orr	r2, r2, #8
 719 00ac 9A60     		str	r2, [r3, #8]
 661:Drivers/STM32L4xx_HAL_Driver/Src/stm32l4xx_hal_lptim.c **** 
 662:Drivers/STM32L4xx_HAL_Driver/Src/stm32l4xx_hal_lptim.c ****   /* Enable Autoreload match interrupt */
 663:Drivers/STM32L4xx_HAL_Driver/Src/stm32l4xx_hal_lptim.c ****   __HAL_LPTIM_ENABLE_IT(hlptim, LPTIM_IT_ARRM);
 720              		.loc 1 663 3
 721 00ae FB68     		ldr	r3, [r7, #12]
 722 00b0 1B68     		ldr	r3, [r3]
 723 00b2 9A68     		ldr	r2, [r3, #8]
 724 00b4 FB68     		ldr	r3, [r7, #12]
 725 00b6 1B68     		ldr	r3, [r3]
 726 00b8 42F00202 		orr	r2, r2, #2
 727 00bc 9A60     		str	r2, [r3, #8]
 664:Drivers/STM32L4xx_HAL_Driver/Src/stm32l4xx_hal_lptim.c **** 
 665:Drivers/STM32L4xx_HAL_Driver/Src/stm32l4xx_hal_lptim.c ****   /* Enable Compare match interrupt */
 666:Drivers/STM32L4xx_HAL_Driver/Src/stm32l4xx_hal_lptim.c ****   __HAL_LPTIM_ENABLE_IT(hlptim, LPTIM_IT_CMPM);
 728              		.loc 1 666 3
 729 00be FB68     		ldr	r3, [r7, #12]
 730 00c0 1B68     		ldr	r3, [r3]
 731 00c2 9A68     		ldr	r2, [r3, #8]
 732 00c4 FB68     		ldr	r3, [r7, #12]
 733 00c6 1B68     		ldr	r3, [r3]
 734 00c8 42F00102 		orr	r2, r2, #1
 735 00cc 9A60     		str	r2, [r3, #8]
 667:Drivers/STM32L4xx_HAL_Driver/Src/stm32l4xx_hal_lptim.c **** 
 668:Drivers/STM32L4xx_HAL_Driver/Src/stm32l4xx_hal_lptim.c ****   /* If external trigger source is used, then enable external trigger interrupt */
 669:Drivers/STM32L4xx_HAL_Driver/Src/stm32l4xx_hal_lptim.c ****   if ((hlptim->Init.Trigger.Source) != LPTIM_TRIGSOURCE_SOFTWARE)
 736              		.loc 1 669 28
 737 00ce FB68     		ldr	r3, [r7, #12]
 738 00d0 5B69     		ldr	r3, [r3, #20]
 739              		.loc 1 669 6
 740 00d2 4FF6FF72 		movw	r2, #65535
 741 00d6 9342     		cmp	r3, r2
 742 00d8 07D0     		beq	.L35
 670:Drivers/STM32L4xx_HAL_Driver/Src/stm32l4xx_hal_lptim.c ****   {
 671:Drivers/STM32L4xx_HAL_Driver/Src/stm32l4xx_hal_lptim.c ****     /* Enable external trigger interrupt */
 672:Drivers/STM32L4xx_HAL_Driver/Src/stm32l4xx_hal_lptim.c ****     __HAL_LPTIM_ENABLE_IT(hlptim, LPTIM_IT_EXTTRIG);
 743              		.loc 1 672 5
 744 00da FB68     		ldr	r3, [r7, #12]
 745 00dc 1B68     		ldr	r3, [r3]
 746 00de 9A68     		ldr	r2, [r3, #8]
 747 00e0 FB68     		ldr	r3, [r7, #12]
 748 00e2 1B68     		ldr	r3, [r3]
 749 00e4 42F00402 		orr	r2, r2, #4
 750 00e8 9A60     		str	r2, [r3, #8]
 751              	.L35:
 673:Drivers/STM32L4xx_HAL_Driver/Src/stm32l4xx_hal_lptim.c ****   }
 674:Drivers/STM32L4xx_HAL_Driver/Src/stm32l4xx_hal_lptim.c **** #if defined(LPTIM_RCR_REP)
 675:Drivers/STM32L4xx_HAL_Driver/Src/stm32l4xx_hal_lptim.c **** 
 676:Drivers/STM32L4xx_HAL_Driver/Src/stm32l4xx_hal_lptim.c ****   /* Enable Rep Update Ok interrupt */
ARM GAS  /tmp/ccB7T7H1.s 			page 26


 677:Drivers/STM32L4xx_HAL_Driver/Src/stm32l4xx_hal_lptim.c ****   __HAL_LPTIM_ENABLE_IT(hlptim, LPTIM_IT_REPOK);
 678:Drivers/STM32L4xx_HAL_Driver/Src/stm32l4xx_hal_lptim.c **** 
 679:Drivers/STM32L4xx_HAL_Driver/Src/stm32l4xx_hal_lptim.c ****   /* Enable Update Event interrupt */
 680:Drivers/STM32L4xx_HAL_Driver/Src/stm32l4xx_hal_lptim.c ****   __HAL_LPTIM_ENABLE_IT(hlptim, LPTIM_IT_UPDATE);
 681:Drivers/STM32L4xx_HAL_Driver/Src/stm32l4xx_hal_lptim.c **** #endif
 682:Drivers/STM32L4xx_HAL_Driver/Src/stm32l4xx_hal_lptim.c **** 
 683:Drivers/STM32L4xx_HAL_Driver/Src/stm32l4xx_hal_lptim.c ****   /* Enable the Peripheral */
 684:Drivers/STM32L4xx_HAL_Driver/Src/stm32l4xx_hal_lptim.c ****   __HAL_LPTIM_ENABLE(hlptim);
 752              		.loc 1 684 3
 753 00ea FB68     		ldr	r3, [r7, #12]
 754 00ec 1B68     		ldr	r3, [r3]
 755 00ee 1A69     		ldr	r2, [r3, #16]
 756 00f0 FB68     		ldr	r3, [r7, #12]
 757 00f2 1B68     		ldr	r3, [r3]
 758 00f4 42F00102 		orr	r2, r2, #1
 759 00f8 1A61     		str	r2, [r3, #16]
 685:Drivers/STM32L4xx_HAL_Driver/Src/stm32l4xx_hal_lptim.c **** 
 686:Drivers/STM32L4xx_HAL_Driver/Src/stm32l4xx_hal_lptim.c ****   /* Start timer in continuous mode */
 687:Drivers/STM32L4xx_HAL_Driver/Src/stm32l4xx_hal_lptim.c ****   __HAL_LPTIM_START_CONTINUOUS(hlptim);
 760              		.loc 1 687 3
 761 00fa FB68     		ldr	r3, [r7, #12]
 762 00fc 1B68     		ldr	r3, [r3]
 763 00fe 1A69     		ldr	r2, [r3, #16]
 764 0100 FB68     		ldr	r3, [r7, #12]
 765 0102 1B68     		ldr	r3, [r3]
 766 0104 42F00402 		orr	r2, r2, #4
 767 0108 1A61     		str	r2, [r3, #16]
 688:Drivers/STM32L4xx_HAL_Driver/Src/stm32l4xx_hal_lptim.c **** 
 689:Drivers/STM32L4xx_HAL_Driver/Src/stm32l4xx_hal_lptim.c ****   /* Change the LPTIM state */
 690:Drivers/STM32L4xx_HAL_Driver/Src/stm32l4xx_hal_lptim.c ****   hlptim->State = HAL_LPTIM_STATE_READY;
 768              		.loc 1 690 17
 769 010a FB68     		ldr	r3, [r7, #12]
 770 010c 0122     		movs	r2, #1
 771 010e 83F83620 		strb	r2, [r3, #54]
 691:Drivers/STM32L4xx_HAL_Driver/Src/stm32l4xx_hal_lptim.c **** 
 692:Drivers/STM32L4xx_HAL_Driver/Src/stm32l4xx_hal_lptim.c ****   /* Return function status */
 693:Drivers/STM32L4xx_HAL_Driver/Src/stm32l4xx_hal_lptim.c ****   return HAL_OK;
 772              		.loc 1 693 10
 773 0112 0023     		movs	r3, #0
 774              	.L32:
 694:Drivers/STM32L4xx_HAL_Driver/Src/stm32l4xx_hal_lptim.c **** }
 775              		.loc 1 694 1
 776 0114 1846     		mov	r0, r3
 777 0116 1037     		adds	r7, r7, #16
 778              		.cfi_def_cfa_offset 8
 779 0118 BD46     		mov	sp, r7
 780              		.cfi_def_cfa_register 13
 781              		@ sp needed
 782 011a 80BD     		pop	{r7, pc}
 783              		.cfi_endproc
 784              	.LFE451:
 786              		.section	.text.HAL_LPTIM_PWM_Stop_IT,"ax",%progbits
 787              		.align	1
 788              		.global	HAL_LPTIM_PWM_Stop_IT
 789              		.syntax unified
 790              		.thumb
 791              		.thumb_func
ARM GAS  /tmp/ccB7T7H1.s 			page 27


 793              	HAL_LPTIM_PWM_Stop_IT:
 794              	.LFB452:
 695:Drivers/STM32L4xx_HAL_Driver/Src/stm32l4xx_hal_lptim.c **** 
 696:Drivers/STM32L4xx_HAL_Driver/Src/stm32l4xx_hal_lptim.c **** /**
 697:Drivers/STM32L4xx_HAL_Driver/Src/stm32l4xx_hal_lptim.c ****   * @brief  Stop the LPTIM PWM generation in interrupt mode.
 698:Drivers/STM32L4xx_HAL_Driver/Src/stm32l4xx_hal_lptim.c ****   * @param  hlptim LPTIM handle
 699:Drivers/STM32L4xx_HAL_Driver/Src/stm32l4xx_hal_lptim.c ****   * @retval HAL status
 700:Drivers/STM32L4xx_HAL_Driver/Src/stm32l4xx_hal_lptim.c ****   */
 701:Drivers/STM32L4xx_HAL_Driver/Src/stm32l4xx_hal_lptim.c **** HAL_StatusTypeDef HAL_LPTIM_PWM_Stop_IT(LPTIM_HandleTypeDef *hlptim)
 702:Drivers/STM32L4xx_HAL_Driver/Src/stm32l4xx_hal_lptim.c **** {
 795              		.loc 1 702 1
 796              		.cfi_startproc
 797              		@ args = 0, pretend = 0, frame = 8
 798              		@ frame_needed = 1, uses_anonymous_args = 0
 799 0000 80B5     		push	{r7, lr}
 800              		.cfi_def_cfa_offset 8
 801              		.cfi_offset 7, -8
 802              		.cfi_offset 14, -4
 803 0002 82B0     		sub	sp, sp, #8
 804              		.cfi_def_cfa_offset 16
 805 0004 00AF     		add	r7, sp, #0
 806              		.cfi_def_cfa_register 7
 807 0006 7860     		str	r0, [r7, #4]
 703:Drivers/STM32L4xx_HAL_Driver/Src/stm32l4xx_hal_lptim.c ****   /* Check the parameters */
 704:Drivers/STM32L4xx_HAL_Driver/Src/stm32l4xx_hal_lptim.c ****   assert_param(IS_LPTIM_INSTANCE(hlptim->Instance));
 705:Drivers/STM32L4xx_HAL_Driver/Src/stm32l4xx_hal_lptim.c **** 
 706:Drivers/STM32L4xx_HAL_Driver/Src/stm32l4xx_hal_lptim.c ****   /* Change the LPTIM state */
 707:Drivers/STM32L4xx_HAL_Driver/Src/stm32l4xx_hal_lptim.c ****   hlptim->State = HAL_LPTIM_STATE_BUSY;
 808              		.loc 1 707 17
 809 0008 7B68     		ldr	r3, [r7, #4]
 810 000a 0222     		movs	r2, #2
 811 000c 83F83620 		strb	r2, [r3, #54]
 708:Drivers/STM32L4xx_HAL_Driver/Src/stm32l4xx_hal_lptim.c **** 
 709:Drivers/STM32L4xx_HAL_Driver/Src/stm32l4xx_hal_lptim.c ****   /* Disable the Peripheral */
 710:Drivers/STM32L4xx_HAL_Driver/Src/stm32l4xx_hal_lptim.c ****   __HAL_LPTIM_DISABLE(hlptim);
 812              		.loc 1 710 3
 813 0010 7868     		ldr	r0, [r7, #4]
 814 0012 FFF7FEFF 		bl	LPTIM_Disable
 711:Drivers/STM32L4xx_HAL_Driver/Src/stm32l4xx_hal_lptim.c **** 
 712:Drivers/STM32L4xx_HAL_Driver/Src/stm32l4xx_hal_lptim.c ****   if (HAL_LPTIM_GetState(hlptim) == HAL_LPTIM_STATE_TIMEOUT)
 815              		.loc 1 712 7
 816 0016 7868     		ldr	r0, [r7, #4]
 817 0018 FFF7FEFF 		bl	HAL_LPTIM_GetState
 818 001c 0346     		mov	r3, r0
 819              		.loc 1 712 6 discriminator 1
 820 001e 032B     		cmp	r3, #3
 821 0020 01D1     		bne	.L37
 713:Drivers/STM32L4xx_HAL_Driver/Src/stm32l4xx_hal_lptim.c ****   {
 714:Drivers/STM32L4xx_HAL_Driver/Src/stm32l4xx_hal_lptim.c ****     return HAL_TIMEOUT;
 822              		.loc 1 714 12
 823 0022 0323     		movs	r3, #3
 824 0024 32E0     		b	.L38
 825              	.L37:
 715:Drivers/STM32L4xx_HAL_Driver/Src/stm32l4xx_hal_lptim.c ****   }
 716:Drivers/STM32L4xx_HAL_Driver/Src/stm32l4xx_hal_lptim.c **** 
 717:Drivers/STM32L4xx_HAL_Driver/Src/stm32l4xx_hal_lptim.c ****   /* Disable Autoreload write complete interrupt */
 718:Drivers/STM32L4xx_HAL_Driver/Src/stm32l4xx_hal_lptim.c ****   __HAL_LPTIM_DISABLE_IT(hlptim, LPTIM_IT_ARROK);
ARM GAS  /tmp/ccB7T7H1.s 			page 28


 826              		.loc 1 718 3
 827 0026 7B68     		ldr	r3, [r7, #4]
 828 0028 1B68     		ldr	r3, [r3]
 829 002a 9A68     		ldr	r2, [r3, #8]
 830 002c 7B68     		ldr	r3, [r7, #4]
 831 002e 1B68     		ldr	r3, [r3]
 832 0030 22F01002 		bic	r2, r2, #16
 833 0034 9A60     		str	r2, [r3, #8]
 719:Drivers/STM32L4xx_HAL_Driver/Src/stm32l4xx_hal_lptim.c **** 
 720:Drivers/STM32L4xx_HAL_Driver/Src/stm32l4xx_hal_lptim.c ****   /* Disable Compare write complete interrupt */
 721:Drivers/STM32L4xx_HAL_Driver/Src/stm32l4xx_hal_lptim.c ****   __HAL_LPTIM_DISABLE_IT(hlptim, LPTIM_IT_CMPOK);
 834              		.loc 1 721 3
 835 0036 7B68     		ldr	r3, [r7, #4]
 836 0038 1B68     		ldr	r3, [r3]
 837 003a 9A68     		ldr	r2, [r3, #8]
 838 003c 7B68     		ldr	r3, [r7, #4]
 839 003e 1B68     		ldr	r3, [r3]
 840 0040 22F00802 		bic	r2, r2, #8
 841 0044 9A60     		str	r2, [r3, #8]
 722:Drivers/STM32L4xx_HAL_Driver/Src/stm32l4xx_hal_lptim.c **** 
 723:Drivers/STM32L4xx_HAL_Driver/Src/stm32l4xx_hal_lptim.c ****   /* Disable Autoreload match interrupt */
 724:Drivers/STM32L4xx_HAL_Driver/Src/stm32l4xx_hal_lptim.c ****   __HAL_LPTIM_DISABLE_IT(hlptim, LPTIM_IT_ARRM);
 842              		.loc 1 724 3
 843 0046 7B68     		ldr	r3, [r7, #4]
 844 0048 1B68     		ldr	r3, [r3]
 845 004a 9A68     		ldr	r2, [r3, #8]
 846 004c 7B68     		ldr	r3, [r7, #4]
 847 004e 1B68     		ldr	r3, [r3]
 848 0050 22F00202 		bic	r2, r2, #2
 849 0054 9A60     		str	r2, [r3, #8]
 725:Drivers/STM32L4xx_HAL_Driver/Src/stm32l4xx_hal_lptim.c **** 
 726:Drivers/STM32L4xx_HAL_Driver/Src/stm32l4xx_hal_lptim.c ****   /* Disable Compare match interrupt */
 727:Drivers/STM32L4xx_HAL_Driver/Src/stm32l4xx_hal_lptim.c ****   __HAL_LPTIM_DISABLE_IT(hlptim, LPTIM_IT_CMPM);
 850              		.loc 1 727 3
 851 0056 7B68     		ldr	r3, [r7, #4]
 852 0058 1B68     		ldr	r3, [r3]
 853 005a 9A68     		ldr	r2, [r3, #8]
 854 005c 7B68     		ldr	r3, [r7, #4]
 855 005e 1B68     		ldr	r3, [r3]
 856 0060 22F00102 		bic	r2, r2, #1
 857 0064 9A60     		str	r2, [r3, #8]
 728:Drivers/STM32L4xx_HAL_Driver/Src/stm32l4xx_hal_lptim.c **** 
 729:Drivers/STM32L4xx_HAL_Driver/Src/stm32l4xx_hal_lptim.c ****   /* If external trigger source is used, then disable external trigger interrupt */
 730:Drivers/STM32L4xx_HAL_Driver/Src/stm32l4xx_hal_lptim.c ****   if ((hlptim->Init.Trigger.Source) != LPTIM_TRIGSOURCE_SOFTWARE)
 858              		.loc 1 730 28
 859 0066 7B68     		ldr	r3, [r7, #4]
 860 0068 5B69     		ldr	r3, [r3, #20]
 861              		.loc 1 730 6
 862 006a 4FF6FF72 		movw	r2, #65535
 863 006e 9342     		cmp	r3, r2
 864 0070 07D0     		beq	.L39
 731:Drivers/STM32L4xx_HAL_Driver/Src/stm32l4xx_hal_lptim.c ****   {
 732:Drivers/STM32L4xx_HAL_Driver/Src/stm32l4xx_hal_lptim.c ****     /* Disable external trigger interrupt */
 733:Drivers/STM32L4xx_HAL_Driver/Src/stm32l4xx_hal_lptim.c ****     __HAL_LPTIM_DISABLE_IT(hlptim, LPTIM_IT_EXTTRIG);
 865              		.loc 1 733 5
 866 0072 7B68     		ldr	r3, [r7, #4]
 867 0074 1B68     		ldr	r3, [r3]
ARM GAS  /tmp/ccB7T7H1.s 			page 29


 868 0076 9A68     		ldr	r2, [r3, #8]
 869 0078 7B68     		ldr	r3, [r7, #4]
 870 007a 1B68     		ldr	r3, [r3]
 871 007c 22F00402 		bic	r2, r2, #4
 872 0080 9A60     		str	r2, [r3, #8]
 873              	.L39:
 734:Drivers/STM32L4xx_HAL_Driver/Src/stm32l4xx_hal_lptim.c ****   }
 735:Drivers/STM32L4xx_HAL_Driver/Src/stm32l4xx_hal_lptim.c **** #if defined(LPTIM_RCR_REP)
 736:Drivers/STM32L4xx_HAL_Driver/Src/stm32l4xx_hal_lptim.c **** 
 737:Drivers/STM32L4xx_HAL_Driver/Src/stm32l4xx_hal_lptim.c ****   /* Enable Rep Update Ok interrupt */
 738:Drivers/STM32L4xx_HAL_Driver/Src/stm32l4xx_hal_lptim.c ****   __HAL_LPTIM_DISABLE_IT(hlptim, LPTIM_IT_REPOK);
 739:Drivers/STM32L4xx_HAL_Driver/Src/stm32l4xx_hal_lptim.c **** 
 740:Drivers/STM32L4xx_HAL_Driver/Src/stm32l4xx_hal_lptim.c ****   /* Enable Update Event interrupt */
 741:Drivers/STM32L4xx_HAL_Driver/Src/stm32l4xx_hal_lptim.c ****   __HAL_LPTIM_DISABLE_IT(hlptim, LPTIM_IT_UPDATE);
 742:Drivers/STM32L4xx_HAL_Driver/Src/stm32l4xx_hal_lptim.c **** #endif
 743:Drivers/STM32L4xx_HAL_Driver/Src/stm32l4xx_hal_lptim.c **** 
 744:Drivers/STM32L4xx_HAL_Driver/Src/stm32l4xx_hal_lptim.c ****   /* Change the LPTIM state */
 745:Drivers/STM32L4xx_HAL_Driver/Src/stm32l4xx_hal_lptim.c ****   hlptim->State = HAL_LPTIM_STATE_READY;
 874              		.loc 1 745 17
 875 0082 7B68     		ldr	r3, [r7, #4]
 876 0084 0122     		movs	r2, #1
 877 0086 83F83620 		strb	r2, [r3, #54]
 746:Drivers/STM32L4xx_HAL_Driver/Src/stm32l4xx_hal_lptim.c **** 
 747:Drivers/STM32L4xx_HAL_Driver/Src/stm32l4xx_hal_lptim.c ****   /* Return function status */
 748:Drivers/STM32L4xx_HAL_Driver/Src/stm32l4xx_hal_lptim.c ****   return HAL_OK;
 878              		.loc 1 748 10
 879 008a 0023     		movs	r3, #0
 880              	.L38:
 749:Drivers/STM32L4xx_HAL_Driver/Src/stm32l4xx_hal_lptim.c **** }
 881              		.loc 1 749 1
 882 008c 1846     		mov	r0, r3
 883 008e 0837     		adds	r7, r7, #8
 884              		.cfi_def_cfa_offset 8
 885 0090 BD46     		mov	sp, r7
 886              		.cfi_def_cfa_register 13
 887              		@ sp needed
 888 0092 80BD     		pop	{r7, pc}
 889              		.cfi_endproc
 890              	.LFE452:
 892              		.section	.text.HAL_LPTIM_OnePulse_Start,"ax",%progbits
 893              		.align	1
 894              		.global	HAL_LPTIM_OnePulse_Start
 895              		.syntax unified
 896              		.thumb
 897              		.thumb_func
 899              	HAL_LPTIM_OnePulse_Start:
 900              	.LFB453:
 750:Drivers/STM32L4xx_HAL_Driver/Src/stm32l4xx_hal_lptim.c **** 
 751:Drivers/STM32L4xx_HAL_Driver/Src/stm32l4xx_hal_lptim.c **** /**
 752:Drivers/STM32L4xx_HAL_Driver/Src/stm32l4xx_hal_lptim.c ****   * @brief  Start the LPTIM One pulse generation.
 753:Drivers/STM32L4xx_HAL_Driver/Src/stm32l4xx_hal_lptim.c ****   * @param  hlptim LPTIM handle
 754:Drivers/STM32L4xx_HAL_Driver/Src/stm32l4xx_hal_lptim.c ****   * @param  Period Specifies the Autoreload value.
 755:Drivers/STM32L4xx_HAL_Driver/Src/stm32l4xx_hal_lptim.c ****   *         This parameter must be a value between 0x0001 and 0xFFFF.
 756:Drivers/STM32L4xx_HAL_Driver/Src/stm32l4xx_hal_lptim.c ****   * @param  Pulse Specifies the compare value.
 757:Drivers/STM32L4xx_HAL_Driver/Src/stm32l4xx_hal_lptim.c ****   *         This parameter must be a value between 0x0000 and 0xFFFF.
 758:Drivers/STM32L4xx_HAL_Driver/Src/stm32l4xx_hal_lptim.c ****   * @retval HAL status
 759:Drivers/STM32L4xx_HAL_Driver/Src/stm32l4xx_hal_lptim.c ****   */
ARM GAS  /tmp/ccB7T7H1.s 			page 30


 760:Drivers/STM32L4xx_HAL_Driver/Src/stm32l4xx_hal_lptim.c **** HAL_StatusTypeDef HAL_LPTIM_OnePulse_Start(LPTIM_HandleTypeDef *hlptim, uint32_t Period, uint32_t P
 761:Drivers/STM32L4xx_HAL_Driver/Src/stm32l4xx_hal_lptim.c **** {
 901              		.loc 1 761 1
 902              		.cfi_startproc
 903              		@ args = 0, pretend = 0, frame = 16
 904              		@ frame_needed = 1, uses_anonymous_args = 0
 905 0000 80B5     		push	{r7, lr}
 906              		.cfi_def_cfa_offset 8
 907              		.cfi_offset 7, -8
 908              		.cfi_offset 14, -4
 909 0002 84B0     		sub	sp, sp, #16
 910              		.cfi_def_cfa_offset 24
 911 0004 00AF     		add	r7, sp, #0
 912              		.cfi_def_cfa_register 7
 913 0006 F860     		str	r0, [r7, #12]
 914 0008 B960     		str	r1, [r7, #8]
 915 000a 7A60     		str	r2, [r7, #4]
 762:Drivers/STM32L4xx_HAL_Driver/Src/stm32l4xx_hal_lptim.c ****   /* Check the parameters */
 763:Drivers/STM32L4xx_HAL_Driver/Src/stm32l4xx_hal_lptim.c ****   assert_param(IS_LPTIM_INSTANCE(hlptim->Instance));
 764:Drivers/STM32L4xx_HAL_Driver/Src/stm32l4xx_hal_lptim.c ****   assert_param(IS_LPTIM_PERIOD(Period));
 765:Drivers/STM32L4xx_HAL_Driver/Src/stm32l4xx_hal_lptim.c ****   assert_param(IS_LPTIM_PULSE(Pulse));
 766:Drivers/STM32L4xx_HAL_Driver/Src/stm32l4xx_hal_lptim.c **** 
 767:Drivers/STM32L4xx_HAL_Driver/Src/stm32l4xx_hal_lptim.c ****   /* Set the LPTIM state */
 768:Drivers/STM32L4xx_HAL_Driver/Src/stm32l4xx_hal_lptim.c ****   hlptim->State = HAL_LPTIM_STATE_BUSY;
 916              		.loc 1 768 17
 917 000c FB68     		ldr	r3, [r7, #12]
 918 000e 0222     		movs	r2, #2
 919 0010 83F83620 		strb	r2, [r3, #54]
 769:Drivers/STM32L4xx_HAL_Driver/Src/stm32l4xx_hal_lptim.c **** 
 770:Drivers/STM32L4xx_HAL_Driver/Src/stm32l4xx_hal_lptim.c ****   /* Reset WAVE bit to set one pulse mode */
 771:Drivers/STM32L4xx_HAL_Driver/Src/stm32l4xx_hal_lptim.c ****   hlptim->Instance->CFGR &= ~LPTIM_CFGR_WAVE;
 920              		.loc 1 771 9
 921 0014 FB68     		ldr	r3, [r7, #12]
 922 0016 1B68     		ldr	r3, [r3]
 923              		.loc 1 771 19
 924 0018 DA68     		ldr	r2, [r3, #12]
 925              		.loc 1 771 9
 926 001a FB68     		ldr	r3, [r7, #12]
 927 001c 1B68     		ldr	r3, [r3]
 928              		.loc 1 771 26
 929 001e 22F48012 		bic	r2, r2, #1048576
 930 0022 DA60     		str	r2, [r3, #12]
 772:Drivers/STM32L4xx_HAL_Driver/Src/stm32l4xx_hal_lptim.c **** 
 773:Drivers/STM32L4xx_HAL_Driver/Src/stm32l4xx_hal_lptim.c ****   /* Enable the Peripheral */
 774:Drivers/STM32L4xx_HAL_Driver/Src/stm32l4xx_hal_lptim.c ****   __HAL_LPTIM_ENABLE(hlptim);
 931              		.loc 1 774 3
 932 0024 FB68     		ldr	r3, [r7, #12]
 933 0026 1B68     		ldr	r3, [r3]
 934 0028 1A69     		ldr	r2, [r3, #16]
 935 002a FB68     		ldr	r3, [r7, #12]
 936 002c 1B68     		ldr	r3, [r3]
 937 002e 42F00102 		orr	r2, r2, #1
 938 0032 1A61     		str	r2, [r3, #16]
 775:Drivers/STM32L4xx_HAL_Driver/Src/stm32l4xx_hal_lptim.c **** 
 776:Drivers/STM32L4xx_HAL_Driver/Src/stm32l4xx_hal_lptim.c ****   /* Clear flag */
 777:Drivers/STM32L4xx_HAL_Driver/Src/stm32l4xx_hal_lptim.c ****   __HAL_LPTIM_CLEAR_FLAG(hlptim, LPTIM_FLAG_ARROK);
 939              		.loc 1 777 3
ARM GAS  /tmp/ccB7T7H1.s 			page 31


 940 0034 FB68     		ldr	r3, [r7, #12]
 941 0036 1B68     		ldr	r3, [r3]
 942 0038 1022     		movs	r2, #16
 943 003a 5A60     		str	r2, [r3, #4]
 778:Drivers/STM32L4xx_HAL_Driver/Src/stm32l4xx_hal_lptim.c **** 
 779:Drivers/STM32L4xx_HAL_Driver/Src/stm32l4xx_hal_lptim.c ****   /* Load the period value in the autoreload register */
 780:Drivers/STM32L4xx_HAL_Driver/Src/stm32l4xx_hal_lptim.c ****   __HAL_LPTIM_AUTORELOAD_SET(hlptim, Period);
 944              		.loc 1 780 3
 945 003c FB68     		ldr	r3, [r7, #12]
 946 003e 1B68     		ldr	r3, [r3]
 947 0040 BA68     		ldr	r2, [r7, #8]
 948 0042 9A61     		str	r2, [r3, #24]
 781:Drivers/STM32L4xx_HAL_Driver/Src/stm32l4xx_hal_lptim.c **** 
 782:Drivers/STM32L4xx_HAL_Driver/Src/stm32l4xx_hal_lptim.c ****   /* Wait for the completion of the write operation to the LPTIM_ARR register */
 783:Drivers/STM32L4xx_HAL_Driver/Src/stm32l4xx_hal_lptim.c ****   if (LPTIM_WaitForFlag(hlptim, LPTIM_FLAG_ARROK) == HAL_TIMEOUT)
 949              		.loc 1 783 7
 950 0044 1021     		movs	r1, #16
 951 0046 F868     		ldr	r0, [r7, #12]
 952 0048 FFF7FEFF 		bl	LPTIM_WaitForFlag
 953 004c 0346     		mov	r3, r0
 954              		.loc 1 783 6 discriminator 1
 955 004e 032B     		cmp	r3, #3
 956 0050 01D1     		bne	.L41
 784:Drivers/STM32L4xx_HAL_Driver/Src/stm32l4xx_hal_lptim.c ****   {
 785:Drivers/STM32L4xx_HAL_Driver/Src/stm32l4xx_hal_lptim.c ****     return HAL_TIMEOUT;
 957              		.loc 1 785 12
 958 0052 0323     		movs	r3, #3
 959 0054 1DE0     		b	.L42
 960              	.L41:
 786:Drivers/STM32L4xx_HAL_Driver/Src/stm32l4xx_hal_lptim.c ****   }
 787:Drivers/STM32L4xx_HAL_Driver/Src/stm32l4xx_hal_lptim.c **** 
 788:Drivers/STM32L4xx_HAL_Driver/Src/stm32l4xx_hal_lptim.c ****   /* Clear flag */
 789:Drivers/STM32L4xx_HAL_Driver/Src/stm32l4xx_hal_lptim.c ****   __HAL_LPTIM_CLEAR_FLAG(hlptim, LPTIM_FLAG_CMPOK);
 961              		.loc 1 789 3
 962 0056 FB68     		ldr	r3, [r7, #12]
 963 0058 1B68     		ldr	r3, [r3]
 964 005a 0822     		movs	r2, #8
 965 005c 5A60     		str	r2, [r3, #4]
 790:Drivers/STM32L4xx_HAL_Driver/Src/stm32l4xx_hal_lptim.c **** 
 791:Drivers/STM32L4xx_HAL_Driver/Src/stm32l4xx_hal_lptim.c ****   /* Load the pulse value in the compare register */
 792:Drivers/STM32L4xx_HAL_Driver/Src/stm32l4xx_hal_lptim.c ****   __HAL_LPTIM_COMPARE_SET(hlptim, Pulse);
 966              		.loc 1 792 3
 967 005e FB68     		ldr	r3, [r7, #12]
 968 0060 1B68     		ldr	r3, [r3]
 969 0062 7A68     		ldr	r2, [r7, #4]
 970 0064 5A61     		str	r2, [r3, #20]
 793:Drivers/STM32L4xx_HAL_Driver/Src/stm32l4xx_hal_lptim.c **** 
 794:Drivers/STM32L4xx_HAL_Driver/Src/stm32l4xx_hal_lptim.c ****   /* Wait for the completion of the write operation to the LPTIM_CMP register */
 795:Drivers/STM32L4xx_HAL_Driver/Src/stm32l4xx_hal_lptim.c ****   if (LPTIM_WaitForFlag(hlptim, LPTIM_FLAG_CMPOK) == HAL_TIMEOUT)
 971              		.loc 1 795 7
 972 0066 0821     		movs	r1, #8
 973 0068 F868     		ldr	r0, [r7, #12]
 974 006a FFF7FEFF 		bl	LPTIM_WaitForFlag
 975 006e 0346     		mov	r3, r0
 976              		.loc 1 795 6 discriminator 1
 977 0070 032B     		cmp	r3, #3
 978 0072 01D1     		bne	.L43
ARM GAS  /tmp/ccB7T7H1.s 			page 32


 796:Drivers/STM32L4xx_HAL_Driver/Src/stm32l4xx_hal_lptim.c ****   {
 797:Drivers/STM32L4xx_HAL_Driver/Src/stm32l4xx_hal_lptim.c ****     return HAL_TIMEOUT;
 979              		.loc 1 797 12
 980 0074 0323     		movs	r3, #3
 981 0076 0CE0     		b	.L42
 982              	.L43:
 798:Drivers/STM32L4xx_HAL_Driver/Src/stm32l4xx_hal_lptim.c ****   }
 799:Drivers/STM32L4xx_HAL_Driver/Src/stm32l4xx_hal_lptim.c **** 
 800:Drivers/STM32L4xx_HAL_Driver/Src/stm32l4xx_hal_lptim.c ****   /* Start timer in single (one shot) mode */
 801:Drivers/STM32L4xx_HAL_Driver/Src/stm32l4xx_hal_lptim.c ****   __HAL_LPTIM_START_SINGLE(hlptim);
 983              		.loc 1 801 3
 984 0078 FB68     		ldr	r3, [r7, #12]
 985 007a 1B68     		ldr	r3, [r3]
 986 007c 1A69     		ldr	r2, [r3, #16]
 987 007e FB68     		ldr	r3, [r7, #12]
 988 0080 1B68     		ldr	r3, [r3]
 989 0082 42F00202 		orr	r2, r2, #2
 990 0086 1A61     		str	r2, [r3, #16]
 802:Drivers/STM32L4xx_HAL_Driver/Src/stm32l4xx_hal_lptim.c **** 
 803:Drivers/STM32L4xx_HAL_Driver/Src/stm32l4xx_hal_lptim.c ****   /* Change the LPTIM state */
 804:Drivers/STM32L4xx_HAL_Driver/Src/stm32l4xx_hal_lptim.c ****   hlptim->State = HAL_LPTIM_STATE_READY;
 991              		.loc 1 804 17
 992 0088 FB68     		ldr	r3, [r7, #12]
 993 008a 0122     		movs	r2, #1
 994 008c 83F83620 		strb	r2, [r3, #54]
 805:Drivers/STM32L4xx_HAL_Driver/Src/stm32l4xx_hal_lptim.c **** 
 806:Drivers/STM32L4xx_HAL_Driver/Src/stm32l4xx_hal_lptim.c ****   /* Return function status */
 807:Drivers/STM32L4xx_HAL_Driver/Src/stm32l4xx_hal_lptim.c ****   return HAL_OK;
 995              		.loc 1 807 10
 996 0090 0023     		movs	r3, #0
 997              	.L42:
 808:Drivers/STM32L4xx_HAL_Driver/Src/stm32l4xx_hal_lptim.c **** }
 998              		.loc 1 808 1
 999 0092 1846     		mov	r0, r3
 1000 0094 1037     		adds	r7, r7, #16
 1001              		.cfi_def_cfa_offset 8
 1002 0096 BD46     		mov	sp, r7
 1003              		.cfi_def_cfa_register 13
 1004              		@ sp needed
 1005 0098 80BD     		pop	{r7, pc}
 1006              		.cfi_endproc
 1007              	.LFE453:
 1009              		.section	.text.HAL_LPTIM_OnePulse_Stop,"ax",%progbits
 1010              		.align	1
 1011              		.global	HAL_LPTIM_OnePulse_Stop
 1012              		.syntax unified
 1013              		.thumb
 1014              		.thumb_func
 1016              	HAL_LPTIM_OnePulse_Stop:
 1017              	.LFB454:
 809:Drivers/STM32L4xx_HAL_Driver/Src/stm32l4xx_hal_lptim.c **** 
 810:Drivers/STM32L4xx_HAL_Driver/Src/stm32l4xx_hal_lptim.c **** /**
 811:Drivers/STM32L4xx_HAL_Driver/Src/stm32l4xx_hal_lptim.c ****   * @brief  Stop the LPTIM One pulse generation.
 812:Drivers/STM32L4xx_HAL_Driver/Src/stm32l4xx_hal_lptim.c ****   * @param  hlptim LPTIM handle
 813:Drivers/STM32L4xx_HAL_Driver/Src/stm32l4xx_hal_lptim.c ****   * @retval HAL status
 814:Drivers/STM32L4xx_HAL_Driver/Src/stm32l4xx_hal_lptim.c ****   */
 815:Drivers/STM32L4xx_HAL_Driver/Src/stm32l4xx_hal_lptim.c **** HAL_StatusTypeDef HAL_LPTIM_OnePulse_Stop(LPTIM_HandleTypeDef *hlptim)
ARM GAS  /tmp/ccB7T7H1.s 			page 33


 816:Drivers/STM32L4xx_HAL_Driver/Src/stm32l4xx_hal_lptim.c **** {
 1018              		.loc 1 816 1
 1019              		.cfi_startproc
 1020              		@ args = 0, pretend = 0, frame = 8
 1021              		@ frame_needed = 1, uses_anonymous_args = 0
 1022 0000 80B5     		push	{r7, lr}
 1023              		.cfi_def_cfa_offset 8
 1024              		.cfi_offset 7, -8
 1025              		.cfi_offset 14, -4
 1026 0002 82B0     		sub	sp, sp, #8
 1027              		.cfi_def_cfa_offset 16
 1028 0004 00AF     		add	r7, sp, #0
 1029              		.cfi_def_cfa_register 7
 1030 0006 7860     		str	r0, [r7, #4]
 817:Drivers/STM32L4xx_HAL_Driver/Src/stm32l4xx_hal_lptim.c ****   /* Check the parameters */
 818:Drivers/STM32L4xx_HAL_Driver/Src/stm32l4xx_hal_lptim.c ****   assert_param(IS_LPTIM_INSTANCE(hlptim->Instance));
 819:Drivers/STM32L4xx_HAL_Driver/Src/stm32l4xx_hal_lptim.c **** 
 820:Drivers/STM32L4xx_HAL_Driver/Src/stm32l4xx_hal_lptim.c ****   /* Set the LPTIM state */
 821:Drivers/STM32L4xx_HAL_Driver/Src/stm32l4xx_hal_lptim.c ****   hlptim->State = HAL_LPTIM_STATE_BUSY;
 1031              		.loc 1 821 17
 1032 0008 7B68     		ldr	r3, [r7, #4]
 1033 000a 0222     		movs	r2, #2
 1034 000c 83F83620 		strb	r2, [r3, #54]
 822:Drivers/STM32L4xx_HAL_Driver/Src/stm32l4xx_hal_lptim.c **** 
 823:Drivers/STM32L4xx_HAL_Driver/Src/stm32l4xx_hal_lptim.c ****   /* Disable the Peripheral */
 824:Drivers/STM32L4xx_HAL_Driver/Src/stm32l4xx_hal_lptim.c ****   __HAL_LPTIM_DISABLE(hlptim);
 1035              		.loc 1 824 3
 1036 0010 7868     		ldr	r0, [r7, #4]
 1037 0012 FFF7FEFF 		bl	LPTIM_Disable
 825:Drivers/STM32L4xx_HAL_Driver/Src/stm32l4xx_hal_lptim.c **** 
 826:Drivers/STM32L4xx_HAL_Driver/Src/stm32l4xx_hal_lptim.c ****   if (HAL_LPTIM_GetState(hlptim) == HAL_LPTIM_STATE_TIMEOUT)
 1038              		.loc 1 826 7
 1039 0016 7868     		ldr	r0, [r7, #4]
 1040 0018 FFF7FEFF 		bl	HAL_LPTIM_GetState
 1041 001c 0346     		mov	r3, r0
 1042              		.loc 1 826 6 discriminator 1
 1043 001e 032B     		cmp	r3, #3
 1044 0020 01D1     		bne	.L45
 827:Drivers/STM32L4xx_HAL_Driver/Src/stm32l4xx_hal_lptim.c ****   {
 828:Drivers/STM32L4xx_HAL_Driver/Src/stm32l4xx_hal_lptim.c ****     return HAL_TIMEOUT;
 1045              		.loc 1 828 12
 1046 0022 0323     		movs	r3, #3
 1047 0024 04E0     		b	.L46
 1048              	.L45:
 829:Drivers/STM32L4xx_HAL_Driver/Src/stm32l4xx_hal_lptim.c ****   }
 830:Drivers/STM32L4xx_HAL_Driver/Src/stm32l4xx_hal_lptim.c **** 
 831:Drivers/STM32L4xx_HAL_Driver/Src/stm32l4xx_hal_lptim.c ****   /* Change the LPTIM state */
 832:Drivers/STM32L4xx_HAL_Driver/Src/stm32l4xx_hal_lptim.c ****   hlptim->State = HAL_LPTIM_STATE_READY;
 1049              		.loc 1 832 17
 1050 0026 7B68     		ldr	r3, [r7, #4]
 1051 0028 0122     		movs	r2, #1
 1052 002a 83F83620 		strb	r2, [r3, #54]
 833:Drivers/STM32L4xx_HAL_Driver/Src/stm32l4xx_hal_lptim.c **** 
 834:Drivers/STM32L4xx_HAL_Driver/Src/stm32l4xx_hal_lptim.c ****   /* Return function status */
 835:Drivers/STM32L4xx_HAL_Driver/Src/stm32l4xx_hal_lptim.c ****   return HAL_OK;
 1053              		.loc 1 835 10
 1054 002e 0023     		movs	r3, #0
ARM GAS  /tmp/ccB7T7H1.s 			page 34


 1055              	.L46:
 836:Drivers/STM32L4xx_HAL_Driver/Src/stm32l4xx_hal_lptim.c **** }
 1056              		.loc 1 836 1
 1057 0030 1846     		mov	r0, r3
 1058 0032 0837     		adds	r7, r7, #8
 1059              		.cfi_def_cfa_offset 8
 1060 0034 BD46     		mov	sp, r7
 1061              		.cfi_def_cfa_register 13
 1062              		@ sp needed
 1063 0036 80BD     		pop	{r7, pc}
 1064              		.cfi_endproc
 1065              	.LFE454:
 1067              		.section	.text.HAL_LPTIM_OnePulse_Start_IT,"ax",%progbits
 1068              		.align	1
 1069              		.global	HAL_LPTIM_OnePulse_Start_IT
 1070              		.syntax unified
 1071              		.thumb
 1072              		.thumb_func
 1074              	HAL_LPTIM_OnePulse_Start_IT:
 1075              	.LFB455:
 837:Drivers/STM32L4xx_HAL_Driver/Src/stm32l4xx_hal_lptim.c **** 
 838:Drivers/STM32L4xx_HAL_Driver/Src/stm32l4xx_hal_lptim.c **** /**
 839:Drivers/STM32L4xx_HAL_Driver/Src/stm32l4xx_hal_lptim.c ****   * @brief  Start the LPTIM One pulse generation in interrupt mode.
 840:Drivers/STM32L4xx_HAL_Driver/Src/stm32l4xx_hal_lptim.c ****   * @param  hlptim LPTIM handle
 841:Drivers/STM32L4xx_HAL_Driver/Src/stm32l4xx_hal_lptim.c ****   * @param  Period Specifies the Autoreload value.
 842:Drivers/STM32L4xx_HAL_Driver/Src/stm32l4xx_hal_lptim.c ****   *         This parameter must be a value between 0x0001 and 0xFFFF.
 843:Drivers/STM32L4xx_HAL_Driver/Src/stm32l4xx_hal_lptim.c ****   * @param  Pulse Specifies the compare value.
 844:Drivers/STM32L4xx_HAL_Driver/Src/stm32l4xx_hal_lptim.c ****   *         This parameter must be a value between 0x0000 and 0xFFFF.
 845:Drivers/STM32L4xx_HAL_Driver/Src/stm32l4xx_hal_lptim.c ****   * @retval HAL status
 846:Drivers/STM32L4xx_HAL_Driver/Src/stm32l4xx_hal_lptim.c ****   */
 847:Drivers/STM32L4xx_HAL_Driver/Src/stm32l4xx_hal_lptim.c **** HAL_StatusTypeDef HAL_LPTIM_OnePulse_Start_IT(LPTIM_HandleTypeDef *hlptim, uint32_t Period, uint32_
 848:Drivers/STM32L4xx_HAL_Driver/Src/stm32l4xx_hal_lptim.c **** {
 1076              		.loc 1 848 1
 1077              		.cfi_startproc
 1078              		@ args = 0, pretend = 0, frame = 16
 1079              		@ frame_needed = 1, uses_anonymous_args = 0
 1080 0000 80B5     		push	{r7, lr}
 1081              		.cfi_def_cfa_offset 8
 1082              		.cfi_offset 7, -8
 1083              		.cfi_offset 14, -4
 1084 0002 84B0     		sub	sp, sp, #16
 1085              		.cfi_def_cfa_offset 24
 1086 0004 00AF     		add	r7, sp, #0
 1087              		.cfi_def_cfa_register 7
 1088 0006 F860     		str	r0, [r7, #12]
 1089 0008 B960     		str	r1, [r7, #8]
 1090 000a 7A60     		str	r2, [r7, #4]
 849:Drivers/STM32L4xx_HAL_Driver/Src/stm32l4xx_hal_lptim.c ****   /* Check the parameters */
 850:Drivers/STM32L4xx_HAL_Driver/Src/stm32l4xx_hal_lptim.c ****   assert_param(IS_LPTIM_INSTANCE(hlptim->Instance));
 851:Drivers/STM32L4xx_HAL_Driver/Src/stm32l4xx_hal_lptim.c ****   assert_param(IS_LPTIM_PERIOD(Period));
 852:Drivers/STM32L4xx_HAL_Driver/Src/stm32l4xx_hal_lptim.c ****   assert_param(IS_LPTIM_PULSE(Pulse));
 853:Drivers/STM32L4xx_HAL_Driver/Src/stm32l4xx_hal_lptim.c **** 
 854:Drivers/STM32L4xx_HAL_Driver/Src/stm32l4xx_hal_lptim.c ****   /* Set the LPTIM state */
 855:Drivers/STM32L4xx_HAL_Driver/Src/stm32l4xx_hal_lptim.c ****   hlptim->State = HAL_LPTIM_STATE_BUSY;
 1091              		.loc 1 855 17
 1092 000c FB68     		ldr	r3, [r7, #12]
 1093 000e 0222     		movs	r2, #2
ARM GAS  /tmp/ccB7T7H1.s 			page 35


 1094 0010 83F83620 		strb	r2, [r3, #54]
 856:Drivers/STM32L4xx_HAL_Driver/Src/stm32l4xx_hal_lptim.c **** 
 857:Drivers/STM32L4xx_HAL_Driver/Src/stm32l4xx_hal_lptim.c ****   /* Reset WAVE bit to set one pulse mode */
 858:Drivers/STM32L4xx_HAL_Driver/Src/stm32l4xx_hal_lptim.c ****   hlptim->Instance->CFGR &= ~LPTIM_CFGR_WAVE;
 1095              		.loc 1 858 9
 1096 0014 FB68     		ldr	r3, [r7, #12]
 1097 0016 1B68     		ldr	r3, [r3]
 1098              		.loc 1 858 19
 1099 0018 DA68     		ldr	r2, [r3, #12]
 1100              		.loc 1 858 9
 1101 001a FB68     		ldr	r3, [r7, #12]
 1102 001c 1B68     		ldr	r3, [r3]
 1103              		.loc 1 858 26
 1104 001e 22F48012 		bic	r2, r2, #1048576
 1105 0022 DA60     		str	r2, [r3, #12]
 859:Drivers/STM32L4xx_HAL_Driver/Src/stm32l4xx_hal_lptim.c **** 
 860:Drivers/STM32L4xx_HAL_Driver/Src/stm32l4xx_hal_lptim.c ****   /* Enable the Peripheral */
 861:Drivers/STM32L4xx_HAL_Driver/Src/stm32l4xx_hal_lptim.c ****   __HAL_LPTIM_ENABLE(hlptim);
 1106              		.loc 1 861 3
 1107 0024 FB68     		ldr	r3, [r7, #12]
 1108 0026 1B68     		ldr	r3, [r3]
 1109 0028 1A69     		ldr	r2, [r3, #16]
 1110 002a FB68     		ldr	r3, [r7, #12]
 1111 002c 1B68     		ldr	r3, [r3]
 1112 002e 42F00102 		orr	r2, r2, #1
 1113 0032 1A61     		str	r2, [r3, #16]
 862:Drivers/STM32L4xx_HAL_Driver/Src/stm32l4xx_hal_lptim.c **** 
 863:Drivers/STM32L4xx_HAL_Driver/Src/stm32l4xx_hal_lptim.c ****   /* Clear flag */
 864:Drivers/STM32L4xx_HAL_Driver/Src/stm32l4xx_hal_lptim.c ****   __HAL_LPTIM_CLEAR_FLAG(hlptim, LPTIM_FLAG_ARROK);
 1114              		.loc 1 864 3
 1115 0034 FB68     		ldr	r3, [r7, #12]
 1116 0036 1B68     		ldr	r3, [r3]
 1117 0038 1022     		movs	r2, #16
 1118 003a 5A60     		str	r2, [r3, #4]
 865:Drivers/STM32L4xx_HAL_Driver/Src/stm32l4xx_hal_lptim.c **** 
 866:Drivers/STM32L4xx_HAL_Driver/Src/stm32l4xx_hal_lptim.c ****   /* Load the period value in the autoreload register */
 867:Drivers/STM32L4xx_HAL_Driver/Src/stm32l4xx_hal_lptim.c ****   __HAL_LPTIM_AUTORELOAD_SET(hlptim, Period);
 1119              		.loc 1 867 3
 1120 003c FB68     		ldr	r3, [r7, #12]
 1121 003e 1B68     		ldr	r3, [r3]
 1122 0040 BA68     		ldr	r2, [r7, #8]
 1123 0042 9A61     		str	r2, [r3, #24]
 868:Drivers/STM32L4xx_HAL_Driver/Src/stm32l4xx_hal_lptim.c **** 
 869:Drivers/STM32L4xx_HAL_Driver/Src/stm32l4xx_hal_lptim.c ****   /* Wait for the completion of the write operation to the LPTIM_ARR register */
 870:Drivers/STM32L4xx_HAL_Driver/Src/stm32l4xx_hal_lptim.c ****   if (LPTIM_WaitForFlag(hlptim, LPTIM_FLAG_ARROK) == HAL_TIMEOUT)
 1124              		.loc 1 870 7
 1125 0044 1021     		movs	r1, #16
 1126 0046 F868     		ldr	r0, [r7, #12]
 1127 0048 FFF7FEFF 		bl	LPTIM_WaitForFlag
 1128 004c 0346     		mov	r3, r0
 1129              		.loc 1 870 6 discriminator 1
 1130 004e 032B     		cmp	r3, #3
 1131 0050 01D1     		bne	.L48
 871:Drivers/STM32L4xx_HAL_Driver/Src/stm32l4xx_hal_lptim.c ****   {
 872:Drivers/STM32L4xx_HAL_Driver/Src/stm32l4xx_hal_lptim.c ****     return HAL_TIMEOUT;
 1132              		.loc 1 872 12
 1133 0052 0323     		movs	r3, #3
ARM GAS  /tmp/ccB7T7H1.s 			page 36


 1134 0054 5EE0     		b	.L49
 1135              	.L48:
 873:Drivers/STM32L4xx_HAL_Driver/Src/stm32l4xx_hal_lptim.c ****   }
 874:Drivers/STM32L4xx_HAL_Driver/Src/stm32l4xx_hal_lptim.c **** 
 875:Drivers/STM32L4xx_HAL_Driver/Src/stm32l4xx_hal_lptim.c ****   /* Clear flag */
 876:Drivers/STM32L4xx_HAL_Driver/Src/stm32l4xx_hal_lptim.c ****   __HAL_LPTIM_CLEAR_FLAG(hlptim, LPTIM_FLAG_CMPOK);
 1136              		.loc 1 876 3
 1137 0056 FB68     		ldr	r3, [r7, #12]
 1138 0058 1B68     		ldr	r3, [r3]
 1139 005a 0822     		movs	r2, #8
 1140 005c 5A60     		str	r2, [r3, #4]
 877:Drivers/STM32L4xx_HAL_Driver/Src/stm32l4xx_hal_lptim.c **** 
 878:Drivers/STM32L4xx_HAL_Driver/Src/stm32l4xx_hal_lptim.c ****   /* Load the pulse value in the compare register */
 879:Drivers/STM32L4xx_HAL_Driver/Src/stm32l4xx_hal_lptim.c ****   __HAL_LPTIM_COMPARE_SET(hlptim, Pulse);
 1141              		.loc 1 879 3
 1142 005e FB68     		ldr	r3, [r7, #12]
 1143 0060 1B68     		ldr	r3, [r3]
 1144 0062 7A68     		ldr	r2, [r7, #4]
 1145 0064 5A61     		str	r2, [r3, #20]
 880:Drivers/STM32L4xx_HAL_Driver/Src/stm32l4xx_hal_lptim.c **** 
 881:Drivers/STM32L4xx_HAL_Driver/Src/stm32l4xx_hal_lptim.c ****   /* Wait for the completion of the write operation to the LPTIM_CMP register */
 882:Drivers/STM32L4xx_HAL_Driver/Src/stm32l4xx_hal_lptim.c ****   if (LPTIM_WaitForFlag(hlptim, LPTIM_FLAG_CMPOK) == HAL_TIMEOUT)
 1146              		.loc 1 882 7
 1147 0066 0821     		movs	r1, #8
 1148 0068 F868     		ldr	r0, [r7, #12]
 1149 006a FFF7FEFF 		bl	LPTIM_WaitForFlag
 1150 006e 0346     		mov	r3, r0
 1151              		.loc 1 882 6 discriminator 1
 1152 0070 032B     		cmp	r3, #3
 1153 0072 01D1     		bne	.L50
 883:Drivers/STM32L4xx_HAL_Driver/Src/stm32l4xx_hal_lptim.c ****   {
 884:Drivers/STM32L4xx_HAL_Driver/Src/stm32l4xx_hal_lptim.c ****     return HAL_TIMEOUT;
 1154              		.loc 1 884 12
 1155 0074 0323     		movs	r3, #3
 1156 0076 4DE0     		b	.L49
 1157              	.L50:
 885:Drivers/STM32L4xx_HAL_Driver/Src/stm32l4xx_hal_lptim.c ****   }
 886:Drivers/STM32L4xx_HAL_Driver/Src/stm32l4xx_hal_lptim.c **** 
 887:Drivers/STM32L4xx_HAL_Driver/Src/stm32l4xx_hal_lptim.c ****   /* Disable the Peripheral */
 888:Drivers/STM32L4xx_HAL_Driver/Src/stm32l4xx_hal_lptim.c ****   __HAL_LPTIM_DISABLE(hlptim);
 1158              		.loc 1 888 3
 1159 0078 F868     		ldr	r0, [r7, #12]
 1160 007a FFF7FEFF 		bl	LPTIM_Disable
 889:Drivers/STM32L4xx_HAL_Driver/Src/stm32l4xx_hal_lptim.c **** 
 890:Drivers/STM32L4xx_HAL_Driver/Src/stm32l4xx_hal_lptim.c ****   if (HAL_LPTIM_GetState(hlptim) == HAL_LPTIM_STATE_TIMEOUT)
 1161              		.loc 1 890 7
 1162 007e F868     		ldr	r0, [r7, #12]
 1163 0080 FFF7FEFF 		bl	HAL_LPTIM_GetState
 1164 0084 0346     		mov	r3, r0
 1165              		.loc 1 890 6 discriminator 1
 1166 0086 032B     		cmp	r3, #3
 1167 0088 01D1     		bne	.L51
 891:Drivers/STM32L4xx_HAL_Driver/Src/stm32l4xx_hal_lptim.c ****   {
 892:Drivers/STM32L4xx_HAL_Driver/Src/stm32l4xx_hal_lptim.c ****     return HAL_TIMEOUT;
 1168              		.loc 1 892 12
 1169 008a 0323     		movs	r3, #3
 1170 008c 42E0     		b	.L49
ARM GAS  /tmp/ccB7T7H1.s 			page 37


 1171              	.L51:
 893:Drivers/STM32L4xx_HAL_Driver/Src/stm32l4xx_hal_lptim.c ****   }
 894:Drivers/STM32L4xx_HAL_Driver/Src/stm32l4xx_hal_lptim.c **** 
 895:Drivers/STM32L4xx_HAL_Driver/Src/stm32l4xx_hal_lptim.c ****   /* Enable Autoreload write complete interrupt */
 896:Drivers/STM32L4xx_HAL_Driver/Src/stm32l4xx_hal_lptim.c ****   __HAL_LPTIM_ENABLE_IT(hlptim, LPTIM_IT_ARROK);
 1172              		.loc 1 896 3
 1173 008e FB68     		ldr	r3, [r7, #12]
 1174 0090 1B68     		ldr	r3, [r3]
 1175 0092 9A68     		ldr	r2, [r3, #8]
 1176 0094 FB68     		ldr	r3, [r7, #12]
 1177 0096 1B68     		ldr	r3, [r3]
 1178 0098 42F01002 		orr	r2, r2, #16
 1179 009c 9A60     		str	r2, [r3, #8]
 897:Drivers/STM32L4xx_HAL_Driver/Src/stm32l4xx_hal_lptim.c **** 
 898:Drivers/STM32L4xx_HAL_Driver/Src/stm32l4xx_hal_lptim.c ****   /* Enable Compare write complete interrupt */
 899:Drivers/STM32L4xx_HAL_Driver/Src/stm32l4xx_hal_lptim.c ****   __HAL_LPTIM_ENABLE_IT(hlptim, LPTIM_IT_CMPOK);
 1180              		.loc 1 899 3
 1181 009e FB68     		ldr	r3, [r7, #12]
 1182 00a0 1B68     		ldr	r3, [r3]
 1183 00a2 9A68     		ldr	r2, [r3, #8]
 1184 00a4 FB68     		ldr	r3, [r7, #12]
 1185 00a6 1B68     		ldr	r3, [r3]
 1186 00a8 42F00802 		orr	r2, r2, #8
 1187 00ac 9A60     		str	r2, [r3, #8]
 900:Drivers/STM32L4xx_HAL_Driver/Src/stm32l4xx_hal_lptim.c **** 
 901:Drivers/STM32L4xx_HAL_Driver/Src/stm32l4xx_hal_lptim.c ****   /* Enable Autoreload match interrupt */
 902:Drivers/STM32L4xx_HAL_Driver/Src/stm32l4xx_hal_lptim.c ****   __HAL_LPTIM_ENABLE_IT(hlptim, LPTIM_IT_ARRM);
 1188              		.loc 1 902 3
 1189 00ae FB68     		ldr	r3, [r7, #12]
 1190 00b0 1B68     		ldr	r3, [r3]
 1191 00b2 9A68     		ldr	r2, [r3, #8]
 1192 00b4 FB68     		ldr	r3, [r7, #12]
 1193 00b6 1B68     		ldr	r3, [r3]
 1194 00b8 42F00202 		orr	r2, r2, #2
 1195 00bc 9A60     		str	r2, [r3, #8]
 903:Drivers/STM32L4xx_HAL_Driver/Src/stm32l4xx_hal_lptim.c **** 
 904:Drivers/STM32L4xx_HAL_Driver/Src/stm32l4xx_hal_lptim.c ****   /* Enable Compare match interrupt */
 905:Drivers/STM32L4xx_HAL_Driver/Src/stm32l4xx_hal_lptim.c ****   __HAL_LPTIM_ENABLE_IT(hlptim, LPTIM_IT_CMPM);
 1196              		.loc 1 905 3
 1197 00be FB68     		ldr	r3, [r7, #12]
 1198 00c0 1B68     		ldr	r3, [r3]
 1199 00c2 9A68     		ldr	r2, [r3, #8]
 1200 00c4 FB68     		ldr	r3, [r7, #12]
 1201 00c6 1B68     		ldr	r3, [r3]
 1202 00c8 42F00102 		orr	r2, r2, #1
 1203 00cc 9A60     		str	r2, [r3, #8]
 906:Drivers/STM32L4xx_HAL_Driver/Src/stm32l4xx_hal_lptim.c **** 
 907:Drivers/STM32L4xx_HAL_Driver/Src/stm32l4xx_hal_lptim.c ****   /* If external trigger source is used, then enable external trigger interrupt */
 908:Drivers/STM32L4xx_HAL_Driver/Src/stm32l4xx_hal_lptim.c ****   if ((hlptim->Init.Trigger.Source) != LPTIM_TRIGSOURCE_SOFTWARE)
 1204              		.loc 1 908 28
 1205 00ce FB68     		ldr	r3, [r7, #12]
 1206 00d0 5B69     		ldr	r3, [r3, #20]
 1207              		.loc 1 908 6
 1208 00d2 4FF6FF72 		movw	r2, #65535
 1209 00d6 9342     		cmp	r3, r2
 1210 00d8 07D0     		beq	.L52
 909:Drivers/STM32L4xx_HAL_Driver/Src/stm32l4xx_hal_lptim.c ****   {
ARM GAS  /tmp/ccB7T7H1.s 			page 38


 910:Drivers/STM32L4xx_HAL_Driver/Src/stm32l4xx_hal_lptim.c ****     /* Enable external trigger interrupt */
 911:Drivers/STM32L4xx_HAL_Driver/Src/stm32l4xx_hal_lptim.c ****     __HAL_LPTIM_ENABLE_IT(hlptim, LPTIM_IT_EXTTRIG);
 1211              		.loc 1 911 5
 1212 00da FB68     		ldr	r3, [r7, #12]
 1213 00dc 1B68     		ldr	r3, [r3]
 1214 00de 9A68     		ldr	r2, [r3, #8]
 1215 00e0 FB68     		ldr	r3, [r7, #12]
 1216 00e2 1B68     		ldr	r3, [r3]
 1217 00e4 42F00402 		orr	r2, r2, #4
 1218 00e8 9A60     		str	r2, [r3, #8]
 1219              	.L52:
 912:Drivers/STM32L4xx_HAL_Driver/Src/stm32l4xx_hal_lptim.c ****   }
 913:Drivers/STM32L4xx_HAL_Driver/Src/stm32l4xx_hal_lptim.c **** #if defined(LPTIM_RCR_REP)
 914:Drivers/STM32L4xx_HAL_Driver/Src/stm32l4xx_hal_lptim.c **** 
 915:Drivers/STM32L4xx_HAL_Driver/Src/stm32l4xx_hal_lptim.c ****   /* Enable Rep Update Ok interrupt */
 916:Drivers/STM32L4xx_HAL_Driver/Src/stm32l4xx_hal_lptim.c ****   __HAL_LPTIM_ENABLE_IT(hlptim, LPTIM_IT_REPOK);
 917:Drivers/STM32L4xx_HAL_Driver/Src/stm32l4xx_hal_lptim.c **** 
 918:Drivers/STM32L4xx_HAL_Driver/Src/stm32l4xx_hal_lptim.c ****   /* Enable Update Event interrupt */
 919:Drivers/STM32L4xx_HAL_Driver/Src/stm32l4xx_hal_lptim.c ****   __HAL_LPTIM_ENABLE_IT(hlptim, LPTIM_IT_UPDATE);
 920:Drivers/STM32L4xx_HAL_Driver/Src/stm32l4xx_hal_lptim.c **** #endif
 921:Drivers/STM32L4xx_HAL_Driver/Src/stm32l4xx_hal_lptim.c **** 
 922:Drivers/STM32L4xx_HAL_Driver/Src/stm32l4xx_hal_lptim.c ****   /* Enable the Peripheral */
 923:Drivers/STM32L4xx_HAL_Driver/Src/stm32l4xx_hal_lptim.c ****   __HAL_LPTIM_ENABLE(hlptim);
 1220              		.loc 1 923 3
 1221 00ea FB68     		ldr	r3, [r7, #12]
 1222 00ec 1B68     		ldr	r3, [r3]
 1223 00ee 1A69     		ldr	r2, [r3, #16]
 1224 00f0 FB68     		ldr	r3, [r7, #12]
 1225 00f2 1B68     		ldr	r3, [r3]
 1226 00f4 42F00102 		orr	r2, r2, #1
 1227 00f8 1A61     		str	r2, [r3, #16]
 924:Drivers/STM32L4xx_HAL_Driver/Src/stm32l4xx_hal_lptim.c **** 
 925:Drivers/STM32L4xx_HAL_Driver/Src/stm32l4xx_hal_lptim.c ****   /* Start timer in single (one shot) mode */
 926:Drivers/STM32L4xx_HAL_Driver/Src/stm32l4xx_hal_lptim.c ****   __HAL_LPTIM_START_SINGLE(hlptim);
 1228              		.loc 1 926 3
 1229 00fa FB68     		ldr	r3, [r7, #12]
 1230 00fc 1B68     		ldr	r3, [r3]
 1231 00fe 1A69     		ldr	r2, [r3, #16]
 1232 0100 FB68     		ldr	r3, [r7, #12]
 1233 0102 1B68     		ldr	r3, [r3]
 1234 0104 42F00202 		orr	r2, r2, #2
 1235 0108 1A61     		str	r2, [r3, #16]
 927:Drivers/STM32L4xx_HAL_Driver/Src/stm32l4xx_hal_lptim.c **** 
 928:Drivers/STM32L4xx_HAL_Driver/Src/stm32l4xx_hal_lptim.c ****   /* Change the LPTIM state */
 929:Drivers/STM32L4xx_HAL_Driver/Src/stm32l4xx_hal_lptim.c ****   hlptim->State = HAL_LPTIM_STATE_READY;
 1236              		.loc 1 929 17
 1237 010a FB68     		ldr	r3, [r7, #12]
 1238 010c 0122     		movs	r2, #1
 1239 010e 83F83620 		strb	r2, [r3, #54]
 930:Drivers/STM32L4xx_HAL_Driver/Src/stm32l4xx_hal_lptim.c **** 
 931:Drivers/STM32L4xx_HAL_Driver/Src/stm32l4xx_hal_lptim.c ****   /* Return function status */
 932:Drivers/STM32L4xx_HAL_Driver/Src/stm32l4xx_hal_lptim.c ****   return HAL_OK;
 1240              		.loc 1 932 10
 1241 0112 0023     		movs	r3, #0
 1242              	.L49:
 933:Drivers/STM32L4xx_HAL_Driver/Src/stm32l4xx_hal_lptim.c **** }
 1243              		.loc 1 933 1
ARM GAS  /tmp/ccB7T7H1.s 			page 39


 1244 0114 1846     		mov	r0, r3
 1245 0116 1037     		adds	r7, r7, #16
 1246              		.cfi_def_cfa_offset 8
 1247 0118 BD46     		mov	sp, r7
 1248              		.cfi_def_cfa_register 13
 1249              		@ sp needed
 1250 011a 80BD     		pop	{r7, pc}
 1251              		.cfi_endproc
 1252              	.LFE455:
 1254              		.section	.text.HAL_LPTIM_OnePulse_Stop_IT,"ax",%progbits
 1255              		.align	1
 1256              		.global	HAL_LPTIM_OnePulse_Stop_IT
 1257              		.syntax unified
 1258              		.thumb
 1259              		.thumb_func
 1261              	HAL_LPTIM_OnePulse_Stop_IT:
 1262              	.LFB456:
 934:Drivers/STM32L4xx_HAL_Driver/Src/stm32l4xx_hal_lptim.c **** 
 935:Drivers/STM32L4xx_HAL_Driver/Src/stm32l4xx_hal_lptim.c **** /**
 936:Drivers/STM32L4xx_HAL_Driver/Src/stm32l4xx_hal_lptim.c ****   * @brief  Stop the LPTIM One pulse generation in interrupt mode.
 937:Drivers/STM32L4xx_HAL_Driver/Src/stm32l4xx_hal_lptim.c ****   * @param  hlptim LPTIM handle
 938:Drivers/STM32L4xx_HAL_Driver/Src/stm32l4xx_hal_lptim.c ****   * @retval HAL status
 939:Drivers/STM32L4xx_HAL_Driver/Src/stm32l4xx_hal_lptim.c ****   */
 940:Drivers/STM32L4xx_HAL_Driver/Src/stm32l4xx_hal_lptim.c **** HAL_StatusTypeDef HAL_LPTIM_OnePulse_Stop_IT(LPTIM_HandleTypeDef *hlptim)
 941:Drivers/STM32L4xx_HAL_Driver/Src/stm32l4xx_hal_lptim.c **** {
 1263              		.loc 1 941 1
 1264              		.cfi_startproc
 1265              		@ args = 0, pretend = 0, frame = 8
 1266              		@ frame_needed = 1, uses_anonymous_args = 0
 1267 0000 80B5     		push	{r7, lr}
 1268              		.cfi_def_cfa_offset 8
 1269              		.cfi_offset 7, -8
 1270              		.cfi_offset 14, -4
 1271 0002 82B0     		sub	sp, sp, #8
 1272              		.cfi_def_cfa_offset 16
 1273 0004 00AF     		add	r7, sp, #0
 1274              		.cfi_def_cfa_register 7
 1275 0006 7860     		str	r0, [r7, #4]
 942:Drivers/STM32L4xx_HAL_Driver/Src/stm32l4xx_hal_lptim.c ****   /* Check the parameters */
 943:Drivers/STM32L4xx_HAL_Driver/Src/stm32l4xx_hal_lptim.c ****   assert_param(IS_LPTIM_INSTANCE(hlptim->Instance));
 944:Drivers/STM32L4xx_HAL_Driver/Src/stm32l4xx_hal_lptim.c **** 
 945:Drivers/STM32L4xx_HAL_Driver/Src/stm32l4xx_hal_lptim.c ****   /* Set the LPTIM state */
 946:Drivers/STM32L4xx_HAL_Driver/Src/stm32l4xx_hal_lptim.c ****   hlptim->State = HAL_LPTIM_STATE_BUSY;
 1276              		.loc 1 946 17
 1277 0008 7B68     		ldr	r3, [r7, #4]
 1278 000a 0222     		movs	r2, #2
 1279 000c 83F83620 		strb	r2, [r3, #54]
 947:Drivers/STM32L4xx_HAL_Driver/Src/stm32l4xx_hal_lptim.c **** 
 948:Drivers/STM32L4xx_HAL_Driver/Src/stm32l4xx_hal_lptim.c **** 
 949:Drivers/STM32L4xx_HAL_Driver/Src/stm32l4xx_hal_lptim.c ****   /* Disable the Peripheral */
 950:Drivers/STM32L4xx_HAL_Driver/Src/stm32l4xx_hal_lptim.c ****   __HAL_LPTIM_DISABLE(hlptim);
 1280              		.loc 1 950 3
 1281 0010 7868     		ldr	r0, [r7, #4]
 1282 0012 FFF7FEFF 		bl	LPTIM_Disable
 951:Drivers/STM32L4xx_HAL_Driver/Src/stm32l4xx_hal_lptim.c **** 
 952:Drivers/STM32L4xx_HAL_Driver/Src/stm32l4xx_hal_lptim.c ****   if (HAL_LPTIM_GetState(hlptim) == HAL_LPTIM_STATE_TIMEOUT)
 1283              		.loc 1 952 7
ARM GAS  /tmp/ccB7T7H1.s 			page 40


 1284 0016 7868     		ldr	r0, [r7, #4]
 1285 0018 FFF7FEFF 		bl	HAL_LPTIM_GetState
 1286 001c 0346     		mov	r3, r0
 1287              		.loc 1 952 6 discriminator 1
 1288 001e 032B     		cmp	r3, #3
 1289 0020 01D1     		bne	.L54
 953:Drivers/STM32L4xx_HAL_Driver/Src/stm32l4xx_hal_lptim.c ****   {
 954:Drivers/STM32L4xx_HAL_Driver/Src/stm32l4xx_hal_lptim.c ****     return HAL_TIMEOUT;
 1290              		.loc 1 954 12
 1291 0022 0323     		movs	r3, #3
 1292 0024 32E0     		b	.L55
 1293              	.L54:
 955:Drivers/STM32L4xx_HAL_Driver/Src/stm32l4xx_hal_lptim.c ****   }
 956:Drivers/STM32L4xx_HAL_Driver/Src/stm32l4xx_hal_lptim.c **** 
 957:Drivers/STM32L4xx_HAL_Driver/Src/stm32l4xx_hal_lptim.c ****   /* Disable Autoreload write complete interrupt */
 958:Drivers/STM32L4xx_HAL_Driver/Src/stm32l4xx_hal_lptim.c ****   __HAL_LPTIM_DISABLE_IT(hlptim, LPTIM_IT_ARROK);
 1294              		.loc 1 958 3
 1295 0026 7B68     		ldr	r3, [r7, #4]
 1296 0028 1B68     		ldr	r3, [r3]
 1297 002a 9A68     		ldr	r2, [r3, #8]
 1298 002c 7B68     		ldr	r3, [r7, #4]
 1299 002e 1B68     		ldr	r3, [r3]
 1300 0030 22F01002 		bic	r2, r2, #16
 1301 0034 9A60     		str	r2, [r3, #8]
 959:Drivers/STM32L4xx_HAL_Driver/Src/stm32l4xx_hal_lptim.c **** 
 960:Drivers/STM32L4xx_HAL_Driver/Src/stm32l4xx_hal_lptim.c ****   /* Disable Compare write complete interrupt */
 961:Drivers/STM32L4xx_HAL_Driver/Src/stm32l4xx_hal_lptim.c ****   __HAL_LPTIM_DISABLE_IT(hlptim, LPTIM_IT_CMPOK);
 1302              		.loc 1 961 3
 1303 0036 7B68     		ldr	r3, [r7, #4]
 1304 0038 1B68     		ldr	r3, [r3]
 1305 003a 9A68     		ldr	r2, [r3, #8]
 1306 003c 7B68     		ldr	r3, [r7, #4]
 1307 003e 1B68     		ldr	r3, [r3]
 1308 0040 22F00802 		bic	r2, r2, #8
 1309 0044 9A60     		str	r2, [r3, #8]
 962:Drivers/STM32L4xx_HAL_Driver/Src/stm32l4xx_hal_lptim.c **** 
 963:Drivers/STM32L4xx_HAL_Driver/Src/stm32l4xx_hal_lptim.c ****   /* Disable Autoreload match interrupt */
 964:Drivers/STM32L4xx_HAL_Driver/Src/stm32l4xx_hal_lptim.c ****   __HAL_LPTIM_DISABLE_IT(hlptim, LPTIM_IT_ARRM);
 1310              		.loc 1 964 3
 1311 0046 7B68     		ldr	r3, [r7, #4]
 1312 0048 1B68     		ldr	r3, [r3]
 1313 004a 9A68     		ldr	r2, [r3, #8]
 1314 004c 7B68     		ldr	r3, [r7, #4]
 1315 004e 1B68     		ldr	r3, [r3]
 1316 0050 22F00202 		bic	r2, r2, #2
 1317 0054 9A60     		str	r2, [r3, #8]
 965:Drivers/STM32L4xx_HAL_Driver/Src/stm32l4xx_hal_lptim.c **** 
 966:Drivers/STM32L4xx_HAL_Driver/Src/stm32l4xx_hal_lptim.c ****   /* Disable Compare match interrupt */
 967:Drivers/STM32L4xx_HAL_Driver/Src/stm32l4xx_hal_lptim.c ****   __HAL_LPTIM_DISABLE_IT(hlptim, LPTIM_IT_CMPM);
 1318              		.loc 1 967 3
 1319 0056 7B68     		ldr	r3, [r7, #4]
 1320 0058 1B68     		ldr	r3, [r3]
 1321 005a 9A68     		ldr	r2, [r3, #8]
 1322 005c 7B68     		ldr	r3, [r7, #4]
 1323 005e 1B68     		ldr	r3, [r3]
 1324 0060 22F00102 		bic	r2, r2, #1
 1325 0064 9A60     		str	r2, [r3, #8]
ARM GAS  /tmp/ccB7T7H1.s 			page 41


 968:Drivers/STM32L4xx_HAL_Driver/Src/stm32l4xx_hal_lptim.c **** 
 969:Drivers/STM32L4xx_HAL_Driver/Src/stm32l4xx_hal_lptim.c ****   /* If external trigger source is used, then disable external trigger interrupt */
 970:Drivers/STM32L4xx_HAL_Driver/Src/stm32l4xx_hal_lptim.c ****   if ((hlptim->Init.Trigger.Source) != LPTIM_TRIGSOURCE_SOFTWARE)
 1326              		.loc 1 970 28
 1327 0066 7B68     		ldr	r3, [r7, #4]
 1328 0068 5B69     		ldr	r3, [r3, #20]
 1329              		.loc 1 970 6
 1330 006a 4FF6FF72 		movw	r2, #65535
 1331 006e 9342     		cmp	r3, r2
 1332 0070 07D0     		beq	.L56
 971:Drivers/STM32L4xx_HAL_Driver/Src/stm32l4xx_hal_lptim.c ****   {
 972:Drivers/STM32L4xx_HAL_Driver/Src/stm32l4xx_hal_lptim.c ****     /* Disable external trigger interrupt */
 973:Drivers/STM32L4xx_HAL_Driver/Src/stm32l4xx_hal_lptim.c ****     __HAL_LPTIM_DISABLE_IT(hlptim, LPTIM_IT_EXTTRIG);
 1333              		.loc 1 973 5
 1334 0072 7B68     		ldr	r3, [r7, #4]
 1335 0074 1B68     		ldr	r3, [r3]
 1336 0076 9A68     		ldr	r2, [r3, #8]
 1337 0078 7B68     		ldr	r3, [r7, #4]
 1338 007a 1B68     		ldr	r3, [r3]
 1339 007c 22F00402 		bic	r2, r2, #4
 1340 0080 9A60     		str	r2, [r3, #8]
 1341              	.L56:
 974:Drivers/STM32L4xx_HAL_Driver/Src/stm32l4xx_hal_lptim.c ****   }
 975:Drivers/STM32L4xx_HAL_Driver/Src/stm32l4xx_hal_lptim.c **** #if defined(LPTIM_RCR_REP)
 976:Drivers/STM32L4xx_HAL_Driver/Src/stm32l4xx_hal_lptim.c **** 
 977:Drivers/STM32L4xx_HAL_Driver/Src/stm32l4xx_hal_lptim.c ****   /* Enable Rep Update Ok interrupt */
 978:Drivers/STM32L4xx_HAL_Driver/Src/stm32l4xx_hal_lptim.c ****   __HAL_LPTIM_DISABLE_IT(hlptim, LPTIM_IT_REPOK);
 979:Drivers/STM32L4xx_HAL_Driver/Src/stm32l4xx_hal_lptim.c **** 
 980:Drivers/STM32L4xx_HAL_Driver/Src/stm32l4xx_hal_lptim.c ****   /* Enable Update Event interrupt */
 981:Drivers/STM32L4xx_HAL_Driver/Src/stm32l4xx_hal_lptim.c ****   __HAL_LPTIM_DISABLE_IT(hlptim, LPTIM_IT_UPDATE);
 982:Drivers/STM32L4xx_HAL_Driver/Src/stm32l4xx_hal_lptim.c **** #endif
 983:Drivers/STM32L4xx_HAL_Driver/Src/stm32l4xx_hal_lptim.c **** 
 984:Drivers/STM32L4xx_HAL_Driver/Src/stm32l4xx_hal_lptim.c ****   /* Change the LPTIM state */
 985:Drivers/STM32L4xx_HAL_Driver/Src/stm32l4xx_hal_lptim.c ****   hlptim->State = HAL_LPTIM_STATE_READY;
 1342              		.loc 1 985 17
 1343 0082 7B68     		ldr	r3, [r7, #4]
 1344 0084 0122     		movs	r2, #1
 1345 0086 83F83620 		strb	r2, [r3, #54]
 986:Drivers/STM32L4xx_HAL_Driver/Src/stm32l4xx_hal_lptim.c **** 
 987:Drivers/STM32L4xx_HAL_Driver/Src/stm32l4xx_hal_lptim.c ****   /* Return function status */
 988:Drivers/STM32L4xx_HAL_Driver/Src/stm32l4xx_hal_lptim.c ****   return HAL_OK;
 1346              		.loc 1 988 10
 1347 008a 0023     		movs	r3, #0
 1348              	.L55:
 989:Drivers/STM32L4xx_HAL_Driver/Src/stm32l4xx_hal_lptim.c **** }
 1349              		.loc 1 989 1
 1350 008c 1846     		mov	r0, r3
 1351 008e 0837     		adds	r7, r7, #8
 1352              		.cfi_def_cfa_offset 8
 1353 0090 BD46     		mov	sp, r7
 1354              		.cfi_def_cfa_register 13
 1355              		@ sp needed
 1356 0092 80BD     		pop	{r7, pc}
 1357              		.cfi_endproc
 1358              	.LFE456:
 1360              		.section	.text.HAL_LPTIM_SetOnce_Start,"ax",%progbits
 1361              		.align	1
ARM GAS  /tmp/ccB7T7H1.s 			page 42


 1362              		.global	HAL_LPTIM_SetOnce_Start
 1363              		.syntax unified
 1364              		.thumb
 1365              		.thumb_func
 1367              	HAL_LPTIM_SetOnce_Start:
 1368              	.LFB457:
 990:Drivers/STM32L4xx_HAL_Driver/Src/stm32l4xx_hal_lptim.c **** 
 991:Drivers/STM32L4xx_HAL_Driver/Src/stm32l4xx_hal_lptim.c **** /**
 992:Drivers/STM32L4xx_HAL_Driver/Src/stm32l4xx_hal_lptim.c ****   * @brief  Start the LPTIM in Set once mode.
 993:Drivers/STM32L4xx_HAL_Driver/Src/stm32l4xx_hal_lptim.c ****   * @param  hlptim LPTIM handle
 994:Drivers/STM32L4xx_HAL_Driver/Src/stm32l4xx_hal_lptim.c ****   * @param  Period Specifies the Autoreload value.
 995:Drivers/STM32L4xx_HAL_Driver/Src/stm32l4xx_hal_lptim.c ****   *         This parameter must be a value between 0x0001 and 0xFFFF.
 996:Drivers/STM32L4xx_HAL_Driver/Src/stm32l4xx_hal_lptim.c ****   * @param  Pulse Specifies the compare value.
 997:Drivers/STM32L4xx_HAL_Driver/Src/stm32l4xx_hal_lptim.c ****   *         This parameter must be a value between 0x0000 and 0xFFFF.
 998:Drivers/STM32L4xx_HAL_Driver/Src/stm32l4xx_hal_lptim.c ****   * @retval HAL status
 999:Drivers/STM32L4xx_HAL_Driver/Src/stm32l4xx_hal_lptim.c ****   */
1000:Drivers/STM32L4xx_HAL_Driver/Src/stm32l4xx_hal_lptim.c **** HAL_StatusTypeDef HAL_LPTIM_SetOnce_Start(LPTIM_HandleTypeDef *hlptim, uint32_t Period, uint32_t Pu
1001:Drivers/STM32L4xx_HAL_Driver/Src/stm32l4xx_hal_lptim.c **** {
 1369              		.loc 1 1001 1
 1370              		.cfi_startproc
 1371              		@ args = 0, pretend = 0, frame = 16
 1372              		@ frame_needed = 1, uses_anonymous_args = 0
 1373 0000 80B5     		push	{r7, lr}
 1374              		.cfi_def_cfa_offset 8
 1375              		.cfi_offset 7, -8
 1376              		.cfi_offset 14, -4
 1377 0002 84B0     		sub	sp, sp, #16
 1378              		.cfi_def_cfa_offset 24
 1379 0004 00AF     		add	r7, sp, #0
 1380              		.cfi_def_cfa_register 7
 1381 0006 F860     		str	r0, [r7, #12]
 1382 0008 B960     		str	r1, [r7, #8]
 1383 000a 7A60     		str	r2, [r7, #4]
1002:Drivers/STM32L4xx_HAL_Driver/Src/stm32l4xx_hal_lptim.c ****   /* Check the parameters */
1003:Drivers/STM32L4xx_HAL_Driver/Src/stm32l4xx_hal_lptim.c ****   assert_param(IS_LPTIM_INSTANCE(hlptim->Instance));
1004:Drivers/STM32L4xx_HAL_Driver/Src/stm32l4xx_hal_lptim.c ****   assert_param(IS_LPTIM_PERIOD(Period));
1005:Drivers/STM32L4xx_HAL_Driver/Src/stm32l4xx_hal_lptim.c ****   assert_param(IS_LPTIM_PULSE(Pulse));
1006:Drivers/STM32L4xx_HAL_Driver/Src/stm32l4xx_hal_lptim.c **** 
1007:Drivers/STM32L4xx_HAL_Driver/Src/stm32l4xx_hal_lptim.c ****   /* Set the LPTIM state */
1008:Drivers/STM32L4xx_HAL_Driver/Src/stm32l4xx_hal_lptim.c ****   hlptim->State = HAL_LPTIM_STATE_BUSY;
 1384              		.loc 1 1008 17
 1385 000c FB68     		ldr	r3, [r7, #12]
 1386 000e 0222     		movs	r2, #2
 1387 0010 83F83620 		strb	r2, [r3, #54]
1009:Drivers/STM32L4xx_HAL_Driver/Src/stm32l4xx_hal_lptim.c **** 
1010:Drivers/STM32L4xx_HAL_Driver/Src/stm32l4xx_hal_lptim.c ****   /* Set WAVE bit to enable the set once mode */
1011:Drivers/STM32L4xx_HAL_Driver/Src/stm32l4xx_hal_lptim.c ****   hlptim->Instance->CFGR |= LPTIM_CFGR_WAVE;
 1388              		.loc 1 1011 9
 1389 0014 FB68     		ldr	r3, [r7, #12]
 1390 0016 1B68     		ldr	r3, [r3]
 1391              		.loc 1 1011 19
 1392 0018 DA68     		ldr	r2, [r3, #12]
 1393              		.loc 1 1011 9
 1394 001a FB68     		ldr	r3, [r7, #12]
 1395 001c 1B68     		ldr	r3, [r3]
 1396              		.loc 1 1011 26
 1397 001e 42F48012 		orr	r2, r2, #1048576
ARM GAS  /tmp/ccB7T7H1.s 			page 43


 1398 0022 DA60     		str	r2, [r3, #12]
1012:Drivers/STM32L4xx_HAL_Driver/Src/stm32l4xx_hal_lptim.c **** 
1013:Drivers/STM32L4xx_HAL_Driver/Src/stm32l4xx_hal_lptim.c ****   /* Enable the Peripheral */
1014:Drivers/STM32L4xx_HAL_Driver/Src/stm32l4xx_hal_lptim.c ****   __HAL_LPTIM_ENABLE(hlptim);
 1399              		.loc 1 1014 3
 1400 0024 FB68     		ldr	r3, [r7, #12]
 1401 0026 1B68     		ldr	r3, [r3]
 1402 0028 1A69     		ldr	r2, [r3, #16]
 1403 002a FB68     		ldr	r3, [r7, #12]
 1404 002c 1B68     		ldr	r3, [r3]
 1405 002e 42F00102 		orr	r2, r2, #1
 1406 0032 1A61     		str	r2, [r3, #16]
1015:Drivers/STM32L4xx_HAL_Driver/Src/stm32l4xx_hal_lptim.c **** 
1016:Drivers/STM32L4xx_HAL_Driver/Src/stm32l4xx_hal_lptim.c ****   /* Clear flag */
1017:Drivers/STM32L4xx_HAL_Driver/Src/stm32l4xx_hal_lptim.c ****   __HAL_LPTIM_CLEAR_FLAG(hlptim, LPTIM_FLAG_ARROK);
 1407              		.loc 1 1017 3
 1408 0034 FB68     		ldr	r3, [r7, #12]
 1409 0036 1B68     		ldr	r3, [r3]
 1410 0038 1022     		movs	r2, #16
 1411 003a 5A60     		str	r2, [r3, #4]
1018:Drivers/STM32L4xx_HAL_Driver/Src/stm32l4xx_hal_lptim.c **** 
1019:Drivers/STM32L4xx_HAL_Driver/Src/stm32l4xx_hal_lptim.c ****   /* Load the period value in the autoreload register */
1020:Drivers/STM32L4xx_HAL_Driver/Src/stm32l4xx_hal_lptim.c ****   __HAL_LPTIM_AUTORELOAD_SET(hlptim, Period);
 1412              		.loc 1 1020 3
 1413 003c FB68     		ldr	r3, [r7, #12]
 1414 003e 1B68     		ldr	r3, [r3]
 1415 0040 BA68     		ldr	r2, [r7, #8]
 1416 0042 9A61     		str	r2, [r3, #24]
1021:Drivers/STM32L4xx_HAL_Driver/Src/stm32l4xx_hal_lptim.c **** 
1022:Drivers/STM32L4xx_HAL_Driver/Src/stm32l4xx_hal_lptim.c ****   /* Wait for the completion of the write operation to the LPTIM_ARR register */
1023:Drivers/STM32L4xx_HAL_Driver/Src/stm32l4xx_hal_lptim.c ****   if (LPTIM_WaitForFlag(hlptim, LPTIM_FLAG_ARROK) == HAL_TIMEOUT)
 1417              		.loc 1 1023 7
 1418 0044 1021     		movs	r1, #16
 1419 0046 F868     		ldr	r0, [r7, #12]
 1420 0048 FFF7FEFF 		bl	LPTIM_WaitForFlag
 1421 004c 0346     		mov	r3, r0
 1422              		.loc 1 1023 6 discriminator 1
 1423 004e 032B     		cmp	r3, #3
 1424 0050 01D1     		bne	.L58
1024:Drivers/STM32L4xx_HAL_Driver/Src/stm32l4xx_hal_lptim.c ****   {
1025:Drivers/STM32L4xx_HAL_Driver/Src/stm32l4xx_hal_lptim.c ****     return HAL_TIMEOUT;
 1425              		.loc 1 1025 12
 1426 0052 0323     		movs	r3, #3
 1427 0054 1DE0     		b	.L59
 1428              	.L58:
1026:Drivers/STM32L4xx_HAL_Driver/Src/stm32l4xx_hal_lptim.c ****   }
1027:Drivers/STM32L4xx_HAL_Driver/Src/stm32l4xx_hal_lptim.c **** 
1028:Drivers/STM32L4xx_HAL_Driver/Src/stm32l4xx_hal_lptim.c ****   /* Clear flag */
1029:Drivers/STM32L4xx_HAL_Driver/Src/stm32l4xx_hal_lptim.c ****   __HAL_LPTIM_CLEAR_FLAG(hlptim, LPTIM_FLAG_CMPOK);
 1429              		.loc 1 1029 3
 1430 0056 FB68     		ldr	r3, [r7, #12]
 1431 0058 1B68     		ldr	r3, [r3]
 1432 005a 0822     		movs	r2, #8
 1433 005c 5A60     		str	r2, [r3, #4]
1030:Drivers/STM32L4xx_HAL_Driver/Src/stm32l4xx_hal_lptim.c **** 
1031:Drivers/STM32L4xx_HAL_Driver/Src/stm32l4xx_hal_lptim.c ****   /* Load the pulse value in the compare register */
1032:Drivers/STM32L4xx_HAL_Driver/Src/stm32l4xx_hal_lptim.c ****   __HAL_LPTIM_COMPARE_SET(hlptim, Pulse);
ARM GAS  /tmp/ccB7T7H1.s 			page 44


 1434              		.loc 1 1032 3
 1435 005e FB68     		ldr	r3, [r7, #12]
 1436 0060 1B68     		ldr	r3, [r3]
 1437 0062 7A68     		ldr	r2, [r7, #4]
 1438 0064 5A61     		str	r2, [r3, #20]
1033:Drivers/STM32L4xx_HAL_Driver/Src/stm32l4xx_hal_lptim.c **** 
1034:Drivers/STM32L4xx_HAL_Driver/Src/stm32l4xx_hal_lptim.c ****   /* Wait for the completion of the write operation to the LPTIM_CMP register */
1035:Drivers/STM32L4xx_HAL_Driver/Src/stm32l4xx_hal_lptim.c ****   if (LPTIM_WaitForFlag(hlptim, LPTIM_FLAG_CMPOK) == HAL_TIMEOUT)
 1439              		.loc 1 1035 7
 1440 0066 0821     		movs	r1, #8
 1441 0068 F868     		ldr	r0, [r7, #12]
 1442 006a FFF7FEFF 		bl	LPTIM_WaitForFlag
 1443 006e 0346     		mov	r3, r0
 1444              		.loc 1 1035 6 discriminator 1
 1445 0070 032B     		cmp	r3, #3
 1446 0072 01D1     		bne	.L60
1036:Drivers/STM32L4xx_HAL_Driver/Src/stm32l4xx_hal_lptim.c ****   {
1037:Drivers/STM32L4xx_HAL_Driver/Src/stm32l4xx_hal_lptim.c ****     return HAL_TIMEOUT;
 1447              		.loc 1 1037 12
 1448 0074 0323     		movs	r3, #3
 1449 0076 0CE0     		b	.L59
 1450              	.L60:
1038:Drivers/STM32L4xx_HAL_Driver/Src/stm32l4xx_hal_lptim.c ****   }
1039:Drivers/STM32L4xx_HAL_Driver/Src/stm32l4xx_hal_lptim.c **** 
1040:Drivers/STM32L4xx_HAL_Driver/Src/stm32l4xx_hal_lptim.c ****   /* Start timer in single (one shot) mode */
1041:Drivers/STM32L4xx_HAL_Driver/Src/stm32l4xx_hal_lptim.c ****   __HAL_LPTIM_START_SINGLE(hlptim);
 1451              		.loc 1 1041 3
 1452 0078 FB68     		ldr	r3, [r7, #12]
 1453 007a 1B68     		ldr	r3, [r3]
 1454 007c 1A69     		ldr	r2, [r3, #16]
 1455 007e FB68     		ldr	r3, [r7, #12]
 1456 0080 1B68     		ldr	r3, [r3]
 1457 0082 42F00202 		orr	r2, r2, #2
 1458 0086 1A61     		str	r2, [r3, #16]
1042:Drivers/STM32L4xx_HAL_Driver/Src/stm32l4xx_hal_lptim.c **** 
1043:Drivers/STM32L4xx_HAL_Driver/Src/stm32l4xx_hal_lptim.c ****   /* Change the LPTIM state */
1044:Drivers/STM32L4xx_HAL_Driver/Src/stm32l4xx_hal_lptim.c ****   hlptim->State = HAL_LPTIM_STATE_READY;
 1459              		.loc 1 1044 17
 1460 0088 FB68     		ldr	r3, [r7, #12]
 1461 008a 0122     		movs	r2, #1
 1462 008c 83F83620 		strb	r2, [r3, #54]
1045:Drivers/STM32L4xx_HAL_Driver/Src/stm32l4xx_hal_lptim.c **** 
1046:Drivers/STM32L4xx_HAL_Driver/Src/stm32l4xx_hal_lptim.c ****   /* Return function status */
1047:Drivers/STM32L4xx_HAL_Driver/Src/stm32l4xx_hal_lptim.c ****   return HAL_OK;
 1463              		.loc 1 1047 10
 1464 0090 0023     		movs	r3, #0
 1465              	.L59:
1048:Drivers/STM32L4xx_HAL_Driver/Src/stm32l4xx_hal_lptim.c **** }
 1466              		.loc 1 1048 1
 1467 0092 1846     		mov	r0, r3
 1468 0094 1037     		adds	r7, r7, #16
 1469              		.cfi_def_cfa_offset 8
 1470 0096 BD46     		mov	sp, r7
 1471              		.cfi_def_cfa_register 13
 1472              		@ sp needed
 1473 0098 80BD     		pop	{r7, pc}
 1474              		.cfi_endproc
ARM GAS  /tmp/ccB7T7H1.s 			page 45


 1475              	.LFE457:
 1477              		.section	.text.HAL_LPTIM_SetOnce_Stop,"ax",%progbits
 1478              		.align	1
 1479              		.global	HAL_LPTIM_SetOnce_Stop
 1480              		.syntax unified
 1481              		.thumb
 1482              		.thumb_func
 1484              	HAL_LPTIM_SetOnce_Stop:
 1485              	.LFB458:
1049:Drivers/STM32L4xx_HAL_Driver/Src/stm32l4xx_hal_lptim.c **** 
1050:Drivers/STM32L4xx_HAL_Driver/Src/stm32l4xx_hal_lptim.c **** /**
1051:Drivers/STM32L4xx_HAL_Driver/Src/stm32l4xx_hal_lptim.c ****   * @brief  Stop the LPTIM Set once mode.
1052:Drivers/STM32L4xx_HAL_Driver/Src/stm32l4xx_hal_lptim.c ****   * @param  hlptim LPTIM handle
1053:Drivers/STM32L4xx_HAL_Driver/Src/stm32l4xx_hal_lptim.c ****   * @retval HAL status
1054:Drivers/STM32L4xx_HAL_Driver/Src/stm32l4xx_hal_lptim.c ****   */
1055:Drivers/STM32L4xx_HAL_Driver/Src/stm32l4xx_hal_lptim.c **** HAL_StatusTypeDef HAL_LPTIM_SetOnce_Stop(LPTIM_HandleTypeDef *hlptim)
1056:Drivers/STM32L4xx_HAL_Driver/Src/stm32l4xx_hal_lptim.c **** {
 1486              		.loc 1 1056 1
 1487              		.cfi_startproc
 1488              		@ args = 0, pretend = 0, frame = 8
 1489              		@ frame_needed = 1, uses_anonymous_args = 0
 1490 0000 80B5     		push	{r7, lr}
 1491              		.cfi_def_cfa_offset 8
 1492              		.cfi_offset 7, -8
 1493              		.cfi_offset 14, -4
 1494 0002 82B0     		sub	sp, sp, #8
 1495              		.cfi_def_cfa_offset 16
 1496 0004 00AF     		add	r7, sp, #0
 1497              		.cfi_def_cfa_register 7
 1498 0006 7860     		str	r0, [r7, #4]
1057:Drivers/STM32L4xx_HAL_Driver/Src/stm32l4xx_hal_lptim.c ****   /* Check the parameters */
1058:Drivers/STM32L4xx_HAL_Driver/Src/stm32l4xx_hal_lptim.c ****   assert_param(IS_LPTIM_INSTANCE(hlptim->Instance));
1059:Drivers/STM32L4xx_HAL_Driver/Src/stm32l4xx_hal_lptim.c **** 
1060:Drivers/STM32L4xx_HAL_Driver/Src/stm32l4xx_hal_lptim.c ****   /* Set the LPTIM state */
1061:Drivers/STM32L4xx_HAL_Driver/Src/stm32l4xx_hal_lptim.c ****   hlptim->State = HAL_LPTIM_STATE_BUSY;
 1499              		.loc 1 1061 17
 1500 0008 7B68     		ldr	r3, [r7, #4]
 1501 000a 0222     		movs	r2, #2
 1502 000c 83F83620 		strb	r2, [r3, #54]
1062:Drivers/STM32L4xx_HAL_Driver/Src/stm32l4xx_hal_lptim.c **** 
1063:Drivers/STM32L4xx_HAL_Driver/Src/stm32l4xx_hal_lptim.c ****   /* Disable the Peripheral */
1064:Drivers/STM32L4xx_HAL_Driver/Src/stm32l4xx_hal_lptim.c ****   __HAL_LPTIM_DISABLE(hlptim);
 1503              		.loc 1 1064 3
 1504 0010 7868     		ldr	r0, [r7, #4]
 1505 0012 FFF7FEFF 		bl	LPTIM_Disable
1065:Drivers/STM32L4xx_HAL_Driver/Src/stm32l4xx_hal_lptim.c **** 
1066:Drivers/STM32L4xx_HAL_Driver/Src/stm32l4xx_hal_lptim.c ****   if (HAL_LPTIM_GetState(hlptim) == HAL_LPTIM_STATE_TIMEOUT)
 1506              		.loc 1 1066 7
 1507 0016 7868     		ldr	r0, [r7, #4]
 1508 0018 FFF7FEFF 		bl	HAL_LPTIM_GetState
 1509 001c 0346     		mov	r3, r0
 1510              		.loc 1 1066 6 discriminator 1
 1511 001e 032B     		cmp	r3, #3
 1512 0020 01D1     		bne	.L62
1067:Drivers/STM32L4xx_HAL_Driver/Src/stm32l4xx_hal_lptim.c ****   {
1068:Drivers/STM32L4xx_HAL_Driver/Src/stm32l4xx_hal_lptim.c ****     return HAL_TIMEOUT;
 1513              		.loc 1 1068 12
ARM GAS  /tmp/ccB7T7H1.s 			page 46


 1514 0022 0323     		movs	r3, #3
 1515 0024 04E0     		b	.L63
 1516              	.L62:
1069:Drivers/STM32L4xx_HAL_Driver/Src/stm32l4xx_hal_lptim.c ****   }
1070:Drivers/STM32L4xx_HAL_Driver/Src/stm32l4xx_hal_lptim.c **** 
1071:Drivers/STM32L4xx_HAL_Driver/Src/stm32l4xx_hal_lptim.c ****   /* Change the LPTIM state */
1072:Drivers/STM32L4xx_HAL_Driver/Src/stm32l4xx_hal_lptim.c ****   hlptim->State = HAL_LPTIM_STATE_READY;
 1517              		.loc 1 1072 17
 1518 0026 7B68     		ldr	r3, [r7, #4]
 1519 0028 0122     		movs	r2, #1
 1520 002a 83F83620 		strb	r2, [r3, #54]
1073:Drivers/STM32L4xx_HAL_Driver/Src/stm32l4xx_hal_lptim.c **** 
1074:Drivers/STM32L4xx_HAL_Driver/Src/stm32l4xx_hal_lptim.c ****   /* Return function status */
1075:Drivers/STM32L4xx_HAL_Driver/Src/stm32l4xx_hal_lptim.c ****   return HAL_OK;
 1521              		.loc 1 1075 10
 1522 002e 0023     		movs	r3, #0
 1523              	.L63:
1076:Drivers/STM32L4xx_HAL_Driver/Src/stm32l4xx_hal_lptim.c **** }
 1524              		.loc 1 1076 1
 1525 0030 1846     		mov	r0, r3
 1526 0032 0837     		adds	r7, r7, #8
 1527              		.cfi_def_cfa_offset 8
 1528 0034 BD46     		mov	sp, r7
 1529              		.cfi_def_cfa_register 13
 1530              		@ sp needed
 1531 0036 80BD     		pop	{r7, pc}
 1532              		.cfi_endproc
 1533              	.LFE458:
 1535              		.section	.text.HAL_LPTIM_SetOnce_Start_IT,"ax",%progbits
 1536              		.align	1
 1537              		.global	HAL_LPTIM_SetOnce_Start_IT
 1538              		.syntax unified
 1539              		.thumb
 1540              		.thumb_func
 1542              	HAL_LPTIM_SetOnce_Start_IT:
 1543              	.LFB459:
1077:Drivers/STM32L4xx_HAL_Driver/Src/stm32l4xx_hal_lptim.c **** 
1078:Drivers/STM32L4xx_HAL_Driver/Src/stm32l4xx_hal_lptim.c **** /**
1079:Drivers/STM32L4xx_HAL_Driver/Src/stm32l4xx_hal_lptim.c ****   * @brief  Start the LPTIM Set once mode in interrupt mode.
1080:Drivers/STM32L4xx_HAL_Driver/Src/stm32l4xx_hal_lptim.c ****   * @param  hlptim LPTIM handle
1081:Drivers/STM32L4xx_HAL_Driver/Src/stm32l4xx_hal_lptim.c ****   * @param  Period Specifies the Autoreload value.
1082:Drivers/STM32L4xx_HAL_Driver/Src/stm32l4xx_hal_lptim.c ****   *         This parameter must be a value between 0x0000 and 0xFFFF.
1083:Drivers/STM32L4xx_HAL_Driver/Src/stm32l4xx_hal_lptim.c ****   * @param  Pulse Specifies the compare value.
1084:Drivers/STM32L4xx_HAL_Driver/Src/stm32l4xx_hal_lptim.c ****   *         This parameter must be a value between 0x0000 and 0xFFFF.
1085:Drivers/STM32L4xx_HAL_Driver/Src/stm32l4xx_hal_lptim.c ****   * @retval HAL status
1086:Drivers/STM32L4xx_HAL_Driver/Src/stm32l4xx_hal_lptim.c ****   */
1087:Drivers/STM32L4xx_HAL_Driver/Src/stm32l4xx_hal_lptim.c **** HAL_StatusTypeDef HAL_LPTIM_SetOnce_Start_IT(LPTIM_HandleTypeDef *hlptim, uint32_t Period, uint32_t
1088:Drivers/STM32L4xx_HAL_Driver/Src/stm32l4xx_hal_lptim.c **** {
 1544              		.loc 1 1088 1
 1545              		.cfi_startproc
 1546              		@ args = 0, pretend = 0, frame = 16
 1547              		@ frame_needed = 1, uses_anonymous_args = 0
 1548 0000 80B5     		push	{r7, lr}
 1549              		.cfi_def_cfa_offset 8
 1550              		.cfi_offset 7, -8
 1551              		.cfi_offset 14, -4
 1552 0002 84B0     		sub	sp, sp, #16
ARM GAS  /tmp/ccB7T7H1.s 			page 47


 1553              		.cfi_def_cfa_offset 24
 1554 0004 00AF     		add	r7, sp, #0
 1555              		.cfi_def_cfa_register 7
 1556 0006 F860     		str	r0, [r7, #12]
 1557 0008 B960     		str	r1, [r7, #8]
 1558 000a 7A60     		str	r2, [r7, #4]
1089:Drivers/STM32L4xx_HAL_Driver/Src/stm32l4xx_hal_lptim.c ****   /* Check the parameters */
1090:Drivers/STM32L4xx_HAL_Driver/Src/stm32l4xx_hal_lptim.c ****   assert_param(IS_LPTIM_INSTANCE(hlptim->Instance));
1091:Drivers/STM32L4xx_HAL_Driver/Src/stm32l4xx_hal_lptim.c ****   assert_param(IS_LPTIM_PERIOD(Period));
1092:Drivers/STM32L4xx_HAL_Driver/Src/stm32l4xx_hal_lptim.c ****   assert_param(IS_LPTIM_PULSE(Pulse));
1093:Drivers/STM32L4xx_HAL_Driver/Src/stm32l4xx_hal_lptim.c **** 
1094:Drivers/STM32L4xx_HAL_Driver/Src/stm32l4xx_hal_lptim.c ****   /* Set the LPTIM state */
1095:Drivers/STM32L4xx_HAL_Driver/Src/stm32l4xx_hal_lptim.c ****   hlptim->State = HAL_LPTIM_STATE_BUSY;
 1559              		.loc 1 1095 17
 1560 000c FB68     		ldr	r3, [r7, #12]
 1561 000e 0222     		movs	r2, #2
 1562 0010 83F83620 		strb	r2, [r3, #54]
1096:Drivers/STM32L4xx_HAL_Driver/Src/stm32l4xx_hal_lptim.c **** 
1097:Drivers/STM32L4xx_HAL_Driver/Src/stm32l4xx_hal_lptim.c ****   /* Set WAVE bit to enable the set once mode */
1098:Drivers/STM32L4xx_HAL_Driver/Src/stm32l4xx_hal_lptim.c ****   hlptim->Instance->CFGR |= LPTIM_CFGR_WAVE;
 1563              		.loc 1 1098 9
 1564 0014 FB68     		ldr	r3, [r7, #12]
 1565 0016 1B68     		ldr	r3, [r3]
 1566              		.loc 1 1098 19
 1567 0018 DA68     		ldr	r2, [r3, #12]
 1568              		.loc 1 1098 9
 1569 001a FB68     		ldr	r3, [r7, #12]
 1570 001c 1B68     		ldr	r3, [r3]
 1571              		.loc 1 1098 26
 1572 001e 42F48012 		orr	r2, r2, #1048576
 1573 0022 DA60     		str	r2, [r3, #12]
1099:Drivers/STM32L4xx_HAL_Driver/Src/stm32l4xx_hal_lptim.c **** 
1100:Drivers/STM32L4xx_HAL_Driver/Src/stm32l4xx_hal_lptim.c ****   /* Enable the Peripheral */
1101:Drivers/STM32L4xx_HAL_Driver/Src/stm32l4xx_hal_lptim.c ****   __HAL_LPTIM_ENABLE(hlptim);
 1574              		.loc 1 1101 3
 1575 0024 FB68     		ldr	r3, [r7, #12]
 1576 0026 1B68     		ldr	r3, [r3]
 1577 0028 1A69     		ldr	r2, [r3, #16]
 1578 002a FB68     		ldr	r3, [r7, #12]
 1579 002c 1B68     		ldr	r3, [r3]
 1580 002e 42F00102 		orr	r2, r2, #1
 1581 0032 1A61     		str	r2, [r3, #16]
1102:Drivers/STM32L4xx_HAL_Driver/Src/stm32l4xx_hal_lptim.c **** 
1103:Drivers/STM32L4xx_HAL_Driver/Src/stm32l4xx_hal_lptim.c ****   /* Clear flag */
1104:Drivers/STM32L4xx_HAL_Driver/Src/stm32l4xx_hal_lptim.c ****   __HAL_LPTIM_CLEAR_FLAG(hlptim, LPTIM_FLAG_ARROK);
 1582              		.loc 1 1104 3
 1583 0034 FB68     		ldr	r3, [r7, #12]
 1584 0036 1B68     		ldr	r3, [r3]
 1585 0038 1022     		movs	r2, #16
 1586 003a 5A60     		str	r2, [r3, #4]
1105:Drivers/STM32L4xx_HAL_Driver/Src/stm32l4xx_hal_lptim.c **** 
1106:Drivers/STM32L4xx_HAL_Driver/Src/stm32l4xx_hal_lptim.c ****   /* Load the period value in the autoreload register */
1107:Drivers/STM32L4xx_HAL_Driver/Src/stm32l4xx_hal_lptim.c ****   __HAL_LPTIM_AUTORELOAD_SET(hlptim, Period);
 1587              		.loc 1 1107 3
 1588 003c FB68     		ldr	r3, [r7, #12]
 1589 003e 1B68     		ldr	r3, [r3]
 1590 0040 BA68     		ldr	r2, [r7, #8]
ARM GAS  /tmp/ccB7T7H1.s 			page 48


 1591 0042 9A61     		str	r2, [r3, #24]
1108:Drivers/STM32L4xx_HAL_Driver/Src/stm32l4xx_hal_lptim.c **** 
1109:Drivers/STM32L4xx_HAL_Driver/Src/stm32l4xx_hal_lptim.c ****   /* Wait for the completion of the write operation to the LPTIM_ARR register */
1110:Drivers/STM32L4xx_HAL_Driver/Src/stm32l4xx_hal_lptim.c ****   if (LPTIM_WaitForFlag(hlptim, LPTIM_FLAG_ARROK) == HAL_TIMEOUT)
 1592              		.loc 1 1110 7
 1593 0044 1021     		movs	r1, #16
 1594 0046 F868     		ldr	r0, [r7, #12]
 1595 0048 FFF7FEFF 		bl	LPTIM_WaitForFlag
 1596 004c 0346     		mov	r3, r0
 1597              		.loc 1 1110 6 discriminator 1
 1598 004e 032B     		cmp	r3, #3
 1599 0050 01D1     		bne	.L65
1111:Drivers/STM32L4xx_HAL_Driver/Src/stm32l4xx_hal_lptim.c ****   {
1112:Drivers/STM32L4xx_HAL_Driver/Src/stm32l4xx_hal_lptim.c ****     return HAL_TIMEOUT;
 1600              		.loc 1 1112 12
 1601 0052 0323     		movs	r3, #3
 1602 0054 5EE0     		b	.L66
 1603              	.L65:
1113:Drivers/STM32L4xx_HAL_Driver/Src/stm32l4xx_hal_lptim.c ****   }
1114:Drivers/STM32L4xx_HAL_Driver/Src/stm32l4xx_hal_lptim.c **** 
1115:Drivers/STM32L4xx_HAL_Driver/Src/stm32l4xx_hal_lptim.c ****   /* Clear flag */
1116:Drivers/STM32L4xx_HAL_Driver/Src/stm32l4xx_hal_lptim.c ****   __HAL_LPTIM_CLEAR_FLAG(hlptim, LPTIM_FLAG_CMPOK);
 1604              		.loc 1 1116 3
 1605 0056 FB68     		ldr	r3, [r7, #12]
 1606 0058 1B68     		ldr	r3, [r3]
 1607 005a 0822     		movs	r2, #8
 1608 005c 5A60     		str	r2, [r3, #4]
1117:Drivers/STM32L4xx_HAL_Driver/Src/stm32l4xx_hal_lptim.c **** 
1118:Drivers/STM32L4xx_HAL_Driver/Src/stm32l4xx_hal_lptim.c ****   /* Load the pulse value in the compare register */
1119:Drivers/STM32L4xx_HAL_Driver/Src/stm32l4xx_hal_lptim.c ****   __HAL_LPTIM_COMPARE_SET(hlptim, Pulse);
 1609              		.loc 1 1119 3
 1610 005e FB68     		ldr	r3, [r7, #12]
 1611 0060 1B68     		ldr	r3, [r3]
 1612 0062 7A68     		ldr	r2, [r7, #4]
 1613 0064 5A61     		str	r2, [r3, #20]
1120:Drivers/STM32L4xx_HAL_Driver/Src/stm32l4xx_hal_lptim.c **** 
1121:Drivers/STM32L4xx_HAL_Driver/Src/stm32l4xx_hal_lptim.c ****   /* Wait for the completion of the write operation to the LPTIM_CMP register */
1122:Drivers/STM32L4xx_HAL_Driver/Src/stm32l4xx_hal_lptim.c ****   if (LPTIM_WaitForFlag(hlptim, LPTIM_FLAG_CMPOK) == HAL_TIMEOUT)
 1614              		.loc 1 1122 7
 1615 0066 0821     		movs	r1, #8
 1616 0068 F868     		ldr	r0, [r7, #12]
 1617 006a FFF7FEFF 		bl	LPTIM_WaitForFlag
 1618 006e 0346     		mov	r3, r0
 1619              		.loc 1 1122 6 discriminator 1
 1620 0070 032B     		cmp	r3, #3
 1621 0072 01D1     		bne	.L67
1123:Drivers/STM32L4xx_HAL_Driver/Src/stm32l4xx_hal_lptim.c ****   {
1124:Drivers/STM32L4xx_HAL_Driver/Src/stm32l4xx_hal_lptim.c ****     return HAL_TIMEOUT;
 1622              		.loc 1 1124 12
 1623 0074 0323     		movs	r3, #3
 1624 0076 4DE0     		b	.L66
 1625              	.L67:
1125:Drivers/STM32L4xx_HAL_Driver/Src/stm32l4xx_hal_lptim.c ****   }
1126:Drivers/STM32L4xx_HAL_Driver/Src/stm32l4xx_hal_lptim.c **** 
1127:Drivers/STM32L4xx_HAL_Driver/Src/stm32l4xx_hal_lptim.c ****   /* Disable the Peripheral */
1128:Drivers/STM32L4xx_HAL_Driver/Src/stm32l4xx_hal_lptim.c ****   __HAL_LPTIM_DISABLE(hlptim);
 1626              		.loc 1 1128 3
ARM GAS  /tmp/ccB7T7H1.s 			page 49


 1627 0078 F868     		ldr	r0, [r7, #12]
 1628 007a FFF7FEFF 		bl	LPTIM_Disable
1129:Drivers/STM32L4xx_HAL_Driver/Src/stm32l4xx_hal_lptim.c **** 
1130:Drivers/STM32L4xx_HAL_Driver/Src/stm32l4xx_hal_lptim.c ****   if (HAL_LPTIM_GetState(hlptim) == HAL_LPTIM_STATE_TIMEOUT)
 1629              		.loc 1 1130 7
 1630 007e F868     		ldr	r0, [r7, #12]
 1631 0080 FFF7FEFF 		bl	HAL_LPTIM_GetState
 1632 0084 0346     		mov	r3, r0
 1633              		.loc 1 1130 6 discriminator 1
 1634 0086 032B     		cmp	r3, #3
 1635 0088 01D1     		bne	.L68
1131:Drivers/STM32L4xx_HAL_Driver/Src/stm32l4xx_hal_lptim.c ****   {
1132:Drivers/STM32L4xx_HAL_Driver/Src/stm32l4xx_hal_lptim.c ****     return HAL_TIMEOUT;
 1636              		.loc 1 1132 12
 1637 008a 0323     		movs	r3, #3
 1638 008c 42E0     		b	.L66
 1639              	.L68:
1133:Drivers/STM32L4xx_HAL_Driver/Src/stm32l4xx_hal_lptim.c ****   }
1134:Drivers/STM32L4xx_HAL_Driver/Src/stm32l4xx_hal_lptim.c **** 
1135:Drivers/STM32L4xx_HAL_Driver/Src/stm32l4xx_hal_lptim.c ****   /* Enable Autoreload write complete interrupt */
1136:Drivers/STM32L4xx_HAL_Driver/Src/stm32l4xx_hal_lptim.c ****   __HAL_LPTIM_ENABLE_IT(hlptim, LPTIM_IT_ARROK);
 1640              		.loc 1 1136 3
 1641 008e FB68     		ldr	r3, [r7, #12]
 1642 0090 1B68     		ldr	r3, [r3]
 1643 0092 9A68     		ldr	r2, [r3, #8]
 1644 0094 FB68     		ldr	r3, [r7, #12]
 1645 0096 1B68     		ldr	r3, [r3]
 1646 0098 42F01002 		orr	r2, r2, #16
 1647 009c 9A60     		str	r2, [r3, #8]
1137:Drivers/STM32L4xx_HAL_Driver/Src/stm32l4xx_hal_lptim.c **** 
1138:Drivers/STM32L4xx_HAL_Driver/Src/stm32l4xx_hal_lptim.c ****   /* Enable Compare write complete interrupt */
1139:Drivers/STM32L4xx_HAL_Driver/Src/stm32l4xx_hal_lptim.c ****   __HAL_LPTIM_ENABLE_IT(hlptim, LPTIM_IT_CMPOK);
 1648              		.loc 1 1139 3
 1649 009e FB68     		ldr	r3, [r7, #12]
 1650 00a0 1B68     		ldr	r3, [r3]
 1651 00a2 9A68     		ldr	r2, [r3, #8]
 1652 00a4 FB68     		ldr	r3, [r7, #12]
 1653 00a6 1B68     		ldr	r3, [r3]
 1654 00a8 42F00802 		orr	r2, r2, #8
 1655 00ac 9A60     		str	r2, [r3, #8]
1140:Drivers/STM32L4xx_HAL_Driver/Src/stm32l4xx_hal_lptim.c **** 
1141:Drivers/STM32L4xx_HAL_Driver/Src/stm32l4xx_hal_lptim.c ****   /* Enable Autoreload match interrupt */
1142:Drivers/STM32L4xx_HAL_Driver/Src/stm32l4xx_hal_lptim.c ****   __HAL_LPTIM_ENABLE_IT(hlptim, LPTIM_IT_ARRM);
 1656              		.loc 1 1142 3
 1657 00ae FB68     		ldr	r3, [r7, #12]
 1658 00b0 1B68     		ldr	r3, [r3]
 1659 00b2 9A68     		ldr	r2, [r3, #8]
 1660 00b4 FB68     		ldr	r3, [r7, #12]
 1661 00b6 1B68     		ldr	r3, [r3]
 1662 00b8 42F00202 		orr	r2, r2, #2
 1663 00bc 9A60     		str	r2, [r3, #8]
1143:Drivers/STM32L4xx_HAL_Driver/Src/stm32l4xx_hal_lptim.c **** 
1144:Drivers/STM32L4xx_HAL_Driver/Src/stm32l4xx_hal_lptim.c ****   /* Enable Compare match interrupt */
1145:Drivers/STM32L4xx_HAL_Driver/Src/stm32l4xx_hal_lptim.c ****   __HAL_LPTIM_ENABLE_IT(hlptim, LPTIM_IT_CMPM);
 1664              		.loc 1 1145 3
 1665 00be FB68     		ldr	r3, [r7, #12]
 1666 00c0 1B68     		ldr	r3, [r3]
ARM GAS  /tmp/ccB7T7H1.s 			page 50


 1667 00c2 9A68     		ldr	r2, [r3, #8]
 1668 00c4 FB68     		ldr	r3, [r7, #12]
 1669 00c6 1B68     		ldr	r3, [r3]
 1670 00c8 42F00102 		orr	r2, r2, #1
 1671 00cc 9A60     		str	r2, [r3, #8]
1146:Drivers/STM32L4xx_HAL_Driver/Src/stm32l4xx_hal_lptim.c **** 
1147:Drivers/STM32L4xx_HAL_Driver/Src/stm32l4xx_hal_lptim.c ****   /* If external trigger source is used, then enable external trigger interrupt */
1148:Drivers/STM32L4xx_HAL_Driver/Src/stm32l4xx_hal_lptim.c ****   if ((hlptim->Init.Trigger.Source) != LPTIM_TRIGSOURCE_SOFTWARE)
 1672              		.loc 1 1148 28
 1673 00ce FB68     		ldr	r3, [r7, #12]
 1674 00d0 5B69     		ldr	r3, [r3, #20]
 1675              		.loc 1 1148 6
 1676 00d2 4FF6FF72 		movw	r2, #65535
 1677 00d6 9342     		cmp	r3, r2
 1678 00d8 07D0     		beq	.L69
1149:Drivers/STM32L4xx_HAL_Driver/Src/stm32l4xx_hal_lptim.c ****   {
1150:Drivers/STM32L4xx_HAL_Driver/Src/stm32l4xx_hal_lptim.c ****     /* Enable external trigger interrupt */
1151:Drivers/STM32L4xx_HAL_Driver/Src/stm32l4xx_hal_lptim.c ****     __HAL_LPTIM_ENABLE_IT(hlptim, LPTIM_IT_EXTTRIG);
 1679              		.loc 1 1151 5
 1680 00da FB68     		ldr	r3, [r7, #12]
 1681 00dc 1B68     		ldr	r3, [r3]
 1682 00de 9A68     		ldr	r2, [r3, #8]
 1683 00e0 FB68     		ldr	r3, [r7, #12]
 1684 00e2 1B68     		ldr	r3, [r3]
 1685 00e4 42F00402 		orr	r2, r2, #4
 1686 00e8 9A60     		str	r2, [r3, #8]
 1687              	.L69:
1152:Drivers/STM32L4xx_HAL_Driver/Src/stm32l4xx_hal_lptim.c ****   }
1153:Drivers/STM32L4xx_HAL_Driver/Src/stm32l4xx_hal_lptim.c **** 
1154:Drivers/STM32L4xx_HAL_Driver/Src/stm32l4xx_hal_lptim.c ****   /* Enable the Peripheral */
1155:Drivers/STM32L4xx_HAL_Driver/Src/stm32l4xx_hal_lptim.c ****   __HAL_LPTIM_ENABLE(hlptim);
 1688              		.loc 1 1155 3
 1689 00ea FB68     		ldr	r3, [r7, #12]
 1690 00ec 1B68     		ldr	r3, [r3]
 1691 00ee 1A69     		ldr	r2, [r3, #16]
 1692 00f0 FB68     		ldr	r3, [r7, #12]
 1693 00f2 1B68     		ldr	r3, [r3]
 1694 00f4 42F00102 		orr	r2, r2, #1
 1695 00f8 1A61     		str	r2, [r3, #16]
1156:Drivers/STM32L4xx_HAL_Driver/Src/stm32l4xx_hal_lptim.c **** 
1157:Drivers/STM32L4xx_HAL_Driver/Src/stm32l4xx_hal_lptim.c ****   /* Start timer in single (one shot) mode */
1158:Drivers/STM32L4xx_HAL_Driver/Src/stm32l4xx_hal_lptim.c ****   __HAL_LPTIM_START_SINGLE(hlptim);
 1696              		.loc 1 1158 3
 1697 00fa FB68     		ldr	r3, [r7, #12]
 1698 00fc 1B68     		ldr	r3, [r3]
 1699 00fe 1A69     		ldr	r2, [r3, #16]
 1700 0100 FB68     		ldr	r3, [r7, #12]
 1701 0102 1B68     		ldr	r3, [r3]
 1702 0104 42F00202 		orr	r2, r2, #2
 1703 0108 1A61     		str	r2, [r3, #16]
1159:Drivers/STM32L4xx_HAL_Driver/Src/stm32l4xx_hal_lptim.c **** 
1160:Drivers/STM32L4xx_HAL_Driver/Src/stm32l4xx_hal_lptim.c ****   /* Change the LPTIM state */
1161:Drivers/STM32L4xx_HAL_Driver/Src/stm32l4xx_hal_lptim.c ****   hlptim->State = HAL_LPTIM_STATE_READY;
 1704              		.loc 1 1161 17
 1705 010a FB68     		ldr	r3, [r7, #12]
 1706 010c 0122     		movs	r2, #1
 1707 010e 83F83620 		strb	r2, [r3, #54]
ARM GAS  /tmp/ccB7T7H1.s 			page 51


1162:Drivers/STM32L4xx_HAL_Driver/Src/stm32l4xx_hal_lptim.c **** 
1163:Drivers/STM32L4xx_HAL_Driver/Src/stm32l4xx_hal_lptim.c ****   /* Return function status */
1164:Drivers/STM32L4xx_HAL_Driver/Src/stm32l4xx_hal_lptim.c ****   return HAL_OK;
 1708              		.loc 1 1164 10
 1709 0112 0023     		movs	r3, #0
 1710              	.L66:
1165:Drivers/STM32L4xx_HAL_Driver/Src/stm32l4xx_hal_lptim.c **** }
 1711              		.loc 1 1165 1
 1712 0114 1846     		mov	r0, r3
 1713 0116 1037     		adds	r7, r7, #16
 1714              		.cfi_def_cfa_offset 8
 1715 0118 BD46     		mov	sp, r7
 1716              		.cfi_def_cfa_register 13
 1717              		@ sp needed
 1718 011a 80BD     		pop	{r7, pc}
 1719              		.cfi_endproc
 1720              	.LFE459:
 1722              		.section	.text.HAL_LPTIM_SetOnce_Stop_IT,"ax",%progbits
 1723              		.align	1
 1724              		.global	HAL_LPTIM_SetOnce_Stop_IT
 1725              		.syntax unified
 1726              		.thumb
 1727              		.thumb_func
 1729              	HAL_LPTIM_SetOnce_Stop_IT:
 1730              	.LFB460:
1166:Drivers/STM32L4xx_HAL_Driver/Src/stm32l4xx_hal_lptim.c **** 
1167:Drivers/STM32L4xx_HAL_Driver/Src/stm32l4xx_hal_lptim.c **** /**
1168:Drivers/STM32L4xx_HAL_Driver/Src/stm32l4xx_hal_lptim.c ****   * @brief  Stop the LPTIM Set once mode in interrupt mode.
1169:Drivers/STM32L4xx_HAL_Driver/Src/stm32l4xx_hal_lptim.c ****   * @param  hlptim LPTIM handle
1170:Drivers/STM32L4xx_HAL_Driver/Src/stm32l4xx_hal_lptim.c ****   * @retval HAL status
1171:Drivers/STM32L4xx_HAL_Driver/Src/stm32l4xx_hal_lptim.c ****   */
1172:Drivers/STM32L4xx_HAL_Driver/Src/stm32l4xx_hal_lptim.c **** HAL_StatusTypeDef HAL_LPTIM_SetOnce_Stop_IT(LPTIM_HandleTypeDef *hlptim)
1173:Drivers/STM32L4xx_HAL_Driver/Src/stm32l4xx_hal_lptim.c **** {
 1731              		.loc 1 1173 1
 1732              		.cfi_startproc
 1733              		@ args = 0, pretend = 0, frame = 8
 1734              		@ frame_needed = 1, uses_anonymous_args = 0
 1735 0000 80B5     		push	{r7, lr}
 1736              		.cfi_def_cfa_offset 8
 1737              		.cfi_offset 7, -8
 1738              		.cfi_offset 14, -4
 1739 0002 82B0     		sub	sp, sp, #8
 1740              		.cfi_def_cfa_offset 16
 1741 0004 00AF     		add	r7, sp, #0
 1742              		.cfi_def_cfa_register 7
 1743 0006 7860     		str	r0, [r7, #4]
1174:Drivers/STM32L4xx_HAL_Driver/Src/stm32l4xx_hal_lptim.c ****   /* Check the parameters */
1175:Drivers/STM32L4xx_HAL_Driver/Src/stm32l4xx_hal_lptim.c ****   assert_param(IS_LPTIM_INSTANCE(hlptim->Instance));
1176:Drivers/STM32L4xx_HAL_Driver/Src/stm32l4xx_hal_lptim.c **** 
1177:Drivers/STM32L4xx_HAL_Driver/Src/stm32l4xx_hal_lptim.c ****   /* Set the LPTIM state */
1178:Drivers/STM32L4xx_HAL_Driver/Src/stm32l4xx_hal_lptim.c ****   hlptim->State = HAL_LPTIM_STATE_BUSY;
 1744              		.loc 1 1178 17
 1745 0008 7B68     		ldr	r3, [r7, #4]
 1746 000a 0222     		movs	r2, #2
 1747 000c 83F83620 		strb	r2, [r3, #54]
1179:Drivers/STM32L4xx_HAL_Driver/Src/stm32l4xx_hal_lptim.c **** 
1180:Drivers/STM32L4xx_HAL_Driver/Src/stm32l4xx_hal_lptim.c ****   /* Disable the Peripheral */
ARM GAS  /tmp/ccB7T7H1.s 			page 52


1181:Drivers/STM32L4xx_HAL_Driver/Src/stm32l4xx_hal_lptim.c ****   __HAL_LPTIM_DISABLE(hlptim);
 1748              		.loc 1 1181 3
 1749 0010 7868     		ldr	r0, [r7, #4]
 1750 0012 FFF7FEFF 		bl	LPTIM_Disable
1182:Drivers/STM32L4xx_HAL_Driver/Src/stm32l4xx_hal_lptim.c **** 
1183:Drivers/STM32L4xx_HAL_Driver/Src/stm32l4xx_hal_lptim.c ****   if (HAL_LPTIM_GetState(hlptim) == HAL_LPTIM_STATE_TIMEOUT)
 1751              		.loc 1 1183 7
 1752 0016 7868     		ldr	r0, [r7, #4]
 1753 0018 FFF7FEFF 		bl	HAL_LPTIM_GetState
 1754 001c 0346     		mov	r3, r0
 1755              		.loc 1 1183 6 discriminator 1
 1756 001e 032B     		cmp	r3, #3
 1757 0020 01D1     		bne	.L71
1184:Drivers/STM32L4xx_HAL_Driver/Src/stm32l4xx_hal_lptim.c ****   {
1185:Drivers/STM32L4xx_HAL_Driver/Src/stm32l4xx_hal_lptim.c ****     return HAL_TIMEOUT;
 1758              		.loc 1 1185 12
 1759 0022 0323     		movs	r3, #3
 1760 0024 32E0     		b	.L72
 1761              	.L71:
1186:Drivers/STM32L4xx_HAL_Driver/Src/stm32l4xx_hal_lptim.c ****   }
1187:Drivers/STM32L4xx_HAL_Driver/Src/stm32l4xx_hal_lptim.c **** 
1188:Drivers/STM32L4xx_HAL_Driver/Src/stm32l4xx_hal_lptim.c ****   /* Disable Autoreload write complete interrupt */
1189:Drivers/STM32L4xx_HAL_Driver/Src/stm32l4xx_hal_lptim.c ****   __HAL_LPTIM_DISABLE_IT(hlptim, LPTIM_IT_ARROK);
 1762              		.loc 1 1189 3
 1763 0026 7B68     		ldr	r3, [r7, #4]
 1764 0028 1B68     		ldr	r3, [r3]
 1765 002a 9A68     		ldr	r2, [r3, #8]
 1766 002c 7B68     		ldr	r3, [r7, #4]
 1767 002e 1B68     		ldr	r3, [r3]
 1768 0030 22F01002 		bic	r2, r2, #16
 1769 0034 9A60     		str	r2, [r3, #8]
1190:Drivers/STM32L4xx_HAL_Driver/Src/stm32l4xx_hal_lptim.c **** 
1191:Drivers/STM32L4xx_HAL_Driver/Src/stm32l4xx_hal_lptim.c ****   /* Disable Compare write complete interrupt */
1192:Drivers/STM32L4xx_HAL_Driver/Src/stm32l4xx_hal_lptim.c ****   __HAL_LPTIM_DISABLE_IT(hlptim, LPTIM_IT_CMPOK);
 1770              		.loc 1 1192 3
 1771 0036 7B68     		ldr	r3, [r7, #4]
 1772 0038 1B68     		ldr	r3, [r3]
 1773 003a 9A68     		ldr	r2, [r3, #8]
 1774 003c 7B68     		ldr	r3, [r7, #4]
 1775 003e 1B68     		ldr	r3, [r3]
 1776 0040 22F00802 		bic	r2, r2, #8
 1777 0044 9A60     		str	r2, [r3, #8]
1193:Drivers/STM32L4xx_HAL_Driver/Src/stm32l4xx_hal_lptim.c **** 
1194:Drivers/STM32L4xx_HAL_Driver/Src/stm32l4xx_hal_lptim.c ****   /* Disable Autoreload match interrupt */
1195:Drivers/STM32L4xx_HAL_Driver/Src/stm32l4xx_hal_lptim.c ****   __HAL_LPTIM_DISABLE_IT(hlptim, LPTIM_IT_ARRM);
 1778              		.loc 1 1195 3
 1779 0046 7B68     		ldr	r3, [r7, #4]
 1780 0048 1B68     		ldr	r3, [r3]
 1781 004a 9A68     		ldr	r2, [r3, #8]
 1782 004c 7B68     		ldr	r3, [r7, #4]
 1783 004e 1B68     		ldr	r3, [r3]
 1784 0050 22F00202 		bic	r2, r2, #2
 1785 0054 9A60     		str	r2, [r3, #8]
1196:Drivers/STM32L4xx_HAL_Driver/Src/stm32l4xx_hal_lptim.c **** 
1197:Drivers/STM32L4xx_HAL_Driver/Src/stm32l4xx_hal_lptim.c ****   /* Disable Compare match interrupt */
1198:Drivers/STM32L4xx_HAL_Driver/Src/stm32l4xx_hal_lptim.c ****   __HAL_LPTIM_DISABLE_IT(hlptim, LPTIM_IT_CMPM);
 1786              		.loc 1 1198 3
ARM GAS  /tmp/ccB7T7H1.s 			page 53


 1787 0056 7B68     		ldr	r3, [r7, #4]
 1788 0058 1B68     		ldr	r3, [r3]
 1789 005a 9A68     		ldr	r2, [r3, #8]
 1790 005c 7B68     		ldr	r3, [r7, #4]
 1791 005e 1B68     		ldr	r3, [r3]
 1792 0060 22F00102 		bic	r2, r2, #1
 1793 0064 9A60     		str	r2, [r3, #8]
1199:Drivers/STM32L4xx_HAL_Driver/Src/stm32l4xx_hal_lptim.c **** 
1200:Drivers/STM32L4xx_HAL_Driver/Src/stm32l4xx_hal_lptim.c ****   /* If external trigger source is used, then disable external trigger interrupt */
1201:Drivers/STM32L4xx_HAL_Driver/Src/stm32l4xx_hal_lptim.c ****   if ((hlptim->Init.Trigger.Source) != LPTIM_TRIGSOURCE_SOFTWARE)
 1794              		.loc 1 1201 28
 1795 0066 7B68     		ldr	r3, [r7, #4]
 1796 0068 5B69     		ldr	r3, [r3, #20]
 1797              		.loc 1 1201 6
 1798 006a 4FF6FF72 		movw	r2, #65535
 1799 006e 9342     		cmp	r3, r2
 1800 0070 07D0     		beq	.L73
1202:Drivers/STM32L4xx_HAL_Driver/Src/stm32l4xx_hal_lptim.c ****   {
1203:Drivers/STM32L4xx_HAL_Driver/Src/stm32l4xx_hal_lptim.c ****     /* Disable external trigger interrupt */
1204:Drivers/STM32L4xx_HAL_Driver/Src/stm32l4xx_hal_lptim.c ****     __HAL_LPTIM_DISABLE_IT(hlptim, LPTIM_IT_EXTTRIG);
 1801              		.loc 1 1204 5
 1802 0072 7B68     		ldr	r3, [r7, #4]
 1803 0074 1B68     		ldr	r3, [r3]
 1804 0076 9A68     		ldr	r2, [r3, #8]
 1805 0078 7B68     		ldr	r3, [r7, #4]
 1806 007a 1B68     		ldr	r3, [r3]
 1807 007c 22F00402 		bic	r2, r2, #4
 1808 0080 9A60     		str	r2, [r3, #8]
 1809              	.L73:
1205:Drivers/STM32L4xx_HAL_Driver/Src/stm32l4xx_hal_lptim.c ****   }
1206:Drivers/STM32L4xx_HAL_Driver/Src/stm32l4xx_hal_lptim.c **** 
1207:Drivers/STM32L4xx_HAL_Driver/Src/stm32l4xx_hal_lptim.c ****   /* Change the LPTIM state */
1208:Drivers/STM32L4xx_HAL_Driver/Src/stm32l4xx_hal_lptim.c ****   hlptim->State = HAL_LPTIM_STATE_READY;
 1810              		.loc 1 1208 17
 1811 0082 7B68     		ldr	r3, [r7, #4]
 1812 0084 0122     		movs	r2, #1
 1813 0086 83F83620 		strb	r2, [r3, #54]
1209:Drivers/STM32L4xx_HAL_Driver/Src/stm32l4xx_hal_lptim.c **** 
1210:Drivers/STM32L4xx_HAL_Driver/Src/stm32l4xx_hal_lptim.c ****   /* Return function status */
1211:Drivers/STM32L4xx_HAL_Driver/Src/stm32l4xx_hal_lptim.c ****   return HAL_OK;
 1814              		.loc 1 1211 10
 1815 008a 0023     		movs	r3, #0
 1816              	.L72:
1212:Drivers/STM32L4xx_HAL_Driver/Src/stm32l4xx_hal_lptim.c **** }
 1817              		.loc 1 1212 1
 1818 008c 1846     		mov	r0, r3
 1819 008e 0837     		adds	r7, r7, #8
 1820              		.cfi_def_cfa_offset 8
 1821 0090 BD46     		mov	sp, r7
 1822              		.cfi_def_cfa_register 13
 1823              		@ sp needed
 1824 0092 80BD     		pop	{r7, pc}
 1825              		.cfi_endproc
 1826              	.LFE460:
 1828              		.section	.text.HAL_LPTIM_Encoder_Start,"ax",%progbits
 1829              		.align	1
 1830              		.global	HAL_LPTIM_Encoder_Start
ARM GAS  /tmp/ccB7T7H1.s 			page 54


 1831              		.syntax unified
 1832              		.thumb
 1833              		.thumb_func
 1835              	HAL_LPTIM_Encoder_Start:
 1836              	.LFB461:
1213:Drivers/STM32L4xx_HAL_Driver/Src/stm32l4xx_hal_lptim.c **** 
1214:Drivers/STM32L4xx_HAL_Driver/Src/stm32l4xx_hal_lptim.c **** /**
1215:Drivers/STM32L4xx_HAL_Driver/Src/stm32l4xx_hal_lptim.c ****   * @brief  Start the Encoder interface.
1216:Drivers/STM32L4xx_HAL_Driver/Src/stm32l4xx_hal_lptim.c ****   * @param  hlptim LPTIM handle
1217:Drivers/STM32L4xx_HAL_Driver/Src/stm32l4xx_hal_lptim.c ****   * @param  Period Specifies the Autoreload value.
1218:Drivers/STM32L4xx_HAL_Driver/Src/stm32l4xx_hal_lptim.c ****   *         This parameter must be a value between 0x0001 and 0xFFFF.
1219:Drivers/STM32L4xx_HAL_Driver/Src/stm32l4xx_hal_lptim.c ****   * @retval HAL status
1220:Drivers/STM32L4xx_HAL_Driver/Src/stm32l4xx_hal_lptim.c ****   */
1221:Drivers/STM32L4xx_HAL_Driver/Src/stm32l4xx_hal_lptim.c **** HAL_StatusTypeDef HAL_LPTIM_Encoder_Start(LPTIM_HandleTypeDef *hlptim, uint32_t Period)
1222:Drivers/STM32L4xx_HAL_Driver/Src/stm32l4xx_hal_lptim.c **** {
 1837              		.loc 1 1222 1
 1838              		.cfi_startproc
 1839              		@ args = 0, pretend = 0, frame = 16
 1840              		@ frame_needed = 1, uses_anonymous_args = 0
 1841 0000 80B5     		push	{r7, lr}
 1842              		.cfi_def_cfa_offset 8
 1843              		.cfi_offset 7, -8
 1844              		.cfi_offset 14, -4
 1845 0002 84B0     		sub	sp, sp, #16
 1846              		.cfi_def_cfa_offset 24
 1847 0004 00AF     		add	r7, sp, #0
 1848              		.cfi_def_cfa_register 7
 1849 0006 7860     		str	r0, [r7, #4]
 1850 0008 3960     		str	r1, [r7]
1223:Drivers/STM32L4xx_HAL_Driver/Src/stm32l4xx_hal_lptim.c ****   uint32_t          tmpcfgr;
1224:Drivers/STM32L4xx_HAL_Driver/Src/stm32l4xx_hal_lptim.c **** 
1225:Drivers/STM32L4xx_HAL_Driver/Src/stm32l4xx_hal_lptim.c ****   /* Check the parameters */
1226:Drivers/STM32L4xx_HAL_Driver/Src/stm32l4xx_hal_lptim.c ****   assert_param(IS_LPTIM_ENCODER_INTERFACE_INSTANCE(hlptim->Instance));
1227:Drivers/STM32L4xx_HAL_Driver/Src/stm32l4xx_hal_lptim.c ****   assert_param(IS_LPTIM_PERIOD(Period));
1228:Drivers/STM32L4xx_HAL_Driver/Src/stm32l4xx_hal_lptim.c ****   assert_param(hlptim->Init.Clock.Source == LPTIM_CLOCKSOURCE_APBCLOCK_LPOSC);
1229:Drivers/STM32L4xx_HAL_Driver/Src/stm32l4xx_hal_lptim.c ****   assert_param(hlptim->Init.Clock.Prescaler == LPTIM_PRESCALER_DIV1);
1230:Drivers/STM32L4xx_HAL_Driver/Src/stm32l4xx_hal_lptim.c ****   assert_param(IS_LPTIM_CLOCK_POLARITY(hlptim->Init.UltraLowPowerClock.Polarity));
1231:Drivers/STM32L4xx_HAL_Driver/Src/stm32l4xx_hal_lptim.c **** 
1232:Drivers/STM32L4xx_HAL_Driver/Src/stm32l4xx_hal_lptim.c ****   /* Set the LPTIM state */
1233:Drivers/STM32L4xx_HAL_Driver/Src/stm32l4xx_hal_lptim.c ****   hlptim->State = HAL_LPTIM_STATE_BUSY;
 1851              		.loc 1 1233 17
 1852 000a 7B68     		ldr	r3, [r7, #4]
 1853 000c 0222     		movs	r2, #2
 1854 000e 83F83620 		strb	r2, [r3, #54]
1234:Drivers/STM32L4xx_HAL_Driver/Src/stm32l4xx_hal_lptim.c **** 
1235:Drivers/STM32L4xx_HAL_Driver/Src/stm32l4xx_hal_lptim.c ****   /* Get the LPTIMx CFGR value */
1236:Drivers/STM32L4xx_HAL_Driver/Src/stm32l4xx_hal_lptim.c ****   tmpcfgr = hlptim->Instance->CFGR;
 1855              		.loc 1 1236 19
 1856 0012 7B68     		ldr	r3, [r7, #4]
 1857 0014 1B68     		ldr	r3, [r3]
 1858              		.loc 1 1236 11
 1859 0016 DB68     		ldr	r3, [r3, #12]
 1860 0018 FB60     		str	r3, [r7, #12]
1237:Drivers/STM32L4xx_HAL_Driver/Src/stm32l4xx_hal_lptim.c **** 
1238:Drivers/STM32L4xx_HAL_Driver/Src/stm32l4xx_hal_lptim.c ****   /* Clear CKPOL bits */
1239:Drivers/STM32L4xx_HAL_Driver/Src/stm32l4xx_hal_lptim.c ****   tmpcfgr &= (uint32_t)(~LPTIM_CFGR_CKPOL);
 1861              		.loc 1 1239 11
ARM GAS  /tmp/ccB7T7H1.s 			page 55


 1862 001a FB68     		ldr	r3, [r7, #12]
 1863 001c 23F00603 		bic	r3, r3, #6
 1864 0020 FB60     		str	r3, [r7, #12]
1240:Drivers/STM32L4xx_HAL_Driver/Src/stm32l4xx_hal_lptim.c **** 
1241:Drivers/STM32L4xx_HAL_Driver/Src/stm32l4xx_hal_lptim.c ****   /* Set Input polarity */
1242:Drivers/STM32L4xx_HAL_Driver/Src/stm32l4xx_hal_lptim.c ****   tmpcfgr |=  hlptim->Init.UltraLowPowerClock.Polarity;
 1865              		.loc 1 1242 46
 1866 0022 7B68     		ldr	r3, [r7, #4]
 1867 0024 DB68     		ldr	r3, [r3, #12]
 1868              		.loc 1 1242 11
 1869 0026 FA68     		ldr	r2, [r7, #12]
 1870 0028 1343     		orrs	r3, r3, r2
 1871 002a FB60     		str	r3, [r7, #12]
1243:Drivers/STM32L4xx_HAL_Driver/Src/stm32l4xx_hal_lptim.c **** 
1244:Drivers/STM32L4xx_HAL_Driver/Src/stm32l4xx_hal_lptim.c ****   /* Write to LPTIMx CFGR */
1245:Drivers/STM32L4xx_HAL_Driver/Src/stm32l4xx_hal_lptim.c ****   hlptim->Instance->CFGR = tmpcfgr;
 1872              		.loc 1 1245 9
 1873 002c 7B68     		ldr	r3, [r7, #4]
 1874 002e 1B68     		ldr	r3, [r3]
 1875              		.loc 1 1245 26
 1876 0030 FA68     		ldr	r2, [r7, #12]
 1877 0032 DA60     		str	r2, [r3, #12]
1246:Drivers/STM32L4xx_HAL_Driver/Src/stm32l4xx_hal_lptim.c **** 
1247:Drivers/STM32L4xx_HAL_Driver/Src/stm32l4xx_hal_lptim.c ****   /* Set ENC bit to enable the encoder interface */
1248:Drivers/STM32L4xx_HAL_Driver/Src/stm32l4xx_hal_lptim.c ****   hlptim->Instance->CFGR |= LPTIM_CFGR_ENC;
 1878              		.loc 1 1248 9
 1879 0034 7B68     		ldr	r3, [r7, #4]
 1880 0036 1B68     		ldr	r3, [r3]
 1881              		.loc 1 1248 19
 1882 0038 DA68     		ldr	r2, [r3, #12]
 1883              		.loc 1 1248 9
 1884 003a 7B68     		ldr	r3, [r7, #4]
 1885 003c 1B68     		ldr	r3, [r3]
 1886              		.loc 1 1248 26
 1887 003e 42F08072 		orr	r2, r2, #16777216
 1888 0042 DA60     		str	r2, [r3, #12]
1249:Drivers/STM32L4xx_HAL_Driver/Src/stm32l4xx_hal_lptim.c **** 
1250:Drivers/STM32L4xx_HAL_Driver/Src/stm32l4xx_hal_lptim.c ****   /* Enable the Peripheral */
1251:Drivers/STM32L4xx_HAL_Driver/Src/stm32l4xx_hal_lptim.c ****   __HAL_LPTIM_ENABLE(hlptim);
 1889              		.loc 1 1251 3
 1890 0044 7B68     		ldr	r3, [r7, #4]
 1891 0046 1B68     		ldr	r3, [r3]
 1892 0048 1A69     		ldr	r2, [r3, #16]
 1893 004a 7B68     		ldr	r3, [r7, #4]
 1894 004c 1B68     		ldr	r3, [r3]
 1895 004e 42F00102 		orr	r2, r2, #1
 1896 0052 1A61     		str	r2, [r3, #16]
1252:Drivers/STM32L4xx_HAL_Driver/Src/stm32l4xx_hal_lptim.c **** 
1253:Drivers/STM32L4xx_HAL_Driver/Src/stm32l4xx_hal_lptim.c ****   /* Clear flag */
1254:Drivers/STM32L4xx_HAL_Driver/Src/stm32l4xx_hal_lptim.c ****   __HAL_LPTIM_CLEAR_FLAG(hlptim, LPTIM_FLAG_ARROK);
 1897              		.loc 1 1254 3
 1898 0054 7B68     		ldr	r3, [r7, #4]
 1899 0056 1B68     		ldr	r3, [r3]
 1900 0058 1022     		movs	r2, #16
 1901 005a 5A60     		str	r2, [r3, #4]
1255:Drivers/STM32L4xx_HAL_Driver/Src/stm32l4xx_hal_lptim.c **** 
1256:Drivers/STM32L4xx_HAL_Driver/Src/stm32l4xx_hal_lptim.c ****   /* Load the period value in the autoreload register */
ARM GAS  /tmp/ccB7T7H1.s 			page 56


1257:Drivers/STM32L4xx_HAL_Driver/Src/stm32l4xx_hal_lptim.c ****   __HAL_LPTIM_AUTORELOAD_SET(hlptim, Period);
 1902              		.loc 1 1257 3
 1903 005c 7B68     		ldr	r3, [r7, #4]
 1904 005e 1B68     		ldr	r3, [r3]
 1905 0060 3A68     		ldr	r2, [r7]
 1906 0062 9A61     		str	r2, [r3, #24]
1258:Drivers/STM32L4xx_HAL_Driver/Src/stm32l4xx_hal_lptim.c **** 
1259:Drivers/STM32L4xx_HAL_Driver/Src/stm32l4xx_hal_lptim.c ****   /* Wait for the completion of the write operation to the LPTIM_ARR register */
1260:Drivers/STM32L4xx_HAL_Driver/Src/stm32l4xx_hal_lptim.c ****   if (LPTIM_WaitForFlag(hlptim, LPTIM_FLAG_ARROK) == HAL_TIMEOUT)
 1907              		.loc 1 1260 7
 1908 0064 1021     		movs	r1, #16
 1909 0066 7868     		ldr	r0, [r7, #4]
 1910 0068 FFF7FEFF 		bl	LPTIM_WaitForFlag
 1911 006c 0346     		mov	r3, r0
 1912              		.loc 1 1260 6 discriminator 1
 1913 006e 032B     		cmp	r3, #3
 1914 0070 01D1     		bne	.L75
1261:Drivers/STM32L4xx_HAL_Driver/Src/stm32l4xx_hal_lptim.c ****   {
1262:Drivers/STM32L4xx_HAL_Driver/Src/stm32l4xx_hal_lptim.c ****     return HAL_TIMEOUT;
 1915              		.loc 1 1262 12
 1916 0072 0323     		movs	r3, #3
 1917 0074 0CE0     		b	.L76
 1918              	.L75:
1263:Drivers/STM32L4xx_HAL_Driver/Src/stm32l4xx_hal_lptim.c ****   }
1264:Drivers/STM32L4xx_HAL_Driver/Src/stm32l4xx_hal_lptim.c **** 
1265:Drivers/STM32L4xx_HAL_Driver/Src/stm32l4xx_hal_lptim.c ****   /* Start timer in continuous mode */
1266:Drivers/STM32L4xx_HAL_Driver/Src/stm32l4xx_hal_lptim.c ****   __HAL_LPTIM_START_CONTINUOUS(hlptim);
 1919              		.loc 1 1266 3
 1920 0076 7B68     		ldr	r3, [r7, #4]
 1921 0078 1B68     		ldr	r3, [r3]
 1922 007a 1A69     		ldr	r2, [r3, #16]
 1923 007c 7B68     		ldr	r3, [r7, #4]
 1924 007e 1B68     		ldr	r3, [r3]
 1925 0080 42F00402 		orr	r2, r2, #4
 1926 0084 1A61     		str	r2, [r3, #16]
1267:Drivers/STM32L4xx_HAL_Driver/Src/stm32l4xx_hal_lptim.c **** 
1268:Drivers/STM32L4xx_HAL_Driver/Src/stm32l4xx_hal_lptim.c ****   /* Change the LPTIM state */
1269:Drivers/STM32L4xx_HAL_Driver/Src/stm32l4xx_hal_lptim.c ****   hlptim->State = HAL_LPTIM_STATE_READY;
 1927              		.loc 1 1269 17
 1928 0086 7B68     		ldr	r3, [r7, #4]
 1929 0088 0122     		movs	r2, #1
 1930 008a 83F83620 		strb	r2, [r3, #54]
1270:Drivers/STM32L4xx_HAL_Driver/Src/stm32l4xx_hal_lptim.c **** 
1271:Drivers/STM32L4xx_HAL_Driver/Src/stm32l4xx_hal_lptim.c ****   /* Return function status */
1272:Drivers/STM32L4xx_HAL_Driver/Src/stm32l4xx_hal_lptim.c ****   return HAL_OK;
 1931              		.loc 1 1272 10
 1932 008e 0023     		movs	r3, #0
 1933              	.L76:
1273:Drivers/STM32L4xx_HAL_Driver/Src/stm32l4xx_hal_lptim.c **** }
 1934              		.loc 1 1273 1
 1935 0090 1846     		mov	r0, r3
 1936 0092 1037     		adds	r7, r7, #16
 1937              		.cfi_def_cfa_offset 8
 1938 0094 BD46     		mov	sp, r7
 1939              		.cfi_def_cfa_register 13
 1940              		@ sp needed
 1941 0096 80BD     		pop	{r7, pc}
ARM GAS  /tmp/ccB7T7H1.s 			page 57


 1942              		.cfi_endproc
 1943              	.LFE461:
 1945              		.section	.text.HAL_LPTIM_Encoder_Stop,"ax",%progbits
 1946              		.align	1
 1947              		.global	HAL_LPTIM_Encoder_Stop
 1948              		.syntax unified
 1949              		.thumb
 1950              		.thumb_func
 1952              	HAL_LPTIM_Encoder_Stop:
 1953              	.LFB462:
1274:Drivers/STM32L4xx_HAL_Driver/Src/stm32l4xx_hal_lptim.c **** 
1275:Drivers/STM32L4xx_HAL_Driver/Src/stm32l4xx_hal_lptim.c **** /**
1276:Drivers/STM32L4xx_HAL_Driver/Src/stm32l4xx_hal_lptim.c ****   * @brief  Stop the Encoder interface.
1277:Drivers/STM32L4xx_HAL_Driver/Src/stm32l4xx_hal_lptim.c ****   * @param  hlptim LPTIM handle
1278:Drivers/STM32L4xx_HAL_Driver/Src/stm32l4xx_hal_lptim.c ****   * @retval HAL status
1279:Drivers/STM32L4xx_HAL_Driver/Src/stm32l4xx_hal_lptim.c ****   */
1280:Drivers/STM32L4xx_HAL_Driver/Src/stm32l4xx_hal_lptim.c **** HAL_StatusTypeDef HAL_LPTIM_Encoder_Stop(LPTIM_HandleTypeDef *hlptim)
1281:Drivers/STM32L4xx_HAL_Driver/Src/stm32l4xx_hal_lptim.c **** {
 1954              		.loc 1 1281 1
 1955              		.cfi_startproc
 1956              		@ args = 0, pretend = 0, frame = 8
 1957              		@ frame_needed = 1, uses_anonymous_args = 0
 1958 0000 80B5     		push	{r7, lr}
 1959              		.cfi_def_cfa_offset 8
 1960              		.cfi_offset 7, -8
 1961              		.cfi_offset 14, -4
 1962 0002 82B0     		sub	sp, sp, #8
 1963              		.cfi_def_cfa_offset 16
 1964 0004 00AF     		add	r7, sp, #0
 1965              		.cfi_def_cfa_register 7
 1966 0006 7860     		str	r0, [r7, #4]
1282:Drivers/STM32L4xx_HAL_Driver/Src/stm32l4xx_hal_lptim.c ****   /* Check the parameters */
1283:Drivers/STM32L4xx_HAL_Driver/Src/stm32l4xx_hal_lptim.c ****   assert_param(IS_LPTIM_ENCODER_INTERFACE_INSTANCE(hlptim->Instance));
1284:Drivers/STM32L4xx_HAL_Driver/Src/stm32l4xx_hal_lptim.c **** 
1285:Drivers/STM32L4xx_HAL_Driver/Src/stm32l4xx_hal_lptim.c ****   /* Set the LPTIM state */
1286:Drivers/STM32L4xx_HAL_Driver/Src/stm32l4xx_hal_lptim.c ****   hlptim->State = HAL_LPTIM_STATE_BUSY;
 1967              		.loc 1 1286 17
 1968 0008 7B68     		ldr	r3, [r7, #4]
 1969 000a 0222     		movs	r2, #2
 1970 000c 83F83620 		strb	r2, [r3, #54]
1287:Drivers/STM32L4xx_HAL_Driver/Src/stm32l4xx_hal_lptim.c **** 
1288:Drivers/STM32L4xx_HAL_Driver/Src/stm32l4xx_hal_lptim.c ****   /* Disable the Peripheral */
1289:Drivers/STM32L4xx_HAL_Driver/Src/stm32l4xx_hal_lptim.c ****   __HAL_LPTIM_DISABLE(hlptim);
 1971              		.loc 1 1289 3
 1972 0010 7868     		ldr	r0, [r7, #4]
 1973 0012 FFF7FEFF 		bl	LPTIM_Disable
1290:Drivers/STM32L4xx_HAL_Driver/Src/stm32l4xx_hal_lptim.c **** 
1291:Drivers/STM32L4xx_HAL_Driver/Src/stm32l4xx_hal_lptim.c ****   if (HAL_LPTIM_GetState(hlptim) == HAL_LPTIM_STATE_TIMEOUT)
 1974              		.loc 1 1291 7
 1975 0016 7868     		ldr	r0, [r7, #4]
 1976 0018 FFF7FEFF 		bl	HAL_LPTIM_GetState
 1977 001c 0346     		mov	r3, r0
 1978              		.loc 1 1291 6 discriminator 1
 1979 001e 032B     		cmp	r3, #3
 1980 0020 01D1     		bne	.L78
1292:Drivers/STM32L4xx_HAL_Driver/Src/stm32l4xx_hal_lptim.c ****   {
1293:Drivers/STM32L4xx_HAL_Driver/Src/stm32l4xx_hal_lptim.c ****     return HAL_TIMEOUT;
ARM GAS  /tmp/ccB7T7H1.s 			page 58


 1981              		.loc 1 1293 12
 1982 0022 0323     		movs	r3, #3
 1983 0024 0CE0     		b	.L79
 1984              	.L78:
1294:Drivers/STM32L4xx_HAL_Driver/Src/stm32l4xx_hal_lptim.c ****   }
1295:Drivers/STM32L4xx_HAL_Driver/Src/stm32l4xx_hal_lptim.c **** 
1296:Drivers/STM32L4xx_HAL_Driver/Src/stm32l4xx_hal_lptim.c ****   /* Reset ENC bit to disable the encoder interface */
1297:Drivers/STM32L4xx_HAL_Driver/Src/stm32l4xx_hal_lptim.c ****   hlptim->Instance->CFGR &= ~LPTIM_CFGR_ENC;
 1985              		.loc 1 1297 9
 1986 0026 7B68     		ldr	r3, [r7, #4]
 1987 0028 1B68     		ldr	r3, [r3]
 1988              		.loc 1 1297 19
 1989 002a DA68     		ldr	r2, [r3, #12]
 1990              		.loc 1 1297 9
 1991 002c 7B68     		ldr	r3, [r7, #4]
 1992 002e 1B68     		ldr	r3, [r3]
 1993              		.loc 1 1297 26
 1994 0030 22F08072 		bic	r2, r2, #16777216
 1995 0034 DA60     		str	r2, [r3, #12]
1298:Drivers/STM32L4xx_HAL_Driver/Src/stm32l4xx_hal_lptim.c **** 
1299:Drivers/STM32L4xx_HAL_Driver/Src/stm32l4xx_hal_lptim.c ****   /* Change the LPTIM state */
1300:Drivers/STM32L4xx_HAL_Driver/Src/stm32l4xx_hal_lptim.c ****   hlptim->State = HAL_LPTIM_STATE_READY;
 1996              		.loc 1 1300 17
 1997 0036 7B68     		ldr	r3, [r7, #4]
 1998 0038 0122     		movs	r2, #1
 1999 003a 83F83620 		strb	r2, [r3, #54]
1301:Drivers/STM32L4xx_HAL_Driver/Src/stm32l4xx_hal_lptim.c **** 
1302:Drivers/STM32L4xx_HAL_Driver/Src/stm32l4xx_hal_lptim.c ****   /* Return function status */
1303:Drivers/STM32L4xx_HAL_Driver/Src/stm32l4xx_hal_lptim.c ****   return HAL_OK;
 2000              		.loc 1 1303 10
 2001 003e 0023     		movs	r3, #0
 2002              	.L79:
1304:Drivers/STM32L4xx_HAL_Driver/Src/stm32l4xx_hal_lptim.c **** }
 2003              		.loc 1 1304 1
 2004 0040 1846     		mov	r0, r3
 2005 0042 0837     		adds	r7, r7, #8
 2006              		.cfi_def_cfa_offset 8
 2007 0044 BD46     		mov	sp, r7
 2008              		.cfi_def_cfa_register 13
 2009              		@ sp needed
 2010 0046 80BD     		pop	{r7, pc}
 2011              		.cfi_endproc
 2012              	.LFE462:
 2014              		.section	.text.HAL_LPTIM_Encoder_Start_IT,"ax",%progbits
 2015              		.align	1
 2016              		.global	HAL_LPTIM_Encoder_Start_IT
 2017              		.syntax unified
 2018              		.thumb
 2019              		.thumb_func
 2021              	HAL_LPTIM_Encoder_Start_IT:
 2022              	.LFB463:
1305:Drivers/STM32L4xx_HAL_Driver/Src/stm32l4xx_hal_lptim.c **** 
1306:Drivers/STM32L4xx_HAL_Driver/Src/stm32l4xx_hal_lptim.c **** /**
1307:Drivers/STM32L4xx_HAL_Driver/Src/stm32l4xx_hal_lptim.c ****   * @brief  Start the Encoder interface in interrupt mode.
1308:Drivers/STM32L4xx_HAL_Driver/Src/stm32l4xx_hal_lptim.c ****   * @param  hlptim LPTIM handle
1309:Drivers/STM32L4xx_HAL_Driver/Src/stm32l4xx_hal_lptim.c ****   * @param  Period Specifies the Autoreload value.
1310:Drivers/STM32L4xx_HAL_Driver/Src/stm32l4xx_hal_lptim.c ****   *         This parameter must be a value between 0x0000 and 0xFFFF.
ARM GAS  /tmp/ccB7T7H1.s 			page 59


1311:Drivers/STM32L4xx_HAL_Driver/Src/stm32l4xx_hal_lptim.c ****   * @retval HAL status
1312:Drivers/STM32L4xx_HAL_Driver/Src/stm32l4xx_hal_lptim.c ****   */
1313:Drivers/STM32L4xx_HAL_Driver/Src/stm32l4xx_hal_lptim.c **** HAL_StatusTypeDef HAL_LPTIM_Encoder_Start_IT(LPTIM_HandleTypeDef *hlptim, uint32_t Period)
1314:Drivers/STM32L4xx_HAL_Driver/Src/stm32l4xx_hal_lptim.c **** {
 2023              		.loc 1 1314 1
 2024              		.cfi_startproc
 2025              		@ args = 0, pretend = 0, frame = 16
 2026              		@ frame_needed = 1, uses_anonymous_args = 0
 2027 0000 80B5     		push	{r7, lr}
 2028              		.cfi_def_cfa_offset 8
 2029              		.cfi_offset 7, -8
 2030              		.cfi_offset 14, -4
 2031 0002 84B0     		sub	sp, sp, #16
 2032              		.cfi_def_cfa_offset 24
 2033 0004 00AF     		add	r7, sp, #0
 2034              		.cfi_def_cfa_register 7
 2035 0006 7860     		str	r0, [r7, #4]
 2036 0008 3960     		str	r1, [r7]
1315:Drivers/STM32L4xx_HAL_Driver/Src/stm32l4xx_hal_lptim.c ****   uint32_t          tmpcfgr;
1316:Drivers/STM32L4xx_HAL_Driver/Src/stm32l4xx_hal_lptim.c **** 
1317:Drivers/STM32L4xx_HAL_Driver/Src/stm32l4xx_hal_lptim.c ****   /* Check the parameters */
1318:Drivers/STM32L4xx_HAL_Driver/Src/stm32l4xx_hal_lptim.c ****   assert_param(IS_LPTIM_ENCODER_INTERFACE_INSTANCE(hlptim->Instance));
1319:Drivers/STM32L4xx_HAL_Driver/Src/stm32l4xx_hal_lptim.c ****   assert_param(IS_LPTIM_PERIOD(Period));
1320:Drivers/STM32L4xx_HAL_Driver/Src/stm32l4xx_hal_lptim.c ****   assert_param(hlptim->Init.Clock.Source == LPTIM_CLOCKSOURCE_APBCLOCK_LPOSC);
1321:Drivers/STM32L4xx_HAL_Driver/Src/stm32l4xx_hal_lptim.c ****   assert_param(hlptim->Init.Clock.Prescaler == LPTIM_PRESCALER_DIV1);
1322:Drivers/STM32L4xx_HAL_Driver/Src/stm32l4xx_hal_lptim.c ****   assert_param(IS_LPTIM_CLOCK_POLARITY(hlptim->Init.UltraLowPowerClock.Polarity));
1323:Drivers/STM32L4xx_HAL_Driver/Src/stm32l4xx_hal_lptim.c **** 
1324:Drivers/STM32L4xx_HAL_Driver/Src/stm32l4xx_hal_lptim.c ****   /* Set the LPTIM state */
1325:Drivers/STM32L4xx_HAL_Driver/Src/stm32l4xx_hal_lptim.c ****   hlptim->State = HAL_LPTIM_STATE_BUSY;
 2037              		.loc 1 1325 17
 2038 000a 7B68     		ldr	r3, [r7, #4]
 2039 000c 0222     		movs	r2, #2
 2040 000e 83F83620 		strb	r2, [r3, #54]
1326:Drivers/STM32L4xx_HAL_Driver/Src/stm32l4xx_hal_lptim.c **** 
1327:Drivers/STM32L4xx_HAL_Driver/Src/stm32l4xx_hal_lptim.c ****   /* Configure edge sensitivity for encoder mode */
1328:Drivers/STM32L4xx_HAL_Driver/Src/stm32l4xx_hal_lptim.c ****   /* Get the LPTIMx CFGR value */
1329:Drivers/STM32L4xx_HAL_Driver/Src/stm32l4xx_hal_lptim.c ****   tmpcfgr = hlptim->Instance->CFGR;
 2041              		.loc 1 1329 19
 2042 0012 7B68     		ldr	r3, [r7, #4]
 2043 0014 1B68     		ldr	r3, [r3]
 2044              		.loc 1 1329 11
 2045 0016 DB68     		ldr	r3, [r3, #12]
 2046 0018 FB60     		str	r3, [r7, #12]
1330:Drivers/STM32L4xx_HAL_Driver/Src/stm32l4xx_hal_lptim.c **** 
1331:Drivers/STM32L4xx_HAL_Driver/Src/stm32l4xx_hal_lptim.c ****   /* Clear CKPOL bits */
1332:Drivers/STM32L4xx_HAL_Driver/Src/stm32l4xx_hal_lptim.c ****   tmpcfgr &= (uint32_t)(~LPTIM_CFGR_CKPOL);
 2047              		.loc 1 1332 11
 2048 001a FB68     		ldr	r3, [r7, #12]
 2049 001c 23F00603 		bic	r3, r3, #6
 2050 0020 FB60     		str	r3, [r7, #12]
1333:Drivers/STM32L4xx_HAL_Driver/Src/stm32l4xx_hal_lptim.c **** 
1334:Drivers/STM32L4xx_HAL_Driver/Src/stm32l4xx_hal_lptim.c ****   /* Set Input polarity */
1335:Drivers/STM32L4xx_HAL_Driver/Src/stm32l4xx_hal_lptim.c ****   tmpcfgr |=  hlptim->Init.UltraLowPowerClock.Polarity;
 2051              		.loc 1 1335 46
 2052 0022 7B68     		ldr	r3, [r7, #4]
 2053 0024 DB68     		ldr	r3, [r3, #12]
 2054              		.loc 1 1335 11
ARM GAS  /tmp/ccB7T7H1.s 			page 60


 2055 0026 FA68     		ldr	r2, [r7, #12]
 2056 0028 1343     		orrs	r3, r3, r2
 2057 002a FB60     		str	r3, [r7, #12]
1336:Drivers/STM32L4xx_HAL_Driver/Src/stm32l4xx_hal_lptim.c **** 
1337:Drivers/STM32L4xx_HAL_Driver/Src/stm32l4xx_hal_lptim.c ****   /* Write to LPTIMx CFGR */
1338:Drivers/STM32L4xx_HAL_Driver/Src/stm32l4xx_hal_lptim.c ****   hlptim->Instance->CFGR = tmpcfgr;
 2058              		.loc 1 1338 9
 2059 002c 7B68     		ldr	r3, [r7, #4]
 2060 002e 1B68     		ldr	r3, [r3]
 2061              		.loc 1 1338 26
 2062 0030 FA68     		ldr	r2, [r7, #12]
 2063 0032 DA60     		str	r2, [r3, #12]
1339:Drivers/STM32L4xx_HAL_Driver/Src/stm32l4xx_hal_lptim.c **** 
1340:Drivers/STM32L4xx_HAL_Driver/Src/stm32l4xx_hal_lptim.c ****   /* Set ENC bit to enable the encoder interface */
1341:Drivers/STM32L4xx_HAL_Driver/Src/stm32l4xx_hal_lptim.c ****   hlptim->Instance->CFGR |= LPTIM_CFGR_ENC;
 2064              		.loc 1 1341 9
 2065 0034 7B68     		ldr	r3, [r7, #4]
 2066 0036 1B68     		ldr	r3, [r3]
 2067              		.loc 1 1341 19
 2068 0038 DA68     		ldr	r2, [r3, #12]
 2069              		.loc 1 1341 9
 2070 003a 7B68     		ldr	r3, [r7, #4]
 2071 003c 1B68     		ldr	r3, [r3]
 2072              		.loc 1 1341 26
 2073 003e 42F08072 		orr	r2, r2, #16777216
 2074 0042 DA60     		str	r2, [r3, #12]
1342:Drivers/STM32L4xx_HAL_Driver/Src/stm32l4xx_hal_lptim.c **** 
1343:Drivers/STM32L4xx_HAL_Driver/Src/stm32l4xx_hal_lptim.c ****   /* Enable the Peripheral */
1344:Drivers/STM32L4xx_HAL_Driver/Src/stm32l4xx_hal_lptim.c ****   __HAL_LPTIM_ENABLE(hlptim);
 2075              		.loc 1 1344 3
 2076 0044 7B68     		ldr	r3, [r7, #4]
 2077 0046 1B68     		ldr	r3, [r3]
 2078 0048 1A69     		ldr	r2, [r3, #16]
 2079 004a 7B68     		ldr	r3, [r7, #4]
 2080 004c 1B68     		ldr	r3, [r3]
 2081 004e 42F00102 		orr	r2, r2, #1
 2082 0052 1A61     		str	r2, [r3, #16]
1345:Drivers/STM32L4xx_HAL_Driver/Src/stm32l4xx_hal_lptim.c **** 
1346:Drivers/STM32L4xx_HAL_Driver/Src/stm32l4xx_hal_lptim.c ****   /* Clear flag */
1347:Drivers/STM32L4xx_HAL_Driver/Src/stm32l4xx_hal_lptim.c ****   __HAL_LPTIM_CLEAR_FLAG(hlptim, LPTIM_FLAG_ARROK);
 2083              		.loc 1 1347 3
 2084 0054 7B68     		ldr	r3, [r7, #4]
 2085 0056 1B68     		ldr	r3, [r3]
 2086 0058 1022     		movs	r2, #16
 2087 005a 5A60     		str	r2, [r3, #4]
1348:Drivers/STM32L4xx_HAL_Driver/Src/stm32l4xx_hal_lptim.c **** 
1349:Drivers/STM32L4xx_HAL_Driver/Src/stm32l4xx_hal_lptim.c ****   /* Load the period value in the autoreload register */
1350:Drivers/STM32L4xx_HAL_Driver/Src/stm32l4xx_hal_lptim.c ****   __HAL_LPTIM_AUTORELOAD_SET(hlptim, Period);
 2088              		.loc 1 1350 3
 2089 005c 7B68     		ldr	r3, [r7, #4]
 2090 005e 1B68     		ldr	r3, [r3]
 2091 0060 3A68     		ldr	r2, [r7]
 2092 0062 9A61     		str	r2, [r3, #24]
1351:Drivers/STM32L4xx_HAL_Driver/Src/stm32l4xx_hal_lptim.c **** 
1352:Drivers/STM32L4xx_HAL_Driver/Src/stm32l4xx_hal_lptim.c ****   /* Wait for the completion of the write operation to the LPTIM_ARR register */
1353:Drivers/STM32L4xx_HAL_Driver/Src/stm32l4xx_hal_lptim.c ****   if (LPTIM_WaitForFlag(hlptim, LPTIM_FLAG_ARROK) == HAL_TIMEOUT)
 2093              		.loc 1 1353 7
ARM GAS  /tmp/ccB7T7H1.s 			page 61


 2094 0064 1021     		movs	r1, #16
 2095 0066 7868     		ldr	r0, [r7, #4]
 2096 0068 FFF7FEFF 		bl	LPTIM_WaitForFlag
 2097 006c 0346     		mov	r3, r0
 2098              		.loc 1 1353 6 discriminator 1
 2099 006e 032B     		cmp	r3, #3
 2100 0070 01D1     		bne	.L81
1354:Drivers/STM32L4xx_HAL_Driver/Src/stm32l4xx_hal_lptim.c ****   {
1355:Drivers/STM32L4xx_HAL_Driver/Src/stm32l4xx_hal_lptim.c ****     return HAL_TIMEOUT;
 2101              		.loc 1 1355 12
 2102 0072 0323     		movs	r3, #3
 2103 0074 2FE0     		b	.L82
 2104              	.L81:
1356:Drivers/STM32L4xx_HAL_Driver/Src/stm32l4xx_hal_lptim.c ****   }
1357:Drivers/STM32L4xx_HAL_Driver/Src/stm32l4xx_hal_lptim.c **** 
1358:Drivers/STM32L4xx_HAL_Driver/Src/stm32l4xx_hal_lptim.c ****   /* Disable the Peripheral */
1359:Drivers/STM32L4xx_HAL_Driver/Src/stm32l4xx_hal_lptim.c ****   __HAL_LPTIM_DISABLE(hlptim);
 2105              		.loc 1 1359 3
 2106 0076 7868     		ldr	r0, [r7, #4]
 2107 0078 FFF7FEFF 		bl	LPTIM_Disable
1360:Drivers/STM32L4xx_HAL_Driver/Src/stm32l4xx_hal_lptim.c **** 
1361:Drivers/STM32L4xx_HAL_Driver/Src/stm32l4xx_hal_lptim.c ****   if (HAL_LPTIM_GetState(hlptim) == HAL_LPTIM_STATE_TIMEOUT)
 2108              		.loc 1 1361 7
 2109 007c 7868     		ldr	r0, [r7, #4]
 2110 007e FFF7FEFF 		bl	HAL_LPTIM_GetState
 2111 0082 0346     		mov	r3, r0
 2112              		.loc 1 1361 6 discriminator 1
 2113 0084 032B     		cmp	r3, #3
 2114 0086 01D1     		bne	.L83
1362:Drivers/STM32L4xx_HAL_Driver/Src/stm32l4xx_hal_lptim.c ****   {
1363:Drivers/STM32L4xx_HAL_Driver/Src/stm32l4xx_hal_lptim.c ****     return HAL_TIMEOUT;
 2115              		.loc 1 1363 12
 2116 0088 0323     		movs	r3, #3
 2117 008a 24E0     		b	.L82
 2118              	.L83:
1364:Drivers/STM32L4xx_HAL_Driver/Src/stm32l4xx_hal_lptim.c ****   }
1365:Drivers/STM32L4xx_HAL_Driver/Src/stm32l4xx_hal_lptim.c **** 
1366:Drivers/STM32L4xx_HAL_Driver/Src/stm32l4xx_hal_lptim.c ****   /* Enable "switch to down direction" interrupt */
1367:Drivers/STM32L4xx_HAL_Driver/Src/stm32l4xx_hal_lptim.c ****   __HAL_LPTIM_ENABLE_IT(hlptim, LPTIM_IT_DOWN);
 2119              		.loc 1 1367 3
 2120 008c 7B68     		ldr	r3, [r7, #4]
 2121 008e 1B68     		ldr	r3, [r3]
 2122 0090 9A68     		ldr	r2, [r3, #8]
 2123 0092 7B68     		ldr	r3, [r7, #4]
 2124 0094 1B68     		ldr	r3, [r3]
 2125 0096 42F04002 		orr	r2, r2, #64
 2126 009a 9A60     		str	r2, [r3, #8]
1368:Drivers/STM32L4xx_HAL_Driver/Src/stm32l4xx_hal_lptim.c **** 
1369:Drivers/STM32L4xx_HAL_Driver/Src/stm32l4xx_hal_lptim.c ****   /* Enable "switch to up direction" interrupt */
1370:Drivers/STM32L4xx_HAL_Driver/Src/stm32l4xx_hal_lptim.c ****   __HAL_LPTIM_ENABLE_IT(hlptim, LPTIM_IT_UP);
 2127              		.loc 1 1370 3
 2128 009c 7B68     		ldr	r3, [r7, #4]
 2129 009e 1B68     		ldr	r3, [r3]
 2130 00a0 9A68     		ldr	r2, [r3, #8]
 2131 00a2 7B68     		ldr	r3, [r7, #4]
 2132 00a4 1B68     		ldr	r3, [r3]
 2133 00a6 42F02002 		orr	r2, r2, #32
ARM GAS  /tmp/ccB7T7H1.s 			page 62


 2134 00aa 9A60     		str	r2, [r3, #8]
1371:Drivers/STM32L4xx_HAL_Driver/Src/stm32l4xx_hal_lptim.c **** 
1372:Drivers/STM32L4xx_HAL_Driver/Src/stm32l4xx_hal_lptim.c ****   /* Enable the Peripheral */
1373:Drivers/STM32L4xx_HAL_Driver/Src/stm32l4xx_hal_lptim.c ****   __HAL_LPTIM_ENABLE(hlptim);
 2135              		.loc 1 1373 3
 2136 00ac 7B68     		ldr	r3, [r7, #4]
 2137 00ae 1B68     		ldr	r3, [r3]
 2138 00b0 1A69     		ldr	r2, [r3, #16]
 2139 00b2 7B68     		ldr	r3, [r7, #4]
 2140 00b4 1B68     		ldr	r3, [r3]
 2141 00b6 42F00102 		orr	r2, r2, #1
 2142 00ba 1A61     		str	r2, [r3, #16]
1374:Drivers/STM32L4xx_HAL_Driver/Src/stm32l4xx_hal_lptim.c **** 
1375:Drivers/STM32L4xx_HAL_Driver/Src/stm32l4xx_hal_lptim.c ****   /* Start timer in continuous mode */
1376:Drivers/STM32L4xx_HAL_Driver/Src/stm32l4xx_hal_lptim.c ****   __HAL_LPTIM_START_CONTINUOUS(hlptim);
 2143              		.loc 1 1376 3
 2144 00bc 7B68     		ldr	r3, [r7, #4]
 2145 00be 1B68     		ldr	r3, [r3]
 2146 00c0 1A69     		ldr	r2, [r3, #16]
 2147 00c2 7B68     		ldr	r3, [r7, #4]
 2148 00c4 1B68     		ldr	r3, [r3]
 2149 00c6 42F00402 		orr	r2, r2, #4
 2150 00ca 1A61     		str	r2, [r3, #16]
1377:Drivers/STM32L4xx_HAL_Driver/Src/stm32l4xx_hal_lptim.c **** 
1378:Drivers/STM32L4xx_HAL_Driver/Src/stm32l4xx_hal_lptim.c ****   /* Change the LPTIM state */
1379:Drivers/STM32L4xx_HAL_Driver/Src/stm32l4xx_hal_lptim.c ****   hlptim->State = HAL_LPTIM_STATE_READY;
 2151              		.loc 1 1379 17
 2152 00cc 7B68     		ldr	r3, [r7, #4]
 2153 00ce 0122     		movs	r2, #1
 2154 00d0 83F83620 		strb	r2, [r3, #54]
1380:Drivers/STM32L4xx_HAL_Driver/Src/stm32l4xx_hal_lptim.c **** 
1381:Drivers/STM32L4xx_HAL_Driver/Src/stm32l4xx_hal_lptim.c ****   /* Return function status */
1382:Drivers/STM32L4xx_HAL_Driver/Src/stm32l4xx_hal_lptim.c ****   return HAL_OK;
 2155              		.loc 1 1382 10
 2156 00d4 0023     		movs	r3, #0
 2157              	.L82:
1383:Drivers/STM32L4xx_HAL_Driver/Src/stm32l4xx_hal_lptim.c **** }
 2158              		.loc 1 1383 1
 2159 00d6 1846     		mov	r0, r3
 2160 00d8 1037     		adds	r7, r7, #16
 2161              		.cfi_def_cfa_offset 8
 2162 00da BD46     		mov	sp, r7
 2163              		.cfi_def_cfa_register 13
 2164              		@ sp needed
 2165 00dc 80BD     		pop	{r7, pc}
 2166              		.cfi_endproc
 2167              	.LFE463:
 2169              		.section	.text.HAL_LPTIM_Encoder_Stop_IT,"ax",%progbits
 2170              		.align	1
 2171              		.global	HAL_LPTIM_Encoder_Stop_IT
 2172              		.syntax unified
 2173              		.thumb
 2174              		.thumb_func
 2176              	HAL_LPTIM_Encoder_Stop_IT:
 2177              	.LFB464:
1384:Drivers/STM32L4xx_HAL_Driver/Src/stm32l4xx_hal_lptim.c **** 
1385:Drivers/STM32L4xx_HAL_Driver/Src/stm32l4xx_hal_lptim.c **** /**
ARM GAS  /tmp/ccB7T7H1.s 			page 63


1386:Drivers/STM32L4xx_HAL_Driver/Src/stm32l4xx_hal_lptim.c ****   * @brief  Stop the Encoder interface in interrupt mode.
1387:Drivers/STM32L4xx_HAL_Driver/Src/stm32l4xx_hal_lptim.c ****   * @param  hlptim LPTIM handle
1388:Drivers/STM32L4xx_HAL_Driver/Src/stm32l4xx_hal_lptim.c ****   * @retval HAL status
1389:Drivers/STM32L4xx_HAL_Driver/Src/stm32l4xx_hal_lptim.c ****   */
1390:Drivers/STM32L4xx_HAL_Driver/Src/stm32l4xx_hal_lptim.c **** HAL_StatusTypeDef HAL_LPTIM_Encoder_Stop_IT(LPTIM_HandleTypeDef *hlptim)
1391:Drivers/STM32L4xx_HAL_Driver/Src/stm32l4xx_hal_lptim.c **** {
 2178              		.loc 1 1391 1
 2179              		.cfi_startproc
 2180              		@ args = 0, pretend = 0, frame = 8
 2181              		@ frame_needed = 1, uses_anonymous_args = 0
 2182 0000 80B5     		push	{r7, lr}
 2183              		.cfi_def_cfa_offset 8
 2184              		.cfi_offset 7, -8
 2185              		.cfi_offset 14, -4
 2186 0002 82B0     		sub	sp, sp, #8
 2187              		.cfi_def_cfa_offset 16
 2188 0004 00AF     		add	r7, sp, #0
 2189              		.cfi_def_cfa_register 7
 2190 0006 7860     		str	r0, [r7, #4]
1392:Drivers/STM32L4xx_HAL_Driver/Src/stm32l4xx_hal_lptim.c ****   /* Check the parameters */
1393:Drivers/STM32L4xx_HAL_Driver/Src/stm32l4xx_hal_lptim.c ****   assert_param(IS_LPTIM_ENCODER_INTERFACE_INSTANCE(hlptim->Instance));
1394:Drivers/STM32L4xx_HAL_Driver/Src/stm32l4xx_hal_lptim.c **** 
1395:Drivers/STM32L4xx_HAL_Driver/Src/stm32l4xx_hal_lptim.c ****   /* Set the LPTIM state */
1396:Drivers/STM32L4xx_HAL_Driver/Src/stm32l4xx_hal_lptim.c ****   hlptim->State = HAL_LPTIM_STATE_BUSY;
 2191              		.loc 1 1396 17
 2192 0008 7B68     		ldr	r3, [r7, #4]
 2193 000a 0222     		movs	r2, #2
 2194 000c 83F83620 		strb	r2, [r3, #54]
1397:Drivers/STM32L4xx_HAL_Driver/Src/stm32l4xx_hal_lptim.c **** 
1398:Drivers/STM32L4xx_HAL_Driver/Src/stm32l4xx_hal_lptim.c ****   /* Disable the Peripheral */
1399:Drivers/STM32L4xx_HAL_Driver/Src/stm32l4xx_hal_lptim.c ****   __HAL_LPTIM_DISABLE(hlptim);
 2195              		.loc 1 1399 3
 2196 0010 7868     		ldr	r0, [r7, #4]
 2197 0012 FFF7FEFF 		bl	LPTIM_Disable
1400:Drivers/STM32L4xx_HAL_Driver/Src/stm32l4xx_hal_lptim.c **** 
1401:Drivers/STM32L4xx_HAL_Driver/Src/stm32l4xx_hal_lptim.c ****   if (HAL_LPTIM_GetState(hlptim) == HAL_LPTIM_STATE_TIMEOUT)
 2198              		.loc 1 1401 7
 2199 0016 7868     		ldr	r0, [r7, #4]
 2200 0018 FFF7FEFF 		bl	HAL_LPTIM_GetState
 2201 001c 0346     		mov	r3, r0
 2202              		.loc 1 1401 6 discriminator 1
 2203 001e 032B     		cmp	r3, #3
 2204 0020 01D1     		bne	.L85
1402:Drivers/STM32L4xx_HAL_Driver/Src/stm32l4xx_hal_lptim.c ****   {
1403:Drivers/STM32L4xx_HAL_Driver/Src/stm32l4xx_hal_lptim.c ****     return HAL_TIMEOUT;
 2205              		.loc 1 1403 12
 2206 0022 0323     		movs	r3, #3
 2207 0024 1CE0     		b	.L86
 2208              	.L85:
1404:Drivers/STM32L4xx_HAL_Driver/Src/stm32l4xx_hal_lptim.c ****   }
1405:Drivers/STM32L4xx_HAL_Driver/Src/stm32l4xx_hal_lptim.c **** 
1406:Drivers/STM32L4xx_HAL_Driver/Src/stm32l4xx_hal_lptim.c ****   /* Reset ENC bit to disable the encoder interface */
1407:Drivers/STM32L4xx_HAL_Driver/Src/stm32l4xx_hal_lptim.c ****   hlptim->Instance->CFGR &= ~LPTIM_CFGR_ENC;
 2209              		.loc 1 1407 9
 2210 0026 7B68     		ldr	r3, [r7, #4]
 2211 0028 1B68     		ldr	r3, [r3]
 2212              		.loc 1 1407 19
ARM GAS  /tmp/ccB7T7H1.s 			page 64


 2213 002a DA68     		ldr	r2, [r3, #12]
 2214              		.loc 1 1407 9
 2215 002c 7B68     		ldr	r3, [r7, #4]
 2216 002e 1B68     		ldr	r3, [r3]
 2217              		.loc 1 1407 26
 2218 0030 22F08072 		bic	r2, r2, #16777216
 2219 0034 DA60     		str	r2, [r3, #12]
1408:Drivers/STM32L4xx_HAL_Driver/Src/stm32l4xx_hal_lptim.c **** 
1409:Drivers/STM32L4xx_HAL_Driver/Src/stm32l4xx_hal_lptim.c ****   /* Disable "switch to down direction" interrupt */
1410:Drivers/STM32L4xx_HAL_Driver/Src/stm32l4xx_hal_lptim.c ****   __HAL_LPTIM_DISABLE_IT(hlptim, LPTIM_IT_DOWN);
 2220              		.loc 1 1410 3
 2221 0036 7B68     		ldr	r3, [r7, #4]
 2222 0038 1B68     		ldr	r3, [r3]
 2223 003a 9A68     		ldr	r2, [r3, #8]
 2224 003c 7B68     		ldr	r3, [r7, #4]
 2225 003e 1B68     		ldr	r3, [r3]
 2226 0040 22F04002 		bic	r2, r2, #64
 2227 0044 9A60     		str	r2, [r3, #8]
1411:Drivers/STM32L4xx_HAL_Driver/Src/stm32l4xx_hal_lptim.c **** 
1412:Drivers/STM32L4xx_HAL_Driver/Src/stm32l4xx_hal_lptim.c ****   /* Disable "switch to up direction" interrupt */
1413:Drivers/STM32L4xx_HAL_Driver/Src/stm32l4xx_hal_lptim.c ****   __HAL_LPTIM_DISABLE_IT(hlptim, LPTIM_IT_UP);
 2228              		.loc 1 1413 3
 2229 0046 7B68     		ldr	r3, [r7, #4]
 2230 0048 1B68     		ldr	r3, [r3]
 2231 004a 9A68     		ldr	r2, [r3, #8]
 2232 004c 7B68     		ldr	r3, [r7, #4]
 2233 004e 1B68     		ldr	r3, [r3]
 2234 0050 22F02002 		bic	r2, r2, #32
 2235 0054 9A60     		str	r2, [r3, #8]
1414:Drivers/STM32L4xx_HAL_Driver/Src/stm32l4xx_hal_lptim.c **** 
1415:Drivers/STM32L4xx_HAL_Driver/Src/stm32l4xx_hal_lptim.c ****   /* Change the LPTIM state */
1416:Drivers/STM32L4xx_HAL_Driver/Src/stm32l4xx_hal_lptim.c ****   hlptim->State = HAL_LPTIM_STATE_READY;
 2236              		.loc 1 1416 17
 2237 0056 7B68     		ldr	r3, [r7, #4]
 2238 0058 0122     		movs	r2, #1
 2239 005a 83F83620 		strb	r2, [r3, #54]
1417:Drivers/STM32L4xx_HAL_Driver/Src/stm32l4xx_hal_lptim.c **** 
1418:Drivers/STM32L4xx_HAL_Driver/Src/stm32l4xx_hal_lptim.c ****   /* Return function status */
1419:Drivers/STM32L4xx_HAL_Driver/Src/stm32l4xx_hal_lptim.c ****   return HAL_OK;
 2240              		.loc 1 1419 10
 2241 005e 0023     		movs	r3, #0
 2242              	.L86:
1420:Drivers/STM32L4xx_HAL_Driver/Src/stm32l4xx_hal_lptim.c **** }
 2243              		.loc 1 1420 1
 2244 0060 1846     		mov	r0, r3
 2245 0062 0837     		adds	r7, r7, #8
 2246              		.cfi_def_cfa_offset 8
 2247 0064 BD46     		mov	sp, r7
 2248              		.cfi_def_cfa_register 13
 2249              		@ sp needed
 2250 0066 80BD     		pop	{r7, pc}
 2251              		.cfi_endproc
 2252              	.LFE464:
 2254              		.section	.text.HAL_LPTIM_TimeOut_Start,"ax",%progbits
 2255              		.align	1
 2256              		.global	HAL_LPTIM_TimeOut_Start
 2257              		.syntax unified
ARM GAS  /tmp/ccB7T7H1.s 			page 65


 2258              		.thumb
 2259              		.thumb_func
 2261              	HAL_LPTIM_TimeOut_Start:
 2262              	.LFB465:
1421:Drivers/STM32L4xx_HAL_Driver/Src/stm32l4xx_hal_lptim.c **** 
1422:Drivers/STM32L4xx_HAL_Driver/Src/stm32l4xx_hal_lptim.c **** /**
1423:Drivers/STM32L4xx_HAL_Driver/Src/stm32l4xx_hal_lptim.c ****   * @brief  Start the Timeout function.
1424:Drivers/STM32L4xx_HAL_Driver/Src/stm32l4xx_hal_lptim.c ****   * @note   The first trigger event will start the timer, any successive
1425:Drivers/STM32L4xx_HAL_Driver/Src/stm32l4xx_hal_lptim.c ****   *         trigger event will reset the counter and the timer restarts.
1426:Drivers/STM32L4xx_HAL_Driver/Src/stm32l4xx_hal_lptim.c ****   * @param  hlptim LPTIM handle
1427:Drivers/STM32L4xx_HAL_Driver/Src/stm32l4xx_hal_lptim.c ****   * @param  Period Specifies the Autoreload value.
1428:Drivers/STM32L4xx_HAL_Driver/Src/stm32l4xx_hal_lptim.c ****   *         This parameter must be a value between 0x0001 and 0xFFFF.
1429:Drivers/STM32L4xx_HAL_Driver/Src/stm32l4xx_hal_lptim.c ****   * @param  Timeout Specifies the TimeOut value to reset the counter.
1430:Drivers/STM32L4xx_HAL_Driver/Src/stm32l4xx_hal_lptim.c ****   *         This parameter must be a value between 0x0000 and 0xFFFF.
1431:Drivers/STM32L4xx_HAL_Driver/Src/stm32l4xx_hal_lptim.c ****   * @retval HAL status
1432:Drivers/STM32L4xx_HAL_Driver/Src/stm32l4xx_hal_lptim.c ****   */
1433:Drivers/STM32L4xx_HAL_Driver/Src/stm32l4xx_hal_lptim.c **** HAL_StatusTypeDef HAL_LPTIM_TimeOut_Start(LPTIM_HandleTypeDef *hlptim, uint32_t Period, uint32_t Ti
1434:Drivers/STM32L4xx_HAL_Driver/Src/stm32l4xx_hal_lptim.c **** {
 2263              		.loc 1 1434 1
 2264              		.cfi_startproc
 2265              		@ args = 0, pretend = 0, frame = 16
 2266              		@ frame_needed = 1, uses_anonymous_args = 0
 2267 0000 80B5     		push	{r7, lr}
 2268              		.cfi_def_cfa_offset 8
 2269              		.cfi_offset 7, -8
 2270              		.cfi_offset 14, -4
 2271 0002 84B0     		sub	sp, sp, #16
 2272              		.cfi_def_cfa_offset 24
 2273 0004 00AF     		add	r7, sp, #0
 2274              		.cfi_def_cfa_register 7
 2275 0006 F860     		str	r0, [r7, #12]
 2276 0008 B960     		str	r1, [r7, #8]
 2277 000a 7A60     		str	r2, [r7, #4]
1435:Drivers/STM32L4xx_HAL_Driver/Src/stm32l4xx_hal_lptim.c ****   /* Check the parameters */
1436:Drivers/STM32L4xx_HAL_Driver/Src/stm32l4xx_hal_lptim.c ****   assert_param(IS_LPTIM_INSTANCE(hlptim->Instance));
1437:Drivers/STM32L4xx_HAL_Driver/Src/stm32l4xx_hal_lptim.c ****   assert_param(IS_LPTIM_PERIOD(Period));
1438:Drivers/STM32L4xx_HAL_Driver/Src/stm32l4xx_hal_lptim.c ****   assert_param(IS_LPTIM_PULSE(Timeout));
1439:Drivers/STM32L4xx_HAL_Driver/Src/stm32l4xx_hal_lptim.c **** 
1440:Drivers/STM32L4xx_HAL_Driver/Src/stm32l4xx_hal_lptim.c ****   /* Set the LPTIM state */
1441:Drivers/STM32L4xx_HAL_Driver/Src/stm32l4xx_hal_lptim.c ****   hlptim->State = HAL_LPTIM_STATE_BUSY;
 2278              		.loc 1 1441 17
 2279 000c FB68     		ldr	r3, [r7, #12]
 2280 000e 0222     		movs	r2, #2
 2281 0010 83F83620 		strb	r2, [r3, #54]
1442:Drivers/STM32L4xx_HAL_Driver/Src/stm32l4xx_hal_lptim.c **** 
1443:Drivers/STM32L4xx_HAL_Driver/Src/stm32l4xx_hal_lptim.c ****   /* Set TIMOUT bit to enable the timeout function */
1444:Drivers/STM32L4xx_HAL_Driver/Src/stm32l4xx_hal_lptim.c ****   hlptim->Instance->CFGR |= LPTIM_CFGR_TIMOUT;
 2282              		.loc 1 1444 9
 2283 0014 FB68     		ldr	r3, [r7, #12]
 2284 0016 1B68     		ldr	r3, [r3]
 2285              		.loc 1 1444 19
 2286 0018 DA68     		ldr	r2, [r3, #12]
 2287              		.loc 1 1444 9
 2288 001a FB68     		ldr	r3, [r7, #12]
 2289 001c 1B68     		ldr	r3, [r3]
 2290              		.loc 1 1444 26
 2291 001e 42F40022 		orr	r2, r2, #524288
ARM GAS  /tmp/ccB7T7H1.s 			page 66


 2292 0022 DA60     		str	r2, [r3, #12]
1445:Drivers/STM32L4xx_HAL_Driver/Src/stm32l4xx_hal_lptim.c **** 
1446:Drivers/STM32L4xx_HAL_Driver/Src/stm32l4xx_hal_lptim.c ****   /* Enable the Peripheral */
1447:Drivers/STM32L4xx_HAL_Driver/Src/stm32l4xx_hal_lptim.c ****   __HAL_LPTIM_ENABLE(hlptim);
 2293              		.loc 1 1447 3
 2294 0024 FB68     		ldr	r3, [r7, #12]
 2295 0026 1B68     		ldr	r3, [r3]
 2296 0028 1A69     		ldr	r2, [r3, #16]
 2297 002a FB68     		ldr	r3, [r7, #12]
 2298 002c 1B68     		ldr	r3, [r3]
 2299 002e 42F00102 		orr	r2, r2, #1
 2300 0032 1A61     		str	r2, [r3, #16]
1448:Drivers/STM32L4xx_HAL_Driver/Src/stm32l4xx_hal_lptim.c **** 
1449:Drivers/STM32L4xx_HAL_Driver/Src/stm32l4xx_hal_lptim.c ****   /* Clear flag */
1450:Drivers/STM32L4xx_HAL_Driver/Src/stm32l4xx_hal_lptim.c ****   __HAL_LPTIM_CLEAR_FLAG(hlptim, LPTIM_FLAG_ARROK);
 2301              		.loc 1 1450 3
 2302 0034 FB68     		ldr	r3, [r7, #12]
 2303 0036 1B68     		ldr	r3, [r3]
 2304 0038 1022     		movs	r2, #16
 2305 003a 5A60     		str	r2, [r3, #4]
1451:Drivers/STM32L4xx_HAL_Driver/Src/stm32l4xx_hal_lptim.c **** 
1452:Drivers/STM32L4xx_HAL_Driver/Src/stm32l4xx_hal_lptim.c ****   /* Load the period value in the autoreload register */
1453:Drivers/STM32L4xx_HAL_Driver/Src/stm32l4xx_hal_lptim.c ****   __HAL_LPTIM_AUTORELOAD_SET(hlptim, Period);
 2306              		.loc 1 1453 3
 2307 003c FB68     		ldr	r3, [r7, #12]
 2308 003e 1B68     		ldr	r3, [r3]
 2309 0040 BA68     		ldr	r2, [r7, #8]
 2310 0042 9A61     		str	r2, [r3, #24]
1454:Drivers/STM32L4xx_HAL_Driver/Src/stm32l4xx_hal_lptim.c **** 
1455:Drivers/STM32L4xx_HAL_Driver/Src/stm32l4xx_hal_lptim.c ****   /* Wait for the completion of the write operation to the LPTIM_ARR register */
1456:Drivers/STM32L4xx_HAL_Driver/Src/stm32l4xx_hal_lptim.c ****   if (LPTIM_WaitForFlag(hlptim, LPTIM_FLAG_ARROK) == HAL_TIMEOUT)
 2311              		.loc 1 1456 7
 2312 0044 1021     		movs	r1, #16
 2313 0046 F868     		ldr	r0, [r7, #12]
 2314 0048 FFF7FEFF 		bl	LPTIM_WaitForFlag
 2315 004c 0346     		mov	r3, r0
 2316              		.loc 1 1456 6 discriminator 1
 2317 004e 032B     		cmp	r3, #3
 2318 0050 01D1     		bne	.L88
1457:Drivers/STM32L4xx_HAL_Driver/Src/stm32l4xx_hal_lptim.c ****   {
1458:Drivers/STM32L4xx_HAL_Driver/Src/stm32l4xx_hal_lptim.c ****     return HAL_TIMEOUT;
 2319              		.loc 1 1458 12
 2320 0052 0323     		movs	r3, #3
 2321 0054 1DE0     		b	.L89
 2322              	.L88:
1459:Drivers/STM32L4xx_HAL_Driver/Src/stm32l4xx_hal_lptim.c ****   }
1460:Drivers/STM32L4xx_HAL_Driver/Src/stm32l4xx_hal_lptim.c **** 
1461:Drivers/STM32L4xx_HAL_Driver/Src/stm32l4xx_hal_lptim.c ****   /* Clear flag */
1462:Drivers/STM32L4xx_HAL_Driver/Src/stm32l4xx_hal_lptim.c ****   __HAL_LPTIM_CLEAR_FLAG(hlptim, LPTIM_FLAG_CMPOK);
 2323              		.loc 1 1462 3
 2324 0056 FB68     		ldr	r3, [r7, #12]
 2325 0058 1B68     		ldr	r3, [r3]
 2326 005a 0822     		movs	r2, #8
 2327 005c 5A60     		str	r2, [r3, #4]
1463:Drivers/STM32L4xx_HAL_Driver/Src/stm32l4xx_hal_lptim.c **** 
1464:Drivers/STM32L4xx_HAL_Driver/Src/stm32l4xx_hal_lptim.c ****   /* Load the Timeout value in the compare register */
1465:Drivers/STM32L4xx_HAL_Driver/Src/stm32l4xx_hal_lptim.c ****   __HAL_LPTIM_COMPARE_SET(hlptim, Timeout);
ARM GAS  /tmp/ccB7T7H1.s 			page 67


 2328              		.loc 1 1465 3
 2329 005e FB68     		ldr	r3, [r7, #12]
 2330 0060 1B68     		ldr	r3, [r3]
 2331 0062 7A68     		ldr	r2, [r7, #4]
 2332 0064 5A61     		str	r2, [r3, #20]
1466:Drivers/STM32L4xx_HAL_Driver/Src/stm32l4xx_hal_lptim.c **** 
1467:Drivers/STM32L4xx_HAL_Driver/Src/stm32l4xx_hal_lptim.c ****   /* Wait for the completion of the write operation to the LPTIM_CMP register */
1468:Drivers/STM32L4xx_HAL_Driver/Src/stm32l4xx_hal_lptim.c ****   if (LPTIM_WaitForFlag(hlptim, LPTIM_FLAG_CMPOK) == HAL_TIMEOUT)
 2333              		.loc 1 1468 7
 2334 0066 0821     		movs	r1, #8
 2335 0068 F868     		ldr	r0, [r7, #12]
 2336 006a FFF7FEFF 		bl	LPTIM_WaitForFlag
 2337 006e 0346     		mov	r3, r0
 2338              		.loc 1 1468 6 discriminator 1
 2339 0070 032B     		cmp	r3, #3
 2340 0072 01D1     		bne	.L90
1469:Drivers/STM32L4xx_HAL_Driver/Src/stm32l4xx_hal_lptim.c ****   {
1470:Drivers/STM32L4xx_HAL_Driver/Src/stm32l4xx_hal_lptim.c ****     return HAL_TIMEOUT;
 2341              		.loc 1 1470 12
 2342 0074 0323     		movs	r3, #3
 2343 0076 0CE0     		b	.L89
 2344              	.L90:
1471:Drivers/STM32L4xx_HAL_Driver/Src/stm32l4xx_hal_lptim.c ****   }
1472:Drivers/STM32L4xx_HAL_Driver/Src/stm32l4xx_hal_lptim.c **** 
1473:Drivers/STM32L4xx_HAL_Driver/Src/stm32l4xx_hal_lptim.c ****   /* Start timer in continuous mode */
1474:Drivers/STM32L4xx_HAL_Driver/Src/stm32l4xx_hal_lptim.c ****   __HAL_LPTIM_START_CONTINUOUS(hlptim);
 2345              		.loc 1 1474 3
 2346 0078 FB68     		ldr	r3, [r7, #12]
 2347 007a 1B68     		ldr	r3, [r3]
 2348 007c 1A69     		ldr	r2, [r3, #16]
 2349 007e FB68     		ldr	r3, [r7, #12]
 2350 0080 1B68     		ldr	r3, [r3]
 2351 0082 42F00402 		orr	r2, r2, #4
 2352 0086 1A61     		str	r2, [r3, #16]
1475:Drivers/STM32L4xx_HAL_Driver/Src/stm32l4xx_hal_lptim.c **** 
1476:Drivers/STM32L4xx_HAL_Driver/Src/stm32l4xx_hal_lptim.c ****   /* Change the LPTIM state */
1477:Drivers/STM32L4xx_HAL_Driver/Src/stm32l4xx_hal_lptim.c ****   hlptim->State = HAL_LPTIM_STATE_READY;
 2353              		.loc 1 1477 17
 2354 0088 FB68     		ldr	r3, [r7, #12]
 2355 008a 0122     		movs	r2, #1
 2356 008c 83F83620 		strb	r2, [r3, #54]
1478:Drivers/STM32L4xx_HAL_Driver/Src/stm32l4xx_hal_lptim.c **** 
1479:Drivers/STM32L4xx_HAL_Driver/Src/stm32l4xx_hal_lptim.c ****   /* Return function status */
1480:Drivers/STM32L4xx_HAL_Driver/Src/stm32l4xx_hal_lptim.c ****   return HAL_OK;
 2357              		.loc 1 1480 10
 2358 0090 0023     		movs	r3, #0
 2359              	.L89:
1481:Drivers/STM32L4xx_HAL_Driver/Src/stm32l4xx_hal_lptim.c **** }
 2360              		.loc 1 1481 1
 2361 0092 1846     		mov	r0, r3
 2362 0094 1037     		adds	r7, r7, #16
 2363              		.cfi_def_cfa_offset 8
 2364 0096 BD46     		mov	sp, r7
 2365              		.cfi_def_cfa_register 13
 2366              		@ sp needed
 2367 0098 80BD     		pop	{r7, pc}
 2368              		.cfi_endproc
ARM GAS  /tmp/ccB7T7H1.s 			page 68


 2369              	.LFE465:
 2371              		.section	.text.HAL_LPTIM_TimeOut_Stop,"ax",%progbits
 2372              		.align	1
 2373              		.global	HAL_LPTIM_TimeOut_Stop
 2374              		.syntax unified
 2375              		.thumb
 2376              		.thumb_func
 2378              	HAL_LPTIM_TimeOut_Stop:
 2379              	.LFB466:
1482:Drivers/STM32L4xx_HAL_Driver/Src/stm32l4xx_hal_lptim.c **** 
1483:Drivers/STM32L4xx_HAL_Driver/Src/stm32l4xx_hal_lptim.c **** /**
1484:Drivers/STM32L4xx_HAL_Driver/Src/stm32l4xx_hal_lptim.c ****   * @brief  Stop the Timeout function.
1485:Drivers/STM32L4xx_HAL_Driver/Src/stm32l4xx_hal_lptim.c ****   * @param  hlptim LPTIM handle
1486:Drivers/STM32L4xx_HAL_Driver/Src/stm32l4xx_hal_lptim.c ****   * @retval HAL status
1487:Drivers/STM32L4xx_HAL_Driver/Src/stm32l4xx_hal_lptim.c ****   */
1488:Drivers/STM32L4xx_HAL_Driver/Src/stm32l4xx_hal_lptim.c **** HAL_StatusTypeDef HAL_LPTIM_TimeOut_Stop(LPTIM_HandleTypeDef *hlptim)
1489:Drivers/STM32L4xx_HAL_Driver/Src/stm32l4xx_hal_lptim.c **** {
 2380              		.loc 1 1489 1
 2381              		.cfi_startproc
 2382              		@ args = 0, pretend = 0, frame = 8
 2383              		@ frame_needed = 1, uses_anonymous_args = 0
 2384 0000 80B5     		push	{r7, lr}
 2385              		.cfi_def_cfa_offset 8
 2386              		.cfi_offset 7, -8
 2387              		.cfi_offset 14, -4
 2388 0002 82B0     		sub	sp, sp, #8
 2389              		.cfi_def_cfa_offset 16
 2390 0004 00AF     		add	r7, sp, #0
 2391              		.cfi_def_cfa_register 7
 2392 0006 7860     		str	r0, [r7, #4]
1490:Drivers/STM32L4xx_HAL_Driver/Src/stm32l4xx_hal_lptim.c ****   /* Check the parameters */
1491:Drivers/STM32L4xx_HAL_Driver/Src/stm32l4xx_hal_lptim.c ****   assert_param(IS_LPTIM_INSTANCE(hlptim->Instance));
1492:Drivers/STM32L4xx_HAL_Driver/Src/stm32l4xx_hal_lptim.c **** 
1493:Drivers/STM32L4xx_HAL_Driver/Src/stm32l4xx_hal_lptim.c ****   /* Set the LPTIM state */
1494:Drivers/STM32L4xx_HAL_Driver/Src/stm32l4xx_hal_lptim.c ****   hlptim->State = HAL_LPTIM_STATE_BUSY;
 2393              		.loc 1 1494 17
 2394 0008 7B68     		ldr	r3, [r7, #4]
 2395 000a 0222     		movs	r2, #2
 2396 000c 83F83620 		strb	r2, [r3, #54]
1495:Drivers/STM32L4xx_HAL_Driver/Src/stm32l4xx_hal_lptim.c **** 
1496:Drivers/STM32L4xx_HAL_Driver/Src/stm32l4xx_hal_lptim.c ****   /* Disable the Peripheral */
1497:Drivers/STM32L4xx_HAL_Driver/Src/stm32l4xx_hal_lptim.c ****   __HAL_LPTIM_DISABLE(hlptim);
 2397              		.loc 1 1497 3
 2398 0010 7868     		ldr	r0, [r7, #4]
 2399 0012 FFF7FEFF 		bl	LPTIM_Disable
1498:Drivers/STM32L4xx_HAL_Driver/Src/stm32l4xx_hal_lptim.c **** 
1499:Drivers/STM32L4xx_HAL_Driver/Src/stm32l4xx_hal_lptim.c ****   if (HAL_LPTIM_GetState(hlptim) == HAL_LPTIM_STATE_TIMEOUT)
 2400              		.loc 1 1499 7
 2401 0016 7868     		ldr	r0, [r7, #4]
 2402 0018 FFF7FEFF 		bl	HAL_LPTIM_GetState
 2403 001c 0346     		mov	r3, r0
 2404              		.loc 1 1499 6 discriminator 1
 2405 001e 032B     		cmp	r3, #3
 2406 0020 01D1     		bne	.L92
1500:Drivers/STM32L4xx_HAL_Driver/Src/stm32l4xx_hal_lptim.c ****   {
1501:Drivers/STM32L4xx_HAL_Driver/Src/stm32l4xx_hal_lptim.c ****     return HAL_TIMEOUT;
 2407              		.loc 1 1501 12
ARM GAS  /tmp/ccB7T7H1.s 			page 69


 2408 0022 0323     		movs	r3, #3
 2409 0024 0CE0     		b	.L93
 2410              	.L92:
1502:Drivers/STM32L4xx_HAL_Driver/Src/stm32l4xx_hal_lptim.c ****   }
1503:Drivers/STM32L4xx_HAL_Driver/Src/stm32l4xx_hal_lptim.c **** 
1504:Drivers/STM32L4xx_HAL_Driver/Src/stm32l4xx_hal_lptim.c ****   /* Reset TIMOUT bit to enable the timeout function */
1505:Drivers/STM32L4xx_HAL_Driver/Src/stm32l4xx_hal_lptim.c ****   hlptim->Instance->CFGR &= ~LPTIM_CFGR_TIMOUT;
 2411              		.loc 1 1505 9
 2412 0026 7B68     		ldr	r3, [r7, #4]
 2413 0028 1B68     		ldr	r3, [r3]
 2414              		.loc 1 1505 19
 2415 002a DA68     		ldr	r2, [r3, #12]
 2416              		.loc 1 1505 9
 2417 002c 7B68     		ldr	r3, [r7, #4]
 2418 002e 1B68     		ldr	r3, [r3]
 2419              		.loc 1 1505 26
 2420 0030 22F40022 		bic	r2, r2, #524288
 2421 0034 DA60     		str	r2, [r3, #12]
1506:Drivers/STM32L4xx_HAL_Driver/Src/stm32l4xx_hal_lptim.c **** 
1507:Drivers/STM32L4xx_HAL_Driver/Src/stm32l4xx_hal_lptim.c ****   /* Change the LPTIM state */
1508:Drivers/STM32L4xx_HAL_Driver/Src/stm32l4xx_hal_lptim.c ****   hlptim->State = HAL_LPTIM_STATE_READY;
 2422              		.loc 1 1508 17
 2423 0036 7B68     		ldr	r3, [r7, #4]
 2424 0038 0122     		movs	r2, #1
 2425 003a 83F83620 		strb	r2, [r3, #54]
1509:Drivers/STM32L4xx_HAL_Driver/Src/stm32l4xx_hal_lptim.c **** 
1510:Drivers/STM32L4xx_HAL_Driver/Src/stm32l4xx_hal_lptim.c ****   /* Return function status */
1511:Drivers/STM32L4xx_HAL_Driver/Src/stm32l4xx_hal_lptim.c ****   return HAL_OK;
 2426              		.loc 1 1511 10
 2427 003e 0023     		movs	r3, #0
 2428              	.L93:
1512:Drivers/STM32L4xx_HAL_Driver/Src/stm32l4xx_hal_lptim.c **** }
 2429              		.loc 1 1512 1
 2430 0040 1846     		mov	r0, r3
 2431 0042 0837     		adds	r7, r7, #8
 2432              		.cfi_def_cfa_offset 8
 2433 0044 BD46     		mov	sp, r7
 2434              		.cfi_def_cfa_register 13
 2435              		@ sp needed
 2436 0046 80BD     		pop	{r7, pc}
 2437              		.cfi_endproc
 2438              	.LFE466:
 2440              		.section	.text.HAL_LPTIM_TimeOut_Start_IT,"ax",%progbits
 2441              		.align	1
 2442              		.global	HAL_LPTIM_TimeOut_Start_IT
 2443              		.syntax unified
 2444              		.thumb
 2445              		.thumb_func
 2447              	HAL_LPTIM_TimeOut_Start_IT:
 2448              	.LFB467:
1513:Drivers/STM32L4xx_HAL_Driver/Src/stm32l4xx_hal_lptim.c **** 
1514:Drivers/STM32L4xx_HAL_Driver/Src/stm32l4xx_hal_lptim.c **** /**
1515:Drivers/STM32L4xx_HAL_Driver/Src/stm32l4xx_hal_lptim.c ****   * @brief  Start the Timeout function in interrupt mode.
1516:Drivers/STM32L4xx_HAL_Driver/Src/stm32l4xx_hal_lptim.c ****   * @note   The first trigger event will start the timer, any successive
1517:Drivers/STM32L4xx_HAL_Driver/Src/stm32l4xx_hal_lptim.c ****   *         trigger event will reset the counter and the timer restarts.
1518:Drivers/STM32L4xx_HAL_Driver/Src/stm32l4xx_hal_lptim.c ****   * @param  hlptim LPTIM handle
1519:Drivers/STM32L4xx_HAL_Driver/Src/stm32l4xx_hal_lptim.c ****   * @param  Period Specifies the Autoreload value.
ARM GAS  /tmp/ccB7T7H1.s 			page 70


1520:Drivers/STM32L4xx_HAL_Driver/Src/stm32l4xx_hal_lptim.c ****   *         This parameter must be a value between 0x0001 and 0xFFFF.
1521:Drivers/STM32L4xx_HAL_Driver/Src/stm32l4xx_hal_lptim.c ****   * @param  Timeout Specifies the TimeOut value to reset the counter.
1522:Drivers/STM32L4xx_HAL_Driver/Src/stm32l4xx_hal_lptim.c ****   *         This parameter must be a value between 0x0000 and 0xFFFF.
1523:Drivers/STM32L4xx_HAL_Driver/Src/stm32l4xx_hal_lptim.c ****   * @retval HAL status
1524:Drivers/STM32L4xx_HAL_Driver/Src/stm32l4xx_hal_lptim.c ****   */
1525:Drivers/STM32L4xx_HAL_Driver/Src/stm32l4xx_hal_lptim.c **** HAL_StatusTypeDef HAL_LPTIM_TimeOut_Start_IT(LPTIM_HandleTypeDef *hlptim, uint32_t Period, uint32_t
1526:Drivers/STM32L4xx_HAL_Driver/Src/stm32l4xx_hal_lptim.c **** {
 2449              		.loc 1 1526 1
 2450              		.cfi_startproc
 2451              		@ args = 0, pretend = 0, frame = 16
 2452              		@ frame_needed = 1, uses_anonymous_args = 0
 2453 0000 80B5     		push	{r7, lr}
 2454              		.cfi_def_cfa_offset 8
 2455              		.cfi_offset 7, -8
 2456              		.cfi_offset 14, -4
 2457 0002 84B0     		sub	sp, sp, #16
 2458              		.cfi_def_cfa_offset 24
 2459 0004 00AF     		add	r7, sp, #0
 2460              		.cfi_def_cfa_register 7
 2461 0006 F860     		str	r0, [r7, #12]
 2462 0008 B960     		str	r1, [r7, #8]
 2463 000a 7A60     		str	r2, [r7, #4]
1527:Drivers/STM32L4xx_HAL_Driver/Src/stm32l4xx_hal_lptim.c ****   /* Check the parameters */
1528:Drivers/STM32L4xx_HAL_Driver/Src/stm32l4xx_hal_lptim.c ****   assert_param(IS_LPTIM_INSTANCE(hlptim->Instance));
1529:Drivers/STM32L4xx_HAL_Driver/Src/stm32l4xx_hal_lptim.c ****   assert_param(IS_LPTIM_PERIOD(Period));
1530:Drivers/STM32L4xx_HAL_Driver/Src/stm32l4xx_hal_lptim.c ****   assert_param(IS_LPTIM_PULSE(Timeout));
1531:Drivers/STM32L4xx_HAL_Driver/Src/stm32l4xx_hal_lptim.c **** 
1532:Drivers/STM32L4xx_HAL_Driver/Src/stm32l4xx_hal_lptim.c ****   /* Set the LPTIM state */
1533:Drivers/STM32L4xx_HAL_Driver/Src/stm32l4xx_hal_lptim.c ****   hlptim->State = HAL_LPTIM_STATE_BUSY;
 2464              		.loc 1 1533 17
 2465 000c FB68     		ldr	r3, [r7, #12]
 2466 000e 0222     		movs	r2, #2
 2467 0010 83F83620 		strb	r2, [r3, #54]
1534:Drivers/STM32L4xx_HAL_Driver/Src/stm32l4xx_hal_lptim.c **** 
1535:Drivers/STM32L4xx_HAL_Driver/Src/stm32l4xx_hal_lptim.c ****   /* Enable EXTI Line interrupt on the LPTIM Wake-up Timer */
1536:Drivers/STM32L4xx_HAL_Driver/Src/stm32l4xx_hal_lptim.c ****   __HAL_LPTIM_WAKEUPTIMER_EXTI_ENABLE_IT(hlptim->Instance);
 2468              		.loc 1 1536 3
 2469 0014 FB68     		ldr	r3, [r7, #12]
 2470 0016 1B68     		ldr	r3, [r3]
 2471 0018 364A     		ldr	r2, .L101
 2472 001a 9342     		cmp	r3, r2
 2473 001c 06D1     		bne	.L95
 2474              		.loc 1 1536 3 is_stmt 0 discriminator 1
 2475 001e 364B     		ldr	r3, .L101+4
 2476 0020 1B6A     		ldr	r3, [r3, #32]
 2477 0022 354A     		ldr	r2, .L101+4
 2478 0024 43F00103 		orr	r3, r3, #1
 2479 0028 1362     		str	r3, [r2, #32]
 2480 002a 05E0     		b	.L96
 2481              	.L95:
 2482              		.loc 1 1536 3 discriminator 2
 2483 002c 324B     		ldr	r3, .L101+4
 2484 002e 1B6A     		ldr	r3, [r3, #32]
 2485 0030 314A     		ldr	r2, .L101+4
 2486 0032 43F00203 		orr	r3, r3, #2
 2487 0036 1362     		str	r3, [r2, #32]
 2488              	.L96:
ARM GAS  /tmp/ccB7T7H1.s 			page 71


1537:Drivers/STM32L4xx_HAL_Driver/Src/stm32l4xx_hal_lptim.c **** 
1538:Drivers/STM32L4xx_HAL_Driver/Src/stm32l4xx_hal_lptim.c ****   /* Set TIMOUT bit to enable the timeout function */
1539:Drivers/STM32L4xx_HAL_Driver/Src/stm32l4xx_hal_lptim.c ****   hlptim->Instance->CFGR |= LPTIM_CFGR_TIMOUT;
 2489              		.loc 1 1539 9 is_stmt 1
 2490 0038 FB68     		ldr	r3, [r7, #12]
 2491 003a 1B68     		ldr	r3, [r3]
 2492              		.loc 1 1539 19
 2493 003c DA68     		ldr	r2, [r3, #12]
 2494              		.loc 1 1539 9
 2495 003e FB68     		ldr	r3, [r7, #12]
 2496 0040 1B68     		ldr	r3, [r3]
 2497              		.loc 1 1539 26
 2498 0042 42F40022 		orr	r2, r2, #524288
 2499 0046 DA60     		str	r2, [r3, #12]
1540:Drivers/STM32L4xx_HAL_Driver/Src/stm32l4xx_hal_lptim.c **** 
1541:Drivers/STM32L4xx_HAL_Driver/Src/stm32l4xx_hal_lptim.c ****   /* Enable the Peripheral */
1542:Drivers/STM32L4xx_HAL_Driver/Src/stm32l4xx_hal_lptim.c ****   __HAL_LPTIM_ENABLE(hlptim);
 2500              		.loc 1 1542 3
 2501 0048 FB68     		ldr	r3, [r7, #12]
 2502 004a 1B68     		ldr	r3, [r3]
 2503 004c 1A69     		ldr	r2, [r3, #16]
 2504 004e FB68     		ldr	r3, [r7, #12]
 2505 0050 1B68     		ldr	r3, [r3]
 2506 0052 42F00102 		orr	r2, r2, #1
 2507 0056 1A61     		str	r2, [r3, #16]
1543:Drivers/STM32L4xx_HAL_Driver/Src/stm32l4xx_hal_lptim.c **** 
1544:Drivers/STM32L4xx_HAL_Driver/Src/stm32l4xx_hal_lptim.c ****   /* Clear flag */
1545:Drivers/STM32L4xx_HAL_Driver/Src/stm32l4xx_hal_lptim.c ****   __HAL_LPTIM_CLEAR_FLAG(hlptim, LPTIM_FLAG_ARROK);
 2508              		.loc 1 1545 3
 2509 0058 FB68     		ldr	r3, [r7, #12]
 2510 005a 1B68     		ldr	r3, [r3]
 2511 005c 1022     		movs	r2, #16
 2512 005e 5A60     		str	r2, [r3, #4]
1546:Drivers/STM32L4xx_HAL_Driver/Src/stm32l4xx_hal_lptim.c **** 
1547:Drivers/STM32L4xx_HAL_Driver/Src/stm32l4xx_hal_lptim.c ****   /* Load the period value in the autoreload register */
1548:Drivers/STM32L4xx_HAL_Driver/Src/stm32l4xx_hal_lptim.c ****   __HAL_LPTIM_AUTORELOAD_SET(hlptim, Period);
 2513              		.loc 1 1548 3
 2514 0060 FB68     		ldr	r3, [r7, #12]
 2515 0062 1B68     		ldr	r3, [r3]
 2516 0064 BA68     		ldr	r2, [r7, #8]
 2517 0066 9A61     		str	r2, [r3, #24]
1549:Drivers/STM32L4xx_HAL_Driver/Src/stm32l4xx_hal_lptim.c **** 
1550:Drivers/STM32L4xx_HAL_Driver/Src/stm32l4xx_hal_lptim.c ****   /* Wait for the completion of the write operation to the LPTIM_ARR register */
1551:Drivers/STM32L4xx_HAL_Driver/Src/stm32l4xx_hal_lptim.c ****   if (LPTIM_WaitForFlag(hlptim, LPTIM_FLAG_ARROK) == HAL_TIMEOUT)
 2518              		.loc 1 1551 7
 2519 0068 1021     		movs	r1, #16
 2520 006a F868     		ldr	r0, [r7, #12]
 2521 006c FFF7FEFF 		bl	LPTIM_WaitForFlag
 2522 0070 0346     		mov	r3, r0
 2523              		.loc 1 1551 6 discriminator 1
 2524 0072 032B     		cmp	r3, #3
 2525 0074 01D1     		bne	.L97
1552:Drivers/STM32L4xx_HAL_Driver/Src/stm32l4xx_hal_lptim.c ****   {
1553:Drivers/STM32L4xx_HAL_Driver/Src/stm32l4xx_hal_lptim.c ****     return HAL_TIMEOUT;
 2526              		.loc 1 1553 12
 2527 0076 0323     		movs	r3, #3
 2528 0078 38E0     		b	.L98
ARM GAS  /tmp/ccB7T7H1.s 			page 72


 2529              	.L97:
1554:Drivers/STM32L4xx_HAL_Driver/Src/stm32l4xx_hal_lptim.c ****   }
1555:Drivers/STM32L4xx_HAL_Driver/Src/stm32l4xx_hal_lptim.c **** 
1556:Drivers/STM32L4xx_HAL_Driver/Src/stm32l4xx_hal_lptim.c ****   /* Clear flag */
1557:Drivers/STM32L4xx_HAL_Driver/Src/stm32l4xx_hal_lptim.c ****   __HAL_LPTIM_CLEAR_FLAG(hlptim, LPTIM_FLAG_CMPOK);
 2530              		.loc 1 1557 3
 2531 007a FB68     		ldr	r3, [r7, #12]
 2532 007c 1B68     		ldr	r3, [r3]
 2533 007e 0822     		movs	r2, #8
 2534 0080 5A60     		str	r2, [r3, #4]
1558:Drivers/STM32L4xx_HAL_Driver/Src/stm32l4xx_hal_lptim.c **** 
1559:Drivers/STM32L4xx_HAL_Driver/Src/stm32l4xx_hal_lptim.c ****   /* Load the Timeout value in the compare register */
1560:Drivers/STM32L4xx_HAL_Driver/Src/stm32l4xx_hal_lptim.c ****   __HAL_LPTIM_COMPARE_SET(hlptim, Timeout);
 2535              		.loc 1 1560 3
 2536 0082 FB68     		ldr	r3, [r7, #12]
 2537 0084 1B68     		ldr	r3, [r3]
 2538 0086 7A68     		ldr	r2, [r7, #4]
 2539 0088 5A61     		str	r2, [r3, #20]
1561:Drivers/STM32L4xx_HAL_Driver/Src/stm32l4xx_hal_lptim.c **** 
1562:Drivers/STM32L4xx_HAL_Driver/Src/stm32l4xx_hal_lptim.c ****   /* Wait for the completion of the write operation to the LPTIM_CMP register */
1563:Drivers/STM32L4xx_HAL_Driver/Src/stm32l4xx_hal_lptim.c ****   if (LPTIM_WaitForFlag(hlptim, LPTIM_FLAG_CMPOK) == HAL_TIMEOUT)
 2540              		.loc 1 1563 7
 2541 008a 0821     		movs	r1, #8
 2542 008c F868     		ldr	r0, [r7, #12]
 2543 008e FFF7FEFF 		bl	LPTIM_WaitForFlag
 2544 0092 0346     		mov	r3, r0
 2545              		.loc 1 1563 6 discriminator 1
 2546 0094 032B     		cmp	r3, #3
 2547 0096 01D1     		bne	.L99
1564:Drivers/STM32L4xx_HAL_Driver/Src/stm32l4xx_hal_lptim.c ****   {
1565:Drivers/STM32L4xx_HAL_Driver/Src/stm32l4xx_hal_lptim.c ****     return HAL_TIMEOUT;
 2548              		.loc 1 1565 12
 2549 0098 0323     		movs	r3, #3
 2550 009a 27E0     		b	.L98
 2551              	.L99:
1566:Drivers/STM32L4xx_HAL_Driver/Src/stm32l4xx_hal_lptim.c ****   }
1567:Drivers/STM32L4xx_HAL_Driver/Src/stm32l4xx_hal_lptim.c **** 
1568:Drivers/STM32L4xx_HAL_Driver/Src/stm32l4xx_hal_lptim.c ****   /* Disable the Peripheral */
1569:Drivers/STM32L4xx_HAL_Driver/Src/stm32l4xx_hal_lptim.c ****   __HAL_LPTIM_DISABLE(hlptim);
 2552              		.loc 1 1569 3
 2553 009c F868     		ldr	r0, [r7, #12]
 2554 009e FFF7FEFF 		bl	LPTIM_Disable
1570:Drivers/STM32L4xx_HAL_Driver/Src/stm32l4xx_hal_lptim.c **** 
1571:Drivers/STM32L4xx_HAL_Driver/Src/stm32l4xx_hal_lptim.c ****   if (HAL_LPTIM_GetState(hlptim) == HAL_LPTIM_STATE_TIMEOUT)
 2555              		.loc 1 1571 7
 2556 00a2 F868     		ldr	r0, [r7, #12]
 2557 00a4 FFF7FEFF 		bl	HAL_LPTIM_GetState
 2558 00a8 0346     		mov	r3, r0
 2559              		.loc 1 1571 6 discriminator 1
 2560 00aa 032B     		cmp	r3, #3
 2561 00ac 01D1     		bne	.L100
1572:Drivers/STM32L4xx_HAL_Driver/Src/stm32l4xx_hal_lptim.c ****   {
1573:Drivers/STM32L4xx_HAL_Driver/Src/stm32l4xx_hal_lptim.c ****     return HAL_TIMEOUT;
 2562              		.loc 1 1573 12
 2563 00ae 0323     		movs	r3, #3
 2564 00b0 1CE0     		b	.L98
 2565              	.L100:
ARM GAS  /tmp/ccB7T7H1.s 			page 73


1574:Drivers/STM32L4xx_HAL_Driver/Src/stm32l4xx_hal_lptim.c ****   }
1575:Drivers/STM32L4xx_HAL_Driver/Src/stm32l4xx_hal_lptim.c **** 
1576:Drivers/STM32L4xx_HAL_Driver/Src/stm32l4xx_hal_lptim.c ****   /* Enable Compare match interrupt */
1577:Drivers/STM32L4xx_HAL_Driver/Src/stm32l4xx_hal_lptim.c ****   __HAL_LPTIM_ENABLE_IT(hlptim, LPTIM_IT_CMPM);
 2566              		.loc 1 1577 3
 2567 00b2 FB68     		ldr	r3, [r7, #12]
 2568 00b4 1B68     		ldr	r3, [r3]
 2569 00b6 9A68     		ldr	r2, [r3, #8]
 2570 00b8 FB68     		ldr	r3, [r7, #12]
 2571 00ba 1B68     		ldr	r3, [r3]
 2572 00bc 42F00102 		orr	r2, r2, #1
 2573 00c0 9A60     		str	r2, [r3, #8]
1578:Drivers/STM32L4xx_HAL_Driver/Src/stm32l4xx_hal_lptim.c **** 
