ARM GAS  /tmp/ccysATpZ.s 			page 1


   1              		.cpu cortex-m4
   2              		.arch armv7e-m
   3              		.fpu fpv4-sp-d16
   4              		.eabi_attribute 27, 1
   5              		.eabi_attribute 28, 1
   6              		.eabi_attribute 20, 1
   7              		.eabi_attribute 21, 1
   8              		.eabi_attribute 23, 3
   9              		.eabi_attribute 24, 1
  10              		.eabi_attribute 25, 1
  11              		.eabi_attribute 26, 1
  12              		.eabi_attribute 30, 6
  13              		.eabi_attribute 34, 1
  14              		.eabi_attribute 18, 4
  15              		.file	"stm32l4xx_hal_smbus.c"
  16              		.text
  17              	.Ltext0:
  18              		.cfi_sections	.debug_frame
  19              		.file 1 "Drivers/STM32L4xx_HAL_Driver/Src/stm32l4xx_hal_smbus.c"
  20              		.section	.rodata.CHANNEL_OFFSET_TAB,"a"
  21              		.align	2
  24              	CHANNEL_OFFSET_TAB:
  25 0000 081C3044 		.ascii	"\010\0340DXl\200"
  25      586C80
  26              		.section	.text.HAL_SMBUS_Init,"ax",%progbits
  27              		.align	1
  28              		.global	HAL_SMBUS_Init
  29              		.syntax unified
  30              		.thumb
  31              		.thumb_func
  33              	HAL_SMBUS_Init:
  34              	.LFB445:
   1:Drivers/STM32L4xx_HAL_Driver/Src/stm32l4xx_hal_smbus.c **** /**
   2:Drivers/STM32L4xx_HAL_Driver/Src/stm32l4xx_hal_smbus.c ****   ******************************************************************************
   3:Drivers/STM32L4xx_HAL_Driver/Src/stm32l4xx_hal_smbus.c ****   * @file    stm32l4xx_hal_smbus.c
   4:Drivers/STM32L4xx_HAL_Driver/Src/stm32l4xx_hal_smbus.c ****   * @author  MCD Application Team
   5:Drivers/STM32L4xx_HAL_Driver/Src/stm32l4xx_hal_smbus.c ****   * @brief   SMBUS HAL module driver.
   6:Drivers/STM32L4xx_HAL_Driver/Src/stm32l4xx_hal_smbus.c ****   *          This file provides firmware functions to manage the following
   7:Drivers/STM32L4xx_HAL_Driver/Src/stm32l4xx_hal_smbus.c ****   *          functionalities of the System Management Bus (SMBus) peripheral,
   8:Drivers/STM32L4xx_HAL_Driver/Src/stm32l4xx_hal_smbus.c ****   *          based on I2C principles of operation :
   9:Drivers/STM32L4xx_HAL_Driver/Src/stm32l4xx_hal_smbus.c ****   *           + Initialization and de-initialization functions
  10:Drivers/STM32L4xx_HAL_Driver/Src/stm32l4xx_hal_smbus.c ****   *           + IO operation functions
  11:Drivers/STM32L4xx_HAL_Driver/Src/stm32l4xx_hal_smbus.c ****   *           + Peripheral State and Errors functions
  12:Drivers/STM32L4xx_HAL_Driver/Src/stm32l4xx_hal_smbus.c ****   *
  13:Drivers/STM32L4xx_HAL_Driver/Src/stm32l4xx_hal_smbus.c ****   ******************************************************************************
  14:Drivers/STM32L4xx_HAL_Driver/Src/stm32l4xx_hal_smbus.c ****   * @attention
  15:Drivers/STM32L4xx_HAL_Driver/Src/stm32l4xx_hal_smbus.c ****   *
  16:Drivers/STM32L4xx_HAL_Driver/Src/stm32l4xx_hal_smbus.c ****   * Copyright (c) 2017 STMicroelectronics.
  17:Drivers/STM32L4xx_HAL_Driver/Src/stm32l4xx_hal_smbus.c ****   * All rights reserved.
  18:Drivers/STM32L4xx_HAL_Driver/Src/stm32l4xx_hal_smbus.c ****   *
  19:Drivers/STM32L4xx_HAL_Driver/Src/stm32l4xx_hal_smbus.c ****   * This software is licensed under terms that can be found in the LICENSE file
  20:Drivers/STM32L4xx_HAL_Driver/Src/stm32l4xx_hal_smbus.c ****   * in the root directory of this software component.
  21:Drivers/STM32L4xx_HAL_Driver/Src/stm32l4xx_hal_smbus.c ****   * If no LICENSE file comes with this software, it is provided AS-IS.
  22:Drivers/STM32L4xx_HAL_Driver/Src/stm32l4xx_hal_smbus.c ****   *
  23:Drivers/STM32L4xx_HAL_Driver/Src/stm32l4xx_hal_smbus.c ****   ******************************************************************************
  24:Drivers/STM32L4xx_HAL_Driver/Src/stm32l4xx_hal_smbus.c ****   @verbatim
  25:Drivers/STM32L4xx_HAL_Driver/Src/stm32l4xx_hal_smbus.c ****   ==============================================================================
ARM GAS  /tmp/ccysATpZ.s 			page 2


  26:Drivers/STM32L4xx_HAL_Driver/Src/stm32l4xx_hal_smbus.c ****                         ##### How to use this driver #####
  27:Drivers/STM32L4xx_HAL_Driver/Src/stm32l4xx_hal_smbus.c ****   ==============================================================================
  28:Drivers/STM32L4xx_HAL_Driver/Src/stm32l4xx_hal_smbus.c ****     [..]
  29:Drivers/STM32L4xx_HAL_Driver/Src/stm32l4xx_hal_smbus.c ****     The SMBUS HAL driver can be used as follows:
  30:Drivers/STM32L4xx_HAL_Driver/Src/stm32l4xx_hal_smbus.c **** 
  31:Drivers/STM32L4xx_HAL_Driver/Src/stm32l4xx_hal_smbus.c ****     (#) Declare a SMBUS_HandleTypeDef handle structure, for example:
  32:Drivers/STM32L4xx_HAL_Driver/Src/stm32l4xx_hal_smbus.c ****         SMBUS_HandleTypeDef  hsmbus;
  33:Drivers/STM32L4xx_HAL_Driver/Src/stm32l4xx_hal_smbus.c **** 
  34:Drivers/STM32L4xx_HAL_Driver/Src/stm32l4xx_hal_smbus.c ****     (#)Initialize the SMBUS low level resources by implementing the HAL_SMBUS_MspInit() API:
  35:Drivers/STM32L4xx_HAL_Driver/Src/stm32l4xx_hal_smbus.c ****         (##) Enable the SMBUSx interface clock
  36:Drivers/STM32L4xx_HAL_Driver/Src/stm32l4xx_hal_smbus.c ****         (##) SMBUS pins configuration
  37:Drivers/STM32L4xx_HAL_Driver/Src/stm32l4xx_hal_smbus.c ****             (+++) Enable the clock for the SMBUS GPIOs
  38:Drivers/STM32L4xx_HAL_Driver/Src/stm32l4xx_hal_smbus.c ****             (+++) Configure SMBUS pins as alternate function open-drain
  39:Drivers/STM32L4xx_HAL_Driver/Src/stm32l4xx_hal_smbus.c ****         (##) NVIC configuration if you need to use interrupt process
  40:Drivers/STM32L4xx_HAL_Driver/Src/stm32l4xx_hal_smbus.c ****             (+++) Configure the SMBUSx interrupt priority
  41:Drivers/STM32L4xx_HAL_Driver/Src/stm32l4xx_hal_smbus.c ****             (+++) Enable the NVIC SMBUS IRQ Channel
  42:Drivers/STM32L4xx_HAL_Driver/Src/stm32l4xx_hal_smbus.c **** 
  43:Drivers/STM32L4xx_HAL_Driver/Src/stm32l4xx_hal_smbus.c ****     (#) Configure the Communication Clock Timing, Bus Timeout, Own Address1, Master Addressing mode
  44:Drivers/STM32L4xx_HAL_Driver/Src/stm32l4xx_hal_smbus.c ****         Dual Addressing mode, Own Address2, Own Address2 Mask, General call, Nostretch mode,
  45:Drivers/STM32L4xx_HAL_Driver/Src/stm32l4xx_hal_smbus.c ****         Peripheral mode and Packet Error Check mode in the hsmbus Init structure.
  46:Drivers/STM32L4xx_HAL_Driver/Src/stm32l4xx_hal_smbus.c **** 
  47:Drivers/STM32L4xx_HAL_Driver/Src/stm32l4xx_hal_smbus.c ****     (#) Initialize the SMBUS registers by calling the HAL_SMBUS_Init() API:
  48:Drivers/STM32L4xx_HAL_Driver/Src/stm32l4xx_hal_smbus.c ****         (++) These API's configures also the low level Hardware GPIO, CLOCK, CORTEX...etc)
  49:Drivers/STM32L4xx_HAL_Driver/Src/stm32l4xx_hal_smbus.c ****              by calling the customized HAL_SMBUS_MspInit(&hsmbus) API.
  50:Drivers/STM32L4xx_HAL_Driver/Src/stm32l4xx_hal_smbus.c **** 
  51:Drivers/STM32L4xx_HAL_Driver/Src/stm32l4xx_hal_smbus.c ****     (#) To check if target device is ready for communication, use the function HAL_SMBUS_IsDeviceRe
  52:Drivers/STM32L4xx_HAL_Driver/Src/stm32l4xx_hal_smbus.c **** 
  53:Drivers/STM32L4xx_HAL_Driver/Src/stm32l4xx_hal_smbus.c ****     (#) For SMBUS IO operations, only one mode of operations is available within this driver
  54:Drivers/STM32L4xx_HAL_Driver/Src/stm32l4xx_hal_smbus.c **** 
  55:Drivers/STM32L4xx_HAL_Driver/Src/stm32l4xx_hal_smbus.c ****     *** Interrupt mode IO operation ***
  56:Drivers/STM32L4xx_HAL_Driver/Src/stm32l4xx_hal_smbus.c ****     ===================================
  57:Drivers/STM32L4xx_HAL_Driver/Src/stm32l4xx_hal_smbus.c ****     [..]
  58:Drivers/STM32L4xx_HAL_Driver/Src/stm32l4xx_hal_smbus.c ****       (+) Transmit in master/host SMBUS mode an amount of data in non-blocking mode
  59:Drivers/STM32L4xx_HAL_Driver/Src/stm32l4xx_hal_smbus.c ****           using HAL_SMBUS_Master_Transmit_IT()
  60:Drivers/STM32L4xx_HAL_Driver/Src/stm32l4xx_hal_smbus.c ****       (++) At transmission end of transfer HAL_SMBUS_MasterTxCpltCallback() is executed and users c
  61:Drivers/STM32L4xx_HAL_Driver/Src/stm32l4xx_hal_smbus.c ****            add their own code by customization of function pointer HAL_SMBUS_MasterTxCpltCallback()
  62:Drivers/STM32L4xx_HAL_Driver/Src/stm32l4xx_hal_smbus.c ****       (+) Receive in master/host SMBUS mode an amount of data in non-blocking mode
  63:Drivers/STM32L4xx_HAL_Driver/Src/stm32l4xx_hal_smbus.c ****           using HAL_SMBUS_Master_Receive_IT()
  64:Drivers/STM32L4xx_HAL_Driver/Src/stm32l4xx_hal_smbus.c ****       (++) At reception end of transfer HAL_SMBUS_MasterRxCpltCallback() is executed and users can
  65:Drivers/STM32L4xx_HAL_Driver/Src/stm32l4xx_hal_smbus.c ****            add their own code by customization of function pointer HAL_SMBUS_MasterRxCpltCallback()
  66:Drivers/STM32L4xx_HAL_Driver/Src/stm32l4xx_hal_smbus.c ****       (+) Abort a master/host SMBUS process communication with Interrupt using HAL_SMBUS_Master_Abo
  67:Drivers/STM32L4xx_HAL_Driver/Src/stm32l4xx_hal_smbus.c ****       (++) The associated previous transfer callback is called at the end of abort process
  68:Drivers/STM32L4xx_HAL_Driver/Src/stm32l4xx_hal_smbus.c ****       (++) mean HAL_SMBUS_MasterTxCpltCallback() in case of previous state was master transmit
  69:Drivers/STM32L4xx_HAL_Driver/Src/stm32l4xx_hal_smbus.c ****       (++) mean HAL_SMBUS_MasterRxCpltCallback() in case of previous state was master receive
  70:Drivers/STM32L4xx_HAL_Driver/Src/stm32l4xx_hal_smbus.c ****       (+) Enable/disable the Address listen mode in slave/device or host/slave SMBUS mode
  71:Drivers/STM32L4xx_HAL_Driver/Src/stm32l4xx_hal_smbus.c ****            using HAL_SMBUS_EnableListen_IT() HAL_SMBUS_DisableListen_IT()
  72:Drivers/STM32L4xx_HAL_Driver/Src/stm32l4xx_hal_smbus.c ****       (++) When address slave/device SMBUS match, HAL_SMBUS_AddrCallback() is executed and users ca
  73:Drivers/STM32L4xx_HAL_Driver/Src/stm32l4xx_hal_smbus.c ****            add their own code to check the Address Match Code and the transmission direction
  74:Drivers/STM32L4xx_HAL_Driver/Src/stm32l4xx_hal_smbus.c ****            request by master/host (Write/Read).
  75:Drivers/STM32L4xx_HAL_Driver/Src/stm32l4xx_hal_smbus.c ****       (++) At Listen mode end HAL_SMBUS_ListenCpltCallback() is executed and users can
  76:Drivers/STM32L4xx_HAL_Driver/Src/stm32l4xx_hal_smbus.c ****            add their own code by customization of function pointer HAL_SMBUS_ListenCpltCallback()
  77:Drivers/STM32L4xx_HAL_Driver/Src/stm32l4xx_hal_smbus.c ****       (+) Transmit in slave/device SMBUS mode an amount of data in non-blocking mode
  78:Drivers/STM32L4xx_HAL_Driver/Src/stm32l4xx_hal_smbus.c ****           using HAL_SMBUS_Slave_Transmit_IT()
  79:Drivers/STM32L4xx_HAL_Driver/Src/stm32l4xx_hal_smbus.c ****       (++) At transmission end of transfer HAL_SMBUS_SlaveTxCpltCallback() is executed and users ca
  80:Drivers/STM32L4xx_HAL_Driver/Src/stm32l4xx_hal_smbus.c ****            add their own code by customization of function pointer HAL_SMBUS_SlaveTxCpltCallback()
  81:Drivers/STM32L4xx_HAL_Driver/Src/stm32l4xx_hal_smbus.c ****       (+) Receive in slave/device SMBUS mode an amount of data in non-blocking mode
  82:Drivers/STM32L4xx_HAL_Driver/Src/stm32l4xx_hal_smbus.c ****           using HAL_SMBUS_Slave_Receive_IT()
ARM GAS  /tmp/ccysATpZ.s 			page 3


  83:Drivers/STM32L4xx_HAL_Driver/Src/stm32l4xx_hal_smbus.c ****       (++) At reception end of transfer HAL_SMBUS_SlaveRxCpltCallback() is executed and users can
  84:Drivers/STM32L4xx_HAL_Driver/Src/stm32l4xx_hal_smbus.c ****            add their own code by customization of function pointer HAL_SMBUS_SlaveRxCpltCallback()
  85:Drivers/STM32L4xx_HAL_Driver/Src/stm32l4xx_hal_smbus.c ****       (+) Enable/Disable the SMBUS alert mode using
  86:Drivers/STM32L4xx_HAL_Driver/Src/stm32l4xx_hal_smbus.c ****           HAL_SMBUS_EnableAlert_IT() or HAL_SMBUS_DisableAlert_IT()
  87:Drivers/STM32L4xx_HAL_Driver/Src/stm32l4xx_hal_smbus.c ****       (++) When SMBUS Alert is generated HAL_SMBUS_ErrorCallback() is executed and users can
  88:Drivers/STM32L4xx_HAL_Driver/Src/stm32l4xx_hal_smbus.c ****            add their own code by customization of function pointer HAL_SMBUS_ErrorCallback()
  89:Drivers/STM32L4xx_HAL_Driver/Src/stm32l4xx_hal_smbus.c ****            to check the Alert Error Code using function HAL_SMBUS_GetError()
  90:Drivers/STM32L4xx_HAL_Driver/Src/stm32l4xx_hal_smbus.c ****       (+) Get HAL state machine or error values using HAL_SMBUS_GetState() or HAL_SMBUS_GetError()
  91:Drivers/STM32L4xx_HAL_Driver/Src/stm32l4xx_hal_smbus.c ****       (+) In case of transfer Error, HAL_SMBUS_ErrorCallback() function is executed and users can
  92:Drivers/STM32L4xx_HAL_Driver/Src/stm32l4xx_hal_smbus.c ****            add their own code by customization of function pointer HAL_SMBUS_ErrorCallback()
  93:Drivers/STM32L4xx_HAL_Driver/Src/stm32l4xx_hal_smbus.c ****            to check the Error Code using function HAL_SMBUS_GetError()
  94:Drivers/STM32L4xx_HAL_Driver/Src/stm32l4xx_hal_smbus.c **** 
  95:Drivers/STM32L4xx_HAL_Driver/Src/stm32l4xx_hal_smbus.c ****      *** SMBUS HAL driver macros list ***
  96:Drivers/STM32L4xx_HAL_Driver/Src/stm32l4xx_hal_smbus.c ****      ==================================
  97:Drivers/STM32L4xx_HAL_Driver/Src/stm32l4xx_hal_smbus.c ****      [..]
  98:Drivers/STM32L4xx_HAL_Driver/Src/stm32l4xx_hal_smbus.c ****        Below the list of most used macros in SMBUS HAL driver.
  99:Drivers/STM32L4xx_HAL_Driver/Src/stm32l4xx_hal_smbus.c **** 
 100:Drivers/STM32L4xx_HAL_Driver/Src/stm32l4xx_hal_smbus.c ****       (+) __HAL_SMBUS_ENABLE:      Enable the SMBUS peripheral
 101:Drivers/STM32L4xx_HAL_Driver/Src/stm32l4xx_hal_smbus.c ****       (+) __HAL_SMBUS_DISABLE:     Disable the SMBUS peripheral
 102:Drivers/STM32L4xx_HAL_Driver/Src/stm32l4xx_hal_smbus.c ****       (+) __HAL_SMBUS_GET_FLAG:    Check whether the specified SMBUS flag is set or not
 103:Drivers/STM32L4xx_HAL_Driver/Src/stm32l4xx_hal_smbus.c ****       (+) __HAL_SMBUS_CLEAR_FLAG:  Clear the specified SMBUS pending flag
 104:Drivers/STM32L4xx_HAL_Driver/Src/stm32l4xx_hal_smbus.c ****       (+) __HAL_SMBUS_ENABLE_IT:   Enable the specified SMBUS interrupt
 105:Drivers/STM32L4xx_HAL_Driver/Src/stm32l4xx_hal_smbus.c ****       (+) __HAL_SMBUS_DISABLE_IT:  Disable the specified SMBUS interrupt
 106:Drivers/STM32L4xx_HAL_Driver/Src/stm32l4xx_hal_smbus.c **** 
 107:Drivers/STM32L4xx_HAL_Driver/Src/stm32l4xx_hal_smbus.c ****      *** Callback registration ***
 108:Drivers/STM32L4xx_HAL_Driver/Src/stm32l4xx_hal_smbus.c ****      =============================================
 109:Drivers/STM32L4xx_HAL_Driver/Src/stm32l4xx_hal_smbus.c ****     [..]
 110:Drivers/STM32L4xx_HAL_Driver/Src/stm32l4xx_hal_smbus.c ****      The compilation flag USE_HAL_SMBUS_REGISTER_CALLBACKS when set to 1
 111:Drivers/STM32L4xx_HAL_Driver/Src/stm32l4xx_hal_smbus.c ****      allows the user to configure dynamically the driver callbacks.
 112:Drivers/STM32L4xx_HAL_Driver/Src/stm32l4xx_hal_smbus.c ****      Use Functions HAL_SMBUS_RegisterCallback() or HAL_SMBUS_RegisterAddrCallback()
 113:Drivers/STM32L4xx_HAL_Driver/Src/stm32l4xx_hal_smbus.c ****      to register an interrupt callback.
 114:Drivers/STM32L4xx_HAL_Driver/Src/stm32l4xx_hal_smbus.c ****     [..]
 115:Drivers/STM32L4xx_HAL_Driver/Src/stm32l4xx_hal_smbus.c ****      Function HAL_SMBUS_RegisterCallback() allows to register following callbacks:
 116:Drivers/STM32L4xx_HAL_Driver/Src/stm32l4xx_hal_smbus.c ****        (+) MasterTxCpltCallback : callback for Master transmission end of transfer.
 117:Drivers/STM32L4xx_HAL_Driver/Src/stm32l4xx_hal_smbus.c ****        (+) MasterRxCpltCallback : callback for Master reception end of transfer.
 118:Drivers/STM32L4xx_HAL_Driver/Src/stm32l4xx_hal_smbus.c ****        (+) SlaveTxCpltCallback  : callback for Slave transmission end of transfer.
 119:Drivers/STM32L4xx_HAL_Driver/Src/stm32l4xx_hal_smbus.c ****        (+) SlaveRxCpltCallback  : callback for Slave reception end of transfer.
 120:Drivers/STM32L4xx_HAL_Driver/Src/stm32l4xx_hal_smbus.c ****        (+) ListenCpltCallback   : callback for end of listen mode.
 121:Drivers/STM32L4xx_HAL_Driver/Src/stm32l4xx_hal_smbus.c ****        (+) ErrorCallback        : callback for error detection.
 122:Drivers/STM32L4xx_HAL_Driver/Src/stm32l4xx_hal_smbus.c ****        (+) MspInitCallback      : callback for Msp Init.
 123:Drivers/STM32L4xx_HAL_Driver/Src/stm32l4xx_hal_smbus.c ****        (+) MspDeInitCallback    : callback for Msp DeInit.
 124:Drivers/STM32L4xx_HAL_Driver/Src/stm32l4xx_hal_smbus.c ****      This function takes as parameters the HAL peripheral handle, the Callback ID
 125:Drivers/STM32L4xx_HAL_Driver/Src/stm32l4xx_hal_smbus.c ****      and a pointer to the user callback function.
 126:Drivers/STM32L4xx_HAL_Driver/Src/stm32l4xx_hal_smbus.c ****     [..]
 127:Drivers/STM32L4xx_HAL_Driver/Src/stm32l4xx_hal_smbus.c ****      For specific callback AddrCallback use dedicated register callbacks : HAL_SMBUS_RegisterAddrCa
 128:Drivers/STM32L4xx_HAL_Driver/Src/stm32l4xx_hal_smbus.c ****     [..]
 129:Drivers/STM32L4xx_HAL_Driver/Src/stm32l4xx_hal_smbus.c ****      Use function HAL_SMBUS_UnRegisterCallback to reset a callback to the default
 130:Drivers/STM32L4xx_HAL_Driver/Src/stm32l4xx_hal_smbus.c ****      weak function.
 131:Drivers/STM32L4xx_HAL_Driver/Src/stm32l4xx_hal_smbus.c ****      HAL_SMBUS_UnRegisterCallback takes as parameters the HAL peripheral handle,
 132:Drivers/STM32L4xx_HAL_Driver/Src/stm32l4xx_hal_smbus.c ****      and the Callback ID.
 133:Drivers/STM32L4xx_HAL_Driver/Src/stm32l4xx_hal_smbus.c ****      This function allows to reset following callbacks:
 134:Drivers/STM32L4xx_HAL_Driver/Src/stm32l4xx_hal_smbus.c ****        (+) MasterTxCpltCallback : callback for Master transmission end of transfer.
 135:Drivers/STM32L4xx_HAL_Driver/Src/stm32l4xx_hal_smbus.c ****        (+) MasterRxCpltCallback : callback for Master reception end of transfer.
 136:Drivers/STM32L4xx_HAL_Driver/Src/stm32l4xx_hal_smbus.c ****        (+) SlaveTxCpltCallback  : callback for Slave transmission end of transfer.
 137:Drivers/STM32L4xx_HAL_Driver/Src/stm32l4xx_hal_smbus.c ****        (+) SlaveRxCpltCallback  : callback for Slave reception end of transfer.
 138:Drivers/STM32L4xx_HAL_Driver/Src/stm32l4xx_hal_smbus.c ****        (+) ListenCpltCallback   : callback for end of listen mode.
 139:Drivers/STM32L4xx_HAL_Driver/Src/stm32l4xx_hal_smbus.c ****        (+) ErrorCallback        : callback for error detection.
ARM GAS  /tmp/ccysATpZ.s 			page 4


 140:Drivers/STM32L4xx_HAL_Driver/Src/stm32l4xx_hal_smbus.c ****        (+) MspInitCallback      : callback for Msp Init.
 141:Drivers/STM32L4xx_HAL_Driver/Src/stm32l4xx_hal_smbus.c ****        (+) MspDeInitCallback    : callback for Msp DeInit.
 142:Drivers/STM32L4xx_HAL_Driver/Src/stm32l4xx_hal_smbus.c ****     [..]
 143:Drivers/STM32L4xx_HAL_Driver/Src/stm32l4xx_hal_smbus.c ****      For callback AddrCallback use dedicated register callbacks : HAL_SMBUS_UnRegisterAddrCallback.
 144:Drivers/STM32L4xx_HAL_Driver/Src/stm32l4xx_hal_smbus.c ****     [..]
 145:Drivers/STM32L4xx_HAL_Driver/Src/stm32l4xx_hal_smbus.c ****      By default, after the HAL_SMBUS_Init() and when the state is HAL_I2C_STATE_RESET
 146:Drivers/STM32L4xx_HAL_Driver/Src/stm32l4xx_hal_smbus.c ****      all callbacks are set to the corresponding weak functions:
 147:Drivers/STM32L4xx_HAL_Driver/Src/stm32l4xx_hal_smbus.c ****      examples HAL_SMBUS_MasterTxCpltCallback(), HAL_SMBUS_MasterRxCpltCallback().
 148:Drivers/STM32L4xx_HAL_Driver/Src/stm32l4xx_hal_smbus.c ****      Exception done for MspInit and MspDeInit functions that are
 149:Drivers/STM32L4xx_HAL_Driver/Src/stm32l4xx_hal_smbus.c ****      reset to the legacy weak functions in the HAL_SMBUS_Init()/ HAL_SMBUS_DeInit() only when
 150:Drivers/STM32L4xx_HAL_Driver/Src/stm32l4xx_hal_smbus.c ****      these callbacks are null (not registered beforehand).
 151:Drivers/STM32L4xx_HAL_Driver/Src/stm32l4xx_hal_smbus.c ****      If MspInit or MspDeInit are not null, the HAL_SMBUS_Init()/ HAL_SMBUS_DeInit()
 152:Drivers/STM32L4xx_HAL_Driver/Src/stm32l4xx_hal_smbus.c ****      keep and use the user MspInit/MspDeInit callbacks (registered beforehand) whatever the state.
 153:Drivers/STM32L4xx_HAL_Driver/Src/stm32l4xx_hal_smbus.c ****     [..]
 154:Drivers/STM32L4xx_HAL_Driver/Src/stm32l4xx_hal_smbus.c ****      Callbacks can be registered/unregistered in HAL_I2C_STATE_READY state only.
 155:Drivers/STM32L4xx_HAL_Driver/Src/stm32l4xx_hal_smbus.c ****      Exception done MspInit/MspDeInit functions that can be registered/unregistered
 156:Drivers/STM32L4xx_HAL_Driver/Src/stm32l4xx_hal_smbus.c ****      in HAL_I2C_STATE_READY or HAL_I2C_STATE_RESET state,
 157:Drivers/STM32L4xx_HAL_Driver/Src/stm32l4xx_hal_smbus.c ****      thus registered (user) MspInit/DeInit callbacks can be used during the Init/DeInit.
 158:Drivers/STM32L4xx_HAL_Driver/Src/stm32l4xx_hal_smbus.c ****      Then, the user first registers the MspInit/MspDeInit user callbacks
 159:Drivers/STM32L4xx_HAL_Driver/Src/stm32l4xx_hal_smbus.c ****      using HAL_SMBUS_RegisterCallback() before calling HAL_SMBUS_DeInit()
 160:Drivers/STM32L4xx_HAL_Driver/Src/stm32l4xx_hal_smbus.c ****      or HAL_SMBUS_Init() function.
 161:Drivers/STM32L4xx_HAL_Driver/Src/stm32l4xx_hal_smbus.c ****     [..]
 162:Drivers/STM32L4xx_HAL_Driver/Src/stm32l4xx_hal_smbus.c ****      When the compilation flag USE_HAL_SMBUS_REGISTER_CALLBACKS is set to 0 or
 163:Drivers/STM32L4xx_HAL_Driver/Src/stm32l4xx_hal_smbus.c ****      not defined, the callback registration feature is not available and all callbacks
 164:Drivers/STM32L4xx_HAL_Driver/Src/stm32l4xx_hal_smbus.c ****      are set to the corresponding weak functions.
 165:Drivers/STM32L4xx_HAL_Driver/Src/stm32l4xx_hal_smbus.c **** 
 166:Drivers/STM32L4xx_HAL_Driver/Src/stm32l4xx_hal_smbus.c ****      [..]
 167:Drivers/STM32L4xx_HAL_Driver/Src/stm32l4xx_hal_smbus.c ****        (@) You can refer to the SMBUS HAL driver header file for more useful macros
 168:Drivers/STM32L4xx_HAL_Driver/Src/stm32l4xx_hal_smbus.c **** 
 169:Drivers/STM32L4xx_HAL_Driver/Src/stm32l4xx_hal_smbus.c ****   @endverbatim
 170:Drivers/STM32L4xx_HAL_Driver/Src/stm32l4xx_hal_smbus.c ****   */
 171:Drivers/STM32L4xx_HAL_Driver/Src/stm32l4xx_hal_smbus.c **** 
 172:Drivers/STM32L4xx_HAL_Driver/Src/stm32l4xx_hal_smbus.c **** /* Includes ------------------------------------------------------------------*/
 173:Drivers/STM32L4xx_HAL_Driver/Src/stm32l4xx_hal_smbus.c **** #include "stm32l4xx_hal.h"
 174:Drivers/STM32L4xx_HAL_Driver/Src/stm32l4xx_hal_smbus.c **** 
 175:Drivers/STM32L4xx_HAL_Driver/Src/stm32l4xx_hal_smbus.c **** /** @addtogroup STM32L4xx_HAL_Driver
 176:Drivers/STM32L4xx_HAL_Driver/Src/stm32l4xx_hal_smbus.c ****   * @{
 177:Drivers/STM32L4xx_HAL_Driver/Src/stm32l4xx_hal_smbus.c ****   */
 178:Drivers/STM32L4xx_HAL_Driver/Src/stm32l4xx_hal_smbus.c **** 
 179:Drivers/STM32L4xx_HAL_Driver/Src/stm32l4xx_hal_smbus.c **** /** @defgroup SMBUS SMBUS
 180:Drivers/STM32L4xx_HAL_Driver/Src/stm32l4xx_hal_smbus.c ****   * @brief SMBUS HAL module driver
 181:Drivers/STM32L4xx_HAL_Driver/Src/stm32l4xx_hal_smbus.c ****   * @{
 182:Drivers/STM32L4xx_HAL_Driver/Src/stm32l4xx_hal_smbus.c ****   */
 183:Drivers/STM32L4xx_HAL_Driver/Src/stm32l4xx_hal_smbus.c **** 
 184:Drivers/STM32L4xx_HAL_Driver/Src/stm32l4xx_hal_smbus.c **** #ifdef HAL_SMBUS_MODULE_ENABLED
 185:Drivers/STM32L4xx_HAL_Driver/Src/stm32l4xx_hal_smbus.c **** 
 186:Drivers/STM32L4xx_HAL_Driver/Src/stm32l4xx_hal_smbus.c **** /* Private typedef -----------------------------------------------------------*/
 187:Drivers/STM32L4xx_HAL_Driver/Src/stm32l4xx_hal_smbus.c **** /* Private constants ---------------------------------------------------------*/
 188:Drivers/STM32L4xx_HAL_Driver/Src/stm32l4xx_hal_smbus.c **** /** @defgroup SMBUS_Private_Define SMBUS Private Constants
 189:Drivers/STM32L4xx_HAL_Driver/Src/stm32l4xx_hal_smbus.c ****   * @{
 190:Drivers/STM32L4xx_HAL_Driver/Src/stm32l4xx_hal_smbus.c ****   */
 191:Drivers/STM32L4xx_HAL_Driver/Src/stm32l4xx_hal_smbus.c **** #define TIMING_CLEAR_MASK   (0xF0FFFFFFUL)     /*!< SMBUS TIMING clear register Mask */
 192:Drivers/STM32L4xx_HAL_Driver/Src/stm32l4xx_hal_smbus.c **** #define HAL_TIMEOUT_ADDR    (10000U)           /*!< 10 s  */
 193:Drivers/STM32L4xx_HAL_Driver/Src/stm32l4xx_hal_smbus.c **** #define HAL_TIMEOUT_BUSY    (25U)              /*!< 25 ms */
 194:Drivers/STM32L4xx_HAL_Driver/Src/stm32l4xx_hal_smbus.c **** #define HAL_TIMEOUT_DIR     (25U)              /*!< 25 ms */
 195:Drivers/STM32L4xx_HAL_Driver/Src/stm32l4xx_hal_smbus.c **** #define HAL_TIMEOUT_RXNE    (25U)              /*!< 25 ms */
 196:Drivers/STM32L4xx_HAL_Driver/Src/stm32l4xx_hal_smbus.c **** #define HAL_TIMEOUT_STOPF   (25U)              /*!< 25 ms */
ARM GAS  /tmp/ccysATpZ.s 			page 5


 197:Drivers/STM32L4xx_HAL_Driver/Src/stm32l4xx_hal_smbus.c **** #define HAL_TIMEOUT_TC      (25U)              /*!< 25 ms */
 198:Drivers/STM32L4xx_HAL_Driver/Src/stm32l4xx_hal_smbus.c **** #define HAL_TIMEOUT_TCR     (25U)              /*!< 25 ms */
 199:Drivers/STM32L4xx_HAL_Driver/Src/stm32l4xx_hal_smbus.c **** #define HAL_TIMEOUT_TXIS    (25U)              /*!< 25 ms */
 200:Drivers/STM32L4xx_HAL_Driver/Src/stm32l4xx_hal_smbus.c **** #define MAX_NBYTE_SIZE      255U
 201:Drivers/STM32L4xx_HAL_Driver/Src/stm32l4xx_hal_smbus.c **** /**
 202:Drivers/STM32L4xx_HAL_Driver/Src/stm32l4xx_hal_smbus.c ****   * @}
 203:Drivers/STM32L4xx_HAL_Driver/Src/stm32l4xx_hal_smbus.c ****   */
 204:Drivers/STM32L4xx_HAL_Driver/Src/stm32l4xx_hal_smbus.c **** 
 205:Drivers/STM32L4xx_HAL_Driver/Src/stm32l4xx_hal_smbus.c **** /* Private macro -------------------------------------------------------------*/
 206:Drivers/STM32L4xx_HAL_Driver/Src/stm32l4xx_hal_smbus.c **** /* Private variables ---------------------------------------------------------*/
 207:Drivers/STM32L4xx_HAL_Driver/Src/stm32l4xx_hal_smbus.c **** /* Private function prototypes -----------------------------------------------*/
 208:Drivers/STM32L4xx_HAL_Driver/Src/stm32l4xx_hal_smbus.c **** /** @addtogroup SMBUS_Private_Functions SMBUS Private Functions
 209:Drivers/STM32L4xx_HAL_Driver/Src/stm32l4xx_hal_smbus.c ****   * @{
 210:Drivers/STM32L4xx_HAL_Driver/Src/stm32l4xx_hal_smbus.c ****   */
 211:Drivers/STM32L4xx_HAL_Driver/Src/stm32l4xx_hal_smbus.c **** /* Private functions to handle flags during polling transfer */
 212:Drivers/STM32L4xx_HAL_Driver/Src/stm32l4xx_hal_smbus.c **** static HAL_StatusTypeDef SMBUS_WaitOnFlagUntilTimeout(SMBUS_HandleTypeDef *hsmbus, uint32_t Flag,
 213:Drivers/STM32L4xx_HAL_Driver/Src/stm32l4xx_hal_smbus.c ****                                                       FlagStatus Status, uint32_t Timeout);
 214:Drivers/STM32L4xx_HAL_Driver/Src/stm32l4xx_hal_smbus.c **** 
 215:Drivers/STM32L4xx_HAL_Driver/Src/stm32l4xx_hal_smbus.c **** /* Private functions for SMBUS transfer IRQ handler */
 216:Drivers/STM32L4xx_HAL_Driver/Src/stm32l4xx_hal_smbus.c **** static HAL_StatusTypeDef SMBUS_Master_ISR(SMBUS_HandleTypeDef *hsmbus, uint32_t StatusFlags);
 217:Drivers/STM32L4xx_HAL_Driver/Src/stm32l4xx_hal_smbus.c **** static HAL_StatusTypeDef SMBUS_Slave_ISR(SMBUS_HandleTypeDef *hsmbus, uint32_t StatusFlags);
 218:Drivers/STM32L4xx_HAL_Driver/Src/stm32l4xx_hal_smbus.c **** static void SMBUS_ITErrorHandler(SMBUS_HandleTypeDef *hsmbus);
 219:Drivers/STM32L4xx_HAL_Driver/Src/stm32l4xx_hal_smbus.c **** 
 220:Drivers/STM32L4xx_HAL_Driver/Src/stm32l4xx_hal_smbus.c **** /* Private functions to centralize the enable/disable of Interrupts */
 221:Drivers/STM32L4xx_HAL_Driver/Src/stm32l4xx_hal_smbus.c **** static void SMBUS_Enable_IRQ(SMBUS_HandleTypeDef *hsmbus, uint32_t InterruptRequest);
 222:Drivers/STM32L4xx_HAL_Driver/Src/stm32l4xx_hal_smbus.c **** static void SMBUS_Disable_IRQ(SMBUS_HandleTypeDef *hsmbus, uint32_t InterruptRequest);
 223:Drivers/STM32L4xx_HAL_Driver/Src/stm32l4xx_hal_smbus.c **** 
 224:Drivers/STM32L4xx_HAL_Driver/Src/stm32l4xx_hal_smbus.c **** /* Private function to flush TXDR register */
 225:Drivers/STM32L4xx_HAL_Driver/Src/stm32l4xx_hal_smbus.c **** static void SMBUS_Flush_TXDR(SMBUS_HandleTypeDef *hsmbus);
 226:Drivers/STM32L4xx_HAL_Driver/Src/stm32l4xx_hal_smbus.c **** 
 227:Drivers/STM32L4xx_HAL_Driver/Src/stm32l4xx_hal_smbus.c **** /* Private function to handle start, restart or stop a transfer */
 228:Drivers/STM32L4xx_HAL_Driver/Src/stm32l4xx_hal_smbus.c **** static void SMBUS_TransferConfig(SMBUS_HandleTypeDef *hsmbus,  uint16_t DevAddress, uint8_t Size,
 229:Drivers/STM32L4xx_HAL_Driver/Src/stm32l4xx_hal_smbus.c ****                                  uint32_t Mode, uint32_t Request);
 230:Drivers/STM32L4xx_HAL_Driver/Src/stm32l4xx_hal_smbus.c **** 
 231:Drivers/STM32L4xx_HAL_Driver/Src/stm32l4xx_hal_smbus.c **** /* Private function to Convert Specific options */
 232:Drivers/STM32L4xx_HAL_Driver/Src/stm32l4xx_hal_smbus.c **** static void SMBUS_ConvertOtherXferOptions(SMBUS_HandleTypeDef *hsmbus);
 233:Drivers/STM32L4xx_HAL_Driver/Src/stm32l4xx_hal_smbus.c **** /**
 234:Drivers/STM32L4xx_HAL_Driver/Src/stm32l4xx_hal_smbus.c ****   * @}
 235:Drivers/STM32L4xx_HAL_Driver/Src/stm32l4xx_hal_smbus.c ****   */
 236:Drivers/STM32L4xx_HAL_Driver/Src/stm32l4xx_hal_smbus.c **** 
 237:Drivers/STM32L4xx_HAL_Driver/Src/stm32l4xx_hal_smbus.c **** /* Exported functions --------------------------------------------------------*/
 238:Drivers/STM32L4xx_HAL_Driver/Src/stm32l4xx_hal_smbus.c **** 
 239:Drivers/STM32L4xx_HAL_Driver/Src/stm32l4xx_hal_smbus.c **** /** @defgroup SMBUS_Exported_Functions SMBUS Exported Functions
 240:Drivers/STM32L4xx_HAL_Driver/Src/stm32l4xx_hal_smbus.c ****   * @{
 241:Drivers/STM32L4xx_HAL_Driver/Src/stm32l4xx_hal_smbus.c ****   */
 242:Drivers/STM32L4xx_HAL_Driver/Src/stm32l4xx_hal_smbus.c **** 
 243:Drivers/STM32L4xx_HAL_Driver/Src/stm32l4xx_hal_smbus.c **** /** @defgroup SMBUS_Exported_Functions_Group1 Initialization and de-initialization functions
 244:Drivers/STM32L4xx_HAL_Driver/Src/stm32l4xx_hal_smbus.c ****   *  @brief    Initialization and Configuration functions
 245:Drivers/STM32L4xx_HAL_Driver/Src/stm32l4xx_hal_smbus.c ****   *
 246:Drivers/STM32L4xx_HAL_Driver/Src/stm32l4xx_hal_smbus.c **** @verbatim
 247:Drivers/STM32L4xx_HAL_Driver/Src/stm32l4xx_hal_smbus.c ****  ===============================================================================
 248:Drivers/STM32L4xx_HAL_Driver/Src/stm32l4xx_hal_smbus.c ****               ##### Initialization and de-initialization functions #####
 249:Drivers/STM32L4xx_HAL_Driver/Src/stm32l4xx_hal_smbus.c ****  ===============================================================================
 250:Drivers/STM32L4xx_HAL_Driver/Src/stm32l4xx_hal_smbus.c ****     [..]  This subsection provides a set of functions allowing to initialize and
 251:Drivers/STM32L4xx_HAL_Driver/Src/stm32l4xx_hal_smbus.c ****           deinitialize the SMBUSx peripheral:
 252:Drivers/STM32L4xx_HAL_Driver/Src/stm32l4xx_hal_smbus.c **** 
 253:Drivers/STM32L4xx_HAL_Driver/Src/stm32l4xx_hal_smbus.c ****       (+) User must Implement HAL_SMBUS_MspInit() function in which he configures
ARM GAS  /tmp/ccysATpZ.s 			page 6


 254:Drivers/STM32L4xx_HAL_Driver/Src/stm32l4xx_hal_smbus.c ****           all related peripherals resources (CLOCK, GPIO, IT and NVIC ).
 255:Drivers/STM32L4xx_HAL_Driver/Src/stm32l4xx_hal_smbus.c **** 
 256:Drivers/STM32L4xx_HAL_Driver/Src/stm32l4xx_hal_smbus.c ****       (+) Call the function HAL_SMBUS_Init() to configure the selected device with
 257:Drivers/STM32L4xx_HAL_Driver/Src/stm32l4xx_hal_smbus.c ****           the selected configuration:
 258:Drivers/STM32L4xx_HAL_Driver/Src/stm32l4xx_hal_smbus.c ****         (++) Clock Timing
 259:Drivers/STM32L4xx_HAL_Driver/Src/stm32l4xx_hal_smbus.c ****         (++) Bus Timeout
 260:Drivers/STM32L4xx_HAL_Driver/Src/stm32l4xx_hal_smbus.c ****         (++) Analog Filer mode
 261:Drivers/STM32L4xx_HAL_Driver/Src/stm32l4xx_hal_smbus.c ****         (++) Own Address 1
 262:Drivers/STM32L4xx_HAL_Driver/Src/stm32l4xx_hal_smbus.c ****         (++) Addressing mode (Master, Slave)
 263:Drivers/STM32L4xx_HAL_Driver/Src/stm32l4xx_hal_smbus.c ****         (++) Dual Addressing mode
 264:Drivers/STM32L4xx_HAL_Driver/Src/stm32l4xx_hal_smbus.c ****         (++) Own Address 2
 265:Drivers/STM32L4xx_HAL_Driver/Src/stm32l4xx_hal_smbus.c ****         (++) Own Address 2 Mask
 266:Drivers/STM32L4xx_HAL_Driver/Src/stm32l4xx_hal_smbus.c ****         (++) General call mode
 267:Drivers/STM32L4xx_HAL_Driver/Src/stm32l4xx_hal_smbus.c ****         (++) Nostretch mode
 268:Drivers/STM32L4xx_HAL_Driver/Src/stm32l4xx_hal_smbus.c ****         (++) Packet Error Check mode
 269:Drivers/STM32L4xx_HAL_Driver/Src/stm32l4xx_hal_smbus.c ****         (++) Peripheral mode
 270:Drivers/STM32L4xx_HAL_Driver/Src/stm32l4xx_hal_smbus.c **** 
 271:Drivers/STM32L4xx_HAL_Driver/Src/stm32l4xx_hal_smbus.c **** 
 272:Drivers/STM32L4xx_HAL_Driver/Src/stm32l4xx_hal_smbus.c ****       (+) Call the function HAL_SMBUS_DeInit() to restore the default configuration
 273:Drivers/STM32L4xx_HAL_Driver/Src/stm32l4xx_hal_smbus.c ****           of the selected SMBUSx peripheral.
 274:Drivers/STM32L4xx_HAL_Driver/Src/stm32l4xx_hal_smbus.c **** 
 275:Drivers/STM32L4xx_HAL_Driver/Src/stm32l4xx_hal_smbus.c ****       (+) Enable/Disable Analog/Digital filters with HAL_SMBUS_ConfigAnalogFilter() and
 276:Drivers/STM32L4xx_HAL_Driver/Src/stm32l4xx_hal_smbus.c ****           HAL_SMBUS_ConfigDigitalFilter().
 277:Drivers/STM32L4xx_HAL_Driver/Src/stm32l4xx_hal_smbus.c **** 
 278:Drivers/STM32L4xx_HAL_Driver/Src/stm32l4xx_hal_smbus.c **** @endverbatim
 279:Drivers/STM32L4xx_HAL_Driver/Src/stm32l4xx_hal_smbus.c ****   * @{
 280:Drivers/STM32L4xx_HAL_Driver/Src/stm32l4xx_hal_smbus.c ****   */
 281:Drivers/STM32L4xx_HAL_Driver/Src/stm32l4xx_hal_smbus.c **** 
 282:Drivers/STM32L4xx_HAL_Driver/Src/stm32l4xx_hal_smbus.c **** /**
 283:Drivers/STM32L4xx_HAL_Driver/Src/stm32l4xx_hal_smbus.c ****   * @brief  Initialize the SMBUS according to the specified parameters
 284:Drivers/STM32L4xx_HAL_Driver/Src/stm32l4xx_hal_smbus.c ****   *         in the SMBUS_InitTypeDef and initialize the associated handle.
 285:Drivers/STM32L4xx_HAL_Driver/Src/stm32l4xx_hal_smbus.c ****   * @param  hsmbus Pointer to a SMBUS_HandleTypeDef structure that contains
 286:Drivers/STM32L4xx_HAL_Driver/Src/stm32l4xx_hal_smbus.c ****   *                the configuration information for the specified SMBUS.
 287:Drivers/STM32L4xx_HAL_Driver/Src/stm32l4xx_hal_smbus.c ****   * @retval HAL status
 288:Drivers/STM32L4xx_HAL_Driver/Src/stm32l4xx_hal_smbus.c ****   */
 289:Drivers/STM32L4xx_HAL_Driver/Src/stm32l4xx_hal_smbus.c **** HAL_StatusTypeDef HAL_SMBUS_Init(SMBUS_HandleTypeDef *hsmbus)
 290:Drivers/STM32L4xx_HAL_Driver/Src/stm32l4xx_hal_smbus.c **** {
  35              		.loc 1 290 1
  36              		.cfi_startproc
  37              		@ args = 0, pretend = 0, frame = 8
  38              		@ frame_needed = 1, uses_anonymous_args = 0
  39 0000 80B5     		push	{r7, lr}
  40              		.cfi_def_cfa_offset 8
  41              		.cfi_offset 7, -8
  42              		.cfi_offset 14, -4
  43 0002 82B0     		sub	sp, sp, #8
  44              		.cfi_def_cfa_offset 16
  45 0004 00AF     		add	r7, sp, #0
  46              		.cfi_def_cfa_register 7
  47 0006 7860     		str	r0, [r7, #4]
 291:Drivers/STM32L4xx_HAL_Driver/Src/stm32l4xx_hal_smbus.c ****   /* Check the SMBUS handle allocation */
 292:Drivers/STM32L4xx_HAL_Driver/Src/stm32l4xx_hal_smbus.c ****   if (hsmbus == NULL)
  48              		.loc 1 292 6
  49 0008 7B68     		ldr	r3, [r7, #4]
  50 000a 002B     		cmp	r3, #0
  51 000c 01D1     		bne	.L2
 293:Drivers/STM32L4xx_HAL_Driver/Src/stm32l4xx_hal_smbus.c ****   {
ARM GAS  /tmp/ccysATpZ.s 			page 7


 294:Drivers/STM32L4xx_HAL_Driver/Src/stm32l4xx_hal_smbus.c ****     return HAL_ERROR;
  52              		.loc 1 294 12
  53 000e 0123     		movs	r3, #1
  54 0010 AAE0     		b	.L3
  55              	.L2:
 295:Drivers/STM32L4xx_HAL_Driver/Src/stm32l4xx_hal_smbus.c ****   }
 296:Drivers/STM32L4xx_HAL_Driver/Src/stm32l4xx_hal_smbus.c **** 
 297:Drivers/STM32L4xx_HAL_Driver/Src/stm32l4xx_hal_smbus.c ****   /* Check the parameters */
 298:Drivers/STM32L4xx_HAL_Driver/Src/stm32l4xx_hal_smbus.c ****   assert_param(IS_SMBUS_ALL_INSTANCE(hsmbus->Instance));
 299:Drivers/STM32L4xx_HAL_Driver/Src/stm32l4xx_hal_smbus.c ****   assert_param(IS_SMBUS_ANALOG_FILTER(hsmbus->Init.AnalogFilter));
 300:Drivers/STM32L4xx_HAL_Driver/Src/stm32l4xx_hal_smbus.c ****   assert_param(IS_SMBUS_OWN_ADDRESS1(hsmbus->Init.OwnAddress1));
 301:Drivers/STM32L4xx_HAL_Driver/Src/stm32l4xx_hal_smbus.c ****   assert_param(IS_SMBUS_ADDRESSING_MODE(hsmbus->Init.AddressingMode));
 302:Drivers/STM32L4xx_HAL_Driver/Src/stm32l4xx_hal_smbus.c ****   assert_param(IS_SMBUS_DUAL_ADDRESS(hsmbus->Init.DualAddressMode));
 303:Drivers/STM32L4xx_HAL_Driver/Src/stm32l4xx_hal_smbus.c ****   assert_param(IS_SMBUS_OWN_ADDRESS2(hsmbus->Init.OwnAddress2));
 304:Drivers/STM32L4xx_HAL_Driver/Src/stm32l4xx_hal_smbus.c ****   assert_param(IS_SMBUS_OWN_ADDRESS2_MASK(hsmbus->Init.OwnAddress2Masks));
 305:Drivers/STM32L4xx_HAL_Driver/Src/stm32l4xx_hal_smbus.c ****   assert_param(IS_SMBUS_GENERAL_CALL(hsmbus->Init.GeneralCallMode));
 306:Drivers/STM32L4xx_HAL_Driver/Src/stm32l4xx_hal_smbus.c ****   assert_param(IS_SMBUS_NO_STRETCH(hsmbus->Init.NoStretchMode));
 307:Drivers/STM32L4xx_HAL_Driver/Src/stm32l4xx_hal_smbus.c ****   assert_param(IS_SMBUS_PEC(hsmbus->Init.PacketErrorCheckMode));
 308:Drivers/STM32L4xx_HAL_Driver/Src/stm32l4xx_hal_smbus.c ****   assert_param(IS_SMBUS_PERIPHERAL_MODE(hsmbus->Init.PeripheralMode));
 309:Drivers/STM32L4xx_HAL_Driver/Src/stm32l4xx_hal_smbus.c **** 
 310:Drivers/STM32L4xx_HAL_Driver/Src/stm32l4xx_hal_smbus.c ****   if (hsmbus->State == HAL_SMBUS_STATE_RESET)
  56              		.loc 1 310 13
  57 0012 7B68     		ldr	r3, [r7, #4]
  58 0014 9B6C     		ldr	r3, [r3, #72]
  59              		.loc 1 310 6
  60 0016 002B     		cmp	r3, #0
  61 0018 06D1     		bne	.L4
 311:Drivers/STM32L4xx_HAL_Driver/Src/stm32l4xx_hal_smbus.c ****   {
 312:Drivers/STM32L4xx_HAL_Driver/Src/stm32l4xx_hal_smbus.c ****     /* Allocate lock resource and initialize it */
 313:Drivers/STM32L4xx_HAL_Driver/Src/stm32l4xx_hal_smbus.c ****     hsmbus->Lock = HAL_UNLOCKED;
  62              		.loc 1 313 18
  63 001a 7B68     		ldr	r3, [r7, #4]
  64 001c 0022     		movs	r2, #0
  65 001e 83F84420 		strb	r2, [r3, #68]
 314:Drivers/STM32L4xx_HAL_Driver/Src/stm32l4xx_hal_smbus.c **** 
 315:Drivers/STM32L4xx_HAL_Driver/Src/stm32l4xx_hal_smbus.c **** #if (USE_HAL_SMBUS_REGISTER_CALLBACKS == 1)
 316:Drivers/STM32L4xx_HAL_Driver/Src/stm32l4xx_hal_smbus.c ****     hsmbus->MasterTxCpltCallback = HAL_SMBUS_MasterTxCpltCallback; /* Legacy weak MasterTxCpltCallb
 317:Drivers/STM32L4xx_HAL_Driver/Src/stm32l4xx_hal_smbus.c ****     hsmbus->MasterRxCpltCallback = HAL_SMBUS_MasterRxCpltCallback; /* Legacy weak MasterRxCpltCallb
 318:Drivers/STM32L4xx_HAL_Driver/Src/stm32l4xx_hal_smbus.c ****     hsmbus->SlaveTxCpltCallback  = HAL_SMBUS_SlaveTxCpltCallback;  /* Legacy weak SlaveTxCpltCallba
 319:Drivers/STM32L4xx_HAL_Driver/Src/stm32l4xx_hal_smbus.c ****     hsmbus->SlaveRxCpltCallback  = HAL_SMBUS_SlaveRxCpltCallback;  /* Legacy weak SlaveRxCpltCallba
 320:Drivers/STM32L4xx_HAL_Driver/Src/stm32l4xx_hal_smbus.c ****     hsmbus->ListenCpltCallback   = HAL_SMBUS_ListenCpltCallback;   /* Legacy weak ListenCpltCallbac
 321:Drivers/STM32L4xx_HAL_Driver/Src/stm32l4xx_hal_smbus.c ****     hsmbus->ErrorCallback        = HAL_SMBUS_ErrorCallback;        /* Legacy weak ErrorCallback    
 322:Drivers/STM32L4xx_HAL_Driver/Src/stm32l4xx_hal_smbus.c ****     hsmbus->AddrCallback         = HAL_SMBUS_AddrCallback;         /* Legacy weak AddrCallback     
 323:Drivers/STM32L4xx_HAL_Driver/Src/stm32l4xx_hal_smbus.c **** 
 324:Drivers/STM32L4xx_HAL_Driver/Src/stm32l4xx_hal_smbus.c ****     if (hsmbus->MspInitCallback == NULL)
 325:Drivers/STM32L4xx_HAL_Driver/Src/stm32l4xx_hal_smbus.c ****     {
 326:Drivers/STM32L4xx_HAL_Driver/Src/stm32l4xx_hal_smbus.c ****       hsmbus->MspInitCallback = HAL_SMBUS_MspInit; /* Legacy weak MspInit  */
 327:Drivers/STM32L4xx_HAL_Driver/Src/stm32l4xx_hal_smbus.c ****     }
 328:Drivers/STM32L4xx_HAL_Driver/Src/stm32l4xx_hal_smbus.c **** 
 329:Drivers/STM32L4xx_HAL_Driver/Src/stm32l4xx_hal_smbus.c ****     /* Init the low level hardware : GPIO, CLOCK, CORTEX...etc */
 330:Drivers/STM32L4xx_HAL_Driver/Src/stm32l4xx_hal_smbus.c ****     hsmbus->MspInitCallback(hsmbus);
 331:Drivers/STM32L4xx_HAL_Driver/Src/stm32l4xx_hal_smbus.c **** #else
 332:Drivers/STM32L4xx_HAL_Driver/Src/stm32l4xx_hal_smbus.c ****     /* Init the low level hardware : GPIO, CLOCK, NVIC */
 333:Drivers/STM32L4xx_HAL_Driver/Src/stm32l4xx_hal_smbus.c ****     HAL_SMBUS_MspInit(hsmbus);
  66              		.loc 1 333 5
  67 0022 7868     		ldr	r0, [r7, #4]
  68 0024 FFF7FEFF 		bl	HAL_SMBUS_MspInit
ARM GAS  /tmp/ccysATpZ.s 			page 8


  69              	.L4:
 334:Drivers/STM32L4xx_HAL_Driver/Src/stm32l4xx_hal_smbus.c **** #endif /* USE_HAL_SMBUS_REGISTER_CALLBACKS */
 335:Drivers/STM32L4xx_HAL_Driver/Src/stm32l4xx_hal_smbus.c ****   }
 336:Drivers/STM32L4xx_HAL_Driver/Src/stm32l4xx_hal_smbus.c **** 
 337:Drivers/STM32L4xx_HAL_Driver/Src/stm32l4xx_hal_smbus.c ****   hsmbus->State = HAL_SMBUS_STATE_BUSY;
  70              		.loc 1 337 17
  71 0028 7B68     		ldr	r3, [r7, #4]
  72 002a 0222     		movs	r2, #2
  73 002c 9A64     		str	r2, [r3, #72]
 338:Drivers/STM32L4xx_HAL_Driver/Src/stm32l4xx_hal_smbus.c **** 
 339:Drivers/STM32L4xx_HAL_Driver/Src/stm32l4xx_hal_smbus.c ****   /* Disable the selected SMBUS peripheral */
 340:Drivers/STM32L4xx_HAL_Driver/Src/stm32l4xx_hal_smbus.c ****   __HAL_SMBUS_DISABLE(hsmbus);
  74              		.loc 1 340 3
  75 002e 7B68     		ldr	r3, [r7, #4]
  76 0030 1B68     		ldr	r3, [r3]
  77 0032 1A68     		ldr	r2, [r3]
  78 0034 7B68     		ldr	r3, [r7, #4]
  79 0036 1B68     		ldr	r3, [r3]
  80 0038 22F00102 		bic	r2, r2, #1
  81 003c 1A60     		str	r2, [r3]
 341:Drivers/STM32L4xx_HAL_Driver/Src/stm32l4xx_hal_smbus.c **** 
 342:Drivers/STM32L4xx_HAL_Driver/Src/stm32l4xx_hal_smbus.c ****   /*---------------------------- SMBUSx TIMINGR Configuration ------------------------*/
 343:Drivers/STM32L4xx_HAL_Driver/Src/stm32l4xx_hal_smbus.c ****   /* Configure SMBUSx: Frequency range */
 344:Drivers/STM32L4xx_HAL_Driver/Src/stm32l4xx_hal_smbus.c ****   hsmbus->Instance->TIMINGR = hsmbus->Init.Timing & TIMING_CLEAR_MASK;
  82              		.loc 1 344 43
  83 003e 7B68     		ldr	r3, [r7, #4]
  84 0040 5A68     		ldr	r2, [r3, #4]
  85              		.loc 1 344 9
  86 0042 7B68     		ldr	r3, [r7, #4]
  87 0044 1B68     		ldr	r3, [r3]
  88              		.loc 1 344 51
  89 0046 22F07062 		bic	r2, r2, #251658240
  90              		.loc 1 344 29
  91 004a 1A61     		str	r2, [r3, #16]
 345:Drivers/STM32L4xx_HAL_Driver/Src/stm32l4xx_hal_smbus.c **** 
 346:Drivers/STM32L4xx_HAL_Driver/Src/stm32l4xx_hal_smbus.c ****   /*---------------------------- SMBUSx TIMEOUTR Configuration ------------------------*/
 347:Drivers/STM32L4xx_HAL_Driver/Src/stm32l4xx_hal_smbus.c ****   /* Configure SMBUSx: Bus Timeout  */
 348:Drivers/STM32L4xx_HAL_Driver/Src/stm32l4xx_hal_smbus.c ****   hsmbus->Instance->TIMEOUTR &= ~I2C_TIMEOUTR_TIMOUTEN;
  92              		.loc 1 348 9
  93 004c 7B68     		ldr	r3, [r7, #4]
  94 004e 1B68     		ldr	r3, [r3]
  95              		.loc 1 348 19
  96 0050 5A69     		ldr	r2, [r3, #20]
  97              		.loc 1 348 9
  98 0052 7B68     		ldr	r3, [r7, #4]
  99 0054 1B68     		ldr	r3, [r3]
 100              		.loc 1 348 30
 101 0056 22F40042 		bic	r2, r2, #32768
 102 005a 5A61     		str	r2, [r3, #20]
 349:Drivers/STM32L4xx_HAL_Driver/Src/stm32l4xx_hal_smbus.c ****   hsmbus->Instance->TIMEOUTR &= ~I2C_TIMEOUTR_TEXTEN;
 103              		.loc 1 349 9
 104 005c 7B68     		ldr	r3, [r7, #4]
 105 005e 1B68     		ldr	r3, [r3]
 106              		.loc 1 349 19
 107 0060 5A69     		ldr	r2, [r3, #20]
 108              		.loc 1 349 9
 109 0062 7B68     		ldr	r3, [r7, #4]
ARM GAS  /tmp/ccysATpZ.s 			page 9


 110 0064 1B68     		ldr	r3, [r3]
 111              		.loc 1 349 30
 112 0066 22F00042 		bic	r2, r2, #-2147483648
 113 006a 5A61     		str	r2, [r3, #20]
 350:Drivers/STM32L4xx_HAL_Driver/Src/stm32l4xx_hal_smbus.c ****   hsmbus->Instance->TIMEOUTR = hsmbus->Init.SMBusTimeout;
 114              		.loc 1 350 9
 115 006c 7B68     		ldr	r3, [r7, #4]
 116 006e 1B68     		ldr	r3, [r3]
 117              		.loc 1 350 44
 118 0070 7A68     		ldr	r2, [r7, #4]
 119 0072 126B     		ldr	r2, [r2, #48]
 120              		.loc 1 350 30
 121 0074 5A61     		str	r2, [r3, #20]
 351:Drivers/STM32L4xx_HAL_Driver/Src/stm32l4xx_hal_smbus.c **** 
 352:Drivers/STM32L4xx_HAL_Driver/Src/stm32l4xx_hal_smbus.c ****   /*---------------------------- SMBUSx OAR1 Configuration -----------------------*/
 353:Drivers/STM32L4xx_HAL_Driver/Src/stm32l4xx_hal_smbus.c ****   /* Configure SMBUSx: Own Address1 and ack own address1 mode */
 354:Drivers/STM32L4xx_HAL_Driver/Src/stm32l4xx_hal_smbus.c ****   hsmbus->Instance->OAR1 &= ~I2C_OAR1_OA1EN;
 122              		.loc 1 354 9
 123 0076 7B68     		ldr	r3, [r7, #4]
 124 0078 1B68     		ldr	r3, [r3]
 125              		.loc 1 354 19
 126 007a 9A68     		ldr	r2, [r3, #8]
 127              		.loc 1 354 9
 128 007c 7B68     		ldr	r3, [r7, #4]
 129 007e 1B68     		ldr	r3, [r3]
 130              		.loc 1 354 26
 131 0080 22F40042 		bic	r2, r2, #32768
 132 0084 9A60     		str	r2, [r3, #8]
 355:Drivers/STM32L4xx_HAL_Driver/Src/stm32l4xx_hal_smbus.c **** 
 356:Drivers/STM32L4xx_HAL_Driver/Src/stm32l4xx_hal_smbus.c ****   if (hsmbus->Init.OwnAddress1 != 0UL)
 133              		.loc 1 356 19
 134 0086 7B68     		ldr	r3, [r7, #4]
 135 0088 DB68     		ldr	r3, [r3, #12]
 136              		.loc 1 356 6
 137 008a 002B     		cmp	r3, #0
 138 008c 12D0     		beq	.L5
 357:Drivers/STM32L4xx_HAL_Driver/Src/stm32l4xx_hal_smbus.c ****   {
 358:Drivers/STM32L4xx_HAL_Driver/Src/stm32l4xx_hal_smbus.c ****     if (hsmbus->Init.AddressingMode == SMBUS_ADDRESSINGMODE_7BIT)
 139              		.loc 1 358 21
 140 008e 7B68     		ldr	r3, [r7, #4]
 141 0090 1B69     		ldr	r3, [r3, #16]
 142              		.loc 1 358 8
 143 0092 012B     		cmp	r3, #1
 144 0094 07D1     		bne	.L6
 359:Drivers/STM32L4xx_HAL_Driver/Src/stm32l4xx_hal_smbus.c ****     {
 360:Drivers/STM32L4xx_HAL_Driver/Src/stm32l4xx_hal_smbus.c ****       hsmbus->Instance->OAR1 = (I2C_OAR1_OA1EN | hsmbus->Init.OwnAddress1);
 145              		.loc 1 360 62
 146 0096 7B68     		ldr	r3, [r7, #4]
 147 0098 DA68     		ldr	r2, [r3, #12]
 148              		.loc 1 360 13
 149 009a 7B68     		ldr	r3, [r7, #4]
 150 009c 1B68     		ldr	r3, [r3]
 151              		.loc 1 360 48
 152 009e 42F40042 		orr	r2, r2, #32768
 153              		.loc 1 360 30
 154 00a2 9A60     		str	r2, [r3, #8]
 155 00a4 06E0     		b	.L5
ARM GAS  /tmp/ccysATpZ.s 			page 10


 156              	.L6:
 361:Drivers/STM32L4xx_HAL_Driver/Src/stm32l4xx_hal_smbus.c ****     }
 362:Drivers/STM32L4xx_HAL_Driver/Src/stm32l4xx_hal_smbus.c ****     else /* SMBUS_ADDRESSINGMODE_10BIT */
 363:Drivers/STM32L4xx_HAL_Driver/Src/stm32l4xx_hal_smbus.c ****     {
 364:Drivers/STM32L4xx_HAL_Driver/Src/stm32l4xx_hal_smbus.c ****       hsmbus->Instance->OAR1 = (I2C_OAR1_OA1EN | I2C_OAR1_OA1MODE | hsmbus->Init.OwnAddress1);
 157              		.loc 1 364 81
 158 00a6 7B68     		ldr	r3, [r7, #4]
 159 00a8 DA68     		ldr	r2, [r3, #12]
 160              		.loc 1 364 13
 161 00aa 7B68     		ldr	r3, [r7, #4]
 162 00ac 1B68     		ldr	r3, [r3]
 163              		.loc 1 364 67
 164 00ae 42F40442 		orr	r2, r2, #33792
 165              		.loc 1 364 30
 166 00b2 9A60     		str	r2, [r3, #8]
 167              	.L5:
 365:Drivers/STM32L4xx_HAL_Driver/Src/stm32l4xx_hal_smbus.c ****     }
 366:Drivers/STM32L4xx_HAL_Driver/Src/stm32l4xx_hal_smbus.c ****   }
 367:Drivers/STM32L4xx_HAL_Driver/Src/stm32l4xx_hal_smbus.c **** 
 368:Drivers/STM32L4xx_HAL_Driver/Src/stm32l4xx_hal_smbus.c ****   /*---------------------------- SMBUSx CR2 Configuration ------------------------*/
 369:Drivers/STM32L4xx_HAL_Driver/Src/stm32l4xx_hal_smbus.c ****   /* Configure SMBUSx: Addressing Master mode */
 370:Drivers/STM32L4xx_HAL_Driver/Src/stm32l4xx_hal_smbus.c ****   if (hsmbus->Init.AddressingMode == SMBUS_ADDRESSINGMODE_10BIT)
 168              		.loc 1 370 19
 169 00b4 7B68     		ldr	r3, [r7, #4]
 170 00b6 1B69     		ldr	r3, [r3, #16]
 171              		.loc 1 370 6
 172 00b8 022B     		cmp	r3, #2
 173 00ba 04D1     		bne	.L7
 371:Drivers/STM32L4xx_HAL_Driver/Src/stm32l4xx_hal_smbus.c ****   {
 372:Drivers/STM32L4xx_HAL_Driver/Src/stm32l4xx_hal_smbus.c ****     hsmbus->Instance->CR2 = (I2C_CR2_ADD10);
 174              		.loc 1 372 11
 175 00bc 7B68     		ldr	r3, [r7, #4]
 176 00be 1B68     		ldr	r3, [r3]
 177              		.loc 1 372 27
 178 00c0 4FF40062 		mov	r2, #2048
 179 00c4 5A60     		str	r2, [r3, #4]
 180              	.L7:
 373:Drivers/STM32L4xx_HAL_Driver/Src/stm32l4xx_hal_smbus.c ****   }
 374:Drivers/STM32L4xx_HAL_Driver/Src/stm32l4xx_hal_smbus.c ****   /* Enable the AUTOEND by default, and enable NACK (should be disable only during Slave process) *
 375:Drivers/STM32L4xx_HAL_Driver/Src/stm32l4xx_hal_smbus.c ****   /* AUTOEND and NACK bit will be manage during Transfer process */
 376:Drivers/STM32L4xx_HAL_Driver/Src/stm32l4xx_hal_smbus.c ****   hsmbus->Instance->CR2 |= (I2C_CR2_AUTOEND | I2C_CR2_NACK);
 181              		.loc 1 376 9
 182 00c6 7B68     		ldr	r3, [r7, #4]
 183 00c8 1B68     		ldr	r3, [r3]
 184              		.loc 1 376 19
 185 00ca 5B68     		ldr	r3, [r3, #4]
 186              		.loc 1 376 9
 187 00cc 7A68     		ldr	r2, [r7, #4]
 188 00ce 1268     		ldr	r2, [r2]
 189              		.loc 1 376 25
 190 00d0 43F00073 		orr	r3, r3, #33554432
 191 00d4 43F40043 		orr	r3, r3, #32768
 192 00d8 5360     		str	r3, [r2, #4]
 377:Drivers/STM32L4xx_HAL_Driver/Src/stm32l4xx_hal_smbus.c **** 
 378:Drivers/STM32L4xx_HAL_Driver/Src/stm32l4xx_hal_smbus.c ****   /*---------------------------- SMBUSx OAR2 Configuration -----------------------*/
 379:Drivers/STM32L4xx_HAL_Driver/Src/stm32l4xx_hal_smbus.c ****   /* Configure SMBUSx: Dual mode and Own Address2 */
 380:Drivers/STM32L4xx_HAL_Driver/Src/stm32l4xx_hal_smbus.c ****   hsmbus->Instance->OAR2 = (hsmbus->Init.DualAddressMode | hsmbus->Init.OwnAddress2 | \
ARM GAS  /tmp/ccysATpZ.s 			page 11


 193              		.loc 1 380 41
 194 00da 7B68     		ldr	r3, [r7, #4]
 195 00dc 5A69     		ldr	r2, [r3, #20]
 196              		.loc 1 380 72
 197 00de 7B68     		ldr	r3, [r7, #4]
 198 00e0 9B69     		ldr	r3, [r3, #24]
 199              		.loc 1 380 58
 200 00e2 42EA0301 		orr	r1, r2, r3
 381:Drivers/STM32L4xx_HAL_Driver/Src/stm32l4xx_hal_smbus.c ****                             (hsmbus->Init.OwnAddress2Masks << 8U));
 201              		.loc 1 381 42
 202 00e6 7B68     		ldr	r3, [r7, #4]
 203 00e8 DB69     		ldr	r3, [r3, #28]
 204              		.loc 1 381 60
 205 00ea 1A02     		lsls	r2, r3, #8
 380:Drivers/STM32L4xx_HAL_Driver/Src/stm32l4xx_hal_smbus.c ****                             (hsmbus->Init.OwnAddress2Masks << 8U));
 206              		.loc 1 380 9
 207 00ec 7B68     		ldr	r3, [r7, #4]
 208 00ee 1B68     		ldr	r3, [r3]
 380:Drivers/STM32L4xx_HAL_Driver/Src/stm32l4xx_hal_smbus.c ****                             (hsmbus->Init.OwnAddress2Masks << 8U));
 209              		.loc 1 380 85
 210 00f0 0A43     		orrs	r2, r2, r1
 380:Drivers/STM32L4xx_HAL_Driver/Src/stm32l4xx_hal_smbus.c ****                             (hsmbus->Init.OwnAddress2Masks << 8U));
 211              		.loc 1 380 26
 212 00f2 DA60     		str	r2, [r3, #12]
 382:Drivers/STM32L4xx_HAL_Driver/Src/stm32l4xx_hal_smbus.c **** 
 383:Drivers/STM32L4xx_HAL_Driver/Src/stm32l4xx_hal_smbus.c ****   /*---------------------------- SMBUSx CR1 Configuration ------------------------*/
 384:Drivers/STM32L4xx_HAL_Driver/Src/stm32l4xx_hal_smbus.c ****   /* Configure SMBUSx: Generalcall and NoStretch mode */
 385:Drivers/STM32L4xx_HAL_Driver/Src/stm32l4xx_hal_smbus.c ****   hsmbus->Instance->CR1 = (hsmbus->Init.GeneralCallMode | hsmbus->Init.NoStretchMode | \
 213              		.loc 1 385 40
 214 00f4 7B68     		ldr	r3, [r7, #4]
 215 00f6 1A6A     		ldr	r2, [r3, #32]
 216              		.loc 1 385 71
 217 00f8 7B68     		ldr	r3, [r7, #4]
 218 00fa 5B6A     		ldr	r3, [r3, #36]
 219              		.loc 1 385 57
 220 00fc 1A43     		orrs	r2, r2, r3
 386:Drivers/STM32L4xx_HAL_Driver/Src/stm32l4xx_hal_smbus.c ****                            hsmbus->Init.PacketErrorCheckMode | hsmbus->Init.PeripheralMode | \
 221              		.loc 1 386 40
 222 00fe 7B68     		ldr	r3, [r7, #4]
 223 0100 9B6A     		ldr	r3, [r3, #40]
 385:Drivers/STM32L4xx_HAL_Driver/Src/stm32l4xx_hal_smbus.c ****                            hsmbus->Init.PacketErrorCheckMode | hsmbus->Init.PeripheralMode | \
 224              		.loc 1 385 86
 225 0102 1A43     		orrs	r2, r2, r3
 226              		.loc 1 386 76
 227 0104 7B68     		ldr	r3, [r7, #4]
 228 0106 DB6A     		ldr	r3, [r3, #44]
 229              		.loc 1 386 62
 230 0108 42EA0301 		orr	r1, r2, r3
 387:Drivers/STM32L4xx_HAL_Driver/Src/stm32l4xx_hal_smbus.c ****                            hsmbus->Init.AnalogFilter);
 231              		.loc 1 387 40
 232 010c 7B68     		ldr	r3, [r7, #4]
 233 010e 9A68     		ldr	r2, [r3, #8]
 385:Drivers/STM32L4xx_HAL_Driver/Src/stm32l4xx_hal_smbus.c ****                            hsmbus->Init.PacketErrorCheckMode | hsmbus->Init.PeripheralMode | \
 234              		.loc 1 385 9
 235 0110 7B68     		ldr	r3, [r7, #4]
 236 0112 1B68     		ldr	r3, [r3]
 386:Drivers/STM32L4xx_HAL_Driver/Src/stm32l4xx_hal_smbus.c ****                            hsmbus->Init.PacketErrorCheckMode | hsmbus->Init.PeripheralMode | \
ARM GAS  /tmp/ccysATpZ.s 			page 12


 237              		.loc 1 386 92
 238 0114 0A43     		orrs	r2, r2, r1
 385:Drivers/STM32L4xx_HAL_Driver/Src/stm32l4xx_hal_smbus.c ****                            hsmbus->Init.PacketErrorCheckMode | hsmbus->Init.PeripheralMode | \
 239              		.loc 1 385 25
 240 0116 1A60     		str	r2, [r3]
 388:Drivers/STM32L4xx_HAL_Driver/Src/stm32l4xx_hal_smbus.c **** 
 389:Drivers/STM32L4xx_HAL_Driver/Src/stm32l4xx_hal_smbus.c ****   /* Enable Slave Byte Control only in case of Packet Error Check is enabled
 390:Drivers/STM32L4xx_HAL_Driver/Src/stm32l4xx_hal_smbus.c ****      and SMBUS Peripheral is set in Slave mode */
 391:Drivers/STM32L4xx_HAL_Driver/Src/stm32l4xx_hal_smbus.c ****   if ((hsmbus->Init.PacketErrorCheckMode == SMBUS_PEC_ENABLE) && \
 241              		.loc 1 391 20
 242 0118 7B68     		ldr	r3, [r7, #4]
 243 011a 9B6A     		ldr	r3, [r3, #40]
 244              		.loc 1 391 6
 245 011c B3F5000F 		cmp	r3, #8388608
 246 0120 10D1     		bne	.L8
 392:Drivers/STM32L4xx_HAL_Driver/Src/stm32l4xx_hal_smbus.c ****       ((hsmbus->Init.PeripheralMode == SMBUS_PERIPHERAL_MODE_SMBUS_SLAVE) || \
 247              		.loc 1 392 21
 248 0122 7B68     		ldr	r3, [r7, #4]
 249 0124 DB6A     		ldr	r3, [r3, #44]
 391:Drivers/STM32L4xx_HAL_Driver/Src/stm32l4xx_hal_smbus.c ****       ((hsmbus->Init.PeripheralMode == SMBUS_PERIPHERAL_MODE_SMBUS_SLAVE) || \
 250              		.loc 1 391 63 discriminator 1
 251 0126 002B     		cmp	r3, #0
 252 0128 04D0     		beq	.L9
 393:Drivers/STM32L4xx_HAL_Driver/Src/stm32l4xx_hal_smbus.c ****        (hsmbus->Init.PeripheralMode == SMBUS_PERIPHERAL_MODE_SMBUS_SLAVE_ARP)))
 253              		.loc 1 393 21
 254 012a 7B68     		ldr	r3, [r7, #4]
 255 012c DB6A     		ldr	r3, [r3, #44]
 392:Drivers/STM32L4xx_HAL_Driver/Src/stm32l4xx_hal_smbus.c ****       ((hsmbus->Init.PeripheralMode == SMBUS_PERIPHERAL_MODE_SMBUS_SLAVE) || \
 256              		.loc 1 392 75
 257 012e B3F5001F 		cmp	r3, #2097152
 258 0132 07D1     		bne	.L8
 259              	.L9:
 394:Drivers/STM32L4xx_HAL_Driver/Src/stm32l4xx_hal_smbus.c ****   {
 395:Drivers/STM32L4xx_HAL_Driver/Src/stm32l4xx_hal_smbus.c ****     hsmbus->Instance->CR1 |= I2C_CR1_SBC;
 260              		.loc 1 395 11
 261 0134 7B68     		ldr	r3, [r7, #4]
 262 0136 1B68     		ldr	r3, [r3]
 263              		.loc 1 395 21
 264 0138 1A68     		ldr	r2, [r3]
 265              		.loc 1 395 11
 266 013a 7B68     		ldr	r3, [r7, #4]
 267 013c 1B68     		ldr	r3, [r3]
 268              		.loc 1 395 27
 269 013e 42F48032 		orr	r2, r2, #65536
 270 0142 1A60     		str	r2, [r3]
 271              	.L8:
 396:Drivers/STM32L4xx_HAL_Driver/Src/stm32l4xx_hal_smbus.c ****   }
 397:Drivers/STM32L4xx_HAL_Driver/Src/stm32l4xx_hal_smbus.c **** 
 398:Drivers/STM32L4xx_HAL_Driver/Src/stm32l4xx_hal_smbus.c ****   /* Enable the selected SMBUS peripheral */
 399:Drivers/STM32L4xx_HAL_Driver/Src/stm32l4xx_hal_smbus.c ****   __HAL_SMBUS_ENABLE(hsmbus);
 272              		.loc 1 399 3
 273 0144 7B68     		ldr	r3, [r7, #4]
 274 0146 1B68     		ldr	r3, [r3]
 275 0148 1A68     		ldr	r2, [r3]
 276 014a 7B68     		ldr	r3, [r7, #4]
 277 014c 1B68     		ldr	r3, [r3]
 278 014e 42F00102 		orr	r2, r2, #1
ARM GAS  /tmp/ccysATpZ.s 			page 13


 279 0152 1A60     		str	r2, [r3]
 400:Drivers/STM32L4xx_HAL_Driver/Src/stm32l4xx_hal_smbus.c **** 
 401:Drivers/STM32L4xx_HAL_Driver/Src/stm32l4xx_hal_smbus.c ****   hsmbus->ErrorCode = HAL_SMBUS_ERROR_NONE;
 280              		.loc 1 401 21
 281 0154 7B68     		ldr	r3, [r7, #4]
 282 0156 0022     		movs	r2, #0
 283 0158 DA64     		str	r2, [r3, #76]
 402:Drivers/STM32L4xx_HAL_Driver/Src/stm32l4xx_hal_smbus.c ****   hsmbus->PreviousState = HAL_SMBUS_STATE_READY;
 284              		.loc 1 402 25
 285 015a 7B68     		ldr	r3, [r7, #4]
 286 015c 0122     		movs	r2, #1
 287 015e 1A64     		str	r2, [r3, #64]
 403:Drivers/STM32L4xx_HAL_Driver/Src/stm32l4xx_hal_smbus.c ****   hsmbus->State = HAL_SMBUS_STATE_READY;
 288              		.loc 1 403 17
 289 0160 7B68     		ldr	r3, [r7, #4]
 290 0162 0122     		movs	r2, #1
 291 0164 9A64     		str	r2, [r3, #72]
 404:Drivers/STM32L4xx_HAL_Driver/Src/stm32l4xx_hal_smbus.c **** 
 405:Drivers/STM32L4xx_HAL_Driver/Src/stm32l4xx_hal_smbus.c ****   return HAL_OK;
 292              		.loc 1 405 10
 293 0166 0023     		movs	r3, #0
 294              	.L3:
 406:Drivers/STM32L4xx_HAL_Driver/Src/stm32l4xx_hal_smbus.c **** }
 295              		.loc 1 406 1
 296 0168 1846     		mov	r0, r3
 297 016a 0837     		adds	r7, r7, #8
 298              		.cfi_def_cfa_offset 8
 299 016c BD46     		mov	sp, r7
 300              		.cfi_def_cfa_register 13
 301              		@ sp needed
 302 016e 80BD     		pop	{r7, pc}
 303              		.cfi_endproc
 304              	.LFE445:
 306              		.section	.text.HAL_SMBUS_DeInit,"ax",%progbits
 307              		.align	1
 308              		.global	HAL_SMBUS_DeInit
 309              		.syntax unified
 310              		.thumb
 311              		.thumb_func
 313              	HAL_SMBUS_DeInit:
 314              	.LFB446:
 407:Drivers/STM32L4xx_HAL_Driver/Src/stm32l4xx_hal_smbus.c **** 
 408:Drivers/STM32L4xx_HAL_Driver/Src/stm32l4xx_hal_smbus.c **** /**
 409:Drivers/STM32L4xx_HAL_Driver/Src/stm32l4xx_hal_smbus.c ****   * @brief  DeInitialize the SMBUS peripheral.
 410:Drivers/STM32L4xx_HAL_Driver/Src/stm32l4xx_hal_smbus.c ****   * @param  hsmbus Pointer to a SMBUS_HandleTypeDef structure that contains
 411:Drivers/STM32L4xx_HAL_Driver/Src/stm32l4xx_hal_smbus.c ****   *                the configuration information for the specified SMBUS.
 412:Drivers/STM32L4xx_HAL_Driver/Src/stm32l4xx_hal_smbus.c ****   * @retval HAL status
 413:Drivers/STM32L4xx_HAL_Driver/Src/stm32l4xx_hal_smbus.c ****   */
 414:Drivers/STM32L4xx_HAL_Driver/Src/stm32l4xx_hal_smbus.c **** HAL_StatusTypeDef HAL_SMBUS_DeInit(SMBUS_HandleTypeDef *hsmbus)
 415:Drivers/STM32L4xx_HAL_Driver/Src/stm32l4xx_hal_smbus.c **** {
 315              		.loc 1 415 1
 316              		.cfi_startproc
 317              		@ args = 0, pretend = 0, frame = 8
 318              		@ frame_needed = 1, uses_anonymous_args = 0
 319 0000 80B5     		push	{r7, lr}
 320              		.cfi_def_cfa_offset 8
 321              		.cfi_offset 7, -8
ARM GAS  /tmp/ccysATpZ.s 			page 14


 322              		.cfi_offset 14, -4
 323 0002 82B0     		sub	sp, sp, #8
 324              		.cfi_def_cfa_offset 16
 325 0004 00AF     		add	r7, sp, #0
 326              		.cfi_def_cfa_register 7
 327 0006 7860     		str	r0, [r7, #4]
 416:Drivers/STM32L4xx_HAL_Driver/Src/stm32l4xx_hal_smbus.c ****   /* Check the SMBUS handle allocation */
 417:Drivers/STM32L4xx_HAL_Driver/Src/stm32l4xx_hal_smbus.c ****   if (hsmbus == NULL)
 328              		.loc 1 417 6
 329 0008 7B68     		ldr	r3, [r7, #4]
 330 000a 002B     		cmp	r3, #0
 331 000c 01D1     		bne	.L11
 418:Drivers/STM32L4xx_HAL_Driver/Src/stm32l4xx_hal_smbus.c ****   {
 419:Drivers/STM32L4xx_HAL_Driver/Src/stm32l4xx_hal_smbus.c ****     return HAL_ERROR;
 332              		.loc 1 419 12
 333 000e 0123     		movs	r3, #1
 334 0010 1BE0     		b	.L12
 335              	.L11:
 420:Drivers/STM32L4xx_HAL_Driver/Src/stm32l4xx_hal_smbus.c ****   }
 421:Drivers/STM32L4xx_HAL_Driver/Src/stm32l4xx_hal_smbus.c **** 
 422:Drivers/STM32L4xx_HAL_Driver/Src/stm32l4xx_hal_smbus.c ****   /* Check the parameters */
 423:Drivers/STM32L4xx_HAL_Driver/Src/stm32l4xx_hal_smbus.c ****   assert_param(IS_SMBUS_ALL_INSTANCE(hsmbus->Instance));
 424:Drivers/STM32L4xx_HAL_Driver/Src/stm32l4xx_hal_smbus.c **** 
 425:Drivers/STM32L4xx_HAL_Driver/Src/stm32l4xx_hal_smbus.c ****   hsmbus->State = HAL_SMBUS_STATE_BUSY;
 336              		.loc 1 425 17
 337 0012 7B68     		ldr	r3, [r7, #4]
 338 0014 0222     		movs	r2, #2
 339 0016 9A64     		str	r2, [r3, #72]
 426:Drivers/STM32L4xx_HAL_Driver/Src/stm32l4xx_hal_smbus.c **** 
 427:Drivers/STM32L4xx_HAL_Driver/Src/stm32l4xx_hal_smbus.c ****   /* Disable the SMBUS Peripheral Clock */
 428:Drivers/STM32L4xx_HAL_Driver/Src/stm32l4xx_hal_smbus.c ****   __HAL_SMBUS_DISABLE(hsmbus);
 340              		.loc 1 428 3
 341 0018 7B68     		ldr	r3, [r7, #4]
 342 001a 1B68     		ldr	r3, [r3]
 343 001c 1A68     		ldr	r2, [r3]
 344 001e 7B68     		ldr	r3, [r7, #4]
 345 0020 1B68     		ldr	r3, [r3]
 346 0022 22F00102 		bic	r2, r2, #1
 347 0026 1A60     		str	r2, [r3]
 429:Drivers/STM32L4xx_HAL_Driver/Src/stm32l4xx_hal_smbus.c **** 
 430:Drivers/STM32L4xx_HAL_Driver/Src/stm32l4xx_hal_smbus.c **** #if (USE_HAL_SMBUS_REGISTER_CALLBACKS == 1)
 431:Drivers/STM32L4xx_HAL_Driver/Src/stm32l4xx_hal_smbus.c ****   if (hsmbus->MspDeInitCallback == NULL)
 432:Drivers/STM32L4xx_HAL_Driver/Src/stm32l4xx_hal_smbus.c ****   {
 433:Drivers/STM32L4xx_HAL_Driver/Src/stm32l4xx_hal_smbus.c ****     hsmbus->MspDeInitCallback = HAL_SMBUS_MspDeInit; /* Legacy weak MspDeInit  */
 434:Drivers/STM32L4xx_HAL_Driver/Src/stm32l4xx_hal_smbus.c ****   }
 435:Drivers/STM32L4xx_HAL_Driver/Src/stm32l4xx_hal_smbus.c **** 
 436:Drivers/STM32L4xx_HAL_Driver/Src/stm32l4xx_hal_smbus.c ****   /* DeInit the low level hardware: GPIO, CLOCK, NVIC */
 437:Drivers/STM32L4xx_HAL_Driver/Src/stm32l4xx_hal_smbus.c ****   hsmbus->MspDeInitCallback(hsmbus);
 438:Drivers/STM32L4xx_HAL_Driver/Src/stm32l4xx_hal_smbus.c **** #else
 439:Drivers/STM32L4xx_HAL_Driver/Src/stm32l4xx_hal_smbus.c ****   /* DeInit the low level hardware: GPIO, CLOCK, NVIC */
 440:Drivers/STM32L4xx_HAL_Driver/Src/stm32l4xx_hal_smbus.c ****   HAL_SMBUS_MspDeInit(hsmbus);
 348              		.loc 1 440 3
 349 0028 7868     		ldr	r0, [r7, #4]
 350 002a FFF7FEFF 		bl	HAL_SMBUS_MspDeInit
 441:Drivers/STM32L4xx_HAL_Driver/Src/stm32l4xx_hal_smbus.c **** #endif /* USE_HAL_SMBUS_REGISTER_CALLBACKS */
 442:Drivers/STM32L4xx_HAL_Driver/Src/stm32l4xx_hal_smbus.c **** 
 443:Drivers/STM32L4xx_HAL_Driver/Src/stm32l4xx_hal_smbus.c ****   hsmbus->ErrorCode = HAL_SMBUS_ERROR_NONE;
ARM GAS  /tmp/ccysATpZ.s 			page 15


 351              		.loc 1 443 21
 352 002e 7B68     		ldr	r3, [r7, #4]
 353 0030 0022     		movs	r2, #0
 354 0032 DA64     		str	r2, [r3, #76]
 444:Drivers/STM32L4xx_HAL_Driver/Src/stm32l4xx_hal_smbus.c ****   hsmbus->PreviousState =  HAL_SMBUS_STATE_RESET;
 355              		.loc 1 444 25
 356 0034 7B68     		ldr	r3, [r7, #4]
 357 0036 0022     		movs	r2, #0
 358 0038 1A64     		str	r2, [r3, #64]
 445:Drivers/STM32L4xx_HAL_Driver/Src/stm32l4xx_hal_smbus.c ****   hsmbus->State = HAL_SMBUS_STATE_RESET;
 359              		.loc 1 445 17
 360 003a 7B68     		ldr	r3, [r7, #4]
 361 003c 0022     		movs	r2, #0
 362 003e 9A64     		str	r2, [r3, #72]
 446:Drivers/STM32L4xx_HAL_Driver/Src/stm32l4xx_hal_smbus.c **** 
 447:Drivers/STM32L4xx_HAL_Driver/Src/stm32l4xx_hal_smbus.c ****   /* Release Lock */
 448:Drivers/STM32L4xx_HAL_Driver/Src/stm32l4xx_hal_smbus.c ****   __HAL_UNLOCK(hsmbus);
 363              		.loc 1 448 3
 364 0040 7B68     		ldr	r3, [r7, #4]
 365 0042 0022     		movs	r2, #0
 366 0044 83F84420 		strb	r2, [r3, #68]
 449:Drivers/STM32L4xx_HAL_Driver/Src/stm32l4xx_hal_smbus.c **** 
 450:Drivers/STM32L4xx_HAL_Driver/Src/stm32l4xx_hal_smbus.c ****   return HAL_OK;
 367              		.loc 1 450 10
 368 0048 0023     		movs	r3, #0
 369              	.L12:
 451:Drivers/STM32L4xx_HAL_Driver/Src/stm32l4xx_hal_smbus.c **** }
 370              		.loc 1 451 1
 371 004a 1846     		mov	r0, r3
 372 004c 0837     		adds	r7, r7, #8
 373              		.cfi_def_cfa_offset 8
 374 004e BD46     		mov	sp, r7
 375              		.cfi_def_cfa_register 13
 376              		@ sp needed
 377 0050 80BD     		pop	{r7, pc}
 378              		.cfi_endproc
 379              	.LFE446:
 381              		.section	.text.HAL_SMBUS_MspInit,"ax",%progbits
 382              		.align	1
 383              		.weak	HAL_SMBUS_MspInit
 384              		.syntax unified
 385              		.thumb
 386              		.thumb_func
 388              	HAL_SMBUS_MspInit:
 389              	.LFB447:
 452:Drivers/STM32L4xx_HAL_Driver/Src/stm32l4xx_hal_smbus.c **** 
 453:Drivers/STM32L4xx_HAL_Driver/Src/stm32l4xx_hal_smbus.c **** /**
 454:Drivers/STM32L4xx_HAL_Driver/Src/stm32l4xx_hal_smbus.c ****   * @brief Initialize the SMBUS MSP.
 455:Drivers/STM32L4xx_HAL_Driver/Src/stm32l4xx_hal_smbus.c ****   * @param  hsmbus Pointer to a SMBUS_HandleTypeDef structure that contains
 456:Drivers/STM32L4xx_HAL_Driver/Src/stm32l4xx_hal_smbus.c ****   *                the configuration information for the specified SMBUS.
 457:Drivers/STM32L4xx_HAL_Driver/Src/stm32l4xx_hal_smbus.c ****   * @retval None
 458:Drivers/STM32L4xx_HAL_Driver/Src/stm32l4xx_hal_smbus.c ****   */
 459:Drivers/STM32L4xx_HAL_Driver/Src/stm32l4xx_hal_smbus.c **** __weak void HAL_SMBUS_MspInit(SMBUS_HandleTypeDef *hsmbus)
 460:Drivers/STM32L4xx_HAL_Driver/Src/stm32l4xx_hal_smbus.c **** {
 390              		.loc 1 460 1
 391              		.cfi_startproc
 392              		@ args = 0, pretend = 0, frame = 8
ARM GAS  /tmp/ccysATpZ.s 			page 16


 393              		@ frame_needed = 1, uses_anonymous_args = 0
 394              		@ link register save eliminated.
 395 0000 80B4     		push	{r7}
 396              		.cfi_def_cfa_offset 4
 397              		.cfi_offset 7, -4
 398 0002 83B0     		sub	sp, sp, #12
 399              		.cfi_def_cfa_offset 16
 400 0004 00AF     		add	r7, sp, #0
 401              		.cfi_def_cfa_register 7
 402 0006 7860     		str	r0, [r7, #4]
 461:Drivers/STM32L4xx_HAL_Driver/Src/stm32l4xx_hal_smbus.c ****   /* Prevent unused argument(s) compilation warning */
 462:Drivers/STM32L4xx_HAL_Driver/Src/stm32l4xx_hal_smbus.c ****   UNUSED(hsmbus);
 463:Drivers/STM32L4xx_HAL_Driver/Src/stm32l4xx_hal_smbus.c **** 
 464:Drivers/STM32L4xx_HAL_Driver/Src/stm32l4xx_hal_smbus.c ****   /* NOTE : This function should not be modified, when the callback is needed,
 465:Drivers/STM32L4xx_HAL_Driver/Src/stm32l4xx_hal_smbus.c ****             the HAL_SMBUS_MspInit could be implemented in the user file
 466:Drivers/STM32L4xx_HAL_Driver/Src/stm32l4xx_hal_smbus.c ****    */
 467:Drivers/STM32L4xx_HAL_Driver/Src/stm32l4xx_hal_smbus.c **** }
 403              		.loc 1 467 1
 404 0008 00BF     		nop
 405 000a 0C37     		adds	r7, r7, #12
 406              		.cfi_def_cfa_offset 4
 407 000c BD46     		mov	sp, r7
 408              		.cfi_def_cfa_register 13
 409              		@ sp needed
 410 000e 5DF8047B 		ldr	r7, [sp], #4
 411              		.cfi_restore 7
 412              		.cfi_def_cfa_offset 0
 413 0012 7047     		bx	lr
 414              		.cfi_endproc
 415              	.LFE447:
 417              		.section	.text.HAL_SMBUS_MspDeInit,"ax",%progbits
 418              		.align	1
 419              		.weak	HAL_SMBUS_MspDeInit
 420              		.syntax unified
 421              		.thumb
 422              		.thumb_func
 424              	HAL_SMBUS_MspDeInit:
 425              	.LFB448:
 468:Drivers/STM32L4xx_HAL_Driver/Src/stm32l4xx_hal_smbus.c **** 
 469:Drivers/STM32L4xx_HAL_Driver/Src/stm32l4xx_hal_smbus.c **** /**
 470:Drivers/STM32L4xx_HAL_Driver/Src/stm32l4xx_hal_smbus.c ****   * @brief DeInitialize the SMBUS MSP.
 471:Drivers/STM32L4xx_HAL_Driver/Src/stm32l4xx_hal_smbus.c ****   * @param  hsmbus Pointer to a SMBUS_HandleTypeDef structure that contains
 472:Drivers/STM32L4xx_HAL_Driver/Src/stm32l4xx_hal_smbus.c ****   *                the configuration information for the specified SMBUS.
 473:Drivers/STM32L4xx_HAL_Driver/Src/stm32l4xx_hal_smbus.c ****   * @retval None
 474:Drivers/STM32L4xx_HAL_Driver/Src/stm32l4xx_hal_smbus.c ****   */
 475:Drivers/STM32L4xx_HAL_Driver/Src/stm32l4xx_hal_smbus.c **** __weak void HAL_SMBUS_MspDeInit(SMBUS_HandleTypeDef *hsmbus)
 476:Drivers/STM32L4xx_HAL_Driver/Src/stm32l4xx_hal_smbus.c **** {
 426              		.loc 1 476 1
 427              		.cfi_startproc
 428              		@ args = 0, pretend = 0, frame = 8
 429              		@ frame_needed = 1, uses_anonymous_args = 0
 430              		@ link register save eliminated.
 431 0000 80B4     		push	{r7}
 432              		.cfi_def_cfa_offset 4
 433              		.cfi_offset 7, -4
 434 0002 83B0     		sub	sp, sp, #12
 435              		.cfi_def_cfa_offset 16
ARM GAS  /tmp/ccysATpZ.s 			page 17


 436 0004 00AF     		add	r7, sp, #0
 437              		.cfi_def_cfa_register 7
 438 0006 7860     		str	r0, [r7, #4]
 477:Drivers/STM32L4xx_HAL_Driver/Src/stm32l4xx_hal_smbus.c ****   /* Prevent unused argument(s) compilation warning */
 478:Drivers/STM32L4xx_HAL_Driver/Src/stm32l4xx_hal_smbus.c ****   UNUSED(hsmbus);
 479:Drivers/STM32L4xx_HAL_Driver/Src/stm32l4xx_hal_smbus.c **** 
 480:Drivers/STM32L4xx_HAL_Driver/Src/stm32l4xx_hal_smbus.c ****   /* NOTE : This function should not be modified, when the callback is needed,
 481:Drivers/STM32L4xx_HAL_Driver/Src/stm32l4xx_hal_smbus.c ****             the HAL_SMBUS_MspDeInit could be implemented in the user file
 482:Drivers/STM32L4xx_HAL_Driver/Src/stm32l4xx_hal_smbus.c ****    */
 483:Drivers/STM32L4xx_HAL_Driver/Src/stm32l4xx_hal_smbus.c **** }
 439              		.loc 1 483 1
 440 0008 00BF     		nop
 441 000a 0C37     		adds	r7, r7, #12
 442              		.cfi_def_cfa_offset 4
 443 000c BD46     		mov	sp, r7
 444              		.cfi_def_cfa_register 13
 445              		@ sp needed
 446 000e 5DF8047B 		ldr	r7, [sp], #4
 447              		.cfi_restore 7
 448              		.cfi_def_cfa_offset 0
 449 0012 7047     		bx	lr
 450              		.cfi_endproc
 451              	.LFE448:
 453              		.section	.text.HAL_SMBUS_ConfigAnalogFilter,"ax",%progbits
 454              		.align	1
 455              		.global	HAL_SMBUS_ConfigAnalogFilter
 456              		.syntax unified
 457              		.thumb
 458              		.thumb_func
 460              	HAL_SMBUS_ConfigAnalogFilter:
 461              	.LFB449:
 484:Drivers/STM32L4xx_HAL_Driver/Src/stm32l4xx_hal_smbus.c **** 
 485:Drivers/STM32L4xx_HAL_Driver/Src/stm32l4xx_hal_smbus.c **** /**
 486:Drivers/STM32L4xx_HAL_Driver/Src/stm32l4xx_hal_smbus.c ****   * @brief  Configure Analog noise filter.
 487:Drivers/STM32L4xx_HAL_Driver/Src/stm32l4xx_hal_smbus.c ****   * @param  hsmbus Pointer to a SMBUS_HandleTypeDef structure that contains
 488:Drivers/STM32L4xx_HAL_Driver/Src/stm32l4xx_hal_smbus.c ****   *                the configuration information for the specified SMBUS.
 489:Drivers/STM32L4xx_HAL_Driver/Src/stm32l4xx_hal_smbus.c ****   * @param  AnalogFilter This parameter can be one of the following values:
 490:Drivers/STM32L4xx_HAL_Driver/Src/stm32l4xx_hal_smbus.c ****   *         @arg @ref SMBUS_ANALOGFILTER_ENABLE
 491:Drivers/STM32L4xx_HAL_Driver/Src/stm32l4xx_hal_smbus.c ****   *         @arg @ref SMBUS_ANALOGFILTER_DISABLE
 492:Drivers/STM32L4xx_HAL_Driver/Src/stm32l4xx_hal_smbus.c ****   * @retval HAL status
 493:Drivers/STM32L4xx_HAL_Driver/Src/stm32l4xx_hal_smbus.c ****   */
 494:Drivers/STM32L4xx_HAL_Driver/Src/stm32l4xx_hal_smbus.c **** HAL_StatusTypeDef HAL_SMBUS_ConfigAnalogFilter(SMBUS_HandleTypeDef *hsmbus, uint32_t AnalogFilter)
 495:Drivers/STM32L4xx_HAL_Driver/Src/stm32l4xx_hal_smbus.c **** {
 462              		.loc 1 495 1
 463              		.cfi_startproc
 464              		@ args = 0, pretend = 0, frame = 8
 465              		@ frame_needed = 1, uses_anonymous_args = 0
 466              		@ link register save eliminated.
 467 0000 80B4     		push	{r7}
 468              		.cfi_def_cfa_offset 4
 469              		.cfi_offset 7, -4
 470 0002 83B0     		sub	sp, sp, #12
 471              		.cfi_def_cfa_offset 16
 472 0004 00AF     		add	r7, sp, #0
 473              		.cfi_def_cfa_register 7
 474 0006 7860     		str	r0, [r7, #4]
 475 0008 3960     		str	r1, [r7]
ARM GAS  /tmp/ccysATpZ.s 			page 18


 496:Drivers/STM32L4xx_HAL_Driver/Src/stm32l4xx_hal_smbus.c ****   /* Check the parameters */
 497:Drivers/STM32L4xx_HAL_Driver/Src/stm32l4xx_hal_smbus.c ****   assert_param(IS_SMBUS_ALL_INSTANCE(hsmbus->Instance));
 498:Drivers/STM32L4xx_HAL_Driver/Src/stm32l4xx_hal_smbus.c ****   assert_param(IS_SMBUS_ANALOG_FILTER(AnalogFilter));
 499:Drivers/STM32L4xx_HAL_Driver/Src/stm32l4xx_hal_smbus.c **** 
 500:Drivers/STM32L4xx_HAL_Driver/Src/stm32l4xx_hal_smbus.c ****   if (hsmbus->State == HAL_SMBUS_STATE_READY)
 476              		.loc 1 500 13
 477 000a 7B68     		ldr	r3, [r7, #4]
 478 000c 9B6C     		ldr	r3, [r3, #72]
 479              		.loc 1 500 6
 480 000e 012B     		cmp	r3, #1
 481 0010 36D1     		bne	.L16
 501:Drivers/STM32L4xx_HAL_Driver/Src/stm32l4xx_hal_smbus.c ****   {
 502:Drivers/STM32L4xx_HAL_Driver/Src/stm32l4xx_hal_smbus.c ****     /* Process Locked */
 503:Drivers/STM32L4xx_HAL_Driver/Src/stm32l4xx_hal_smbus.c ****     __HAL_LOCK(hsmbus);
 482              		.loc 1 503 5
 483 0012 7B68     		ldr	r3, [r7, #4]
 484 0014 93F84430 		ldrb	r3, [r3, #68]	@ zero_extendqisi2
 485 0018 012B     		cmp	r3, #1
 486 001a 01D1     		bne	.L17
 487              		.loc 1 503 5 is_stmt 0 discriminator 1
 488 001c 0223     		movs	r3, #2
 489              		.loc 1 503 5
 490 001e 30E0     		b	.L18
 491              	.L17:
 492              		.loc 1 503 5 discriminator 2
 493 0020 7B68     		ldr	r3, [r7, #4]
 494 0022 0122     		movs	r2, #1
 495 0024 83F84420 		strb	r2, [r3, #68]
 504:Drivers/STM32L4xx_HAL_Driver/Src/stm32l4xx_hal_smbus.c **** 
 505:Drivers/STM32L4xx_HAL_Driver/Src/stm32l4xx_hal_smbus.c ****     hsmbus->State = HAL_SMBUS_STATE_BUSY;
 496              		.loc 1 505 19 is_stmt 1
 497 0028 7B68     		ldr	r3, [r7, #4]
 498 002a 0222     		movs	r2, #2
 499 002c 9A64     		str	r2, [r3, #72]
 506:Drivers/STM32L4xx_HAL_Driver/Src/stm32l4xx_hal_smbus.c **** 
 507:Drivers/STM32L4xx_HAL_Driver/Src/stm32l4xx_hal_smbus.c ****     /* Disable the selected SMBUS peripheral */
 508:Drivers/STM32L4xx_HAL_Driver/Src/stm32l4xx_hal_smbus.c ****     __HAL_SMBUS_DISABLE(hsmbus);
 500              		.loc 1 508 5
 501 002e 7B68     		ldr	r3, [r7, #4]
 502 0030 1B68     		ldr	r3, [r3]
 503 0032 1A68     		ldr	r2, [r3]
 504 0034 7B68     		ldr	r3, [r7, #4]
 505 0036 1B68     		ldr	r3, [r3]
 506 0038 22F00102 		bic	r2, r2, #1
 507 003c 1A60     		str	r2, [r3]
 509:Drivers/STM32L4xx_HAL_Driver/Src/stm32l4xx_hal_smbus.c **** 
 510:Drivers/STM32L4xx_HAL_Driver/Src/stm32l4xx_hal_smbus.c ****     /* Reset ANOFF bit */
 511:Drivers/STM32L4xx_HAL_Driver/Src/stm32l4xx_hal_smbus.c ****     hsmbus->Instance->CR1 &= ~(I2C_CR1_ANFOFF);
 508              		.loc 1 511 11
 509 003e 7B68     		ldr	r3, [r7, #4]
 510 0040 1B68     		ldr	r3, [r3]
 511              		.loc 1 511 21
 512 0042 1A68     		ldr	r2, [r3]
 513              		.loc 1 511 11
 514 0044 7B68     		ldr	r3, [r7, #4]
 515 0046 1B68     		ldr	r3, [r3]
 516              		.loc 1 511 27
ARM GAS  /tmp/ccysATpZ.s 			page 19


 517 0048 22F48052 		bic	r2, r2, #4096
 518 004c 1A60     		str	r2, [r3]
 512:Drivers/STM32L4xx_HAL_Driver/Src/stm32l4xx_hal_smbus.c **** 
 513:Drivers/STM32L4xx_HAL_Driver/Src/stm32l4xx_hal_smbus.c ****     /* Set analog filter bit*/
 514:Drivers/STM32L4xx_HAL_Driver/Src/stm32l4xx_hal_smbus.c ****     hsmbus->Instance->CR1 |= AnalogFilter;
 519              		.loc 1 514 11
 520 004e 7B68     		ldr	r3, [r7, #4]
 521 0050 1B68     		ldr	r3, [r3]
 522              		.loc 1 514 21
 523 0052 1968     		ldr	r1, [r3]
 524              		.loc 1 514 11
 525 0054 7B68     		ldr	r3, [r7, #4]
 526 0056 1B68     		ldr	r3, [r3]
 527              		.loc 1 514 27
 528 0058 3A68     		ldr	r2, [r7]
 529 005a 0A43     		orrs	r2, r2, r1
 530 005c 1A60     		str	r2, [r3]
 515:Drivers/STM32L4xx_HAL_Driver/Src/stm32l4xx_hal_smbus.c **** 
 516:Drivers/STM32L4xx_HAL_Driver/Src/stm32l4xx_hal_smbus.c ****     __HAL_SMBUS_ENABLE(hsmbus);
 531              		.loc 1 516 5
 532 005e 7B68     		ldr	r3, [r7, #4]
 533 0060 1B68     		ldr	r3, [r3]
 534 0062 1A68     		ldr	r2, [r3]
 535 0064 7B68     		ldr	r3, [r7, #4]
 536 0066 1B68     		ldr	r3, [r3]
 537 0068 42F00102 		orr	r2, r2, #1
 538 006c 1A60     		str	r2, [r3]
 517:Drivers/STM32L4xx_HAL_Driver/Src/stm32l4xx_hal_smbus.c **** 
 518:Drivers/STM32L4xx_HAL_Driver/Src/stm32l4xx_hal_smbus.c ****     hsmbus->State = HAL_SMBUS_STATE_READY;
 539              		.loc 1 518 19
 540 006e 7B68     		ldr	r3, [r7, #4]
 541 0070 0122     		movs	r2, #1
 542 0072 9A64     		str	r2, [r3, #72]
 519:Drivers/STM32L4xx_HAL_Driver/Src/stm32l4xx_hal_smbus.c **** 
 520:Drivers/STM32L4xx_HAL_Driver/Src/stm32l4xx_hal_smbus.c ****     /* Process Unlocked */
 521:Drivers/STM32L4xx_HAL_Driver/Src/stm32l4xx_hal_smbus.c ****     __HAL_UNLOCK(hsmbus);
 543              		.loc 1 521 5
 544 0074 7B68     		ldr	r3, [r7, #4]
 545 0076 0022     		movs	r2, #0
 546 0078 83F84420 		strb	r2, [r3, #68]
 522:Drivers/STM32L4xx_HAL_Driver/Src/stm32l4xx_hal_smbus.c **** 
 523:Drivers/STM32L4xx_HAL_Driver/Src/stm32l4xx_hal_smbus.c ****     return HAL_OK;
 547              		.loc 1 523 12
 548 007c 0023     		movs	r3, #0
 549 007e 00E0     		b	.L18
 550              	.L16:
 524:Drivers/STM32L4xx_HAL_Driver/Src/stm32l4xx_hal_smbus.c ****   }
 525:Drivers/STM32L4xx_HAL_Driver/Src/stm32l4xx_hal_smbus.c ****   else
 526:Drivers/STM32L4xx_HAL_Driver/Src/stm32l4xx_hal_smbus.c ****   {
 527:Drivers/STM32L4xx_HAL_Driver/Src/stm32l4xx_hal_smbus.c ****     return HAL_BUSY;
 551              		.loc 1 527 12
 552 0080 0223     		movs	r3, #2
 553              	.L18:
 528:Drivers/STM32L4xx_HAL_Driver/Src/stm32l4xx_hal_smbus.c ****   }
 529:Drivers/STM32L4xx_HAL_Driver/Src/stm32l4xx_hal_smbus.c **** }
 554              		.loc 1 529 1
 555 0082 1846     		mov	r0, r3
ARM GAS  /tmp/ccysATpZ.s 			page 20


 556 0084 0C37     		adds	r7, r7, #12
 557              		.cfi_def_cfa_offset 4
 558 0086 BD46     		mov	sp, r7
 559              		.cfi_def_cfa_register 13
 560              		@ sp needed
 561 0088 5DF8047B 		ldr	r7, [sp], #4
 562              		.cfi_restore 7
 563              		.cfi_def_cfa_offset 0
 564 008c 7047     		bx	lr
 565              		.cfi_endproc
 566              	.LFE449:
 568              		.section	.text.HAL_SMBUS_ConfigDigitalFilter,"ax",%progbits
 569              		.align	1
 570              		.global	HAL_SMBUS_ConfigDigitalFilter
 571              		.syntax unified
 572              		.thumb
 573              		.thumb_func
 575              	HAL_SMBUS_ConfigDigitalFilter:
 576              	.LFB450:
 530:Drivers/STM32L4xx_HAL_Driver/Src/stm32l4xx_hal_smbus.c **** 
 531:Drivers/STM32L4xx_HAL_Driver/Src/stm32l4xx_hal_smbus.c **** /**
 532:Drivers/STM32L4xx_HAL_Driver/Src/stm32l4xx_hal_smbus.c ****   * @brief  Configure Digital noise filter.
 533:Drivers/STM32L4xx_HAL_Driver/Src/stm32l4xx_hal_smbus.c ****   * @param  hsmbus Pointer to a SMBUS_HandleTypeDef structure that contains
 534:Drivers/STM32L4xx_HAL_Driver/Src/stm32l4xx_hal_smbus.c ****   *                the configuration information for the specified SMBUS.
 535:Drivers/STM32L4xx_HAL_Driver/Src/stm32l4xx_hal_smbus.c ****   * @param  DigitalFilter Coefficient of digital noise filter between Min_Data=0x00 and Max_Data=0x
 536:Drivers/STM32L4xx_HAL_Driver/Src/stm32l4xx_hal_smbus.c ****   * @retval HAL status
 537:Drivers/STM32L4xx_HAL_Driver/Src/stm32l4xx_hal_smbus.c ****   */
 538:Drivers/STM32L4xx_HAL_Driver/Src/stm32l4xx_hal_smbus.c **** HAL_StatusTypeDef HAL_SMBUS_ConfigDigitalFilter(SMBUS_HandleTypeDef *hsmbus, uint32_t DigitalFilter
 539:Drivers/STM32L4xx_HAL_Driver/Src/stm32l4xx_hal_smbus.c **** {
 577              		.loc 1 539 1
 578              		.cfi_startproc
 579              		@ args = 0, pretend = 0, frame = 16
 580              		@ frame_needed = 1, uses_anonymous_args = 0
 581              		@ link register save eliminated.
 582 0000 80B4     		push	{r7}
 583              		.cfi_def_cfa_offset 4
 584              		.cfi_offset 7, -4
 585 0002 85B0     		sub	sp, sp, #20
 586              		.cfi_def_cfa_offset 24
 587 0004 00AF     		add	r7, sp, #0
 588              		.cfi_def_cfa_register 7
 589 0006 7860     		str	r0, [r7, #4]
 590 0008 3960     		str	r1, [r7]
 540:Drivers/STM32L4xx_HAL_Driver/Src/stm32l4xx_hal_smbus.c ****   uint32_t tmpreg;
 541:Drivers/STM32L4xx_HAL_Driver/Src/stm32l4xx_hal_smbus.c **** 
 542:Drivers/STM32L4xx_HAL_Driver/Src/stm32l4xx_hal_smbus.c ****   /* Check the parameters */
 543:Drivers/STM32L4xx_HAL_Driver/Src/stm32l4xx_hal_smbus.c ****   assert_param(IS_SMBUS_ALL_INSTANCE(hsmbus->Instance));
 544:Drivers/STM32L4xx_HAL_Driver/Src/stm32l4xx_hal_smbus.c ****   assert_param(IS_SMBUS_DIGITAL_FILTER(DigitalFilter));
 545:Drivers/STM32L4xx_HAL_Driver/Src/stm32l4xx_hal_smbus.c **** 
 546:Drivers/STM32L4xx_HAL_Driver/Src/stm32l4xx_hal_smbus.c ****   if (hsmbus->State == HAL_SMBUS_STATE_READY)
 591              		.loc 1 546 13
 592 000a 7B68     		ldr	r3, [r7, #4]
 593 000c 9B6C     		ldr	r3, [r3, #72]
 594              		.loc 1 546 6
 595 000e 012B     		cmp	r3, #1
 596 0010 37D1     		bne	.L20
 547:Drivers/STM32L4xx_HAL_Driver/Src/stm32l4xx_hal_smbus.c ****   {
ARM GAS  /tmp/ccysATpZ.s 			page 21


 548:Drivers/STM32L4xx_HAL_Driver/Src/stm32l4xx_hal_smbus.c ****     /* Process Locked */
 549:Drivers/STM32L4xx_HAL_Driver/Src/stm32l4xx_hal_smbus.c ****     __HAL_LOCK(hsmbus);
 597              		.loc 1 549 5
 598 0012 7B68     		ldr	r3, [r7, #4]
 599 0014 93F84430 		ldrb	r3, [r3, #68]	@ zero_extendqisi2
 600 0018 012B     		cmp	r3, #1
 601 001a 01D1     		bne	.L21
 602              		.loc 1 549 5 is_stmt 0 discriminator 1
 603 001c 0223     		movs	r3, #2
 604              		.loc 1 549 5
 605 001e 31E0     		b	.L22
 606              	.L21:
 607              		.loc 1 549 5 discriminator 2
 608 0020 7B68     		ldr	r3, [r7, #4]
 609 0022 0122     		movs	r2, #1
 610 0024 83F84420 		strb	r2, [r3, #68]
 550:Drivers/STM32L4xx_HAL_Driver/Src/stm32l4xx_hal_smbus.c **** 
 551:Drivers/STM32L4xx_HAL_Driver/Src/stm32l4xx_hal_smbus.c ****     hsmbus->State = HAL_SMBUS_STATE_BUSY;
 611              		.loc 1 551 19 is_stmt 1
 612 0028 7B68     		ldr	r3, [r7, #4]
 613 002a 0222     		movs	r2, #2
 614 002c 9A64     		str	r2, [r3, #72]
 552:Drivers/STM32L4xx_HAL_Driver/Src/stm32l4xx_hal_smbus.c **** 
 553:Drivers/STM32L4xx_HAL_Driver/Src/stm32l4xx_hal_smbus.c ****     /* Disable the selected SMBUS peripheral */
 554:Drivers/STM32L4xx_HAL_Driver/Src/stm32l4xx_hal_smbus.c ****     __HAL_SMBUS_DISABLE(hsmbus);
 615              		.loc 1 554 5
 616 002e 7B68     		ldr	r3, [r7, #4]
 617 0030 1B68     		ldr	r3, [r3]
 618 0032 1A68     		ldr	r2, [r3]
 619 0034 7B68     		ldr	r3, [r7, #4]
 620 0036 1B68     		ldr	r3, [r3]
 621 0038 22F00102 		bic	r2, r2, #1
 622 003c 1A60     		str	r2, [r3]
 555:Drivers/STM32L4xx_HAL_Driver/Src/stm32l4xx_hal_smbus.c **** 
 556:Drivers/STM32L4xx_HAL_Driver/Src/stm32l4xx_hal_smbus.c ****     /* Get the old register value */
 557:Drivers/STM32L4xx_HAL_Driver/Src/stm32l4xx_hal_smbus.c ****     tmpreg = hsmbus->Instance->CR1;
 623              		.loc 1 557 20
 624 003e 7B68     		ldr	r3, [r7, #4]
 625 0040 1B68     		ldr	r3, [r3]
 626              		.loc 1 557 12
 627 0042 1B68     		ldr	r3, [r3]
 628 0044 FB60     		str	r3, [r7, #12]
 558:Drivers/STM32L4xx_HAL_Driver/Src/stm32l4xx_hal_smbus.c **** 
 559:Drivers/STM32L4xx_HAL_Driver/Src/stm32l4xx_hal_smbus.c ****     /* Reset I2C DNF bits [11:8] */
 560:Drivers/STM32L4xx_HAL_Driver/Src/stm32l4xx_hal_smbus.c ****     tmpreg &= ~(I2C_CR1_DNF);
 629              		.loc 1 560 12
 630 0046 FB68     		ldr	r3, [r7, #12]
 631 0048 23F47063 		bic	r3, r3, #3840
 632 004c FB60     		str	r3, [r7, #12]
 561:Drivers/STM32L4xx_HAL_Driver/Src/stm32l4xx_hal_smbus.c **** 
 562:Drivers/STM32L4xx_HAL_Driver/Src/stm32l4xx_hal_smbus.c ****     /* Set I2Cx DNF coefficient */
 563:Drivers/STM32L4xx_HAL_Driver/Src/stm32l4xx_hal_smbus.c ****     tmpreg |= DigitalFilter << I2C_CR1_DNF_Pos;
 633              		.loc 1 563 29
 634 004e 3B68     		ldr	r3, [r7]
 635 0050 1B02     		lsls	r3, r3, #8
 636              		.loc 1 563 12
 637 0052 FA68     		ldr	r2, [r7, #12]
ARM GAS  /tmp/ccysATpZ.s 			page 22


 638 0054 1343     		orrs	r3, r3, r2
 639 0056 FB60     		str	r3, [r7, #12]
 564:Drivers/STM32L4xx_HAL_Driver/Src/stm32l4xx_hal_smbus.c **** 
 565:Drivers/STM32L4xx_HAL_Driver/Src/stm32l4xx_hal_smbus.c ****     /* Store the new register value */
 566:Drivers/STM32L4xx_HAL_Driver/Src/stm32l4xx_hal_smbus.c ****     hsmbus->Instance->CR1 = tmpreg;
 640              		.loc 1 566 11
 641 0058 7B68     		ldr	r3, [r7, #4]
 642 005a 1B68     		ldr	r3, [r3]
 643              		.loc 1 566 27
 644 005c FA68     		ldr	r2, [r7, #12]
 645 005e 1A60     		str	r2, [r3]
 567:Drivers/STM32L4xx_HAL_Driver/Src/stm32l4xx_hal_smbus.c **** 
 568:Drivers/STM32L4xx_HAL_Driver/Src/stm32l4xx_hal_smbus.c ****     __HAL_SMBUS_ENABLE(hsmbus);
 646              		.loc 1 568 5
 647 0060 7B68     		ldr	r3, [r7, #4]
 648 0062 1B68     		ldr	r3, [r3]
 649 0064 1A68     		ldr	r2, [r3]
 650 0066 7B68     		ldr	r3, [r7, #4]
 651 0068 1B68     		ldr	r3, [r3]
 652 006a 42F00102 		orr	r2, r2, #1
 653 006e 1A60     		str	r2, [r3]
 569:Drivers/STM32L4xx_HAL_Driver/Src/stm32l4xx_hal_smbus.c **** 
 570:Drivers/STM32L4xx_HAL_Driver/Src/stm32l4xx_hal_smbus.c ****     hsmbus->State = HAL_SMBUS_STATE_READY;
 654              		.loc 1 570 19
 655 0070 7B68     		ldr	r3, [r7, #4]
 656 0072 0122     		movs	r2, #1
 657 0074 9A64     		str	r2, [r3, #72]
 571:Drivers/STM32L4xx_HAL_Driver/Src/stm32l4xx_hal_smbus.c **** 
 572:Drivers/STM32L4xx_HAL_Driver/Src/stm32l4xx_hal_smbus.c ****     /* Process Unlocked */
 573:Drivers/STM32L4xx_HAL_Driver/Src/stm32l4xx_hal_smbus.c ****     __HAL_UNLOCK(hsmbus);
 658              		.loc 1 573 5
 659 0076 7B68     		ldr	r3, [r7, #4]
 660 0078 0022     		movs	r2, #0
 661 007a 83F84420 		strb	r2, [r3, #68]
 574:Drivers/STM32L4xx_HAL_Driver/Src/stm32l4xx_hal_smbus.c **** 
 575:Drivers/STM32L4xx_HAL_Driver/Src/stm32l4xx_hal_smbus.c ****     return HAL_OK;
 662              		.loc 1 575 12
 663 007e 0023     		movs	r3, #0
 664 0080 00E0     		b	.L22
 665              	.L20:
 576:Drivers/STM32L4xx_HAL_Driver/Src/stm32l4xx_hal_smbus.c ****   }
 577:Drivers/STM32L4xx_HAL_Driver/Src/stm32l4xx_hal_smbus.c ****   else
 578:Drivers/STM32L4xx_HAL_Driver/Src/stm32l4xx_hal_smbus.c ****   {
 579:Drivers/STM32L4xx_HAL_Driver/Src/stm32l4xx_hal_smbus.c ****     return HAL_BUSY;
 666              		.loc 1 579 12
 667 0082 0223     		movs	r3, #2
 668              	.L22:
 580:Drivers/STM32L4xx_HAL_Driver/Src/stm32l4xx_hal_smbus.c ****   }
 581:Drivers/STM32L4xx_HAL_Driver/Src/stm32l4xx_hal_smbus.c **** }
 669              		.loc 1 581 1
 670 0084 1846     		mov	r0, r3
 671 0086 1437     		adds	r7, r7, #20
 672              		.cfi_def_cfa_offset 4
 673 0088 BD46     		mov	sp, r7
 674              		.cfi_def_cfa_register 13
 675              		@ sp needed
 676 008a 5DF8047B 		ldr	r7, [sp], #4
ARM GAS  /tmp/ccysATpZ.s 			page 23


 677              		.cfi_restore 7
 678              		.cfi_def_cfa_offset 0
 679 008e 7047     		bx	lr
 680              		.cfi_endproc
 681              	.LFE450:
 683              		.section	.text.HAL_SMBUS_Master_Transmit_IT,"ax",%progbits
 684              		.align	1
 685              		.global	HAL_SMBUS_Master_Transmit_IT
 686              		.syntax unified
 687              		.thumb
 688              		.thumb_func
 690              	HAL_SMBUS_Master_Transmit_IT:
 691              	.LFB451:
 582:Drivers/STM32L4xx_HAL_Driver/Src/stm32l4xx_hal_smbus.c **** 
 583:Drivers/STM32L4xx_HAL_Driver/Src/stm32l4xx_hal_smbus.c **** #if (USE_HAL_SMBUS_REGISTER_CALLBACKS == 1)
 584:Drivers/STM32L4xx_HAL_Driver/Src/stm32l4xx_hal_smbus.c **** /**
 585:Drivers/STM32L4xx_HAL_Driver/Src/stm32l4xx_hal_smbus.c ****   * @brief  Register a User SMBUS Callback
 586:Drivers/STM32L4xx_HAL_Driver/Src/stm32l4xx_hal_smbus.c ****   *         To be used instead of the weak predefined callback
 587:Drivers/STM32L4xx_HAL_Driver/Src/stm32l4xx_hal_smbus.c ****   * @note   The HAL_SMBUS_RegisterCallback() may be called before HAL_SMBUS_Init() in
 588:Drivers/STM32L4xx_HAL_Driver/Src/stm32l4xx_hal_smbus.c ****   *         HAL_SMBUS_STATE_RESET to register callbacks for HAL_SMBUS_MSPINIT_CB_ID and
 589:Drivers/STM32L4xx_HAL_Driver/Src/stm32l4xx_hal_smbus.c ****   *         HAL_SMBUS_MSPDEINIT_CB_ID.
 590:Drivers/STM32L4xx_HAL_Driver/Src/stm32l4xx_hal_smbus.c ****   * @param  hsmbus Pointer to a SMBUS_HandleTypeDef structure that contains
 591:Drivers/STM32L4xx_HAL_Driver/Src/stm32l4xx_hal_smbus.c ****   *                the configuration information for the specified SMBUS.
 592:Drivers/STM32L4xx_HAL_Driver/Src/stm32l4xx_hal_smbus.c ****   * @param  CallbackID ID of the callback to be registered
 593:Drivers/STM32L4xx_HAL_Driver/Src/stm32l4xx_hal_smbus.c ****   *         This parameter can be one of the following values:
 594:Drivers/STM32L4xx_HAL_Driver/Src/stm32l4xx_hal_smbus.c ****   *          @arg @ref HAL_SMBUS_MASTER_TX_COMPLETE_CB_ID Master Tx Transfer completed callback ID
 595:Drivers/STM32L4xx_HAL_Driver/Src/stm32l4xx_hal_smbus.c ****   *          @arg @ref HAL_SMBUS_MASTER_RX_COMPLETE_CB_ID Master Rx Transfer completed callback ID
 596:Drivers/STM32L4xx_HAL_Driver/Src/stm32l4xx_hal_smbus.c ****   *          @arg @ref HAL_SMBUS_SLAVE_TX_COMPLETE_CB_ID Slave Tx Transfer completed callback ID
 597:Drivers/STM32L4xx_HAL_Driver/Src/stm32l4xx_hal_smbus.c ****   *          @arg @ref HAL_SMBUS_SLAVE_RX_COMPLETE_CB_ID Slave Rx Transfer completed callback ID
 598:Drivers/STM32L4xx_HAL_Driver/Src/stm32l4xx_hal_smbus.c ****   *          @arg @ref HAL_SMBUS_LISTEN_COMPLETE_CB_ID Listen Complete callback ID
 599:Drivers/STM32L4xx_HAL_Driver/Src/stm32l4xx_hal_smbus.c ****   *          @arg @ref HAL_SMBUS_ERROR_CB_ID Error callback ID
 600:Drivers/STM32L4xx_HAL_Driver/Src/stm32l4xx_hal_smbus.c ****   *          @arg @ref HAL_SMBUS_MSPINIT_CB_ID MspInit callback ID
 601:Drivers/STM32L4xx_HAL_Driver/Src/stm32l4xx_hal_smbus.c ****   *          @arg @ref HAL_SMBUS_MSPDEINIT_CB_ID MspDeInit callback ID
 602:Drivers/STM32L4xx_HAL_Driver/Src/stm32l4xx_hal_smbus.c ****   * @param  pCallback pointer to the Callback function
 603:Drivers/STM32L4xx_HAL_Driver/Src/stm32l4xx_hal_smbus.c ****   * @retval HAL status
 604:Drivers/STM32L4xx_HAL_Driver/Src/stm32l4xx_hal_smbus.c ****   */
 605:Drivers/STM32L4xx_HAL_Driver/Src/stm32l4xx_hal_smbus.c **** HAL_StatusTypeDef HAL_SMBUS_RegisterCallback(SMBUS_HandleTypeDef *hsmbus,
 606:Drivers/STM32L4xx_HAL_Driver/Src/stm32l4xx_hal_smbus.c ****                                              HAL_SMBUS_CallbackIDTypeDef CallbackID,
 607:Drivers/STM32L4xx_HAL_Driver/Src/stm32l4xx_hal_smbus.c ****                                              pSMBUS_CallbackTypeDef pCallback)
 608:Drivers/STM32L4xx_HAL_Driver/Src/stm32l4xx_hal_smbus.c **** {
 609:Drivers/STM32L4xx_HAL_Driver/Src/stm32l4xx_hal_smbus.c ****   HAL_StatusTypeDef status = HAL_OK;
 610:Drivers/STM32L4xx_HAL_Driver/Src/stm32l4xx_hal_smbus.c **** 
 611:Drivers/STM32L4xx_HAL_Driver/Src/stm32l4xx_hal_smbus.c ****   if (pCallback == NULL)
 612:Drivers/STM32L4xx_HAL_Driver/Src/stm32l4xx_hal_smbus.c ****   {
 613:Drivers/STM32L4xx_HAL_Driver/Src/stm32l4xx_hal_smbus.c ****     /* Update the error code */
 614:Drivers/STM32L4xx_HAL_Driver/Src/stm32l4xx_hal_smbus.c ****     hsmbus->ErrorCode |= HAL_SMBUS_ERROR_INVALID_CALLBACK;
 615:Drivers/STM32L4xx_HAL_Driver/Src/stm32l4xx_hal_smbus.c **** 
 616:Drivers/STM32L4xx_HAL_Driver/Src/stm32l4xx_hal_smbus.c ****     return HAL_ERROR;
 617:Drivers/STM32L4xx_HAL_Driver/Src/stm32l4xx_hal_smbus.c ****   }
 618:Drivers/STM32L4xx_HAL_Driver/Src/stm32l4xx_hal_smbus.c **** 
 619:Drivers/STM32L4xx_HAL_Driver/Src/stm32l4xx_hal_smbus.c ****   if (HAL_SMBUS_STATE_READY == hsmbus->State)
 620:Drivers/STM32L4xx_HAL_Driver/Src/stm32l4xx_hal_smbus.c ****   {
 621:Drivers/STM32L4xx_HAL_Driver/Src/stm32l4xx_hal_smbus.c ****     switch (CallbackID)
 622:Drivers/STM32L4xx_HAL_Driver/Src/stm32l4xx_hal_smbus.c ****     {
 623:Drivers/STM32L4xx_HAL_Driver/Src/stm32l4xx_hal_smbus.c ****       case HAL_SMBUS_MASTER_TX_COMPLETE_CB_ID :
 624:Drivers/STM32L4xx_HAL_Driver/Src/stm32l4xx_hal_smbus.c ****         hsmbus->MasterTxCpltCallback = pCallback;
 625:Drivers/STM32L4xx_HAL_Driver/Src/stm32l4xx_hal_smbus.c ****         break;
ARM GAS  /tmp/ccysATpZ.s 			page 24


 626:Drivers/STM32L4xx_HAL_Driver/Src/stm32l4xx_hal_smbus.c **** 
 627:Drivers/STM32L4xx_HAL_Driver/Src/stm32l4xx_hal_smbus.c ****       case HAL_SMBUS_MASTER_RX_COMPLETE_CB_ID :
 628:Drivers/STM32L4xx_HAL_Driver/Src/stm32l4xx_hal_smbus.c ****         hsmbus->MasterRxCpltCallback = pCallback;
 629:Drivers/STM32L4xx_HAL_Driver/Src/stm32l4xx_hal_smbus.c ****         break;
 630:Drivers/STM32L4xx_HAL_Driver/Src/stm32l4xx_hal_smbus.c **** 
 631:Drivers/STM32L4xx_HAL_Driver/Src/stm32l4xx_hal_smbus.c ****       case HAL_SMBUS_SLAVE_TX_COMPLETE_CB_ID :
 632:Drivers/STM32L4xx_HAL_Driver/Src/stm32l4xx_hal_smbus.c ****         hsmbus->SlaveTxCpltCallback = pCallback;
 633:Drivers/STM32L4xx_HAL_Driver/Src/stm32l4xx_hal_smbus.c ****         break;
 634:Drivers/STM32L4xx_HAL_Driver/Src/stm32l4xx_hal_smbus.c **** 
 635:Drivers/STM32L4xx_HAL_Driver/Src/stm32l4xx_hal_smbus.c ****       case HAL_SMBUS_SLAVE_RX_COMPLETE_CB_ID :
 636:Drivers/STM32L4xx_HAL_Driver/Src/stm32l4xx_hal_smbus.c ****         hsmbus->SlaveRxCpltCallback = pCallback;
 637:Drivers/STM32L4xx_HAL_Driver/Src/stm32l4xx_hal_smbus.c ****         break;
 638:Drivers/STM32L4xx_HAL_Driver/Src/stm32l4xx_hal_smbus.c **** 
 639:Drivers/STM32L4xx_HAL_Driver/Src/stm32l4xx_hal_smbus.c ****       case HAL_SMBUS_LISTEN_COMPLETE_CB_ID :
 640:Drivers/STM32L4xx_HAL_Driver/Src/stm32l4xx_hal_smbus.c ****         hsmbus->ListenCpltCallback = pCallback;
 641:Drivers/STM32L4xx_HAL_Driver/Src/stm32l4xx_hal_smbus.c ****         break;
 642:Drivers/STM32L4xx_HAL_Driver/Src/stm32l4xx_hal_smbus.c **** 
 643:Drivers/STM32L4xx_HAL_Driver/Src/stm32l4xx_hal_smbus.c ****       case HAL_SMBUS_ERROR_CB_ID :
 644:Drivers/STM32L4xx_HAL_Driver/Src/stm32l4xx_hal_smbus.c ****         hsmbus->ErrorCallback = pCallback;
 645:Drivers/STM32L4xx_HAL_Driver/Src/stm32l4xx_hal_smbus.c ****         break;
 646:Drivers/STM32L4xx_HAL_Driver/Src/stm32l4xx_hal_smbus.c **** 
 647:Drivers/STM32L4xx_HAL_Driver/Src/stm32l4xx_hal_smbus.c ****       case HAL_SMBUS_MSPINIT_CB_ID :
 648:Drivers/STM32L4xx_HAL_Driver/Src/stm32l4xx_hal_smbus.c ****         hsmbus->MspInitCallback = pCallback;
 649:Drivers/STM32L4xx_HAL_Driver/Src/stm32l4xx_hal_smbus.c ****         break;
 650:Drivers/STM32L4xx_HAL_Driver/Src/stm32l4xx_hal_smbus.c **** 
 651:Drivers/STM32L4xx_HAL_Driver/Src/stm32l4xx_hal_smbus.c ****       case HAL_SMBUS_MSPDEINIT_CB_ID :
 652:Drivers/STM32L4xx_HAL_Driver/Src/stm32l4xx_hal_smbus.c ****         hsmbus->MspDeInitCallback = pCallback;
 653:Drivers/STM32L4xx_HAL_Driver/Src/stm32l4xx_hal_smbus.c ****         break;
 654:Drivers/STM32L4xx_HAL_Driver/Src/stm32l4xx_hal_smbus.c **** 
 655:Drivers/STM32L4xx_HAL_Driver/Src/stm32l4xx_hal_smbus.c ****       default :
 656:Drivers/STM32L4xx_HAL_Driver/Src/stm32l4xx_hal_smbus.c ****         /* Update the error code */
 657:Drivers/STM32L4xx_HAL_Driver/Src/stm32l4xx_hal_smbus.c ****         hsmbus->ErrorCode |= HAL_SMBUS_ERROR_INVALID_CALLBACK;
 658:Drivers/STM32L4xx_HAL_Driver/Src/stm32l4xx_hal_smbus.c **** 
 659:Drivers/STM32L4xx_HAL_Driver/Src/stm32l4xx_hal_smbus.c ****         /* Return error status */
 660:Drivers/STM32L4xx_HAL_Driver/Src/stm32l4xx_hal_smbus.c ****         status =  HAL_ERROR;
 661:Drivers/STM32L4xx_HAL_Driver/Src/stm32l4xx_hal_smbus.c ****         break;
 662:Drivers/STM32L4xx_HAL_Driver/Src/stm32l4xx_hal_smbus.c ****     }
 663:Drivers/STM32L4xx_HAL_Driver/Src/stm32l4xx_hal_smbus.c ****   }
 664:Drivers/STM32L4xx_HAL_Driver/Src/stm32l4xx_hal_smbus.c ****   else if (HAL_SMBUS_STATE_RESET == hsmbus->State)
 665:Drivers/STM32L4xx_HAL_Driver/Src/stm32l4xx_hal_smbus.c ****   {
 666:Drivers/STM32L4xx_HAL_Driver/Src/stm32l4xx_hal_smbus.c ****     switch (CallbackID)
 667:Drivers/STM32L4xx_HAL_Driver/Src/stm32l4xx_hal_smbus.c ****     {
 668:Drivers/STM32L4xx_HAL_Driver/Src/stm32l4xx_hal_smbus.c ****       case HAL_SMBUS_MSPINIT_CB_ID :
 669:Drivers/STM32L4xx_HAL_Driver/Src/stm32l4xx_hal_smbus.c ****         hsmbus->MspInitCallback = pCallback;
 670:Drivers/STM32L4xx_HAL_Driver/Src/stm32l4xx_hal_smbus.c ****         break;
 671:Drivers/STM32L4xx_HAL_Driver/Src/stm32l4xx_hal_smbus.c **** 
 672:Drivers/STM32L4xx_HAL_Driver/Src/stm32l4xx_hal_smbus.c ****       case HAL_SMBUS_MSPDEINIT_CB_ID :
 673:Drivers/STM32L4xx_HAL_Driver/Src/stm32l4xx_hal_smbus.c ****         hsmbus->MspDeInitCallback = pCallback;
 674:Drivers/STM32L4xx_HAL_Driver/Src/stm32l4xx_hal_smbus.c ****         break;
 675:Drivers/STM32L4xx_HAL_Driver/Src/stm32l4xx_hal_smbus.c **** 
 676:Drivers/STM32L4xx_HAL_Driver/Src/stm32l4xx_hal_smbus.c ****       default :
 677:Drivers/STM32L4xx_HAL_Driver/Src/stm32l4xx_hal_smbus.c ****         /* Update the error code */
 678:Drivers/STM32L4xx_HAL_Driver/Src/stm32l4xx_hal_smbus.c ****         hsmbus->ErrorCode |= HAL_SMBUS_ERROR_INVALID_CALLBACK;
 679:Drivers/STM32L4xx_HAL_Driver/Src/stm32l4xx_hal_smbus.c **** 
 680:Drivers/STM32L4xx_HAL_Driver/Src/stm32l4xx_hal_smbus.c ****         /* Return error status */
 681:Drivers/STM32L4xx_HAL_Driver/Src/stm32l4xx_hal_smbus.c ****         status =  HAL_ERROR;
 682:Drivers/STM32L4xx_HAL_Driver/Src/stm32l4xx_hal_smbus.c ****         break;
ARM GAS  /tmp/ccysATpZ.s 			page 25


 683:Drivers/STM32L4xx_HAL_Driver/Src/stm32l4xx_hal_smbus.c ****     }
 684:Drivers/STM32L4xx_HAL_Driver/Src/stm32l4xx_hal_smbus.c ****   }
 685:Drivers/STM32L4xx_HAL_Driver/Src/stm32l4xx_hal_smbus.c ****   else
 686:Drivers/STM32L4xx_HAL_Driver/Src/stm32l4xx_hal_smbus.c ****   {
 687:Drivers/STM32L4xx_HAL_Driver/Src/stm32l4xx_hal_smbus.c ****     /* Update the error code */
 688:Drivers/STM32L4xx_HAL_Driver/Src/stm32l4xx_hal_smbus.c ****     hsmbus->ErrorCode |= HAL_SMBUS_ERROR_INVALID_CALLBACK;
 689:Drivers/STM32L4xx_HAL_Driver/Src/stm32l4xx_hal_smbus.c **** 
 690:Drivers/STM32L4xx_HAL_Driver/Src/stm32l4xx_hal_smbus.c ****     /* Return error status */
 691:Drivers/STM32L4xx_HAL_Driver/Src/stm32l4xx_hal_smbus.c ****     status =  HAL_ERROR;
 692:Drivers/STM32L4xx_HAL_Driver/Src/stm32l4xx_hal_smbus.c ****   }
 693:Drivers/STM32L4xx_HAL_Driver/Src/stm32l4xx_hal_smbus.c **** 
 694:Drivers/STM32L4xx_HAL_Driver/Src/stm32l4xx_hal_smbus.c ****   return status;
 695:Drivers/STM32L4xx_HAL_Driver/Src/stm32l4xx_hal_smbus.c **** }
 696:Drivers/STM32L4xx_HAL_Driver/Src/stm32l4xx_hal_smbus.c **** 
 697:Drivers/STM32L4xx_HAL_Driver/Src/stm32l4xx_hal_smbus.c **** /**
 698:Drivers/STM32L4xx_HAL_Driver/Src/stm32l4xx_hal_smbus.c ****   * @brief  Unregister an SMBUS Callback
 699:Drivers/STM32L4xx_HAL_Driver/Src/stm32l4xx_hal_smbus.c ****   *         SMBUS callback is redirected to the weak predefined callback
 700:Drivers/STM32L4xx_HAL_Driver/Src/stm32l4xx_hal_smbus.c ****   * @note   The HAL_SMBUS_UnRegisterCallback() may be called before HAL_SMBUS_Init() in
 701:Drivers/STM32L4xx_HAL_Driver/Src/stm32l4xx_hal_smbus.c ****   *         HAL_SMBUS_STATE_RESET to un-register callbacks for HAL_SMBUS_MSPINIT_CB_ID and
 702:Drivers/STM32L4xx_HAL_Driver/Src/stm32l4xx_hal_smbus.c ****   *         HAL_SMBUS_MSPDEINIT_CB_ID
 703:Drivers/STM32L4xx_HAL_Driver/Src/stm32l4xx_hal_smbus.c ****   * @param  hsmbus Pointer to a SMBUS_HandleTypeDef structure that contains
 704:Drivers/STM32L4xx_HAL_Driver/Src/stm32l4xx_hal_smbus.c ****   *                the configuration information for the specified SMBUS.
 705:Drivers/STM32L4xx_HAL_Driver/Src/stm32l4xx_hal_smbus.c ****   * @param  CallbackID ID of the callback to be unregistered
 706:Drivers/STM32L4xx_HAL_Driver/Src/stm32l4xx_hal_smbus.c ****   *         This parameter can be one of the following values:
 707:Drivers/STM32L4xx_HAL_Driver/Src/stm32l4xx_hal_smbus.c ****   *         This parameter can be one of the following values:
 708:Drivers/STM32L4xx_HAL_Driver/Src/stm32l4xx_hal_smbus.c ****   *          @arg @ref HAL_SMBUS_MASTER_TX_COMPLETE_CB_ID Master Tx Transfer completed callback ID
 709:Drivers/STM32L4xx_HAL_Driver/Src/stm32l4xx_hal_smbus.c ****   *          @arg @ref HAL_SMBUS_MASTER_RX_COMPLETE_CB_ID Master Rx Transfer completed callback ID
 710:Drivers/STM32L4xx_HAL_Driver/Src/stm32l4xx_hal_smbus.c ****   *          @arg @ref HAL_SMBUS_SLAVE_TX_COMPLETE_CB_ID Slave Tx Transfer completed callback ID
 711:Drivers/STM32L4xx_HAL_Driver/Src/stm32l4xx_hal_smbus.c ****   *          @arg @ref HAL_SMBUS_SLAVE_RX_COMPLETE_CB_ID Slave Rx Transfer completed callback ID
 712:Drivers/STM32L4xx_HAL_Driver/Src/stm32l4xx_hal_smbus.c ****   *          @arg @ref HAL_SMBUS_LISTEN_COMPLETE_CB_ID Listen Complete callback ID
 713:Drivers/STM32L4xx_HAL_Driver/Src/stm32l4xx_hal_smbus.c ****   *          @arg @ref HAL_SMBUS_ERROR_CB_ID Error callback ID
 714:Drivers/STM32L4xx_HAL_Driver/Src/stm32l4xx_hal_smbus.c ****   *          @arg @ref HAL_SMBUS_MSPINIT_CB_ID MspInit callback ID
 715:Drivers/STM32L4xx_HAL_Driver/Src/stm32l4xx_hal_smbus.c ****   *          @arg @ref HAL_SMBUS_MSPDEINIT_CB_ID MspDeInit callback ID
 716:Drivers/STM32L4xx_HAL_Driver/Src/stm32l4xx_hal_smbus.c ****   * @retval HAL status
 717:Drivers/STM32L4xx_HAL_Driver/Src/stm32l4xx_hal_smbus.c ****   */
 718:Drivers/STM32L4xx_HAL_Driver/Src/stm32l4xx_hal_smbus.c **** HAL_StatusTypeDef HAL_SMBUS_UnRegisterCallback(SMBUS_HandleTypeDef *hsmbus,
 719:Drivers/STM32L4xx_HAL_Driver/Src/stm32l4xx_hal_smbus.c ****                                                HAL_SMBUS_CallbackIDTypeDef CallbackID)
 720:Drivers/STM32L4xx_HAL_Driver/Src/stm32l4xx_hal_smbus.c **** {
 721:Drivers/STM32L4xx_HAL_Driver/Src/stm32l4xx_hal_smbus.c ****   HAL_StatusTypeDef status = HAL_OK;
 722:Drivers/STM32L4xx_HAL_Driver/Src/stm32l4xx_hal_smbus.c **** 
 723:Drivers/STM32L4xx_HAL_Driver/Src/stm32l4xx_hal_smbus.c ****   if (HAL_SMBUS_STATE_READY == hsmbus->State)
 724:Drivers/STM32L4xx_HAL_Driver/Src/stm32l4xx_hal_smbus.c ****   {
 725:Drivers/STM32L4xx_HAL_Driver/Src/stm32l4xx_hal_smbus.c ****     switch (CallbackID)
 726:Drivers/STM32L4xx_HAL_Driver/Src/stm32l4xx_hal_smbus.c ****     {
 727:Drivers/STM32L4xx_HAL_Driver/Src/stm32l4xx_hal_smbus.c ****       case HAL_SMBUS_MASTER_TX_COMPLETE_CB_ID :
 728:Drivers/STM32L4xx_HAL_Driver/Src/stm32l4xx_hal_smbus.c ****         hsmbus->MasterTxCpltCallback = HAL_SMBUS_MasterTxCpltCallback; /* Legacy weak MasterTxCpltC
 729:Drivers/STM32L4xx_HAL_Driver/Src/stm32l4xx_hal_smbus.c ****         break;
 730:Drivers/STM32L4xx_HAL_Driver/Src/stm32l4xx_hal_smbus.c **** 
 731:Drivers/STM32L4xx_HAL_Driver/Src/stm32l4xx_hal_smbus.c ****       case HAL_SMBUS_MASTER_RX_COMPLETE_CB_ID :
 732:Drivers/STM32L4xx_HAL_Driver/Src/stm32l4xx_hal_smbus.c ****         hsmbus->MasterRxCpltCallback = HAL_SMBUS_MasterRxCpltCallback; /* Legacy weak MasterRxCpltC
 733:Drivers/STM32L4xx_HAL_Driver/Src/stm32l4xx_hal_smbus.c ****         break;
 734:Drivers/STM32L4xx_HAL_Driver/Src/stm32l4xx_hal_smbus.c **** 
 735:Drivers/STM32L4xx_HAL_Driver/Src/stm32l4xx_hal_smbus.c ****       case HAL_SMBUS_SLAVE_TX_COMPLETE_CB_ID :
 736:Drivers/STM32L4xx_HAL_Driver/Src/stm32l4xx_hal_smbus.c ****         hsmbus->SlaveTxCpltCallback = HAL_SMBUS_SlaveTxCpltCallback;   /* Legacy weak SlaveTxCpltCa
 737:Drivers/STM32L4xx_HAL_Driver/Src/stm32l4xx_hal_smbus.c ****         break;
 738:Drivers/STM32L4xx_HAL_Driver/Src/stm32l4xx_hal_smbus.c **** 
 739:Drivers/STM32L4xx_HAL_Driver/Src/stm32l4xx_hal_smbus.c ****       case HAL_SMBUS_SLAVE_RX_COMPLETE_CB_ID :
ARM GAS  /tmp/ccysATpZ.s 			page 26


 740:Drivers/STM32L4xx_HAL_Driver/Src/stm32l4xx_hal_smbus.c ****         hsmbus->SlaveRxCpltCallback = HAL_SMBUS_SlaveRxCpltCallback;   /* Legacy weak SlaveRxCpltCa
 741:Drivers/STM32L4xx_HAL_Driver/Src/stm32l4xx_hal_smbus.c ****         break;
 742:Drivers/STM32L4xx_HAL_Driver/Src/stm32l4xx_hal_smbus.c **** 
 743:Drivers/STM32L4xx_HAL_Driver/Src/stm32l4xx_hal_smbus.c ****       case HAL_SMBUS_LISTEN_COMPLETE_CB_ID :
 744:Drivers/STM32L4xx_HAL_Driver/Src/stm32l4xx_hal_smbus.c ****         hsmbus->ListenCpltCallback = HAL_SMBUS_ListenCpltCallback;     /* Legacy weak ListenCpltCal
 745:Drivers/STM32L4xx_HAL_Driver/Src/stm32l4xx_hal_smbus.c ****         break;
 746:Drivers/STM32L4xx_HAL_Driver/Src/stm32l4xx_hal_smbus.c **** 
 747:Drivers/STM32L4xx_HAL_Driver/Src/stm32l4xx_hal_smbus.c ****       case HAL_SMBUS_ERROR_CB_ID :
 748:Drivers/STM32L4xx_HAL_Driver/Src/stm32l4xx_hal_smbus.c ****         hsmbus->ErrorCallback = HAL_SMBUS_ErrorCallback;               /* Legacy weak ErrorCallback
 749:Drivers/STM32L4xx_HAL_Driver/Src/stm32l4xx_hal_smbus.c ****         break;
 750:Drivers/STM32L4xx_HAL_Driver/Src/stm32l4xx_hal_smbus.c **** 
 751:Drivers/STM32L4xx_HAL_Driver/Src/stm32l4xx_hal_smbus.c ****       case HAL_SMBUS_MSPINIT_CB_ID :
 752:Drivers/STM32L4xx_HAL_Driver/Src/stm32l4xx_hal_smbus.c ****         hsmbus->MspInitCallback = HAL_SMBUS_MspInit;                   /* Legacy weak MspInit      
 753:Drivers/STM32L4xx_HAL_Driver/Src/stm32l4xx_hal_smbus.c ****         break;
 754:Drivers/STM32L4xx_HAL_Driver/Src/stm32l4xx_hal_smbus.c **** 
 755:Drivers/STM32L4xx_HAL_Driver/Src/stm32l4xx_hal_smbus.c ****       case HAL_SMBUS_MSPDEINIT_CB_ID :
 756:Drivers/STM32L4xx_HAL_Driver/Src/stm32l4xx_hal_smbus.c ****         hsmbus->MspDeInitCallback = HAL_SMBUS_MspDeInit;               /* Legacy weak MspDeInit    
 757:Drivers/STM32L4xx_HAL_Driver/Src/stm32l4xx_hal_smbus.c ****         break;
 758:Drivers/STM32L4xx_HAL_Driver/Src/stm32l4xx_hal_smbus.c **** 
 759:Drivers/STM32L4xx_HAL_Driver/Src/stm32l4xx_hal_smbus.c ****       default :
 760:Drivers/STM32L4xx_HAL_Driver/Src/stm32l4xx_hal_smbus.c ****         /* Update the error code */
 761:Drivers/STM32L4xx_HAL_Driver/Src/stm32l4xx_hal_smbus.c ****         hsmbus->ErrorCode |= HAL_SMBUS_ERROR_INVALID_CALLBACK;
 762:Drivers/STM32L4xx_HAL_Driver/Src/stm32l4xx_hal_smbus.c **** 
 763:Drivers/STM32L4xx_HAL_Driver/Src/stm32l4xx_hal_smbus.c ****         /* Return error status */
 764:Drivers/STM32L4xx_HAL_Driver/Src/stm32l4xx_hal_smbus.c ****         status =  HAL_ERROR;
 765:Drivers/STM32L4xx_HAL_Driver/Src/stm32l4xx_hal_smbus.c ****         break;
 766:Drivers/STM32L4xx_HAL_Driver/Src/stm32l4xx_hal_smbus.c ****     }
 767:Drivers/STM32L4xx_HAL_Driver/Src/stm32l4xx_hal_smbus.c ****   }
 768:Drivers/STM32L4xx_HAL_Driver/Src/stm32l4xx_hal_smbus.c ****   else if (HAL_SMBUS_STATE_RESET == hsmbus->State)
 769:Drivers/STM32L4xx_HAL_Driver/Src/stm32l4xx_hal_smbus.c ****   {
 770:Drivers/STM32L4xx_HAL_Driver/Src/stm32l4xx_hal_smbus.c ****     switch (CallbackID)
 771:Drivers/STM32L4xx_HAL_Driver/Src/stm32l4xx_hal_smbus.c ****     {
 772:Drivers/STM32L4xx_HAL_Driver/Src/stm32l4xx_hal_smbus.c ****       case HAL_SMBUS_MSPINIT_CB_ID :
 773:Drivers/STM32L4xx_HAL_Driver/Src/stm32l4xx_hal_smbus.c ****         hsmbus->MspInitCallback = HAL_SMBUS_MspInit;                   /* Legacy weak MspInit      
 774:Drivers/STM32L4xx_HAL_Driver/Src/stm32l4xx_hal_smbus.c ****         break;
 775:Drivers/STM32L4xx_HAL_Driver/Src/stm32l4xx_hal_smbus.c **** 
 776:Drivers/STM32L4xx_HAL_Driver/Src/stm32l4xx_hal_smbus.c ****       case HAL_SMBUS_MSPDEINIT_CB_ID :
 777:Drivers/STM32L4xx_HAL_Driver/Src/stm32l4xx_hal_smbus.c ****         hsmbus->MspDeInitCallback = HAL_SMBUS_MspDeInit;               /* Legacy weak MspDeInit    
 778:Drivers/STM32L4xx_HAL_Driver/Src/stm32l4xx_hal_smbus.c ****         break;
 779:Drivers/STM32L4xx_HAL_Driver/Src/stm32l4xx_hal_smbus.c **** 
 780:Drivers/STM32L4xx_HAL_Driver/Src/stm32l4xx_hal_smbus.c ****       default :
 781:Drivers/STM32L4xx_HAL_Driver/Src/stm32l4xx_hal_smbus.c ****         /* Update the error code */
 782:Drivers/STM32L4xx_HAL_Driver/Src/stm32l4xx_hal_smbus.c ****         hsmbus->ErrorCode |= HAL_SMBUS_ERROR_INVALID_CALLBACK;
 783:Drivers/STM32L4xx_HAL_Driver/Src/stm32l4xx_hal_smbus.c **** 
 784:Drivers/STM32L4xx_HAL_Driver/Src/stm32l4xx_hal_smbus.c ****         /* Return error status */
 785:Drivers/STM32L4xx_HAL_Driver/Src/stm32l4xx_hal_smbus.c ****         status =  HAL_ERROR;
 786:Drivers/STM32L4xx_HAL_Driver/Src/stm32l4xx_hal_smbus.c ****         break;
 787:Drivers/STM32L4xx_HAL_Driver/Src/stm32l4xx_hal_smbus.c ****     }
 788:Drivers/STM32L4xx_HAL_Driver/Src/stm32l4xx_hal_smbus.c ****   }
 789:Drivers/STM32L4xx_HAL_Driver/Src/stm32l4xx_hal_smbus.c ****   else
 790:Drivers/STM32L4xx_HAL_Driver/Src/stm32l4xx_hal_smbus.c ****   {
 791:Drivers/STM32L4xx_HAL_Driver/Src/stm32l4xx_hal_smbus.c ****     /* Update the error code */
 792:Drivers/STM32L4xx_HAL_Driver/Src/stm32l4xx_hal_smbus.c ****     hsmbus->ErrorCode |= HAL_SMBUS_ERROR_INVALID_CALLBACK;
 793:Drivers/STM32L4xx_HAL_Driver/Src/stm32l4xx_hal_smbus.c **** 
 794:Drivers/STM32L4xx_HAL_Driver/Src/stm32l4xx_hal_smbus.c ****     /* Return error status */
 795:Drivers/STM32L4xx_HAL_Driver/Src/stm32l4xx_hal_smbus.c ****     status =  HAL_ERROR;
 796:Drivers/STM32L4xx_HAL_Driver/Src/stm32l4xx_hal_smbus.c ****   }
ARM GAS  /tmp/ccysATpZ.s 			page 27


 797:Drivers/STM32L4xx_HAL_Driver/Src/stm32l4xx_hal_smbus.c **** 
 798:Drivers/STM32L4xx_HAL_Driver/Src/stm32l4xx_hal_smbus.c ****   return status;
 799:Drivers/STM32L4xx_HAL_Driver/Src/stm32l4xx_hal_smbus.c **** }
 800:Drivers/STM32L4xx_HAL_Driver/Src/stm32l4xx_hal_smbus.c **** 
 801:Drivers/STM32L4xx_HAL_Driver/Src/stm32l4xx_hal_smbus.c **** /**
 802:Drivers/STM32L4xx_HAL_Driver/Src/stm32l4xx_hal_smbus.c ****   * @brief  Register the Slave Address Match SMBUS Callback
 803:Drivers/STM32L4xx_HAL_Driver/Src/stm32l4xx_hal_smbus.c ****   *         To be used instead of the weak HAL_SMBUS_AddrCallback() predefined callback
 804:Drivers/STM32L4xx_HAL_Driver/Src/stm32l4xx_hal_smbus.c ****   * @param  hsmbus Pointer to a SMBUS_HandleTypeDef structure that contains
 805:Drivers/STM32L4xx_HAL_Driver/Src/stm32l4xx_hal_smbus.c ****   *                the configuration information for the specified SMBUS.
 806:Drivers/STM32L4xx_HAL_Driver/Src/stm32l4xx_hal_smbus.c ****   * @param  pCallback pointer to the Address Match Callback function
 807:Drivers/STM32L4xx_HAL_Driver/Src/stm32l4xx_hal_smbus.c ****   * @retval HAL status
 808:Drivers/STM32L4xx_HAL_Driver/Src/stm32l4xx_hal_smbus.c ****   */
 809:Drivers/STM32L4xx_HAL_Driver/Src/stm32l4xx_hal_smbus.c **** HAL_StatusTypeDef HAL_SMBUS_RegisterAddrCallback(SMBUS_HandleTypeDef *hsmbus,
 810:Drivers/STM32L4xx_HAL_Driver/Src/stm32l4xx_hal_smbus.c ****                                                  pSMBUS_AddrCallbackTypeDef pCallback)
 811:Drivers/STM32L4xx_HAL_Driver/Src/stm32l4xx_hal_smbus.c **** {
 812:Drivers/STM32L4xx_HAL_Driver/Src/stm32l4xx_hal_smbus.c ****   HAL_StatusTypeDef status = HAL_OK;
 813:Drivers/STM32L4xx_HAL_Driver/Src/stm32l4xx_hal_smbus.c **** 
 814:Drivers/STM32L4xx_HAL_Driver/Src/stm32l4xx_hal_smbus.c ****   if (pCallback == NULL)
 815:Drivers/STM32L4xx_HAL_Driver/Src/stm32l4xx_hal_smbus.c ****   {
 816:Drivers/STM32L4xx_HAL_Driver/Src/stm32l4xx_hal_smbus.c ****     /* Update the error code */
 817:Drivers/STM32L4xx_HAL_Driver/Src/stm32l4xx_hal_smbus.c ****     hsmbus->ErrorCode |= HAL_SMBUS_ERROR_INVALID_CALLBACK;
 818:Drivers/STM32L4xx_HAL_Driver/Src/stm32l4xx_hal_smbus.c **** 
 819:Drivers/STM32L4xx_HAL_Driver/Src/stm32l4xx_hal_smbus.c ****     return HAL_ERROR;
 820:Drivers/STM32L4xx_HAL_Driver/Src/stm32l4xx_hal_smbus.c ****   }
 821:Drivers/STM32L4xx_HAL_Driver/Src/stm32l4xx_hal_smbus.c **** 
 822:Drivers/STM32L4xx_HAL_Driver/Src/stm32l4xx_hal_smbus.c ****   if (HAL_SMBUS_STATE_READY == hsmbus->State)
 823:Drivers/STM32L4xx_HAL_Driver/Src/stm32l4xx_hal_smbus.c ****   {
 824:Drivers/STM32L4xx_HAL_Driver/Src/stm32l4xx_hal_smbus.c ****     hsmbus->AddrCallback = pCallback;
 825:Drivers/STM32L4xx_HAL_Driver/Src/stm32l4xx_hal_smbus.c ****   }
 826:Drivers/STM32L4xx_HAL_Driver/Src/stm32l4xx_hal_smbus.c ****   else
 827:Drivers/STM32L4xx_HAL_Driver/Src/stm32l4xx_hal_smbus.c ****   {
 828:Drivers/STM32L4xx_HAL_Driver/Src/stm32l4xx_hal_smbus.c ****     /* Update the error code */
 829:Drivers/STM32L4xx_HAL_Driver/Src/stm32l4xx_hal_smbus.c ****     hsmbus->ErrorCode |= HAL_SMBUS_ERROR_INVALID_CALLBACK;
 830:Drivers/STM32L4xx_HAL_Driver/Src/stm32l4xx_hal_smbus.c **** 
 831:Drivers/STM32L4xx_HAL_Driver/Src/stm32l4xx_hal_smbus.c ****     /* Return error status */
 832:Drivers/STM32L4xx_HAL_Driver/Src/stm32l4xx_hal_smbus.c ****     status =  HAL_ERROR;
 833:Drivers/STM32L4xx_HAL_Driver/Src/stm32l4xx_hal_smbus.c ****   }
 834:Drivers/STM32L4xx_HAL_Driver/Src/stm32l4xx_hal_smbus.c **** 
 835:Drivers/STM32L4xx_HAL_Driver/Src/stm32l4xx_hal_smbus.c ****   return status;
 836:Drivers/STM32L4xx_HAL_Driver/Src/stm32l4xx_hal_smbus.c **** }
 837:Drivers/STM32L4xx_HAL_Driver/Src/stm32l4xx_hal_smbus.c **** 
 838:Drivers/STM32L4xx_HAL_Driver/Src/stm32l4xx_hal_smbus.c **** /**
 839:Drivers/STM32L4xx_HAL_Driver/Src/stm32l4xx_hal_smbus.c ****   * @brief  UnRegister the Slave Address Match SMBUS Callback
 840:Drivers/STM32L4xx_HAL_Driver/Src/stm32l4xx_hal_smbus.c ****   *         Info Ready SMBUS Callback is redirected to the weak HAL_SMBUS_AddrCallback() predefined
 841:Drivers/STM32L4xx_HAL_Driver/Src/stm32l4xx_hal_smbus.c ****   * @param  hsmbus Pointer to a SMBUS_HandleTypeDef structure that contains
 842:Drivers/STM32L4xx_HAL_Driver/Src/stm32l4xx_hal_smbus.c ****   *                the configuration information for the specified SMBUS.
 843:Drivers/STM32L4xx_HAL_Driver/Src/stm32l4xx_hal_smbus.c ****   * @retval HAL status
 844:Drivers/STM32L4xx_HAL_Driver/Src/stm32l4xx_hal_smbus.c ****   */
 845:Drivers/STM32L4xx_HAL_Driver/Src/stm32l4xx_hal_smbus.c **** HAL_StatusTypeDef HAL_SMBUS_UnRegisterAddrCallback(SMBUS_HandleTypeDef *hsmbus)
 846:Drivers/STM32L4xx_HAL_Driver/Src/stm32l4xx_hal_smbus.c **** {
 847:Drivers/STM32L4xx_HAL_Driver/Src/stm32l4xx_hal_smbus.c ****   HAL_StatusTypeDef status = HAL_OK;
 848:Drivers/STM32L4xx_HAL_Driver/Src/stm32l4xx_hal_smbus.c **** 
 849:Drivers/STM32L4xx_HAL_Driver/Src/stm32l4xx_hal_smbus.c ****   if (HAL_SMBUS_STATE_READY == hsmbus->State)
 850:Drivers/STM32L4xx_HAL_Driver/Src/stm32l4xx_hal_smbus.c ****   {
 851:Drivers/STM32L4xx_HAL_Driver/Src/stm32l4xx_hal_smbus.c ****     hsmbus->AddrCallback = HAL_SMBUS_AddrCallback; /* Legacy weak AddrCallback  */
 852:Drivers/STM32L4xx_HAL_Driver/Src/stm32l4xx_hal_smbus.c ****   }
 853:Drivers/STM32L4xx_HAL_Driver/Src/stm32l4xx_hal_smbus.c ****   else
ARM GAS  /tmp/ccysATpZ.s 			page 28


 854:Drivers/STM32L4xx_HAL_Driver/Src/stm32l4xx_hal_smbus.c ****   {
 855:Drivers/STM32L4xx_HAL_Driver/Src/stm32l4xx_hal_smbus.c ****     /* Update the error code */
 856:Drivers/STM32L4xx_HAL_Driver/Src/stm32l4xx_hal_smbus.c ****     hsmbus->ErrorCode |= HAL_SMBUS_ERROR_INVALID_CALLBACK;
 857:Drivers/STM32L4xx_HAL_Driver/Src/stm32l4xx_hal_smbus.c **** 
 858:Drivers/STM32L4xx_HAL_Driver/Src/stm32l4xx_hal_smbus.c ****     /* Return error status */
 859:Drivers/STM32L4xx_HAL_Driver/Src/stm32l4xx_hal_smbus.c ****     status =  HAL_ERROR;
 860:Drivers/STM32L4xx_HAL_Driver/Src/stm32l4xx_hal_smbus.c ****   }
 861:Drivers/STM32L4xx_HAL_Driver/Src/stm32l4xx_hal_smbus.c **** 
 862:Drivers/STM32L4xx_HAL_Driver/Src/stm32l4xx_hal_smbus.c ****   return status;
 863:Drivers/STM32L4xx_HAL_Driver/Src/stm32l4xx_hal_smbus.c **** }
 864:Drivers/STM32L4xx_HAL_Driver/Src/stm32l4xx_hal_smbus.c **** 
 865:Drivers/STM32L4xx_HAL_Driver/Src/stm32l4xx_hal_smbus.c **** #endif /* USE_HAL_SMBUS_REGISTER_CALLBACKS */
 866:Drivers/STM32L4xx_HAL_Driver/Src/stm32l4xx_hal_smbus.c **** 
 867:Drivers/STM32L4xx_HAL_Driver/Src/stm32l4xx_hal_smbus.c **** /**
 868:Drivers/STM32L4xx_HAL_Driver/Src/stm32l4xx_hal_smbus.c ****   * @}
 869:Drivers/STM32L4xx_HAL_Driver/Src/stm32l4xx_hal_smbus.c ****   */
 870:Drivers/STM32L4xx_HAL_Driver/Src/stm32l4xx_hal_smbus.c **** 
 871:Drivers/STM32L4xx_HAL_Driver/Src/stm32l4xx_hal_smbus.c **** /** @defgroup SMBUS_Exported_Functions_Group2 Input and Output operation functions
 872:Drivers/STM32L4xx_HAL_Driver/Src/stm32l4xx_hal_smbus.c ****   *  @brief   Data transfers functions
 873:Drivers/STM32L4xx_HAL_Driver/Src/stm32l4xx_hal_smbus.c ****   *
 874:Drivers/STM32L4xx_HAL_Driver/Src/stm32l4xx_hal_smbus.c **** @verbatim
 875:Drivers/STM32L4xx_HAL_Driver/Src/stm32l4xx_hal_smbus.c ****  ===============================================================================
 876:Drivers/STM32L4xx_HAL_Driver/Src/stm32l4xx_hal_smbus.c ****                       ##### IO operation functions #####
 877:Drivers/STM32L4xx_HAL_Driver/Src/stm32l4xx_hal_smbus.c ****  ===============================================================================
 878:Drivers/STM32L4xx_HAL_Driver/Src/stm32l4xx_hal_smbus.c ****     [..]
 879:Drivers/STM32L4xx_HAL_Driver/Src/stm32l4xx_hal_smbus.c ****     This subsection provides a set of functions allowing to manage the SMBUS data
 880:Drivers/STM32L4xx_HAL_Driver/Src/stm32l4xx_hal_smbus.c ****     transfers.
 881:Drivers/STM32L4xx_HAL_Driver/Src/stm32l4xx_hal_smbus.c **** 
 882:Drivers/STM32L4xx_HAL_Driver/Src/stm32l4xx_hal_smbus.c ****     (#) Blocking mode function to check if device is ready for usage is :
 883:Drivers/STM32L4xx_HAL_Driver/Src/stm32l4xx_hal_smbus.c ****         (++) HAL_SMBUS_IsDeviceReady()
 884:Drivers/STM32L4xx_HAL_Driver/Src/stm32l4xx_hal_smbus.c **** 
 885:Drivers/STM32L4xx_HAL_Driver/Src/stm32l4xx_hal_smbus.c ****     (#) There is only one mode of transfer:
 886:Drivers/STM32L4xx_HAL_Driver/Src/stm32l4xx_hal_smbus.c ****        (++) Non-Blocking mode : The communication is performed using Interrupts.
 887:Drivers/STM32L4xx_HAL_Driver/Src/stm32l4xx_hal_smbus.c ****             These functions return the status of the transfer startup.
 888:Drivers/STM32L4xx_HAL_Driver/Src/stm32l4xx_hal_smbus.c ****             The end of the data processing will be indicated through the
 889:Drivers/STM32L4xx_HAL_Driver/Src/stm32l4xx_hal_smbus.c ****             dedicated SMBUS IRQ when using Interrupt mode.
 890:Drivers/STM32L4xx_HAL_Driver/Src/stm32l4xx_hal_smbus.c **** 
 891:Drivers/STM32L4xx_HAL_Driver/Src/stm32l4xx_hal_smbus.c ****     (#) Non-Blocking mode functions with Interrupt are :
 892:Drivers/STM32L4xx_HAL_Driver/Src/stm32l4xx_hal_smbus.c ****         (++) HAL_SMBUS_Master_Transmit_IT()
 893:Drivers/STM32L4xx_HAL_Driver/Src/stm32l4xx_hal_smbus.c ****         (++) HAL_SMBUS_Master_Receive_IT()
 894:Drivers/STM32L4xx_HAL_Driver/Src/stm32l4xx_hal_smbus.c ****         (++) HAL_SMBUS_Slave_Transmit_IT()
 895:Drivers/STM32L4xx_HAL_Driver/Src/stm32l4xx_hal_smbus.c ****         (++) HAL_SMBUS_Slave_Receive_IT()
 896:Drivers/STM32L4xx_HAL_Driver/Src/stm32l4xx_hal_smbus.c ****         (++) HAL_SMBUS_EnableListen_IT() or alias HAL_SMBUS_EnableListen_IT()
 897:Drivers/STM32L4xx_HAL_Driver/Src/stm32l4xx_hal_smbus.c ****         (++) HAL_SMBUS_DisableListen_IT()
 898:Drivers/STM32L4xx_HAL_Driver/Src/stm32l4xx_hal_smbus.c ****         (++) HAL_SMBUS_EnableAlert_IT()
 899:Drivers/STM32L4xx_HAL_Driver/Src/stm32l4xx_hal_smbus.c ****         (++) HAL_SMBUS_DisableAlert_IT()
 900:Drivers/STM32L4xx_HAL_Driver/Src/stm32l4xx_hal_smbus.c **** 
 901:Drivers/STM32L4xx_HAL_Driver/Src/stm32l4xx_hal_smbus.c ****     (#) A set of Transfer Complete Callbacks are provided in non-Blocking mode:
 902:Drivers/STM32L4xx_HAL_Driver/Src/stm32l4xx_hal_smbus.c ****         (++) HAL_SMBUS_MasterTxCpltCallback()
 903:Drivers/STM32L4xx_HAL_Driver/Src/stm32l4xx_hal_smbus.c ****         (++) HAL_SMBUS_MasterRxCpltCallback()
 904:Drivers/STM32L4xx_HAL_Driver/Src/stm32l4xx_hal_smbus.c ****         (++) HAL_SMBUS_SlaveTxCpltCallback()
 905:Drivers/STM32L4xx_HAL_Driver/Src/stm32l4xx_hal_smbus.c ****         (++) HAL_SMBUS_SlaveRxCpltCallback()
 906:Drivers/STM32L4xx_HAL_Driver/Src/stm32l4xx_hal_smbus.c ****         (++) HAL_SMBUS_AddrCallback()
 907:Drivers/STM32L4xx_HAL_Driver/Src/stm32l4xx_hal_smbus.c ****         (++) HAL_SMBUS_ListenCpltCallback()
 908:Drivers/STM32L4xx_HAL_Driver/Src/stm32l4xx_hal_smbus.c ****         (++) HAL_SMBUS_ErrorCallback()
 909:Drivers/STM32L4xx_HAL_Driver/Src/stm32l4xx_hal_smbus.c **** 
 910:Drivers/STM32L4xx_HAL_Driver/Src/stm32l4xx_hal_smbus.c **** @endverbatim
ARM GAS  /tmp/ccysATpZ.s 			page 29


 911:Drivers/STM32L4xx_HAL_Driver/Src/stm32l4xx_hal_smbus.c ****   * @{
 912:Drivers/STM32L4xx_HAL_Driver/Src/stm32l4xx_hal_smbus.c ****   */
 913:Drivers/STM32L4xx_HAL_Driver/Src/stm32l4xx_hal_smbus.c **** 
 914:Drivers/STM32L4xx_HAL_Driver/Src/stm32l4xx_hal_smbus.c **** /**
 915:Drivers/STM32L4xx_HAL_Driver/Src/stm32l4xx_hal_smbus.c ****   * @brief  Transmit in master/host SMBUS mode an amount of data in non-blocking mode with Interrup
 916:Drivers/STM32L4xx_HAL_Driver/Src/stm32l4xx_hal_smbus.c ****   * @param  hsmbus Pointer to a SMBUS_HandleTypeDef structure that contains
 917:Drivers/STM32L4xx_HAL_Driver/Src/stm32l4xx_hal_smbus.c ****   *                the configuration information for the specified SMBUS.
 918:Drivers/STM32L4xx_HAL_Driver/Src/stm32l4xx_hal_smbus.c ****   * @param  DevAddress Target device address: The device 7 bits address value
 919:Drivers/STM32L4xx_HAL_Driver/Src/stm32l4xx_hal_smbus.c ****   *         in datasheet must be shifted to the left before calling the interface
 920:Drivers/STM32L4xx_HAL_Driver/Src/stm32l4xx_hal_smbus.c ****   * @param  pData Pointer to data buffer
 921:Drivers/STM32L4xx_HAL_Driver/Src/stm32l4xx_hal_smbus.c ****   * @param  Size Amount of data to be sent
 922:Drivers/STM32L4xx_HAL_Driver/Src/stm32l4xx_hal_smbus.c ****   * @param  XferOptions Options of Transfer, value of @ref SMBUS_XferOptions_definition
 923:Drivers/STM32L4xx_HAL_Driver/Src/stm32l4xx_hal_smbus.c ****   * @retval HAL status
 924:Drivers/STM32L4xx_HAL_Driver/Src/stm32l4xx_hal_smbus.c ****   */
 925:Drivers/STM32L4xx_HAL_Driver/Src/stm32l4xx_hal_smbus.c **** HAL_StatusTypeDef HAL_SMBUS_Master_Transmit_IT(SMBUS_HandleTypeDef *hsmbus, uint16_t DevAddress,
 926:Drivers/STM32L4xx_HAL_Driver/Src/stm32l4xx_hal_smbus.c ****                                                uint8_t *pData, uint16_t Size, uint32_t XferOptions)
 927:Drivers/STM32L4xx_HAL_Driver/Src/stm32l4xx_hal_smbus.c **** {
 692              		.loc 1 927 1
 693              		.cfi_startproc
 694              		@ args = 4, pretend = 0, frame = 24
 695              		@ frame_needed = 1, uses_anonymous_args = 0
 696 0000 80B5     		push	{r7, lr}
 697              		.cfi_def_cfa_offset 8
 698              		.cfi_offset 7, -8
 699              		.cfi_offset 14, -4
 700 0002 88B0     		sub	sp, sp, #32
 701              		.cfi_def_cfa_offset 40
 702 0004 02AF     		add	r7, sp, #8
 703              		.cfi_def_cfa 7, 32
 704 0006 F860     		str	r0, [r7, #12]
 705 0008 7A60     		str	r2, [r7, #4]
 706 000a 1A46     		mov	r2, r3
 707 000c 0B46     		mov	r3, r1	@ movhi
 708 000e 7B81     		strh	r3, [r7, #10]	@ movhi
 709 0010 1346     		mov	r3, r2	@ movhi
 710 0012 3B81     		strh	r3, [r7, #8]	@ movhi
 928:Drivers/STM32L4xx_HAL_Driver/Src/stm32l4xx_hal_smbus.c ****   uint32_t tmp;
 929:Drivers/STM32L4xx_HAL_Driver/Src/stm32l4xx_hal_smbus.c ****   uint32_t sizetoxfer;
 930:Drivers/STM32L4xx_HAL_Driver/Src/stm32l4xx_hal_smbus.c **** 
 931:Drivers/STM32L4xx_HAL_Driver/Src/stm32l4xx_hal_smbus.c ****   /* Check the parameters */
 932:Drivers/STM32L4xx_HAL_Driver/Src/stm32l4xx_hal_smbus.c ****   assert_param(IS_SMBUS_TRANSFER_OPTIONS_REQUEST(XferOptions));
 933:Drivers/STM32L4xx_HAL_Driver/Src/stm32l4xx_hal_smbus.c **** 
 934:Drivers/STM32L4xx_HAL_Driver/Src/stm32l4xx_hal_smbus.c ****   if (hsmbus->State == HAL_SMBUS_STATE_READY)
 711              		.loc 1 934 13
 712 0014 FB68     		ldr	r3, [r7, #12]
 713 0016 9B6C     		ldr	r3, [r3, #72]
 714              		.loc 1 934 6
 715 0018 012B     		cmp	r3, #1
 716 001a 40F0D380 		bne	.L24
 935:Drivers/STM32L4xx_HAL_Driver/Src/stm32l4xx_hal_smbus.c ****   {
 936:Drivers/STM32L4xx_HAL_Driver/Src/stm32l4xx_hal_smbus.c ****     /* Process Locked */
 937:Drivers/STM32L4xx_HAL_Driver/Src/stm32l4xx_hal_smbus.c ****     __HAL_LOCK(hsmbus);
 717              		.loc 1 937 5
 718 001e FB68     		ldr	r3, [r7, #12]
 719 0020 93F84430 		ldrb	r3, [r3, #68]	@ zero_extendqisi2
 720 0024 012B     		cmp	r3, #1
 721 0026 01D1     		bne	.L25
ARM GAS  /tmp/ccysATpZ.s 			page 30


 722              		.loc 1 937 5 is_stmt 0 discriminator 1
 723 0028 0223     		movs	r3, #2
 724              		.loc 1 937 5
 725 002a CCE0     		b	.L26
 726              	.L25:
 727              		.loc 1 937 5 discriminator 2
 728 002c FB68     		ldr	r3, [r7, #12]
 729 002e 0122     		movs	r2, #1
 730 0030 83F84420 		strb	r2, [r3, #68]
 938:Drivers/STM32L4xx_HAL_Driver/Src/stm32l4xx_hal_smbus.c **** 
 939:Drivers/STM32L4xx_HAL_Driver/Src/stm32l4xx_hal_smbus.c ****     hsmbus->State = HAL_SMBUS_STATE_MASTER_BUSY_TX;
 731              		.loc 1 939 19 is_stmt 1
 732 0034 FB68     		ldr	r3, [r7, #12]
 733 0036 1222     		movs	r2, #18
 734 0038 9A64     		str	r2, [r3, #72]
 940:Drivers/STM32L4xx_HAL_Driver/Src/stm32l4xx_hal_smbus.c ****     hsmbus->ErrorCode = HAL_SMBUS_ERROR_NONE;
 735              		.loc 1 940 23
 736 003a FB68     		ldr	r3, [r7, #12]
 737 003c 0022     		movs	r2, #0
 738 003e DA64     		str	r2, [r3, #76]
 941:Drivers/STM32L4xx_HAL_Driver/Src/stm32l4xx_hal_smbus.c ****     /* Prepare transfer parameters */
 942:Drivers/STM32L4xx_HAL_Driver/Src/stm32l4xx_hal_smbus.c ****     hsmbus->pBuffPtr = pData;
 739              		.loc 1 942 22
 740 0040 FB68     		ldr	r3, [r7, #12]
 741 0042 7A68     		ldr	r2, [r7, #4]
 742 0044 5A63     		str	r2, [r3, #52]
 943:Drivers/STM32L4xx_HAL_Driver/Src/stm32l4xx_hal_smbus.c ****     hsmbus->XferCount = Size;
 743              		.loc 1 943 23
 744 0046 FB68     		ldr	r3, [r7, #12]
 745 0048 3A89     		ldrh	r2, [r7, #8]	@ movhi
 746 004a 5A87     		strh	r2, [r3, #58]	@ movhi
 944:Drivers/STM32L4xx_HAL_Driver/Src/stm32l4xx_hal_smbus.c ****     hsmbus->XferOptions = XferOptions;
 747              		.loc 1 944 25
 748 004c FB68     		ldr	r3, [r7, #12]
 749 004e 3A6A     		ldr	r2, [r7, #32]
 750 0050 DA63     		str	r2, [r3, #60]
 945:Drivers/STM32L4xx_HAL_Driver/Src/stm32l4xx_hal_smbus.c **** 
 946:Drivers/STM32L4xx_HAL_Driver/Src/stm32l4xx_hal_smbus.c ****     /* In case of Quick command, remove autoend mode */
 947:Drivers/STM32L4xx_HAL_Driver/Src/stm32l4xx_hal_smbus.c ****     /* Manage the stop generation by software */
 948:Drivers/STM32L4xx_HAL_Driver/Src/stm32l4xx_hal_smbus.c ****     if (hsmbus->pBuffPtr == NULL)
 751              		.loc 1 948 15
 752 0052 FB68     		ldr	r3, [r7, #12]
 753 0054 5B6B     		ldr	r3, [r3, #52]
 754              		.loc 1 948 8
 755 0056 002B     		cmp	r3, #0
 756 0058 05D1     		bne	.L27
 949:Drivers/STM32L4xx_HAL_Driver/Src/stm32l4xx_hal_smbus.c ****     {
 950:Drivers/STM32L4xx_HAL_Driver/Src/stm32l4xx_hal_smbus.c ****       hsmbus->XferOptions &= ~SMBUS_AUTOEND_MODE;
 757              		.loc 1 950 13
 758 005a FB68     		ldr	r3, [r7, #12]
 759 005c DB6B     		ldr	r3, [r3, #60]
 760              		.loc 1 950 27
 761 005e 23F00072 		bic	r2, r3, #33554432
 762 0062 FB68     		ldr	r3, [r7, #12]
 763 0064 DA63     		str	r2, [r3, #60]
 764              	.L27:
 951:Drivers/STM32L4xx_HAL_Driver/Src/stm32l4xx_hal_smbus.c ****     }
ARM GAS  /tmp/ccysATpZ.s 			page 31


 952:Drivers/STM32L4xx_HAL_Driver/Src/stm32l4xx_hal_smbus.c **** 
 953:Drivers/STM32L4xx_HAL_Driver/Src/stm32l4xx_hal_smbus.c ****     if (Size > MAX_NBYTE_SIZE)
 765              		.loc 1 953 8
 766 0066 3B89     		ldrh	r3, [r7, #8]
 767 0068 FF2B     		cmp	r3, #255
 768 006a 03D9     		bls	.L28
 954:Drivers/STM32L4xx_HAL_Driver/Src/stm32l4xx_hal_smbus.c ****     {
 955:Drivers/STM32L4xx_HAL_Driver/Src/stm32l4xx_hal_smbus.c ****       hsmbus->XferSize = MAX_NBYTE_SIZE;
 769              		.loc 1 955 24
 770 006c FB68     		ldr	r3, [r7, #12]
 771 006e FF22     		movs	r2, #255
 772 0070 1A87     		strh	r2, [r3, #56]	@ movhi
 773 0072 02E0     		b	.L29
 774              	.L28:
 956:Drivers/STM32L4xx_HAL_Driver/Src/stm32l4xx_hal_smbus.c ****     }
 957:Drivers/STM32L4xx_HAL_Driver/Src/stm32l4xx_hal_smbus.c ****     else
 958:Drivers/STM32L4xx_HAL_Driver/Src/stm32l4xx_hal_smbus.c ****     {
 959:Drivers/STM32L4xx_HAL_Driver/Src/stm32l4xx_hal_smbus.c ****       hsmbus->XferSize = Size;
 775              		.loc 1 959 24
 776 0074 FB68     		ldr	r3, [r7, #12]
 777 0076 3A89     		ldrh	r2, [r7, #8]	@ movhi
 778 0078 1A87     		strh	r2, [r3, #56]	@ movhi
 779              	.L29:
 960:Drivers/STM32L4xx_HAL_Driver/Src/stm32l4xx_hal_smbus.c ****     }
 961:Drivers/STM32L4xx_HAL_Driver/Src/stm32l4xx_hal_smbus.c **** 
 962:Drivers/STM32L4xx_HAL_Driver/Src/stm32l4xx_hal_smbus.c ****     sizetoxfer = hsmbus->XferSize;
 780              		.loc 1 962 24
 781 007a FB68     		ldr	r3, [r7, #12]
 782 007c 1B8F     		ldrh	r3, [r3, #56]
 783              		.loc 1 962 16
 784 007e 7B61     		str	r3, [r7, #20]
 963:Drivers/STM32L4xx_HAL_Driver/Src/stm32l4xx_hal_smbus.c ****     if ((sizetoxfer > 0U) && ((XferOptions == SMBUS_FIRST_FRAME) ||
 785              		.loc 1 963 8
 786 0080 7B69     		ldr	r3, [r7, #20]
 787 0082 002B     		cmp	r3, #0
 788 0084 2DD0     		beq	.L30
 789              		.loc 1 963 27 discriminator 1
 790 0086 3B6A     		ldr	r3, [r7, #32]
 791 0088 002B     		cmp	r3, #0
 792 008a 0BD0     		beq	.L31
 793              		.loc 1 963 66 discriminator 2
 794 008c 3B6A     		ldr	r3, [r7, #32]
 795 008e B3F1007F 		cmp	r3, #33554432
 796 0092 07D0     		beq	.L31
 964:Drivers/STM32L4xx_HAL_Driver/Src/stm32l4xx_hal_smbus.c ****                               (XferOptions == SMBUS_FIRST_AND_LAST_FRAME_NO_PEC) ||
 797              		.loc 1 964 82
 798 0094 3B6A     		ldr	r3, [r7, #32]
 799 0096 B3F1806F 		cmp	r3, #67108864
 800 009a 03D0     		beq	.L31
 965:Drivers/STM32L4xx_HAL_Driver/Src/stm32l4xx_hal_smbus.c ****                               (XferOptions == SMBUS_FIRST_FRAME_WITH_PEC) ||
 801              		.loc 1 965 75
 802 009c 3B6A     		ldr	r3, [r7, #32]
 803 009e B3F1C06F 		cmp	r3, #100663296
 804 00a2 1ED1     		bne	.L30
 805              	.L31:
 966:Drivers/STM32L4xx_HAL_Driver/Src/stm32l4xx_hal_smbus.c ****                               (XferOptions == SMBUS_FIRST_AND_LAST_FRAME_WITH_PEC)))
 967:Drivers/STM32L4xx_HAL_Driver/Src/stm32l4xx_hal_smbus.c ****     {
ARM GAS  /tmp/ccysATpZ.s 			page 32


 968:Drivers/STM32L4xx_HAL_Driver/Src/stm32l4xx_hal_smbus.c ****       if (hsmbus->pBuffPtr != NULL)
 806              		.loc 1 968 17
 807 00a4 FB68     		ldr	r3, [r7, #12]
 808 00a6 5B6B     		ldr	r3, [r3, #52]
 809              		.loc 1 968 10
 810 00a8 002B     		cmp	r3, #0
 811 00aa 18D0     		beq	.L32
 969:Drivers/STM32L4xx_HAL_Driver/Src/stm32l4xx_hal_smbus.c ****       {
 970:Drivers/STM32L4xx_HAL_Driver/Src/stm32l4xx_hal_smbus.c ****         /* Preload TX register */
 971:Drivers/STM32L4xx_HAL_Driver/Src/stm32l4xx_hal_smbus.c ****         /* Write data to TXDR */
 972:Drivers/STM32L4xx_HAL_Driver/Src/stm32l4xx_hal_smbus.c ****         hsmbus->Instance->TXDR = *hsmbus->pBuffPtr;
 812              		.loc 1 972 41
 813 00ac FB68     		ldr	r3, [r7, #12]
 814 00ae 5B6B     		ldr	r3, [r3, #52]
 815              		.loc 1 972 34
 816 00b0 1A78     		ldrb	r2, [r3]	@ zero_extendqisi2
 817              		.loc 1 972 15
 818 00b2 FB68     		ldr	r3, [r7, #12]
 819 00b4 1B68     		ldr	r3, [r3]
 820              		.loc 1 972 32
 821 00b6 9A62     		str	r2, [r3, #40]
 973:Drivers/STM32L4xx_HAL_Driver/Src/stm32l4xx_hal_smbus.c **** 
 974:Drivers/STM32L4xx_HAL_Driver/Src/stm32l4xx_hal_smbus.c ****         /* Increment Buffer pointer */
 975:Drivers/STM32L4xx_HAL_Driver/Src/stm32l4xx_hal_smbus.c ****         hsmbus->pBuffPtr++;
 822              		.loc 1 975 15
 823 00b8 FB68     		ldr	r3, [r7, #12]
 824 00ba 5B6B     		ldr	r3, [r3, #52]
 825              		.loc 1 975 25
 826 00bc 5A1C     		adds	r2, r3, #1
 827 00be FB68     		ldr	r3, [r7, #12]
 828 00c0 5A63     		str	r2, [r3, #52]
 976:Drivers/STM32L4xx_HAL_Driver/Src/stm32l4xx_hal_smbus.c **** 
 977:Drivers/STM32L4xx_HAL_Driver/Src/stm32l4xx_hal_smbus.c ****         hsmbus->XferCount--;
 829              		.loc 1 977 15
 830 00c2 FB68     		ldr	r3, [r7, #12]
 831 00c4 5B8F     		ldrh	r3, [r3, #58]	@ movhi
 832 00c6 9BB2     		uxth	r3, r3
 833              		.loc 1 977 26
 834 00c8 013B     		subs	r3, r3, #1
 835 00ca 9AB2     		uxth	r2, r3
 836 00cc FB68     		ldr	r3, [r7, #12]
 837 00ce 5A87     		strh	r2, [r3, #58]	@ movhi
 978:Drivers/STM32L4xx_HAL_Driver/Src/stm32l4xx_hal_smbus.c ****         hsmbus->XferSize--;
 838              		.loc 1 978 15
 839 00d0 FB68     		ldr	r3, [r7, #12]
 840 00d2 1B8F     		ldrh	r3, [r3, #56]
 841              		.loc 1 978 25
 842 00d4 013B     		subs	r3, r3, #1
 843 00d6 9AB2     		uxth	r2, r3
 844 00d8 FB68     		ldr	r3, [r7, #12]
 845 00da 1A87     		strh	r2, [r3, #56]	@ movhi
 846 00dc 01E0     		b	.L30
 847              	.L32:
 979:Drivers/STM32L4xx_HAL_Driver/Src/stm32l4xx_hal_smbus.c ****       }
 980:Drivers/STM32L4xx_HAL_Driver/Src/stm32l4xx_hal_smbus.c ****       else
 981:Drivers/STM32L4xx_HAL_Driver/Src/stm32l4xx_hal_smbus.c ****       {
 982:Drivers/STM32L4xx_HAL_Driver/Src/stm32l4xx_hal_smbus.c ****         return HAL_ERROR;
ARM GAS  /tmp/ccysATpZ.s 			page 33


 848              		.loc 1 982 16
 849 00de 0123     		movs	r3, #1
 850 00e0 71E0     		b	.L26
 851              	.L30:
 983:Drivers/STM32L4xx_HAL_Driver/Src/stm32l4xx_hal_smbus.c ****       }
 984:Drivers/STM32L4xx_HAL_Driver/Src/stm32l4xx_hal_smbus.c ****     }
 985:Drivers/STM32L4xx_HAL_Driver/Src/stm32l4xx_hal_smbus.c **** 
 986:Drivers/STM32L4xx_HAL_Driver/Src/stm32l4xx_hal_smbus.c ****     /* Send Slave Address */
 987:Drivers/STM32L4xx_HAL_Driver/Src/stm32l4xx_hal_smbus.c ****     /* Set NBYTES to write and reload if size > MAX_NBYTE_SIZE and generate RESTART */
 988:Drivers/STM32L4xx_HAL_Driver/Src/stm32l4xx_hal_smbus.c ****     if ((sizetoxfer < hsmbus->XferCount) && (sizetoxfer == MAX_NBYTE_SIZE))
 852              		.loc 1 988 29
 853 00e2 FB68     		ldr	r3, [r7, #12]
 854 00e4 5B8F     		ldrh	r3, [r3, #58]	@ movhi
 855 00e6 9BB2     		uxth	r3, r3
 856 00e8 1A46     		mov	r2, r3
 857              		.loc 1 988 8
 858 00ea 7B69     		ldr	r3, [r7, #20]
 859 00ec 9342     		cmp	r3, r2
 860 00ee 11D2     		bcs	.L33
 861              		.loc 1 988 42 discriminator 1
 862 00f0 7B69     		ldr	r3, [r7, #20]
 863 00f2 FF2B     		cmp	r3, #255
 864 00f4 0ED1     		bne	.L33
 989:Drivers/STM32L4xx_HAL_Driver/Src/stm32l4xx_hal_smbus.c ****     {
 990:Drivers/STM32L4xx_HAL_Driver/Src/stm32l4xx_hal_smbus.c ****       SMBUS_TransferConfig(hsmbus, DevAddress, (uint8_t)sizetoxfer,
 865              		.loc 1 990 7
 866 00f6 7B69     		ldr	r3, [r7, #20]
 867 00f8 DAB2     		uxtb	r2, r3
 991:Drivers/STM32L4xx_HAL_Driver/Src/stm32l4xx_hal_smbus.c ****                            SMBUS_RELOAD_MODE | (hsmbus->XferOptions & SMBUS_SENDPEC_MODE),
 868              		.loc 1 991 55
 869 00fa FB68     		ldr	r3, [r7, #12]
 870 00fc DB6B     		ldr	r3, [r3, #60]
 871              		.loc 1 991 69
 872 00fe 03F08063 		and	r3, r3, #67108864
 990:Drivers/STM32L4xx_HAL_Driver/Src/stm32l4xx_hal_smbus.c ****                            SMBUS_RELOAD_MODE | (hsmbus->XferOptions & SMBUS_SENDPEC_MODE),
 873              		.loc 1 990 7
 874 0102 43F08073 		orr	r3, r3, #16777216
 875 0106 7989     		ldrh	r1, [r7, #10]
 876 0108 3148     		ldr	r0, .L41
 877 010a 0090     		str	r0, [sp]
 878 010c F868     		ldr	r0, [r7, #12]
 879 010e FFF7FEFF 		bl	SMBUS_TransferConfig
 880 0112 4DE0     		b	.L34
 881              	.L33:
 992:Drivers/STM32L4xx_HAL_Driver/Src/stm32l4xx_hal_smbus.c ****                            SMBUS_GENERATE_START_WRITE);
 993:Drivers/STM32L4xx_HAL_Driver/Src/stm32l4xx_hal_smbus.c ****     }
 994:Drivers/STM32L4xx_HAL_Driver/Src/stm32l4xx_hal_smbus.c ****     else
 995:Drivers/STM32L4xx_HAL_Driver/Src/stm32l4xx_hal_smbus.c ****     {
 996:Drivers/STM32L4xx_HAL_Driver/Src/stm32l4xx_hal_smbus.c ****       /* If transfer direction not change, do not generate Restart Condition */
 997:Drivers/STM32L4xx_HAL_Driver/Src/stm32l4xx_hal_smbus.c ****       /* Mean Previous state is same as current state */
 998:Drivers/STM32L4xx_HAL_Driver/Src/stm32l4xx_hal_smbus.c **** 
 999:Drivers/STM32L4xx_HAL_Driver/Src/stm32l4xx_hal_smbus.c ****       /* Store current volatile XferOptions, misra rule */
1000:Drivers/STM32L4xx_HAL_Driver/Src/stm32l4xx_hal_smbus.c ****       tmp = hsmbus->XferOptions;
 882              		.loc 1 1000 11
 883 0114 FB68     		ldr	r3, [r7, #12]
 884 0116 DB6B     		ldr	r3, [r3, #60]
 885 0118 3B61     		str	r3, [r7, #16]
ARM GAS  /tmp/ccysATpZ.s 			page 34


1001:Drivers/STM32L4xx_HAL_Driver/Src/stm32l4xx_hal_smbus.c **** 
1002:Drivers/STM32L4xx_HAL_Driver/Src/stm32l4xx_hal_smbus.c ****       if ((hsmbus->PreviousState == HAL_SMBUS_STATE_MASTER_BUSY_TX) && \
 886              		.loc 1 1002 18
 887 011a FB68     		ldr	r3, [r7, #12]
 888 011c 1B6C     		ldr	r3, [r3, #64]
 889              		.loc 1 1002 10
 890 011e 122B     		cmp	r3, #18
 891 0120 1ED1     		bne	.L35
1003:Drivers/STM32L4xx_HAL_Driver/Src/stm32l4xx_hal_smbus.c ****           (IS_SMBUS_TRANSFER_OTHER_OPTIONS_REQUEST(tmp) == 0))
 892              		.loc 1 1003 12
 893 0122 3B69     		ldr	r3, [r7, #16]
 894 0124 AA2B     		cmp	r3, #170
 895 0126 0BD0     		beq	.L36
 896              		.loc 1 1003 12 is_stmt 0 discriminator 2
 897 0128 3B69     		ldr	r3, [r7, #16]
 898 012a B3F52A0F 		cmp	r3, #11141120
 899 012e 07D0     		beq	.L36
 900              		.loc 1 1003 12 discriminator 4
 901 0130 3B69     		ldr	r3, [r7, #16]
 902 0132 B3F52A4F 		cmp	r3, #43520
 903 0136 03D0     		beq	.L36
 904              		.loc 1 1003 12 discriminator 6
 905 0138 3B69     		ldr	r3, [r7, #16]
 906 013a B3F12A4F 		cmp	r3, #-1442840576
 907 013e 01D1     		bne	.L37
 908              	.L36:
 909              		.loc 1 1003 12 discriminator 7
 910 0140 0123     		movs	r3, #1
 911              		.loc 1 1003 12
 912 0142 00E0     		b	.L38
 913              	.L37:
 914              		.loc 1 1003 12 discriminator 8
 915 0144 0023     		movs	r3, #0
 916              	.L38:
1002:Drivers/STM32L4xx_HAL_Driver/Src/stm32l4xx_hal_smbus.c ****           (IS_SMBUS_TRANSFER_OTHER_OPTIONS_REQUEST(tmp) == 0))
 917              		.loc 1 1002 69 is_stmt 1
 918 0146 002B     		cmp	r3, #0
 919 0148 0AD1     		bne	.L35
1004:Drivers/STM32L4xx_HAL_Driver/Src/stm32l4xx_hal_smbus.c ****       {
1005:Drivers/STM32L4xx_HAL_Driver/Src/stm32l4xx_hal_smbus.c ****         SMBUS_TransferConfig(hsmbus, DevAddress, (uint8_t)sizetoxfer, hsmbus->XferOptions,
 920              		.loc 1 1005 9
 921 014a 7B69     		ldr	r3, [r7, #20]
 922 014c DAB2     		uxtb	r2, r3
 923              		.loc 1 1005 77
 924 014e FB68     		ldr	r3, [r7, #12]
 925 0150 DB6B     		ldr	r3, [r3, #60]
 926              		.loc 1 1005 9
 927 0152 7989     		ldrh	r1, [r7, #10]
 928 0154 0020     		movs	r0, #0
 929 0156 0090     		str	r0, [sp]
 930 0158 F868     		ldr	r0, [r7, #12]
 931 015a FFF7FEFF 		bl	SMBUS_TransferConfig
 932 015e 0CE0     		b	.L39
 933              	.L35:
1006:Drivers/STM32L4xx_HAL_Driver/Src/stm32l4xx_hal_smbus.c ****                              SMBUS_NO_STARTSTOP);
1007:Drivers/STM32L4xx_HAL_Driver/Src/stm32l4xx_hal_smbus.c ****       }
1008:Drivers/STM32L4xx_HAL_Driver/Src/stm32l4xx_hal_smbus.c ****       /* Else transfer direction change, so generate Restart with new transfer direction */
ARM GAS  /tmp/ccysATpZ.s 			page 35


1009:Drivers/STM32L4xx_HAL_Driver/Src/stm32l4xx_hal_smbus.c ****       else
1010:Drivers/STM32L4xx_HAL_Driver/Src/stm32l4xx_hal_smbus.c ****       {
1011:Drivers/STM32L4xx_HAL_Driver/Src/stm32l4xx_hal_smbus.c ****         /* Convert OTHER_xxx XferOptions if any */
1012:Drivers/STM32L4xx_HAL_Driver/Src/stm32l4xx_hal_smbus.c ****         SMBUS_ConvertOtherXferOptions(hsmbus);
 934              		.loc 1 1012 9
 935 0160 F868     		ldr	r0, [r7, #12]
 936 0162 FFF7FEFF 		bl	SMBUS_ConvertOtherXferOptions
1013:Drivers/STM32L4xx_HAL_Driver/Src/stm32l4xx_hal_smbus.c **** 
1014:Drivers/STM32L4xx_HAL_Driver/Src/stm32l4xx_hal_smbus.c ****         /* Handle Transfer */
1015:Drivers/STM32L4xx_HAL_Driver/Src/stm32l4xx_hal_smbus.c ****         SMBUS_TransferConfig(hsmbus, DevAddress, (uint8_t)sizetoxfer,
 937              		.loc 1 1015 9
 938 0166 7B69     		ldr	r3, [r7, #20]
 939 0168 DAB2     		uxtb	r2, r3
1016:Drivers/STM32L4xx_HAL_Driver/Src/stm32l4xx_hal_smbus.c ****                              hsmbus->XferOptions,
 940              		.loc 1 1016 36
 941 016a FB68     		ldr	r3, [r7, #12]
 942 016c DB6B     		ldr	r3, [r3, #60]
1015:Drivers/STM32L4xx_HAL_Driver/Src/stm32l4xx_hal_smbus.c ****                              hsmbus->XferOptions,
 943              		.loc 1 1015 9
 944 016e 7989     		ldrh	r1, [r7, #10]
 945 0170 1748     		ldr	r0, .L41
 946 0172 0090     		str	r0, [sp]
 947 0174 F868     		ldr	r0, [r7, #12]
 948 0176 FFF7FEFF 		bl	SMBUS_TransferConfig
 949              	.L39:
1017:Drivers/STM32L4xx_HAL_Driver/Src/stm32l4xx_hal_smbus.c ****                              SMBUS_GENERATE_START_WRITE);
1018:Drivers/STM32L4xx_HAL_Driver/Src/stm32l4xx_hal_smbus.c ****       }
1019:Drivers/STM32L4xx_HAL_Driver/Src/stm32l4xx_hal_smbus.c **** 
1020:Drivers/STM32L4xx_HAL_Driver/Src/stm32l4xx_hal_smbus.c ****       /* If PEC mode is enable, size to transmit manage by SW part should be Size-1 byte, correspon
1021:Drivers/STM32L4xx_HAL_Driver/Src/stm32l4xx_hal_smbus.c ****       /* PEC byte is automatically sent by HW block, no need to manage it in Transmit process */
1022:Drivers/STM32L4xx_HAL_Driver/Src/stm32l4xx_hal_smbus.c ****       if (SMBUS_GET_PEC_MODE(hsmbus) != 0UL)
 950              		.loc 1 1022 11
 951 017a FB68     		ldr	r3, [r7, #12]
 952 017c 1B68     		ldr	r3, [r3]
 953 017e 5B68     		ldr	r3, [r3, #4]
 954 0180 03F08063 		and	r3, r3, #67108864
 955              		.loc 1 1022 10
 956 0184 002B     		cmp	r3, #0
 957 0186 13D0     		beq	.L34
1023:Drivers/STM32L4xx_HAL_Driver/Src/stm32l4xx_hal_smbus.c ****       {
1024:Drivers/STM32L4xx_HAL_Driver/Src/stm32l4xx_hal_smbus.c ****         if (hsmbus->XferSize > 0U)
 958              		.loc 1 1024 19
 959 0188 FB68     		ldr	r3, [r7, #12]
 960 018a 1B8F     		ldrh	r3, [r3, #56]
 961              		.loc 1 1024 12
 962 018c 002B     		cmp	r3, #0
 963 018e 0DD0     		beq	.L40
1025:Drivers/STM32L4xx_HAL_Driver/Src/stm32l4xx_hal_smbus.c ****         {
1026:Drivers/STM32L4xx_HAL_Driver/Src/stm32l4xx_hal_smbus.c ****           hsmbus->XferSize--;
 964              		.loc 1 1026 17
 965 0190 FB68     		ldr	r3, [r7, #12]
 966 0192 1B8F     		ldrh	r3, [r3, #56]
 967              		.loc 1 1026 27
 968 0194 013B     		subs	r3, r3, #1
 969 0196 9AB2     		uxth	r2, r3
 970 0198 FB68     		ldr	r3, [r7, #12]
 971 019a 1A87     		strh	r2, [r3, #56]	@ movhi
ARM GAS  /tmp/ccysATpZ.s 			page 36


1027:Drivers/STM32L4xx_HAL_Driver/Src/stm32l4xx_hal_smbus.c ****           hsmbus->XferCount--;
 972              		.loc 1 1027 17
 973 019c FB68     		ldr	r3, [r7, #12]
 974 019e 5B8F     		ldrh	r3, [r3, #58]	@ movhi
 975 01a0 9BB2     		uxth	r3, r3
 976              		.loc 1 1027 28
 977 01a2 013B     		subs	r3, r3, #1
 978 01a4 9AB2     		uxth	r2, r3
 979 01a6 FB68     		ldr	r3, [r7, #12]
 980 01a8 5A87     		strh	r2, [r3, #58]	@ movhi
 981 01aa 01E0     		b	.L34
 982              	.L40:
1028:Drivers/STM32L4xx_HAL_Driver/Src/stm32l4xx_hal_smbus.c ****         }
1029:Drivers/STM32L4xx_HAL_Driver/Src/stm32l4xx_hal_smbus.c ****         else
1030:Drivers/STM32L4xx_HAL_Driver/Src/stm32l4xx_hal_smbus.c ****         {
1031:Drivers/STM32L4xx_HAL_Driver/Src/stm32l4xx_hal_smbus.c ****           return HAL_ERROR;
 983              		.loc 1 1031 18
 984 01ac 0123     		movs	r3, #1
 985 01ae 0AE0     		b	.L26
 986              	.L34:
1032:Drivers/STM32L4xx_HAL_Driver/Src/stm32l4xx_hal_smbus.c ****         }
1033:Drivers/STM32L4xx_HAL_Driver/Src/stm32l4xx_hal_smbus.c ****       }
1034:Drivers/STM32L4xx_HAL_Driver/Src/stm32l4xx_hal_smbus.c ****     }
1035:Drivers/STM32L4xx_HAL_Driver/Src/stm32l4xx_hal_smbus.c **** 
1036:Drivers/STM32L4xx_HAL_Driver/Src/stm32l4xx_hal_smbus.c ****     /* Process Unlocked */
1037:Drivers/STM32L4xx_HAL_Driver/Src/stm32l4xx_hal_smbus.c ****     __HAL_UNLOCK(hsmbus);
 987              		.loc 1 1037 5
 988 01b0 FB68     		ldr	r3, [r7, #12]
 989 01b2 0022     		movs	r2, #0
 990 01b4 83F84420 		strb	r2, [r3, #68]
1038:Drivers/STM32L4xx_HAL_Driver/Src/stm32l4xx_hal_smbus.c **** 
1039:Drivers/STM32L4xx_HAL_Driver/Src/stm32l4xx_hal_smbus.c ****     /* Note : The SMBUS interrupts must be enabled after unlocking current process
1040:Drivers/STM32L4xx_HAL_Driver/Src/stm32l4xx_hal_smbus.c ****               to avoid the risk of SMBUS interrupt handle execution before current
1041:Drivers/STM32L4xx_HAL_Driver/Src/stm32l4xx_hal_smbus.c ****               process unlock */
1042:Drivers/STM32L4xx_HAL_Driver/Src/stm32l4xx_hal_smbus.c ****     SMBUS_Enable_IRQ(hsmbus, SMBUS_IT_TX);
 991              		.loc 1 1042 5
 992 01b8 F221     		movs	r1, #242
 993 01ba F868     		ldr	r0, [r7, #12]
 994 01bc FFF7FEFF 		bl	SMBUS_Enable_IRQ
1043:Drivers/STM32L4xx_HAL_Driver/Src/stm32l4xx_hal_smbus.c **** 
1044:Drivers/STM32L4xx_HAL_Driver/Src/stm32l4xx_hal_smbus.c ****     return HAL_OK;
 995              		.loc 1 1044 12
 996 01c0 0023     		movs	r3, #0
 997 01c2 00E0     		b	.L26
 998              	.L24:
1045:Drivers/STM32L4xx_HAL_Driver/Src/stm32l4xx_hal_smbus.c ****   }
1046:Drivers/STM32L4xx_HAL_Driver/Src/stm32l4xx_hal_smbus.c ****   else
1047:Drivers/STM32L4xx_HAL_Driver/Src/stm32l4xx_hal_smbus.c ****   {
1048:Drivers/STM32L4xx_HAL_Driver/Src/stm32l4xx_hal_smbus.c ****     return HAL_BUSY;
 999              		.loc 1 1048 12
 1000 01c4 0223     		movs	r3, #2
 1001              	.L26:
1049:Drivers/STM32L4xx_HAL_Driver/Src/stm32l4xx_hal_smbus.c ****   }
1050:Drivers/STM32L4xx_HAL_Driver/Src/stm32l4xx_hal_smbus.c **** }
 1002              		.loc 1 1050 1
 1003 01c6 1846     		mov	r0, r3
 1004 01c8 1837     		adds	r7, r7, #24
ARM GAS  /tmp/ccysATpZ.s 			page 37


 1005              		.cfi_def_cfa_offset 8
 1006 01ca BD46     		mov	sp, r7
 1007              		.cfi_def_cfa_register 13
 1008              		@ sp needed
 1009 01cc 80BD     		pop	{r7, pc}
 1010              	.L42:
 1011 01ce 00BF     		.align	2
 1012              	.L41:
 1013 01d0 00200080 		.word	-2147475456
 1014              		.cfi_endproc
 1015              	.LFE451:
 1017              		.section	.text.HAL_SMBUS_Master_Receive_IT,"ax",%progbits
 1018              		.align	1
 1019              		.global	HAL_SMBUS_Master_Receive_IT
 1020              		.syntax unified
 1021              		.thumb
 1022              		.thumb_func
 1024              	HAL_SMBUS_Master_Receive_IT:
 1025              	.LFB452:
1051:Drivers/STM32L4xx_HAL_Driver/Src/stm32l4xx_hal_smbus.c **** 
1052:Drivers/STM32L4xx_HAL_Driver/Src/stm32l4xx_hal_smbus.c **** /**
1053:Drivers/STM32L4xx_HAL_Driver/Src/stm32l4xx_hal_smbus.c ****   * @brief  Receive in master/host SMBUS mode an amount of data in non-blocking mode with Interrupt
1054:Drivers/STM32L4xx_HAL_Driver/Src/stm32l4xx_hal_smbus.c ****   * @param  hsmbus Pointer to a SMBUS_HandleTypeDef structure that contains
1055:Drivers/STM32L4xx_HAL_Driver/Src/stm32l4xx_hal_smbus.c ****   *                the configuration information for the specified SMBUS.
1056:Drivers/STM32L4xx_HAL_Driver/Src/stm32l4xx_hal_smbus.c ****   * @param  DevAddress Target device address: The device 7 bits address value
1057:Drivers/STM32L4xx_HAL_Driver/Src/stm32l4xx_hal_smbus.c ****   *         in datasheet must be shifted to the left before calling the interface
1058:Drivers/STM32L4xx_HAL_Driver/Src/stm32l4xx_hal_smbus.c ****   * @param  pData Pointer to data buffer
1059:Drivers/STM32L4xx_HAL_Driver/Src/stm32l4xx_hal_smbus.c ****   * @param  Size Amount of data to be sent
1060:Drivers/STM32L4xx_HAL_Driver/Src/stm32l4xx_hal_smbus.c ****   * @param  XferOptions Options of Transfer, value of @ref SMBUS_XferOptions_definition
1061:Drivers/STM32L4xx_HAL_Driver/Src/stm32l4xx_hal_smbus.c ****   * @retval HAL status
1062:Drivers/STM32L4xx_HAL_Driver/Src/stm32l4xx_hal_smbus.c ****   */
1063:Drivers/STM32L4xx_HAL_Driver/Src/stm32l4xx_hal_smbus.c **** HAL_StatusTypeDef HAL_SMBUS_Master_Receive_IT(SMBUS_HandleTypeDef *hsmbus, uint16_t DevAddress, uin
1064:Drivers/STM32L4xx_HAL_Driver/Src/stm32l4xx_hal_smbus.c ****                                               uint16_t Size, uint32_t XferOptions)
1065:Drivers/STM32L4xx_HAL_Driver/Src/stm32l4xx_hal_smbus.c **** {
 1026              		.loc 1 1065 1
 1027              		.cfi_startproc
 1028              		@ args = 4, pretend = 0, frame = 24
 1029              		@ frame_needed = 1, uses_anonymous_args = 0
 1030 0000 80B5     		push	{r7, lr}
 1031              		.cfi_def_cfa_offset 8
 1032              		.cfi_offset 7, -8
 1033              		.cfi_offset 14, -4
 1034 0002 88B0     		sub	sp, sp, #32
 1035              		.cfi_def_cfa_offset 40
 1036 0004 02AF     		add	r7, sp, #8
 1037              		.cfi_def_cfa 7, 32
 1038 0006 F860     		str	r0, [r7, #12]
 1039 0008 7A60     		str	r2, [r7, #4]
 1040 000a 1A46     		mov	r2, r3
 1041 000c 0B46     		mov	r3, r1	@ movhi
 1042 000e 7B81     		strh	r3, [r7, #10]	@ movhi
 1043 0010 1346     		mov	r3, r2	@ movhi
 1044 0012 3B81     		strh	r3, [r7, #8]	@ movhi
1066:Drivers/STM32L4xx_HAL_Driver/Src/stm32l4xx_hal_smbus.c ****   uint32_t tmp;
1067:Drivers/STM32L4xx_HAL_Driver/Src/stm32l4xx_hal_smbus.c **** 
1068:Drivers/STM32L4xx_HAL_Driver/Src/stm32l4xx_hal_smbus.c ****   /* Check the parameters */
1069:Drivers/STM32L4xx_HAL_Driver/Src/stm32l4xx_hal_smbus.c ****   assert_param(IS_SMBUS_TRANSFER_OPTIONS_REQUEST(XferOptions));
ARM GAS  /tmp/ccysATpZ.s 			page 38


1070:Drivers/STM32L4xx_HAL_Driver/Src/stm32l4xx_hal_smbus.c **** 
1071:Drivers/STM32L4xx_HAL_Driver/Src/stm32l4xx_hal_smbus.c ****   if (hsmbus->State == HAL_SMBUS_STATE_READY)
 1045              		.loc 1 1071 13
 1046 0014 FB68     		ldr	r3, [r7, #12]
 1047 0016 9B6C     		ldr	r3, [r3, #72]
 1048              		.loc 1 1071 6
 1049 0018 012B     		cmp	r3, #1
 1050 001a 40F08880 		bne	.L44
1072:Drivers/STM32L4xx_HAL_Driver/Src/stm32l4xx_hal_smbus.c ****   {
1073:Drivers/STM32L4xx_HAL_Driver/Src/stm32l4xx_hal_smbus.c ****     /* Process Locked */
1074:Drivers/STM32L4xx_HAL_Driver/Src/stm32l4xx_hal_smbus.c ****     __HAL_LOCK(hsmbus);
 1051              		.loc 1 1074 5
 1052 001e FB68     		ldr	r3, [r7, #12]
 1053 0020 93F84430 		ldrb	r3, [r3, #68]	@ zero_extendqisi2
 1054 0024 012B     		cmp	r3, #1
 1055 0026 01D1     		bne	.L45
 1056              		.loc 1 1074 5 is_stmt 0 discriminator 1
 1057 0028 0223     		movs	r3, #2
 1058              		.loc 1 1074 5
 1059 002a 81E0     		b	.L46
 1060              	.L45:
 1061              		.loc 1 1074 5 discriminator 2
 1062 002c FB68     		ldr	r3, [r7, #12]
 1063 002e 0122     		movs	r2, #1
 1064 0030 83F84420 		strb	r2, [r3, #68]
1075:Drivers/STM32L4xx_HAL_Driver/Src/stm32l4xx_hal_smbus.c **** 
1076:Drivers/STM32L4xx_HAL_Driver/Src/stm32l4xx_hal_smbus.c ****     hsmbus->State = HAL_SMBUS_STATE_MASTER_BUSY_RX;
 1065              		.loc 1 1076 19 is_stmt 1
 1066 0034 FB68     		ldr	r3, [r7, #12]
 1067 0036 2222     		movs	r2, #34
 1068 0038 9A64     		str	r2, [r3, #72]
1077:Drivers/STM32L4xx_HAL_Driver/Src/stm32l4xx_hal_smbus.c ****     hsmbus->ErrorCode = HAL_SMBUS_ERROR_NONE;
 1069              		.loc 1 1077 23
 1070 003a FB68     		ldr	r3, [r7, #12]
 1071 003c 0022     		movs	r2, #0
 1072 003e DA64     		str	r2, [r3, #76]
1078:Drivers/STM32L4xx_HAL_Driver/Src/stm32l4xx_hal_smbus.c **** 
1079:Drivers/STM32L4xx_HAL_Driver/Src/stm32l4xx_hal_smbus.c ****     /* Prepare transfer parameters */
1080:Drivers/STM32L4xx_HAL_Driver/Src/stm32l4xx_hal_smbus.c ****     hsmbus->pBuffPtr = pData;
 1073              		.loc 1 1080 22
 1074 0040 FB68     		ldr	r3, [r7, #12]
 1075 0042 7A68     		ldr	r2, [r7, #4]
 1076 0044 5A63     		str	r2, [r3, #52]
1081:Drivers/STM32L4xx_HAL_Driver/Src/stm32l4xx_hal_smbus.c ****     hsmbus->XferCount = Size;
 1077              		.loc 1 1081 23
 1078 0046 FB68     		ldr	r3, [r7, #12]
 1079 0048 3A89     		ldrh	r2, [r7, #8]	@ movhi
 1080 004a 5A87     		strh	r2, [r3, #58]	@ movhi
1082:Drivers/STM32L4xx_HAL_Driver/Src/stm32l4xx_hal_smbus.c ****     hsmbus->XferOptions = XferOptions;
 1081              		.loc 1 1082 25
 1082 004c FB68     		ldr	r3, [r7, #12]
 1083 004e 3A6A     		ldr	r2, [r7, #32]
 1084 0050 DA63     		str	r2, [r3, #60]
1083:Drivers/STM32L4xx_HAL_Driver/Src/stm32l4xx_hal_smbus.c **** 
1084:Drivers/STM32L4xx_HAL_Driver/Src/stm32l4xx_hal_smbus.c ****     /* In case of Quick command, remove autoend mode */
1085:Drivers/STM32L4xx_HAL_Driver/Src/stm32l4xx_hal_smbus.c ****     /* Manage the stop generation by software */
1086:Drivers/STM32L4xx_HAL_Driver/Src/stm32l4xx_hal_smbus.c ****     if (hsmbus->pBuffPtr == NULL)
ARM GAS  /tmp/ccysATpZ.s 			page 39


 1085              		.loc 1 1086 15
 1086 0052 FB68     		ldr	r3, [r7, #12]
 1087 0054 5B6B     		ldr	r3, [r3, #52]
 1088              		.loc 1 1086 8
 1089 0056 002B     		cmp	r3, #0
 1090 0058 05D1     		bne	.L47
1087:Drivers/STM32L4xx_HAL_Driver/Src/stm32l4xx_hal_smbus.c ****     {
1088:Drivers/STM32L4xx_HAL_Driver/Src/stm32l4xx_hal_smbus.c ****       hsmbus->XferOptions &= ~SMBUS_AUTOEND_MODE;
 1091              		.loc 1 1088 13
 1092 005a FB68     		ldr	r3, [r7, #12]
 1093 005c DB6B     		ldr	r3, [r3, #60]
 1094              		.loc 1 1088 27
 1095 005e 23F00072 		bic	r2, r3, #33554432
 1096 0062 FB68     		ldr	r3, [r7, #12]
 1097 0064 DA63     		str	r2, [r3, #60]
 1098              	.L47:
1089:Drivers/STM32L4xx_HAL_Driver/Src/stm32l4xx_hal_smbus.c ****     }
1090:Drivers/STM32L4xx_HAL_Driver/Src/stm32l4xx_hal_smbus.c **** 
1091:Drivers/STM32L4xx_HAL_Driver/Src/stm32l4xx_hal_smbus.c ****     if (Size > MAX_NBYTE_SIZE)
 1099              		.loc 1 1091 8
 1100 0066 3B89     		ldrh	r3, [r7, #8]
 1101 0068 FF2B     		cmp	r3, #255
 1102 006a 03D9     		bls	.L48
1092:Drivers/STM32L4xx_HAL_Driver/Src/stm32l4xx_hal_smbus.c ****     {
1093:Drivers/STM32L4xx_HAL_Driver/Src/stm32l4xx_hal_smbus.c ****       hsmbus->XferSize = MAX_NBYTE_SIZE;
 1103              		.loc 1 1093 24
 1104 006c FB68     		ldr	r3, [r7, #12]
 1105 006e FF22     		movs	r2, #255
 1106 0070 1A87     		strh	r2, [r3, #56]	@ movhi
 1107 0072 02E0     		b	.L49
 1108              	.L48:
1094:Drivers/STM32L4xx_HAL_Driver/Src/stm32l4xx_hal_smbus.c ****     }
1095:Drivers/STM32L4xx_HAL_Driver/Src/stm32l4xx_hal_smbus.c ****     else
1096:Drivers/STM32L4xx_HAL_Driver/Src/stm32l4xx_hal_smbus.c ****     {
1097:Drivers/STM32L4xx_HAL_Driver/Src/stm32l4xx_hal_smbus.c ****       hsmbus->XferSize = Size;
 1109              		.loc 1 1097 24
 1110 0074 FB68     		ldr	r3, [r7, #12]
 1111 0076 3A89     		ldrh	r2, [r7, #8]	@ movhi
 1112 0078 1A87     		strh	r2, [r3, #56]	@ movhi
 1113              	.L49:
1098:Drivers/STM32L4xx_HAL_Driver/Src/stm32l4xx_hal_smbus.c ****     }
1099:Drivers/STM32L4xx_HAL_Driver/Src/stm32l4xx_hal_smbus.c **** 
1100:Drivers/STM32L4xx_HAL_Driver/Src/stm32l4xx_hal_smbus.c ****     /* Send Slave Address */
1101:Drivers/STM32L4xx_HAL_Driver/Src/stm32l4xx_hal_smbus.c ****     /* Set NBYTES to write and reload if size > MAX_NBYTE_SIZE and generate RESTART */
1102:Drivers/STM32L4xx_HAL_Driver/Src/stm32l4xx_hal_smbus.c ****     if ((hsmbus->XferSize < hsmbus->XferCount) && (hsmbus->XferSize == MAX_NBYTE_SIZE))
 1114              		.loc 1 1102 16
 1115 007a FB68     		ldr	r3, [r7, #12]
 1116 007c 1A8F     		ldrh	r2, [r3, #56]
 1117              		.loc 1 1102 35
 1118 007e FB68     		ldr	r3, [r7, #12]
 1119 0080 5B8F     		ldrh	r3, [r3, #58]	@ movhi
 1120 0082 9BB2     		uxth	r3, r3
 1121              		.loc 1 1102 8
 1122 0084 9A42     		cmp	r2, r3
 1123 0086 13D2     		bcs	.L50
 1124              		.loc 1 1102 58 discriminator 1
 1125 0088 FB68     		ldr	r3, [r7, #12]
ARM GAS  /tmp/ccysATpZ.s 			page 40


 1126 008a 1B8F     		ldrh	r3, [r3, #56]
 1127              		.loc 1 1102 48 discriminator 1
 1128 008c FF2B     		cmp	r3, #255
 1129 008e 0FD1     		bne	.L50
1103:Drivers/STM32L4xx_HAL_Driver/Src/stm32l4xx_hal_smbus.c ****     {
1104:Drivers/STM32L4xx_HAL_Driver/Src/stm32l4xx_hal_smbus.c ****       SMBUS_TransferConfig(hsmbus, DevAddress, (uint8_t)hsmbus->XferSize,
 1130              		.loc 1 1104 63
 1131 0090 FB68     		ldr	r3, [r7, #12]
 1132 0092 1B8F     		ldrh	r3, [r3, #56]
 1133              		.loc 1 1104 7
 1134 0094 DAB2     		uxtb	r2, r3
1105:Drivers/STM32L4xx_HAL_Driver/Src/stm32l4xx_hal_smbus.c ****                            SMBUS_RELOAD_MODE  | (hsmbus->XferOptions & SMBUS_SENDPEC_MODE),
 1135              		.loc 1 1105 56
 1136 0096 FB68     		ldr	r3, [r7, #12]
 1137 0098 DB6B     		ldr	r3, [r3, #60]
 1138              		.loc 1 1105 70
 1139 009a 03F08063 		and	r3, r3, #67108864
1104:Drivers/STM32L4xx_HAL_Driver/Src/stm32l4xx_hal_smbus.c ****                            SMBUS_RELOAD_MODE  | (hsmbus->XferOptions & SMBUS_SENDPEC_MODE),
 1140              		.loc 1 1104 7
 1141 009e 43F08073 		orr	r3, r3, #16777216
 1142 00a2 7989     		ldrh	r1, [r7, #10]
 1143 00a4 2448     		ldr	r0, .L56
 1144 00a6 0090     		str	r0, [sp]
 1145 00a8 F868     		ldr	r0, [r7, #12]
 1146 00aa FFF7FEFF 		bl	SMBUS_TransferConfig
 1147 00ae 34E0     		b	.L51
 1148              	.L50:
1106:Drivers/STM32L4xx_HAL_Driver/Src/stm32l4xx_hal_smbus.c ****                            SMBUS_GENERATE_START_READ);
1107:Drivers/STM32L4xx_HAL_Driver/Src/stm32l4xx_hal_smbus.c ****     }
1108:Drivers/STM32L4xx_HAL_Driver/Src/stm32l4xx_hal_smbus.c ****     else
1109:Drivers/STM32L4xx_HAL_Driver/Src/stm32l4xx_hal_smbus.c ****     {
1110:Drivers/STM32L4xx_HAL_Driver/Src/stm32l4xx_hal_smbus.c ****       /* If transfer direction not change, do not generate Restart Condition */
1111:Drivers/STM32L4xx_HAL_Driver/Src/stm32l4xx_hal_smbus.c ****       /* Mean Previous state is same as current state */
1112:Drivers/STM32L4xx_HAL_Driver/Src/stm32l4xx_hal_smbus.c **** 
1113:Drivers/STM32L4xx_HAL_Driver/Src/stm32l4xx_hal_smbus.c ****       /* Store current volatile XferOptions, Misra rule */
1114:Drivers/STM32L4xx_HAL_Driver/Src/stm32l4xx_hal_smbus.c ****       tmp = hsmbus->XferOptions;
 1149              		.loc 1 1114 11
 1150 00b0 FB68     		ldr	r3, [r7, #12]
 1151 00b2 DB6B     		ldr	r3, [r3, #60]
 1152 00b4 7B61     		str	r3, [r7, #20]
1115:Drivers/STM32L4xx_HAL_Driver/Src/stm32l4xx_hal_smbus.c **** 
1116:Drivers/STM32L4xx_HAL_Driver/Src/stm32l4xx_hal_smbus.c ****       if ((hsmbus->PreviousState == HAL_SMBUS_STATE_MASTER_BUSY_RX) && \
 1153              		.loc 1 1116 18
 1154 00b6 FB68     		ldr	r3, [r7, #12]
 1155 00b8 1B6C     		ldr	r3, [r3, #64]
 1156              		.loc 1 1116 10
 1157 00ba 222B     		cmp	r3, #34
 1158 00bc 1FD1     		bne	.L52
1117:Drivers/STM32L4xx_HAL_Driver/Src/stm32l4xx_hal_smbus.c ****           (IS_SMBUS_TRANSFER_OTHER_OPTIONS_REQUEST(tmp) == 0))
 1159              		.loc 1 1117 12
 1160 00be 7B69     		ldr	r3, [r7, #20]
 1161 00c0 AA2B     		cmp	r3, #170
 1162 00c2 0BD0     		beq	.L53
 1163              		.loc 1 1117 12 is_stmt 0 discriminator 2
 1164 00c4 7B69     		ldr	r3, [r7, #20]
 1165 00c6 B3F52A0F 		cmp	r3, #11141120
 1166 00ca 07D0     		beq	.L53
ARM GAS  /tmp/ccysATpZ.s 			page 41


 1167              		.loc 1 1117 12 discriminator 4
 1168 00cc 7B69     		ldr	r3, [r7, #20]
 1169 00ce B3F52A4F 		cmp	r3, #43520
 1170 00d2 03D0     		beq	.L53
 1171              		.loc 1 1117 12 discriminator 6
 1172 00d4 7B69     		ldr	r3, [r7, #20]
 1173 00d6 B3F12A4F 		cmp	r3, #-1442840576
 1174 00da 01D1     		bne	.L54
 1175              	.L53:
 1176              		.loc 1 1117 12 discriminator 7
 1177 00dc 0123     		movs	r3, #1
 1178              		.loc 1 1117 12
 1179 00de 00E0     		b	.L55
 1180              	.L54:
 1181              		.loc 1 1117 12 discriminator 8
 1182 00e0 0023     		movs	r3, #0
 1183              	.L55:
1116:Drivers/STM32L4xx_HAL_Driver/Src/stm32l4xx_hal_smbus.c ****           (IS_SMBUS_TRANSFER_OTHER_OPTIONS_REQUEST(tmp) == 0))
 1184              		.loc 1 1116 69 is_stmt 1
 1185 00e2 002B     		cmp	r3, #0
 1186 00e4 0BD1     		bne	.L52
1118:Drivers/STM32L4xx_HAL_Driver/Src/stm32l4xx_hal_smbus.c ****       {
1119:Drivers/STM32L4xx_HAL_Driver/Src/stm32l4xx_hal_smbus.c ****         SMBUS_TransferConfig(hsmbus, DevAddress, (uint8_t)hsmbus->XferSize, hsmbus->XferOptions,
 1187              		.loc 1 1119 65
 1188 00e6 FB68     		ldr	r3, [r7, #12]
 1189 00e8 1B8F     		ldrh	r3, [r3, #56]
 1190              		.loc 1 1119 9
 1191 00ea DAB2     		uxtb	r2, r3
 1192              		.loc 1 1119 83
 1193 00ec FB68     		ldr	r3, [r7, #12]
 1194 00ee DB6B     		ldr	r3, [r3, #60]
 1195              		.loc 1 1119 9
 1196 00f0 7989     		ldrh	r1, [r7, #10]
 1197 00f2 0020     		movs	r0, #0
 1198 00f4 0090     		str	r0, [sp]
 1199 00f6 F868     		ldr	r0, [r7, #12]
 1200 00f8 FFF7FEFF 		bl	SMBUS_TransferConfig
 1201 00fc 0DE0     		b	.L51
 1202              	.L52:
1120:Drivers/STM32L4xx_HAL_Driver/Src/stm32l4xx_hal_smbus.c ****                              SMBUS_NO_STARTSTOP);
1121:Drivers/STM32L4xx_HAL_Driver/Src/stm32l4xx_hal_smbus.c ****       }
1122:Drivers/STM32L4xx_HAL_Driver/Src/stm32l4xx_hal_smbus.c ****       /* Else transfer direction change, so generate Restart with new transfer direction */
1123:Drivers/STM32L4xx_HAL_Driver/Src/stm32l4xx_hal_smbus.c ****       else
1124:Drivers/STM32L4xx_HAL_Driver/Src/stm32l4xx_hal_smbus.c ****       {
1125:Drivers/STM32L4xx_HAL_Driver/Src/stm32l4xx_hal_smbus.c ****         /* Convert OTHER_xxx XferOptions if any */
1126:Drivers/STM32L4xx_HAL_Driver/Src/stm32l4xx_hal_smbus.c ****         SMBUS_ConvertOtherXferOptions(hsmbus);
 1203              		.loc 1 1126 9
 1204 00fe F868     		ldr	r0, [r7, #12]
 1205 0100 FFF7FEFF 		bl	SMBUS_ConvertOtherXferOptions
1127:Drivers/STM32L4xx_HAL_Driver/Src/stm32l4xx_hal_smbus.c **** 
1128:Drivers/STM32L4xx_HAL_Driver/Src/stm32l4xx_hal_smbus.c ****         /* Handle Transfer */
1129:Drivers/STM32L4xx_HAL_Driver/Src/stm32l4xx_hal_smbus.c ****         SMBUS_TransferConfig(hsmbus, DevAddress, (uint8_t)hsmbus->XferSize,
 1206              		.loc 1 1129 65
 1207 0104 FB68     		ldr	r3, [r7, #12]
 1208 0106 1B8F     		ldrh	r3, [r3, #56]
 1209              		.loc 1 1129 9
 1210 0108 DAB2     		uxtb	r2, r3
ARM GAS  /tmp/ccysATpZ.s 			page 42


1130:Drivers/STM32L4xx_HAL_Driver/Src/stm32l4xx_hal_smbus.c ****                              hsmbus->XferOptions,
 1211              		.loc 1 1130 36
 1212 010a FB68     		ldr	r3, [r7, #12]
 1213 010c DB6B     		ldr	r3, [r3, #60]
1129:Drivers/STM32L4xx_HAL_Driver/Src/stm32l4xx_hal_smbus.c ****                              hsmbus->XferOptions,
 1214              		.loc 1 1129 9
 1215 010e 7989     		ldrh	r1, [r7, #10]
 1216 0110 0948     		ldr	r0, .L56
 1217 0112 0090     		str	r0, [sp]
 1218 0114 F868     		ldr	r0, [r7, #12]
 1219 0116 FFF7FEFF 		bl	SMBUS_TransferConfig
 1220              	.L51:
1131:Drivers/STM32L4xx_HAL_Driver/Src/stm32l4xx_hal_smbus.c ****                              SMBUS_GENERATE_START_READ);
1132:Drivers/STM32L4xx_HAL_Driver/Src/stm32l4xx_hal_smbus.c ****       }
1133:Drivers/STM32L4xx_HAL_Driver/Src/stm32l4xx_hal_smbus.c ****     }
1134:Drivers/STM32L4xx_HAL_Driver/Src/stm32l4xx_hal_smbus.c **** 
1135:Drivers/STM32L4xx_HAL_Driver/Src/stm32l4xx_hal_smbus.c ****     /* Process Unlocked */
1136:Drivers/STM32L4xx_HAL_Driver/Src/stm32l4xx_hal_smbus.c ****     __HAL_UNLOCK(hsmbus);
 1221              		.loc 1 1136 5
 1222 011a FB68     		ldr	r3, [r7, #12]
 1223 011c 0022     		movs	r2, #0
 1224 011e 83F84420 		strb	r2, [r3, #68]
1137:Drivers/STM32L4xx_HAL_Driver/Src/stm32l4xx_hal_smbus.c **** 
1138:Drivers/STM32L4xx_HAL_Driver/Src/stm32l4xx_hal_smbus.c ****     /* Note : The SMBUS interrupts must be enabled after unlocking current process
1139:Drivers/STM32L4xx_HAL_Driver/Src/stm32l4xx_hal_smbus.c ****               to avoid the risk of SMBUS interrupt handle execution before current
1140:Drivers/STM32L4xx_HAL_Driver/Src/stm32l4xx_hal_smbus.c ****               process unlock */
1141:Drivers/STM32L4xx_HAL_Driver/Src/stm32l4xx_hal_smbus.c ****     SMBUS_Enable_IRQ(hsmbus, SMBUS_IT_RX);
 1225              		.loc 1 1141 5
 1226 0122 D421     		movs	r1, #212
 1227 0124 F868     		ldr	r0, [r7, #12]
 1228 0126 FFF7FEFF 		bl	SMBUS_Enable_IRQ
1142:Drivers/STM32L4xx_HAL_Driver/Src/stm32l4xx_hal_smbus.c **** 
1143:Drivers/STM32L4xx_HAL_Driver/Src/stm32l4xx_hal_smbus.c ****     return HAL_OK;
 1229              		.loc 1 1143 12
 1230 012a 0023     		movs	r3, #0
 1231 012c 00E0     		b	.L46
 1232              	.L44:
1144:Drivers/STM32L4xx_HAL_Driver/Src/stm32l4xx_hal_smbus.c ****   }
1145:Drivers/STM32L4xx_HAL_Driver/Src/stm32l4xx_hal_smbus.c ****   else
1146:Drivers/STM32L4xx_HAL_Driver/Src/stm32l4xx_hal_smbus.c ****   {
1147:Drivers/STM32L4xx_HAL_Driver/Src/stm32l4xx_hal_smbus.c ****     return HAL_BUSY;
 1233              		.loc 1 1147 12
 1234 012e 0223     		movs	r3, #2
 1235              	.L46:
1148:Drivers/STM32L4xx_HAL_Driver/Src/stm32l4xx_hal_smbus.c ****   }
1149:Drivers/STM32L4xx_HAL_Driver/Src/stm32l4xx_hal_smbus.c **** }
 1236              		.loc 1 1149 1
 1237 0130 1846     		mov	r0, r3
 1238 0132 1837     		adds	r7, r7, #24
 1239              		.cfi_def_cfa_offset 8
 1240 0134 BD46     		mov	sp, r7
 1241              		.cfi_def_cfa_register 13
 1242              		@ sp needed
 1243 0136 80BD     		pop	{r7, pc}
 1244              	.L57:
 1245              		.align	2
 1246              	.L56:
ARM GAS  /tmp/ccysATpZ.s 			page 43


 1247 0138 00240080 		.word	-2147474432
 1248              		.cfi_endproc
 1249              	.LFE452:
 1251              		.section	.text.HAL_SMBUS_Master_Abort_IT,"ax",%progbits
 1252              		.align	1
 1253              		.global	HAL_SMBUS_Master_Abort_IT
 1254              		.syntax unified
 1255              		.thumb
 1256              		.thumb_func
 1258              	HAL_SMBUS_Master_Abort_IT:
 1259              	.LFB453:
1150:Drivers/STM32L4xx_HAL_Driver/Src/stm32l4xx_hal_smbus.c **** 
1151:Drivers/STM32L4xx_HAL_Driver/Src/stm32l4xx_hal_smbus.c **** /**
1152:Drivers/STM32L4xx_HAL_Driver/Src/stm32l4xx_hal_smbus.c ****   * @brief  Abort a master/host SMBUS process communication with Interrupt.
1153:Drivers/STM32L4xx_HAL_Driver/Src/stm32l4xx_hal_smbus.c ****   * @note   This abort can be called only if state is ready
1154:Drivers/STM32L4xx_HAL_Driver/Src/stm32l4xx_hal_smbus.c ****   * @param  hsmbus Pointer to a SMBUS_HandleTypeDef structure that contains
1155:Drivers/STM32L4xx_HAL_Driver/Src/stm32l4xx_hal_smbus.c ****   *                the configuration information for the specified SMBUS.
1156:Drivers/STM32L4xx_HAL_Driver/Src/stm32l4xx_hal_smbus.c ****   * @param  DevAddress Target device address: The device 7 bits address value
1157:Drivers/STM32L4xx_HAL_Driver/Src/stm32l4xx_hal_smbus.c ****   *         in datasheet must be shifted to the left before calling the interface
1158:Drivers/STM32L4xx_HAL_Driver/Src/stm32l4xx_hal_smbus.c ****   * @retval HAL status
1159:Drivers/STM32L4xx_HAL_Driver/Src/stm32l4xx_hal_smbus.c ****   */
1160:Drivers/STM32L4xx_HAL_Driver/Src/stm32l4xx_hal_smbus.c **** HAL_StatusTypeDef HAL_SMBUS_Master_Abort_IT(SMBUS_HandleTypeDef *hsmbus, uint16_t DevAddress)
1161:Drivers/STM32L4xx_HAL_Driver/Src/stm32l4xx_hal_smbus.c **** {
 1260              		.loc 1 1161 1
 1261              		.cfi_startproc
 1262              		@ args = 0, pretend = 0, frame = 8
 1263              		@ frame_needed = 1, uses_anonymous_args = 0
 1264 0000 80B5     		push	{r7, lr}
 1265              		.cfi_def_cfa_offset 8
 1266              		.cfi_offset 7, -8
 1267              		.cfi_offset 14, -4
 1268 0002 84B0     		sub	sp, sp, #16
 1269              		.cfi_def_cfa_offset 24
 1270 0004 02AF     		add	r7, sp, #8
 1271              		.cfi_def_cfa 7, 16
 1272 0006 7860     		str	r0, [r7, #4]
 1273 0008 0B46     		mov	r3, r1
 1274 000a 7B80     		strh	r3, [r7, #2]	@ movhi
1162:Drivers/STM32L4xx_HAL_Driver/Src/stm32l4xx_hal_smbus.c ****   if (hsmbus->State == HAL_SMBUS_STATE_READY)
 1275              		.loc 1 1162 13
 1276 000c 7B68     		ldr	r3, [r7, #4]
 1277 000e 9B6C     		ldr	r3, [r3, #72]
 1278              		.loc 1 1162 6
 1279 0010 012B     		cmp	r3, #1
 1280 0012 3FD1     		bne	.L59
1163:Drivers/STM32L4xx_HAL_Driver/Src/stm32l4xx_hal_smbus.c ****   {
1164:Drivers/STM32L4xx_HAL_Driver/Src/stm32l4xx_hal_smbus.c ****     /* Process Locked */
1165:Drivers/STM32L4xx_HAL_Driver/Src/stm32l4xx_hal_smbus.c ****     __HAL_LOCK(hsmbus);
 1281              		.loc 1 1165 5
 1282 0014 7B68     		ldr	r3, [r7, #4]
 1283 0016 93F84430 		ldrb	r3, [r3, #68]	@ zero_extendqisi2
 1284 001a 012B     		cmp	r3, #1
 1285 001c 01D1     		bne	.L60
 1286              		.loc 1 1165 5 is_stmt 0 discriminator 1
 1287 001e 0223     		movs	r3, #2
 1288              		.loc 1 1165 5
 1289 0020 39E0     		b	.L61
ARM GAS  /tmp/ccysATpZ.s 			page 44


 1290              	.L60:
 1291              		.loc 1 1165 5 discriminator 2
 1292 0022 7B68     		ldr	r3, [r7, #4]
 1293 0024 0122     		movs	r2, #1
 1294 0026 83F84420 		strb	r2, [r3, #68]
1166:Drivers/STM32L4xx_HAL_Driver/Src/stm32l4xx_hal_smbus.c **** 
1167:Drivers/STM32L4xx_HAL_Driver/Src/stm32l4xx_hal_smbus.c ****     /* Keep the same state as previous */
1168:Drivers/STM32L4xx_HAL_Driver/Src/stm32l4xx_hal_smbus.c ****     /* to perform as well the call of the corresponding end of transfer callback */
1169:Drivers/STM32L4xx_HAL_Driver/Src/stm32l4xx_hal_smbus.c ****     if (hsmbus->PreviousState == HAL_SMBUS_STATE_MASTER_BUSY_TX)
 1295              		.loc 1 1169 15 is_stmt 1
 1296 002a 7B68     		ldr	r3, [r7, #4]
 1297 002c 1B6C     		ldr	r3, [r3, #64]
 1298              		.loc 1 1169 8
 1299 002e 122B     		cmp	r3, #18
 1300 0030 03D1     		bne	.L62
1170:Drivers/STM32L4xx_HAL_Driver/Src/stm32l4xx_hal_smbus.c ****     {
1171:Drivers/STM32L4xx_HAL_Driver/Src/stm32l4xx_hal_smbus.c ****       hsmbus->State = HAL_SMBUS_STATE_MASTER_BUSY_TX;
 1301              		.loc 1 1171 21
 1302 0032 7B68     		ldr	r3, [r7, #4]
 1303 0034 1222     		movs	r2, #18
 1304 0036 9A64     		str	r2, [r3, #72]
 1305 0038 09E0     		b	.L63
 1306              	.L62:
1172:Drivers/STM32L4xx_HAL_Driver/Src/stm32l4xx_hal_smbus.c ****     }
1173:Drivers/STM32L4xx_HAL_Driver/Src/stm32l4xx_hal_smbus.c ****     else if (hsmbus->PreviousState == HAL_SMBUS_STATE_MASTER_BUSY_RX)
 1307              		.loc 1 1173 20
 1308 003a 7B68     		ldr	r3, [r7, #4]
 1309 003c 1B6C     		ldr	r3, [r3, #64]
 1310              		.loc 1 1173 13
 1311 003e 222B     		cmp	r3, #34
 1312 0040 03D1     		bne	.L64
1174:Drivers/STM32L4xx_HAL_Driver/Src/stm32l4xx_hal_smbus.c ****     {
1175:Drivers/STM32L4xx_HAL_Driver/Src/stm32l4xx_hal_smbus.c ****       hsmbus->State = HAL_SMBUS_STATE_MASTER_BUSY_RX;
 1313              		.loc 1 1175 21
 1314 0042 7B68     		ldr	r3, [r7, #4]
 1315 0044 2222     		movs	r2, #34
 1316 0046 9A64     		str	r2, [r3, #72]
 1317 0048 01E0     		b	.L63
 1318              	.L64:
1176:Drivers/STM32L4xx_HAL_Driver/Src/stm32l4xx_hal_smbus.c ****     }
1177:Drivers/STM32L4xx_HAL_Driver/Src/stm32l4xx_hal_smbus.c ****     else
1178:Drivers/STM32L4xx_HAL_Driver/Src/stm32l4xx_hal_smbus.c ****     {
1179:Drivers/STM32L4xx_HAL_Driver/Src/stm32l4xx_hal_smbus.c ****       /* Wrong usage of abort function */
1180:Drivers/STM32L4xx_HAL_Driver/Src/stm32l4xx_hal_smbus.c ****       /* This function should be used only in case of abort monitored by master device */
1181:Drivers/STM32L4xx_HAL_Driver/Src/stm32l4xx_hal_smbus.c ****       return HAL_ERROR;
 1319              		.loc 1 1181 14
 1320 004a 0123     		movs	r3, #1
 1321 004c 23E0     		b	.L61
 1322              	.L63:
1182:Drivers/STM32L4xx_HAL_Driver/Src/stm32l4xx_hal_smbus.c ****     }
1183:Drivers/STM32L4xx_HAL_Driver/Src/stm32l4xx_hal_smbus.c ****     hsmbus->ErrorCode = HAL_SMBUS_ERROR_NONE;
 1323              		.loc 1 1183 23
 1324 004e 7B68     		ldr	r3, [r7, #4]
 1325 0050 0022     		movs	r2, #0
 1326 0052 DA64     		str	r2, [r3, #76]
1184:Drivers/STM32L4xx_HAL_Driver/Src/stm32l4xx_hal_smbus.c **** 
1185:Drivers/STM32L4xx_HAL_Driver/Src/stm32l4xx_hal_smbus.c ****     /* Set NBYTES to 1 to generate a dummy read on SMBUS peripheral */
ARM GAS  /tmp/ccysATpZ.s 			page 45


1186:Drivers/STM32L4xx_HAL_Driver/Src/stm32l4xx_hal_smbus.c ****     /* Set AUTOEND mode, this will generate a NACK then STOP condition to abort the current transfe
1187:Drivers/STM32L4xx_HAL_Driver/Src/stm32l4xx_hal_smbus.c ****     SMBUS_TransferConfig(hsmbus, DevAddress, 1, SMBUS_AUTOEND_MODE, SMBUS_NO_STARTSTOP);
 1327              		.loc 1 1187 5
 1328 0054 7988     		ldrh	r1, [r7, #2]
 1329 0056 0023     		movs	r3, #0
 1330 0058 0093     		str	r3, [sp]
 1331 005a 4FF00073 		mov	r3, #33554432
 1332 005e 0122     		movs	r2, #1
 1333 0060 7868     		ldr	r0, [r7, #4]
 1334 0062 FFF7FEFF 		bl	SMBUS_TransferConfig
1188:Drivers/STM32L4xx_HAL_Driver/Src/stm32l4xx_hal_smbus.c **** 
1189:Drivers/STM32L4xx_HAL_Driver/Src/stm32l4xx_hal_smbus.c ****     /* Process Unlocked */
1190:Drivers/STM32L4xx_HAL_Driver/Src/stm32l4xx_hal_smbus.c ****     __HAL_UNLOCK(hsmbus);
 1335              		.loc 1 1190 5
 1336 0066 7B68     		ldr	r3, [r7, #4]
 1337 0068 0022     		movs	r2, #0
 1338 006a 83F84420 		strb	r2, [r3, #68]
1191:Drivers/STM32L4xx_HAL_Driver/Src/stm32l4xx_hal_smbus.c **** 
1192:Drivers/STM32L4xx_HAL_Driver/Src/stm32l4xx_hal_smbus.c ****     /* Note : The SMBUS interrupts must be enabled after unlocking current process
1193:Drivers/STM32L4xx_HAL_Driver/Src/stm32l4xx_hal_smbus.c ****               to avoid the risk of SMBUS interrupt handle execution before current
1194:Drivers/STM32L4xx_HAL_Driver/Src/stm32l4xx_hal_smbus.c ****               process unlock */
1195:Drivers/STM32L4xx_HAL_Driver/Src/stm32l4xx_hal_smbus.c ****     if (hsmbus->State == HAL_SMBUS_STATE_MASTER_BUSY_TX)
 1339              		.loc 1 1195 15
 1340 006e 7B68     		ldr	r3, [r7, #4]
 1341 0070 9B6C     		ldr	r3, [r3, #72]
 1342              		.loc 1 1195 8
 1343 0072 122B     		cmp	r3, #18
 1344 0074 04D1     		bne	.L65
1196:Drivers/STM32L4xx_HAL_Driver/Src/stm32l4xx_hal_smbus.c ****     {
1197:Drivers/STM32L4xx_HAL_Driver/Src/stm32l4xx_hal_smbus.c ****       SMBUS_Enable_IRQ(hsmbus, SMBUS_IT_TX);
 1345              		.loc 1 1197 7
 1346 0076 F221     		movs	r1, #242
 1347 0078 7868     		ldr	r0, [r7, #4]
 1348 007a FFF7FEFF 		bl	SMBUS_Enable_IRQ
 1349 007e 07E0     		b	.L66
 1350              	.L65:
1198:Drivers/STM32L4xx_HAL_Driver/Src/stm32l4xx_hal_smbus.c ****     }
1199:Drivers/STM32L4xx_HAL_Driver/Src/stm32l4xx_hal_smbus.c ****     else if (hsmbus->State == HAL_SMBUS_STATE_MASTER_BUSY_RX)
 1351              		.loc 1 1199 20
 1352 0080 7B68     		ldr	r3, [r7, #4]
 1353 0082 9B6C     		ldr	r3, [r3, #72]
 1354              		.loc 1 1199 13
 1355 0084 222B     		cmp	r3, #34
 1356 0086 03D1     		bne	.L66
1200:Drivers/STM32L4xx_HAL_Driver/Src/stm32l4xx_hal_smbus.c ****     {
1201:Drivers/STM32L4xx_HAL_Driver/Src/stm32l4xx_hal_smbus.c ****       SMBUS_Enable_IRQ(hsmbus, SMBUS_IT_RX);
 1357              		.loc 1 1201 7
 1358 0088 D421     		movs	r1, #212
 1359 008a 7868     		ldr	r0, [r7, #4]
 1360 008c FFF7FEFF 		bl	SMBUS_Enable_IRQ
 1361              	.L66:
1202:Drivers/STM32L4xx_HAL_Driver/Src/stm32l4xx_hal_smbus.c ****     }
1203:Drivers/STM32L4xx_HAL_Driver/Src/stm32l4xx_hal_smbus.c ****     else
1204:Drivers/STM32L4xx_HAL_Driver/Src/stm32l4xx_hal_smbus.c ****     {
1205:Drivers/STM32L4xx_HAL_Driver/Src/stm32l4xx_hal_smbus.c ****       /* Nothing to do */
1206:Drivers/STM32L4xx_HAL_Driver/Src/stm32l4xx_hal_smbus.c ****     }
1207:Drivers/STM32L4xx_HAL_Driver/Src/stm32l4xx_hal_smbus.c **** 
ARM GAS  /tmp/ccysATpZ.s 			page 46


1208:Drivers/STM32L4xx_HAL_Driver/Src/stm32l4xx_hal_smbus.c ****     return HAL_OK;
 1362              		.loc 1 1208 12
 1363 0090 0023     		movs	r3, #0
 1364 0092 00E0     		b	.L61
 1365              	.L59:
1209:Drivers/STM32L4xx_HAL_Driver/Src/stm32l4xx_hal_smbus.c ****   }
1210:Drivers/STM32L4xx_HAL_Driver/Src/stm32l4xx_hal_smbus.c ****   else
1211:Drivers/STM32L4xx_HAL_Driver/Src/stm32l4xx_hal_smbus.c ****   {
1212:Drivers/STM32L4xx_HAL_Driver/Src/stm32l4xx_hal_smbus.c ****     return HAL_BUSY;
 1366              		.loc 1 1212 12
 1367 0094 0223     		movs	r3, #2
 1368              	.L61:
1213:Drivers/STM32L4xx_HAL_Driver/Src/stm32l4xx_hal_smbus.c ****   }
1214:Drivers/STM32L4xx_HAL_Driver/Src/stm32l4xx_hal_smbus.c **** }
 1369              		.loc 1 1214 1
 1370 0096 1846     		mov	r0, r3
 1371 0098 0837     		adds	r7, r7, #8
 1372              		.cfi_def_cfa_offset 8
 1373 009a BD46     		mov	sp, r7
 1374              		.cfi_def_cfa_register 13
 1375              		@ sp needed
 1376 009c 80BD     		pop	{r7, pc}
 1377              		.cfi_endproc
 1378              	.LFE453:
 1380              		.section	.text.HAL_SMBUS_Slave_Transmit_IT,"ax",%progbits
 1381              		.align	1
 1382              		.global	HAL_SMBUS_Slave_Transmit_IT
 1383              		.syntax unified
 1384              		.thumb
 1385              		.thumb_func
 1387              	HAL_SMBUS_Slave_Transmit_IT:
 1388              	.LFB454:
1215:Drivers/STM32L4xx_HAL_Driver/Src/stm32l4xx_hal_smbus.c **** 
1216:Drivers/STM32L4xx_HAL_Driver/Src/stm32l4xx_hal_smbus.c **** /**
1217:Drivers/STM32L4xx_HAL_Driver/Src/stm32l4xx_hal_smbus.c ****   * @brief  Transmit in slave/device SMBUS mode an amount of data in non-blocking mode with Interru
1218:Drivers/STM32L4xx_HAL_Driver/Src/stm32l4xx_hal_smbus.c ****   * @param  hsmbus Pointer to a SMBUS_HandleTypeDef structure that contains
1219:Drivers/STM32L4xx_HAL_Driver/Src/stm32l4xx_hal_smbus.c ****   *                the configuration information for the specified SMBUS.
1220:Drivers/STM32L4xx_HAL_Driver/Src/stm32l4xx_hal_smbus.c ****   * @param  pData Pointer to data buffer
1221:Drivers/STM32L4xx_HAL_Driver/Src/stm32l4xx_hal_smbus.c ****   * @param  Size Amount of data to be sent
1222:Drivers/STM32L4xx_HAL_Driver/Src/stm32l4xx_hal_smbus.c ****   * @param  XferOptions Options of Transfer, value of @ref SMBUS_XferOptions_definition
1223:Drivers/STM32L4xx_HAL_Driver/Src/stm32l4xx_hal_smbus.c ****   * @retval HAL status
1224:Drivers/STM32L4xx_HAL_Driver/Src/stm32l4xx_hal_smbus.c ****   */
1225:Drivers/STM32L4xx_HAL_Driver/Src/stm32l4xx_hal_smbus.c **** HAL_StatusTypeDef HAL_SMBUS_Slave_Transmit_IT(SMBUS_HandleTypeDef *hsmbus, uint8_t *pData, uint16_t
1226:Drivers/STM32L4xx_HAL_Driver/Src/stm32l4xx_hal_smbus.c ****                                               uint32_t XferOptions)
1227:Drivers/STM32L4xx_HAL_Driver/Src/stm32l4xx_hal_smbus.c **** {
 1389              		.loc 1 1227 1
 1390              		.cfi_startproc
 1391              		@ args = 0, pretend = 0, frame = 16
 1392              		@ frame_needed = 1, uses_anonymous_args = 0
 1393 0000 80B5     		push	{r7, lr}
 1394              		.cfi_def_cfa_offset 8
 1395              		.cfi_offset 7, -8
 1396              		.cfi_offset 14, -4
 1397 0002 86B0     		sub	sp, sp, #24
 1398              		.cfi_def_cfa_offset 32
 1399 0004 02AF     		add	r7, sp, #8
 1400              		.cfi_def_cfa 7, 24
ARM GAS  /tmp/ccysATpZ.s 			page 47


 1401 0006 F860     		str	r0, [r7, #12]
 1402 0008 B960     		str	r1, [r7, #8]
 1403 000a 3B60     		str	r3, [r7]
 1404 000c 1346     		mov	r3, r2	@ movhi
 1405 000e FB80     		strh	r3, [r7, #6]	@ movhi
1228:Drivers/STM32L4xx_HAL_Driver/Src/stm32l4xx_hal_smbus.c ****   /* Check the parameters */
1229:Drivers/STM32L4xx_HAL_Driver/Src/stm32l4xx_hal_smbus.c ****   assert_param(IS_SMBUS_TRANSFER_OPTIONS_REQUEST(XferOptions));
1230:Drivers/STM32L4xx_HAL_Driver/Src/stm32l4xx_hal_smbus.c **** 
1231:Drivers/STM32L4xx_HAL_Driver/Src/stm32l4xx_hal_smbus.c ****   if ((hsmbus->State & HAL_SMBUS_STATE_LISTEN) == HAL_SMBUS_STATE_LISTEN)
 1406              		.loc 1 1231 14
 1407 0010 FB68     		ldr	r3, [r7, #12]
 1408 0012 9B6C     		ldr	r3, [r3, #72]
 1409              		.loc 1 1231 22
 1410 0014 03F00803 		and	r3, r3, #8
 1411              		.loc 1 1231 6
 1412 0018 082B     		cmp	r3, #8
 1413 001a 40F08F80 		bne	.L68
1232:Drivers/STM32L4xx_HAL_Driver/Src/stm32l4xx_hal_smbus.c ****   {
1233:Drivers/STM32L4xx_HAL_Driver/Src/stm32l4xx_hal_smbus.c ****     if ((pData == NULL) || (Size == 0UL))
 1414              		.loc 1 1233 8
 1415 001e BB68     		ldr	r3, [r7, #8]
 1416 0020 002B     		cmp	r3, #0
 1417 0022 02D0     		beq	.L69
 1418              		.loc 1 1233 25 discriminator 1
 1419 0024 FB88     		ldrh	r3, [r7, #6]
 1420 0026 002B     		cmp	r3, #0
 1421 0028 05D1     		bne	.L70
 1422              	.L69:
1234:Drivers/STM32L4xx_HAL_Driver/Src/stm32l4xx_hal_smbus.c ****     {
1235:Drivers/STM32L4xx_HAL_Driver/Src/stm32l4xx_hal_smbus.c ****       hsmbus->ErrorCode = HAL_SMBUS_ERROR_INVALID_PARAM;
 1423              		.loc 1 1235 25
 1424 002a FB68     		ldr	r3, [r7, #12]
 1425 002c 4FF40072 		mov	r2, #512
 1426 0030 DA64     		str	r2, [r3, #76]
1236:Drivers/STM32L4xx_HAL_Driver/Src/stm32l4xx_hal_smbus.c ****       return HAL_ERROR;
 1427              		.loc 1 1236 14
 1428 0032 0123     		movs	r3, #1
 1429 0034 83E0     		b	.L71
 1430              	.L70:
1237:Drivers/STM32L4xx_HAL_Driver/Src/stm32l4xx_hal_smbus.c ****     }
1238:Drivers/STM32L4xx_HAL_Driver/Src/stm32l4xx_hal_smbus.c **** 
1239:Drivers/STM32L4xx_HAL_Driver/Src/stm32l4xx_hal_smbus.c ****     /* Disable Interrupts, to prevent preemption during treatment in case of multicall */
1240:Drivers/STM32L4xx_HAL_Driver/Src/stm32l4xx_hal_smbus.c ****     SMBUS_Disable_IRQ(hsmbus, SMBUS_IT_ADDR | SMBUS_IT_TX);
 1431              		.loc 1 1240 5
 1432 0036 FA21     		movs	r1, #250
 1433 0038 F868     		ldr	r0, [r7, #12]
 1434 003a FFF7FEFF 		bl	SMBUS_Disable_IRQ
1241:Drivers/STM32L4xx_HAL_Driver/Src/stm32l4xx_hal_smbus.c **** 
1242:Drivers/STM32L4xx_HAL_Driver/Src/stm32l4xx_hal_smbus.c ****     /* Process Locked */
1243:Drivers/STM32L4xx_HAL_Driver/Src/stm32l4xx_hal_smbus.c ****     __HAL_LOCK(hsmbus);
 1435              		.loc 1 1243 5
 1436 003e FB68     		ldr	r3, [r7, #12]
 1437 0040 93F84430 		ldrb	r3, [r3, #68]	@ zero_extendqisi2
 1438 0044 012B     		cmp	r3, #1
 1439 0046 01D1     		bne	.L72
 1440              		.loc 1 1243 5 is_stmt 0 discriminator 1
 1441 0048 0223     		movs	r3, #2
ARM GAS  /tmp/ccysATpZ.s 			page 48


 1442              		.loc 1 1243 5
 1443 004a 78E0     		b	.L71
 1444              	.L72:
 1445              		.loc 1 1243 5 discriminator 2
 1446 004c FB68     		ldr	r3, [r7, #12]
 1447 004e 0122     		movs	r2, #1
 1448 0050 83F84420 		strb	r2, [r3, #68]
1244:Drivers/STM32L4xx_HAL_Driver/Src/stm32l4xx_hal_smbus.c **** 
1245:Drivers/STM32L4xx_HAL_Driver/Src/stm32l4xx_hal_smbus.c ****     hsmbus->State = (HAL_SMBUS_STATE_SLAVE_BUSY_TX | HAL_SMBUS_STATE_LISTEN);
 1449              		.loc 1 1245 19 is_stmt 1
 1450 0054 FB68     		ldr	r3, [r7, #12]
 1451 0056 3A22     		movs	r2, #58
 1452 0058 9A64     		str	r2, [r3, #72]
1246:Drivers/STM32L4xx_HAL_Driver/Src/stm32l4xx_hal_smbus.c ****     hsmbus->ErrorCode = HAL_SMBUS_ERROR_NONE;
 1453              		.loc 1 1246 23
 1454 005a FB68     		ldr	r3, [r7, #12]
 1455 005c 0022     		movs	r2, #0
 1456 005e DA64     		str	r2, [r3, #76]
1247:Drivers/STM32L4xx_HAL_Driver/Src/stm32l4xx_hal_smbus.c **** 
1248:Drivers/STM32L4xx_HAL_Driver/Src/stm32l4xx_hal_smbus.c ****     /* Set SBC bit to manage Acknowledge at each bit */
1249:Drivers/STM32L4xx_HAL_Driver/Src/stm32l4xx_hal_smbus.c ****     hsmbus->Instance->CR1 |= I2C_CR1_SBC;
 1457              		.loc 1 1249 11
 1458 0060 FB68     		ldr	r3, [r7, #12]
 1459 0062 1B68     		ldr	r3, [r3]
 1460              		.loc 1 1249 21
 1461 0064 1A68     		ldr	r2, [r3]
 1462              		.loc 1 1249 11
 1463 0066 FB68     		ldr	r3, [r7, #12]
 1464 0068 1B68     		ldr	r3, [r3]
 1465              		.loc 1 1249 27
 1466 006a 42F48032 		orr	r2, r2, #65536
 1467 006e 1A60     		str	r2, [r3]
1250:Drivers/STM32L4xx_HAL_Driver/Src/stm32l4xx_hal_smbus.c **** 
1251:Drivers/STM32L4xx_HAL_Driver/Src/stm32l4xx_hal_smbus.c ****     /* Enable Address Acknowledge */
1252:Drivers/STM32L4xx_HAL_Driver/Src/stm32l4xx_hal_smbus.c ****     hsmbus->Instance->CR2 &= ~I2C_CR2_NACK;
 1468              		.loc 1 1252 11
 1469 0070 FB68     		ldr	r3, [r7, #12]
 1470 0072 1B68     		ldr	r3, [r3]
 1471              		.loc 1 1252 21
 1472 0074 5A68     		ldr	r2, [r3, #4]
 1473              		.loc 1 1252 11
 1474 0076 FB68     		ldr	r3, [r7, #12]
 1475 0078 1B68     		ldr	r3, [r3]
 1476              		.loc 1 1252 27
 1477 007a 22F40042 		bic	r2, r2, #32768
 1478 007e 5A60     		str	r2, [r3, #4]
1253:Drivers/STM32L4xx_HAL_Driver/Src/stm32l4xx_hal_smbus.c **** 
1254:Drivers/STM32L4xx_HAL_Driver/Src/stm32l4xx_hal_smbus.c ****     /* Prepare transfer parameters */
1255:Drivers/STM32L4xx_HAL_Driver/Src/stm32l4xx_hal_smbus.c ****     hsmbus->pBuffPtr = pData;
 1479              		.loc 1 1255 22
 1480 0080 FB68     		ldr	r3, [r7, #12]
 1481 0082 BA68     		ldr	r2, [r7, #8]
 1482 0084 5A63     		str	r2, [r3, #52]
1256:Drivers/STM32L4xx_HAL_Driver/Src/stm32l4xx_hal_smbus.c ****     hsmbus->XferCount = Size;
 1483              		.loc 1 1256 23
 1484 0086 FB68     		ldr	r3, [r7, #12]
 1485 0088 FA88     		ldrh	r2, [r7, #6]	@ movhi
ARM GAS  /tmp/ccysATpZ.s 			page 49


 1486 008a 5A87     		strh	r2, [r3, #58]	@ movhi
1257:Drivers/STM32L4xx_HAL_Driver/Src/stm32l4xx_hal_smbus.c ****     hsmbus->XferOptions = XferOptions;
 1487              		.loc 1 1257 25
 1488 008c FB68     		ldr	r3, [r7, #12]
 1489 008e 3A68     		ldr	r2, [r7]
 1490 0090 DA63     		str	r2, [r3, #60]
1258:Drivers/STM32L4xx_HAL_Driver/Src/stm32l4xx_hal_smbus.c **** 
1259:Drivers/STM32L4xx_HAL_Driver/Src/stm32l4xx_hal_smbus.c ****     /* Convert OTHER_xxx XferOptions if any */
1260:Drivers/STM32L4xx_HAL_Driver/Src/stm32l4xx_hal_smbus.c ****     SMBUS_ConvertOtherXferOptions(hsmbus);
 1491              		.loc 1 1260 5
 1492 0092 F868     		ldr	r0, [r7, #12]
 1493 0094 FFF7FEFF 		bl	SMBUS_ConvertOtherXferOptions
1261:Drivers/STM32L4xx_HAL_Driver/Src/stm32l4xx_hal_smbus.c **** 
1262:Drivers/STM32L4xx_HAL_Driver/Src/stm32l4xx_hal_smbus.c ****     if (Size > MAX_NBYTE_SIZE)
 1494              		.loc 1 1262 8
 1495 0098 FB88     		ldrh	r3, [r7, #6]
 1496 009a FF2B     		cmp	r3, #255
 1497 009c 03D9     		bls	.L73
1263:Drivers/STM32L4xx_HAL_Driver/Src/stm32l4xx_hal_smbus.c ****     {
1264:Drivers/STM32L4xx_HAL_Driver/Src/stm32l4xx_hal_smbus.c ****       hsmbus->XferSize = MAX_NBYTE_SIZE;
 1498              		.loc 1 1264 24
 1499 009e FB68     		ldr	r3, [r7, #12]
 1500 00a0 FF22     		movs	r2, #255
 1501 00a2 1A87     		strh	r2, [r3, #56]	@ movhi
 1502 00a4 02E0     		b	.L74
 1503              	.L73:
1265:Drivers/STM32L4xx_HAL_Driver/Src/stm32l4xx_hal_smbus.c ****     }
1266:Drivers/STM32L4xx_HAL_Driver/Src/stm32l4xx_hal_smbus.c ****     else
1267:Drivers/STM32L4xx_HAL_Driver/Src/stm32l4xx_hal_smbus.c ****     {
1268:Drivers/STM32L4xx_HAL_Driver/Src/stm32l4xx_hal_smbus.c ****       hsmbus->XferSize = Size;
 1504              		.loc 1 1268 24
 1505 00a6 FB68     		ldr	r3, [r7, #12]
 1506 00a8 FA88     		ldrh	r2, [r7, #6]	@ movhi
 1507 00aa 1A87     		strh	r2, [r3, #56]	@ movhi
 1508              	.L74:
1269:Drivers/STM32L4xx_HAL_Driver/Src/stm32l4xx_hal_smbus.c ****     }
1270:Drivers/STM32L4xx_HAL_Driver/Src/stm32l4xx_hal_smbus.c **** 
1271:Drivers/STM32L4xx_HAL_Driver/Src/stm32l4xx_hal_smbus.c ****     /* Set NBYTES to write and reload if size > MAX_NBYTE_SIZE and generate RESTART */
1272:Drivers/STM32L4xx_HAL_Driver/Src/stm32l4xx_hal_smbus.c ****     if ((hsmbus->XferSize < hsmbus->XferCount) && (hsmbus->XferSize == MAX_NBYTE_SIZE))
 1509              		.loc 1 1272 16
 1510 00ac FB68     		ldr	r3, [r7, #12]
 1511 00ae 1A8F     		ldrh	r2, [r3, #56]
 1512              		.loc 1 1272 35
 1513 00b0 FB68     		ldr	r3, [r7, #12]
 1514 00b2 5B8F     		ldrh	r3, [r3, #58]	@ movhi
 1515 00b4 9BB2     		uxth	r3, r3
 1516              		.loc 1 1272 8
 1517 00b6 9A42     		cmp	r2, r3
 1518 00b8 13D2     		bcs	.L75
 1519              		.loc 1 1272 58 discriminator 1
 1520 00ba FB68     		ldr	r3, [r7, #12]
 1521 00bc 1B8F     		ldrh	r3, [r3, #56]
 1522              		.loc 1 1272 48 discriminator 1
 1523 00be FF2B     		cmp	r3, #255
 1524 00c0 0FD1     		bne	.L75
1273:Drivers/STM32L4xx_HAL_Driver/Src/stm32l4xx_hal_smbus.c ****     {
1274:Drivers/STM32L4xx_HAL_Driver/Src/stm32l4xx_hal_smbus.c ****       SMBUS_TransferConfig(hsmbus, 0, (uint8_t)hsmbus->XferSize,
ARM GAS  /tmp/ccysATpZ.s 			page 50


 1525              		.loc 1 1274 54
 1526 00c2 FB68     		ldr	r3, [r7, #12]
 1527 00c4 1B8F     		ldrh	r3, [r3, #56]
 1528              		.loc 1 1274 7
 1529 00c6 DAB2     		uxtb	r2, r3
1275:Drivers/STM32L4xx_HAL_Driver/Src/stm32l4xx_hal_smbus.c ****                            SMBUS_RELOAD_MODE | (hsmbus->XferOptions & SMBUS_SENDPEC_MODE),
 1530              		.loc 1 1275 55
 1531 00c8 FB68     		ldr	r3, [r7, #12]
 1532 00ca DB6B     		ldr	r3, [r3, #60]
 1533              		.loc 1 1275 69
 1534 00cc 03F08063 		and	r3, r3, #67108864
1274:Drivers/STM32L4xx_HAL_Driver/Src/stm32l4xx_hal_smbus.c ****                            SMBUS_RELOAD_MODE | (hsmbus->XferOptions & SMBUS_SENDPEC_MODE),
 1535              		.loc 1 1274 7
 1536 00d0 43F08073 		orr	r3, r3, #16777216
 1537 00d4 0021     		movs	r1, #0
 1538 00d6 0091     		str	r1, [sp]
 1539 00d8 0021     		movs	r1, #0
 1540 00da F868     		ldr	r0, [r7, #12]
 1541 00dc FFF7FEFF 		bl	SMBUS_TransferConfig
 1542 00e0 1EE0     		b	.L76
 1543              	.L75:
1276:Drivers/STM32L4xx_HAL_Driver/Src/stm32l4xx_hal_smbus.c ****                            SMBUS_NO_STARTSTOP);
1277:Drivers/STM32L4xx_HAL_Driver/Src/stm32l4xx_hal_smbus.c ****     }
1278:Drivers/STM32L4xx_HAL_Driver/Src/stm32l4xx_hal_smbus.c ****     else
1279:Drivers/STM32L4xx_HAL_Driver/Src/stm32l4xx_hal_smbus.c ****     {
1280:Drivers/STM32L4xx_HAL_Driver/Src/stm32l4xx_hal_smbus.c ****       /* Set NBYTE to transmit */
1281:Drivers/STM32L4xx_HAL_Driver/Src/stm32l4xx_hal_smbus.c ****       SMBUS_TransferConfig(hsmbus, 0, (uint8_t)hsmbus->XferSize, hsmbus->XferOptions,
 1544              		.loc 1 1281 54
 1545 00e2 FB68     		ldr	r3, [r7, #12]
 1546 00e4 1B8F     		ldrh	r3, [r3, #56]
 1547              		.loc 1 1281 7
 1548 00e6 DAB2     		uxtb	r2, r3
 1549              		.loc 1 1281 72
 1550 00e8 FB68     		ldr	r3, [r7, #12]
 1551 00ea DB6B     		ldr	r3, [r3, #60]
 1552              		.loc 1 1281 7
 1553 00ec 0021     		movs	r1, #0
 1554 00ee 0091     		str	r1, [sp]
 1555 00f0 0021     		movs	r1, #0
 1556 00f2 F868     		ldr	r0, [r7, #12]
 1557 00f4 FFF7FEFF 		bl	SMBUS_TransferConfig
1282:Drivers/STM32L4xx_HAL_Driver/Src/stm32l4xx_hal_smbus.c ****                            SMBUS_NO_STARTSTOP);
1283:Drivers/STM32L4xx_HAL_Driver/Src/stm32l4xx_hal_smbus.c **** 
1284:Drivers/STM32L4xx_HAL_Driver/Src/stm32l4xx_hal_smbus.c ****       /* If PEC mode is enable, size to transmit should be Size-1 byte, corresponding to PEC byte *
1285:Drivers/STM32L4xx_HAL_Driver/Src/stm32l4xx_hal_smbus.c ****       /* PEC byte is automatically sent by HW block, no need to manage it in Transmit process */
1286:Drivers/STM32L4xx_HAL_Driver/Src/stm32l4xx_hal_smbus.c ****       if (SMBUS_GET_PEC_MODE(hsmbus) != 0UL)
 1558              		.loc 1 1286 11
 1559 00f8 FB68     		ldr	r3, [r7, #12]
 1560 00fa 1B68     		ldr	r3, [r3]
 1561 00fc 5B68     		ldr	r3, [r3, #4]
 1562 00fe 03F08063 		and	r3, r3, #67108864
 1563              		.loc 1 1286 10
 1564 0102 002B     		cmp	r3, #0
 1565 0104 0CD0     		beq	.L76
1287:Drivers/STM32L4xx_HAL_Driver/Src/stm32l4xx_hal_smbus.c ****       {
1288:Drivers/STM32L4xx_HAL_Driver/Src/stm32l4xx_hal_smbus.c ****         hsmbus->XferSize--;
 1566              		.loc 1 1288 15
ARM GAS  /tmp/ccysATpZ.s 			page 51


 1567 0106 FB68     		ldr	r3, [r7, #12]
 1568 0108 1B8F     		ldrh	r3, [r3, #56]
 1569              		.loc 1 1288 25
 1570 010a 013B     		subs	r3, r3, #1
 1571 010c 9AB2     		uxth	r2, r3
 1572 010e FB68     		ldr	r3, [r7, #12]
 1573 0110 1A87     		strh	r2, [r3, #56]	@ movhi
1289:Drivers/STM32L4xx_HAL_Driver/Src/stm32l4xx_hal_smbus.c ****         hsmbus->XferCount--;
 1574              		.loc 1 1289 15
 1575 0112 FB68     		ldr	r3, [r7, #12]
 1576 0114 5B8F     		ldrh	r3, [r3, #58]	@ movhi
 1577 0116 9BB2     		uxth	r3, r3
 1578              		.loc 1 1289 26
 1579 0118 013B     		subs	r3, r3, #1
 1580 011a 9AB2     		uxth	r2, r3
 1581 011c FB68     		ldr	r3, [r7, #12]
 1582 011e 5A87     		strh	r2, [r3, #58]	@ movhi
 1583              	.L76:
1290:Drivers/STM32L4xx_HAL_Driver/Src/stm32l4xx_hal_smbus.c ****       }
1291:Drivers/STM32L4xx_HAL_Driver/Src/stm32l4xx_hal_smbus.c ****     }
1292:Drivers/STM32L4xx_HAL_Driver/Src/stm32l4xx_hal_smbus.c **** 
1293:Drivers/STM32L4xx_HAL_Driver/Src/stm32l4xx_hal_smbus.c ****     /* Clear ADDR flag after prepare the transfer parameters */
1294:Drivers/STM32L4xx_HAL_Driver/Src/stm32l4xx_hal_smbus.c ****     /* This action will generate an acknowledge to the HOST */
1295:Drivers/STM32L4xx_HAL_Driver/Src/stm32l4xx_hal_smbus.c ****     __HAL_SMBUS_CLEAR_FLAG(hsmbus, SMBUS_FLAG_ADDR);
 1584              		.loc 1 1295 5
 1585 0120 FB68     		ldr	r3, [r7, #12]
 1586 0122 1B68     		ldr	r3, [r3]
 1587 0124 0822     		movs	r2, #8
 1588 0126 DA61     		str	r2, [r3, #28]
1296:Drivers/STM32L4xx_HAL_Driver/Src/stm32l4xx_hal_smbus.c **** 
1297:Drivers/STM32L4xx_HAL_Driver/Src/stm32l4xx_hal_smbus.c ****     /* Process Unlocked */
1298:Drivers/STM32L4xx_HAL_Driver/Src/stm32l4xx_hal_smbus.c ****     __HAL_UNLOCK(hsmbus);
 1589              		.loc 1 1298 5
 1590 0128 FB68     		ldr	r3, [r7, #12]
 1591 012a 0022     		movs	r2, #0
 1592 012c 83F84420 		strb	r2, [r3, #68]
1299:Drivers/STM32L4xx_HAL_Driver/Src/stm32l4xx_hal_smbus.c **** 
1300:Drivers/STM32L4xx_HAL_Driver/Src/stm32l4xx_hal_smbus.c ****     /* Note : The SMBUS interrupts must be enabled after unlocking current process
1301:Drivers/STM32L4xx_HAL_Driver/Src/stm32l4xx_hal_smbus.c ****               to avoid the risk of SMBUS interrupt handle execution before current
1302:Drivers/STM32L4xx_HAL_Driver/Src/stm32l4xx_hal_smbus.c ****               process unlock */
1303:Drivers/STM32L4xx_HAL_Driver/Src/stm32l4xx_hal_smbus.c ****     /* REnable ADDR interrupt */
1304:Drivers/STM32L4xx_HAL_Driver/Src/stm32l4xx_hal_smbus.c ****     SMBUS_Enable_IRQ(hsmbus, SMBUS_IT_TX | SMBUS_IT_ADDR);
 1593              		.loc 1 1304 5
 1594 0130 FA21     		movs	r1, #250
 1595 0132 F868     		ldr	r0, [r7, #12]
 1596 0134 FFF7FEFF 		bl	SMBUS_Enable_IRQ
1305:Drivers/STM32L4xx_HAL_Driver/Src/stm32l4xx_hal_smbus.c **** 
1306:Drivers/STM32L4xx_HAL_Driver/Src/stm32l4xx_hal_smbus.c ****     return HAL_OK;
 1597              		.loc 1 1306 12
 1598 0138 0023     		movs	r3, #0
 1599 013a 00E0     		b	.L71
 1600              	.L68:
1307:Drivers/STM32L4xx_HAL_Driver/Src/stm32l4xx_hal_smbus.c ****   }
1308:Drivers/STM32L4xx_HAL_Driver/Src/stm32l4xx_hal_smbus.c ****   else
1309:Drivers/STM32L4xx_HAL_Driver/Src/stm32l4xx_hal_smbus.c ****   {
1310:Drivers/STM32L4xx_HAL_Driver/Src/stm32l4xx_hal_smbus.c ****     return HAL_BUSY;
 1601              		.loc 1 1310 12
ARM GAS  /tmp/ccysATpZ.s 			page 52


 1602 013c 0223     		movs	r3, #2
 1603              	.L71:
1311:Drivers/STM32L4xx_HAL_Driver/Src/stm32l4xx_hal_smbus.c ****   }
1312:Drivers/STM32L4xx_HAL_Driver/Src/stm32l4xx_hal_smbus.c **** }
 1604              		.loc 1 1312 1
 1605 013e 1846     		mov	r0, r3
 1606 0140 1037     		adds	r7, r7, #16
 1607              		.cfi_def_cfa_offset 8
 1608 0142 BD46     		mov	sp, r7
 1609              		.cfi_def_cfa_register 13
 1610              		@ sp needed
 1611 0144 80BD     		pop	{r7, pc}
 1612              		.cfi_endproc
 1613              	.LFE454:
 1615              		.section	.text.HAL_SMBUS_Slave_Receive_IT,"ax",%progbits
 1616              		.align	1
 1617              		.global	HAL_SMBUS_Slave_Receive_IT
 1618              		.syntax unified
 1619              		.thumb
 1620              		.thumb_func
 1622              	HAL_SMBUS_Slave_Receive_IT:
 1623              	.LFB455:
1313:Drivers/STM32L4xx_HAL_Driver/Src/stm32l4xx_hal_smbus.c **** 
1314:Drivers/STM32L4xx_HAL_Driver/Src/stm32l4xx_hal_smbus.c **** /**
1315:Drivers/STM32L4xx_HAL_Driver/Src/stm32l4xx_hal_smbus.c ****   * @brief  Receive in slave/device SMBUS mode an amount of data in non-blocking mode with Interrup
1316:Drivers/STM32L4xx_HAL_Driver/Src/stm32l4xx_hal_smbus.c ****   * @param  hsmbus Pointer to a SMBUS_HandleTypeDef structure that contains
1317:Drivers/STM32L4xx_HAL_Driver/Src/stm32l4xx_hal_smbus.c ****   *                the configuration information for the specified SMBUS.
1318:Drivers/STM32L4xx_HAL_Driver/Src/stm32l4xx_hal_smbus.c ****   * @param  pData Pointer to data buffer
1319:Drivers/STM32L4xx_HAL_Driver/Src/stm32l4xx_hal_smbus.c ****   * @param  Size Amount of data to be sent
1320:Drivers/STM32L4xx_HAL_Driver/Src/stm32l4xx_hal_smbus.c ****   * @param  XferOptions Options of Transfer, value of @ref SMBUS_XferOptions_definition
1321:Drivers/STM32L4xx_HAL_Driver/Src/stm32l4xx_hal_smbus.c ****   * @retval HAL status
1322:Drivers/STM32L4xx_HAL_Driver/Src/stm32l4xx_hal_smbus.c ****   */
1323:Drivers/STM32L4xx_HAL_Driver/Src/stm32l4xx_hal_smbus.c **** HAL_StatusTypeDef HAL_SMBUS_Slave_Receive_IT(SMBUS_HandleTypeDef *hsmbus, uint8_t *pData, uint16_t 
1324:Drivers/STM32L4xx_HAL_Driver/Src/stm32l4xx_hal_smbus.c ****                                              uint32_t XferOptions)
1325:Drivers/STM32L4xx_HAL_Driver/Src/stm32l4xx_hal_smbus.c **** {
 1624              		.loc 1 1325 1
 1625              		.cfi_startproc
 1626              		@ args = 0, pretend = 0, frame = 16
 1627              		@ frame_needed = 1, uses_anonymous_args = 0
 1628 0000 80B5     		push	{r7, lr}
 1629              		.cfi_def_cfa_offset 8
 1630              		.cfi_offset 7, -8
 1631              		.cfi_offset 14, -4
 1632 0002 86B0     		sub	sp, sp, #24
 1633              		.cfi_def_cfa_offset 32
 1634 0004 02AF     		add	r7, sp, #8
 1635              		.cfi_def_cfa 7, 24
 1636 0006 F860     		str	r0, [r7, #12]
 1637 0008 B960     		str	r1, [r7, #8]
 1638 000a 3B60     		str	r3, [r7]
 1639 000c 1346     		mov	r3, r2	@ movhi
 1640 000e FB80     		strh	r3, [r7, #6]	@ movhi
1326:Drivers/STM32L4xx_HAL_Driver/Src/stm32l4xx_hal_smbus.c ****   /* Check the parameters */
1327:Drivers/STM32L4xx_HAL_Driver/Src/stm32l4xx_hal_smbus.c ****   assert_param(IS_SMBUS_TRANSFER_OPTIONS_REQUEST(XferOptions));
1328:Drivers/STM32L4xx_HAL_Driver/Src/stm32l4xx_hal_smbus.c **** 
1329:Drivers/STM32L4xx_HAL_Driver/Src/stm32l4xx_hal_smbus.c ****   if ((hsmbus->State & HAL_SMBUS_STATE_LISTEN) == HAL_SMBUS_STATE_LISTEN)
 1641              		.loc 1 1329 14
ARM GAS  /tmp/ccysATpZ.s 			page 53


 1642 0010 FB68     		ldr	r3, [r7, #12]
 1643 0012 9B6C     		ldr	r3, [r3, #72]
 1644              		.loc 1 1329 22
 1645 0014 03F00803 		and	r3, r3, #8
 1646              		.loc 1 1329 6
 1647 0018 082B     		cmp	r3, #8
 1648 001a 73D1     		bne	.L78
1330:Drivers/STM32L4xx_HAL_Driver/Src/stm32l4xx_hal_smbus.c ****   {
1331:Drivers/STM32L4xx_HAL_Driver/Src/stm32l4xx_hal_smbus.c ****     if ((pData == NULL) || (Size == 0UL))
 1649              		.loc 1 1331 8
 1650 001c BB68     		ldr	r3, [r7, #8]
 1651 001e 002B     		cmp	r3, #0
 1652 0020 02D0     		beq	.L79
 1653              		.loc 1 1331 25 discriminator 1
 1654 0022 FB88     		ldrh	r3, [r7, #6]
 1655 0024 002B     		cmp	r3, #0
 1656 0026 05D1     		bne	.L80
 1657              	.L79:
1332:Drivers/STM32L4xx_HAL_Driver/Src/stm32l4xx_hal_smbus.c ****     {
1333:Drivers/STM32L4xx_HAL_Driver/Src/stm32l4xx_hal_smbus.c ****       hsmbus->ErrorCode = HAL_SMBUS_ERROR_INVALID_PARAM;
 1658              		.loc 1 1333 25
 1659 0028 FB68     		ldr	r3, [r7, #12]
 1660 002a 4FF40072 		mov	r2, #512
 1661 002e DA64     		str	r2, [r3, #76]
1334:Drivers/STM32L4xx_HAL_Driver/Src/stm32l4xx_hal_smbus.c ****       return HAL_ERROR;
 1662              		.loc 1 1334 14
 1663 0030 0123     		movs	r3, #1
 1664 0032 68E0     		b	.L81
 1665              	.L80:
1335:Drivers/STM32L4xx_HAL_Driver/Src/stm32l4xx_hal_smbus.c ****     }
1336:Drivers/STM32L4xx_HAL_Driver/Src/stm32l4xx_hal_smbus.c **** 
1337:Drivers/STM32L4xx_HAL_Driver/Src/stm32l4xx_hal_smbus.c ****     /* Disable Interrupts, to prevent preemption during treatment in case of multicall */
1338:Drivers/STM32L4xx_HAL_Driver/Src/stm32l4xx_hal_smbus.c ****     SMBUS_Disable_IRQ(hsmbus, SMBUS_IT_ADDR | SMBUS_IT_RX);
 1666              		.loc 1 1338 5
 1667 0034 FC21     		movs	r1, #252
 1668 0036 F868     		ldr	r0, [r7, #12]
 1669 0038 FFF7FEFF 		bl	SMBUS_Disable_IRQ
1339:Drivers/STM32L4xx_HAL_Driver/Src/stm32l4xx_hal_smbus.c **** 
1340:Drivers/STM32L4xx_HAL_Driver/Src/stm32l4xx_hal_smbus.c ****     /* Process Locked */
1341:Drivers/STM32L4xx_HAL_Driver/Src/stm32l4xx_hal_smbus.c ****     __HAL_LOCK(hsmbus);
 1670              		.loc 1 1341 5
 1671 003c FB68     		ldr	r3, [r7, #12]
 1672 003e 93F84430 		ldrb	r3, [r3, #68]	@ zero_extendqisi2
 1673 0042 012B     		cmp	r3, #1
 1674 0044 01D1     		bne	.L82
 1675              		.loc 1 1341 5 is_stmt 0 discriminator 1
 1676 0046 0223     		movs	r3, #2
 1677              		.loc 1 1341 5
 1678 0048 5DE0     		b	.L81
 1679              	.L82:
 1680              		.loc 1 1341 5 discriminator 2
 1681 004a FB68     		ldr	r3, [r7, #12]
 1682 004c 0122     		movs	r2, #1
 1683 004e 83F84420 		strb	r2, [r3, #68]
1342:Drivers/STM32L4xx_HAL_Driver/Src/stm32l4xx_hal_smbus.c **** 
1343:Drivers/STM32L4xx_HAL_Driver/Src/stm32l4xx_hal_smbus.c ****     hsmbus->State = (HAL_SMBUS_STATE_SLAVE_BUSY_RX | HAL_SMBUS_STATE_LISTEN);
 1684              		.loc 1 1343 19 is_stmt 1
ARM GAS  /tmp/ccysATpZ.s 			page 54


 1685 0052 FB68     		ldr	r3, [r7, #12]
 1686 0054 4A22     		movs	r2, #74
 1687 0056 9A64     		str	r2, [r3, #72]
1344:Drivers/STM32L4xx_HAL_Driver/Src/stm32l4xx_hal_smbus.c ****     hsmbus->ErrorCode = HAL_SMBUS_ERROR_NONE;
 1688              		.loc 1 1344 23
 1689 0058 FB68     		ldr	r3, [r7, #12]
 1690 005a 0022     		movs	r2, #0
 1691 005c DA64     		str	r2, [r3, #76]
1345:Drivers/STM32L4xx_HAL_Driver/Src/stm32l4xx_hal_smbus.c **** 
1346:Drivers/STM32L4xx_HAL_Driver/Src/stm32l4xx_hal_smbus.c ****     /* Set SBC bit to manage Acknowledge at each bit */
1347:Drivers/STM32L4xx_HAL_Driver/Src/stm32l4xx_hal_smbus.c ****     hsmbus->Instance->CR1 |= I2C_CR1_SBC;
 1692              		.loc 1 1347 11
 1693 005e FB68     		ldr	r3, [r7, #12]
 1694 0060 1B68     		ldr	r3, [r3]
 1695              		.loc 1 1347 21
 1696 0062 1A68     		ldr	r2, [r3]
 1697              		.loc 1 1347 11
 1698 0064 FB68     		ldr	r3, [r7, #12]
 1699 0066 1B68     		ldr	r3, [r3]
 1700              		.loc 1 1347 27
 1701 0068 42F48032 		orr	r2, r2, #65536
 1702 006c 1A60     		str	r2, [r3]
1348:Drivers/STM32L4xx_HAL_Driver/Src/stm32l4xx_hal_smbus.c **** 
1349:Drivers/STM32L4xx_HAL_Driver/Src/stm32l4xx_hal_smbus.c ****     /* Enable Address Acknowledge */
1350:Drivers/STM32L4xx_HAL_Driver/Src/stm32l4xx_hal_smbus.c ****     hsmbus->Instance->CR2 &= ~I2C_CR2_NACK;
 1703              		.loc 1 1350 11
 1704 006e FB68     		ldr	r3, [r7, #12]
 1705 0070 1B68     		ldr	r3, [r3]
 1706              		.loc 1 1350 21
 1707 0072 5A68     		ldr	r2, [r3, #4]
 1708              		.loc 1 1350 11
 1709 0074 FB68     		ldr	r3, [r7, #12]
 1710 0076 1B68     		ldr	r3, [r3]
 1711              		.loc 1 1350 27
 1712 0078 22F40042 		bic	r2, r2, #32768
 1713 007c 5A60     		str	r2, [r3, #4]
1351:Drivers/STM32L4xx_HAL_Driver/Src/stm32l4xx_hal_smbus.c **** 
1352:Drivers/STM32L4xx_HAL_Driver/Src/stm32l4xx_hal_smbus.c ****     /* Prepare transfer parameters */
1353:Drivers/STM32L4xx_HAL_Driver/Src/stm32l4xx_hal_smbus.c ****     hsmbus->pBuffPtr = pData;
 1714              		.loc 1 1353 22
 1715 007e FB68     		ldr	r3, [r7, #12]
 1716 0080 BA68     		ldr	r2, [r7, #8]
 1717 0082 5A63     		str	r2, [r3, #52]
1354:Drivers/STM32L4xx_HAL_Driver/Src/stm32l4xx_hal_smbus.c ****     hsmbus->XferSize = Size;
 1718              		.loc 1 1354 22
 1719 0084 FB68     		ldr	r3, [r7, #12]
 1720 0086 FA88     		ldrh	r2, [r7, #6]	@ movhi
 1721 0088 1A87     		strh	r2, [r3, #56]	@ movhi
1355:Drivers/STM32L4xx_HAL_Driver/Src/stm32l4xx_hal_smbus.c ****     hsmbus->XferCount = Size;
 1722              		.loc 1 1355 23
 1723 008a FB68     		ldr	r3, [r7, #12]
 1724 008c FA88     		ldrh	r2, [r7, #6]	@ movhi
 1725 008e 5A87     		strh	r2, [r3, #58]	@ movhi
1356:Drivers/STM32L4xx_HAL_Driver/Src/stm32l4xx_hal_smbus.c ****     hsmbus->XferOptions = XferOptions;
 1726              		.loc 1 1356 25
 1727 0090 FB68     		ldr	r3, [r7, #12]
 1728 0092 3A68     		ldr	r2, [r7]
ARM GAS  /tmp/ccysATpZ.s 			page 55


 1729 0094 DA63     		str	r2, [r3, #60]
1357:Drivers/STM32L4xx_HAL_Driver/Src/stm32l4xx_hal_smbus.c **** 
1358:Drivers/STM32L4xx_HAL_Driver/Src/stm32l4xx_hal_smbus.c ****     /* Convert OTHER_xxx XferOptions if any */
1359:Drivers/STM32L4xx_HAL_Driver/Src/stm32l4xx_hal_smbus.c ****     SMBUS_ConvertOtherXferOptions(hsmbus);
 1730              		.loc 1 1359 5
 1731 0096 F868     		ldr	r0, [r7, #12]
 1732 0098 FFF7FEFF 		bl	SMBUS_ConvertOtherXferOptions
1360:Drivers/STM32L4xx_HAL_Driver/Src/stm32l4xx_hal_smbus.c **** 
1361:Drivers/STM32L4xx_HAL_Driver/Src/stm32l4xx_hal_smbus.c ****     /* Set NBYTE to receive */
1362:Drivers/STM32L4xx_HAL_Driver/Src/stm32l4xx_hal_smbus.c ****     /* If XferSize equal "1", or XferSize equal "2" with PEC requested (mean 1 data byte + 1 PEC by
1363:Drivers/STM32L4xx_HAL_Driver/Src/stm32l4xx_hal_smbus.c ****     /* no need to set RELOAD bit mode, a ACK will be automatically generated in that case */
1364:Drivers/STM32L4xx_HAL_Driver/Src/stm32l4xx_hal_smbus.c ****     /* else need to set RELOAD bit mode to generate an automatic ACK at each byte Received */
1365:Drivers/STM32L4xx_HAL_Driver/Src/stm32l4xx_hal_smbus.c ****     /* This RELOAD bit will be reset for last BYTE to be receive in SMBUS_Slave_ISR */
1366:Drivers/STM32L4xx_HAL_Driver/Src/stm32l4xx_hal_smbus.c ****     if (((SMBUS_GET_PEC_MODE(hsmbus) != 0UL) && (hsmbus->XferSize == 2U)) || (hsmbus->XferSize == 1
 1733              		.loc 1 1366 11
 1734 009c FB68     		ldr	r3, [r7, #12]
 1735 009e 1B68     		ldr	r3, [r3]
 1736 00a0 5B68     		ldr	r3, [r3, #4]
 1737 00a2 03F08063 		and	r3, r3, #67108864
 1738              		.loc 1 1366 8
 1739 00a6 002B     		cmp	r3, #0
 1740 00a8 03D0     		beq	.L83
 1741              		.loc 1 1366 56 discriminator 1
 1742 00aa FB68     		ldr	r3, [r7, #12]
 1743 00ac 1B8F     		ldrh	r3, [r3, #56]
 1744              		.loc 1 1366 46 discriminator 1
 1745 00ae 022B     		cmp	r3, #2
 1746 00b0 03D0     		beq	.L84
 1747              	.L83:
 1748              		.loc 1 1366 85 discriminator 3
 1749 00b2 FB68     		ldr	r3, [r7, #12]
 1750 00b4 1B8F     		ldrh	r3, [r3, #56]
 1751              		.loc 1 1366 75 discriminator 3
 1752 00b6 012B     		cmp	r3, #1
 1753 00b8 0BD1     		bne	.L85
 1754              	.L84:
1367:Drivers/STM32L4xx_HAL_Driver/Src/stm32l4xx_hal_smbus.c ****     {
1368:Drivers/STM32L4xx_HAL_Driver/Src/stm32l4xx_hal_smbus.c ****       SMBUS_TransferConfig(hsmbus, 0, (uint8_t)hsmbus->XferSize, hsmbus->XferOptions,
 1755              		.loc 1 1368 54
 1756 00ba FB68     		ldr	r3, [r7, #12]
 1757 00bc 1B8F     		ldrh	r3, [r3, #56]
 1758              		.loc 1 1368 7
 1759 00be DAB2     		uxtb	r2, r3
 1760              		.loc 1 1368 72
 1761 00c0 FB68     		ldr	r3, [r7, #12]
 1762 00c2 DB6B     		ldr	r3, [r3, #60]
 1763              		.loc 1 1368 7
 1764 00c4 0021     		movs	r1, #0
 1765 00c6 0091     		str	r1, [sp]
 1766 00c8 0021     		movs	r1, #0
 1767 00ca F868     		ldr	r0, [r7, #12]
 1768 00cc FFF7FEFF 		bl	SMBUS_TransferConfig
 1769 00d0 0AE0     		b	.L86
 1770              	.L85:
1369:Drivers/STM32L4xx_HAL_Driver/Src/stm32l4xx_hal_smbus.c ****                            SMBUS_NO_STARTSTOP);
1370:Drivers/STM32L4xx_HAL_Driver/Src/stm32l4xx_hal_smbus.c ****     }
1371:Drivers/STM32L4xx_HAL_Driver/Src/stm32l4xx_hal_smbus.c ****     else
ARM GAS  /tmp/ccysATpZ.s 			page 56


1372:Drivers/STM32L4xx_HAL_Driver/Src/stm32l4xx_hal_smbus.c ****     {
1373:Drivers/STM32L4xx_HAL_Driver/Src/stm32l4xx_hal_smbus.c ****       SMBUS_TransferConfig(hsmbus, 0, 1, hsmbus->XferOptions | SMBUS_RELOAD_MODE, SMBUS_NO_STARTSTO
 1771              		.loc 1 1373 48
 1772 00d2 FB68     		ldr	r3, [r7, #12]
 1773 00d4 DB6B     		ldr	r3, [r3, #60]
 1774              		.loc 1 1373 7
 1775 00d6 43F08073 		orr	r3, r3, #16777216
 1776 00da 0022     		movs	r2, #0
 1777 00dc 0092     		str	r2, [sp]
 1778 00de 0122     		movs	r2, #1
 1779 00e0 0021     		movs	r1, #0
 1780 00e2 F868     		ldr	r0, [r7, #12]
 1781 00e4 FFF7FEFF 		bl	SMBUS_TransferConfig
 1782              	.L86:
1374:Drivers/STM32L4xx_HAL_Driver/Src/stm32l4xx_hal_smbus.c ****     }
1375:Drivers/STM32L4xx_HAL_Driver/Src/stm32l4xx_hal_smbus.c **** 
1376:Drivers/STM32L4xx_HAL_Driver/Src/stm32l4xx_hal_smbus.c ****     /* Clear ADDR flag after prepare the transfer parameters */
1377:Drivers/STM32L4xx_HAL_Driver/Src/stm32l4xx_hal_smbus.c ****     /* This action will generate an acknowledge to the HOST */
1378:Drivers/STM32L4xx_HAL_Driver/Src/stm32l4xx_hal_smbus.c ****     __HAL_SMBUS_CLEAR_FLAG(hsmbus, SMBUS_FLAG_ADDR);
 1783              		.loc 1 1378 5
 1784 00e8 FB68     		ldr	r3, [r7, #12]
 1785 00ea 1B68     		ldr	r3, [r3]
 1786 00ec 0822     		movs	r2, #8
 1787 00ee DA61     		str	r2, [r3, #28]
1379:Drivers/STM32L4xx_HAL_Driver/Src/stm32l4xx_hal_smbus.c **** 
1380:Drivers/STM32L4xx_HAL_Driver/Src/stm32l4xx_hal_smbus.c ****     /* Process Unlocked */
1381:Drivers/STM32L4xx_HAL_Driver/Src/stm32l4xx_hal_smbus.c ****     __HAL_UNLOCK(hsmbus);
 1788              		.loc 1 1381 5
 1789 00f0 FB68     		ldr	r3, [r7, #12]
 1790 00f2 0022     		movs	r2, #0
 1791 00f4 83F84420 		strb	r2, [r3, #68]
1382:Drivers/STM32L4xx_HAL_Driver/Src/stm32l4xx_hal_smbus.c **** 
1383:Drivers/STM32L4xx_HAL_Driver/Src/stm32l4xx_hal_smbus.c ****     /* Note : The SMBUS interrupts must be enabled after unlocking current process
1384:Drivers/STM32L4xx_HAL_Driver/Src/stm32l4xx_hal_smbus.c ****               to avoid the risk of SMBUS interrupt handle execution before current
1385:Drivers/STM32L4xx_HAL_Driver/Src/stm32l4xx_hal_smbus.c ****               process unlock */
1386:Drivers/STM32L4xx_HAL_Driver/Src/stm32l4xx_hal_smbus.c ****     /* REnable ADDR interrupt */
1387:Drivers/STM32L4xx_HAL_Driver/Src/stm32l4xx_hal_smbus.c ****     SMBUS_Enable_IRQ(hsmbus, SMBUS_IT_RX | SMBUS_IT_ADDR);
 1792              		.loc 1 1387 5
 1793 00f8 FC21     		movs	r1, #252
 1794 00fa F868     		ldr	r0, [r7, #12]
 1795 00fc FFF7FEFF 		bl	SMBUS_Enable_IRQ
1388:Drivers/STM32L4xx_HAL_Driver/Src/stm32l4xx_hal_smbus.c **** 
1389:Drivers/STM32L4xx_HAL_Driver/Src/stm32l4xx_hal_smbus.c ****     return HAL_OK;
 1796              		.loc 1 1389 12
 1797 0100 0023     		movs	r3, #0
 1798 0102 00E0     		b	.L81
 1799              	.L78:
1390:Drivers/STM32L4xx_HAL_Driver/Src/stm32l4xx_hal_smbus.c ****   }
1391:Drivers/STM32L4xx_HAL_Driver/Src/stm32l4xx_hal_smbus.c ****   else
1392:Drivers/STM32L4xx_HAL_Driver/Src/stm32l4xx_hal_smbus.c ****   {
1393:Drivers/STM32L4xx_HAL_Driver/Src/stm32l4xx_hal_smbus.c ****     return HAL_BUSY;
 1800              		.loc 1 1393 12
 1801 0104 0223     		movs	r3, #2
 1802              	.L81:
1394:Drivers/STM32L4xx_HAL_Driver/Src/stm32l4xx_hal_smbus.c ****   }
1395:Drivers/STM32L4xx_HAL_Driver/Src/stm32l4xx_hal_smbus.c **** }
 1803              		.loc 1 1395 1
ARM GAS  /tmp/ccysATpZ.s 			page 57


 1804 0106 1846     		mov	r0, r3
 1805 0108 1037     		adds	r7, r7, #16
 1806              		.cfi_def_cfa_offset 8
 1807 010a BD46     		mov	sp, r7
 1808              		.cfi_def_cfa_register 13
 1809              		@ sp needed
 1810 010c 80BD     		pop	{r7, pc}
 1811              		.cfi_endproc
 1812              	.LFE455:
 1814              		.section	.text.HAL_SMBUS_EnableListen_IT,"ax",%progbits
 1815              		.align	1
 1816              		.global	HAL_SMBUS_EnableListen_IT
 1817              		.syntax unified
 1818              		.thumb
 1819              		.thumb_func
 1821              	HAL_SMBUS_EnableListen_IT:
 1822              	.LFB456:
1396:Drivers/STM32L4xx_HAL_Driver/Src/stm32l4xx_hal_smbus.c **** 
1397:Drivers/STM32L4xx_HAL_Driver/Src/stm32l4xx_hal_smbus.c **** /**
1398:Drivers/STM32L4xx_HAL_Driver/Src/stm32l4xx_hal_smbus.c ****   * @brief  Enable the Address listen mode with Interrupt.
1399:Drivers/STM32L4xx_HAL_Driver/Src/stm32l4xx_hal_smbus.c ****   * @param  hsmbus Pointer to a SMBUS_HandleTypeDef structure that contains
1400:Drivers/STM32L4xx_HAL_Driver/Src/stm32l4xx_hal_smbus.c ****   *                the configuration information for the specified SMBUS.
1401:Drivers/STM32L4xx_HAL_Driver/Src/stm32l4xx_hal_smbus.c ****   * @retval HAL status
1402:Drivers/STM32L4xx_HAL_Driver/Src/stm32l4xx_hal_smbus.c ****   */
1403:Drivers/STM32L4xx_HAL_Driver/Src/stm32l4xx_hal_smbus.c **** HAL_StatusTypeDef HAL_SMBUS_EnableListen_IT(SMBUS_HandleTypeDef *hsmbus)
1404:Drivers/STM32L4xx_HAL_Driver/Src/stm32l4xx_hal_smbus.c **** {
 1823              		.loc 1 1404 1
 1824              		.cfi_startproc
 1825              		@ args = 0, pretend = 0, frame = 8
 1826              		@ frame_needed = 1, uses_anonymous_args = 0
 1827 0000 80B5     		push	{r7, lr}
 1828              		.cfi_def_cfa_offset 8
 1829              		.cfi_offset 7, -8
 1830              		.cfi_offset 14, -4
 1831 0002 82B0     		sub	sp, sp, #8
 1832              		.cfi_def_cfa_offset 16
 1833 0004 00AF     		add	r7, sp, #0
 1834              		.cfi_def_cfa_register 7
 1835 0006 7860     		str	r0, [r7, #4]
1405:Drivers/STM32L4xx_HAL_Driver/Src/stm32l4xx_hal_smbus.c ****   hsmbus->State = HAL_SMBUS_STATE_LISTEN;
 1836              		.loc 1 1405 17
 1837 0008 7B68     		ldr	r3, [r7, #4]
 1838 000a 0822     		movs	r2, #8
 1839 000c 9A64     		str	r2, [r3, #72]
1406:Drivers/STM32L4xx_HAL_Driver/Src/stm32l4xx_hal_smbus.c **** 
1407:Drivers/STM32L4xx_HAL_Driver/Src/stm32l4xx_hal_smbus.c ****   /* Enable the Address Match interrupt */
1408:Drivers/STM32L4xx_HAL_Driver/Src/stm32l4xx_hal_smbus.c ****   SMBUS_Enable_IRQ(hsmbus, SMBUS_IT_ADDR);
 1840              		.loc 1 1408 3
 1841 000e 3821     		movs	r1, #56
 1842 0010 7868     		ldr	r0, [r7, #4]
 1843 0012 FFF7FEFF 		bl	SMBUS_Enable_IRQ
1409:Drivers/STM32L4xx_HAL_Driver/Src/stm32l4xx_hal_smbus.c **** 
1410:Drivers/STM32L4xx_HAL_Driver/Src/stm32l4xx_hal_smbus.c ****   return HAL_OK;
 1844              		.loc 1 1410 10
 1845 0016 0023     		movs	r3, #0
1411:Drivers/STM32L4xx_HAL_Driver/Src/stm32l4xx_hal_smbus.c **** }
 1846              		.loc 1 1411 1
ARM GAS  /tmp/ccysATpZ.s 			page 58


 1847 0018 1846     		mov	r0, r3
 1848 001a 0837     		adds	r7, r7, #8
 1849              		.cfi_def_cfa_offset 8
 1850 001c BD46     		mov	sp, r7
 1851              		.cfi_def_cfa_register 13
 1852              		@ sp needed
 1853 001e 80BD     		pop	{r7, pc}
 1854              		.cfi_endproc
 1855              	.LFE456:
 1857              		.section	.text.HAL_SMBUS_DisableListen_IT,"ax",%progbits
 1858              		.align	1
 1859              		.global	HAL_SMBUS_DisableListen_IT
 1860              		.syntax unified
 1861              		.thumb
 1862              		.thumb_func
 1864              	HAL_SMBUS_DisableListen_IT:
 1865              	.LFB457:
1412:Drivers/STM32L4xx_HAL_Driver/Src/stm32l4xx_hal_smbus.c **** 
1413:Drivers/STM32L4xx_HAL_Driver/Src/stm32l4xx_hal_smbus.c **** /**
1414:Drivers/STM32L4xx_HAL_Driver/Src/stm32l4xx_hal_smbus.c ****   * @brief  Disable the Address listen mode with Interrupt.
1415:Drivers/STM32L4xx_HAL_Driver/Src/stm32l4xx_hal_smbus.c ****   * @param  hsmbus Pointer to a SMBUS_HandleTypeDef structure that contains
1416:Drivers/STM32L4xx_HAL_Driver/Src/stm32l4xx_hal_smbus.c ****   *                the configuration information for the specified SMBUS.
1417:Drivers/STM32L4xx_HAL_Driver/Src/stm32l4xx_hal_smbus.c ****   * @retval HAL status
1418:Drivers/STM32L4xx_HAL_Driver/Src/stm32l4xx_hal_smbus.c ****   */
1419:Drivers/STM32L4xx_HAL_Driver/Src/stm32l4xx_hal_smbus.c **** HAL_StatusTypeDef HAL_SMBUS_DisableListen_IT(SMBUS_HandleTypeDef *hsmbus)
1420:Drivers/STM32L4xx_HAL_Driver/Src/stm32l4xx_hal_smbus.c **** {
 1866              		.loc 1 1420 1
 1867              		.cfi_startproc
 1868              		@ args = 0, pretend = 0, frame = 8
 1869              		@ frame_needed = 1, uses_anonymous_args = 0
 1870 0000 80B5     		push	{r7, lr}
 1871              		.cfi_def_cfa_offset 8
 1872              		.cfi_offset 7, -8
 1873              		.cfi_offset 14, -4
 1874 0002 82B0     		sub	sp, sp, #8
 1875              		.cfi_def_cfa_offset 16
 1876 0004 00AF     		add	r7, sp, #0
 1877              		.cfi_def_cfa_register 7
 1878 0006 7860     		str	r0, [r7, #4]
1421:Drivers/STM32L4xx_HAL_Driver/Src/stm32l4xx_hal_smbus.c ****   /* Disable Address listen mode only if a transfer is not ongoing */
1422:Drivers/STM32L4xx_HAL_Driver/Src/stm32l4xx_hal_smbus.c ****   if (hsmbus->State == HAL_SMBUS_STATE_LISTEN)
 1879              		.loc 1 1422 13
 1880 0008 7B68     		ldr	r3, [r7, #4]
 1881 000a 9B6C     		ldr	r3, [r3, #72]
 1882              		.loc 1 1422 6
 1883 000c 082B     		cmp	r3, #8
 1884 000e 08D1     		bne	.L90
1423:Drivers/STM32L4xx_HAL_Driver/Src/stm32l4xx_hal_smbus.c ****   {
1424:Drivers/STM32L4xx_HAL_Driver/Src/stm32l4xx_hal_smbus.c ****     hsmbus->State = HAL_SMBUS_STATE_READY;
 1885              		.loc 1 1424 19
 1886 0010 7B68     		ldr	r3, [r7, #4]
 1887 0012 0122     		movs	r2, #1
 1888 0014 9A64     		str	r2, [r3, #72]
1425:Drivers/STM32L4xx_HAL_Driver/Src/stm32l4xx_hal_smbus.c **** 
1426:Drivers/STM32L4xx_HAL_Driver/Src/stm32l4xx_hal_smbus.c ****     /* Disable the Address Match interrupt */
1427:Drivers/STM32L4xx_HAL_Driver/Src/stm32l4xx_hal_smbus.c ****     SMBUS_Disable_IRQ(hsmbus, SMBUS_IT_ADDR);
 1889              		.loc 1 1427 5
ARM GAS  /tmp/ccysATpZ.s 			page 59


 1890 0016 3821     		movs	r1, #56
 1891 0018 7868     		ldr	r0, [r7, #4]
 1892 001a FFF7FEFF 		bl	SMBUS_Disable_IRQ
1428:Drivers/STM32L4xx_HAL_Driver/Src/stm32l4xx_hal_smbus.c **** 
1429:Drivers/STM32L4xx_HAL_Driver/Src/stm32l4xx_hal_smbus.c ****     return HAL_OK;
 1893              		.loc 1 1429 12
 1894 001e 0023     		movs	r3, #0
 1895 0020 00E0     		b	.L91
 1896              	.L90:
1430:Drivers/STM32L4xx_HAL_Driver/Src/stm32l4xx_hal_smbus.c ****   }
1431:Drivers/STM32L4xx_HAL_Driver/Src/stm32l4xx_hal_smbus.c ****   else
1432:Drivers/STM32L4xx_HAL_Driver/Src/stm32l4xx_hal_smbus.c ****   {
1433:Drivers/STM32L4xx_HAL_Driver/Src/stm32l4xx_hal_smbus.c ****     return HAL_BUSY;
 1897              		.loc 1 1433 12
 1898 0022 0223     		movs	r3, #2
 1899              	.L91:
1434:Drivers/STM32L4xx_HAL_Driver/Src/stm32l4xx_hal_smbus.c ****   }
1435:Drivers/STM32L4xx_HAL_Driver/Src/stm32l4xx_hal_smbus.c **** }
 1900              		.loc 1 1435 1
 1901 0024 1846     		mov	r0, r3
 1902 0026 0837     		adds	r7, r7, #8
 1903              		.cfi_def_cfa_offset 8
 1904 0028 BD46     		mov	sp, r7
 1905              		.cfi_def_cfa_register 13
 1906              		@ sp needed
 1907 002a 80BD     		pop	{r7, pc}
 1908              		.cfi_endproc
 1909              	.LFE457:
 1911              		.section	.text.HAL_SMBUS_EnableAlert_IT,"ax",%progbits
 1912              		.align	1
 1913              		.global	HAL_SMBUS_EnableAlert_IT
 1914              		.syntax unified
 1915              		.thumb
 1916              		.thumb_func
 1918              	HAL_SMBUS_EnableAlert_IT:
 1919              	.LFB458:
1436:Drivers/STM32L4xx_HAL_Driver/Src/stm32l4xx_hal_smbus.c **** 
1437:Drivers/STM32L4xx_HAL_Driver/Src/stm32l4xx_hal_smbus.c **** /**
1438:Drivers/STM32L4xx_HAL_Driver/Src/stm32l4xx_hal_smbus.c ****   * @brief  Enable the SMBUS alert mode with Interrupt.
1439:Drivers/STM32L4xx_HAL_Driver/Src/stm32l4xx_hal_smbus.c ****   * @param  hsmbus Pointer to a SMBUS_HandleTypeDef structure that contains
1440:Drivers/STM32L4xx_HAL_Driver/Src/stm32l4xx_hal_smbus.c ****   *                the configuration information for the specified SMBUSx peripheral.
1441:Drivers/STM32L4xx_HAL_Driver/Src/stm32l4xx_hal_smbus.c ****   * @retval HAL status
1442:Drivers/STM32L4xx_HAL_Driver/Src/stm32l4xx_hal_smbus.c ****   */
1443:Drivers/STM32L4xx_HAL_Driver/Src/stm32l4xx_hal_smbus.c **** HAL_StatusTypeDef HAL_SMBUS_EnableAlert_IT(SMBUS_HandleTypeDef *hsmbus)
1444:Drivers/STM32L4xx_HAL_Driver/Src/stm32l4xx_hal_smbus.c **** {
 1920              		.loc 1 1444 1
 1921              		.cfi_startproc
 1922              		@ args = 0, pretend = 0, frame = 8
 1923              		@ frame_needed = 1, uses_anonymous_args = 0
 1924 0000 80B5     		push	{r7, lr}
 1925              		.cfi_def_cfa_offset 8
 1926              		.cfi_offset 7, -8
 1927              		.cfi_offset 14, -4
 1928 0002 82B0     		sub	sp, sp, #8
 1929              		.cfi_def_cfa_offset 16
 1930 0004 00AF     		add	r7, sp, #0
 1931              		.cfi_def_cfa_register 7
ARM GAS  /tmp/ccysATpZ.s 			page 60


 1932 0006 7860     		str	r0, [r7, #4]
1445:Drivers/STM32L4xx_HAL_Driver/Src/stm32l4xx_hal_smbus.c ****   /* Enable SMBus alert */
1446:Drivers/STM32L4xx_HAL_Driver/Src/stm32l4xx_hal_smbus.c ****   hsmbus->Instance->CR1 |= I2C_CR1_ALERTEN;
 1933              		.loc 1 1446 9
 1934 0008 7B68     		ldr	r3, [r7, #4]
 1935 000a 1B68     		ldr	r3, [r3]
 1936              		.loc 1 1446 19
 1937 000c 1A68     		ldr	r2, [r3]
 1938              		.loc 1 1446 9
 1939 000e 7B68     		ldr	r3, [r7, #4]
 1940 0010 1B68     		ldr	r3, [r3]
 1941              		.loc 1 1446 25
 1942 0012 42F48002 		orr	r2, r2, #4194304
 1943 0016 1A60     		str	r2, [r3]
1447:Drivers/STM32L4xx_HAL_Driver/Src/stm32l4xx_hal_smbus.c **** 
1448:Drivers/STM32L4xx_HAL_Driver/Src/stm32l4xx_hal_smbus.c ****   /* Clear ALERT flag */
1449:Drivers/STM32L4xx_HAL_Driver/Src/stm32l4xx_hal_smbus.c ****   __HAL_SMBUS_CLEAR_FLAG(hsmbus, SMBUS_FLAG_ALERT);
 1944              		.loc 1 1449 3
 1945 0018 7B68     		ldr	r3, [r7, #4]
 1946 001a 1B68     		ldr	r3, [r3]
 1947 001c 4FF40052 		mov	r2, #8192
 1948 0020 DA61     		str	r2, [r3, #28]
1450:Drivers/STM32L4xx_HAL_Driver/Src/stm32l4xx_hal_smbus.c **** 
1451:Drivers/STM32L4xx_HAL_Driver/Src/stm32l4xx_hal_smbus.c ****   /* Enable Alert Interrupt */
1452:Drivers/STM32L4xx_HAL_Driver/Src/stm32l4xx_hal_smbus.c ****   SMBUS_Enable_IRQ(hsmbus, SMBUS_IT_ALERT);
 1949              		.loc 1 1452 3
 1950 0022 8021     		movs	r1, #128
 1951 0024 7868     		ldr	r0, [r7, #4]
 1952 0026 FFF7FEFF 		bl	SMBUS_Enable_IRQ
1453:Drivers/STM32L4xx_HAL_Driver/Src/stm32l4xx_hal_smbus.c **** 
1454:Drivers/STM32L4xx_HAL_Driver/Src/stm32l4xx_hal_smbus.c ****   return HAL_OK;
 1953              		.loc 1 1454 10
 1954 002a 0023     		movs	r3, #0
1455:Drivers/STM32L4xx_HAL_Driver/Src/stm32l4xx_hal_smbus.c **** }
 1955              		.loc 1 1455 1
 1956 002c 1846     		mov	r0, r3
 1957 002e 0837     		adds	r7, r7, #8
 1958              		.cfi_def_cfa_offset 8
 1959 0030 BD46     		mov	sp, r7
 1960              		.cfi_def_cfa_register 13
 1961              		@ sp needed
 1962 0032 80BD     		pop	{r7, pc}
 1963              		.cfi_endproc
 1964              	.LFE458:
 1966              		.section	.text.HAL_SMBUS_DisableAlert_IT,"ax",%progbits
 1967              		.align	1
 1968              		.global	HAL_SMBUS_DisableAlert_IT
 1969              		.syntax unified
 1970              		.thumb
 1971              		.thumb_func
 1973              	HAL_SMBUS_DisableAlert_IT:
 1974              	.LFB459:
1456:Drivers/STM32L4xx_HAL_Driver/Src/stm32l4xx_hal_smbus.c **** /**
1457:Drivers/STM32L4xx_HAL_Driver/Src/stm32l4xx_hal_smbus.c ****   * @brief  Disable the SMBUS alert mode with Interrupt.
1458:Drivers/STM32L4xx_HAL_Driver/Src/stm32l4xx_hal_smbus.c ****   * @param  hsmbus Pointer to a SMBUS_HandleTypeDef structure that contains
1459:Drivers/STM32L4xx_HAL_Driver/Src/stm32l4xx_hal_smbus.c ****   *                the configuration information for the specified SMBUSx peripheral.
1460:Drivers/STM32L4xx_HAL_Driver/Src/stm32l4xx_hal_smbus.c ****   * @retval HAL status
ARM GAS  /tmp/ccysATpZ.s 			page 61


1461:Drivers/STM32L4xx_HAL_Driver/Src/stm32l4xx_hal_smbus.c ****   */
1462:Drivers/STM32L4xx_HAL_Driver/Src/stm32l4xx_hal_smbus.c **** HAL_StatusTypeDef HAL_SMBUS_DisableAlert_IT(SMBUS_HandleTypeDef *hsmbus)
1463:Drivers/STM32L4xx_HAL_Driver/Src/stm32l4xx_hal_smbus.c **** {
 1975              		.loc 1 1463 1
 1976              		.cfi_startproc
 1977              		@ args = 0, pretend = 0, frame = 8
 1978              		@ frame_needed = 1, uses_anonymous_args = 0
 1979 0000 80B5     		push	{r7, lr}
 1980              		.cfi_def_cfa_offset 8
 1981              		.cfi_offset 7, -8
 1982              		.cfi_offset 14, -4
 1983 0002 82B0     		sub	sp, sp, #8
 1984              		.cfi_def_cfa_offset 16
 1985 0004 00AF     		add	r7, sp, #0
 1986              		.cfi_def_cfa_register 7
 1987 0006 7860     		str	r0, [r7, #4]
1464:Drivers/STM32L4xx_HAL_Driver/Src/stm32l4xx_hal_smbus.c ****   /* Enable SMBus alert */
1465:Drivers/STM32L4xx_HAL_Driver/Src/stm32l4xx_hal_smbus.c ****   hsmbus->Instance->CR1 &= ~I2C_CR1_ALERTEN;
 1988              		.loc 1 1465 9
 1989 0008 7B68     		ldr	r3, [r7, #4]
 1990 000a 1B68     		ldr	r3, [r3]
 1991              		.loc 1 1465 19
 1992 000c 1A68     		ldr	r2, [r3]
 1993              		.loc 1 1465 9
 1994 000e 7B68     		ldr	r3, [r7, #4]
 1995 0010 1B68     		ldr	r3, [r3]
 1996              		.loc 1 1465 25
 1997 0012 22F48002 		bic	r2, r2, #4194304
 1998 0016 1A60     		str	r2, [r3]
1466:Drivers/STM32L4xx_HAL_Driver/Src/stm32l4xx_hal_smbus.c **** 
1467:Drivers/STM32L4xx_HAL_Driver/Src/stm32l4xx_hal_smbus.c ****   /* Disable Alert Interrupt */
1468:Drivers/STM32L4xx_HAL_Driver/Src/stm32l4xx_hal_smbus.c ****   SMBUS_Disable_IRQ(hsmbus, SMBUS_IT_ALERT);
 1999              		.loc 1 1468 3
 2000 0018 8021     		movs	r1, #128
 2001 001a 7868     		ldr	r0, [r7, #4]
 2002 001c FFF7FEFF 		bl	SMBUS_Disable_IRQ
1469:Drivers/STM32L4xx_HAL_Driver/Src/stm32l4xx_hal_smbus.c **** 
1470:Drivers/STM32L4xx_HAL_Driver/Src/stm32l4xx_hal_smbus.c ****   return HAL_OK;
 2003              		.loc 1 1470 10
 2004 0020 0023     		movs	r3, #0
1471:Drivers/STM32L4xx_HAL_Driver/Src/stm32l4xx_hal_smbus.c **** }
 2005              		.loc 1 1471 1
 2006 0022 1846     		mov	r0, r3
 2007 0024 0837     		adds	r7, r7, #8
 2008              		.cfi_def_cfa_offset 8
 2009 0026 BD46     		mov	sp, r7
 2010              		.cfi_def_cfa_register 13
 2011              		@ sp needed
 2012 0028 80BD     		pop	{r7, pc}
 2013              		.cfi_endproc
 2014              	.LFE459:
 2016              		.section	.text.HAL_SMBUS_IsDeviceReady,"ax",%progbits
 2017              		.align	1
 2018              		.global	HAL_SMBUS_IsDeviceReady
 2019              		.syntax unified
 2020              		.thumb
 2021              		.thumb_func
ARM GAS  /tmp/ccysATpZ.s 			page 62


 2023              	HAL_SMBUS_IsDeviceReady:
 2024              	.LFB460:
1472:Drivers/STM32L4xx_HAL_Driver/Src/stm32l4xx_hal_smbus.c **** 
1473:Drivers/STM32L4xx_HAL_Driver/Src/stm32l4xx_hal_smbus.c **** /**
1474:Drivers/STM32L4xx_HAL_Driver/Src/stm32l4xx_hal_smbus.c ****   * @brief  Check if target device is ready for communication.
1475:Drivers/STM32L4xx_HAL_Driver/Src/stm32l4xx_hal_smbus.c ****   * @param  hsmbus Pointer to a SMBUS_HandleTypeDef structure that contains
1476:Drivers/STM32L4xx_HAL_Driver/Src/stm32l4xx_hal_smbus.c ****   *                the configuration information for the specified SMBUS.
1477:Drivers/STM32L4xx_HAL_Driver/Src/stm32l4xx_hal_smbus.c ****   * @param  DevAddress Target device address: The device 7 bits address value
1478:Drivers/STM32L4xx_HAL_Driver/Src/stm32l4xx_hal_smbus.c ****   *         in datasheet must be shifted to the left before calling the interface
1479:Drivers/STM32L4xx_HAL_Driver/Src/stm32l4xx_hal_smbus.c ****   * @param  Trials Number of trials
1480:Drivers/STM32L4xx_HAL_Driver/Src/stm32l4xx_hal_smbus.c ****   * @param  Timeout Timeout duration
1481:Drivers/STM32L4xx_HAL_Driver/Src/stm32l4xx_hal_smbus.c ****   * @retval HAL status
1482:Drivers/STM32L4xx_HAL_Driver/Src/stm32l4xx_hal_smbus.c ****   */
1483:Drivers/STM32L4xx_HAL_Driver/Src/stm32l4xx_hal_smbus.c **** HAL_StatusTypeDef HAL_SMBUS_IsDeviceReady(SMBUS_HandleTypeDef *hsmbus, uint16_t DevAddress, uint32_
1484:Drivers/STM32L4xx_HAL_Driver/Src/stm32l4xx_hal_smbus.c ****                                           uint32_t Timeout)
1485:Drivers/STM32L4xx_HAL_Driver/Src/stm32l4xx_hal_smbus.c **** {
 2025              		.loc 1 1485 1
 2026              		.cfi_startproc
 2027              		@ args = 0, pretend = 0, frame = 32
 2028              		@ frame_needed = 1, uses_anonymous_args = 0
 2029 0000 80B5     		push	{r7, lr}
 2030              		.cfi_def_cfa_offset 8
 2031              		.cfi_offset 7, -8
 2032              		.cfi_offset 14, -4
 2033 0002 88B0     		sub	sp, sp, #32
 2034              		.cfi_def_cfa_offset 40
 2035 0004 00AF     		add	r7, sp, #0
 2036              		.cfi_def_cfa_register 7
 2037 0006 F860     		str	r0, [r7, #12]
 2038 0008 7A60     		str	r2, [r7, #4]
 2039 000a 3B60     		str	r3, [r7]
 2040 000c 0B46     		mov	r3, r1	@ movhi
 2041 000e 7B81     		strh	r3, [r7, #10]	@ movhi
1486:Drivers/STM32L4xx_HAL_Driver/Src/stm32l4xx_hal_smbus.c ****   uint32_t tickstart;
1487:Drivers/STM32L4xx_HAL_Driver/Src/stm32l4xx_hal_smbus.c **** 
1488:Drivers/STM32L4xx_HAL_Driver/Src/stm32l4xx_hal_smbus.c ****   __IO uint32_t SMBUS_Trials = 0UL;
 2042              		.loc 1 1488 17
 2043 0010 0023     		movs	r3, #0
 2044 0012 7B61     		str	r3, [r7, #20]
1489:Drivers/STM32L4xx_HAL_Driver/Src/stm32l4xx_hal_smbus.c **** 
1490:Drivers/STM32L4xx_HAL_Driver/Src/stm32l4xx_hal_smbus.c ****   FlagStatus tmp1;
1491:Drivers/STM32L4xx_HAL_Driver/Src/stm32l4xx_hal_smbus.c ****   FlagStatus tmp2;
1492:Drivers/STM32L4xx_HAL_Driver/Src/stm32l4xx_hal_smbus.c **** 
1493:Drivers/STM32L4xx_HAL_Driver/Src/stm32l4xx_hal_smbus.c ****   if (hsmbus->State == HAL_SMBUS_STATE_READY)
 2045              		.loc 1 1493 13
 2046 0014 FB68     		ldr	r3, [r7, #12]
 2047 0016 9B6C     		ldr	r3, [r3, #72]
 2048              		.loc 1 1493 6
 2049 0018 012B     		cmp	r3, #1
 2050 001a 40F0D080 		bne	.L97
1494:Drivers/STM32L4xx_HAL_Driver/Src/stm32l4xx_hal_smbus.c ****   {
1495:Drivers/STM32L4xx_HAL_Driver/Src/stm32l4xx_hal_smbus.c ****     if (__HAL_SMBUS_GET_FLAG(hsmbus, SMBUS_FLAG_BUSY) != RESET)
 2051              		.loc 1 1495 9
 2052 001e FB68     		ldr	r3, [r7, #12]
 2053 0020 1B68     		ldr	r3, [r3]
 2054 0022 9B69     		ldr	r3, [r3, #24]
 2055 0024 03F40043 		and	r3, r3, #32768
ARM GAS  /tmp/ccysATpZ.s 			page 63


 2056              		.loc 1 1495 8
 2057 0028 B3F5004F 		cmp	r3, #32768
 2058 002c 01D1     		bne	.L98
1496:Drivers/STM32L4xx_HAL_Driver/Src/stm32l4xx_hal_smbus.c ****     {
1497:Drivers/STM32L4xx_HAL_Driver/Src/stm32l4xx_hal_smbus.c ****       return HAL_BUSY;
 2059              		.loc 1 1497 14
 2060 002e 0223     		movs	r3, #2
 2061 0030 C6E0     		b	.L99
 2062              	.L98:
1498:Drivers/STM32L4xx_HAL_Driver/Src/stm32l4xx_hal_smbus.c ****     }
1499:Drivers/STM32L4xx_HAL_Driver/Src/stm32l4xx_hal_smbus.c **** 
1500:Drivers/STM32L4xx_HAL_Driver/Src/stm32l4xx_hal_smbus.c ****     /* Process Locked */
1501:Drivers/STM32L4xx_HAL_Driver/Src/stm32l4xx_hal_smbus.c ****     __HAL_LOCK(hsmbus);
 2063              		.loc 1 1501 5
 2064 0032 FB68     		ldr	r3, [r7, #12]
 2065 0034 93F84430 		ldrb	r3, [r3, #68]	@ zero_extendqisi2
 2066 0038 012B     		cmp	r3, #1
 2067 003a 01D1     		bne	.L100
 2068              		.loc 1 1501 5 is_stmt 0 discriminator 1
 2069 003c 0223     		movs	r3, #2
 2070              		.loc 1 1501 5
 2071 003e BFE0     		b	.L99
 2072              	.L100:
 2073              		.loc 1 1501 5 discriminator 2
 2074 0040 FB68     		ldr	r3, [r7, #12]
 2075 0042 0122     		movs	r2, #1
 2076 0044 83F84420 		strb	r2, [r3, #68]
1502:Drivers/STM32L4xx_HAL_Driver/Src/stm32l4xx_hal_smbus.c **** 
1503:Drivers/STM32L4xx_HAL_Driver/Src/stm32l4xx_hal_smbus.c ****     hsmbus->State = HAL_SMBUS_STATE_BUSY;
 2077              		.loc 1 1503 19 is_stmt 1
 2078 0048 FB68     		ldr	r3, [r7, #12]
 2079 004a 0222     		movs	r2, #2
 2080 004c 9A64     		str	r2, [r3, #72]
1504:Drivers/STM32L4xx_HAL_Driver/Src/stm32l4xx_hal_smbus.c ****     hsmbus->ErrorCode = HAL_SMBUS_ERROR_NONE;
 2081              		.loc 1 1504 23
 2082 004e FB68     		ldr	r3, [r7, #12]
 2083 0050 0022     		movs	r2, #0
 2084 0052 DA64     		str	r2, [r3, #76]
 2085              	.L111:
1505:Drivers/STM32L4xx_HAL_Driver/Src/stm32l4xx_hal_smbus.c **** 
1506:Drivers/STM32L4xx_HAL_Driver/Src/stm32l4xx_hal_smbus.c ****     do
1507:Drivers/STM32L4xx_HAL_Driver/Src/stm32l4xx_hal_smbus.c ****     {
1508:Drivers/STM32L4xx_HAL_Driver/Src/stm32l4xx_hal_smbus.c ****       /* Generate Start */
1509:Drivers/STM32L4xx_HAL_Driver/Src/stm32l4xx_hal_smbus.c ****       hsmbus->Instance->CR2 = SMBUS_GENERATE_START(hsmbus->Init.AddressingMode, DevAddress);
 2086              		.loc 1 1509 31
 2087 0054 FB68     		ldr	r3, [r7, #12]
 2088 0056 1B69     		ldr	r3, [r3, #16]
 2089 0058 012B     		cmp	r3, #1
 2090 005a 07D1     		bne	.L101
 2091              		.loc 1 1509 31 is_stmt 0 discriminator 1
 2092 005c 7B89     		ldrh	r3, [r7, #10]
 2093 005e C3F30903 		ubfx	r3, r3, #0, #10
 2094 0062 43F00073 		orr	r3, r3, #33554432
 2095 0066 43F40053 		orr	r3, r3, #8192
 2096 006a 04E0     		b	.L102
 2097              	.L101:
 2098              		.loc 1 1509 31 discriminator 2
ARM GAS  /tmp/ccysATpZ.s 			page 64


 2099 006c 7B89     		ldrh	r3, [r7, #10]
 2100 006e C3F30903 		ubfx	r3, r3, #0, #10
 2101 0072 43F42053 		orr	r3, r3, #10240
 2102              	.L102:
 2103              		.loc 1 1509 13 is_stmt 1 discriminator 4
 2104 0076 FA68     		ldr	r2, [r7, #12]
 2105 0078 1268     		ldr	r2, [r2]
 2106              		.loc 1 1509 29 discriminator 4
 2107 007a 5360     		str	r3, [r2, #4]
1510:Drivers/STM32L4xx_HAL_Driver/Src/stm32l4xx_hal_smbus.c **** 
1511:Drivers/STM32L4xx_HAL_Driver/Src/stm32l4xx_hal_smbus.c ****       /* No need to Check TC flag, with AUTOEND mode the stop is automatically generated */
1512:Drivers/STM32L4xx_HAL_Driver/Src/stm32l4xx_hal_smbus.c ****       /* Wait until STOPF flag is set or a NACK flag is set*/
1513:Drivers/STM32L4xx_HAL_Driver/Src/stm32l4xx_hal_smbus.c ****       tickstart = HAL_GetTick();
 2108              		.loc 1 1513 19
 2109 007c FFF7FEFF 		bl	HAL_GetTick
 2110 0080 B861     		str	r0, [r7, #24]
1514:Drivers/STM32L4xx_HAL_Driver/Src/stm32l4xx_hal_smbus.c **** 
1515:Drivers/STM32L4xx_HAL_Driver/Src/stm32l4xx_hal_smbus.c ****       tmp1 = __HAL_SMBUS_GET_FLAG(hsmbus, SMBUS_FLAG_STOPF);
 2111              		.loc 1 1515 14
 2112 0082 FB68     		ldr	r3, [r7, #12]
 2113 0084 1B68     		ldr	r3, [r3]
 2114 0086 9B69     		ldr	r3, [r3, #24]
 2115 0088 03F02003 		and	r3, r3, #32
 2116 008c 202B     		cmp	r3, #32
 2117 008e 0CBF     		ite	eq
 2118 0090 0123     		moveq	r3, #1
 2119 0092 0023     		movne	r3, #0
 2120 0094 DBB2     		uxtb	r3, r3
 2121              		.loc 1 1515 12
 2122 0096 FB77     		strb	r3, [r7, #31]
1516:Drivers/STM32L4xx_HAL_Driver/Src/stm32l4xx_hal_smbus.c ****       tmp2 = __HAL_SMBUS_GET_FLAG(hsmbus, SMBUS_FLAG_AF);
 2123              		.loc 1 1516 14
 2124 0098 FB68     		ldr	r3, [r7, #12]
 2125 009a 1B68     		ldr	r3, [r3]
 2126 009c 9B69     		ldr	r3, [r3, #24]
 2127 009e 03F01003 		and	r3, r3, #16
 2128 00a2 102B     		cmp	r3, #16
 2129 00a4 0CBF     		ite	eq
 2130 00a6 0123     		moveq	r3, #1
 2131 00a8 0023     		movne	r3, #0
 2132 00aa DBB2     		uxtb	r3, r3
 2133              		.loc 1 1516 12
 2134 00ac BB77     		strb	r3, [r7, #30]
1517:Drivers/STM32L4xx_HAL_Driver/Src/stm32l4xx_hal_smbus.c **** 
1518:Drivers/STM32L4xx_HAL_Driver/Src/stm32l4xx_hal_smbus.c ****       while ((tmp1 == RESET) && (tmp2 == RESET))
 2135              		.loc 1 1518 13
 2136 00ae 33E0     		b	.L103
 2137              	.L107:
1519:Drivers/STM32L4xx_HAL_Driver/Src/stm32l4xx_hal_smbus.c ****       {
1520:Drivers/STM32L4xx_HAL_Driver/Src/stm32l4xx_hal_smbus.c ****         if (Timeout != HAL_MAX_DELAY)
 2138              		.loc 1 1520 12
 2139 00b0 3B68     		ldr	r3, [r7]
 2140 00b2 B3F1FF3F 		cmp	r3, #-1
 2141 00b6 19D0     		beq	.L104
1521:Drivers/STM32L4xx_HAL_Driver/Src/stm32l4xx_hal_smbus.c ****         {
1522:Drivers/STM32L4xx_HAL_Driver/Src/stm32l4xx_hal_smbus.c ****           if (((HAL_GetTick() - tickstart) > Timeout) || (Timeout == 0UL))
 2142              		.loc 1 1522 17
ARM GAS  /tmp/ccysATpZ.s 			page 65


 2143 00b8 FFF7FEFF 		bl	HAL_GetTick
 2144 00bc 0246     		mov	r2, r0
 2145              		.loc 1 1522 31 discriminator 1
 2146 00be BB69     		ldr	r3, [r7, #24]
 2147 00c0 D31A     		subs	r3, r2, r3
 2148              		.loc 1 1522 14 discriminator 1
 2149 00c2 3A68     		ldr	r2, [r7]
 2150 00c4 9A42     		cmp	r2, r3
 2151 00c6 02D3     		bcc	.L105
 2152              		.loc 1 1522 55 discriminator 1
 2153 00c8 3B68     		ldr	r3, [r7]
 2154 00ca 002B     		cmp	r3, #0
 2155 00cc 0ED1     		bne	.L104
 2156              	.L105:
1523:Drivers/STM32L4xx_HAL_Driver/Src/stm32l4xx_hal_smbus.c ****           {
1524:Drivers/STM32L4xx_HAL_Driver/Src/stm32l4xx_hal_smbus.c ****             /* Device is ready */
1525:Drivers/STM32L4xx_HAL_Driver/Src/stm32l4xx_hal_smbus.c ****             hsmbus->State = HAL_SMBUS_STATE_READY;
 2157              		.loc 1 1525 27
 2158 00ce FB68     		ldr	r3, [r7, #12]
 2159 00d0 0122     		movs	r2, #1
 2160 00d2 9A64     		str	r2, [r3, #72]
1526:Drivers/STM32L4xx_HAL_Driver/Src/stm32l4xx_hal_smbus.c **** 
1527:Drivers/STM32L4xx_HAL_Driver/Src/stm32l4xx_hal_smbus.c ****             /* Update SMBUS error code */
1528:Drivers/STM32L4xx_HAL_Driver/Src/stm32l4xx_hal_smbus.c ****             hsmbus->ErrorCode |= HAL_SMBUS_ERROR_HALTIMEOUT;
 2161              		.loc 1 1528 19
 2162 00d4 FB68     		ldr	r3, [r7, #12]
 2163 00d6 DB6C     		ldr	r3, [r3, #76]
 2164              		.loc 1 1528 31
 2165 00d8 43F01002 		orr	r2, r3, #16
 2166 00dc FB68     		ldr	r3, [r7, #12]
 2167 00de DA64     		str	r2, [r3, #76]
1529:Drivers/STM32L4xx_HAL_Driver/Src/stm32l4xx_hal_smbus.c **** 
1530:Drivers/STM32L4xx_HAL_Driver/Src/stm32l4xx_hal_smbus.c ****             /* Process Unlocked */
1531:Drivers/STM32L4xx_HAL_Driver/Src/stm32l4xx_hal_smbus.c ****             __HAL_UNLOCK(hsmbus);
 2168              		.loc 1 1531 13
 2169 00e0 FB68     		ldr	r3, [r7, #12]
 2170 00e2 0022     		movs	r2, #0
 2171 00e4 83F84420 		strb	r2, [r3, #68]
1532:Drivers/STM32L4xx_HAL_Driver/Src/stm32l4xx_hal_smbus.c ****             return HAL_ERROR;
 2172              		.loc 1 1532 20
 2173 00e8 0123     		movs	r3, #1
 2174 00ea 69E0     		b	.L99
 2175              	.L104:
1533:Drivers/STM32L4xx_HAL_Driver/Src/stm32l4xx_hal_smbus.c ****           }
1534:Drivers/STM32L4xx_HAL_Driver/Src/stm32l4xx_hal_smbus.c ****         }
1535:Drivers/STM32L4xx_HAL_Driver/Src/stm32l4xx_hal_smbus.c **** 
1536:Drivers/STM32L4xx_HAL_Driver/Src/stm32l4xx_hal_smbus.c ****         tmp1 = __HAL_SMBUS_GET_FLAG(hsmbus, SMBUS_FLAG_STOPF);
 2176              		.loc 1 1536 16
 2177 00ec FB68     		ldr	r3, [r7, #12]
 2178 00ee 1B68     		ldr	r3, [r3]
 2179 00f0 9B69     		ldr	r3, [r3, #24]
 2180 00f2 03F02003 		and	r3, r3, #32
 2181 00f6 202B     		cmp	r3, #32
 2182 00f8 0CBF     		ite	eq
 2183 00fa 0123     		moveq	r3, #1
 2184 00fc 0023     		movne	r3, #0
 2185 00fe DBB2     		uxtb	r3, r3
ARM GAS  /tmp/ccysATpZ.s 			page 66


 2186              		.loc 1 1536 14
 2187 0100 FB77     		strb	r3, [r7, #31]
1537:Drivers/STM32L4xx_HAL_Driver/Src/stm32l4xx_hal_smbus.c ****         tmp2 = __HAL_SMBUS_GET_FLAG(hsmbus, SMBUS_FLAG_AF);
 2188              		.loc 1 1537 16
 2189 0102 FB68     		ldr	r3, [r7, #12]
 2190 0104 1B68     		ldr	r3, [r3]
 2191 0106 9B69     		ldr	r3, [r3, #24]
 2192 0108 03F01003 		and	r3, r3, #16
 2193 010c 102B     		cmp	r3, #16
 2194 010e 0CBF     		ite	eq
 2195 0110 0123     		moveq	r3, #1
 2196 0112 0023     		movne	r3, #0
 2197 0114 DBB2     		uxtb	r3, r3
 2198              		.loc 1 1537 14
 2199 0116 BB77     		strb	r3, [r7, #30]
 2200              	.L103:
1518:Drivers/STM32L4xx_HAL_Driver/Src/stm32l4xx_hal_smbus.c ****       {
 2201              		.loc 1 1518 30
 2202 0118 FB7F     		ldrb	r3, [r7, #31]	@ zero_extendqisi2
 2203 011a 002B     		cmp	r3, #0
 2204 011c 02D1     		bne	.L106
1518:Drivers/STM32L4xx_HAL_Driver/Src/stm32l4xx_hal_smbus.c ****       {
 2205              		.loc 1 1518 30 is_stmt 0 discriminator 1
 2206 011e BB7F     		ldrb	r3, [r7, #30]	@ zero_extendqisi2
 2207 0120 002B     		cmp	r3, #0
 2208 0122 C5D0     		beq	.L107
 2209              	.L106:
1538:Drivers/STM32L4xx_HAL_Driver/Src/stm32l4xx_hal_smbus.c ****       }
1539:Drivers/STM32L4xx_HAL_Driver/Src/stm32l4xx_hal_smbus.c **** 
1540:Drivers/STM32L4xx_HAL_Driver/Src/stm32l4xx_hal_smbus.c ****       /* Check if the NACKF flag has not been set */
1541:Drivers/STM32L4xx_HAL_Driver/Src/stm32l4xx_hal_smbus.c ****       if (__HAL_SMBUS_GET_FLAG(hsmbus, SMBUS_FLAG_AF) == RESET)
 2210              		.loc 1 1541 11 is_stmt 1
 2211 0124 FB68     		ldr	r3, [r7, #12]
 2212 0126 1B68     		ldr	r3, [r3]
 2213 0128 9B69     		ldr	r3, [r3, #24]
 2214 012a 03F01003 		and	r3, r3, #16
 2215              		.loc 1 1541 10
 2216 012e 102B     		cmp	r3, #16
 2217 0130 1DD0     		beq	.L108
1542:Drivers/STM32L4xx_HAL_Driver/Src/stm32l4xx_hal_smbus.c ****       {
1543:Drivers/STM32L4xx_HAL_Driver/Src/stm32l4xx_hal_smbus.c ****         /* Wait until STOPF flag is reset */
1544:Drivers/STM32L4xx_HAL_Driver/Src/stm32l4xx_hal_smbus.c ****         if (SMBUS_WaitOnFlagUntilTimeout(hsmbus, SMBUS_FLAG_STOPF, RESET, Timeout) != HAL_OK)
 2218              		.loc 1 1544 13
 2219 0132 3B68     		ldr	r3, [r7]
 2220 0134 0022     		movs	r2, #0
 2221 0136 2021     		movs	r1, #32
 2222 0138 F868     		ldr	r0, [r7, #12]
 2223 013a FFF7FEFF 		bl	SMBUS_WaitOnFlagUntilTimeout
 2224 013e 0346     		mov	r3, r0
 2225              		.loc 1 1544 12 discriminator 1
 2226 0140 002B     		cmp	r3, #0
 2227 0142 07D0     		beq	.L109
1545:Drivers/STM32L4xx_HAL_Driver/Src/stm32l4xx_hal_smbus.c ****         {
1546:Drivers/STM32L4xx_HAL_Driver/Src/stm32l4xx_hal_smbus.c ****           /* A non acknowledge appear during STOP Flag waiting process, a new trial must be perform
1547:Drivers/STM32L4xx_HAL_Driver/Src/stm32l4xx_hal_smbus.c ****           /* Clear STOP Flag */
1548:Drivers/STM32L4xx_HAL_Driver/Src/stm32l4xx_hal_smbus.c ****           __HAL_SMBUS_CLEAR_FLAG(hsmbus, SMBUS_FLAG_STOPF);
 2228              		.loc 1 1548 11
ARM GAS  /tmp/ccysATpZ.s 			page 67


 2229 0144 FB68     		ldr	r3, [r7, #12]
 2230 0146 1B68     		ldr	r3, [r3]
 2231 0148 2022     		movs	r2, #32
 2232 014a DA61     		str	r2, [r3, #28]
1549:Drivers/STM32L4xx_HAL_Driver/Src/stm32l4xx_hal_smbus.c **** 
1550:Drivers/STM32L4xx_HAL_Driver/Src/stm32l4xx_hal_smbus.c ****           /* Reset the error code for next trial */
1551:Drivers/STM32L4xx_HAL_Driver/Src/stm32l4xx_hal_smbus.c ****           hsmbus->ErrorCode = HAL_SMBUS_ERROR_NONE;
 2233              		.loc 1 1551 29
 2234 014c FB68     		ldr	r3, [r7, #12]
 2235 014e 0022     		movs	r2, #0
 2236 0150 DA64     		str	r2, [r3, #76]
 2237 0152 1DE0     		b	.L110
 2238              	.L109:
1552:Drivers/STM32L4xx_HAL_Driver/Src/stm32l4xx_hal_smbus.c ****         }
1553:Drivers/STM32L4xx_HAL_Driver/Src/stm32l4xx_hal_smbus.c ****         else
1554:Drivers/STM32L4xx_HAL_Driver/Src/stm32l4xx_hal_smbus.c ****         {
1555:Drivers/STM32L4xx_HAL_Driver/Src/stm32l4xx_hal_smbus.c ****           /* A acknowledge appear during STOP Flag waiting process, this mean that device respond t
1556:Drivers/STM32L4xx_HAL_Driver/Src/stm32l4xx_hal_smbus.c **** 
1557:Drivers/STM32L4xx_HAL_Driver/Src/stm32l4xx_hal_smbus.c ****           /* Clear STOP Flag */
1558:Drivers/STM32L4xx_HAL_Driver/Src/stm32l4xx_hal_smbus.c ****           __HAL_SMBUS_CLEAR_FLAG(hsmbus, SMBUS_FLAG_STOPF);
 2239              		.loc 1 1558 11
 2240 0154 FB68     		ldr	r3, [r7, #12]
 2241 0156 1B68     		ldr	r3, [r3]
 2242 0158 2022     		movs	r2, #32
 2243 015a DA61     		str	r2, [r3, #28]
1559:Drivers/STM32L4xx_HAL_Driver/Src/stm32l4xx_hal_smbus.c **** 
1560:Drivers/STM32L4xx_HAL_Driver/Src/stm32l4xx_hal_smbus.c ****           /* Device is ready */
1561:Drivers/STM32L4xx_HAL_Driver/Src/stm32l4xx_hal_smbus.c ****           hsmbus->State = HAL_SMBUS_STATE_READY;
 2244              		.loc 1 1561 25
 2245 015c FB68     		ldr	r3, [r7, #12]
 2246 015e 0122     		movs	r2, #1
 2247 0160 9A64     		str	r2, [r3, #72]
1562:Drivers/STM32L4xx_HAL_Driver/Src/stm32l4xx_hal_smbus.c **** 
1563:Drivers/STM32L4xx_HAL_Driver/Src/stm32l4xx_hal_smbus.c ****           /* Process Unlocked */
1564:Drivers/STM32L4xx_HAL_Driver/Src/stm32l4xx_hal_smbus.c ****           __HAL_UNLOCK(hsmbus);
 2248              		.loc 1 1564 11
 2249 0162 FB68     		ldr	r3, [r7, #12]
 2250 0164 0022     		movs	r2, #0
 2251 0166 83F84420 		strb	r2, [r3, #68]
1565:Drivers/STM32L4xx_HAL_Driver/Src/stm32l4xx_hal_smbus.c **** 
1566:Drivers/STM32L4xx_HAL_Driver/Src/stm32l4xx_hal_smbus.c ****           return HAL_OK;
 2252              		.loc 1 1566 18
 2253 016a 0023     		movs	r3, #0
 2254 016c 28E0     		b	.L99
 2255              	.L108:
1567:Drivers/STM32L4xx_HAL_Driver/Src/stm32l4xx_hal_smbus.c ****         }
1568:Drivers/STM32L4xx_HAL_Driver/Src/stm32l4xx_hal_smbus.c ****       }
1569:Drivers/STM32L4xx_HAL_Driver/Src/stm32l4xx_hal_smbus.c ****       else
1570:Drivers/STM32L4xx_HAL_Driver/Src/stm32l4xx_hal_smbus.c ****       {
1571:Drivers/STM32L4xx_HAL_Driver/Src/stm32l4xx_hal_smbus.c ****         /* A non acknowledge is detected, this mean that device not respond to its address,
1572:Drivers/STM32L4xx_HAL_Driver/Src/stm32l4xx_hal_smbus.c ****            a new trial must be performed */
1573:Drivers/STM32L4xx_HAL_Driver/Src/stm32l4xx_hal_smbus.c **** 
1574:Drivers/STM32L4xx_HAL_Driver/Src/stm32l4xx_hal_smbus.c ****         /* Clear NACK Flag */
1575:Drivers/STM32L4xx_HAL_Driver/Src/stm32l4xx_hal_smbus.c ****         __HAL_SMBUS_CLEAR_FLAG(hsmbus, SMBUS_FLAG_AF);
 2256              		.loc 1 1575 9
 2257 016e FB68     		ldr	r3, [r7, #12]
 2258 0170 1B68     		ldr	r3, [r3]
ARM GAS  /tmp/ccysATpZ.s 			page 68


 2259 0172 1022     		movs	r2, #16
 2260 0174 DA61     		str	r2, [r3, #28]
1576:Drivers/STM32L4xx_HAL_Driver/Src/stm32l4xx_hal_smbus.c **** 
1577:Drivers/STM32L4xx_HAL_Driver/Src/stm32l4xx_hal_smbus.c ****         /* Wait until STOPF flag is reset */
1578:Drivers/STM32L4xx_HAL_Driver/Src/stm32l4xx_hal_smbus.c ****         if (SMBUS_WaitOnFlagUntilTimeout(hsmbus, SMBUS_FLAG_STOPF, RESET, Timeout) == HAL_OK)
 2261              		.loc 1 1578 13
 2262 0176 3B68     		ldr	r3, [r7]
 2263 0178 0022     		movs	r2, #0
 2264 017a 2021     		movs	r1, #32
 2265 017c F868     		ldr	r0, [r7, #12]
 2266 017e FFF7FEFF 		bl	SMBUS_WaitOnFlagUntilTimeout
 2267 0182 0346     		mov	r3, r0
 2268              		.loc 1 1578 12 discriminator 1
 2269 0184 002B     		cmp	r3, #0
 2270 0186 03D1     		bne	.L110
1579:Drivers/STM32L4xx_HAL_Driver/Src/stm32l4xx_hal_smbus.c ****         {
1580:Drivers/STM32L4xx_HAL_Driver/Src/stm32l4xx_hal_smbus.c ****           /* Clear STOP Flag, auto generated with autoend*/
1581:Drivers/STM32L4xx_HAL_Driver/Src/stm32l4xx_hal_smbus.c ****           __HAL_SMBUS_CLEAR_FLAG(hsmbus, SMBUS_FLAG_STOPF);
 2271              		.loc 1 1581 11
 2272 0188 FB68     		ldr	r3, [r7, #12]
 2273 018a 1B68     		ldr	r3, [r3]
 2274 018c 2022     		movs	r2, #32
 2275 018e DA61     		str	r2, [r3, #28]
 2276              	.L110:
1582:Drivers/STM32L4xx_HAL_Driver/Src/stm32l4xx_hal_smbus.c ****         }
1583:Drivers/STM32L4xx_HAL_Driver/Src/stm32l4xx_hal_smbus.c ****       }
1584:Drivers/STM32L4xx_HAL_Driver/Src/stm32l4xx_hal_smbus.c **** 
1585:Drivers/STM32L4xx_HAL_Driver/Src/stm32l4xx_hal_smbus.c ****       /* Increment Trials */
1586:Drivers/STM32L4xx_HAL_Driver/Src/stm32l4xx_hal_smbus.c ****       SMBUS_Trials++;
