ARM GAS  /tmp/ccmvJbBK.s 			page 1


   1              		.cpu cortex-m4
   2              		.arch armv7e-m
   3              		.fpu fpv4-sp-d16
   4              		.eabi_attribute 27, 1
   5              		.eabi_attribute 28, 1
   6              		.eabi_attribute 20, 1
   7              		.eabi_attribute 21, 1
   8              		.eabi_attribute 23, 3
   9              		.eabi_attribute 24, 1
  10              		.eabi_attribute 25, 1
  11              		.eabi_attribute 26, 1
  12              		.eabi_attribute 30, 6
  13              		.eabi_attribute 34, 1
  14              		.eabi_attribute 18, 4
  15              		.file	"stm32l475e_iot01_tsensor.c"
  16              		.text
  17              	.Ltext0:
  18              		.cfi_sections	.debug_frame
  19              		.file 1 "Drivers/BSP/B-L475E-IOT01/stm32l475e_iot01_tsensor.c"
  20              		.section	.rodata.CHANNEL_OFFSET_TAB,"a"
  21              		.align	2
  24              	CHANNEL_OFFSET_TAB:
  25 0000 081C3044 		.ascii	"\010\0340DXl\200"
  25      586C80
  26              		.section	.bss.tsensor_drv,"aw",%nobits
  27              		.align	2
  30              	tsensor_drv:
  31 0000 00000000 		.space	4
  32              		.section	.text.BSP_TSENSOR_Init,"ax",%progbits
  33              		.align	1
  34              		.global	BSP_TSENSOR_Init
  35              		.syntax unified
  36              		.thumb
  37              		.thumb_func
  39              	BSP_TSENSOR_Init:
  40              	.LFB445:
   1:Drivers/BSP/B-L475E-IOT01/stm32l475e_iot01_tsensor.c **** /**
   2:Drivers/BSP/B-L475E-IOT01/stm32l475e_iot01_tsensor.c ****   ******************************************************************************
   3:Drivers/BSP/B-L475E-IOT01/stm32l475e_iot01_tsensor.c ****   * @file    stm32l475e_iot01_tsensor.c
   4:Drivers/BSP/B-L475E-IOT01/stm32l475e_iot01_tsensor.c ****   * @author  MCD Application Team
   5:Drivers/BSP/B-L475E-IOT01/stm32l475e_iot01_tsensor.c ****   * @brief   This file provides a set of functions needed to manage the temperature sensor
   6:Drivers/BSP/B-L475E-IOT01/stm32l475e_iot01_tsensor.c ****   ******************************************************************************
   7:Drivers/BSP/B-L475E-IOT01/stm32l475e_iot01_tsensor.c ****   * @attention
   8:Drivers/BSP/B-L475E-IOT01/stm32l475e_iot01_tsensor.c ****   *
   9:Drivers/BSP/B-L475E-IOT01/stm32l475e_iot01_tsensor.c ****   * Copyright (c) 2017 STMicroelectronics.
  10:Drivers/BSP/B-L475E-IOT01/stm32l475e_iot01_tsensor.c ****   * All rights reserved.
  11:Drivers/BSP/B-L475E-IOT01/stm32l475e_iot01_tsensor.c ****   *
  12:Drivers/BSP/B-L475E-IOT01/stm32l475e_iot01_tsensor.c ****   * This software is licensed under terms that can be found in the LICENSE file
  13:Drivers/BSP/B-L475E-IOT01/stm32l475e_iot01_tsensor.c ****   * in the root directory of this software component.
  14:Drivers/BSP/B-L475E-IOT01/stm32l475e_iot01_tsensor.c ****   * If no LICENSE file comes with this software, it is provided AS-IS.
  15:Drivers/BSP/B-L475E-IOT01/stm32l475e_iot01_tsensor.c ****   *
  16:Drivers/BSP/B-L475E-IOT01/stm32l475e_iot01_tsensor.c ****   ******************************************************************************
  17:Drivers/BSP/B-L475E-IOT01/stm32l475e_iot01_tsensor.c ****   */
  18:Drivers/BSP/B-L475E-IOT01/stm32l475e_iot01_tsensor.c **** 
  19:Drivers/BSP/B-L475E-IOT01/stm32l475e_iot01_tsensor.c **** /* Includes ------------------------------------------------------------------*/
  20:Drivers/BSP/B-L475E-IOT01/stm32l475e_iot01_tsensor.c **** #include "stm32l475e_iot01_tsensor.h"
  21:Drivers/BSP/B-L475E-IOT01/stm32l475e_iot01_tsensor.c **** 
ARM GAS  /tmp/ccmvJbBK.s 			page 2


  22:Drivers/BSP/B-L475E-IOT01/stm32l475e_iot01_tsensor.c **** /** @addtogroup BSP
  23:Drivers/BSP/B-L475E-IOT01/stm32l475e_iot01_tsensor.c ****   * @{
  24:Drivers/BSP/B-L475E-IOT01/stm32l475e_iot01_tsensor.c ****   */ 
  25:Drivers/BSP/B-L475E-IOT01/stm32l475e_iot01_tsensor.c **** 
  26:Drivers/BSP/B-L475E-IOT01/stm32l475e_iot01_tsensor.c **** /** @addtogroup STM32L475E_IOT01
  27:Drivers/BSP/B-L475E-IOT01/stm32l475e_iot01_tsensor.c ****   * @{
  28:Drivers/BSP/B-L475E-IOT01/stm32l475e_iot01_tsensor.c ****   */
  29:Drivers/BSP/B-L475E-IOT01/stm32l475e_iot01_tsensor.c **** 
  30:Drivers/BSP/B-L475E-IOT01/stm32l475e_iot01_tsensor.c **** /** @defgroup STM32L475E_IOT01_TEMPERATURE TEMPERATURE
  31:Drivers/BSP/B-L475E-IOT01/stm32l475e_iot01_tsensor.c ****   * @{
  32:Drivers/BSP/B-L475E-IOT01/stm32l475e_iot01_tsensor.c ****   */
  33:Drivers/BSP/B-L475E-IOT01/stm32l475e_iot01_tsensor.c **** 
  34:Drivers/BSP/B-L475E-IOT01/stm32l475e_iot01_tsensor.c **** /** @defgroup STM32L475E_IOT01_TEMPERATURE_Private_Variables TEMPERATURE Private Variables 
  35:Drivers/BSP/B-L475E-IOT01/stm32l475e_iot01_tsensor.c ****   * @{
  36:Drivers/BSP/B-L475E-IOT01/stm32l475e_iot01_tsensor.c ****   */ 
  37:Drivers/BSP/B-L475E-IOT01/stm32l475e_iot01_tsensor.c **** static TSENSOR_DrvTypeDef *tsensor_drv;  
  38:Drivers/BSP/B-L475E-IOT01/stm32l475e_iot01_tsensor.c **** /**
  39:Drivers/BSP/B-L475E-IOT01/stm32l475e_iot01_tsensor.c ****   * @}
  40:Drivers/BSP/B-L475E-IOT01/stm32l475e_iot01_tsensor.c ****   */
  41:Drivers/BSP/B-L475E-IOT01/stm32l475e_iot01_tsensor.c **** 
  42:Drivers/BSP/B-L475E-IOT01/stm32l475e_iot01_tsensor.c **** /** @defgroup STM32L475E_IOT01_TEMPERATURE_Private_Functions TEMPERATURE Private Functions
  43:Drivers/BSP/B-L475E-IOT01/stm32l475e_iot01_tsensor.c ****   * @{
  44:Drivers/BSP/B-L475E-IOT01/stm32l475e_iot01_tsensor.c ****   */
  45:Drivers/BSP/B-L475E-IOT01/stm32l475e_iot01_tsensor.c **** 
  46:Drivers/BSP/B-L475E-IOT01/stm32l475e_iot01_tsensor.c **** /**
  47:Drivers/BSP/B-L475E-IOT01/stm32l475e_iot01_tsensor.c ****   * @brief  Initializes peripherals used by the I2C Temperature Sensor driver.
  48:Drivers/BSP/B-L475E-IOT01/stm32l475e_iot01_tsensor.c ****   * @retval TSENSOR status
  49:Drivers/BSP/B-L475E-IOT01/stm32l475e_iot01_tsensor.c ****   */
  50:Drivers/BSP/B-L475E-IOT01/stm32l475e_iot01_tsensor.c **** uint32_t BSP_TSENSOR_Init(void)
  51:Drivers/BSP/B-L475E-IOT01/stm32l475e_iot01_tsensor.c **** {  
  41              		.loc 1 51 1
  42              		.cfi_startproc
  43              		@ args = 0, pretend = 0, frame = 8
  44              		@ frame_needed = 1, uses_anonymous_args = 0
  45 0000 80B5     		push	{r7, lr}
  46              		.cfi_def_cfa_offset 8
  47              		.cfi_offset 7, -8
  48              		.cfi_offset 14, -4
  49 0002 82B0     		sub	sp, sp, #8
  50              		.cfi_def_cfa_offset 16
  51 0004 00AF     		add	r7, sp, #0
  52              		.cfi_def_cfa_register 7
  52:Drivers/BSP/B-L475E-IOT01/stm32l475e_iot01_tsensor.c ****   uint8_t ret = TSENSOR_ERROR;
  53              		.loc 1 52 11
  54 0006 0123     		movs	r3, #1
  55 0008 FB71     		strb	r3, [r7, #7]
  53:Drivers/BSP/B-L475E-IOT01/stm32l475e_iot01_tsensor.c **** 
  54:Drivers/BSP/B-L475E-IOT01/stm32l475e_iot01_tsensor.c **** #ifdef USE_LPS22HB_TEMP
  55:Drivers/BSP/B-L475E-IOT01/stm32l475e_iot01_tsensor.c ****   tsensor_drv = &LPS22HB_T_Drv;
  56:Drivers/BSP/B-L475E-IOT01/stm32l475e_iot01_tsensor.c **** #else /* USE_HTS221_TEMP */
  57:Drivers/BSP/B-L475E-IOT01/stm32l475e_iot01_tsensor.c ****   tsensor_drv = &HTS221_T_Drv; 
  56              		.loc 1 57 15
  57 000a 094B     		ldr	r3, .L3
  58 000c 094A     		ldr	r2, .L3+4
  59 000e 1A60     		str	r2, [r3]
  58:Drivers/BSP/B-L475E-IOT01/stm32l475e_iot01_tsensor.c **** #endif
  59:Drivers/BSP/B-L475E-IOT01/stm32l475e_iot01_tsensor.c **** 
ARM GAS  /tmp/ccmvJbBK.s 			page 3


  60:Drivers/BSP/B-L475E-IOT01/stm32l475e_iot01_tsensor.c ****   /* Low level init */
  61:Drivers/BSP/B-L475E-IOT01/stm32l475e_iot01_tsensor.c ****   SENSOR_IO_Init();
  60              		.loc 1 61 3
  61 0010 FFF7FEFF 		bl	SENSOR_IO_Init
  62:Drivers/BSP/B-L475E-IOT01/stm32l475e_iot01_tsensor.c **** 
  63:Drivers/BSP/B-L475E-IOT01/stm32l475e_iot01_tsensor.c ****   /* TSENSOR Init */   
  64:Drivers/BSP/B-L475E-IOT01/stm32l475e_iot01_tsensor.c ****   tsensor_drv->Init(TSENSOR_I2C_ADDRESS, NULL);
  62              		.loc 1 64 14
  63 0014 064B     		ldr	r3, .L3
  64 0016 1B68     		ldr	r3, [r3]
  65 0018 1B68     		ldr	r3, [r3]
  66              		.loc 1 64 3
  67 001a 0021     		movs	r1, #0
  68 001c BE20     		movs	r0, #190
  69 001e 9847     		blx	r3
  70              	.LVL0:
  65:Drivers/BSP/B-L475E-IOT01/stm32l475e_iot01_tsensor.c **** 
  66:Drivers/BSP/B-L475E-IOT01/stm32l475e_iot01_tsensor.c ****   ret = TSENSOR_OK;
  71              		.loc 1 66 7
  72 0020 0023     		movs	r3, #0
  73 0022 FB71     		strb	r3, [r7, #7]
  67:Drivers/BSP/B-L475E-IOT01/stm32l475e_iot01_tsensor.c ****   
  68:Drivers/BSP/B-L475E-IOT01/stm32l475e_iot01_tsensor.c ****   return ret;
  74              		.loc 1 68 10
  75 0024 FB79     		ldrb	r3, [r7, #7]	@ zero_extendqisi2
  69:Drivers/BSP/B-L475E-IOT01/stm32l475e_iot01_tsensor.c **** }
  76              		.loc 1 69 1
  77 0026 1846     		mov	r0, r3
  78 0028 0837     		adds	r7, r7, #8
  79              		.cfi_def_cfa_offset 8
  80 002a BD46     		mov	sp, r7
  81              		.cfi_def_cfa_register 13
  82              		@ sp needed
  83 002c 80BD     		pop	{r7, pc}
  84              	.L4:
  85 002e 00BF     		.align	2
  86              	.L3:
  87 0030 00000000 		.word	tsensor_drv
  88 0034 00000000 		.word	HTS221_T_Drv
  89              		.cfi_endproc
  90              	.LFE445:
  92              		.section	.text.BSP_TSENSOR_ReadTemp,"ax",%progbits
  93              		.align	1
  94              		.global	BSP_TSENSOR_ReadTemp
  95              		.syntax unified
  96              		.thumb
  97              		.thumb_func
  99              	BSP_TSENSOR_ReadTemp:
 100              	.LFB446:
  70:Drivers/BSP/B-L475E-IOT01/stm32l475e_iot01_tsensor.c **** 
  71:Drivers/BSP/B-L475E-IOT01/stm32l475e_iot01_tsensor.c **** /**
  72:Drivers/BSP/B-L475E-IOT01/stm32l475e_iot01_tsensor.c ****   * @brief  Read Temperature register of TS751.
  73:Drivers/BSP/B-L475E-IOT01/stm32l475e_iot01_tsensor.c ****   * @retval STTS751 measured temperature value.
  74:Drivers/BSP/B-L475E-IOT01/stm32l475e_iot01_tsensor.c ****   */
  75:Drivers/BSP/B-L475E-IOT01/stm32l475e_iot01_tsensor.c **** float BSP_TSENSOR_ReadTemp(void)
  76:Drivers/BSP/B-L475E-IOT01/stm32l475e_iot01_tsensor.c **** { 
 101              		.loc 1 76 1
ARM GAS  /tmp/ccmvJbBK.s 			page 4


 102              		.cfi_startproc
 103              		@ args = 0, pretend = 0, frame = 0
 104              		@ frame_needed = 1, uses_anonymous_args = 0
 105 0000 80B5     		push	{r7, lr}
 106              		.cfi_def_cfa_offset 8
 107              		.cfi_offset 7, -8
 108              		.cfi_offset 14, -4
 109 0002 00AF     		add	r7, sp, #0
 110              		.cfi_def_cfa_register 7
  77:Drivers/BSP/B-L475E-IOT01/stm32l475e_iot01_tsensor.c ****   return tsensor_drv->ReadTemp(TSENSOR_I2C_ADDRESS);
 111              		.loc 1 77 21
 112 0004 044B     		ldr	r3, .L7
 113 0006 1B68     		ldr	r3, [r3]
 114 0008 DB68     		ldr	r3, [r3, #12]
 115              		.loc 1 77 10
 116 000a BE20     		movs	r0, #190
 117 000c 9847     		blx	r3
 118              	.LVL1:
 119 000e F0EE407A 		vmov.f32	s15, s0
  78:Drivers/BSP/B-L475E-IOT01/stm32l475e_iot01_tsensor.c **** }
 120              		.loc 1 78 1
 121 0012 B0EE670A 		vmov.f32	s0, s15
 122 0016 80BD     		pop	{r7, pc}
 123              	.L8:
 124              		.align	2
 125              	.L7:
 126 0018 00000000 		.word	tsensor_drv
 127              		.cfi_endproc
 128              	.LFE446:
 130              		.text
 131              	.Letext0:
 132              		.file 2 "/usr/lib/gcc/arm-none-eabi/13.2.1/include/stdint.h"
 133              		.file 3 "Drivers/BSP/B-L475E-IOT01/../Components/hts221/../Common/tsensor.h"
 134              		.file 4 "Drivers/STM32L4xx_HAL_Driver/Inc/stm32l4xx_ll_dma.h"
 135              		.file 5 "Drivers/BSP/B-L475E-IOT01/../Components/hts221/hts221.h"
 136              		.file 6 "Drivers/BSP/B-L475E-IOT01/stm32l475e_iot01_tsensor.h"
ARM GAS  /tmp/ccmvJbBK.s 			page 5

