ARM GAS  /tmp/ccB7T7H1.s 			page 1


   1              		.cpu cortex-m4
   2              		.arch armv7e-m
   3              		.fpu fpv4-sp-d16
   4              		.eabi_attribute 27, 1
   5              		.eabi_attribute 28, 1
   6              		.eabi_attribute 20, 1
   7              		.eabi_attribute 21, 1
   8              		.eabi_attribute 23, 3
   9              		.eabi_attribute 24, 1
  10              		.eabi_attribute 25, 1
  11              		.eabi_attribute 26, 1
  12              		.eabi_attribute 30, 6
  13              		.eabi_attribute 34, 1
  14              		.eabi_attribute 18, 4
  15              		.file	"stm32l4xx_hal_lptim.c"
  16              		.text
  17              	.Ltext0:
  18              		.cfi_sections	.debug_frame
  19              		.file 1 "Drivers/STM32L4xx_HAL_Driver/Src/stm32l4xx_hal_lptim.c"
  20              		.section	.rodata.CHANNEL_OFFSET_TAB,"a"
  21              		.align	2
  24              	CHANNEL_OFFSET_TAB:
  25 0000 081C3044 		.ascii	"\010\0340DXl\200"
  25      586C80
  26              		.section	.text.HAL_LPTIM_Init,"ax",%progbits
  27              		.align	1
  28              		.global	HAL_LPTIM_Init
  29              		.syntax unified
  30              		.thumb
  31              		.thumb_func
  33              	HAL_LPTIM_Init:
  34              	.LFB445:
   1:Drivers/STM32L4xx_HAL_Driver/Src/stm32l4xx_hal_lptim.c **** /**
   2:Drivers/STM32L4xx_HAL_Driver/Src/stm32l4xx_hal_lptim.c ****   ******************************************************************************
   3:Drivers/STM32L4xx_HAL_Driver/Src/stm32l4xx_hal_lptim.c ****   * @file    stm32l4xx_hal_lptim.c
   4:Drivers/STM32L4xx_HAL_Driver/Src/stm32l4xx_hal_lptim.c ****   * @author  MCD Application Team
   5:Drivers/STM32L4xx_HAL_Driver/Src/stm32l4xx_hal_lptim.c ****   * @brief   LPTIM HAL module driver.
   6:Drivers/STM32L4xx_HAL_Driver/Src/stm32l4xx_hal_lptim.c ****   *          This file provides firmware functions to manage the following
   7:Drivers/STM32L4xx_HAL_Driver/Src/stm32l4xx_hal_lptim.c ****   *          functionalities of the Low Power Timer (LPTIM) peripheral:
   8:Drivers/STM32L4xx_HAL_Driver/Src/stm32l4xx_hal_lptim.c ****   *           + Initialization and de-initialization functions.
   9:Drivers/STM32L4xx_HAL_Driver/Src/stm32l4xx_hal_lptim.c ****   *           + Start/Stop operation functions in polling mode.
  10:Drivers/STM32L4xx_HAL_Driver/Src/stm32l4xx_hal_lptim.c ****   *           + Start/Stop operation functions in interrupt mode.
  11:Drivers/STM32L4xx_HAL_Driver/Src/stm32l4xx_hal_lptim.c ****   *           + Reading operation functions.
  12:Drivers/STM32L4xx_HAL_Driver/Src/stm32l4xx_hal_lptim.c ****   *           + Peripheral State functions.
  13:Drivers/STM32L4xx_HAL_Driver/Src/stm32l4xx_hal_lptim.c ****   *
  14:Drivers/STM32L4xx_HAL_Driver/Src/stm32l4xx_hal_lptim.c ****   ******************************************************************************
  15:Drivers/STM32L4xx_HAL_Driver/Src/stm32l4xx_hal_lptim.c ****   * @attention
  16:Drivers/STM32L4xx_HAL_Driver/Src/stm32l4xx_hal_lptim.c ****   *
  17:Drivers/STM32L4xx_HAL_Driver/Src/stm32l4xx_hal_lptim.c ****   * Copyright (c) 2017 STMicroelectronics.
  18:Drivers/STM32L4xx_HAL_Driver/Src/stm32l4xx_hal_lptim.c ****   * All rights reserved.
  19:Drivers/STM32L4xx_HAL_Driver/Src/stm32l4xx_hal_lptim.c ****   *
  20:Drivers/STM32L4xx_HAL_Driver/Src/stm32l4xx_hal_lptim.c ****   * This software is licensed under terms that can be found in the LICENSE file
  21:Drivers/STM32L4xx_HAL_Driver/Src/stm32l4xx_hal_lptim.c ****   * in the root directory of this software component.
  22:Drivers/STM32L4xx_HAL_Driver/Src/stm32l4xx_hal_lptim.c ****   * If no LICENSE file comes with this software, it is provided AS-IS.
  23:Drivers/STM32L4xx_HAL_Driver/Src/stm32l4xx_hal_lptim.c ****   *
  24:Drivers/STM32L4xx_HAL_Driver/Src/stm32l4xx_hal_lptim.c ****   ******************************************************************************
  25:Drivers/STM32L4xx_HAL_Driver/Src/stm32l4xx_hal_lptim.c ****   @verbatim
ARM GAS  /tmp/ccB7T7H1.s 			page 2


  26:Drivers/STM32L4xx_HAL_Driver/Src/stm32l4xx_hal_lptim.c ****   ==============================================================================
  27:Drivers/STM32L4xx_HAL_Driver/Src/stm32l4xx_hal_lptim.c ****                      ##### How to use this driver #####
  28:Drivers/STM32L4xx_HAL_Driver/Src/stm32l4xx_hal_lptim.c ****   ==============================================================================
  29:Drivers/STM32L4xx_HAL_Driver/Src/stm32l4xx_hal_lptim.c ****     [..]
  30:Drivers/STM32L4xx_HAL_Driver/Src/stm32l4xx_hal_lptim.c ****       The LPTIM HAL driver can be used as follows:
  31:Drivers/STM32L4xx_HAL_Driver/Src/stm32l4xx_hal_lptim.c **** 
  32:Drivers/STM32L4xx_HAL_Driver/Src/stm32l4xx_hal_lptim.c ****       (#)Initialize the LPTIM low level resources by implementing the
  33:Drivers/STM32L4xx_HAL_Driver/Src/stm32l4xx_hal_lptim.c ****         HAL_LPTIM_MspInit():
  34:Drivers/STM32L4xx_HAL_Driver/Src/stm32l4xx_hal_lptim.c ****          (++) Enable the LPTIM interface clock using __HAL_RCC_LPTIMx_CLK_ENABLE().
  35:Drivers/STM32L4xx_HAL_Driver/Src/stm32l4xx_hal_lptim.c ****          (++) In case of using interrupts (e.g. HAL_LPTIM_PWM_Start_IT()):
  36:Drivers/STM32L4xx_HAL_Driver/Src/stm32l4xx_hal_lptim.c ****              (+++) Configure the LPTIM interrupt priority using HAL_NVIC_SetPriority().
  37:Drivers/STM32L4xx_HAL_Driver/Src/stm32l4xx_hal_lptim.c ****              (+++) Enable the LPTIM IRQ handler using HAL_NVIC_EnableIRQ().
  38:Drivers/STM32L4xx_HAL_Driver/Src/stm32l4xx_hal_lptim.c ****              (+++) In LPTIM IRQ handler, call HAL_LPTIM_IRQHandler().
  39:Drivers/STM32L4xx_HAL_Driver/Src/stm32l4xx_hal_lptim.c **** 
  40:Drivers/STM32L4xx_HAL_Driver/Src/stm32l4xx_hal_lptim.c ****       (#)Initialize the LPTIM HAL using HAL_LPTIM_Init(). This function
  41:Drivers/STM32L4xx_HAL_Driver/Src/stm32l4xx_hal_lptim.c ****          configures mainly:
  42:Drivers/STM32L4xx_HAL_Driver/Src/stm32l4xx_hal_lptim.c ****          (++) The instance: LPTIM1 or LPTIM2.
  43:Drivers/STM32L4xx_HAL_Driver/Src/stm32l4xx_hal_lptim.c ****          (++) Clock: the counter clock.
  44:Drivers/STM32L4xx_HAL_Driver/Src/stm32l4xx_hal_lptim.c ****              (+++) Source   : it can be either the ULPTIM input (IN1) or one of
  45:Drivers/STM32L4xx_HAL_Driver/Src/stm32l4xx_hal_lptim.c ****                               the internal clock; (APB, LSE, LSI or MSI).
  46:Drivers/STM32L4xx_HAL_Driver/Src/stm32l4xx_hal_lptim.c ****              (+++) Prescaler: select the clock divider.
  47:Drivers/STM32L4xx_HAL_Driver/Src/stm32l4xx_hal_lptim.c ****          (++)  UltraLowPowerClock : To be used only if the ULPTIM is selected
  48:Drivers/STM32L4xx_HAL_Driver/Src/stm32l4xx_hal_lptim.c ****                as counter clock source.
  49:Drivers/STM32L4xx_HAL_Driver/Src/stm32l4xx_hal_lptim.c ****              (+++) Polarity:   polarity of the active edge for the counter unit
  50:Drivers/STM32L4xx_HAL_Driver/Src/stm32l4xx_hal_lptim.c ****                                if the ULPTIM input is selected.
  51:Drivers/STM32L4xx_HAL_Driver/Src/stm32l4xx_hal_lptim.c ****              (+++) SampleTime: clock sampling time to configure the clock glitch
  52:Drivers/STM32L4xx_HAL_Driver/Src/stm32l4xx_hal_lptim.c ****                                filter.
  53:Drivers/STM32L4xx_HAL_Driver/Src/stm32l4xx_hal_lptim.c ****          (++) Trigger: How the counter start.
  54:Drivers/STM32L4xx_HAL_Driver/Src/stm32l4xx_hal_lptim.c ****              (+++) Source: trigger can be software or one of the hardware triggers.
  55:Drivers/STM32L4xx_HAL_Driver/Src/stm32l4xx_hal_lptim.c ****              (+++) ActiveEdge : only for hardware trigger.
  56:Drivers/STM32L4xx_HAL_Driver/Src/stm32l4xx_hal_lptim.c ****              (+++) SampleTime : trigger sampling time to configure the trigger
  57:Drivers/STM32L4xx_HAL_Driver/Src/stm32l4xx_hal_lptim.c ****                                 glitch filter.
  58:Drivers/STM32L4xx_HAL_Driver/Src/stm32l4xx_hal_lptim.c ****          (++) OutputPolarity : 2 opposite polarities are possible.
  59:Drivers/STM32L4xx_HAL_Driver/Src/stm32l4xx_hal_lptim.c ****          (++) UpdateMode: specifies whether the update of the autoreload and
  60:Drivers/STM32L4xx_HAL_Driver/Src/stm32l4xx_hal_lptim.c ****               the compare values is done immediately or after the end of current
  61:Drivers/STM32L4xx_HAL_Driver/Src/stm32l4xx_hal_lptim.c ****               period.
  62:Drivers/STM32L4xx_HAL_Driver/Src/stm32l4xx_hal_lptim.c ****          (++) Input1Source: Source selected for input1 (GPIO or comparator output).
  63:Drivers/STM32L4xx_HAL_Driver/Src/stm32l4xx_hal_lptim.c ****          (++) Input2Source: Source selected for input2 (GPIO or comparator output).
  64:Drivers/STM32L4xx_HAL_Driver/Src/stm32l4xx_hal_lptim.c ****               Input2 is used only for encoder feature so is used only for LPTIM1 instance.
  65:Drivers/STM32L4xx_HAL_Driver/Src/stm32l4xx_hal_lptim.c **** 
  66:Drivers/STM32L4xx_HAL_Driver/Src/stm32l4xx_hal_lptim.c ****       (#)Six modes are available:
  67:Drivers/STM32L4xx_HAL_Driver/Src/stm32l4xx_hal_lptim.c **** 
  68:Drivers/STM32L4xx_HAL_Driver/Src/stm32l4xx_hal_lptim.c ****          (++) PWM Mode: To generate a PWM signal with specified period and pulse,
  69:Drivers/STM32L4xx_HAL_Driver/Src/stm32l4xx_hal_lptim.c ****          call HAL_LPTIM_PWM_Start() or HAL_LPTIM_PWM_Start_IT() for interruption
  70:Drivers/STM32L4xx_HAL_Driver/Src/stm32l4xx_hal_lptim.c ****          mode.
  71:Drivers/STM32L4xx_HAL_Driver/Src/stm32l4xx_hal_lptim.c **** 
  72:Drivers/STM32L4xx_HAL_Driver/Src/stm32l4xx_hal_lptim.c ****          (++) One Pulse Mode: To generate pulse with specified width in response
  73:Drivers/STM32L4xx_HAL_Driver/Src/stm32l4xx_hal_lptim.c ****          to a stimulus, call HAL_LPTIM_OnePulse_Start() or
  74:Drivers/STM32L4xx_HAL_Driver/Src/stm32l4xx_hal_lptim.c ****          HAL_LPTIM_OnePulse_Start_IT() for interruption mode.
  75:Drivers/STM32L4xx_HAL_Driver/Src/stm32l4xx_hal_lptim.c **** 
  76:Drivers/STM32L4xx_HAL_Driver/Src/stm32l4xx_hal_lptim.c ****          (++) Set once Mode: In this mode, the output changes the level (from
  77:Drivers/STM32L4xx_HAL_Driver/Src/stm32l4xx_hal_lptim.c ****          low level to high level if the output polarity is configured high, else
  78:Drivers/STM32L4xx_HAL_Driver/Src/stm32l4xx_hal_lptim.c ****          the opposite) when a compare match occurs. To start this mode, call
  79:Drivers/STM32L4xx_HAL_Driver/Src/stm32l4xx_hal_lptim.c ****          HAL_LPTIM_SetOnce_Start() or HAL_LPTIM_SetOnce_Start_IT() for
  80:Drivers/STM32L4xx_HAL_Driver/Src/stm32l4xx_hal_lptim.c ****          interruption mode.
  81:Drivers/STM32L4xx_HAL_Driver/Src/stm32l4xx_hal_lptim.c **** 
  82:Drivers/STM32L4xx_HAL_Driver/Src/stm32l4xx_hal_lptim.c ****          (++) Encoder Mode: To use the encoder interface call
ARM GAS  /tmp/ccB7T7H1.s 			page 3


  83:Drivers/STM32L4xx_HAL_Driver/Src/stm32l4xx_hal_lptim.c ****          HAL_LPTIM_Encoder_Start() or HAL_LPTIM_Encoder_Start_IT() for
  84:Drivers/STM32L4xx_HAL_Driver/Src/stm32l4xx_hal_lptim.c ****          interruption mode. Only available for LPTIM1 instance.
  85:Drivers/STM32L4xx_HAL_Driver/Src/stm32l4xx_hal_lptim.c **** 
  86:Drivers/STM32L4xx_HAL_Driver/Src/stm32l4xx_hal_lptim.c ****          (++) Time out Mode: an active edge on one selected trigger input rests
  87:Drivers/STM32L4xx_HAL_Driver/Src/stm32l4xx_hal_lptim.c ****          the counter. The first trigger event will start the timer, any
  88:Drivers/STM32L4xx_HAL_Driver/Src/stm32l4xx_hal_lptim.c ****          successive trigger event will reset the counter and the timer will
  89:Drivers/STM32L4xx_HAL_Driver/Src/stm32l4xx_hal_lptim.c ****          restart. To start this mode call HAL_LPTIM_TimeOut_Start_IT() or
  90:Drivers/STM32L4xx_HAL_Driver/Src/stm32l4xx_hal_lptim.c ****          HAL_LPTIM_TimeOut_Start_IT() for interruption mode.
  91:Drivers/STM32L4xx_HAL_Driver/Src/stm32l4xx_hal_lptim.c **** 
  92:Drivers/STM32L4xx_HAL_Driver/Src/stm32l4xx_hal_lptim.c ****          (++) Counter Mode: counter can be used to count external events on
  93:Drivers/STM32L4xx_HAL_Driver/Src/stm32l4xx_hal_lptim.c ****          the LPTIM Input1 or it can be used to count internal clock cycles.
  94:Drivers/STM32L4xx_HAL_Driver/Src/stm32l4xx_hal_lptim.c ****          To start this mode, call HAL_LPTIM_Counter_Start() or
  95:Drivers/STM32L4xx_HAL_Driver/Src/stm32l4xx_hal_lptim.c ****          HAL_LPTIM_Counter_Start_IT() for interruption mode.
  96:Drivers/STM32L4xx_HAL_Driver/Src/stm32l4xx_hal_lptim.c **** 
  97:Drivers/STM32L4xx_HAL_Driver/Src/stm32l4xx_hal_lptim.c **** 
  98:Drivers/STM32L4xx_HAL_Driver/Src/stm32l4xx_hal_lptim.c ****       (#) User can stop any process by calling the corresponding API:
  99:Drivers/STM32L4xx_HAL_Driver/Src/stm32l4xx_hal_lptim.c ****           HAL_LPTIM_Xxx_Stop() or HAL_LPTIM_Xxx_Stop_IT() if the process is
 100:Drivers/STM32L4xx_HAL_Driver/Src/stm32l4xx_hal_lptim.c ****           already started in interruption mode.
 101:Drivers/STM32L4xx_HAL_Driver/Src/stm32l4xx_hal_lptim.c **** 
 102:Drivers/STM32L4xx_HAL_Driver/Src/stm32l4xx_hal_lptim.c ****       (#) De-initialize the LPTIM peripheral using HAL_LPTIM_DeInit().
 103:Drivers/STM32L4xx_HAL_Driver/Src/stm32l4xx_hal_lptim.c **** 
 104:Drivers/STM32L4xx_HAL_Driver/Src/stm32l4xx_hal_lptim.c ****     *** Callback registration ***
 105:Drivers/STM32L4xx_HAL_Driver/Src/stm32l4xx_hal_lptim.c ****   =============================================
 106:Drivers/STM32L4xx_HAL_Driver/Src/stm32l4xx_hal_lptim.c ****   [..]
 107:Drivers/STM32L4xx_HAL_Driver/Src/stm32l4xx_hal_lptim.c ****   The compilation define  USE_HAL_LPTIM_REGISTER_CALLBACKS when set to 1
 108:Drivers/STM32L4xx_HAL_Driver/Src/stm32l4xx_hal_lptim.c ****   allows the user to configure dynamically the driver callbacks.
 109:Drivers/STM32L4xx_HAL_Driver/Src/stm32l4xx_hal_lptim.c ****   [..]
 110:Drivers/STM32L4xx_HAL_Driver/Src/stm32l4xx_hal_lptim.c ****   Use Function HAL_LPTIM_RegisterCallback() to register a callback.
 111:Drivers/STM32L4xx_HAL_Driver/Src/stm32l4xx_hal_lptim.c ****   HAL_LPTIM_RegisterCallback() takes as parameters the HAL peripheral handle,
 112:Drivers/STM32L4xx_HAL_Driver/Src/stm32l4xx_hal_lptim.c ****   the Callback ID and a pointer to the user callback function.
 113:Drivers/STM32L4xx_HAL_Driver/Src/stm32l4xx_hal_lptim.c ****   [..]
 114:Drivers/STM32L4xx_HAL_Driver/Src/stm32l4xx_hal_lptim.c ****   Use function HAL_LPTIM_UnRegisterCallback() to reset a callback to the
 115:Drivers/STM32L4xx_HAL_Driver/Src/stm32l4xx_hal_lptim.c ****   default weak function.
 116:Drivers/STM32L4xx_HAL_Driver/Src/stm32l4xx_hal_lptim.c ****   HAL_LPTIM_UnRegisterCallback takes as parameters the HAL peripheral handle,
 117:Drivers/STM32L4xx_HAL_Driver/Src/stm32l4xx_hal_lptim.c ****   and the Callback ID.
 118:Drivers/STM32L4xx_HAL_Driver/Src/stm32l4xx_hal_lptim.c ****   [..]
 119:Drivers/STM32L4xx_HAL_Driver/Src/stm32l4xx_hal_lptim.c ****   These functions allow to register/unregister following callbacks:
 120:Drivers/STM32L4xx_HAL_Driver/Src/stm32l4xx_hal_lptim.c **** 
 121:Drivers/STM32L4xx_HAL_Driver/Src/stm32l4xx_hal_lptim.c ****     (+) MspInitCallback         : LPTIM Base Msp Init Callback.
 122:Drivers/STM32L4xx_HAL_Driver/Src/stm32l4xx_hal_lptim.c ****     (+) MspDeInitCallback       : LPTIM Base Msp DeInit Callback.
 123:Drivers/STM32L4xx_HAL_Driver/Src/stm32l4xx_hal_lptim.c ****     (+) CompareMatchCallback    : Compare match Callback.
 124:Drivers/STM32L4xx_HAL_Driver/Src/stm32l4xx_hal_lptim.c ****     (+) AutoReloadMatchCallback : Auto-reload match Callback.
 125:Drivers/STM32L4xx_HAL_Driver/Src/stm32l4xx_hal_lptim.c ****     (+) TriggerCallback         : External trigger event detection Callback.
 126:Drivers/STM32L4xx_HAL_Driver/Src/stm32l4xx_hal_lptim.c ****     (+) CompareWriteCallback    : Compare register write complete Callback.
 127:Drivers/STM32L4xx_HAL_Driver/Src/stm32l4xx_hal_lptim.c ****     (+) AutoReloadWriteCallback : Auto-reload register write complete Callback.
 128:Drivers/STM32L4xx_HAL_Driver/Src/stm32l4xx_hal_lptim.c ****     (+) DirectionUpCallback     : Up-counting direction change Callback.
 129:Drivers/STM32L4xx_HAL_Driver/Src/stm32l4xx_hal_lptim.c ****     (+) DirectionDownCallback   : Down-counting direction change Callback.
 130:Drivers/STM32L4xx_HAL_Driver/Src/stm32l4xx_hal_lptim.c **** 
 131:Drivers/STM32L4xx_HAL_Driver/Src/stm32l4xx_hal_lptim.c ****   [..]
 132:Drivers/STM32L4xx_HAL_Driver/Src/stm32l4xx_hal_lptim.c ****   By default, after the Init and when the state is HAL_LPTIM_STATE_RESET
 133:Drivers/STM32L4xx_HAL_Driver/Src/stm32l4xx_hal_lptim.c ****   all interrupt callbacks are set to the corresponding weak functions:
 134:Drivers/STM32L4xx_HAL_Driver/Src/stm32l4xx_hal_lptim.c ****   examples HAL_LPTIM_TriggerCallback(), HAL_LPTIM_CompareMatchCallback().
 135:Drivers/STM32L4xx_HAL_Driver/Src/stm32l4xx_hal_lptim.c **** 
 136:Drivers/STM32L4xx_HAL_Driver/Src/stm32l4xx_hal_lptim.c ****   [..]
 137:Drivers/STM32L4xx_HAL_Driver/Src/stm32l4xx_hal_lptim.c ****   Exception done for MspInit and MspDeInit functions that are reset to the legacy weak
 138:Drivers/STM32L4xx_HAL_Driver/Src/stm32l4xx_hal_lptim.c ****   functionalities in the Init/DeInit only when these callbacks are null
 139:Drivers/STM32L4xx_HAL_Driver/Src/stm32l4xx_hal_lptim.c ****   (not registered beforehand). If not, MspInit or MspDeInit are not null, the Init/DeInit
ARM GAS  /tmp/ccB7T7H1.s 			page 4


 140:Drivers/STM32L4xx_HAL_Driver/Src/stm32l4xx_hal_lptim.c ****   keep and use the user MspInit/MspDeInit callbacks (registered beforehand)
 141:Drivers/STM32L4xx_HAL_Driver/Src/stm32l4xx_hal_lptim.c **** 
 142:Drivers/STM32L4xx_HAL_Driver/Src/stm32l4xx_hal_lptim.c ****   [..]
 143:Drivers/STM32L4xx_HAL_Driver/Src/stm32l4xx_hal_lptim.c ****   Callbacks can be registered/unregistered in HAL_LPTIM_STATE_READY state only.
 144:Drivers/STM32L4xx_HAL_Driver/Src/stm32l4xx_hal_lptim.c ****   Exception done MspInit/MspDeInit that can be registered/unregistered
 145:Drivers/STM32L4xx_HAL_Driver/Src/stm32l4xx_hal_lptim.c ****   in HAL_LPTIM_STATE_READY or HAL_LPTIM_STATE_RESET state,
 146:Drivers/STM32L4xx_HAL_Driver/Src/stm32l4xx_hal_lptim.c ****   thus registered (user) MspInit/DeInit callbacks can be used during the Init/DeInit.
 147:Drivers/STM32L4xx_HAL_Driver/Src/stm32l4xx_hal_lptim.c ****   In that case first register the MspInit/MspDeInit user callbacks
 148:Drivers/STM32L4xx_HAL_Driver/Src/stm32l4xx_hal_lptim.c ****   using HAL_LPTIM_RegisterCallback() before calling DeInit or Init function.
 149:Drivers/STM32L4xx_HAL_Driver/Src/stm32l4xx_hal_lptim.c **** 
 150:Drivers/STM32L4xx_HAL_Driver/Src/stm32l4xx_hal_lptim.c ****   [..]
 151:Drivers/STM32L4xx_HAL_Driver/Src/stm32l4xx_hal_lptim.c ****   When The compilation define USE_HAL_LPTIM_REGISTER_CALLBACKS is set to 0 or
 152:Drivers/STM32L4xx_HAL_Driver/Src/stm32l4xx_hal_lptim.c ****   not defined, the callback registration feature is not available and all callbacks
 153:Drivers/STM32L4xx_HAL_Driver/Src/stm32l4xx_hal_lptim.c ****   are set to the corresponding weak functions.
 154:Drivers/STM32L4xx_HAL_Driver/Src/stm32l4xx_hal_lptim.c **** 
 155:Drivers/STM32L4xx_HAL_Driver/Src/stm32l4xx_hal_lptim.c ****   @endverbatim
 156:Drivers/STM32L4xx_HAL_Driver/Src/stm32l4xx_hal_lptim.c ****   ******************************************************************************
 157:Drivers/STM32L4xx_HAL_Driver/Src/stm32l4xx_hal_lptim.c ****   */
 158:Drivers/STM32L4xx_HAL_Driver/Src/stm32l4xx_hal_lptim.c **** 
 159:Drivers/STM32L4xx_HAL_Driver/Src/stm32l4xx_hal_lptim.c **** /* Includes ------------------------------------------------------------------*/
 160:Drivers/STM32L4xx_HAL_Driver/Src/stm32l4xx_hal_lptim.c **** #include "stm32l4xx_hal.h"
 161:Drivers/STM32L4xx_HAL_Driver/Src/stm32l4xx_hal_lptim.c **** 
 162:Drivers/STM32L4xx_HAL_Driver/Src/stm32l4xx_hal_lptim.c **** /** @addtogroup STM32L4xx_HAL_Driver
 163:Drivers/STM32L4xx_HAL_Driver/Src/stm32l4xx_hal_lptim.c ****   * @{
 164:Drivers/STM32L4xx_HAL_Driver/Src/stm32l4xx_hal_lptim.c ****   */
 165:Drivers/STM32L4xx_HAL_Driver/Src/stm32l4xx_hal_lptim.c **** 
 166:Drivers/STM32L4xx_HAL_Driver/Src/stm32l4xx_hal_lptim.c **** /** @defgroup LPTIM LPTIM
 167:Drivers/STM32L4xx_HAL_Driver/Src/stm32l4xx_hal_lptim.c ****   * @brief LPTIM HAL module driver.
 168:Drivers/STM32L4xx_HAL_Driver/Src/stm32l4xx_hal_lptim.c ****   * @{
 169:Drivers/STM32L4xx_HAL_Driver/Src/stm32l4xx_hal_lptim.c ****   */
 170:Drivers/STM32L4xx_HAL_Driver/Src/stm32l4xx_hal_lptim.c **** 
 171:Drivers/STM32L4xx_HAL_Driver/Src/stm32l4xx_hal_lptim.c **** #ifdef HAL_LPTIM_MODULE_ENABLED
 172:Drivers/STM32L4xx_HAL_Driver/Src/stm32l4xx_hal_lptim.c **** 
 173:Drivers/STM32L4xx_HAL_Driver/Src/stm32l4xx_hal_lptim.c **** #if defined (LPTIM1) || defined (LPTIM2)
 174:Drivers/STM32L4xx_HAL_Driver/Src/stm32l4xx_hal_lptim.c **** 
 175:Drivers/STM32L4xx_HAL_Driver/Src/stm32l4xx_hal_lptim.c **** /* Private typedef -----------------------------------------------------------*/
 176:Drivers/STM32L4xx_HAL_Driver/Src/stm32l4xx_hal_lptim.c **** /* Private define ------------------------------------------------------------*/
 177:Drivers/STM32L4xx_HAL_Driver/Src/stm32l4xx_hal_lptim.c **** /** @addtogroup LPTIM_Private_Constants
 178:Drivers/STM32L4xx_HAL_Driver/Src/stm32l4xx_hal_lptim.c ****   * @{
 179:Drivers/STM32L4xx_HAL_Driver/Src/stm32l4xx_hal_lptim.c ****   */
 180:Drivers/STM32L4xx_HAL_Driver/Src/stm32l4xx_hal_lptim.c **** #define TIMEOUT                                     1000UL /* Timeout is 1s */
 181:Drivers/STM32L4xx_HAL_Driver/Src/stm32l4xx_hal_lptim.c **** /**
 182:Drivers/STM32L4xx_HAL_Driver/Src/stm32l4xx_hal_lptim.c ****   * @}
 183:Drivers/STM32L4xx_HAL_Driver/Src/stm32l4xx_hal_lptim.c ****   */
 184:Drivers/STM32L4xx_HAL_Driver/Src/stm32l4xx_hal_lptim.c **** 
 185:Drivers/STM32L4xx_HAL_Driver/Src/stm32l4xx_hal_lptim.c **** /* Private macro -------------------------------------------------------------*/
 186:Drivers/STM32L4xx_HAL_Driver/Src/stm32l4xx_hal_lptim.c **** /** @addtogroup LPTIM_Private_Macros
 187:Drivers/STM32L4xx_HAL_Driver/Src/stm32l4xx_hal_lptim.c ****   * @{
 188:Drivers/STM32L4xx_HAL_Driver/Src/stm32l4xx_hal_lptim.c ****   */
 189:Drivers/STM32L4xx_HAL_Driver/Src/stm32l4xx_hal_lptim.c **** #if defined(LPTIM2)
 190:Drivers/STM32L4xx_HAL_Driver/Src/stm32l4xx_hal_lptim.c **** #define __HAL_LPTIM_WAKEUPTIMER_EXTI_ENABLE_IT(__INSTANCE__) \
 191:Drivers/STM32L4xx_HAL_Driver/Src/stm32l4xx_hal_lptim.c ****   (((__INSTANCE__) == LPTIM1) ? __HAL_LPTIM_LPTIM1_EXTI_ENABLE_IT() : __HAL_LPTIM_LPTIM2_EXTI_ENABL
 192:Drivers/STM32L4xx_HAL_Driver/Src/stm32l4xx_hal_lptim.c **** 
 193:Drivers/STM32L4xx_HAL_Driver/Src/stm32l4xx_hal_lptim.c **** #define __HAL_LPTIM_WAKEUPTIMER_EXTI_DISABLE_IT(__INSTANCE__) \
 194:Drivers/STM32L4xx_HAL_Driver/Src/stm32l4xx_hal_lptim.c ****   (((__INSTANCE__) == LPTIM1) ? __HAL_LPTIM_LPTIM1_EXTI_DISABLE_IT() : __HAL_LPTIM_LPTIM2_EXTI_DISA
 195:Drivers/STM32L4xx_HAL_Driver/Src/stm32l4xx_hal_lptim.c **** #else
 196:Drivers/STM32L4xx_HAL_Driver/Src/stm32l4xx_hal_lptim.c **** #define __HAL_LPTIM_WAKEUPTIMER_EXTI_ENABLE_IT(__INSTANCE__) __HAL_LPTIM_LPTIM1_EXTI_ENABLE_IT()
ARM GAS  /tmp/ccB7T7H1.s 			page 5


 197:Drivers/STM32L4xx_HAL_Driver/Src/stm32l4xx_hal_lptim.c **** 
 198:Drivers/STM32L4xx_HAL_Driver/Src/stm32l4xx_hal_lptim.c **** #define __HAL_LPTIM_WAKEUPTIMER_EXTI_DISABLE_IT(__INSTANCE__) __HAL_LPTIM_LPTIM1_EXTI_DISABLE_IT()
 199:Drivers/STM32L4xx_HAL_Driver/Src/stm32l4xx_hal_lptim.c **** #endif /* LPTIM2 */
 200:Drivers/STM32L4xx_HAL_Driver/Src/stm32l4xx_hal_lptim.c **** /**
 201:Drivers/STM32L4xx_HAL_Driver/Src/stm32l4xx_hal_lptim.c ****   * @}
 202:Drivers/STM32L4xx_HAL_Driver/Src/stm32l4xx_hal_lptim.c ****   */
 203:Drivers/STM32L4xx_HAL_Driver/Src/stm32l4xx_hal_lptim.c **** 
 204:Drivers/STM32L4xx_HAL_Driver/Src/stm32l4xx_hal_lptim.c **** /* Private variables ---------------------------------------------------------*/
 205:Drivers/STM32L4xx_HAL_Driver/Src/stm32l4xx_hal_lptim.c **** /* Private function prototypes -----------------------------------------------*/
 206:Drivers/STM32L4xx_HAL_Driver/Src/stm32l4xx_hal_lptim.c **** #if (USE_HAL_LPTIM_REGISTER_CALLBACKS == 1)
 207:Drivers/STM32L4xx_HAL_Driver/Src/stm32l4xx_hal_lptim.c **** static void LPTIM_ResetCallback(LPTIM_HandleTypeDef *lptim);
 208:Drivers/STM32L4xx_HAL_Driver/Src/stm32l4xx_hal_lptim.c **** #endif /* USE_HAL_LPTIM_REGISTER_CALLBACKS */
 209:Drivers/STM32L4xx_HAL_Driver/Src/stm32l4xx_hal_lptim.c **** static HAL_StatusTypeDef LPTIM_WaitForFlag(const LPTIM_HandleTypeDef *hlptim, uint32_t flag);
 210:Drivers/STM32L4xx_HAL_Driver/Src/stm32l4xx_hal_lptim.c **** 
 211:Drivers/STM32L4xx_HAL_Driver/Src/stm32l4xx_hal_lptim.c **** /* Exported functions --------------------------------------------------------*/
 212:Drivers/STM32L4xx_HAL_Driver/Src/stm32l4xx_hal_lptim.c **** 
 213:Drivers/STM32L4xx_HAL_Driver/Src/stm32l4xx_hal_lptim.c **** /** @defgroup LPTIM_Exported_Functions LPTIM Exported Functions
 214:Drivers/STM32L4xx_HAL_Driver/Src/stm32l4xx_hal_lptim.c ****   * @{
 215:Drivers/STM32L4xx_HAL_Driver/Src/stm32l4xx_hal_lptim.c ****   */
 216:Drivers/STM32L4xx_HAL_Driver/Src/stm32l4xx_hal_lptim.c **** 
 217:Drivers/STM32L4xx_HAL_Driver/Src/stm32l4xx_hal_lptim.c **** /** @defgroup LPTIM_Exported_Functions_Group1 Initialization/de-initialization functions
 218:Drivers/STM32L4xx_HAL_Driver/Src/stm32l4xx_hal_lptim.c ****   *  @brief    Initialization and Configuration functions.
 219:Drivers/STM32L4xx_HAL_Driver/Src/stm32l4xx_hal_lptim.c ****   *
 220:Drivers/STM32L4xx_HAL_Driver/Src/stm32l4xx_hal_lptim.c **** @verbatim
 221:Drivers/STM32L4xx_HAL_Driver/Src/stm32l4xx_hal_lptim.c ****   ==============================================================================
 222:Drivers/STM32L4xx_HAL_Driver/Src/stm32l4xx_hal_lptim.c ****               ##### Initialization and de-initialization functions #####
 223:Drivers/STM32L4xx_HAL_Driver/Src/stm32l4xx_hal_lptim.c ****   ==============================================================================
 224:Drivers/STM32L4xx_HAL_Driver/Src/stm32l4xx_hal_lptim.c ****     [..]  This section provides functions allowing to:
 225:Drivers/STM32L4xx_HAL_Driver/Src/stm32l4xx_hal_lptim.c ****       (+) Initialize the LPTIM according to the specified parameters in the
 226:Drivers/STM32L4xx_HAL_Driver/Src/stm32l4xx_hal_lptim.c ****           LPTIM_InitTypeDef and initialize the associated handle.
 227:Drivers/STM32L4xx_HAL_Driver/Src/stm32l4xx_hal_lptim.c ****       (+) DeInitialize the LPTIM peripheral.
 228:Drivers/STM32L4xx_HAL_Driver/Src/stm32l4xx_hal_lptim.c ****       (+) Initialize the LPTIM MSP.
 229:Drivers/STM32L4xx_HAL_Driver/Src/stm32l4xx_hal_lptim.c ****       (+) DeInitialize the LPTIM MSP.
 230:Drivers/STM32L4xx_HAL_Driver/Src/stm32l4xx_hal_lptim.c **** 
 231:Drivers/STM32L4xx_HAL_Driver/Src/stm32l4xx_hal_lptim.c **** @endverbatim
 232:Drivers/STM32L4xx_HAL_Driver/Src/stm32l4xx_hal_lptim.c ****   * @{
 233:Drivers/STM32L4xx_HAL_Driver/Src/stm32l4xx_hal_lptim.c ****   */
 234:Drivers/STM32L4xx_HAL_Driver/Src/stm32l4xx_hal_lptim.c **** 
 235:Drivers/STM32L4xx_HAL_Driver/Src/stm32l4xx_hal_lptim.c **** /**
 236:Drivers/STM32L4xx_HAL_Driver/Src/stm32l4xx_hal_lptim.c ****   * @brief  Initialize the LPTIM according to the specified parameters in the
 237:Drivers/STM32L4xx_HAL_Driver/Src/stm32l4xx_hal_lptim.c ****   *         LPTIM_InitTypeDef and initialize the associated handle.
 238:Drivers/STM32L4xx_HAL_Driver/Src/stm32l4xx_hal_lptim.c ****   * @param  hlptim LPTIM handle
 239:Drivers/STM32L4xx_HAL_Driver/Src/stm32l4xx_hal_lptim.c ****   * @retval HAL status
 240:Drivers/STM32L4xx_HAL_Driver/Src/stm32l4xx_hal_lptim.c ****   */
 241:Drivers/STM32L4xx_HAL_Driver/Src/stm32l4xx_hal_lptim.c **** HAL_StatusTypeDef HAL_LPTIM_Init(LPTIM_HandleTypeDef *hlptim)
 242:Drivers/STM32L4xx_HAL_Driver/Src/stm32l4xx_hal_lptim.c **** {
  35              		.loc 1 242 1
  36              		.cfi_startproc
  37              		@ args = 0, pretend = 0, frame = 16
  38              		@ frame_needed = 1, uses_anonymous_args = 0
  39 0000 80B5     		push	{r7, lr}
  40              		.cfi_def_cfa_offset 8
  41              		.cfi_offset 7, -8
  42              		.cfi_offset 14, -4
  43 0002 84B0     		sub	sp, sp, #16
  44              		.cfi_def_cfa_offset 24
  45 0004 00AF     		add	r7, sp, #0
ARM GAS  /tmp/ccB7T7H1.s 			page 6


  46              		.cfi_def_cfa_register 7
  47 0006 7860     		str	r0, [r7, #4]
 243:Drivers/STM32L4xx_HAL_Driver/Src/stm32l4xx_hal_lptim.c ****   uint32_t tmpcfgr;
 244:Drivers/STM32L4xx_HAL_Driver/Src/stm32l4xx_hal_lptim.c **** 
 245:Drivers/STM32L4xx_HAL_Driver/Src/stm32l4xx_hal_lptim.c ****   /* Check the LPTIM handle allocation */
 246:Drivers/STM32L4xx_HAL_Driver/Src/stm32l4xx_hal_lptim.c ****   if (hlptim == NULL)
  48              		.loc 1 246 6
  49 0008 7B68     		ldr	r3, [r7, #4]
  50 000a 002B     		cmp	r3, #0
  51 000c 01D1     		bne	.L2
 247:Drivers/STM32L4xx_HAL_Driver/Src/stm32l4xx_hal_lptim.c ****   {
 248:Drivers/STM32L4xx_HAL_Driver/Src/stm32l4xx_hal_lptim.c ****     return HAL_ERROR;
  52              		.loc 1 248 12
  53 000e 0123     		movs	r3, #1
  54 0010 8FE0     		b	.L3
  55              	.L2:
 249:Drivers/STM32L4xx_HAL_Driver/Src/stm32l4xx_hal_lptim.c ****   }
 250:Drivers/STM32L4xx_HAL_Driver/Src/stm32l4xx_hal_lptim.c **** 
 251:Drivers/STM32L4xx_HAL_Driver/Src/stm32l4xx_hal_lptim.c ****   /* Check the parameters */
 252:Drivers/STM32L4xx_HAL_Driver/Src/stm32l4xx_hal_lptim.c ****   assert_param(IS_LPTIM_INSTANCE(hlptim->Instance));
 253:Drivers/STM32L4xx_HAL_Driver/Src/stm32l4xx_hal_lptim.c **** 
 254:Drivers/STM32L4xx_HAL_Driver/Src/stm32l4xx_hal_lptim.c ****   assert_param(IS_LPTIM_CLOCK_SOURCE(hlptim->Init.Clock.Source));
 255:Drivers/STM32L4xx_HAL_Driver/Src/stm32l4xx_hal_lptim.c ****   assert_param(IS_LPTIM_CLOCK_PRESCALER(hlptim->Init.Clock.Prescaler));
 256:Drivers/STM32L4xx_HAL_Driver/Src/stm32l4xx_hal_lptim.c ****   if ((hlptim->Init.Clock.Source == LPTIM_CLOCKSOURCE_ULPTIM)
  56              		.loc 1 256 26
  57 0012 7B68     		ldr	r3, [r7, #4]
  58 0014 5B68     		ldr	r3, [r3, #4]
  59              		.loc 1 256 6
  60 0016 012B     		cmp	r3, #1
 257:Drivers/STM32L4xx_HAL_Driver/Src/stm32l4xx_hal_lptim.c ****       || (hlptim->Init.CounterSource == LPTIM_COUNTERSOURCE_EXTERNAL))
 258:Drivers/STM32L4xx_HAL_Driver/Src/stm32l4xx_hal_lptim.c ****   {
 259:Drivers/STM32L4xx_HAL_Driver/Src/stm32l4xx_hal_lptim.c ****     assert_param(IS_LPTIM_CLOCK_POLARITY(hlptim->Init.UltraLowPowerClock.Polarity));
 260:Drivers/STM32L4xx_HAL_Driver/Src/stm32l4xx_hal_lptim.c ****     assert_param(IS_LPTIM_CLOCK_SAMPLE_TIME(hlptim->Init.UltraLowPowerClock.SampleTime));
 261:Drivers/STM32L4xx_HAL_Driver/Src/stm32l4xx_hal_lptim.c ****   }
 262:Drivers/STM32L4xx_HAL_Driver/Src/stm32l4xx_hal_lptim.c ****   assert_param(IS_LPTIM_TRG_SOURCE(hlptim->Init.Trigger.Source));
 263:Drivers/STM32L4xx_HAL_Driver/Src/stm32l4xx_hal_lptim.c ****   if (hlptim->Init.Trigger.Source != LPTIM_TRIGSOURCE_SOFTWARE)
 264:Drivers/STM32L4xx_HAL_Driver/Src/stm32l4xx_hal_lptim.c ****   {
 265:Drivers/STM32L4xx_HAL_Driver/Src/stm32l4xx_hal_lptim.c ****     assert_param(IS_LPTIM_EXT_TRG_POLARITY(hlptim->Init.Trigger.ActiveEdge));
 266:Drivers/STM32L4xx_HAL_Driver/Src/stm32l4xx_hal_lptim.c ****     assert_param(IS_LPTIM_TRIG_SAMPLE_TIME(hlptim->Init.Trigger.SampleTime));
 267:Drivers/STM32L4xx_HAL_Driver/Src/stm32l4xx_hal_lptim.c ****   }
 268:Drivers/STM32L4xx_HAL_Driver/Src/stm32l4xx_hal_lptim.c ****   assert_param(IS_LPTIM_OUTPUT_POLARITY(hlptim->Init.OutputPolarity));
 269:Drivers/STM32L4xx_HAL_Driver/Src/stm32l4xx_hal_lptim.c ****   assert_param(IS_LPTIM_UPDATE_MODE(hlptim->Init.UpdateMode));
 270:Drivers/STM32L4xx_HAL_Driver/Src/stm32l4xx_hal_lptim.c ****   assert_param(IS_LPTIM_COUNTER_SOURCE(hlptim->Init.CounterSource));
 271:Drivers/STM32L4xx_HAL_Driver/Src/stm32l4xx_hal_lptim.c **** #if defined(LPTIM_RCR_REP)
 272:Drivers/STM32L4xx_HAL_Driver/Src/stm32l4xx_hal_lptim.c ****   assert_param(IS_LPTIM_REPETITION(hlptim->Init.RepetitionCounter));
 273:Drivers/STM32L4xx_HAL_Driver/Src/stm32l4xx_hal_lptim.c **** #endif
 274:Drivers/STM32L4xx_HAL_Driver/Src/stm32l4xx_hal_lptim.c **** 
 275:Drivers/STM32L4xx_HAL_Driver/Src/stm32l4xx_hal_lptim.c ****   if (hlptim->State == HAL_LPTIM_STATE_RESET)
  61              		.loc 1 275 13
  62 0018 7B68     		ldr	r3, [r7, #4]
  63 001a 93F83630 		ldrb	r3, [r3, #54]
  64 001e DBB2     		uxtb	r3, r3
  65              		.loc 1 275 6
  66 0020 002B     		cmp	r3, #0
  67 0022 06D1     		bne	.L5
 276:Drivers/STM32L4xx_HAL_Driver/Src/stm32l4xx_hal_lptim.c ****   {
 277:Drivers/STM32L4xx_HAL_Driver/Src/stm32l4xx_hal_lptim.c ****     /* Allocate lock resource and initialize it */
ARM GAS  /tmp/ccB7T7H1.s 			page 7


 278:Drivers/STM32L4xx_HAL_Driver/Src/stm32l4xx_hal_lptim.c ****     hlptim->Lock = HAL_UNLOCKED;
  68              		.loc 1 278 18
  69 0024 7B68     		ldr	r3, [r7, #4]
  70 0026 0022     		movs	r2, #0
  71 0028 83F83520 		strb	r2, [r3, #53]
 279:Drivers/STM32L4xx_HAL_Driver/Src/stm32l4xx_hal_lptim.c **** 
 280:Drivers/STM32L4xx_HAL_Driver/Src/stm32l4xx_hal_lptim.c **** #if (USE_HAL_LPTIM_REGISTER_CALLBACKS == 1)
 281:Drivers/STM32L4xx_HAL_Driver/Src/stm32l4xx_hal_lptim.c ****     /* Reset interrupt callbacks to legacy weak callbacks */
 282:Drivers/STM32L4xx_HAL_Driver/Src/stm32l4xx_hal_lptim.c ****     LPTIM_ResetCallback(hlptim);
 283:Drivers/STM32L4xx_HAL_Driver/Src/stm32l4xx_hal_lptim.c **** 
 284:Drivers/STM32L4xx_HAL_Driver/Src/stm32l4xx_hal_lptim.c ****     if (hlptim->MspInitCallback == NULL)
 285:Drivers/STM32L4xx_HAL_Driver/Src/stm32l4xx_hal_lptim.c ****     {
 286:Drivers/STM32L4xx_HAL_Driver/Src/stm32l4xx_hal_lptim.c ****       hlptim->MspInitCallback = HAL_LPTIM_MspInit;
 287:Drivers/STM32L4xx_HAL_Driver/Src/stm32l4xx_hal_lptim.c ****     }
 288:Drivers/STM32L4xx_HAL_Driver/Src/stm32l4xx_hal_lptim.c **** 
 289:Drivers/STM32L4xx_HAL_Driver/Src/stm32l4xx_hal_lptim.c ****     /* Init the low level hardware : GPIO, CLOCK, NVIC */
 290:Drivers/STM32L4xx_HAL_Driver/Src/stm32l4xx_hal_lptim.c ****     hlptim->MspInitCallback(hlptim);
 291:Drivers/STM32L4xx_HAL_Driver/Src/stm32l4xx_hal_lptim.c **** #else
 292:Drivers/STM32L4xx_HAL_Driver/Src/stm32l4xx_hal_lptim.c ****     /* Init the low level hardware : GPIO, CLOCK, NVIC */
 293:Drivers/STM32L4xx_HAL_Driver/Src/stm32l4xx_hal_lptim.c ****     HAL_LPTIM_MspInit(hlptim);
  72              		.loc 1 293 5
  73 002c 7868     		ldr	r0, [r7, #4]
  74 002e FFF7FEFF 		bl	HAL_LPTIM_MspInit
  75              	.L5:
 294:Drivers/STM32L4xx_HAL_Driver/Src/stm32l4xx_hal_lptim.c **** #endif /* USE_HAL_LPTIM_REGISTER_CALLBACKS */
 295:Drivers/STM32L4xx_HAL_Driver/Src/stm32l4xx_hal_lptim.c ****   }
 296:Drivers/STM32L4xx_HAL_Driver/Src/stm32l4xx_hal_lptim.c **** 
 297:Drivers/STM32L4xx_HAL_Driver/Src/stm32l4xx_hal_lptim.c ****   /* Change the LPTIM state */
 298:Drivers/STM32L4xx_HAL_Driver/Src/stm32l4xx_hal_lptim.c ****   hlptim->State = HAL_LPTIM_STATE_BUSY;
  76              		.loc 1 298 17
  77 0032 7B68     		ldr	r3, [r7, #4]
  78 0034 0222     		movs	r2, #2
  79 0036 83F83620 		strb	r2, [r3, #54]
 299:Drivers/STM32L4xx_HAL_Driver/Src/stm32l4xx_hal_lptim.c **** #if defined(LPTIM_RCR_REP)
 300:Drivers/STM32L4xx_HAL_Driver/Src/stm32l4xx_hal_lptim.c **** 
 301:Drivers/STM32L4xx_HAL_Driver/Src/stm32l4xx_hal_lptim.c ****   /* Enable the Peripheral */
 302:Drivers/STM32L4xx_HAL_Driver/Src/stm32l4xx_hal_lptim.c ****   __HAL_LPTIM_ENABLE(hlptim);
 303:Drivers/STM32L4xx_HAL_Driver/Src/stm32l4xx_hal_lptim.c **** 
 304:Drivers/STM32L4xx_HAL_Driver/Src/stm32l4xx_hal_lptim.c ****   /* Clear flag */
 305:Drivers/STM32L4xx_HAL_Driver/Src/stm32l4xx_hal_lptim.c ****   __HAL_LPTIM_CLEAR_FLAG(hlptim, LPTIM_FLAG_REPOK);
 306:Drivers/STM32L4xx_HAL_Driver/Src/stm32l4xx_hal_lptim.c **** 
 307:Drivers/STM32L4xx_HAL_Driver/Src/stm32l4xx_hal_lptim.c ****   /* Set the repetition counter */
 308:Drivers/STM32L4xx_HAL_Driver/Src/stm32l4xx_hal_lptim.c ****   __HAL_LPTIM_REPETITIONCOUNTER_SET(hlptim, hlptim->Init.RepetitionCounter);
 309:Drivers/STM32L4xx_HAL_Driver/Src/stm32l4xx_hal_lptim.c **** 
 310:Drivers/STM32L4xx_HAL_Driver/Src/stm32l4xx_hal_lptim.c ****   /* Wait for the completion of the write operation to the LPTIM_RCR register */
 311:Drivers/STM32L4xx_HAL_Driver/Src/stm32l4xx_hal_lptim.c ****   if (LPTIM_WaitForFlag(hlptim, LPTIM_FLAG_REPOK) == HAL_TIMEOUT)
 312:Drivers/STM32L4xx_HAL_Driver/Src/stm32l4xx_hal_lptim.c ****   {
 313:Drivers/STM32L4xx_HAL_Driver/Src/stm32l4xx_hal_lptim.c ****     return HAL_TIMEOUT;
 314:Drivers/STM32L4xx_HAL_Driver/Src/stm32l4xx_hal_lptim.c ****   }
 315:Drivers/STM32L4xx_HAL_Driver/Src/stm32l4xx_hal_lptim.c **** 
 316:Drivers/STM32L4xx_HAL_Driver/Src/stm32l4xx_hal_lptim.c ****   /* Disable the Peripheral */
 317:Drivers/STM32L4xx_HAL_Driver/Src/stm32l4xx_hal_lptim.c ****   __HAL_LPTIM_DISABLE(hlptim);
 318:Drivers/STM32L4xx_HAL_Driver/Src/stm32l4xx_hal_lptim.c **** 
 319:Drivers/STM32L4xx_HAL_Driver/Src/stm32l4xx_hal_lptim.c ****   if (HAL_LPTIM_GetState(hlptim) == HAL_LPTIM_STATE_TIMEOUT)
 320:Drivers/STM32L4xx_HAL_Driver/Src/stm32l4xx_hal_lptim.c ****   {
 321:Drivers/STM32L4xx_HAL_Driver/Src/stm32l4xx_hal_lptim.c ****     return HAL_TIMEOUT;
 322:Drivers/STM32L4xx_HAL_Driver/Src/stm32l4xx_hal_lptim.c ****   }
ARM GAS  /tmp/ccB7T7H1.s 			page 8


 323:Drivers/STM32L4xx_HAL_Driver/Src/stm32l4xx_hal_lptim.c **** 
 324:Drivers/STM32L4xx_HAL_Driver/Src/stm32l4xx_hal_lptim.c **** #endif
 325:Drivers/STM32L4xx_HAL_Driver/Src/stm32l4xx_hal_lptim.c **** 
 326:Drivers/STM32L4xx_HAL_Driver/Src/stm32l4xx_hal_lptim.c ****   /* Get the LPTIMx CFGR value */
 327:Drivers/STM32L4xx_HAL_Driver/Src/stm32l4xx_hal_lptim.c ****   tmpcfgr = hlptim->Instance->CFGR;
  80              		.loc 1 327 19
  81 003a 7B68     		ldr	r3, [r7, #4]
  82 003c 1B68     		ldr	r3, [r3]
  83              		.loc 1 327 11
  84 003e DB68     		ldr	r3, [r3, #12]
  85 0040 FB60     		str	r3, [r7, #12]
 328:Drivers/STM32L4xx_HAL_Driver/Src/stm32l4xx_hal_lptim.c **** 
 329:Drivers/STM32L4xx_HAL_Driver/Src/stm32l4xx_hal_lptim.c ****   if ((hlptim->Init.Clock.Source == LPTIM_CLOCKSOURCE_ULPTIM)
  86              		.loc 1 329 26
  87 0042 7B68     		ldr	r3, [r7, #4]
  88 0044 5B68     		ldr	r3, [r3, #4]
  89              		.loc 1 329 6
  90 0046 012B     		cmp	r3, #1
  91 0048 04D0     		beq	.L6
 330:Drivers/STM32L4xx_HAL_Driver/Src/stm32l4xx_hal_lptim.c ****       || (hlptim->Init.CounterSource == LPTIM_COUNTERSOURCE_EXTERNAL))
  92              		.loc 1 330 23
  93 004a 7B68     		ldr	r3, [r7, #4]
  94 004c 9B6A     		ldr	r3, [r3, #40]
  95              		.loc 1 330 7
  96 004e B3F5000F 		cmp	r3, #8388608
  97 0052 03D1     		bne	.L7
  98              	.L6:
 331:Drivers/STM32L4xx_HAL_Driver/Src/stm32l4xx_hal_lptim.c ****   {
 332:Drivers/STM32L4xx_HAL_Driver/Src/stm32l4xx_hal_lptim.c ****     tmpcfgr &= (uint32_t)(~(LPTIM_CFGR_CKPOL | LPTIM_CFGR_CKFLT));
  99              		.loc 1 332 13
 100 0054 FB68     		ldr	r3, [r7, #12]
 101 0056 23F01E03 		bic	r3, r3, #30
 102 005a FB60     		str	r3, [r7, #12]
 103              	.L7:
 333:Drivers/STM32L4xx_HAL_Driver/Src/stm32l4xx_hal_lptim.c ****   }
 334:Drivers/STM32L4xx_HAL_Driver/Src/stm32l4xx_hal_lptim.c ****   if (hlptim->Init.Trigger.Source != LPTIM_TRIGSOURCE_SOFTWARE)
 104              		.loc 1 334 27
 105 005c 7B68     		ldr	r3, [r7, #4]
 106 005e 5B69     		ldr	r3, [r3, #20]
 107              		.loc 1 334 6
 108 0060 4FF6FF72 		movw	r2, #65535
 109 0064 9342     		cmp	r3, r2
 110 0066 05D0     		beq	.L8
 335:Drivers/STM32L4xx_HAL_Driver/Src/stm32l4xx_hal_lptim.c ****   {
 336:Drivers/STM32L4xx_HAL_Driver/Src/stm32l4xx_hal_lptim.c ****     tmpcfgr &= (uint32_t)(~(LPTIM_CFGR_TRGFLT | LPTIM_CFGR_TRIGSEL));
 111              		.loc 1 336 13
 112 0068 FB68     		ldr	r3, [r7, #12]
 113 006a 23F46043 		bic	r3, r3, #57344
 114 006e 23F0C003 		bic	r3, r3, #192
 115 0072 FB60     		str	r3, [r7, #12]
 116              	.L8:
 337:Drivers/STM32L4xx_HAL_Driver/Src/stm32l4xx_hal_lptim.c ****   }
 338:Drivers/STM32L4xx_HAL_Driver/Src/stm32l4xx_hal_lptim.c **** 
 339:Drivers/STM32L4xx_HAL_Driver/Src/stm32l4xx_hal_lptim.c ****   /* Clear CKSEL, PRESC, TRIGEN, TRGFLT, WAVPOL, PRELOAD & COUNTMODE bits */
 340:Drivers/STM32L4xx_HAL_Driver/Src/stm32l4xx_hal_lptim.c ****   tmpcfgr &= (uint32_t)(~(LPTIM_CFGR_CKSEL | LPTIM_CFGR_TRIGEN | LPTIM_CFGR_PRELOAD |
 117              		.loc 1 340 11
 118 0074 FA68     		ldr	r2, [r7, #12]
ARM GAS  /tmp/ccB7T7H1.s 			page 9


 119 0076 314B     		ldr	r3, .L15
 120 0078 1340     		ands	r3, r3, r2
 121 007a FB60     		str	r3, [r7, #12]
 341:Drivers/STM32L4xx_HAL_Driver/Src/stm32l4xx_hal_lptim.c ****                           LPTIM_CFGR_WAVPOL | LPTIM_CFGR_PRESC | LPTIM_CFGR_COUNTMODE));
 342:Drivers/STM32L4xx_HAL_Driver/Src/stm32l4xx_hal_lptim.c **** 
 343:Drivers/STM32L4xx_HAL_Driver/Src/stm32l4xx_hal_lptim.c ****   /* Set initialization parameters */
 344:Drivers/STM32L4xx_HAL_Driver/Src/stm32l4xx_hal_lptim.c ****   tmpcfgr |= (hlptim->Init.Clock.Source    |
 122              		.loc 1 344 33
 123 007c 7B68     		ldr	r3, [r7, #4]
 124 007e 5A68     		ldr	r2, [r3, #4]
 345:Drivers/STM32L4xx_HAL_Driver/Src/stm32l4xx_hal_lptim.c ****               hlptim->Init.Clock.Prescaler |
 125              		.loc 1 345 33
 126 0080 7B68     		ldr	r3, [r7, #4]
 127 0082 9B68     		ldr	r3, [r3, #8]
 344:Drivers/STM32L4xx_HAL_Driver/Src/stm32l4xx_hal_lptim.c ****               hlptim->Init.Clock.Prescaler |
 128              		.loc 1 344 44
 129 0084 1A43     		orrs	r2, r2, r3
 346:Drivers/STM32L4xx_HAL_Driver/Src/stm32l4xx_hal_lptim.c ****               hlptim->Init.OutputPolarity  |
 130              		.loc 1 346 27
 131 0086 7B68     		ldr	r3, [r7, #4]
 132 0088 1B6A     		ldr	r3, [r3, #32]
 345:Drivers/STM32L4xx_HAL_Driver/Src/stm32l4xx_hal_lptim.c ****               hlptim->Init.Clock.Prescaler |
 133              		.loc 1 345 44
 134 008a 1A43     		orrs	r2, r2, r3
 347:Drivers/STM32L4xx_HAL_Driver/Src/stm32l4xx_hal_lptim.c ****               hlptim->Init.UpdateMode      |
 135              		.loc 1 347 27
 136 008c 7B68     		ldr	r3, [r7, #4]
 137 008e 5B6A     		ldr	r3, [r3, #36]
 346:Drivers/STM32L4xx_HAL_Driver/Src/stm32l4xx_hal_lptim.c ****               hlptim->Init.OutputPolarity  |
 138              		.loc 1 346 44
 139 0090 1A43     		orrs	r2, r2, r3
 348:Drivers/STM32L4xx_HAL_Driver/Src/stm32l4xx_hal_lptim.c ****               hlptim->Init.CounterSource);
 140              		.loc 1 348 27
 141 0092 7B68     		ldr	r3, [r7, #4]
 142 0094 9B6A     		ldr	r3, [r3, #40]
 347:Drivers/STM32L4xx_HAL_Driver/Src/stm32l4xx_hal_lptim.c ****               hlptim->Init.UpdateMode      |
 143              		.loc 1 347 44
 144 0096 1343     		orrs	r3, r3, r2
 344:Drivers/STM32L4xx_HAL_Driver/Src/stm32l4xx_hal_lptim.c ****               hlptim->Init.Clock.Prescaler |
 145              		.loc 1 344 11
 146 0098 FA68     		ldr	r2, [r7, #12]
 147 009a 1343     		orrs	r3, r3, r2
 148 009c FB60     		str	r3, [r7, #12]
 349:Drivers/STM32L4xx_HAL_Driver/Src/stm32l4xx_hal_lptim.c **** 
 350:Drivers/STM32L4xx_HAL_Driver/Src/stm32l4xx_hal_lptim.c ****   /* Glitch filters for internal triggers and  external inputs are configured
 351:Drivers/STM32L4xx_HAL_Driver/Src/stm32l4xx_hal_lptim.c ****    * only if an internal clock source is provided to the LPTIM
 352:Drivers/STM32L4xx_HAL_Driver/Src/stm32l4xx_hal_lptim.c ****    */
 353:Drivers/STM32L4xx_HAL_Driver/Src/stm32l4xx_hal_lptim.c ****   if (hlptim->Init.Clock.Source == LPTIM_CLOCKSOURCE_APBCLOCK_LPOSC)
 149              		.loc 1 353 25
 150 009e 7B68     		ldr	r3, [r7, #4]
 151 00a0 5B68     		ldr	r3, [r3, #4]
 152              		.loc 1 353 6
 153 00a2 002B     		cmp	r3, #0
 154 00a4 07D1     		bne	.L9
 354:Drivers/STM32L4xx_HAL_Driver/Src/stm32l4xx_hal_lptim.c ****   {
 355:Drivers/STM32L4xx_HAL_Driver/Src/stm32l4xx_hal_lptim.c ****     tmpcfgr |= (hlptim->Init.Trigger.SampleTime |
 155              		.loc 1 355 37
ARM GAS  /tmp/ccB7T7H1.s 			page 10


 156 00a6 7B68     		ldr	r3, [r7, #4]
 157 00a8 DA69     		ldr	r2, [r3, #28]
 356:Drivers/STM32L4xx_HAL_Driver/Src/stm32l4xx_hal_lptim.c ****                 hlptim->Init.UltraLowPowerClock.SampleTime);
 158              		.loc 1 356 48
 159 00aa 7B68     		ldr	r3, [r7, #4]
 160 00ac 1B69     		ldr	r3, [r3, #16]
 355:Drivers/STM32L4xx_HAL_Driver/Src/stm32l4xx_hal_lptim.c ****                 hlptim->Init.UltraLowPowerClock.SampleTime);
 161              		.loc 1 355 49
 162 00ae 1343     		orrs	r3, r3, r2
 355:Drivers/STM32L4xx_HAL_Driver/Src/stm32l4xx_hal_lptim.c ****                 hlptim->Init.UltraLowPowerClock.SampleTime);
 163              		.loc 1 355 13
 164 00b0 FA68     		ldr	r2, [r7, #12]
 165 00b2 1343     		orrs	r3, r3, r2
 166 00b4 FB60     		str	r3, [r7, #12]
 167              	.L9:
 357:Drivers/STM32L4xx_HAL_Driver/Src/stm32l4xx_hal_lptim.c ****   }
 358:Drivers/STM32L4xx_HAL_Driver/Src/stm32l4xx_hal_lptim.c **** 
 359:Drivers/STM32L4xx_HAL_Driver/Src/stm32l4xx_hal_lptim.c ****   /* Configure LPTIM external clock polarity and digital filter */
 360:Drivers/STM32L4xx_HAL_Driver/Src/stm32l4xx_hal_lptim.c ****   if ((hlptim->Init.Clock.Source == LPTIM_CLOCKSOURCE_ULPTIM)
 168              		.loc 1 360 26
 169 00b6 7B68     		ldr	r3, [r7, #4]
 170 00b8 5B68     		ldr	r3, [r3, #4]
 171              		.loc 1 360 6
 172 00ba 012B     		cmp	r3, #1
 173 00bc 04D0     		beq	.L10
 361:Drivers/STM32L4xx_HAL_Driver/Src/stm32l4xx_hal_lptim.c ****       || (hlptim->Init.CounterSource == LPTIM_COUNTERSOURCE_EXTERNAL))
 174              		.loc 1 361 23
 175 00be 7B68     		ldr	r3, [r7, #4]
 176 00c0 9B6A     		ldr	r3, [r3, #40]
 177              		.loc 1 361 7
 178 00c2 B3F5000F 		cmp	r3, #8388608
 179 00c6 07D1     		bne	.L11
 180              	.L10:
 362:Drivers/STM32L4xx_HAL_Driver/Src/stm32l4xx_hal_lptim.c ****   {
 363:Drivers/STM32L4xx_HAL_Driver/Src/stm32l4xx_hal_lptim.c ****     tmpcfgr |= (hlptim->Init.UltraLowPowerClock.Polarity |
 181              		.loc 1 363 48
 182 00c8 7B68     		ldr	r3, [r7, #4]
 183 00ca DA68     		ldr	r2, [r3, #12]
 364:Drivers/STM32L4xx_HAL_Driver/Src/stm32l4xx_hal_lptim.c ****                 hlptim->Init.UltraLowPowerClock.SampleTime);
 184              		.loc 1 364 48
 185 00cc 7B68     		ldr	r3, [r7, #4]
 186 00ce 1B69     		ldr	r3, [r3, #16]
 363:Drivers/STM32L4xx_HAL_Driver/Src/stm32l4xx_hal_lptim.c ****                 hlptim->Init.UltraLowPowerClock.SampleTime);
 187              		.loc 1 363 58
 188 00d0 1343     		orrs	r3, r3, r2
 363:Drivers/STM32L4xx_HAL_Driver/Src/stm32l4xx_hal_lptim.c ****                 hlptim->Init.UltraLowPowerClock.SampleTime);
 189              		.loc 1 363 13
 190 00d2 FA68     		ldr	r2, [r7, #12]
 191 00d4 1343     		orrs	r3, r3, r2
 192 00d6 FB60     		str	r3, [r7, #12]
 193              	.L11:
 365:Drivers/STM32L4xx_HAL_Driver/Src/stm32l4xx_hal_lptim.c ****   }
 366:Drivers/STM32L4xx_HAL_Driver/Src/stm32l4xx_hal_lptim.c **** 
 367:Drivers/STM32L4xx_HAL_Driver/Src/stm32l4xx_hal_lptim.c ****   /* Configure LPTIM external trigger */
 368:Drivers/STM32L4xx_HAL_Driver/Src/stm32l4xx_hal_lptim.c ****   if (hlptim->Init.Trigger.Source != LPTIM_TRIGSOURCE_SOFTWARE)
 194              		.loc 1 368 27
 195 00d8 7B68     		ldr	r3, [r7, #4]
ARM GAS  /tmp/ccB7T7H1.s 			page 11


 196 00da 5B69     		ldr	r3, [r3, #20]
 197              		.loc 1 368 6
 198 00dc 4FF6FF72 		movw	r2, #65535
 199 00e0 9342     		cmp	r3, r2
 200 00e2 0AD0     		beq	.L12
 369:Drivers/STM32L4xx_HAL_Driver/Src/stm32l4xx_hal_lptim.c ****   {
 370:Drivers/STM32L4xx_HAL_Driver/Src/stm32l4xx_hal_lptim.c ****     /* Enable External trigger and set the trigger source */
 371:Drivers/STM32L4xx_HAL_Driver/Src/stm32l4xx_hal_lptim.c ****     tmpcfgr |= (hlptim->Init.Trigger.Source     |
 201              		.loc 1 371 37
 202 00e4 7B68     		ldr	r3, [r7, #4]
 203 00e6 5A69     		ldr	r2, [r3, #20]
 372:Drivers/STM32L4xx_HAL_Driver/Src/stm32l4xx_hal_lptim.c ****                 hlptim->Init.Trigger.ActiveEdge |
 204              		.loc 1 372 37
 205 00e8 7B68     		ldr	r3, [r7, #4]
 206 00ea 9B69     		ldr	r3, [r3, #24]
 371:Drivers/STM32L4xx_HAL_Driver/Src/stm32l4xx_hal_lptim.c ****                 hlptim->Init.Trigger.ActiveEdge |
 207              		.loc 1 371 49
 208 00ec 1A43     		orrs	r2, r2, r3
 373:Drivers/STM32L4xx_HAL_Driver/Src/stm32l4xx_hal_lptim.c ****                 hlptim->Init.Trigger.SampleTime);
 209              		.loc 1 373 37
 210 00ee 7B68     		ldr	r3, [r7, #4]
 211 00f0 DB69     		ldr	r3, [r3, #28]
 372:Drivers/STM32L4xx_HAL_Driver/Src/stm32l4xx_hal_lptim.c ****                 hlptim->Init.Trigger.ActiveEdge |
 212              		.loc 1 372 49
 213 00f2 1343     		orrs	r3, r3, r2
 371:Drivers/STM32L4xx_HAL_Driver/Src/stm32l4xx_hal_lptim.c ****                 hlptim->Init.Trigger.ActiveEdge |
 214              		.loc 1 371 13
 215 00f4 FA68     		ldr	r2, [r7, #12]
 216 00f6 1343     		orrs	r3, r3, r2
 217 00f8 FB60     		str	r3, [r7, #12]
 218              	.L12:
 374:Drivers/STM32L4xx_HAL_Driver/Src/stm32l4xx_hal_lptim.c ****   }
 375:Drivers/STM32L4xx_HAL_Driver/Src/stm32l4xx_hal_lptim.c **** 
 376:Drivers/STM32L4xx_HAL_Driver/Src/stm32l4xx_hal_lptim.c ****   /* Write to LPTIMx CFGR */
 377:Drivers/STM32L4xx_HAL_Driver/Src/stm32l4xx_hal_lptim.c ****   hlptim->Instance->CFGR = tmpcfgr;
 219              		.loc 1 377 9
 220 00fa 7B68     		ldr	r3, [r7, #4]
 221 00fc 1B68     		ldr	r3, [r3]
 222              		.loc 1 377 26
 223 00fe FA68     		ldr	r2, [r7, #12]
 224 0100 DA60     		str	r2, [r3, #12]
 378:Drivers/STM32L4xx_HAL_Driver/Src/stm32l4xx_hal_lptim.c **** 
 379:Drivers/STM32L4xx_HAL_Driver/Src/stm32l4xx_hal_lptim.c ****   /* Configure LPTIM input sources */
 380:Drivers/STM32L4xx_HAL_Driver/Src/stm32l4xx_hal_lptim.c ****   if (hlptim->Instance == LPTIM1)
 225              		.loc 1 380 13
 226 0102 7B68     		ldr	r3, [r7, #4]
 227 0104 1B68     		ldr	r3, [r3]
 228              		.loc 1 380 6
 229 0106 0E4A     		ldr	r2, .L15+4
 230 0108 9342     		cmp	r3, r2
 231 010a 08D1     		bne	.L13
 381:Drivers/STM32L4xx_HAL_Driver/Src/stm32l4xx_hal_lptim.c ****   {
 382:Drivers/STM32L4xx_HAL_Driver/Src/stm32l4xx_hal_lptim.c ****     /* Check LPTIM Input1 and Input2 sources */
 383:Drivers/STM32L4xx_HAL_Driver/Src/stm32l4xx_hal_lptim.c ****     assert_param(IS_LPTIM_INPUT1_SOURCE(hlptim->Instance, hlptim->Init.Input1Source));
 384:Drivers/STM32L4xx_HAL_Driver/Src/stm32l4xx_hal_lptim.c ****     assert_param(IS_LPTIM_INPUT2_SOURCE(hlptim->Instance, hlptim->Init.Input2Source));
 385:Drivers/STM32L4xx_HAL_Driver/Src/stm32l4xx_hal_lptim.c **** 
 386:Drivers/STM32L4xx_HAL_Driver/Src/stm32l4xx_hal_lptim.c ****     /* Configure LPTIM Input1 and Input2 sources */
ARM GAS  /tmp/ccB7T7H1.s 			page 12


 387:Drivers/STM32L4xx_HAL_Driver/Src/stm32l4xx_hal_lptim.c ****     hlptim->Instance->OR = (hlptim->Init.Input1Source | hlptim->Init.Input2Source);
 232              		.loc 1 387 41
 233 010c 7B68     		ldr	r3, [r7, #4]
 234 010e D96A     		ldr	r1, [r3, #44]
 235              		.loc 1 387 69
 236 0110 7B68     		ldr	r3, [r7, #4]
 237 0112 1A6B     		ldr	r2, [r3, #48]
 238              		.loc 1 387 11
 239 0114 7B68     		ldr	r3, [r7, #4]
 240 0116 1B68     		ldr	r3, [r3]
 241              		.loc 1 387 55
 242 0118 0A43     		orrs	r2, r2, r1
 243              		.loc 1 387 26
 244 011a 1A62     		str	r2, [r3, #32]
 245 011c 04E0     		b	.L14
 246              	.L13:
 388:Drivers/STM32L4xx_HAL_Driver/Src/stm32l4xx_hal_lptim.c ****   }
 389:Drivers/STM32L4xx_HAL_Driver/Src/stm32l4xx_hal_lptim.c ****   else
 390:Drivers/STM32L4xx_HAL_Driver/Src/stm32l4xx_hal_lptim.c ****   {
 391:Drivers/STM32L4xx_HAL_Driver/Src/stm32l4xx_hal_lptim.c ****     /* Check LPTIM Input1 source */
 392:Drivers/STM32L4xx_HAL_Driver/Src/stm32l4xx_hal_lptim.c ****     assert_param(IS_LPTIM_INPUT1_SOURCE(hlptim->Instance, hlptim->Init.Input1Source));
 393:Drivers/STM32L4xx_HAL_Driver/Src/stm32l4xx_hal_lptim.c **** 
 394:Drivers/STM32L4xx_HAL_Driver/Src/stm32l4xx_hal_lptim.c ****     /* Configure LPTIM Input1 source */
 395:Drivers/STM32L4xx_HAL_Driver/Src/stm32l4xx_hal_lptim.c ****     hlptim->Instance->OR = hlptim->Init.Input1Source;
 247              		.loc 1 395 11
 248 011e 7B68     		ldr	r3, [r7, #4]
 249 0120 1B68     		ldr	r3, [r3]
 250              		.loc 1 395 40
 251 0122 7A68     		ldr	r2, [r7, #4]
 252 0124 D26A     		ldr	r2, [r2, #44]
 253              		.loc 1 395 26
 254 0126 1A62     		str	r2, [r3, #32]
 255              	.L14:
 396:Drivers/STM32L4xx_HAL_Driver/Src/stm32l4xx_hal_lptim.c ****   }
 397:Drivers/STM32L4xx_HAL_Driver/Src/stm32l4xx_hal_lptim.c **** 
 398:Drivers/STM32L4xx_HAL_Driver/Src/stm32l4xx_hal_lptim.c ****   /* Change the LPTIM state */
 399:Drivers/STM32L4xx_HAL_Driver/Src/stm32l4xx_hal_lptim.c ****   hlptim->State = HAL_LPTIM_STATE_READY;
 256              		.loc 1 399 17
 257 0128 7B68     		ldr	r3, [r7, #4]
 258 012a 0122     		movs	r2, #1
 259 012c 83F83620 		strb	r2, [r3, #54]
 400:Drivers/STM32L4xx_HAL_Driver/Src/stm32l4xx_hal_lptim.c **** 
 401:Drivers/STM32L4xx_HAL_Driver/Src/stm32l4xx_hal_lptim.c ****   /* Return function status */
 402:Drivers/STM32L4xx_HAL_Driver/Src/stm32l4xx_hal_lptim.c ****   return HAL_OK;
 260              		.loc 1 402 10
 261 0130 0023     		movs	r3, #0
 262              	.L3:
 403:Drivers/STM32L4xx_HAL_Driver/Src/stm32l4xx_hal_lptim.c **** }
 263              		.loc 1 403 1
 264 0132 1846     		mov	r0, r3
 265 0134 1037     		adds	r7, r7, #16
 266              		.cfi_def_cfa_offset 8
 267 0136 BD46     		mov	sp, r7
 268              		.cfi_def_cfa_register 13
 269              		@ sp needed
 270 0138 80BD     		pop	{r7, pc}
 271              	.L16:
ARM GAS  /tmp/ccB7T7H1.s 			page 13


 272 013a 00BF     		.align	2
 273              	.L15:
 274 013c FEF119FF 		.word	-15076866
 275 0140 007C0040 		.word	1073773568
 276              		.cfi_endproc
 277              	.LFE445:
 279              		.section	.text.HAL_LPTIM_DeInit,"ax",%progbits
 280              		.align	1
 281              		.global	HAL_LPTIM_DeInit
 282              		.syntax unified
 283              		.thumb
 284              		.thumb_func
 286              	HAL_LPTIM_DeInit:
 287              	.LFB446:
 404:Drivers/STM32L4xx_HAL_Driver/Src/stm32l4xx_hal_lptim.c **** 
 405:Drivers/STM32L4xx_HAL_Driver/Src/stm32l4xx_hal_lptim.c **** /**
 406:Drivers/STM32L4xx_HAL_Driver/Src/stm32l4xx_hal_lptim.c ****   * @brief  DeInitialize the LPTIM peripheral.
 407:Drivers/STM32L4xx_HAL_Driver/Src/stm32l4xx_hal_lptim.c ****   * @param  hlptim LPTIM handle
 408:Drivers/STM32L4xx_HAL_Driver/Src/stm32l4xx_hal_lptim.c ****   * @retval HAL status
 409:Drivers/STM32L4xx_HAL_Driver/Src/stm32l4xx_hal_lptim.c ****   */
 410:Drivers/STM32L4xx_HAL_Driver/Src/stm32l4xx_hal_lptim.c **** HAL_StatusTypeDef HAL_LPTIM_DeInit(LPTIM_HandleTypeDef *hlptim)
 411:Drivers/STM32L4xx_HAL_Driver/Src/stm32l4xx_hal_lptim.c **** {
 288              		.loc 1 411 1
 289              		.cfi_startproc
 290              		@ args = 0, pretend = 0, frame = 8
 291              		@ frame_needed = 1, uses_anonymous_args = 0
 292 0000 80B5     		push	{r7, lr}
 293              		.cfi_def_cfa_offset 8
 294              		.cfi_offset 7, -8
 295              		.cfi_offset 14, -4
 296 0002 82B0     		sub	sp, sp, #8
 297              		.cfi_def_cfa_offset 16
 298 0004 00AF     		add	r7, sp, #0
 299              		.cfi_def_cfa_register 7
 300 0006 7860     		str	r0, [r7, #4]
 412:Drivers/STM32L4xx_HAL_Driver/Src/stm32l4xx_hal_lptim.c ****   /* Check the LPTIM handle allocation */
 413:Drivers/STM32L4xx_HAL_Driver/Src/stm32l4xx_hal_lptim.c ****   if (hlptim == NULL)
 301              		.loc 1 413 6
 302 0008 7B68     		ldr	r3, [r7, #4]
 303 000a 002B     		cmp	r3, #0
 304 000c 01D1     		bne	.L18
 414:Drivers/STM32L4xx_HAL_Driver/Src/stm32l4xx_hal_lptim.c ****   {
 415:Drivers/STM32L4xx_HAL_Driver/Src/stm32l4xx_hal_lptim.c ****     return HAL_ERROR;
 305              		.loc 1 415 12
 306 000e 0123     		movs	r3, #1
 307 0010 1AE0     		b	.L19
 308              	.L18:
 416:Drivers/STM32L4xx_HAL_Driver/Src/stm32l4xx_hal_lptim.c ****   }
 417:Drivers/STM32L4xx_HAL_Driver/Src/stm32l4xx_hal_lptim.c **** 
 418:Drivers/STM32L4xx_HAL_Driver/Src/stm32l4xx_hal_lptim.c ****   /* Change the LPTIM state */
 419:Drivers/STM32L4xx_HAL_Driver/Src/stm32l4xx_hal_lptim.c ****   hlptim->State = HAL_LPTIM_STATE_BUSY;
 309              		.loc 1 419 17
 310 0012 7B68     		ldr	r3, [r7, #4]
 311 0014 0222     		movs	r2, #2
 312 0016 83F83620 		strb	r2, [r3, #54]
 420:Drivers/STM32L4xx_HAL_Driver/Src/stm32l4xx_hal_lptim.c **** 
 421:Drivers/STM32L4xx_HAL_Driver/Src/stm32l4xx_hal_lptim.c ****   /* Disable the LPTIM Peripheral Clock */
ARM GAS  /tmp/ccB7T7H1.s 			page 14


 422:Drivers/STM32L4xx_HAL_Driver/Src/stm32l4xx_hal_lptim.c ****   __HAL_LPTIM_DISABLE(hlptim);
 313              		.loc 1 422 3
 314 001a 7868     		ldr	r0, [r7, #4]
 315 001c FFF7FEFF 		bl	LPTIM_Disable
 423:Drivers/STM32L4xx_HAL_Driver/Src/stm32l4xx_hal_lptim.c **** 
 424:Drivers/STM32L4xx_HAL_Driver/Src/stm32l4xx_hal_lptim.c ****   if (HAL_LPTIM_GetState(hlptim) == HAL_LPTIM_STATE_TIMEOUT)
 316              		.loc 1 424 7
 317 0020 7868     		ldr	r0, [r7, #4]
 318 0022 FFF7FEFF 		bl	HAL_LPTIM_GetState
 319 0026 0346     		mov	r3, r0
 320              		.loc 1 424 6 discriminator 1
 321 0028 032B     		cmp	r3, #3
 322 002a 01D1     		bne	.L20
 425:Drivers/STM32L4xx_HAL_Driver/Src/stm32l4xx_hal_lptim.c ****   {
 426:Drivers/STM32L4xx_HAL_Driver/Src/stm32l4xx_hal_lptim.c ****     return HAL_TIMEOUT;
 323              		.loc 1 426 12
 324 002c 0323     		movs	r3, #3
 325 002e 0BE0     		b	.L19
 326              	.L20:
 427:Drivers/STM32L4xx_HAL_Driver/Src/stm32l4xx_hal_lptim.c ****   }
 428:Drivers/STM32L4xx_HAL_Driver/Src/stm32l4xx_hal_lptim.c **** 
 429:Drivers/STM32L4xx_HAL_Driver/Src/stm32l4xx_hal_lptim.c **** #if (USE_HAL_LPTIM_REGISTER_CALLBACKS == 1)
 430:Drivers/STM32L4xx_HAL_Driver/Src/stm32l4xx_hal_lptim.c ****   if (hlptim->MspDeInitCallback == NULL)
 431:Drivers/STM32L4xx_HAL_Driver/Src/stm32l4xx_hal_lptim.c ****   {
 432:Drivers/STM32L4xx_HAL_Driver/Src/stm32l4xx_hal_lptim.c ****     hlptim->MspDeInitCallback = HAL_LPTIM_MspDeInit;
 433:Drivers/STM32L4xx_HAL_Driver/Src/stm32l4xx_hal_lptim.c ****   }
 434:Drivers/STM32L4xx_HAL_Driver/Src/stm32l4xx_hal_lptim.c **** 
 435:Drivers/STM32L4xx_HAL_Driver/Src/stm32l4xx_hal_lptim.c ****   /* DeInit the low level hardware: CLOCK, NVIC.*/
 436:Drivers/STM32L4xx_HAL_Driver/Src/stm32l4xx_hal_lptim.c ****   hlptim->MspDeInitCallback(hlptim);
 437:Drivers/STM32L4xx_HAL_Driver/Src/stm32l4xx_hal_lptim.c **** #else
 438:Drivers/STM32L4xx_HAL_Driver/Src/stm32l4xx_hal_lptim.c ****   /* DeInit the low level hardware: CLOCK, NVIC.*/
 439:Drivers/STM32L4xx_HAL_Driver/Src/stm32l4xx_hal_lptim.c ****   HAL_LPTIM_MspDeInit(hlptim);
 327              		.loc 1 439 3
 328 0030 7868     		ldr	r0, [r7, #4]
 329 0032 FFF7FEFF 		bl	HAL_LPTIM_MspDeInit
 440:Drivers/STM32L4xx_HAL_Driver/Src/stm32l4xx_hal_lptim.c **** #endif /* USE_HAL_LPTIM_REGISTER_CALLBACKS */
 441:Drivers/STM32L4xx_HAL_Driver/Src/stm32l4xx_hal_lptim.c **** 
 442:Drivers/STM32L4xx_HAL_Driver/Src/stm32l4xx_hal_lptim.c ****   /* Change the LPTIM state */
 443:Drivers/STM32L4xx_HAL_Driver/Src/stm32l4xx_hal_lptim.c ****   hlptim->State = HAL_LPTIM_STATE_RESET;
 330              		.loc 1 443 17
 331 0036 7B68     		ldr	r3, [r7, #4]
 332 0038 0022     		movs	r2, #0
 333 003a 83F83620 		strb	r2, [r3, #54]
 444:Drivers/STM32L4xx_HAL_Driver/Src/stm32l4xx_hal_lptim.c **** 
 445:Drivers/STM32L4xx_HAL_Driver/Src/stm32l4xx_hal_lptim.c ****   /* Release Lock */
 446:Drivers/STM32L4xx_HAL_Driver/Src/stm32l4xx_hal_lptim.c ****   __HAL_UNLOCK(hlptim);
 334              		.loc 1 446 3
 335 003e 7B68     		ldr	r3, [r7, #4]
 336 0040 0022     		movs	r2, #0
 337 0042 83F83520 		strb	r2, [r3, #53]
 447:Drivers/STM32L4xx_HAL_Driver/Src/stm32l4xx_hal_lptim.c **** 
 448:Drivers/STM32L4xx_HAL_Driver/Src/stm32l4xx_hal_lptim.c ****   /* Return function status */
 449:Drivers/STM32L4xx_HAL_Driver/Src/stm32l4xx_hal_lptim.c ****   return HAL_OK;
 338              		.loc 1 449 10
 339 0046 0023     		movs	r3, #0
 340              	.L19:
 450:Drivers/STM32L4xx_HAL_Driver/Src/stm32l4xx_hal_lptim.c **** }
ARM GAS  /tmp/ccB7T7H1.s 			page 15


 341              		.loc 1 450 1
 342 0048 1846     		mov	r0, r3
 343 004a 0837     		adds	r7, r7, #8
 344              		.cfi_def_cfa_offset 8
 345 004c BD46     		mov	sp, r7
 346              		.cfi_def_cfa_register 13
 347              		@ sp needed
 348 004e 80BD     		pop	{r7, pc}
 349              		.cfi_endproc
 350              	.LFE446:
 352              		.section	.text.HAL_LPTIM_MspInit,"ax",%progbits
 353              		.align	1
 354              		.weak	HAL_LPTIM_MspInit
 355              		.syntax unified
 356              		.thumb
 357              		.thumb_func
 359              	HAL_LPTIM_MspInit:
 360              	.LFB447:
 451:Drivers/STM32L4xx_HAL_Driver/Src/stm32l4xx_hal_lptim.c **** 
 452:Drivers/STM32L4xx_HAL_Driver/Src/stm32l4xx_hal_lptim.c **** /**
 453:Drivers/STM32L4xx_HAL_Driver/Src/stm32l4xx_hal_lptim.c ****   * @brief  Initialize the LPTIM MSP.
 454:Drivers/STM32L4xx_HAL_Driver/Src/stm32l4xx_hal_lptim.c ****   * @param  hlptim LPTIM handle
 455:Drivers/STM32L4xx_HAL_Driver/Src/stm32l4xx_hal_lptim.c ****   * @retval None
 456:Drivers/STM32L4xx_HAL_Driver/Src/stm32l4xx_hal_lptim.c ****   */
 457:Drivers/STM32L4xx_HAL_Driver/Src/stm32l4xx_hal_lptim.c **** __weak void HAL_LPTIM_MspInit(LPTIM_HandleTypeDef *hlptim)
 458:Drivers/STM32L4xx_HAL_Driver/Src/stm32l4xx_hal_lptim.c **** {
 361              		.loc 1 458 1
 362              		.cfi_startproc
 363              		@ args = 0, pretend = 0, frame = 8
 364              		@ frame_needed = 1, uses_anonymous_args = 0
 365              		@ link register save eliminated.
 366 0000 80B4     		push	{r7}
 367              		.cfi_def_cfa_offset 4
 368              		.cfi_offset 7, -4
 369 0002 83B0     		sub	sp, sp, #12
 370              		.cfi_def_cfa_offset 16
 371 0004 00AF     		add	r7, sp, #0
 372              		.cfi_def_cfa_register 7
 373 0006 7860     		str	r0, [r7, #4]
 459:Drivers/STM32L4xx_HAL_Driver/Src/stm32l4xx_hal_lptim.c ****   /* Prevent unused argument(s) compilation warning */
 460:Drivers/STM32L4xx_HAL_Driver/Src/stm32l4xx_hal_lptim.c ****   UNUSED(hlptim);
 461:Drivers/STM32L4xx_HAL_Driver/Src/stm32l4xx_hal_lptim.c **** 
 462:Drivers/STM32L4xx_HAL_Driver/Src/stm32l4xx_hal_lptim.c ****   /* NOTE : This function should not be modified, when the callback is needed,
 463:Drivers/STM32L4xx_HAL_Driver/Src/stm32l4xx_hal_lptim.c ****             the HAL_LPTIM_MspInit could be implemented in the user file
 464:Drivers/STM32L4xx_HAL_Driver/Src/stm32l4xx_hal_lptim.c ****    */
 465:Drivers/STM32L4xx_HAL_Driver/Src/stm32l4xx_hal_lptim.c **** }
 374              		.loc 1 465 1
 375 0008 00BF     		nop
 376 000a 0C37     		adds	r7, r7, #12
 377              		.cfi_def_cfa_offset 4
 378 000c BD46     		mov	sp, r7
 379              		.cfi_def_cfa_register 13
 380              		@ sp needed
 381 000e 5DF8047B 		ldr	r7, [sp], #4
 382              		.cfi_restore 7
 383              		.cfi_def_cfa_offset 0
 384 0012 7047     		bx	lr
ARM GAS  /tmp/ccB7T7H1.s 			page 16


 385              		.cfi_endproc
 386              	.LFE447:
 388              		.section	.text.HAL_LPTIM_MspDeInit,"ax",%progbits
 389              		.align	1
 390              		.weak	HAL_LPTIM_MspDeInit
 391              		.syntax unified
 392              		.thumb
 393              		.thumb_func
 395              	HAL_LPTIM_MspDeInit:
 396              	.LFB448:
 466:Drivers/STM32L4xx_HAL_Driver/Src/stm32l4xx_hal_lptim.c **** 
 467:Drivers/STM32L4xx_HAL_Driver/Src/stm32l4xx_hal_lptim.c **** /**
 468:Drivers/STM32L4xx_HAL_Driver/Src/stm32l4xx_hal_lptim.c ****   * @brief  DeInitialize LPTIM MSP.
 469:Drivers/STM32L4xx_HAL_Driver/Src/stm32l4xx_hal_lptim.c ****   * @param  hlptim LPTIM handle
 470:Drivers/STM32L4xx_HAL_Driver/Src/stm32l4xx_hal_lptim.c ****   * @retval None
 471:Drivers/STM32L4xx_HAL_Driver/Src/stm32l4xx_hal_lptim.c ****   */
 472:Drivers/STM32L4xx_HAL_Driver/Src/stm32l4xx_hal_lptim.c **** __weak void HAL_LPTIM_MspDeInit(LPTIM_HandleTypeDef *hlptim)
 473:Drivers/STM32L4xx_HAL_Driver/Src/stm32l4xx_hal_lptim.c **** {
 397              		.loc 1 473 1
 398              		.cfi_startproc
 399              		@ args = 0, pretend = 0, frame = 8
 400              		@ frame_needed = 1, uses_anonymous_args = 0
 401              		@ link register save eliminated.
 402 0000 80B4     		push	{r7}
 403              		.cfi_def_cfa_offset 4
 404              		.cfi_offset 7, -4
 405 0002 83B0     		sub	sp, sp, #12
 406              		.cfi_def_cfa_offset 16
 407 0004 00AF     		add	r7, sp, #0
 408              		.cfi_def_cfa_register 7
 409 0006 7860     		str	r0, [r7, #4]
 474:Drivers/STM32L4xx_HAL_Driver/Src/stm32l4xx_hal_lptim.c ****   /* Prevent unused argument(s) compilation warning */
 475:Drivers/STM32L4xx_HAL_Driver/Src/stm32l4xx_hal_lptim.c ****   UNUSED(hlptim);
 476:Drivers/STM32L4xx_HAL_Driver/Src/stm32l4xx_hal_lptim.c **** 
 477:Drivers/STM32L4xx_HAL_Driver/Src/stm32l4xx_hal_lptim.c ****   /* NOTE : This function should not be modified, when the callback is needed,
 478:Drivers/STM32L4xx_HAL_Driver/Src/stm32l4xx_hal_lptim.c ****             the HAL_LPTIM_MspDeInit could be implemented in the user file
 479:Drivers/STM32L4xx_HAL_Driver/Src/stm32l4xx_hal_lptim.c ****    */
 480:Drivers/STM32L4xx_HAL_Driver/Src/stm32l4xx_hal_lptim.c **** }
 410              		.loc 1 480 1
 411 0008 00BF     		nop
 412 000a 0C37     		adds	r7, r7, #12
 413              		.cfi_def_cfa_offset 4
 414 000c BD46     		mov	sp, r7
 415              		.cfi_def_cfa_register 13
 416              		@ sp needed
 417 000e 5DF8047B 		ldr	r7, [sp], #4
 418              		.cfi_restore 7
 419              		.cfi_def_cfa_offset 0
 420 0012 7047     		bx	lr
 421              		.cfi_endproc
 422              	.LFE448:
 424              		.section	.text.HAL_LPTIM_PWM_Start,"ax",%progbits
 425              		.align	1
 426              		.global	HAL_LPTIM_PWM_Start
 427              		.syntax unified
 428              		.thumb
 429              		.thumb_func
ARM GAS  /tmp/ccB7T7H1.s 			page 17


 431              	HAL_LPTIM_PWM_Start:
 432              	.LFB449:
 481:Drivers/STM32L4xx_HAL_Driver/Src/stm32l4xx_hal_lptim.c **** 
 482:Drivers/STM32L4xx_HAL_Driver/Src/stm32l4xx_hal_lptim.c **** /**
 483:Drivers/STM32L4xx_HAL_Driver/Src/stm32l4xx_hal_lptim.c ****   * @}
 484:Drivers/STM32L4xx_HAL_Driver/Src/stm32l4xx_hal_lptim.c ****   */
 485:Drivers/STM32L4xx_HAL_Driver/Src/stm32l4xx_hal_lptim.c **** 
 486:Drivers/STM32L4xx_HAL_Driver/Src/stm32l4xx_hal_lptim.c **** /** @defgroup LPTIM_Exported_Functions_Group2 LPTIM Start-Stop operation functions
 487:Drivers/STM32L4xx_HAL_Driver/Src/stm32l4xx_hal_lptim.c ****   *  @brief   Start-Stop operation functions.
 488:Drivers/STM32L4xx_HAL_Driver/Src/stm32l4xx_hal_lptim.c ****   *
 489:Drivers/STM32L4xx_HAL_Driver/Src/stm32l4xx_hal_lptim.c **** @verbatim
 490:Drivers/STM32L4xx_HAL_Driver/Src/stm32l4xx_hal_lptim.c ****   ==============================================================================
 491:Drivers/STM32L4xx_HAL_Driver/Src/stm32l4xx_hal_lptim.c ****                 ##### LPTIM Start Stop operation functions #####
 492:Drivers/STM32L4xx_HAL_Driver/Src/stm32l4xx_hal_lptim.c ****   ==============================================================================
 493:Drivers/STM32L4xx_HAL_Driver/Src/stm32l4xx_hal_lptim.c ****     [..]  This section provides functions allowing to:
 494:Drivers/STM32L4xx_HAL_Driver/Src/stm32l4xx_hal_lptim.c ****       (+) Start the PWM mode.
 495:Drivers/STM32L4xx_HAL_Driver/Src/stm32l4xx_hal_lptim.c ****       (+) Stop the PWM mode.
 496:Drivers/STM32L4xx_HAL_Driver/Src/stm32l4xx_hal_lptim.c ****       (+) Start the One pulse mode.
 497:Drivers/STM32L4xx_HAL_Driver/Src/stm32l4xx_hal_lptim.c ****       (+) Stop the One pulse mode.
 498:Drivers/STM32L4xx_HAL_Driver/Src/stm32l4xx_hal_lptim.c ****       (+) Start the Set once mode.
 499:Drivers/STM32L4xx_HAL_Driver/Src/stm32l4xx_hal_lptim.c ****       (+) Stop the Set once mode.
 500:Drivers/STM32L4xx_HAL_Driver/Src/stm32l4xx_hal_lptim.c ****       (+) Start the Encoder mode.
 501:Drivers/STM32L4xx_HAL_Driver/Src/stm32l4xx_hal_lptim.c ****       (+) Stop the Encoder mode.
 502:Drivers/STM32L4xx_HAL_Driver/Src/stm32l4xx_hal_lptim.c ****       (+) Start the Timeout mode.
 503:Drivers/STM32L4xx_HAL_Driver/Src/stm32l4xx_hal_lptim.c ****       (+) Stop the Timeout mode.
 504:Drivers/STM32L4xx_HAL_Driver/Src/stm32l4xx_hal_lptim.c ****       (+) Start the Counter mode.
 505:Drivers/STM32L4xx_HAL_Driver/Src/stm32l4xx_hal_lptim.c ****       (+) Stop the Counter mode.
 506:Drivers/STM32L4xx_HAL_Driver/Src/stm32l4xx_hal_lptim.c **** 
 507:Drivers/STM32L4xx_HAL_Driver/Src/stm32l4xx_hal_lptim.c **** 
 508:Drivers/STM32L4xx_HAL_Driver/Src/stm32l4xx_hal_lptim.c **** @endverbatim
 509:Drivers/STM32L4xx_HAL_Driver/Src/stm32l4xx_hal_lptim.c ****   * @{
 510:Drivers/STM32L4xx_HAL_Driver/Src/stm32l4xx_hal_lptim.c ****   */
 511:Drivers/STM32L4xx_HAL_Driver/Src/stm32l4xx_hal_lptim.c **** 
 512:Drivers/STM32L4xx_HAL_Driver/Src/stm32l4xx_hal_lptim.c **** /**
 513:Drivers/STM32L4xx_HAL_Driver/Src/stm32l4xx_hal_lptim.c ****   * @brief  Start the LPTIM PWM generation.
 514:Drivers/STM32L4xx_HAL_Driver/Src/stm32l4xx_hal_lptim.c ****   * @param  hlptim LPTIM handle
 515:Drivers/STM32L4xx_HAL_Driver/Src/stm32l4xx_hal_lptim.c ****   * @param  Period Specifies the Autoreload value.
 516:Drivers/STM32L4xx_HAL_Driver/Src/stm32l4xx_hal_lptim.c ****   *         This parameter must be a value between 0x0001 and 0xFFFF.
 517:Drivers/STM32L4xx_HAL_Driver/Src/stm32l4xx_hal_lptim.c ****   * @param  Pulse Specifies the compare value.
 518:Drivers/STM32L4xx_HAL_Driver/Src/stm32l4xx_hal_lptim.c ****   *         This parameter must be a value between 0x0000 and 0xFFFF.
 519:Drivers/STM32L4xx_HAL_Driver/Src/stm32l4xx_hal_lptim.c ****   * @retval HAL status
 520:Drivers/STM32L4xx_HAL_Driver/Src/stm32l4xx_hal_lptim.c ****   */
 521:Drivers/STM32L4xx_HAL_Driver/Src/stm32l4xx_hal_lptim.c **** HAL_StatusTypeDef HAL_LPTIM_PWM_Start(LPTIM_HandleTypeDef *hlptim, uint32_t Period, uint32_t Pulse)
 522:Drivers/STM32L4xx_HAL_Driver/Src/stm32l4xx_hal_lptim.c **** {
 433              		.loc 1 522 1
 434              		.cfi_startproc
 435              		@ args = 0, pretend = 0, frame = 16
 436              		@ frame_needed = 1, uses_anonymous_args = 0
 437 0000 80B5     		push	{r7, lr}
 438              		.cfi_def_cfa_offset 8
 439              		.cfi_offset 7, -8
 440              		.cfi_offset 14, -4
 441 0002 84B0     		sub	sp, sp, #16
 442              		.cfi_def_cfa_offset 24
 443 0004 00AF     		add	r7, sp, #0
 444              		.cfi_def_cfa_register 7
 445 0006 F860     		str	r0, [r7, #12]
ARM GAS  /tmp/ccB7T7H1.s 			page 18


 446 0008 B960     		str	r1, [r7, #8]
 447 000a 7A60     		str	r2, [r7, #4]
 523:Drivers/STM32L4xx_HAL_Driver/Src/stm32l4xx_hal_lptim.c ****   /* Check the parameters */
 524:Drivers/STM32L4xx_HAL_Driver/Src/stm32l4xx_hal_lptim.c ****   assert_param(IS_LPTIM_INSTANCE(hlptim->Instance));
 525:Drivers/STM32L4xx_HAL_Driver/Src/stm32l4xx_hal_lptim.c ****   assert_param(IS_LPTIM_PERIOD(Period));
 526:Drivers/STM32L4xx_HAL_Driver/Src/stm32l4xx_hal_lptim.c ****   assert_param(IS_LPTIM_PULSE(Pulse));
 527:Drivers/STM32L4xx_HAL_Driver/Src/stm32l4xx_hal_lptim.c **** 
 528:Drivers/STM32L4xx_HAL_Driver/Src/stm32l4xx_hal_lptim.c ****   /* Set the LPTIM state */
 529:Drivers/STM32L4xx_HAL_Driver/Src/stm32l4xx_hal_lptim.c ****   hlptim->State = HAL_LPTIM_STATE_BUSY;
 448              		.loc 1 529 17
 449 000c FB68     		ldr	r3, [r7, #12]
 450 000e 0222     		movs	r2, #2
 451 0010 83F83620 		strb	r2, [r3, #54]
 530:Drivers/STM32L4xx_HAL_Driver/Src/stm32l4xx_hal_lptim.c **** 
 531:Drivers/STM32L4xx_HAL_Driver/Src/stm32l4xx_hal_lptim.c ****   /* Reset WAVE bit to set PWM mode */
 532:Drivers/STM32L4xx_HAL_Driver/Src/stm32l4xx_hal_lptim.c ****   hlptim->Instance->CFGR &= ~LPTIM_CFGR_WAVE;
 452              		.loc 1 532 9
 453 0014 FB68     		ldr	r3, [r7, #12]
 454 0016 1B68     		ldr	r3, [r3]
 455              		.loc 1 532 19
 456 0018 DA68     		ldr	r2, [r3, #12]
 457              		.loc 1 532 9
 458 001a FB68     		ldr	r3, [r7, #12]
 459 001c 1B68     		ldr	r3, [r3]
 460              		.loc 1 532 26
 461 001e 22F48012 		bic	r2, r2, #1048576
 462 0022 DA60     		str	r2, [r3, #12]
 533:Drivers/STM32L4xx_HAL_Driver/Src/stm32l4xx_hal_lptim.c **** 
 534:Drivers/STM32L4xx_HAL_Driver/Src/stm32l4xx_hal_lptim.c ****   /* Enable the Peripheral */
 535:Drivers/STM32L4xx_HAL_Driver/Src/stm32l4xx_hal_lptim.c ****   __HAL_LPTIM_ENABLE(hlptim);
 463              		.loc 1 535 3
 464 0024 FB68     		ldr	r3, [r7, #12]
 465 0026 1B68     		ldr	r3, [r3]
 466 0028 1A69     		ldr	r2, [r3, #16]
 467 002a FB68     		ldr	r3, [r7, #12]
 468 002c 1B68     		ldr	r3, [r3]
 469 002e 42F00102 		orr	r2, r2, #1
 470 0032 1A61     		str	r2, [r3, #16]
 536:Drivers/STM32L4xx_HAL_Driver/Src/stm32l4xx_hal_lptim.c **** 
 537:Drivers/STM32L4xx_HAL_Driver/Src/stm32l4xx_hal_lptim.c ****   /* Clear flag */
 538:Drivers/STM32L4xx_HAL_Driver/Src/stm32l4xx_hal_lptim.c ****   __HAL_LPTIM_CLEAR_FLAG(hlptim, LPTIM_FLAG_ARROK);
 471              		.loc 1 538 3
 472 0034 FB68     		ldr	r3, [r7, #12]
 473 0036 1B68     		ldr	r3, [r3]
 474 0038 1022     		movs	r2, #16
 475 003a 5A60     		str	r2, [r3, #4]
 539:Drivers/STM32L4xx_HAL_Driver/Src/stm32l4xx_hal_lptim.c **** 
 540:Drivers/STM32L4xx_HAL_Driver/Src/stm32l4xx_hal_lptim.c ****   /* Load the period value in the autoreload register */
 541:Drivers/STM32L4xx_HAL_Driver/Src/stm32l4xx_hal_lptim.c ****   __HAL_LPTIM_AUTORELOAD_SET(hlptim, Period);
 476              		.loc 1 541 3
 477 003c FB68     		ldr	r3, [r7, #12]
 478 003e 1B68     		ldr	r3, [r3]
 479 0040 BA68     		ldr	r2, [r7, #8]
 480 0042 9A61     		str	r2, [r3, #24]
 542:Drivers/STM32L4xx_HAL_Driver/Src/stm32l4xx_hal_lptim.c **** 
 543:Drivers/STM32L4xx_HAL_Driver/Src/stm32l4xx_hal_lptim.c ****   /* Wait for the completion of the write operation to the LPTIM_ARR register */
 544:Drivers/STM32L4xx_HAL_Driver/Src/stm32l4xx_hal_lptim.c ****   if (LPTIM_WaitForFlag(hlptim, LPTIM_FLAG_ARROK) == HAL_TIMEOUT)
ARM GAS  /tmp/ccB7T7H1.s 			page 19


 481              		.loc 1 544 7
 482 0044 1021     		movs	r1, #16
 483 0046 F868     		ldr	r0, [r7, #12]
 484 0048 FFF7FEFF 		bl	LPTIM_WaitForFlag
 485 004c 0346     		mov	r3, r0
 486              		.loc 1 544 6 discriminator 1
 487 004e 032B     		cmp	r3, #3
 488 0050 01D1     		bne	.L24
 545:Drivers/STM32L4xx_HAL_Driver/Src/stm32l4xx_hal_lptim.c ****   {
 546:Drivers/STM32L4xx_HAL_Driver/Src/stm32l4xx_hal_lptim.c ****     return HAL_TIMEOUT;
 489              		.loc 1 546 12
 490 0052 0323     		movs	r3, #3
 491 0054 1DE0     		b	.L25
 492              	.L24:
 547:Drivers/STM32L4xx_HAL_Driver/Src/stm32l4xx_hal_lptim.c ****   }
 548:Drivers/STM32L4xx_HAL_Driver/Src/stm32l4xx_hal_lptim.c **** 
 549:Drivers/STM32L4xx_HAL_Driver/Src/stm32l4xx_hal_lptim.c ****   /* Clear flag */
 550:Drivers/STM32L4xx_HAL_Driver/Src/stm32l4xx_hal_lptim.c ****   __HAL_LPTIM_CLEAR_FLAG(hlptim, LPTIM_FLAG_CMPOK);
 493              		.loc 1 550 3
 494 0056 FB68     		ldr	r3, [r7, #12]
 495 0058 1B68     		ldr	r3, [r3]
 496 005a 0822     		movs	r2, #8
 497 005c 5A60     		str	r2, [r3, #4]
 551:Drivers/STM32L4xx_HAL_Driver/Src/stm32l4xx_hal_lptim.c **** 
 552:Drivers/STM32L4xx_HAL_Driver/Src/stm32l4xx_hal_lptim.c ****   /* Load the pulse value in the compare register */
 553:Drivers/STM32L4xx_HAL_Driver/Src/stm32l4xx_hal_lptim.c ****   __HAL_LPTIM_COMPARE_SET(hlptim, Pulse);
 498              		.loc 1 553 3
 499 005e FB68     		ldr	r3, [r7, #12]
 500 0060 1B68     		ldr	r3, [r3]
 501 0062 7A68     		ldr	r2, [r7, #4]
 502 0064 5A61     		str	r2, [r3, #20]
 554:Drivers/STM32L4xx_HAL_Driver/Src/stm32l4xx_hal_lptim.c **** 
 555:Drivers/STM32L4xx_HAL_Driver/Src/stm32l4xx_hal_lptim.c ****   /* Wait for the completion of the write operation to the LPTIM_CMP register */
 556:Drivers/STM32L4xx_HAL_Driver/Src/stm32l4xx_hal_lptim.c ****   if (LPTIM_WaitForFlag(hlptim, LPTIM_FLAG_CMPOK) == HAL_TIMEOUT)
 503              		.loc 1 556 7
 504 0066 0821     		movs	r1, #8
 505 0068 F868     		ldr	r0, [r7, #12]
 506 006a FFF7FEFF 		bl	LPTIM_WaitForFlag
 507 006e 0346     		mov	r3, r0
 508              		.loc 1 556 6 discriminator 1
 509 0070 032B     		cmp	r3, #3
 510 0072 01D1     		bne	.L26
 557:Drivers/STM32L4xx_HAL_Driver/Src/stm32l4xx_hal_lptim.c ****   {
 558:Drivers/STM32L4xx_HAL_Driver/Src/stm32l4xx_hal_lptim.c ****     return HAL_TIMEOUT;
 511              		.loc 1 558 12
 512 0074 0323     		movs	r3, #3
 513 0076 0CE0     		b	.L25
 514              	.L26:
 559:Drivers/STM32L4xx_HAL_Driver/Src/stm32l4xx_hal_lptim.c ****   }
 560:Drivers/STM32L4xx_HAL_Driver/Src/stm32l4xx_hal_lptim.c **** 
 561:Drivers/STM32L4xx_HAL_Driver/Src/stm32l4xx_hal_lptim.c ****   /* Start timer in continuous mode */
 562:Drivers/STM32L4xx_HAL_Driver/Src/stm32l4xx_hal_lptim.c ****   __HAL_LPTIM_START_CONTINUOUS(hlptim);
 515              		.loc 1 562 3
 516 0078 FB68     		ldr	r3, [r7, #12]
 517 007a 1B68     		ldr	r3, [r3]
 518 007c 1A69     		ldr	r2, [r3, #16]
 519 007e FB68     		ldr	r3, [r7, #12]
ARM GAS  /tmp/ccB7T7H1.s 			page 20


 520 0080 1B68     		ldr	r3, [r3]
 521 0082 42F00402 		orr	r2, r2, #4
 522 0086 1A61     		str	r2, [r3, #16]
 563:Drivers/STM32L4xx_HAL_Driver/Src/stm32l4xx_hal_lptim.c **** 
 564:Drivers/STM32L4xx_HAL_Driver/Src/stm32l4xx_hal_lptim.c ****   /* Change the LPTIM state */
 565:Drivers/STM32L4xx_HAL_Driver/Src/stm32l4xx_hal_lptim.c ****   hlptim->State = HAL_LPTIM_STATE_READY;
 523              		.loc 1 565 17
 524 0088 FB68     		ldr	r3, [r7, #12]
 525 008a 0122     		movs	r2, #1
 526 008c 83F83620 		strb	r2, [r3, #54]
 566:Drivers/STM32L4xx_HAL_Driver/Src/stm32l4xx_hal_lptim.c **** 
 567:Drivers/STM32L4xx_HAL_Driver/Src/stm32l4xx_hal_lptim.c ****   /* Return function status */
 568:Drivers/STM32L4xx_HAL_Driver/Src/stm32l4xx_hal_lptim.c ****   return HAL_OK;
 527              		.loc 1 568 10
 528 0090 0023     		movs	r3, #0
 529              	.L25:
 569:Drivers/STM32L4xx_HAL_Driver/Src/stm32l4xx_hal_lptim.c **** }
 530              		.loc 1 569 1
 531 0092 1846     		mov	r0, r3
 532 0094 1037     		adds	r7, r7, #16
 533              		.cfi_def_cfa_offset 8
 534 0096 BD46     		mov	sp, r7
 535              		.cfi_def_cfa_register 13
 536              		@ sp needed
 537 0098 80BD     		pop	{r7, pc}
 538              		.cfi_endproc
 539              	.LFE449:
 541              		.section	.text.HAL_LPTIM_PWM_Stop,"ax",%progbits
 542              		.align	1
 543              		.global	HAL_LPTIM_PWM_Stop
 544              		.syntax unified
 545              		.thumb
 546              		.thumb_func
 548              	HAL_LPTIM_PWM_Stop:
 549              	.LFB450:
 570:Drivers/STM32L4xx_HAL_Driver/Src/stm32l4xx_hal_lptim.c **** 
 571:Drivers/STM32L4xx_HAL_Driver/Src/stm32l4xx_hal_lptim.c **** /**
 572:Drivers/STM32L4xx_HAL_Driver/Src/stm32l4xx_hal_lptim.c ****   * @brief  Stop the LPTIM PWM generation.
 573:Drivers/STM32L4xx_HAL_Driver/Src/stm32l4xx_hal_lptim.c ****   * @param  hlptim LPTIM handle
 574:Drivers/STM32L4xx_HAL_Driver/Src/stm32l4xx_hal_lptim.c ****   * @retval HAL status
 575:Drivers/STM32L4xx_HAL_Driver/Src/stm32l4xx_hal_lptim.c ****   */
 576:Drivers/STM32L4xx_HAL_Driver/Src/stm32l4xx_hal_lptim.c **** HAL_StatusTypeDef HAL_LPTIM_PWM_Stop(LPTIM_HandleTypeDef *hlptim)
 577:Drivers/STM32L4xx_HAL_Driver/Src/stm32l4xx_hal_lptim.c **** {
 550              		.loc 1 577 1
 551              		.cfi_startproc
 552              		@ args = 0, pretend = 0, frame = 8
 553              		@ frame_needed = 1, uses_anonymous_args = 0
 554 0000 80B5     		push	{r7, lr}
 555              		.cfi_def_cfa_offset 8
 556              		.cfi_offset 7, -8
 557              		.cfi_offset 14, -4
 558 0002 82B0     		sub	sp, sp, #8
 559              		.cfi_def_cfa_offset 16
 560 0004 00AF     		add	r7, sp, #0
 561              		.cfi_def_cfa_register 7
 562 0006 7860     		str	r0, [r7, #4]
 578:Drivers/STM32L4xx_HAL_Driver/Src/stm32l4xx_hal_lptim.c ****   /* Check the parameters */
ARM GAS  /tmp/ccB7T7H1.s 			page 21


 579:Drivers/STM32L4xx_HAL_Driver/Src/stm32l4xx_hal_lptim.c ****   assert_param(IS_LPTIM_INSTANCE(hlptim->Instance));
 580:Drivers/STM32L4xx_HAL_Driver/Src/stm32l4xx_hal_lptim.c **** 
 581:Drivers/STM32L4xx_HAL_Driver/Src/stm32l4xx_hal_lptim.c ****   /* Change the LPTIM state */
 582:Drivers/STM32L4xx_HAL_Driver/Src/stm32l4xx_hal_lptim.c ****   hlptim->State = HAL_LPTIM_STATE_BUSY;
 563              		.loc 1 582 17
 564 0008 7B68     		ldr	r3, [r7, #4]
 565 000a 0222     		movs	r2, #2
 566 000c 83F83620 		strb	r2, [r3, #54]
 583:Drivers/STM32L4xx_HAL_Driver/Src/stm32l4xx_hal_lptim.c **** 
 584:Drivers/STM32L4xx_HAL_Driver/Src/stm32l4xx_hal_lptim.c ****   /* Disable the Peripheral */
 585:Drivers/STM32L4xx_HAL_Driver/Src/stm32l4xx_hal_lptim.c ****   __HAL_LPTIM_DISABLE(hlptim);
 567              		.loc 1 585 3
 568 0010 7868     		ldr	r0, [r7, #4]
 569 0012 FFF7FEFF 		bl	LPTIM_Disable
 586:Drivers/STM32L4xx_HAL_Driver/Src/stm32l4xx_hal_lptim.c **** 
 587:Drivers/STM32L4xx_HAL_Driver/Src/stm32l4xx_hal_lptim.c ****   if (HAL_LPTIM_GetState(hlptim) == HAL_LPTIM_STATE_TIMEOUT)
 570              		.loc 1 587 7
 571 0016 7868     		ldr	r0, [r7, #4]
 572 0018 FFF7FEFF 		bl	HAL_LPTIM_GetState
 573 001c 0346     		mov	r3, r0
 574              		.loc 1 587 6 discriminator 1
 575 001e 032B     		cmp	r3, #3
 576 0020 01D1     		bne	.L28
 588:Drivers/STM32L4xx_HAL_Driver/Src/stm32l4xx_hal_lptim.c ****   {
 589:Drivers/STM32L4xx_HAL_Driver/Src/stm32l4xx_hal_lptim.c ****     return HAL_TIMEOUT;
 577              		.loc 1 589 12
 578 0022 0323     		movs	r3, #3
 579 0024 04E0     		b	.L29
 580              	.L28:
 590:Drivers/STM32L4xx_HAL_Driver/Src/stm32l4xx_hal_lptim.c ****   }
 591:Drivers/STM32L4xx_HAL_Driver/Src/stm32l4xx_hal_lptim.c **** 
 592:Drivers/STM32L4xx_HAL_Driver/Src/stm32l4xx_hal_lptim.c ****   /* Change the LPTIM state */
 593:Drivers/STM32L4xx_HAL_Driver/Src/stm32l4xx_hal_lptim.c ****   hlptim->State = HAL_LPTIM_STATE_READY;
 581              		.loc 1 593 17
 582 0026 7B68     		ldr	r3, [r7, #4]
 583 0028 0122     		movs	r2, #1
 584 002a 83F83620 		strb	r2, [r3, #54]
 594:Drivers/STM32L4xx_HAL_Driver/Src/stm32l4xx_hal_lptim.c **** 
 595:Drivers/STM32L4xx_HAL_Driver/Src/stm32l4xx_hal_lptim.c ****   /* Return function status */
 596:Drivers/STM32L4xx_HAL_Driver/Src/stm32l4xx_hal_lptim.c ****   return HAL_OK;
 585              		.loc 1 596 10
 586 002e 0023     		movs	r3, #0
 587              	.L29:
 597:Drivers/STM32L4xx_HAL_Driver/Src/stm32l4xx_hal_lptim.c **** }
 588              		.loc 1 597 1
 589 0030 1846     		mov	r0, r3
 590 0032 0837     		adds	r7, r7, #8
 591              		.cfi_def_cfa_offset 8
 592 0034 BD46     		mov	sp, r7
 593              		.cfi_def_cfa_register 13
 594              		@ sp needed
 595 0036 80BD     		pop	{r7, pc}
 596              		.cfi_endproc
 597              	.LFE450:
 599              		.section	.text.HAL_LPTIM_PWM_Start_IT,"ax",%progbits
 600              		.align	1
 601              		.global	HAL_LPTIM_PWM_Start_IT
ARM GAS  /tmp/ccB7T7H1.s 			page 22


 602              		.syntax unified
 603              		.thumb
 604              		.thumb_func
 606              	HAL_LPTIM_PWM_Start_IT:
 607              	.LFB451:
 598:Drivers/STM32L4xx_HAL_Driver/Src/stm32l4xx_hal_lptim.c **** 
 599:Drivers/STM32L4xx_HAL_Driver/Src/stm32l4xx_hal_lptim.c **** /**
 600:Drivers/STM32L4xx_HAL_Driver/Src/stm32l4xx_hal_lptim.c ****   * @brief  Start the LPTIM PWM generation in interrupt mode.
 601:Drivers/STM32L4xx_HAL_Driver/Src/stm32l4xx_hal_lptim.c ****   * @param  hlptim LPTIM handle
 602:Drivers/STM32L4xx_HAL_Driver/Src/stm32l4xx_hal_lptim.c ****   * @param  Period Specifies the Autoreload value.
 603:Drivers/STM32L4xx_HAL_Driver/Src/stm32l4xx_hal_lptim.c ****   *         This parameter must be a value between 0x0001 and 0xFFFF
 604:Drivers/STM32L4xx_HAL_Driver/Src/stm32l4xx_hal_lptim.c ****   * @param  Pulse Specifies the compare value.
 605:Drivers/STM32L4xx_HAL_Driver/Src/stm32l4xx_hal_lptim.c ****   *         This parameter must be a value between 0x0000 and 0xFFFF
 606:Drivers/STM32L4xx_HAL_Driver/Src/stm32l4xx_hal_lptim.c ****   * @retval HAL status
 607:Drivers/STM32L4xx_HAL_Driver/Src/stm32l4xx_hal_lptim.c ****   */
 608:Drivers/STM32L4xx_HAL_Driver/Src/stm32l4xx_hal_lptim.c **** HAL_StatusTypeDef HAL_LPTIM_PWM_Start_IT(LPTIM_HandleTypeDef *hlptim, uint32_t Period, uint32_t Pul
 609:Drivers/STM32L4xx_HAL_Driver/Src/stm32l4xx_hal_lptim.c **** {
 608              		.loc 1 609 1
 609              		.cfi_startproc
 610              		@ args = 0, pretend = 0, frame = 16
 611              		@ frame_needed = 1, uses_anonymous_args = 0
 612 0000 80B5     		push	{r7, lr}
 613              		.cfi_def_cfa_offset 8
 614              		.cfi_offset 7, -8
 615              		.cfi_offset 14, -4
 616 0002 84B0     		sub	sp, sp, #16
 617              		.cfi_def_cfa_offset 24
 618 0004 00AF     		add	r7, sp, #0
 619              		.cfi_def_cfa_register 7
 620 0006 F860     		str	r0, [r7, #12]
 621 0008 B960     		str	r1, [r7, #8]
 622 000a 7A60     		str	r2, [r7, #4]
 610:Drivers/STM32L4xx_HAL_Driver/Src/stm32l4xx_hal_lptim.c ****   /* Check the parameters */
 611:Drivers/STM32L4xx_HAL_Driver/Src/stm32l4xx_hal_lptim.c ****   assert_param(IS_LPTIM_INSTANCE(hlptim->Instance));
 612:Drivers/STM32L4xx_HAL_Driver/Src/stm32l4xx_hal_lptim.c ****   assert_param(IS_LPTIM_PERIOD(Period));
 613:Drivers/STM32L4xx_HAL_Driver/Src/stm32l4xx_hal_lptim.c ****   assert_param(IS_LPTIM_PULSE(Pulse));
 614:Drivers/STM32L4xx_HAL_Driver/Src/stm32l4xx_hal_lptim.c **** 
 615:Drivers/STM32L4xx_HAL_Driver/Src/stm32l4xx_hal_lptim.c ****   /* Set the LPTIM state */
 616:Drivers/STM32L4xx_HAL_Driver/Src/stm32l4xx_hal_lptim.c ****   hlptim->State = HAL_LPTIM_STATE_BUSY;
 623              		.loc 1 616 17
 624 000c FB68     		ldr	r3, [r7, #12]
 625 000e 0222     		movs	r2, #2
 626 0010 83F83620 		strb	r2, [r3, #54]
 617:Drivers/STM32L4xx_HAL_Driver/Src/stm32l4xx_hal_lptim.c **** 
 618:Drivers/STM32L4xx_HAL_Driver/Src/stm32l4xx_hal_lptim.c ****   /* Reset WAVE bit to set PWM mode */
 619:Drivers/STM32L4xx_HAL_Driver/Src/stm32l4xx_hal_lptim.c ****   hlptim->Instance->CFGR &= ~LPTIM_CFGR_WAVE;
 627              		.loc 1 619 9
 628 0014 FB68     		ldr	r3, [r7, #12]
 629 0016 1B68     		ldr	r3, [r3]
 630              		.loc 1 619 19
 631 0018 DA68     		ldr	r2, [r3, #12]
 632              		.loc 1 619 9
 633 001a FB68     		ldr	r3, [r7, #12]
 634 001c 1B68     		ldr	r3, [r3]
 635              		.loc 1 619 26
 636 001e 22F48012 		bic	r2, r2, #1048576
 637 0022 DA60     		str	r2, [r3, #12]
ARM GAS  /tmp/ccB7T7H1.s 			page 23


 620:Drivers/STM32L4xx_HAL_Driver/Src/stm32l4xx_hal_lptim.c **** 
 621:Drivers/STM32L4xx_HAL_Driver/Src/stm32l4xx_hal_lptim.c ****   /* Enable the Peripheral */
 622:Drivers/STM32L4xx_HAL_Driver/Src/stm32l4xx_hal_lptim.c ****   __HAL_LPTIM_ENABLE(hlptim);
 638              		.loc 1 622 3
 639 0024 FB68     		ldr	r3, [r7, #12]
 640 0026 1B68     		ldr	r3, [r3]
 641 0028 1A69     		ldr	r2, [r3, #16]
 642 002a FB68     		ldr	r3, [r7, #12]
 643 002c 1B68     		ldr	r3, [r3]
 644 002e 42F00102 		orr	r2, r2, #1
 645 0032 1A61     		str	r2, [r3, #16]
 623:Drivers/STM32L4xx_HAL_Driver/Src/stm32l4xx_hal_lptim.c **** 
 624:Drivers/STM32L4xx_HAL_Driver/Src/stm32l4xx_hal_lptim.c ****   /* Clear flag */
 625:Drivers/STM32L4xx_HAL_Driver/Src/stm32l4xx_hal_lptim.c ****   __HAL_LPTIM_CLEAR_FLAG(hlptim, LPTIM_FLAG_ARROK);
 646              		.loc 1 625 3
 647 0034 FB68     		ldr	r3, [r7, #12]
 648 0036 1B68     		ldr	r3, [r3]
 649 0038 1022     		movs	r2, #16
 650 003a 5A60     		str	r2, [r3, #4]
 626:Drivers/STM32L4xx_HAL_Driver/Src/stm32l4xx_hal_lptim.c **** 
 627:Drivers/STM32L4xx_HAL_Driver/Src/stm32l4xx_hal_lptim.c ****   /* Load the period value in the autoreload register */
 628:Drivers/STM32L4xx_HAL_Driver/Src/stm32l4xx_hal_lptim.c ****   __HAL_LPTIM_AUTORELOAD_SET(hlptim, Period);
 651              		.loc 1 628 3
 652 003c FB68     		ldr	r3, [r7, #12]
 653 003e 1B68     		ldr	r3, [r3]
 654 0040 BA68     		ldr	r2, [r7, #8]
 655 0042 9A61     		str	r2, [r3, #24]
 629:Drivers/STM32L4xx_HAL_Driver/Src/stm32l4xx_hal_lptim.c **** 
 630:Drivers/STM32L4xx_HAL_Driver/Src/stm32l4xx_hal_lptim.c ****   /* Wait for the completion of the write operation to the LPTIM_ARR register */
 631:Drivers/STM32L4xx_HAL_Driver/Src/stm32l4xx_hal_lptim.c ****   if (LPTIM_WaitForFlag(hlptim, LPTIM_FLAG_ARROK) == HAL_TIMEOUT)
 656              		.loc 1 631 7
 657 0044 1021     		movs	r1, #16
 658 0046 F868     		ldr	r0, [r7, #12]
 659 0048 FFF7FEFF 		bl	LPTIM_WaitForFlag
 660 004c 0346     		mov	r3, r0
 661              		.loc 1 631 6 discriminator 1
 662 004e 032B     		cmp	r3, #3
 663 0050 01D1     		bne	.L31
 632:Drivers/STM32L4xx_HAL_Driver/Src/stm32l4xx_hal_lptim.c ****   {
 633:Drivers/STM32L4xx_HAL_Driver/Src/stm32l4xx_hal_lptim.c ****     return HAL_TIMEOUT;
 664              		.loc 1 633 12
 665 0052 0323     		movs	r3, #3
 666 0054 5EE0     		b	.L32
 667              	.L31:
 634:Drivers/STM32L4xx_HAL_Driver/Src/stm32l4xx_hal_lptim.c ****   }
 635:Drivers/STM32L4xx_HAL_Driver/Src/stm32l4xx_hal_lptim.c **** 
 636:Drivers/STM32L4xx_HAL_Driver/Src/stm32l4xx_hal_lptim.c ****   /* Clear flag */
 637:Drivers/STM32L4xx_HAL_Driver/Src/stm32l4xx_hal_lptim.c ****   __HAL_LPTIM_CLEAR_FLAG(hlptim, LPTIM_FLAG_CMPOK);
 668              		.loc 1 637 3
 669 0056 FB68     		ldr	r3, [r7, #12]
 670 0058 1B68     		ldr	r3, [r3]
 671 005a 0822     		movs	r2, #8
 672 005c 5A60     		str	r2, [r3, #4]
 638:Drivers/STM32L4xx_HAL_Driver/Src/stm32l4xx_hal_lptim.c **** 
 639:Drivers/STM32L4xx_HAL_Driver/Src/stm32l4xx_hal_lptim.c ****   /* Load the pulse value in the compare register */
 640:Drivers/STM32L4xx_HAL_Driver/Src/stm32l4xx_hal_lptim.c ****   __HAL_LPTIM_COMPARE_SET(hlptim, Pulse);
 673              		.loc 1 640 3
ARM GAS  /tmp/ccB7T7H1.s 			page 24


 674 005e FB68     		ldr	r3, [r7, #12]
 675 0060 1B68     		ldr	r3, [r3]
 676 0062 7A68     		ldr	r2, [r7, #4]
 677 0064 5A61     		str	r2, [r3, #20]
 641:Drivers/STM32L4xx_HAL_Driver/Src/stm32l4xx_hal_lptim.c **** 
 642:Drivers/STM32L4xx_HAL_Driver/Src/stm32l4xx_hal_lptim.c ****   /* Wait for the completion of the write operation to the LPTIM_CMP register */
 643:Drivers/STM32L4xx_HAL_Driver/Src/stm32l4xx_hal_lptim.c ****   if (LPTIM_WaitForFlag(hlptim, LPTIM_FLAG_CMPOK) == HAL_TIMEOUT)
 678              		.loc 1 643 7
 679 0066 0821     		movs	r1, #8
 680 0068 F868     		ldr	r0, [r7, #12]
 681 006a FFF7FEFF 		bl	LPTIM_WaitForFlag
 682 006e 0346     		mov	r3, r0
 683              		.loc 1 643 6 discriminator 1
 684 0070 032B     		cmp	r3, #3
 685 0072 01D1     		bne	.L33
 644:Drivers/STM32L4xx_HAL_Driver/Src/stm32l4xx_hal_lptim.c ****   {
 645:Drivers/STM32L4xx_HAL_Driver/Src/stm32l4xx_hal_lptim.c ****     return HAL_TIMEOUT;
 686              		.loc 1 645 12
 687 0074 0323     		movs	r3, #3
 688 0076 4DE0     		b	.L32
 689              	.L33:
 646:Drivers/STM32L4xx_HAL_Driver/Src/stm32l4xx_hal_lptim.c ****   }
 647:Drivers/STM32L4xx_HAL_Driver/Src/stm32l4xx_hal_lptim.c **** 
 648:Drivers/STM32L4xx_HAL_Driver/Src/stm32l4xx_hal_lptim.c ****   /* Disable the Peripheral */
 649:Drivers/STM32L4xx_HAL_Driver/Src/stm32l4xx_hal_lptim.c ****   __HAL_LPTIM_DISABLE(hlptim);
 690              		.loc 1 649 3
 691 0078 F868     		ldr	r0, [r7, #12]
 692 007a FFF7FEFF 		bl	LPTIM_Disable
 650:Drivers/STM32L4xx_HAL_Driver/Src/stm32l4xx_hal_lptim.c **** 
 651:Drivers/STM32L4xx_HAL_Driver/Src/stm32l4xx_hal_lptim.c ****   if (HAL_LPTIM_GetState(hlptim) == HAL_LPTIM_STATE_TIMEOUT)
 693              		.loc 1 651 7
 694 007e F868     		ldr	r0, [r7, #12]
 695 0080 FFF7FEFF 		bl	HAL_LPTIM_GetState
 696 0084 0346     		mov	r3, r0
 697              		.loc 1 651 6 discriminator 1
 698 0086 032B     		cmp	r3, #3
 699 0088 01D1     		bne	.L34
 652:Drivers/STM32L4xx_HAL_Driver/Src/stm32l4xx_hal_lptim.c ****   {
 653:Drivers/STM32L4xx_HAL_Driver/Src/stm32l4xx_hal_lptim.c ****     return HAL_TIMEOUT;
 700              		.loc 1 653 12
 701 008a 0323     		movs	r3, #3
 702 008c 42E0     		b	.L32
 703              	.L34:
 654:Drivers/STM32L4xx_HAL_Driver/Src/stm32l4xx_hal_lptim.c ****   }
 655:Drivers/STM32L4xx_HAL_Driver/Src/stm32l4xx_hal_lptim.c **** 
 656:Drivers/STM32L4xx_HAL_Driver/Src/stm32l4xx_hal_lptim.c ****   /* Enable Autoreload write complete interrupt */
 657:Drivers/STM32L4xx_HAL_Driver/Src/stm32l4xx_hal_lptim.c ****   __HAL_LPTIM_ENABLE_IT(hlptim, LPTIM_IT_ARROK);
 704              		.loc 1 657 3
 705 008e FB68     		ldr	r3, [r7, #12]
 706 0090 1B68     		ldr	r3, [r3]
 707 0092 9A68     		ldr	r2, [r3, #8]
 708 0094 FB68     		ldr	r3, [r7, #12]
 709 0096 1B68     		ldr	r3, [r3]
 710 0098 42F01002 		orr	r2, r2, #16
 711 009c 9A60     		str	r2, [r3, #8]
 658:Drivers/STM32L4xx_HAL_Driver/Src/stm32l4xx_hal_lptim.c **** 
 659:Drivers/STM32L4xx_HAL_Driver/Src/stm32l4xx_hal_lptim.c ****   /* Enable Compare write complete interrupt */
ARM GAS  /tmp/ccB7T7H1.s 			page 25


 660:Drivers/STM32L4xx_HAL_Driver/Src/stm32l4xx_hal_lptim.c ****   __HAL_LPTIM_ENABLE_IT(hlptim, LPTIM_IT_CMPOK);
 712              		.loc 1 660 3
 713 009e FB68     		ldr	r3, [r7, #12]
 714 00a0 1B68     		ldr	r3, [r3]
 715 00a2 9A68     		ldr	r2, [r3, #8]
 716 00a4 FB68     		ldr	r3, [r7, #12]
 717 00a6 1B68     		ldr	r3, [r3]
 718 00a8 42F00802 		orr	r2, r2, #8
 719 00ac 9A60     		str	r2, [r3, #8]
 661:Drivers/STM32L4xx_HAL_Driver/Src/stm32l4xx_hal_lptim.c **** 
 662:Drivers/STM32L4xx_HAL_Driver/Src/stm32l4xx_hal_lptim.c ****   /* Enable Autoreload match interrupt */
 663:Drivers/STM32L4xx_HAL_Driver/Src/stm32l4xx_hal_lptim.c ****   __HAL_LPTIM_ENABLE_IT(hlptim, LPTIM_IT_ARRM);
 720              		.loc 1 663 3
 721 00ae FB68     		ldr	r3, [r7, #12]
 722 00b0 1B68     		ldr	r3, [r3]
 723 00b2 9A68     		ldr	r2, [r3, #8]
 724 00b4 FB68     		ldr	r3, [r7, #12]
 725 00b6 1B68     		ldr	r3, [r3]
 726 00b8 42F00202 		orr	r2, r2, #2
 727 00bc 9A60     		str	r2, [r3, #8]
 664:Drivers/STM32L4xx_HAL_Driver/Src/stm32l4xx_hal_lptim.c **** 
 665:Drivers/STM32L4xx_HAL_Driver/Src/stm32l4xx_hal_lptim.c ****   /* Enable Compare match interrupt */
 666:Drivers/STM32L4xx_HAL_Driver/Src/stm32l4xx_hal_lptim.c ****   __HAL_LPTIM_ENABLE_IT(hlptim, LPTIM_IT_CMPM);
 728              		.loc 1 666 3
 729 00be FB68     		ldr	r3, [r7, #12]
 730 00c0 1B68     		ldr	r3, [r3]
 731 00c2 9A68     		ldr	r2, [r3, #8]
 732 00c4 FB68     		ldr	r3, [r7, #12]
 733 00c6 1B68     		ldr	r3, [r3]
 734 00c8 42F00102 		orr	r2, r2, #1
 735 00cc 9A60     		str	r2, [r3, #8]
 667:Drivers/STM32L4xx_HAL_Driver/Src/stm32l4xx_hal_lptim.c **** 
 668:Drivers/STM32L4xx_HAL_Driver/Src/stm32l4xx_hal_lptim.c ****   /* If external trigger source is used, then enable external trigger interrupt */
 669:Drivers/STM32L4xx_HAL_Driver/Src/stm32l4xx_hal_lptim.c ****   if ((hlptim->Init.Trigger.Source) != LPTIM_TRIGSOURCE_SOFTWARE)
 736              		.loc 1 669 28
 737 00ce FB68     		ldr	r3, [r7, #12]
 738 00d0 5B69     		ldr	r3, [r3, #20]
 739              		.loc 1 669 6
 740 00d2 4FF6FF72 		movw	r2, #65535
 741 00d6 9342     		cmp	r3, r2
 742 00d8 07D0     		beq	.L35
 670:Drivers/STM32L4xx_HAL_Driver/Src/stm32l4xx_hal_lptim.c ****   {
 671:Drivers/STM32L4xx_HAL_Driver/Src/stm32l4xx_hal_lptim.c ****     /* Enable external trigger interrupt */
 672:Drivers/STM32L4xx_HAL_Driver/Src/stm32l4xx_hal_lptim.c ****     __HAL_LPTIM_ENABLE_IT(hlptim, LPTIM_IT_EXTTRIG);
 743              		.loc 1 672 5
 744 00da FB68     		ldr	r3, [r7, #12]
 745 00dc 1B68     		ldr	r3, [r3]
 746 00de 9A68     		ldr	r2, [r3, #8]
 747 00e0 FB68     		ldr	r3, [r7, #12]
 748 00e2 1B68     		ldr	r3, [r3]
 749 00e4 42F00402 		orr	r2, r2, #4
 750 00e8 9A60     		str	r2, [r3, #8]
 751              	.L35:
 673:Drivers/STM32L4xx_HAL_Driver/Src/stm32l4xx_hal_lptim.c ****   }
 674:Drivers/STM32L4xx_HAL_Driver/Src/stm32l4xx_hal_lptim.c **** #if defined(LPTIM_RCR_REP)
 675:Drivers/STM32L4xx_HAL_Driver/Src/stm32l4xx_hal_lptim.c **** 
 676:Drivers/STM32L4xx_HAL_Driver/Src/stm32l4xx_hal_lptim.c ****   /* Enable Rep Update Ok interrupt */
ARM GAS  /tmp/ccB7T7H1.s 			page 26


 677:Drivers/STM32L4xx_HAL_Driver/Src/stm32l4xx_hal_lptim.c ****   __HAL_LPTIM_ENABLE_IT(hlptim, LPTIM_IT_REPOK);
 678:Drivers/STM32L4xx_HAL_Driver/Src/stm32l4xx_hal_lptim.c **** 
 679:Drivers/STM32L4xx_HAL_Driver/Src/stm32l4xx_hal_lptim.c ****   /* Enable Update Event interrupt */
 680:Drivers/STM32L4xx_HAL_Driver/Src/stm32l4xx_hal_lptim.c ****   __HAL_LPTIM_ENABLE_IT(hlptim, LPTIM_IT_UPDATE);
 681:Drivers/STM32L4xx_HAL_Driver/Src/stm32l4xx_hal_lptim.c **** #endif
 682:Drivers/STM32L4xx_HAL_Driver/Src/stm32l4xx_hal_lptim.c **** 
 683:Drivers/STM32L4xx_HAL_Driver/Src/stm32l4xx_hal_lptim.c ****   /* Enable the Peripheral */
 684:Drivers/STM32L4xx_HAL_Driver/Src/stm32l4xx_hal_lptim.c ****   __HAL_LPTIM_ENABLE(hlptim);
 752              		.loc 1 684 3
 753 00ea FB68     		ldr	r3, [r7, #12]
 754 00ec 1B68     		ldr	r3, [r3]
 755 00ee 1A69     		ldr	r2, [r3, #16]
 756 00f0 FB68     		ldr	r3, [r7, #12]
 757 00f2 1B68     		ldr	r3, [r3]
 758 00f4 42F00102 		orr	r2, r2, #1
 759 00f8 1A61     		str	r2, [r3, #16]
 685:Drivers/STM32L4xx_HAL_Driver/Src/stm32l4xx_hal_lptim.c **** 
 686:Drivers/STM32L4xx_HAL_Driver/Src/stm32l4xx_hal_lptim.c ****   /* Start timer in continuous mode */
 687:Drivers/STM32L4xx_HAL_Driver/Src/stm32l4xx_hal_lptim.c ****   __HAL_LPTIM_START_CONTINUOUS(hlptim);
 760              		.loc 1 687 3
 761 00fa FB68     		ldr	r3, [r7, #12]
 762 00fc 1B68     		ldr	r3, [r3]
 763 00fe 1A69     		ldr	r2, [r3, #16]
 764 0100 FB68     		ldr	r3, [r7, #12]
 765 0102 1B68     		ldr	r3, [r3]
 766 0104 42F00402 		orr	r2, r2, #4
 767 0108 1A61     		str	r2, [r3, #16]
 688:Drivers/STM32L4xx_HAL_Driver/Src/stm32l4xx_hal_lptim.c **** 
 689:Drivers/STM32L4xx_HAL_Driver/Src/stm32l4xx_hal_lptim.c ****   /* Change the LPTIM state */
 690:Drivers/STM32L4xx_HAL_Driver/Src/stm32l4xx_hal_lptim.c ****   hlptim->State = HAL_LPTIM_STATE_READY;
 768              		.loc 1 690 17
 769 010a FB68     		ldr	r3, [r7, #12]
 770 010c 0122     		movs	r2, #1
 771 010e 83F83620 		strb	r2, [r3, #54]
 691:Drivers/STM32L4xx_HAL_Driver/Src/stm32l4xx_hal_lptim.c **** 
 692:Drivers/STM32L4xx_HAL_Driver/Src/stm32l4xx_hal_lptim.c ****   /* Return function status */
 693:Drivers/STM32L4xx_HAL_Driver/Src/stm32l4xx_hal_lptim.c ****   return HAL_OK;
 772              		.loc 1 693 10
 773 0112 0023     		movs	r3, #0
 774              	.L32:
 694:Drivers/STM32L4xx_HAL_Driver/Src/stm32l4xx_hal_lptim.c **** }
 775              		.loc 1 694 1
 776 0114 1846     		mov	r0, r3
 777 0116 1037     		adds	r7, r7, #16
 778              		.cfi_def_cfa_offset 8
 779 0118 BD46     		mov	sp, r7
 780              		.cfi_def_cfa_register 13
 781              		@ sp needed
 782 011a 80BD     		pop	{r7, pc}
 783              		.cfi_endproc
 784              	.LFE451:
 786              		.section	.text.HAL_LPTIM_PWM_Stop_IT,"ax",%progbits
 787              		.align	1
 788              		.global	HAL_LPTIM_PWM_Stop_IT
 789              		.syntax unified
 790              		.thumb
 791              		.thumb_func
ARM GAS  /tmp/ccB7T7H1.s 			page 27


 793              	HAL_LPTIM_PWM_Stop_IT:
 794              	.LFB452:
 695:Drivers/STM32L4xx_HAL_Driver/Src/stm32l4xx_hal_lptim.c **** 
 696:Drivers/STM32L4xx_HAL_Driver/Src/stm32l4xx_hal_lptim.c **** /**
 697:Drivers/STM32L4xx_HAL_Driver/Src/stm32l4xx_hal_lptim.c ****   * @brief  Stop the LPTIM PWM generation in interrupt mode.
 698:Drivers/STM32L4xx_HAL_Driver/Src/stm32l4xx_hal_lptim.c ****   * @param  hlptim LPTIM handle
 699:Drivers/STM32L4xx_HAL_Driver/Src/stm32l4xx_hal_lptim.c ****   * @retval HAL status
 700:Drivers/STM32L4xx_HAL_Driver/Src/stm32l4xx_hal_lptim.c ****   */
 701:Drivers/STM32L4xx_HAL_Driver/Src/stm32l4xx_hal_lptim.c **** HAL_StatusTypeDef HAL_LPTIM_PWM_Stop_IT(LPTIM_HandleTypeDef *hlptim)
 702:Drivers/STM32L4xx_HAL_Driver/Src/stm32l4xx_hal_lptim.c **** {
 795              		.loc 1 702 1
 796              		.cfi_startproc
 797              		@ args = 0, pretend = 0, frame = 8
 798              		@ frame_needed = 1, uses_anonymous_args = 0
 799 0000 80B5     		push	{r7, lr}
 800              		.cfi_def_cfa_offset 8
 801              		.cfi_offset 7, -8
 802              		.cfi_offset 14, -4
 803 0002 82B0     		sub	sp, sp, #8
 804              		.cfi_def_cfa_offset 16
 805 0004 00AF     		add	r7, sp, #0
 806              		.cfi_def_cfa_register 7
 807 0006 7860     		str	r0, [r7, #4]
 703:Drivers/STM32L4xx_HAL_Driver/Src/stm32l4xx_hal_lptim.c ****   /* Check the parameters */
 704:Drivers/STM32L4xx_HAL_Driver/Src/stm32l4xx_hal_lptim.c ****   assert_param(IS_LPTIM_INSTANCE(hlptim->Instance));
 705:Drivers/STM32L4xx_HAL_Driver/Src/stm32l4xx_hal_lptim.c **** 
 706:Drivers/STM32L4xx_HAL_Driver/Src/stm32l4xx_hal_lptim.c ****   /* Change the LPTIM state */
 707:Drivers/STM32L4xx_HAL_Driver/Src/stm32l4xx_hal_lptim.c ****   hlptim->State = HAL_LPTIM_STATE_BUSY;
 808              		.loc 1 707 17
 809 0008 7B68     		ldr	r3, [r7, #4]
 810 000a 0222     		movs	r2, #2
 811 000c 83F83620 		strb	r2, [r3, #54]
 708:Drivers/STM32L4xx_HAL_Driver/Src/stm32l4xx_hal_lptim.c **** 
 709:Drivers/STM32L4xx_HAL_Driver/Src/stm32l4xx_hal_lptim.c ****   /* Disable the Peripheral */
 710:Drivers/STM32L4xx_HAL_Driver/Src/stm32l4xx_hal_lptim.c ****   __HAL_LPTIM_DISABLE(hlptim);
 812              		.loc 1 710 3
 813 0010 7868     		ldr	r0, [r7, #4]
 814 0012 FFF7FEFF 		bl	LPTIM_Disable
 711:Drivers/STM32L4xx_HAL_Driver/Src/stm32l4xx_hal_lptim.c **** 
 712:Drivers/STM32L4xx_HAL_Driver/Src/stm32l4xx_hal_lptim.c ****   if (HAL_LPTIM_GetState(hlptim) == HAL_LPTIM_STATE_TIMEOUT)
 815              		.loc 1 712 7
 816 0016 7868     		ldr	r0, [r7, #4]
 817 0018 FFF7FEFF 		bl	HAL_LPTIM_GetState
 818 001c 0346     		mov	r3, r0
 819              		.loc 1 712 6 discriminator 1
 820 001e 032B     		cmp	r3, #3
 821 0020 01D1     		bne	.L37
 713:Drivers/STM32L4xx_HAL_Driver/Src/stm32l4xx_hal_lptim.c ****   {
 714:Drivers/STM32L4xx_HAL_Driver/Src/stm32l4xx_hal_lptim.c ****     return HAL_TIMEOUT;
 822              		.loc 1 714 12
 823 0022 0323     		movs	r3, #3
 824 0024 32E0     		b	.L38
 825              	.L37:
 715:Drivers/STM32L4xx_HAL_Driver/Src/stm32l4xx_hal_lptim.c ****   }
 716:Drivers/STM32L4xx_HAL_Driver/Src/stm32l4xx_hal_lptim.c **** 
 717:Drivers/STM32L4xx_HAL_Driver/Src/stm32l4xx_hal_lptim.c ****   /* Disable Autoreload write complete interrupt */
 718:Drivers/STM32L4xx_HAL_Driver/Src/stm32l4xx_hal_lptim.c ****   __HAL_LPTIM_DISABLE_IT(hlptim, LPTIM_IT_ARROK);
ARM GAS  /tmp/ccB7T7H1.s 			page 28


 826              		.loc 1 718 3
 827 0026 7B68     		ldr	r3, [r7, #4]
 828 0028 1B68     		ldr	r3, [r3]
 829 002a 9A68     		ldr	r2, [r3, #8]
 830 002c 7B68     		ldr	r3, [r7, #4]
 831 002e 1B68     		ldr	r3, [r3]
 832 0030 22F01002 		bic	r2, r2, #16
 833 0034 9A60     		str	r2, [r3, #8]
 719:Drivers/STM32L4xx_HAL_Driver/Src/stm32l4xx_hal_lptim.c **** 
 720:Drivers/STM32L4xx_HAL_Driver/Src/stm32l4xx_hal_lptim.c ****   /* Disable Compare write complete interrupt */
 721:Drivers/STM32L4xx_HAL_Driver/Src/stm32l4xx_hal_lptim.c ****   __HAL_LPTIM_DISABLE_IT(hlptim, LPTIM_IT_CMPOK);
 834              		.loc 1 721 3
 835 0036 7B68     		ldr	r3, [r7, #4]
 836 0038 1B68     		ldr	r3, [r3]
 837 003a 9A68     		ldr	r2, [r3, #8]
 838 003c 7B68     		ldr	r3, [r7, #4]
 839 003e 1B68     		ldr	r3, [r3]
 840 0040 22F00802 		bic	r2, r2, #8
 841 0044 9A60     		str	r2, [r3, #8]
 722:Drivers/STM32L4xx_HAL_Driver/Src/stm32l4xx_hal_lptim.c **** 
 723:Drivers/STM32L4xx_HAL_Driver/Src/stm32l4xx_hal_lptim.c ****   /* Disable Autoreload match interrupt */
 724:Drivers/STM32L4xx_HAL_Driver/Src/stm32l4xx_hal_lptim.c ****   __HAL_LPTIM_DISABLE_IT(hlptim, LPTIM_IT_ARRM);
 842              		.loc 1 724 3
 843 0046 7B68     		ldr	r3, [r7, #4]
 844 0048 1B68     		ldr	r3, [r3]
 845 004a 9A68     		ldr	r2, [r3, #8]
 846 004c 7B68     		ldr	r3, [r7, #4]
 847 004e 1B68     		ldr	r3, [r3]
 848 0050 22F00202 		bic	r2, r2, #2
 849 0054 9A60     		str	r2, [r3, #8]
 725:Drivers/STM32L4xx_HAL_Driver/Src/stm32l4xx_hal_lptim.c **** 
 726:Drivers/STM32L4xx_HAL_Driver/Src/stm32l4xx_hal_lptim.c ****   /* Disable Compare match interrupt */
 727:Drivers/STM32L4xx_HAL_Driver/Src/stm32l4xx_hal_lptim.c ****   __HAL_LPTIM_DISABLE_IT(hlptim, LPTIM_IT_CMPM);
 850              		.loc 1 727 3
 851 0056 7B68     		ldr	r3, [r7, #4]
 852 0058 1B68     		ldr	r3, [r3]
 853 005a 9A68     		ldr	r2, [r3, #8]
 854 005c 7B68     		ldr	r3, [r7, #4]
 855 005e 1B68     		ldr	r3, [r3]
 856 0060 22F00102 		bic	r2, r2, #1
 857 0064 9A60     		str	r2, [r3, #8]
 728:Drivers/STM32L4xx_HAL_Driver/Src/stm32l4xx_hal_lptim.c **** 
 729:Drivers/STM32L4xx_HAL_Driver/Src/stm32l4xx_hal_lptim.c ****   /* If external trigger source is used, then disable external trigger interrupt */
 730:Drivers/STM32L4xx_HAL_Driver/Src/stm32l4xx_hal_lptim.c ****   if ((hlptim->Init.Trigger.Source) != LPTIM_TRIGSOURCE_SOFTWARE)
 858              		.loc 1 730 28
 859 0066 7B68     		ldr	r3, [r7, #4]
 860 0068 5B69     		ldr	r3, [r3, #20]
 861              		.loc 1 730 6
 862 006a 4FF6FF72 		movw	r2, #65535
 863 006e 9342     		cmp	r3, r2
 864 0070 07D0     		beq	.L39
 731:Drivers/STM32L4xx_HAL_Driver/Src/stm32l4xx_hal_lptim.c ****   {
 732:Drivers/STM32L4xx_HAL_Driver/Src/stm32l4xx_hal_lptim.c ****     /* Disable external trigger interrupt */
 733:Drivers/STM32L4xx_HAL_Driver/Src/stm32l4xx_hal_lptim.c ****     __HAL_LPTIM_DISABLE_IT(hlptim, LPTIM_IT_EXTTRIG);
 865              		.loc 1 733 5
 866 0072 7B68     		ldr	r3, [r7, #4]
 867 0074 1B68     		ldr	r3, [r3]
ARM GAS  /tmp/ccB7T7H1.s 			page 29


 868 0076 9A68     		ldr	r2, [r3, #8]
 869 0078 7B68     		ldr	r3, [r7, #4]
 870 007a 1B68     		ldr	r3, [r3]
 871 007c 22F00402 		bic	r2, r2, #4
 872 0080 9A60     		str	r2, [r3, #8]
 873              	.L39:
 734:Drivers/STM32L4xx_HAL_Driver/Src/stm32l4xx_hal_lptim.c ****   }
 735:Drivers/STM32L4xx_HAL_Driver/Src/stm32l4xx_hal_lptim.c **** #if defined(LPTIM_RCR_REP)
 736:Drivers/STM32L4xx_HAL_Driver/Src/stm32l4xx_hal_lptim.c **** 
 737:Drivers/STM32L4xx_HAL_Driver/Src/stm32l4xx_hal_lptim.c ****   /* Enable Rep Update Ok interrupt */
 738:Drivers/STM32L4xx_HAL_Driver/Src/stm32l4xx_hal_lptim.c ****   __HAL_LPTIM_DISABLE_IT(hlptim, LPTIM_IT_REPOK);
 739:Drivers/STM32L4xx_HAL_Driver/Src/stm32l4xx_hal_lptim.c **** 
 740:Drivers/STM32L4xx_HAL_Driver/Src/stm32l4xx_hal_lptim.c ****   /* Enable Update Event interrupt */
 741:Drivers/STM32L4xx_HAL_Driver/Src/stm32l4xx_hal_lptim.c ****   __HAL_LPTIM_DISABLE_IT(hlptim, LPTIM_IT_UPDATE);
 742:Drivers/STM32L4xx_HAL_Driver/Src/stm32l4xx_hal_lptim.c **** #endif
 743:Drivers/STM32L4xx_HAL_Driver/Src/stm32l4xx_hal_lptim.c **** 
 744:Drivers/STM32L4xx_HAL_Driver/Src/stm32l4xx_hal_lptim.c ****   /* Change the LPTIM state */
 745:Drivers/STM32L4xx_HAL_Driver/Src/stm32l4xx_hal_lptim.c ****   hlptim->State = HAL_LPTIM_STATE_READY;
 874              		.loc 1 745 17
 875 0082 7B68     		ldr	r3, [r7, #4]
 876 0084 0122     		movs	r2, #1
 877 0086 83F83620 		strb	r2, [r3, #54]
 746:Drivers/STM32L4xx_HAL_Driver/Src/stm32l4xx_hal_lptim.c **** 
 747:Drivers/STM32L4xx_HAL_Driver/Src/stm32l4xx_hal_lptim.c ****   /* Return function status */
 748:Drivers/STM32L4xx_HAL_Driver/Src/stm32l4xx_hal_lptim.c ****   return HAL_OK;
 878              		.loc 1 748 10
 879 008a 0023     		movs	r3, #0
 880              	.L38:
 749:Drivers/STM32L4xx_HAL_Driver/Src/stm32l4xx_hal_lptim.c **** }
 881              		.loc 1 749 1
 882 008c 1846     		mov	r0, r3
 883 008e 0837     		adds	r7, r7, #8
 884              		.cfi_def_cfa_offset 8
 885 0090 BD46     		mov	sp, r7
 886              		.cfi_def_cfa_register 13
 887              		@ sp needed
 888 0092 80BD     		pop	{r7, pc}
 889              		.cfi_endproc
 890              	.LFE452:
 892              		.section	.text.HAL_LPTIM_OnePulse_Start,"ax",%progbits
 893              		.align	1
 894              		.global	HAL_LPTIM_OnePulse_Start
 895              		.syntax unified
 896              		.thumb
 897              		.thumb_func
 899              	HAL_LPTIM_OnePulse_Start:
 900              	.LFB453:
 750:Drivers/STM32L4xx_HAL_Driver/Src/stm32l4xx_hal_lptim.c **** 
 751:Drivers/STM32L4xx_HAL_Driver/Src/stm32l4xx_hal_lptim.c **** /**
 752:Drivers/STM32L4xx_HAL_Driver/Src/stm32l4xx_hal_lptim.c ****   * @brief  Start the LPTIM One pulse generation.
 753:Drivers/STM32L4xx_HAL_Driver/Src/stm32l4xx_hal_lptim.c ****   * @param  hlptim LPTIM handle
 754:Drivers/STM32L4xx_HAL_Driver/Src/stm32l4xx_hal_lptim.c ****   * @param  Period Specifies the Autoreload value.
 755:Drivers/STM32L4xx_HAL_Driver/Src/stm32l4xx_hal_lptim.c ****   *         This parameter must be a value between 0x0001 and 0xFFFF.
 756:Drivers/STM32L4xx_HAL_Driver/Src/stm32l4xx_hal_lptim.c ****   * @param  Pulse Specifies the compare value.
 757:Drivers/STM32L4xx_HAL_Driver/Src/stm32l4xx_hal_lptim.c ****   *         This parameter must be a value between 0x0000 and 0xFFFF.
 758:Drivers/STM32L4xx_HAL_Driver/Src/stm32l4xx_hal_lptim.c ****   * @retval HAL status
 759:Drivers/STM32L4xx_HAL_Driver/Src/stm32l4xx_hal_lptim.c ****   */
ARM GAS  /tmp/ccB7T7H1.s 			page 30


 760:Drivers/STM32L4xx_HAL_Driver/Src/stm32l4xx_hal_lptim.c **** HAL_StatusTypeDef HAL_LPTIM_OnePulse_Start(LPTIM_HandleTypeDef *hlptim, uint32_t Period, uint32_t P
 761:Drivers/STM32L4xx_HAL_Driver/Src/stm32l4xx_hal_lptim.c **** {
 901              		.loc 1 761 1
 902              		.cfi_startproc
 903              		@ args = 0, pretend = 0, frame = 16
 904              		@ frame_needed = 1, uses_anonymous_args = 0
 905 0000 80B5     		push	{r7, lr}
 906              		.cfi_def_cfa_offset 8
 907              		.cfi_offset 7, -8
 908              		.cfi_offset 14, -4
 909 0002 84B0     		sub	sp, sp, #16
 910              		.cfi_def_cfa_offset 24
 911 0004 00AF     		add	r7, sp, #0
 912              		.cfi_def_cfa_register 7
 913 0006 F860     		str	r0, [r7, #12]
 914 0008 B960     		str	r1, [r7, #8]
 915 000a 7A60     		str	r2, [r7, #4]
 762:Drivers/STM32L4xx_HAL_Driver/Src/stm32l4xx_hal_lptim.c ****   /* Check the parameters */
 763:Drivers/STM32L4xx_HAL_Driver/Src/stm32l4xx_hal_lptim.c ****   assert_param(IS_LPTIM_INSTANCE(hlptim->Instance));
 764:Drivers/STM32L4xx_HAL_Driver/Src/stm32l4xx_hal_lptim.c ****   assert_param(IS_LPTIM_PERIOD(Period));
 765:Drivers/STM32L4xx_HAL_Driver/Src/stm32l4xx_hal_lptim.c ****   assert_param(IS_LPTIM_PULSE(Pulse));
 766:Drivers/STM32L4xx_HAL_Driver/Src/stm32l4xx_hal_lptim.c **** 
 767:Drivers/STM32L4xx_HAL_Driver/Src/stm32l4xx_hal_lptim.c ****   /* Set the LPTIM state */
 768:Drivers/STM32L4xx_HAL_Driver/Src/stm32l4xx_hal_lptim.c ****   hlptim->State = HAL_LPTIM_STATE_BUSY;
 916              		.loc 1 768 17
 917 000c FB68     		ldr	r3, [r7, #12]
 918 000e 0222     		movs	r2, #2
 919 0010 83F83620 		strb	r2, [r3, #54]
 769:Drivers/STM32L4xx_HAL_Driver/Src/stm32l4xx_hal_lptim.c **** 
 770:Drivers/STM32L4xx_HAL_Driver/Src/stm32l4xx_hal_lptim.c ****   /* Reset WAVE bit to set one pulse mode */
 771:Drivers/STM32L4xx_HAL_Driver/Src/stm32l4xx_hal_lptim.c ****   hlptim->Instance->CFGR &= ~LPTIM_CFGR_WAVE;
 920              		.loc 1 771 9
 921 0014 FB68     		ldr	r3, [r7, #12]
 922 0016 1B68     		ldr	r3, [r3]
 923              		.loc 1 771 19
 924 0018 DA68     		ldr	r2, [r3, #12]
 925              		.loc 1 771 9
 926 001a FB68     		ldr	r3, [r7, #12]
 927 001c 1B68     		ldr	r3, [r3]
 928              		.loc 1 771 26
 929 001e 22F48012 		bic	r2, r2, #1048576
 930 0022 DA60     		str	r2, [r3, #12]
 772:Drivers/STM32L4xx_HAL_Driver/Src/stm32l4xx_hal_lptim.c **** 
 773:Drivers/STM32L4xx_HAL_Driver/Src/stm32l4xx_hal_lptim.c ****   /* Enable the Peripheral */
 774:Drivers/STM32L4xx_HAL_Driver/Src/stm32l4xx_hal_lptim.c ****   __HAL_LPTIM_ENABLE(hlptim);
 931              		.loc 1 774 3
 932 0024 FB68     		ldr	r3, [r7, #12]
 933 0026 1B68     		ldr	r3, [r3]
 934 0028 1A69     		ldr	r2, [r3, #16]
 935 002a FB68     		ldr	r3, [r7, #12]
 936 002c 1B68     		ldr	r3, [r3]
 937 002e 42F00102 		orr	r2, r2, #1
 938 0032 1A61     		str	r2, [r3, #16]
 775:Drivers/STM32L4xx_HAL_Driver/Src/stm32l4xx_hal_lptim.c **** 
 776:Drivers/STM32L4xx_HAL_Driver/Src/stm32l4xx_hal_lptim.c ****   /* Clear flag */
 777:Drivers/STM32L4xx_HAL_Driver/Src/stm32l4xx_hal_lptim.c ****   __HAL_LPTIM_CLEAR_FLAG(hlptim, LPTIM_FLAG_ARROK);
 939              		.loc 1 777 3
ARM GAS  /tmp/ccB7T7H1.s 			page 31


 940 0034 FB68     		ldr	r3, [r7, #12]
 941 0036 1B68     		ldr	r3, [r3]
 942 0038 1022     		movs	r2, #16
 943 003a 5A60     		str	r2, [r3, #4]
 778:Drivers/STM32L4xx_HAL_Driver/Src/stm32l4xx_hal_lptim.c **** 
 779:Drivers/STM32L4xx_HAL_Driver/Src/stm32l4xx_hal_lptim.c ****   /* Load the period value in the autoreload register */
 780:Drivers/STM32L4xx_HAL_Driver/Src/stm32l4xx_hal_lptim.c ****   __HAL_LPTIM_AUTORELOAD_SET(hlptim, Period);
 944              		.loc 1 780 3
 945 003c FB68     		ldr	r3, [r7, #12]
 946 003e 1B68     		ldr	r3, [r3]
 947 0040 BA68     		ldr	r2, [r7, #8]
 948 0042 9A61     		str	r2, [r3, #24]
 781:Drivers/STM32L4xx_HAL_Driver/Src/stm32l4xx_hal_lptim.c **** 
 782:Drivers/STM32L4xx_HAL_Driver/Src/stm32l4xx_hal_lptim.c ****   /* Wait for the completion of the write operation to the LPTIM_ARR register */
 783:Drivers/STM32L4xx_HAL_Driver/Src/stm32l4xx_hal_lptim.c ****   if (LPTIM_WaitForFlag(hlptim, LPTIM_FLAG_ARROK) == HAL_TIMEOUT)
 949              		.loc 1 783 7
 950 0044 1021     		movs	r1, #16
 951 0046 F868     		ldr	r0, [r7, #12]
 952 0048 FFF7FEFF 		bl	LPTIM_WaitForFlag
 953 004c 0346     		mov	r3, r0
 954              		.loc 1 783 6 discriminator 1
 955 004e 032B     		cmp	r3, #3
 956 0050 01D1     		bne	.L41
 784:Drivers/STM32L4xx_HAL_Driver/Src/stm32l4xx_hal_lptim.c ****   {
 785:Drivers/STM32L4xx_HAL_Driver/Src/stm32l4xx_hal_lptim.c ****     return HAL_TIMEOUT;
 957              		.loc 1 785 12
 958 0052 0323     		movs	r3, #3
 959 0054 1DE0     		b	.L42
 960              	.L41:
 786:Drivers/STM32L4xx_HAL_Driver/Src/stm32l4xx_hal_lptim.c ****   }
 787:Drivers/STM32L4xx_HAL_Driver/Src/stm32l4xx_hal_lptim.c **** 
 788:Drivers/STM32L4xx_HAL_Driver/Src/stm32l4xx_hal_lptim.c ****   /* Clear flag */
 789:Drivers/STM32L4xx_HAL_Driver/Src/stm32l4xx_hal_lptim.c ****   __HAL_LPTIM_CLEAR_FLAG(hlptim, LPTIM_FLAG_CMPOK);
 961              		.loc 1 789 3
 962 0056 FB68     		ldr	r3, [r7, #12]
 963 0058 1B68     		ldr	r3, [r3]
 964 005a 0822     		movs	r2, #8
 965 005c 5A60     		str	r2, [r3, #4]
 790:Drivers/STM32L4xx_HAL_Driver/Src/stm32l4xx_hal_lptim.c **** 
 791:Drivers/STM32L4xx_HAL_Driver/Src/stm32l4xx_hal_lptim.c ****   /* Load the pulse value in the compare register */
 792:Drivers/STM32L4xx_HAL_Driver/Src/stm32l4xx_hal_lptim.c ****   __HAL_LPTIM_COMPARE_SET(hlptim, Pulse);
 966              		.loc 1 792 3
 967 005e FB68     		ldr	r3, [r7, #12]
 968 0060 1B68     		ldr	r3, [r3]
 969 0062 7A68     		ldr	r2, [r7, #4]
 970 0064 5A61     		str	r2, [r3, #20]
 793:Drivers/STM32L4xx_HAL_Driver/Src/stm32l4xx_hal_lptim.c **** 
 794:Drivers/STM32L4xx_HAL_Driver/Src/stm32l4xx_hal_lptim.c ****   /* Wait for the completion of the write operation to the LPTIM_CMP register */
 795:Drivers/STM32L4xx_HAL_Driver/Src/stm32l4xx_hal_lptim.c ****   if (LPTIM_WaitForFlag(hlptim, LPTIM_FLAG_CMPOK) == HAL_TIMEOUT)
 971              		.loc 1 795 7
 972 0066 0821     		movs	r1, #8
 973 0068 F868     		ldr	r0, [r7, #12]
 974 006a FFF7FEFF 		bl	LPTIM_WaitForFlag
 975 006e 0346     		mov	r3, r0
 976              		.loc 1 795 6 discriminator 1
 977 0070 032B     		cmp	r3, #3
 978 0072 01D1     		bne	.L43
ARM GAS  /tmp/ccB7T7H1.s 			page 32


 796:Drivers/STM32L4xx_HAL_Driver/Src/stm32l4xx_hal_lptim.c ****   {
 797:Drivers/STM32L4xx_HAL_Driver/Src/stm32l4xx_hal_lptim.c ****     return HAL_TIMEOUT;
 979              		.loc 1 797 12
 980 0074 0323     		movs	r3, #3
 981 0076 0CE0     		b	.L42
 982              	.L43:
 798:Drivers/STM32L4xx_HAL_Driver/Src/stm32l4xx_hal_lptim.c ****   }
 799:Drivers/STM32L4xx_HAL_Driver/Src/stm32l4xx_hal_lptim.c **** 
 800:Drivers/STM32L4xx_HAL_Driver/Src/stm32l4xx_hal_lptim.c ****   /* Start timer in single (one shot) mode */
 801:Drivers/STM32L4xx_HAL_Driver/Src/stm32l4xx_hal_lptim.c ****   __HAL_LPTIM_START_SINGLE(hlptim);
 983              		.loc 1 801 3
 984 0078 FB68     		ldr	r3, [r7, #12]
 985 007a 1B68     		ldr	r3, [r3]
 986 007c 1A69     		ldr	r2, [r3, #16]
 987 007e FB68     		ldr	r3, [r7, #12]
 988 0080 1B68     		ldr	r3, [r3]
 989 0082 42F00202 		orr	r2, r2, #2
 990 0086 1A61     		str	r2, [r3, #16]
 802:Drivers/STM32L4xx_HAL_Driver/Src/stm32l4xx_hal_lptim.c **** 
 803:Drivers/STM32L4xx_HAL_Driver/Src/stm32l4xx_hal_lptim.c ****   /* Change the LPTIM state */
 804:Drivers/STM32L4xx_HAL_Driver/Src/stm32l4xx_hal_lptim.c ****   hlptim->State = HAL_LPTIM_STATE_READY;
 991              		.loc 1 804 17
 992 0088 FB68     		ldr	r3, [r7, #12]
 993 008a 0122     		movs	r2, #1
 994 008c 83F83620 		strb	r2, [r3, #54]
 805:Drivers/STM32L4xx_HAL_Driver/Src/stm32l4xx_hal_lptim.c **** 
 806:Drivers/STM32L4xx_HAL_Driver/Src/stm32l4xx_hal_lptim.c ****   /* Return function status */
 807:Drivers/STM32L4xx_HAL_Driver/Src/stm32l4xx_hal_lptim.c ****   return HAL_OK;
 995              		.loc 1 807 10
 996 0090 0023     		movs	r3, #0
 997              	.L42:
 808:Drivers/STM32L4xx_HAL_Driver/Src/stm32l4xx_hal_lptim.c **** }
 998              		.loc 1 808 1
 999 0092 1846     		mov	r0, r3
 1000 0094 1037     		adds	r7, r7, #16
 1001              		.cfi_def_cfa_offset 8
 1002 0096 BD46     		mov	sp, r7
 1003              		.cfi_def_cfa_register 13
 1004              		@ sp needed
 1005 0098 80BD     		pop	{r7, pc}
 1006              		.cfi_endproc
 1007              	.LFE453:
 1009              		.section	.text.HAL_LPTIM_OnePulse_Stop,"ax",%progbits
 1010              		.align	1
 1011              		.global	HAL_LPTIM_OnePulse_Stop
 1012              		.syntax unified
 1013              		.thumb
 1014              		.thumb_func
 1016              	HAL_LPTIM_OnePulse_Stop:
 1017              	.LFB454:
 809:Drivers/STM32L4xx_HAL_Driver/Src/stm32l4xx_hal_lptim.c **** 
 810:Drivers/STM32L4xx_HAL_Driver/Src/stm32l4xx_hal_lptim.c **** /**
 811:Drivers/STM32L4xx_HAL_Driver/Src/stm32l4xx_hal_lptim.c ****   * @brief  Stop the LPTIM One pulse generation.
 812:Drivers/STM32L4xx_HAL_Driver/Src/stm32l4xx_hal_lptim.c ****   * @param  hlptim LPTIM handle
 813:Drivers/STM32L4xx_HAL_Driver/Src/stm32l4xx_hal_lptim.c ****   * @retval HAL status
 814:Drivers/STM32L4xx_HAL_Driver/Src/stm32l4xx_hal_lptim.c ****   */
 815:Drivers/STM32L4xx_HAL_Driver/Src/stm32l4xx_hal_lptim.c **** HAL_StatusTypeDef HAL_LPTIM_OnePulse_Stop(LPTIM_HandleTypeDef *hlptim)
ARM GAS  /tmp/ccB7T7H1.s 			page 33


 816:Drivers/STM32L4xx_HAL_Driver/Src/stm32l4xx_hal_lptim.c **** {
 1018              		.loc 1 816 1
 1019              		.cfi_startproc
 1020              		@ args = 0, pretend = 0, frame = 8
 1021              		@ frame_needed = 1, uses_anonymous_args = 0
 1022 0000 80B5     		push	{r7, lr}
 1023              		.cfi_def_cfa_offset 8
 1024              		.cfi_offset 7, -8
 1025              		.cfi_offset 14, -4
 1026 0002 82B0     		sub	sp, sp, #8
 1027              		.cfi_def_cfa_offset 16
 1028 0004 00AF     		add	r7, sp, #0
 1029              		.cfi_def_cfa_register 7
 1030 0006 7860     		str	r0, [r7, #4]
 817:Drivers/STM32L4xx_HAL_Driver/Src/stm32l4xx_hal_lptim.c ****   /* Check the parameters */
 818:Drivers/STM32L4xx_HAL_Driver/Src/stm32l4xx_hal_lptim.c ****   assert_param(IS_LPTIM_INSTANCE(hlptim->Instance));
 819:Drivers/STM32L4xx_HAL_Driver/Src/stm32l4xx_hal_lptim.c **** 
 820:Drivers/STM32L4xx_HAL_Driver/Src/stm32l4xx_hal_lptim.c ****   /* Set the LPTIM state */
 821:Drivers/STM32L4xx_HAL_Driver/Src/stm32l4xx_hal_lptim.c ****   hlptim->State = HAL_LPTIM_STATE_BUSY;
 1031              		.loc 1 821 17
 1032 0008 7B68     		ldr	r3, [r7, #4]
 1033 000a 0222     		movs	r2, #2
 1034 000c 83F83620 		strb	r2, [r3, #54]
 822:Drivers/STM32L4xx_HAL_Driver/Src/stm32l4xx_hal_lptim.c **** 
 823:Drivers/STM32L4xx_HAL_Driver/Src/stm32l4xx_hal_lptim.c ****   /* Disable the Peripheral */
 824:Drivers/STM32L4xx_HAL_Driver/Src/stm32l4xx_hal_lptim.c ****   __HAL_LPTIM_DISABLE(hlptim);
 1035              		.loc 1 824 3
 1036 0010 7868     		ldr	r0, [r7, #4]
 1037 0012 FFF7FEFF 		bl	LPTIM_Disable
 825:Drivers/STM32L4xx_HAL_Driver/Src/stm32l4xx_hal_lptim.c **** 
 826:Drivers/STM32L4xx_HAL_Driver/Src/stm32l4xx_hal_lptim.c ****   if (HAL_LPTIM_GetState(hlptim) == HAL_LPTIM_STATE_TIMEOUT)
 1038              		.loc 1 826 7
 1039 0016 7868     		ldr	r0, [r7, #4]
 1040 0018 FFF7FEFF 		bl	HAL_LPTIM_GetState
 1041 001c 0346     		mov	r3, r0
 1042              		.loc 1 826 6 discriminator 1
 1043 001e 032B     		cmp	r3, #3
 1044 0020 01D1     		bne	.L45
 827:Drivers/STM32L4xx_HAL_Driver/Src/stm32l4xx_hal_lptim.c ****   {
 828:Drivers/STM32L4xx_HAL_Driver/Src/stm32l4xx_hal_lptim.c ****     return HAL_TIMEOUT;
 1045              		.loc 1 828 12
 1046 0022 0323     		movs	r3, #3
 1047 0024 04E0     		b	.L46
 1048              	.L45:
 829:Drivers/STM32L4xx_HAL_Driver/Src/stm32l4xx_hal_lptim.c ****   }
 830:Drivers/STM32L4xx_HAL_Driver/Src/stm32l4xx_hal_lptim.c **** 
 831:Drivers/STM32L4xx_HAL_Driver/Src/stm32l4xx_hal_lptim.c ****   /* Change the LPTIM state */
 832:Drivers/STM32L4xx_HAL_Driver/Src/stm32l4xx_hal_lptim.c ****   hlptim->State = HAL_LPTIM_STATE_READY;
 1049              		.loc 1 832 17
 1050 0026 7B68     		ldr	r3, [r7, #4]
 1051 0028 0122     		movs	r2, #1
 1052 002a 83F83620 		strb	r2, [r3, #54]
 833:Drivers/STM32L4xx_HAL_Driver/Src/stm32l4xx_hal_lptim.c **** 
 834:Drivers/STM32L4xx_HAL_Driver/Src/stm32l4xx_hal_lptim.c ****   /* Return function status */
 835:Drivers/STM32L4xx_HAL_Driver/Src/stm32l4xx_hal_lptim.c ****   return HAL_OK;
 1053              		.loc 1 835 10
 1054 002e 0023     		movs	r3, #0
ARM GAS  /tmp/ccB7T7H1.s 			page 34


 1055              	.L46:
 836:Drivers/STM32L4xx_HAL_Driver/Src/stm32l4xx_hal_lptim.c **** }
 1056              		.loc 1 836 1
 1057 0030 1846     		mov	r0, r3
 1058 0032 0837     		adds	r7, r7, #8
 1059              		.cfi_def_cfa_offset 8
 1060 0034 BD46     		mov	sp, r7
 1061              		.cfi_def_cfa_register 13
 1062              		@ sp needed
 1063 0036 80BD     		pop	{r7, pc}
 1064              		.cfi_endproc
 1065              	.LFE454:
 1067              		.section	.text.HAL_LPTIM_OnePulse_Start_IT,"ax",%progbits
 1068              		.align	1
 1069              		.global	HAL_LPTIM_OnePulse_Start_IT
 1070              		.syntax unified
 1071              		.thumb
 1072              		.thumb_func
 1074              	HAL_LPTIM_OnePulse_Start_IT:
 1075              	.LFB455:
 837:Drivers/STM32L4xx_HAL_Driver/Src/stm32l4xx_hal_lptim.c **** 
 838:Drivers/STM32L4xx_HAL_Driver/Src/stm32l4xx_hal_lptim.c **** /**
 839:Drivers/STM32L4xx_HAL_Driver/Src/stm32l4xx_hal_lptim.c ****   * @brief  Start the LPTIM One pulse generation in interrupt mode.
 840:Drivers/STM32L4xx_HAL_Driver/Src/stm32l4xx_hal_lptim.c ****   * @param  hlptim LPTIM handle
 841:Drivers/STM32L4xx_HAL_Driver/Src/stm32l4xx_hal_lptim.c ****   * @param  Period Specifies the Autoreload value.
 842:Drivers/STM32L4xx_HAL_Driver/Src/stm32l4xx_hal_lptim.c ****   *         This parameter must be a value between 0x0001 and 0xFFFF.
 843:Drivers/STM32L4xx_HAL_Driver/Src/stm32l4xx_hal_lptim.c ****   * @param  Pulse Specifies the compare value.
 844:Drivers/STM32L4xx_HAL_Driver/Src/stm32l4xx_hal_lptim.c ****   *         This parameter must be a value between 0x0000 and 0xFFFF.
 845:Drivers/STM32L4xx_HAL_Driver/Src/stm32l4xx_hal_lptim.c ****   * @retval HAL status
 846:Drivers/STM32L4xx_HAL_Driver/Src/stm32l4xx_hal_lptim.c ****   */
 847:Drivers/STM32L4xx_HAL_Driver/Src/stm32l4xx_hal_lptim.c **** HAL_StatusTypeDef HAL_LPTIM_OnePulse_Start_IT(LPTIM_HandleTypeDef *hlptim, uint32_t Period, uint32_
 848:Drivers/STM32L4xx_HAL_Driver/Src/stm32l4xx_hal_lptim.c **** {
 1076              		.loc 1 848 1
 1077              		.cfi_startproc
 1078              		@ args = 0, pretend = 0, frame = 16
 1079              		@ frame_needed = 1, uses_anonymous_args = 0
 1080 0000 80B5     		push	{r7, lr}
 1081              		.cfi_def_cfa_offset 8
 1082              		.cfi_offset 7, -8
 1083              		.cfi_offset 14, -4
 1084 0002 84B0     		sub	sp, sp, #16
 1085              		.cfi_def_cfa_offset 24
 1086 0004 00AF     		add	r7, sp, #0
 1087              		.cfi_def_cfa_register 7
 1088 0006 F860     		str	r0, [r7, #12]
 1089 0008 B960     		str	r1, [r7, #8]
 1090 000a 7A60     		str	r2, [r7, #4]
 849:Drivers/STM32L4xx_HAL_Driver/Src/stm32l4xx_hal_lptim.c ****   /* Check the parameters */
 850:Drivers/STM32L4xx_HAL_Driver/Src/stm32l4xx_hal_lptim.c ****   assert_param(IS_LPTIM_INSTANCE(hlptim->Instance));
 851:Drivers/STM32L4xx_HAL_Driver/Src/stm32l4xx_hal_lptim.c ****   assert_param(IS_LPTIM_PERIOD(Period));
 852:Drivers/STM32L4xx_HAL_Driver/Src/stm32l4xx_hal_lptim.c ****   assert_param(IS_LPTIM_PULSE(Pulse));
 853:Drivers/STM32L4xx_HAL_Driver/Src/stm32l4xx_hal_lptim.c **** 
 854:Drivers/STM32L4xx_HAL_Driver/Src/stm32l4xx_hal_lptim.c ****   /* Set the LPTIM state */
 855:Drivers/STM32L4xx_HAL_Driver/Src/stm32l4xx_hal_lptim.c ****   hlptim->State = HAL_LPTIM_STATE_BUSY;
 1091              		.loc 1 855 17
 1092 000c FB68     		ldr	r3, [r7, #12]
 1093 000e 0222     		movs	r2, #2
ARM GAS  /tmp/ccB7T7H1.s 			page 35


 1094 0010 83F83620 		strb	r2, [r3, #54]
 856:Drivers/STM32L4xx_HAL_Driver/Src/stm32l4xx_hal_lptim.c **** 
 857:Drivers/STM32L4xx_HAL_Driver/Src/stm32l4xx_hal_lptim.c ****   /* Reset WAVE bit to set one pulse mode */
 858:Drivers/STM32L4xx_HAL_Driver/Src/stm32l4xx_hal_lptim.c ****   hlptim->Instance->CFGR &= ~LPTIM_CFGR_WAVE;
 1095              		.loc 1 858 9
 1096 0014 FB68     		ldr	r3, [r7, #12]
 1097 0016 1B68     		ldr	r3, [r3]
 1098              		.loc 1 858 19
 1099 0018 DA68     		ldr	r2, [r3, #12]
 1100              		.loc 1 858 9
 1101 001a FB68     		ldr	r3, [r7, #12]
 1102 001c 1B68     		ldr	r3, [r3]
 1103              		.loc 1 858 26
 1104 001e 22F48012 		bic	r2, r2, #1048576
 1105 0022 DA60     		str	r2, [r3, #12]
 859:Drivers/STM32L4xx_HAL_Driver/Src/stm32l4xx_hal_lptim.c **** 
 860:Drivers/STM32L4xx_HAL_Driver/Src/stm32l4xx_hal_lptim.c ****   /* Enable the Peripheral */
 861:Drivers/STM32L4xx_HAL_Driver/Src/stm32l4xx_hal_lptim.c ****   __HAL_LPTIM_ENABLE(hlptim);
 1106              		.loc 1 861 3
 1107 0024 FB68     		ldr	r3, [r7, #12]
 1108 0026 1B68     		ldr	r3, [r3]
 1109 0028 1A69     		ldr	r2, [r3, #16]
 1110 002a FB68     		ldr	r3, [r7, #12]
 1111 002c 1B68     		ldr	r3, [r3]
 1112 002e 42F00102 		orr	r2, r2, #1
 1113 0032 1A61     		str	r2, [r3, #16]
 862:Drivers/STM32L4xx_HAL_Driver/Src/stm32l4xx_hal_lptim.c **** 
 863:Drivers/STM32L4xx_HAL_Driver/Src/stm32l4xx_hal_lptim.c ****   /* Clear flag */
 864:Drivers/STM32L4xx_HAL_Driver/Src/stm32l4xx_hal_lptim.c ****   __HAL_LPTIM_CLEAR_FLAG(hlptim, LPTIM_FLAG_ARROK);
 1114              		.loc 1 864 3
 1115 0034 FB68     		ldr	r3, [r7, #12]
 1116 0036 1B68     		ldr	r3, [r3]
 1117 0038 1022     		movs	r2, #16
 1118 003a 5A60     		str	r2, [r3, #4]
 865:Drivers/STM32L4xx_HAL_Driver/Src/stm32l4xx_hal_lptim.c **** 
 866:Drivers/STM32L4xx_HAL_Driver/Src/stm32l4xx_hal_lptim.c ****   /* Load the period value in the autoreload register */
 867:Drivers/STM32L4xx_HAL_Driver/Src/stm32l4xx_hal_lptim.c ****   __HAL_LPTIM_AUTORELOAD_SET(hlptim, Period);
 1119              		.loc 1 867 3
 1120 003c FB68     		ldr	r3, [r7, #12]
 1121 003e 1B68     		ldr	r3, [r3]
 1122 0040 BA68     		ldr	r2, [r7, #8]
 1123 0042 9A61     		str	r2, [r3, #24]
 868:Drivers/STM32L4xx_HAL_Driver/Src/stm32l4xx_hal_lptim.c **** 
 869:Drivers/STM32L4xx_HAL_Driver/Src/stm32l4xx_hal_lptim.c ****   /* Wait for the completion of the write operation to the LPTIM_ARR register */
 870:Drivers/STM32L4xx_HAL_Driver/Src/stm32l4xx_hal_lptim.c ****   if (LPTIM_WaitForFlag(hlptim, LPTIM_FLAG_ARROK) == HAL_TIMEOUT)
 1124              		.loc 1 870 7
 1125 0044 1021     		movs	r1, #16
 1126 0046 F868     		ldr	r0, [r7, #12]
 1127 0048 FFF7FEFF 		bl	LPTIM_WaitForFlag
 1128 004c 0346     		mov	r3, r0
 1129              		.loc 1 870 6 discriminator 1
 1130 004e 032B     		cmp	r3, #3
 1131 0050 01D1     		bne	.L48
 871:Drivers/STM32L4xx_HAL_Driver/Src/stm32l4xx_hal_lptim.c ****   {
 872:Drivers/STM32L4xx_HAL_Driver/Src/stm32l4xx_hal_lptim.c ****     return HAL_TIMEOUT;
 1132              		.loc 1 872 12
 1133 0052 0323     		movs	r3, #3
ARM GAS  /tmp/ccB7T7H1.s 			page 36


 1134 0054 5EE0     		b	.L49
 1135              	.L48:
 873:Drivers/STM32L4xx_HAL_Driver/Src/stm32l4xx_hal_lptim.c ****   }
 874:Drivers/STM32L4xx_HAL_Driver/Src/stm32l4xx_hal_lptim.c **** 
 875:Drivers/STM32L4xx_HAL_Driver/Src/stm32l4xx_hal_lptim.c ****   /* Clear flag */
 876:Drivers/STM32L4xx_HAL_Driver/Src/stm32l4xx_hal_lptim.c ****   __HAL_LPTIM_CLEAR_FLAG(hlptim, LPTIM_FLAG_CMPOK);
 1136              		.loc 1 876 3
 1137 0056 FB68     		ldr	r3, [r7, #12]
 1138 0058 1B68     		ldr	r3, [r3]
 1139 005a 0822     		movs	r2, #8
 1140 005c 5A60     		str	r2, [r3, #4]
 877:Drivers/STM32L4xx_HAL_Driver/Src/stm32l4xx_hal_lptim.c **** 
 878:Drivers/STM32L4xx_HAL_Driver/Src/stm32l4xx_hal_lptim.c ****   /* Load the pulse value in the compare register */
 879:Drivers/STM32L4xx_HAL_Driver/Src/stm32l4xx_hal_lptim.c ****   __HAL_LPTIM_COMPARE_SET(hlptim, Pulse);
 1141              		.loc 1 879 3
 1142 005e FB68     		ldr	r3, [r7, #12]
 1143 0060 1B68     		ldr	r3, [r3]
 1144 0062 7A68     		ldr	r2, [r7, #4]
 1145 0064 5A61     		str	r2, [r3, #20]
 880:Drivers/STM32L4xx_HAL_Driver/Src/stm32l4xx_hal_lptim.c **** 
 881:Drivers/STM32L4xx_HAL_Driver/Src/stm32l4xx_hal_lptim.c ****   /* Wait for the completion of the write operation to the LPTIM_CMP register */
 882:Drivers/STM32L4xx_HAL_Driver/Src/stm32l4xx_hal_lptim.c ****   if (LPTIM_WaitForFlag(hlptim, LPTIM_FLAG_CMPOK) == HAL_TIMEOUT)
 1146              		.loc 1 882 7
 1147 0066 0821     		movs	r1, #8
 1148 0068 F868     		ldr	r0, [r7, #12]
 1149 006a FFF7FEFF 		bl	LPTIM_WaitForFlag
 1150 006e 0346     		mov	r3, r0
 1151              		.loc 1 882 6 discriminator 1
 1152 0070 032B     		cmp	r3, #3
 1153 0072 01D1     		bne	.L50
 883:Drivers/STM32L4xx_HAL_Driver/Src/stm32l4xx_hal_lptim.c ****   {
 884:Drivers/STM32L4xx_HAL_Driver/Src/stm32l4xx_hal_lptim.c ****     return HAL_TIMEOUT;
 1154              		.loc 1 884 12
 1155 0074 0323     		movs	r3, #3
 1156 0076 4DE0     		b	.L49
 1157              	.L50:
 885:Drivers/STM32L4xx_HAL_Driver/Src/stm32l4xx_hal_lptim.c ****   }
 886:Drivers/STM32L4xx_HAL_Driver/Src/stm32l4xx_hal_lptim.c **** 
 887:Drivers/STM32L4xx_HAL_Driver/Src/stm32l4xx_hal_lptim.c ****   /* Disable the Peripheral */
 888:Drivers/STM32L4xx_HAL_Driver/Src/stm32l4xx_hal_lptim.c ****   __HAL_LPTIM_DISABLE(hlptim);
 1158              		.loc 1 888 3
 1159 0078 F868     		ldr	r0, [r7, #12]
 1160 007a FFF7FEFF 		bl	LPTIM_Disable
 889:Drivers/STM32L4xx_HAL_Driver/Src/stm32l4xx_hal_lptim.c **** 
 890:Drivers/STM32L4xx_HAL_Driver/Src/stm32l4xx_hal_lptim.c ****   if (HAL_LPTIM_GetState(hlptim) == HAL_LPTIM_STATE_TIMEOUT)
 1161              		.loc 1 890 7
 1162 007e F868     		ldr	r0, [r7, #12]
 1163 0080 FFF7FEFF 		bl	HAL_LPTIM_GetState
 1164 0084 0346     		mov	r3, r0
 1165              		.loc 1 890 6 discriminator 1
 1166 0086 032B     		cmp	r3, #3
 1167 0088 01D1     		bne	.L51
 891:Drivers/STM32L4xx_HAL_Driver/Src/stm32l4xx_hal_lptim.c ****   {
 892:Drivers/STM32L4xx_HAL_Driver/Src/stm32l4xx_hal_lptim.c ****     return HAL_TIMEOUT;
 1168              		.loc 1 892 12
 1169 008a 0323     		movs	r3, #3
 1170 008c 42E0     		b	.L49
ARM GAS  /tmp/ccB7T7H1.s 			page 37


 1171              	.L51:
 893:Drivers/STM32L4xx_HAL_Driver/Src/stm32l4xx_hal_lptim.c ****   }
 894:Drivers/STM32L4xx_HAL_Driver/Src/stm32l4xx_hal_lptim.c **** 
 895:Drivers/STM32L4xx_HAL_Driver/Src/stm32l4xx_hal_lptim.c ****   /* Enable Autoreload write complete interrupt */
 896:Drivers/STM32L4xx_HAL_Driver/Src/stm32l4xx_hal_lptim.c ****   __HAL_LPTIM_ENABLE_IT(hlptim, LPTIM_IT_ARROK);
 1172              		.loc 1 896 3
 1173 008e FB68     		ldr	r3, [r7, #12]
 1174 0090 1B68     		ldr	r3, [r3]
 1175 0092 9A68     		ldr	r2, [r3, #8]
 1176 0094 FB68     		ldr	r3, [r7, #12]
 1177 0096 1B68     		ldr	r3, [r3]
 1178 0098 42F01002 		orr	r2, r2, #16
 1179 009c 9A60     		str	r2, [r3, #8]
 897:Drivers/STM32L4xx_HAL_Driver/Src/stm32l4xx_hal_lptim.c **** 
 898:Drivers/STM32L4xx_HAL_Driver/Src/stm32l4xx_hal_lptim.c ****   /* Enable Compare write complete interrupt */
 899:Drivers/STM32L4xx_HAL_Driver/Src/stm32l4xx_hal_lptim.c ****   __HAL_LPTIM_ENABLE_IT(hlptim, LPTIM_IT_CMPOK);
 1180              		.loc 1 899 3
 1181 009e FB68     		ldr	r3, [r7, #12]
 1182 00a0 1B68     		ldr	r3, [r3]
 1183 00a2 9A68     		ldr	r2, [r3, #8]
 1184 00a4 FB68     		ldr	r3, [r7, #12]
 1185 00a6 1B68     		ldr	r3, [r3]
 1186 00a8 42F00802 		orr	r2, r2, #8
 1187 00ac 9A60     		str	r2, [r3, #8]
 900:Drivers/STM32L4xx_HAL_Driver/Src/stm32l4xx_hal_lptim.c **** 
 901:Drivers/STM32L4xx_HAL_Driver/Src/stm32l4xx_hal_lptim.c ****   /* Enable Autoreload match interrupt */
 902:Drivers/STM32L4xx_HAL_Driver/Src/stm32l4xx_hal_lptim.c ****   __HAL_LPTIM_ENABLE_IT(hlptim, LPTIM_IT_ARRM);
 1188              		.loc 1 902 3
 1189 00ae FB68     		ldr	r3, [r7, #12]
 1190 00b0 1B68     		ldr	r3, [r3]
 1191 00b2 9A68     		ldr	r2, [r3, #8]
 1192 00b4 FB68     		ldr	r3, [r7, #12]
 1193 00b6 1B68     		ldr	r3, [r3]
 1194 00b8 42F00202 		orr	r2, r2, #2
 1195 00bc 9A60     		str	r2, [r3, #8]
 903:Drivers/STM32L4xx_HAL_Driver/Src/stm32l4xx_hal_lptim.c **** 
 904:Drivers/STM32L4xx_HAL_Driver/Src/stm32l4xx_hal_lptim.c ****   /* Enable Compare match interrupt */
 905:Drivers/STM32L4xx_HAL_Driver/Src/stm32l4xx_hal_lptim.c ****   __HAL_LPTIM_ENABLE_IT(hlptim, LPTIM_IT_CMPM);
 1196              		.loc 1 905 3
 1197 00be FB68     		ldr	r3, [r7, #12]
 1198 00c0 1B68     		ldr	r3, [r3]
 1199 00c2 9A68     		ldr	r2, [r3, #8]
 1200 00c4 FB68     		ldr	r3, [r7, #12]
 1201 00c6 1B68     		ldr	r3, [r3]
 1202 00c8 42F00102 		orr	r2, r2, #1
 1203 00cc 9A60     		str	r2, [r3, #8]
 906:Drivers/STM32L4xx_HAL_Driver/Src/stm32l4xx_hal_lptim.c **** 
 907:Drivers/STM32L4xx_HAL_Driver/Src/stm32l4xx_hal_lptim.c ****   /* If external trigger source is used, then enable external trigger interrupt */
 908:Drivers/STM32L4xx_HAL_Driver/Src/stm32l4xx_hal_lptim.c ****   if ((hlptim->Init.Trigger.Source) != LPTIM_TRIGSOURCE_SOFTWARE)
 1204              		.loc 1 908 28
 1205 00ce FB68     		ldr	r3, [r7, #12]
 1206 00d0 5B69     		ldr	r3, [r3, #20]
 1207              		.loc 1 908 6
 1208 00d2 4FF6FF72 		movw	r2, #65535
 1209 00d6 9342     		cmp	r3, r2
 1210 00d8 07D0     		beq	.L52
 909:Drivers/STM32L4xx_HAL_Driver/Src/stm32l4xx_hal_lptim.c ****   {
ARM GAS  /tmp/ccB7T7H1.s 			page 38


 910:Drivers/STM32L4xx_HAL_Driver/Src/stm32l4xx_hal_lptim.c ****     /* Enable external trigger interrupt */
 911:Drivers/STM32L4xx_HAL_Driver/Src/stm32l4xx_hal_lptim.c ****     __HAL_LPTIM_ENABLE_IT(hlptim, LPTIM_IT_EXTTRIG);
 1211              		.loc 1 911 5
 1212 00da FB68     		ldr	r3, [r7, #12]
 1213 00dc 1B68     		ldr	r3, [r3]
 1214 00de 9A68     		ldr	r2, [r3, #8]
 1215 00e0 FB68     		ldr	r3, [r7, #12]
 1216 00e2 1B68     		ldr	r3, [r3]
 1217 00e4 42F00402 		orr	r2, r2, #4
 1218 00e8 9A60     		str	r2, [r3, #8]
 1219              	.L52:
 912:Drivers/STM32L4xx_HAL_Driver/Src/stm32l4xx_hal_lptim.c ****   }
 913:Drivers/STM32L4xx_HAL_Driver/Src/stm32l4xx_hal_lptim.c **** #if defined(LPTIM_RCR_REP)
 914:Drivers/STM32L4xx_HAL_Driver/Src/stm32l4xx_hal_lptim.c **** 
 915:Drivers/STM32L4xx_HAL_Driver/Src/stm32l4xx_hal_lptim.c ****   /* Enable Rep Update Ok interrupt */
 916:Drivers/STM32L4xx_HAL_Driver/Src/stm32l4xx_hal_lptim.c ****   __HAL_LPTIM_ENABLE_IT(hlptim, LPTIM_IT_REPOK);
 917:Drivers/STM32L4xx_HAL_Driver/Src/stm32l4xx_hal_lptim.c **** 
 918:Drivers/STM32L4xx_HAL_Driver/Src/stm32l4xx_hal_lptim.c ****   /* Enable Update Event interrupt */
 919:Drivers/STM32L4xx_HAL_Driver/Src/stm32l4xx_hal_lptim.c ****   __HAL_LPTIM_ENABLE_IT(hlptim, LPTIM_IT_UPDATE);
 920:Drivers/STM32L4xx_HAL_Driver/Src/stm32l4xx_hal_lptim.c **** #endif
 921:Drivers/STM32L4xx_HAL_Driver/Src/stm32l4xx_hal_lptim.c **** 
 922:Drivers/STM32L4xx_HAL_Driver/Src/stm32l4xx_hal_lptim.c ****   /* Enable the Peripheral */
 923:Drivers/STM32L4xx_HAL_Driver/Src/stm32l4xx_hal_lptim.c ****   __HAL_LPTIM_ENABLE(hlptim);
 1220              		.loc 1 923 3
 1221 00ea FB68     		ldr	r3, [r7, #12]
 1222 00ec 1B68     		ldr	r3, [r3]
 1223 00ee 1A69     		ldr	r2, [r3, #16]
 1224 00f0 FB68     		ldr	r3, [r7, #12]
 1225 00f2 1B68     		ldr	r3, [r3]
 1226 00f4 42F00102 		orr	r2, r2, #1
 1227 00f8 1A61     		str	r2, [r3, #16]
 924:Drivers/STM32L4xx_HAL_Driver/Src/stm32l4xx_hal_lptim.c **** 
 925:Drivers/STM32L4xx_HAL_Driver/Src/stm32l4xx_hal_lptim.c ****   /* Start timer in single (one shot) mode */
 926:Drivers/STM32L4xx_HAL_Driver/Src/stm32l4xx_hal_lptim.c ****   __HAL_LPTIM_START_SINGLE(hlptim);
 1228              		.loc 1 926 3
 1229 00fa FB68     		ldr	r3, [r7, #12]
 1230 00fc 1B68     		ldr	r3, [r3]
 1231 00fe 1A69     		ldr	r2, [r3, #16]
 1232 0100 FB68     		ldr	r3, [r7, #12]
 1233 0102 1B68     		ldr	r3, [r3]
 1234 0104 42F00202 		orr	r2, r2, #2
 1235 0108 1A61     		str	r2, [r3, #16]
 927:Drivers/STM32L4xx_HAL_Driver/Src/stm32l4xx_hal_lptim.c **** 
 928:Drivers/STM32L4xx_HAL_Driver/Src/stm32l4xx_hal_lptim.c ****   /* Change the LPTIM state */
 929:Drivers/STM32L4xx_HAL_Driver/Src/stm32l4xx_hal_lptim.c ****   hlptim->State = HAL_LPTIM_STATE_READY;
 1236              		.loc 1 929 17
 1237 010a FB68     		ldr	r3, [r7, #12]
 1238 010c 0122     		movs	r2, #1
 1239 010e 83F83620 		strb	r2, [r3, #54]
 930:Drivers/STM32L4xx_HAL_Driver/Src/stm32l4xx_hal_lptim.c **** 
 931:Drivers/STM32L4xx_HAL_Driver/Src/stm32l4xx_hal_lptim.c ****   /* Return function status */
 932:Drivers/STM32L4xx_HAL_Driver/Src/stm32l4xx_hal_lptim.c ****   return HAL_OK;
 1240              		.loc 1 932 10
 1241 0112 0023     		movs	r3, #0
 1242              	.L49:
 933:Drivers/STM32L4xx_HAL_Driver/Src/stm32l4xx_hal_lptim.c **** }
 1243              		.loc 1 933 1
ARM GAS  /tmp/ccB7T7H1.s 			page 39


 1244 0114 1846     		mov	r0, r3
 1245 0116 1037     		adds	r7, r7, #16
 1246              		.cfi_def_cfa_offset 8
 1247 0118 BD46     		mov	sp, r7
 1248              		.cfi_def_cfa_register 13
 1249              		@ sp needed
 1250 011a 80BD     		pop	{r7, pc}
 1251              		.cfi_endproc
 1252              	.LFE455:
 1254              		.section	.text.HAL_LPTIM_OnePulse_Stop_IT,"ax",%progbits
 1255              		.align	1
 1256              		.global	HAL_LPTIM_OnePulse_Stop_IT
 1257              		.syntax unified
 1258              		.thumb
 1259              		.thumb_func
 1261              	HAL_LPTIM_OnePulse_Stop_IT:
 1262              	.LFB456:
 934:Drivers/STM32L4xx_HAL_Driver/Src/stm32l4xx_hal_lptim.c **** 
 935:Drivers/STM32L4xx_HAL_Driver/Src/stm32l4xx_hal_lptim.c **** /**
 936:Drivers/STM32L4xx_HAL_Driver/Src/stm32l4xx_hal_lptim.c ****   * @brief  Stop the LPTIM One pulse generation in interrupt mode.
 937:Drivers/STM32L4xx_HAL_Driver/Src/stm32l4xx_hal_lptim.c ****   * @param  hlptim LPTIM handle
 938:Drivers/STM32L4xx_HAL_Driver/Src/stm32l4xx_hal_lptim.c ****   * @retval HAL status
 939:Drivers/STM32L4xx_HAL_Driver/Src/stm32l4xx_hal_lptim.c ****   */
 940:Drivers/STM32L4xx_HAL_Driver/Src/stm32l4xx_hal_lptim.c **** HAL_StatusTypeDef HAL_LPTIM_OnePulse_Stop_IT(LPTIM_HandleTypeDef *hlptim)
 941:Drivers/STM32L4xx_HAL_Driver/Src/stm32l4xx_hal_lptim.c **** {
 1263              		.loc 1 941 1
 1264              		.cfi_startproc
 1265              		@ args = 0, pretend = 0, frame = 8
 1266              		@ frame_needed = 1, uses_anonymous_args = 0
 1267 0000 80B5     		push	{r7, lr}
 1268              		.cfi_def_cfa_offset 8
 1269              		.cfi_offset 7, -8
 1270              		.cfi_offset 14, -4
 1271 0002 82B0     		sub	sp, sp, #8
 1272              		.cfi_def_cfa_offset 16
 1273 0004 00AF     		add	r7, sp, #0
 1274              		.cfi_def_cfa_register 7
 1275 0006 7860     		str	r0, [r7, #4]
 942:Drivers/STM32L4xx_HAL_Driver/Src/stm32l4xx_hal_lptim.c ****   /* Check the parameters */
 943:Drivers/STM32L4xx_HAL_Driver/Src/stm32l4xx_hal_lptim.c ****   assert_param(IS_LPTIM_INSTANCE(hlptim->Instance));
 944:Drivers/STM32L4xx_HAL_Driver/Src/stm32l4xx_hal_lptim.c **** 
 945:Drivers/STM32L4xx_HAL_Driver/Src/stm32l4xx_hal_lptim.c ****   /* Set the LPTIM state */
 946:Drivers/STM32L4xx_HAL_Driver/Src/stm32l4xx_hal_lptim.c ****   hlptim->State = HAL_LPTIM_STATE_BUSY;
 1276              		.loc 1 946 17
 1277 0008 7B68     		ldr	r3, [r7, #4]
 1278 000a 0222     		movs	r2, #2
 1279 000c 83F83620 		strb	r2, [r3, #54]
 947:Drivers/STM32L4xx_HAL_Driver/Src/stm32l4xx_hal_lptim.c **** 
 948:Drivers/STM32L4xx_HAL_Driver/Src/stm32l4xx_hal_lptim.c **** 
 949:Drivers/STM32L4xx_HAL_Driver/Src/stm32l4xx_hal_lptim.c ****   /* Disable the Peripheral */
 950:Drivers/STM32L4xx_HAL_Driver/Src/stm32l4xx_hal_lptim.c ****   __HAL_LPTIM_DISABLE(hlptim);
 1280              		.loc 1 950 3
 1281 0010 7868     		ldr	r0, [r7, #4]
 1282 0012 FFF7FEFF 		bl	LPTIM_Disable
 951:Drivers/STM32L4xx_HAL_Driver/Src/stm32l4xx_hal_lptim.c **** 
 952:Drivers/STM32L4xx_HAL_Driver/Src/stm32l4xx_hal_lptim.c ****   if (HAL_LPTIM_GetState(hlptim) == HAL_LPTIM_STATE_TIMEOUT)
 1283              		.loc 1 952 7
ARM GAS  /tmp/ccB7T7H1.s 			page 40


 1284 0016 7868     		ldr	r0, [r7, #4]
 1285 0018 FFF7FEFF 		bl	HAL_LPTIM_GetState
 1286 001c 0346     		mov	r3, r0
 1287              		.loc 1 952 6 discriminator 1
 1288 001e 032B     		cmp	r3, #3
 1289 0020 01D1     		bne	.L54
 953:Drivers/STM32L4xx_HAL_Driver/Src/stm32l4xx_hal_lptim.c ****   {
 954:Drivers/STM32L4xx_HAL_Driver/Src/stm32l4xx_hal_lptim.c ****     return HAL_TIMEOUT;
 1290              		.loc 1 954 12
 1291 0022 0323     		movs	r3, #3
 1292 0024 32E0     		b	.L55
 1293              	.L54:
 955:Drivers/STM32L4xx_HAL_Driver/Src/stm32l4xx_hal_lptim.c ****   }
 956:Drivers/STM32L4xx_HAL_Driver/Src/stm32l4xx_hal_lptim.c **** 
 957:Drivers/STM32L4xx_HAL_Driver/Src/stm32l4xx_hal_lptim.c ****   /* Disable Autoreload write complete interrupt */
 958:Drivers/STM32L4xx_HAL_Driver/Src/stm32l4xx_hal_lptim.c ****   __HAL_LPTIM_DISABLE_IT(hlptim, LPTIM_IT_ARROK);
 1294              		.loc 1 958 3
 1295 0026 7B68     		ldr	r3, [r7, #4]
 1296 0028 1B68     		ldr	r3, [r3]
 1297 002a 9A68     		ldr	r2, [r3, #8]
 1298 002c 7B68     		ldr	r3, [r7, #4]
 1299 002e 1B68     		ldr	r3, [r3]
 1300 0030 22F01002 		bic	r2, r2, #16
 1301 0034 9A60     		str	r2, [r3, #8]
 959:Drivers/STM32L4xx_HAL_Driver/Src/stm32l4xx_hal_lptim.c **** 
 960:Drivers/STM32L4xx_HAL_Driver/Src/stm32l4xx_hal_lptim.c ****   /* Disable Compare write complete interrupt */
 961:Drivers/STM32L4xx_HAL_Driver/Src/stm32l4xx_hal_lptim.c ****   __HAL_LPTIM_DISABLE_IT(hlptim, LPTIM_IT_CMPOK);
 1302              		.loc 1 961 3
 1303 0036 7B68     		ldr	r3, [r7, #4]
 1304 0038 1B68     		ldr	r3, [r3]
 1305 003a 9A68     		ldr	r2, [r3, #8]
 1306 003c 7B68     		ldr	r3, [r7, #4]
 1307 003e 1B68     		ldr	r3, [r3]
 1308 0040 22F00802 		bic	r2, r2, #8
 1309 0044 9A60     		str	r2, [r3, #8]
 962:Drivers/STM32L4xx_HAL_Driver/Src/stm32l4xx_hal_lptim.c **** 
 963:Drivers/STM32L4xx_HAL_Driver/Src/stm32l4xx_hal_lptim.c ****   /* Disable Autoreload match interrupt */
 964:Drivers/STM32L4xx_HAL_Driver/Src/stm32l4xx_hal_lptim.c ****   __HAL_LPTIM_DISABLE_IT(hlptim, LPTIM_IT_ARRM);
 1310              		.loc 1 964 3
 1311 0046 7B68     		ldr	r3, [r7, #4]
 1312 0048 1B68     		ldr	r3, [r3]
 1313 004a 9A68     		ldr	r2, [r3, #8]
 1314 004c 7B68     		ldr	r3, [r7, #4]
 1315 004e 1B68     		ldr	r3, [r3]
 1316 0050 22F00202 		bic	r2, r2, #2
 1317 0054 9A60     		str	r2, [r3, #8]
 965:Drivers/STM32L4xx_HAL_Driver/Src/stm32l4xx_hal_lptim.c **** 
 966:Drivers/STM32L4xx_HAL_Driver/Src/stm32l4xx_hal_lptim.c ****   /* Disable Compare match interrupt */
 967:Drivers/STM32L4xx_HAL_Driver/Src/stm32l4xx_hal_lptim.c ****   __HAL_LPTIM_DISABLE_IT(hlptim, LPTIM_IT_CMPM);
 1318              		.loc 1 967 3
 1319 0056 7B68     		ldr	r3, [r7, #4]
 1320 0058 1B68     		ldr	r3, [r3]
 1321 005a 9A68     		ldr	r2, [r3, #8]
 1322 005c 7B68     		ldr	r3, [r7, #4]
 1323 005e 1B68     		ldr	r3, [r3]
 1324 0060 22F00102 		bic	r2, r2, #1
 1325 0064 9A60     		str	r2, [r3, #8]
ARM GAS  /tmp/ccB7T7H1.s 			page 41


 968:Drivers/STM32L4xx_HAL_Driver/Src/stm32l4xx_hal_lptim.c **** 
 969:Drivers/STM32L4xx_HAL_Driver/Src/stm32l4xx_hal_lptim.c ****   /* If external trigger source is used, then disable external trigger interrupt */
 970:Drivers/STM32L4xx_HAL_Driver/Src/stm32l4xx_hal_lptim.c ****   if ((hlptim->Init.Trigger.Source) != LPTIM_TRIGSOURCE_SOFTWARE)
 1326              		.loc 1 970 28
 1327 0066 7B68     		ldr	r3, [r7, #4]
 1328 0068 5B69     		ldr	r3, [r3, #20]
 1329              		.loc 1 970 6
 1330 006a 4FF6FF72 		movw	r2, #65535
 1331 006e 9342     		cmp	r3, r2
 1332 0070 07D0     		beq	.L56
 971:Drivers/STM32L4xx_HAL_Driver/Src/stm32l4xx_hal_lptim.c ****   {
 972:Drivers/STM32L4xx_HAL_Driver/Src/stm32l4xx_hal_lptim.c ****     /* Disable external trigger interrupt */
 973:Drivers/STM32L4xx_HAL_Driver/Src/stm32l4xx_hal_lptim.c ****     __HAL_LPTIM_DISABLE_IT(hlptim, LPTIM_IT_EXTTRIG);
 1333              		.loc 1 973 5
 1334 0072 7B68     		ldr	r3, [r7, #4]
 1335 0074 1B68     		ldr	r3, [r3]
 1336 0076 9A68     		ldr	r2, [r3, #8]
 1337 0078 7B68     		ldr	r3, [r7, #4]
 1338 007a 1B68     		ldr	r3, [r3]
 1339 007c 22F00402 		bic	r2, r2, #4
 1340 0080 9A60     		str	r2, [r3, #8]
 1341              	.L56:
 974:Drivers/STM32L4xx_HAL_Driver/Src/stm32l4xx_hal_lptim.c ****   }
 975:Drivers/STM32L4xx_HAL_Driver/Src/stm32l4xx_hal_lptim.c **** #if defined(LPTIM_RCR_REP)
 976:Drivers/STM32L4xx_HAL_Driver/Src/stm32l4xx_hal_lptim.c **** 
 977:Drivers/STM32L4xx_HAL_Driver/Src/stm32l4xx_hal_lptim.c ****   /* Enable Rep Update Ok interrupt */
 978:Drivers/STM32L4xx_HAL_Driver/Src/stm32l4xx_hal_lptim.c ****   __HAL_LPTIM_DISABLE_IT(hlptim, LPTIM_IT_REPOK);
 979:Drivers/STM32L4xx_HAL_Driver/Src/stm32l4xx_hal_lptim.c **** 
 980:Drivers/STM32L4xx_HAL_Driver/Src/stm32l4xx_hal_lptim.c ****   /* Enable Update Event interrupt */
 981:Drivers/STM32L4xx_HAL_Driver/Src/stm32l4xx_hal_lptim.c ****   __HAL_LPTIM_DISABLE_IT(hlptim, LPTIM_IT_UPDATE);
 982:Drivers/STM32L4xx_HAL_Driver/Src/stm32l4xx_hal_lptim.c **** #endif
 983:Drivers/STM32L4xx_HAL_Driver/Src/stm32l4xx_hal_lptim.c **** 
 984:Drivers/STM32L4xx_HAL_Driver/Src/stm32l4xx_hal_lptim.c ****   /* Change the LPTIM state */
 985:Drivers/STM32L4xx_HAL_Driver/Src/stm32l4xx_hal_lptim.c ****   hlptim->State = HAL_LPTIM_STATE_READY;
 1342              		.loc 1 985 17
 1343 0082 7B68     		ldr	r3, [r7, #4]
 1344 0084 0122     		movs	r2, #1
 1345 0086 83F83620 		strb	r2, [r3, #54]
 986:Drivers/STM32L4xx_HAL_Driver/Src/stm32l4xx_hal_lptim.c **** 
 987:Drivers/STM32L4xx_HAL_Driver/Src/stm32l4xx_hal_lptim.c ****   /* Return function status */
 988:Drivers/STM32L4xx_HAL_Driver/Src/stm32l4xx_hal_lptim.c ****   return HAL_OK;
 1346              		.loc 1 988 10
 1347 008a 0023     		movs	r3, #0
 1348              	.L55:
 989:Drivers/STM32L4xx_HAL_Driver/Src/stm32l4xx_hal_lptim.c **** }
 1349              		.loc 1 989 1
 1350 008c 1846     		mov	r0, r3
 1351 008e 0837     		adds	r7, r7, #8
 1352              		.cfi_def_cfa_offset 8
 1353 0090 BD46     		mov	sp, r7
 1354              		.cfi_def_cfa_register 13
 1355              		@ sp needed
 1356 0092 80BD     		pop	{r7, pc}
 1357              		.cfi_endproc
 1358              	.LFE456:
 1360              		.section	.text.HAL_LPTIM_SetOnce_Start,"ax",%progbits
 1361              		.align	1
ARM GAS  /tmp/ccB7T7H1.s 			page 42


 1362              		.global	HAL_LPTIM_SetOnce_Start
 1363              		.syntax unified
 1364              		.thumb
 1365              		.thumb_func
 1367              	HAL_LPTIM_SetOnce_Start:
 1368              	.LFB457:
 990:Drivers/STM32L4xx_HAL_Driver/Src/stm32l4xx_hal_lptim.c **** 
 991:Drivers/STM32L4xx_HAL_Driver/Src/stm32l4xx_hal_lptim.c **** /**
 992:Drivers/STM32L4xx_HAL_Driver/Src/stm32l4xx_hal_lptim.c ****   * @brief  Start the LPTIM in Set once mode.
 993:Drivers/STM32L4xx_HAL_Driver/Src/stm32l4xx_hal_lptim.c ****   * @param  hlptim LPTIM handle
 994:Drivers/STM32L4xx_HAL_Driver/Src/stm32l4xx_hal_lptim.c ****   * @param  Period Specifies the Autoreload value.
 995:Drivers/STM32L4xx_HAL_Driver/Src/stm32l4xx_hal_lptim.c ****   *         This parameter must be a value between 0x0001 and 0xFFFF.
 996:Drivers/STM32L4xx_HAL_Driver/Src/stm32l4xx_hal_lptim.c ****   * @param  Pulse Specifies the compare value.
 997:Drivers/STM32L4xx_HAL_Driver/Src/stm32l4xx_hal_lptim.c ****   *         This parameter must be a value between 0x0000 and 0xFFFF.
 998:Drivers/STM32L4xx_HAL_Driver/Src/stm32l4xx_hal_lptim.c ****   * @retval HAL status
 999:Drivers/STM32L4xx_HAL_Driver/Src/stm32l4xx_hal_lptim.c ****   */
1000:Drivers/STM32L4xx_HAL_Driver/Src/stm32l4xx_hal_lptim.c **** HAL_StatusTypeDef HAL_LPTIM_SetOnce_Start(LPTIM_HandleTypeDef *hlptim, uint32_t Period, uint32_t Pu
1001:Drivers/STM32L4xx_HAL_Driver/Src/stm32l4xx_hal_lptim.c **** {
 1369              		.loc 1 1001 1
 1370              		.cfi_startproc
 1371              		@ args = 0, pretend = 0, frame = 16
 1372              		@ frame_needed = 1, uses_anonymous_args = 0
 1373 0000 80B5     		push	{r7, lr}
 1374              		.cfi_def_cfa_offset 8
 1375              		.cfi_offset 7, -8
 1376              		.cfi_offset 14, -4
 1377 0002 84B0     		sub	sp, sp, #16
 1378              		.cfi_def_cfa_offset 24
 1379 0004 00AF     		add	r7, sp, #0
 1380              		.cfi_def_cfa_register 7
 1381 0006 F860     		str	r0, [r7, #12]
 1382 0008 B960     		str	r1, [r7, #8]
 1383 000a 7A60     		str	r2, [r7, #4]
1002:Drivers/STM32L4xx_HAL_Driver/Src/stm32l4xx_hal_lptim.c ****   /* Check the parameters */
1003:Drivers/STM32L4xx_HAL_Driver/Src/stm32l4xx_hal_lptim.c ****   assert_param(IS_LPTIM_INSTANCE(hlptim->Instance));
1004:Drivers/STM32L4xx_HAL_Driver/Src/stm32l4xx_hal_lptim.c ****   assert_param(IS_LPTIM_PERIOD(Period));
1005:Drivers/STM32L4xx_HAL_Driver/Src/stm32l4xx_hal_lptim.c ****   assert_param(IS_LPTIM_PULSE(Pulse));
1006:Drivers/STM32L4xx_HAL_Driver/Src/stm32l4xx_hal_lptim.c **** 
1007:Drivers/STM32L4xx_HAL_Driver/Src/stm32l4xx_hal_lptim.c ****   /* Set the LPTIM state */
1008:Drivers/STM32L4xx_HAL_Driver/Src/stm32l4xx_hal_lptim.c ****   hlptim->State = HAL_LPTIM_STATE_BUSY;
 1384              		.loc 1 1008 17
 1385 000c FB68     		ldr	r3, [r7, #12]
 1386 000e 0222     		movs	r2, #2
 1387 0010 83F83620 		strb	r2, [r3, #54]
1009:Drivers/STM32L4xx_HAL_Driver/Src/stm32l4xx_hal_lptim.c **** 
1010:Drivers/STM32L4xx_HAL_Driver/Src/stm32l4xx_hal_lptim.c ****   /* Set WAVE bit to enable the set once mode */
1011:Drivers/STM32L4xx_HAL_Driver/Src/stm32l4xx_hal_lptim.c ****   hlptim->Instance->CFGR |= LPTIM_CFGR_WAVE;
 1388              		.loc 1 1011 9
 1389 0014 FB68     		ldr	r3, [r7, #12]
 1390 0016 1B68     		ldr	r3, [r3]
 1391              		.loc 1 1011 19
 1392 0018 DA68     		ldr	r2, [r3, #12]
 1393              		.loc 1 1011 9
 1394 001a FB68     		ldr	r3, [r7, #12]
 1395 001c 1B68     		ldr	r3, [r3]
 1396              		.loc 1 1011 26
 1397 001e 42F48012 		orr	r2, r2, #1048576
ARM GAS  /tmp/ccB7T7H1.s 			page 43


 1398 0022 DA60     		str	r2, [r3, #12]
1012:Drivers/STM32L4xx_HAL_Driver/Src/stm32l4xx_hal_lptim.c **** 
1013:Drivers/STM32L4xx_HAL_Driver/Src/stm32l4xx_hal_lptim.c ****   /* Enable the Peripheral */
1014:Drivers/STM32L4xx_HAL_Driver/Src/stm32l4xx_hal_lptim.c ****   __HAL_LPTIM_ENABLE(hlptim);
 1399              		.loc 1 1014 3
 1400 0024 FB68     		ldr	r3, [r7, #12]
 1401 0026 1B68     		ldr	r3, [r3]
 1402 0028 1A69     		ldr	r2, [r3, #16]
 1403 002a FB68     		ldr	r3, [r7, #12]
 1404 002c 1B68     		ldr	r3, [r3]
 1405 002e 42F00102 		orr	r2, r2, #1
 1406 0032 1A61     		str	r2, [r3, #16]
1015:Drivers/STM32L4xx_HAL_Driver/Src/stm32l4xx_hal_lptim.c **** 
1016:Drivers/STM32L4xx_HAL_Driver/Src/stm32l4xx_hal_lptim.c ****   /* Clear flag */
1017:Drivers/STM32L4xx_HAL_Driver/Src/stm32l4xx_hal_lptim.c ****   __HAL_LPTIM_CLEAR_FLAG(hlptim, LPTIM_FLAG_ARROK);
 1407              		.loc 1 1017 3
 1408 0034 FB68     		ldr	r3, [r7, #12]
 1409 0036 1B68     		ldr	r3, [r3]
 1410 0038 1022     		movs	r2, #16
 1411 003a 5A60     		str	r2, [r3, #4]
1018:Drivers/STM32L4xx_HAL_Driver/Src/stm32l4xx_hal_lptim.c **** 
1019:Drivers/STM32L4xx_HAL_Driver/Src/stm32l4xx_hal_lptim.c ****   /* Load the period value in the autoreload register */
1020:Drivers/STM32L4xx_HAL_Driver/Src/stm32l4xx_hal_lptim.c ****   __HAL_LPTIM_AUTORELOAD_SET(hlptim, Period);
 1412              		.loc 1 1020 3
 1413 003c FB68     		ldr	r3, [r7, #12]
 1414 003e 1B68     		ldr	r3, [r3]
 1415 0040 BA68     		ldr	r2, [r7, #8]
 1416 0042 9A61     		str	r2, [r3, #24]
1021:Drivers/STM32L4xx_HAL_Driver/Src/stm32l4xx_hal_lptim.c **** 
1022:Drivers/STM32L4xx_HAL_Driver/Src/stm32l4xx_hal_lptim.c ****   /* Wait for the completion of the write operation to the LPTIM_ARR register */
1023:Drivers/STM32L4xx_HAL_Driver/Src/stm32l4xx_hal_lptim.c ****   if (LPTIM_WaitForFlag(hlptim, LPTIM_FLAG_ARROK) == HAL_TIMEOUT)
 1417              		.loc 1 1023 7
 1418 0044 1021     		movs	r1, #16
 1419 0046 F868     		ldr	r0, [r7, #12]
 1420 0048 FFF7FEFF 		bl	LPTIM_WaitForFlag
 1421 004c 0346     		mov	r3, r0
 1422              		.loc 1 1023 6 discriminator 1
 1423 004e 032B     		cmp	r3, #3
 1424 0050 01D1     		bne	.L58
1024:Drivers/STM32L4xx_HAL_Driver/Src/stm32l4xx_hal_lptim.c ****   {
1025:Drivers/STM32L4xx_HAL_Driver/Src/stm32l4xx_hal_lptim.c ****     return HAL_TIMEOUT;
 1425              		.loc 1 1025 12
 1426 0052 0323     		movs	r3, #3
 1427 0054 1DE0     		b	.L59
 1428              	.L58:
1026:Drivers/STM32L4xx_HAL_Driver/Src/stm32l4xx_hal_lptim.c ****   }
1027:Drivers/STM32L4xx_HAL_Driver/Src/stm32l4xx_hal_lptim.c **** 
1028:Drivers/STM32L4xx_HAL_Driver/Src/stm32l4xx_hal_lptim.c ****   /* Clear flag */
1029:Drivers/STM32L4xx_HAL_Driver/Src/stm32l4xx_hal_lptim.c ****   __HAL_LPTIM_CLEAR_FLAG(hlptim, LPTIM_FLAG_CMPOK);
 1429              		.loc 1 1029 3
 1430 0056 FB68     		ldr	r3, [r7, #12]
 1431 0058 1B68     		ldr	r3, [r3]
 1432 005a 0822     		movs	r2, #8
 1433 005c 5A60     		str	r2, [r3, #4]
1030:Drivers/STM32L4xx_HAL_Driver/Src/stm32l4xx_hal_lptim.c **** 
1031:Drivers/STM32L4xx_HAL_Driver/Src/stm32l4xx_hal_lptim.c ****   /* Load the pulse value in the compare register */
1032:Drivers/STM32L4xx_HAL_Driver/Src/stm32l4xx_hal_lptim.c ****   __HAL_LPTIM_COMPARE_SET(hlptim, Pulse);
ARM GAS  /tmp/ccB7T7H1.s 			page 44


 1434              		.loc 1 1032 3
 1435 005e FB68     		ldr	r3, [r7, #12]
 1436 0060 1B68     		ldr	r3, [r3]
 1437 0062 7A68     		ldr	r2, [r7, #4]
 1438 0064 5A61     		str	r2, [r3, #20]
1033:Drivers/STM32L4xx_HAL_Driver/Src/stm32l4xx_hal_lptim.c **** 
1034:Drivers/STM32L4xx_HAL_Driver/Src/stm32l4xx_hal_lptim.c ****   /* Wait for the completion of the write operation to the LPTIM_CMP register */
1035:Drivers/STM32L4xx_HAL_Driver/Src/stm32l4xx_hal_lptim.c ****   if (LPTIM_WaitForFlag(hlptim, LPTIM_FLAG_CMPOK) == HAL_TIMEOUT)
 1439              		.loc 1 1035 7
 1440 0066 0821     		movs	r1, #8
 1441 0068 F868     		ldr	r0, [r7, #12]
 1442 006a FFF7FEFF 		bl	LPTIM_WaitForFlag
 1443 006e 0346     		mov	r3, r0
 1444              		.loc 1 1035 6 discriminator 1
 1445 0070 032B     		cmp	r3, #3
 1446 0072 01D1     		bne	.L60
1036:Drivers/STM32L4xx_HAL_Driver/Src/stm32l4xx_hal_lptim.c ****   {
1037:Drivers/STM32L4xx_HAL_Driver/Src/stm32l4xx_hal_lptim.c ****     return HAL_TIMEOUT;
 1447              		.loc 1 1037 12
 1448 0074 0323     		movs	r3, #3
 1449 0076 0CE0     		b	.L59
 1450              	.L60:
1038:Drivers/STM32L4xx_HAL_Driver/Src/stm32l4xx_hal_lptim.c ****   }
1039:Drivers/STM32L4xx_HAL_Driver/Src/stm32l4xx_hal_lptim.c **** 
1040:Drivers/STM32L4xx_HAL_Driver/Src/stm32l4xx_hal_lptim.c ****   /* Start timer in single (one shot) mode */
1041:Drivers/STM32L4xx_HAL_Driver/Src/stm32l4xx_hal_lptim.c ****   __HAL_LPTIM_START_SINGLE(hlptim);
 1451              		.loc 1 1041 3
 1452 0078 FB68     		ldr	r3, [r7, #12]
 1453 007a 1B68     		ldr	r3, [r3]
 1454 007c 1A69     		ldr	r2, [r3, #16]
 1455 007e FB68     		ldr	r3, [r7, #12]
 1456 0080 1B68     		ldr	r3, [r3]
 1457 0082 42F00202 		orr	r2, r2, #2
 1458 0086 1A61     		str	r2, [r3, #16]
1042:Drivers/STM32L4xx_HAL_Driver/Src/stm32l4xx_hal_lptim.c **** 
1043:Drivers/STM32L4xx_HAL_Driver/Src/stm32l4xx_hal_lptim.c ****   /* Change the LPTIM state */
1044:Drivers/STM32L4xx_HAL_Driver/Src/stm32l4xx_hal_lptim.c ****   hlptim->State = HAL_LPTIM_STATE_READY;
 1459              		.loc 1 1044 17
 1460 0088 FB68     		ldr	r3, [r7, #12]
 1461 008a 0122     		movs	r2, #1
 1462 008c 83F83620 		strb	r2, [r3, #54]
1045:Drivers/STM32L4xx_HAL_Driver/Src/stm32l4xx_hal_lptim.c **** 
1046:Drivers/STM32L4xx_HAL_Driver/Src/stm32l4xx_hal_lptim.c ****   /* Return function status */
1047:Drivers/STM32L4xx_HAL_Driver/Src/stm32l4xx_hal_lptim.c ****   return HAL_OK;
 1463              		.loc 1 1047 10
 1464 0090 0023     		movs	r3, #0
 1465              	.L59:
1048:Drivers/STM32L4xx_HAL_Driver/Src/stm32l4xx_hal_lptim.c **** }
 1466              		.loc 1 1048 1
 1467 0092 1846     		mov	r0, r3
 1468 0094 1037     		adds	r7, r7, #16
 1469              		.cfi_def_cfa_offset 8
 1470 0096 BD46     		mov	sp, r7
 1471              		.cfi_def_cfa_register 13
 1472              		@ sp needed
 1473 0098 80BD     		pop	{r7, pc}
 1474              		.cfi_endproc
ARM GAS  /tmp/ccB7T7H1.s 			page 45


 1475              	.LFE457:
 1477              		.section	.text.HAL_LPTIM_SetOnce_Stop,"ax",%progbits
 1478              		.align	1
 1479              		.global	HAL_LPTIM_SetOnce_Stop
 1480              		.syntax unified
 1481              		.thumb
 1482              		.thumb_func
 1484              	HAL_LPTIM_SetOnce_Stop:
 1485              	.LFB458:
1049:Drivers/STM32L4xx_HAL_Driver/Src/stm32l4xx_hal_lptim.c **** 
1050:Drivers/STM32L4xx_HAL_Driver/Src/stm32l4xx_hal_lptim.c **** /**
1051:Drivers/STM32L4xx_HAL_Driver/Src/stm32l4xx_hal_lptim.c ****   * @brief  Stop the LPTIM Set once mode.
1052:Drivers/STM32L4xx_HAL_Driver/Src/stm32l4xx_hal_lptim.c ****   * @param  hlptim LPTIM handle
1053:Drivers/STM32L4xx_HAL_Driver/Src/stm32l4xx_hal_lptim.c ****   * @retval HAL status
1054:Drivers/STM32L4xx_HAL_Driver/Src/stm32l4xx_hal_lptim.c ****   */
1055:Drivers/STM32L4xx_HAL_Driver/Src/stm32l4xx_hal_lptim.c **** HAL_StatusTypeDef HAL_LPTIM_SetOnce_Stop(LPTIM_HandleTypeDef *hlptim)
1056:Drivers/STM32L4xx_HAL_Driver/Src/stm32l4xx_hal_lptim.c **** {
 1486              		.loc 1 1056 1
 1487              		.cfi_startproc
 1488              		@ args = 0, pretend = 0, frame = 8
 1489              		@ frame_needed = 1, uses_anonymous_args = 0
 1490 0000 80B5     		push	{r7, lr}
 1491              		.cfi_def_cfa_offset 8
 1492              		.cfi_offset 7, -8
 1493              		.cfi_offset 14, -4
 1494 0002 82B0     		sub	sp, sp, #8
 1495              		.cfi_def_cfa_offset 16
 1496 0004 00AF     		add	r7, sp, #0
 1497              		.cfi_def_cfa_register 7
 1498 0006 7860     		str	r0, [r7, #4]
1057:Drivers/STM32L4xx_HAL_Driver/Src/stm32l4xx_hal_lptim.c ****   /* Check the parameters */
1058:Drivers/STM32L4xx_HAL_Driver/Src/stm32l4xx_hal_lptim.c ****   assert_param(IS_LPTIM_INSTANCE(hlptim->Instance));
1059:Drivers/STM32L4xx_HAL_Driver/Src/stm32l4xx_hal_lptim.c **** 
1060:Drivers/STM32L4xx_HAL_Driver/Src/stm32l4xx_hal_lptim.c ****   /* Set the LPTIM state */
1061:Drivers/STM32L4xx_HAL_Driver/Src/stm32l4xx_hal_lptim.c ****   hlptim->State = HAL_LPTIM_STATE_BUSY;
 1499              		.loc 1 1061 17
 1500 0008 7B68     		ldr	r3, [r7, #4]
 1501 000a 0222     		movs	r2, #2
 1502 000c 83F83620 		strb	r2, [r3, #54]
1062:Drivers/STM32L4xx_HAL_Driver/Src/stm32l4xx_hal_lptim.c **** 
1063:Drivers/STM32L4xx_HAL_Driver/Src/stm32l4xx_hal_lptim.c ****   /* Disable the Peripheral */
1064:Drivers/STM32L4xx_HAL_Driver/Src/stm32l4xx_hal_lptim.c ****   __HAL_LPTIM_DISABLE(hlptim);
 1503              		.loc 1 1064 3
 1504 0010 7868     		ldr	r0, [r7, #4]
 1505 0012 FFF7FEFF 		bl	LPTIM_Disable
1065:Drivers/STM32L4xx_HAL_Driver/Src/stm32l4xx_hal_lptim.c **** 
1066:Drivers/STM32L4xx_HAL_Driver/Src/stm32l4xx_hal_lptim.c ****   if (HAL_LPTIM_GetState(hlptim) == HAL_LPTIM_STATE_TIMEOUT)
 1506              		.loc 1 1066 7
 1507 0016 7868     		ldr	r0, [r7, #4]
 1508 0018 FFF7FEFF 		bl	HAL_LPTIM_GetState
 1509 001c 0346     		mov	r3, r0
 1510              		.loc 1 1066 6 discriminator 1
 1511 001e 032B     		cmp	r3, #3
 1512 0020 01D1     		bne	.L62
1067:Drivers/STM32L4xx_HAL_Driver/Src/stm32l4xx_hal_lptim.c ****   {
1068:Drivers/STM32L4xx_HAL_Driver/Src/stm32l4xx_hal_lptim.c ****     return HAL_TIMEOUT;
 1513              		.loc 1 1068 12
ARM GAS  /tmp/ccB7T7H1.s 			page 46


 1514 0022 0323     		movs	r3, #3
 1515 0024 04E0     		b	.L63
 1516              	.L62:
1069:Drivers/STM32L4xx_HAL_Driver/Src/stm32l4xx_hal_lptim.c ****   }
1070:Drivers/STM32L4xx_HAL_Driver/Src/stm32l4xx_hal_lptim.c **** 
1071:Drivers/STM32L4xx_HAL_Driver/Src/stm32l4xx_hal_lptim.c ****   /* Change the LPTIM state */
1072:Drivers/STM32L4xx_HAL_Driver/Src/stm32l4xx_hal_lptim.c ****   hlptim->State = HAL_LPTIM_STATE_READY;
 1517              		.loc 1 1072 17
 1518 0026 7B68     		ldr	r3, [r7, #4]
 1519 0028 0122     		movs	r2, #1
 1520 002a 83F83620 		strb	r2, [r3, #54]
1073:Drivers/STM32L4xx_HAL_Driver/Src/stm32l4xx_hal_lptim.c **** 
1074:Drivers/STM32L4xx_HAL_Driver/Src/stm32l4xx_hal_lptim.c ****   /* Return function status */
1075:Drivers/STM32L4xx_HAL_Driver/Src/stm32l4xx_hal_lptim.c ****   return HAL_OK;
 1521              		.loc 1 1075 10
 1522 002e 0023     		movs	r3, #0
 1523              	.L63:
1076:Drivers/STM32L4xx_HAL_Driver/Src/stm32l4xx_hal_lptim.c **** }
 1524              		.loc 1 1076 1
 1525 0030 1846     		mov	r0, r3
 1526 0032 0837     		adds	r7, r7, #8
 1527              		.cfi_def_cfa_offset 8
 1528 0034 BD46     		mov	sp, r7
 1529              		.cfi_def_cfa_register 13
 1530              		@ sp needed
 1531 0036 80BD     		pop	{r7, pc}
 1532              		.cfi_endproc
 1533              	.LFE458:
 1535              		.section	.text.HAL_LPTIM_SetOnce_Start_IT,"ax",%progbits
 1536              		.align	1
 1537              		.global	HAL_LPTIM_SetOnce_Start_IT
 1538              		.syntax unified
 1539              		.thumb
 1540              		.thumb_func
 1542              	HAL_LPTIM_SetOnce_Start_IT:
 1543              	.LFB459:
1077:Drivers/STM32L4xx_HAL_Driver/Src/stm32l4xx_hal_lptim.c **** 
1078:Drivers/STM32L4xx_HAL_Driver/Src/stm32l4xx_hal_lptim.c **** /**
1079:Drivers/STM32L4xx_HAL_Driver/Src/stm32l4xx_hal_lptim.c ****   * @brief  Start the LPTIM Set once mode in interrupt mode.
1080:Drivers/STM32L4xx_HAL_Driver/Src/stm32l4xx_hal_lptim.c ****   * @param  hlptim LPTIM handle
1081:Drivers/STM32L4xx_HAL_Driver/Src/stm32l4xx_hal_lptim.c ****   * @param  Period Specifies the Autoreload value.
1082:Drivers/STM32L4xx_HAL_Driver/Src/stm32l4xx_hal_lptim.c ****   *         This parameter must be a value between 0x0000 and 0xFFFF.
1083:Drivers/STM32L4xx_HAL_Driver/Src/stm32l4xx_hal_lptim.c ****   * @param  Pulse Specifies the compare value.
1084:Drivers/STM32L4xx_HAL_Driver/Src/stm32l4xx_hal_lptim.c ****   *         This parameter must be a value between 0x0000 and 0xFFFF.
1085:Drivers/STM32L4xx_HAL_Driver/Src/stm32l4xx_hal_lptim.c ****   * @retval HAL status
1086:Drivers/STM32L4xx_HAL_Driver/Src/stm32l4xx_hal_lptim.c ****   */
1087:Drivers/STM32L4xx_HAL_Driver/Src/stm32l4xx_hal_lptim.c **** HAL_StatusTypeDef HAL_LPTIM_SetOnce_Start_IT(LPTIM_HandleTypeDef *hlptim, uint32_t Period, uint32_t
1088:Drivers/STM32L4xx_HAL_Driver/Src/stm32l4xx_hal_lptim.c **** {
 1544              		.loc 1 1088 1
 1545              		.cfi_startproc
 1546              		@ args = 0, pretend = 0, frame = 16
 1547              		@ frame_needed = 1, uses_anonymous_args = 0
 1548 0000 80B5     		push	{r7, lr}
 1549              		.cfi_def_cfa_offset 8
 1550              		.cfi_offset 7, -8
 1551              		.cfi_offset 14, -4
 1552 0002 84B0     		sub	sp, sp, #16
ARM GAS  /tmp/ccB7T7H1.s 			page 47


 1553              		.cfi_def_cfa_offset 24
 1554 0004 00AF     		add	r7, sp, #0
 1555              		.cfi_def_cfa_register 7
 1556 0006 F860     		str	r0, [r7, #12]
 1557 0008 B960     		str	r1, [r7, #8]
 1558 000a 7A60     		str	r2, [r7, #4]
1089:Drivers/STM32L4xx_HAL_Driver/Src/stm32l4xx_hal_lptim.c ****   /* Check the parameters */
1090:Drivers/STM32L4xx_HAL_Driver/Src/stm32l4xx_hal_lptim.c ****   assert_param(IS_LPTIM_INSTANCE(hlptim->Instance));
1091:Drivers/STM32L4xx_HAL_Driver/Src/stm32l4xx_hal_lptim.c ****   assert_param(IS_LPTIM_PERIOD(Period));
1092:Drivers/STM32L4xx_HAL_Driver/Src/stm32l4xx_hal_lptim.c ****   assert_param(IS_LPTIM_PULSE(Pulse));
1093:Drivers/STM32L4xx_HAL_Driver/Src/stm32l4xx_hal_lptim.c **** 
1094:Drivers/STM32L4xx_HAL_Driver/Src/stm32l4xx_hal_lptim.c ****   /* Set the LPTIM state */
1095:Drivers/STM32L4xx_HAL_Driver/Src/stm32l4xx_hal_lptim.c ****   hlptim->State = HAL_LPTIM_STATE_BUSY;
 1559              		.loc 1 1095 17
 1560 000c FB68     		ldr	r3, [r7, #12]
 1561 000e 0222     		movs	r2, #2
 1562 0010 83F83620 		strb	r2, [r3, #54]
1096:Drivers/STM32L4xx_HAL_Driver/Src/stm32l4xx_hal_lptim.c **** 
1097:Drivers/STM32L4xx_HAL_Driver/Src/stm32l4xx_hal_lptim.c ****   /* Set WAVE bit to enable the set once mode */
1098:Drivers/STM32L4xx_HAL_Driver/Src/stm32l4xx_hal_lptim.c ****   hlptim->Instance->CFGR |= LPTIM_CFGR_WAVE;
 1563              		.loc 1 1098 9
 1564 0014 FB68     		ldr	r3, [r7, #12]
 1565 0016 1B68     		ldr	r3, [r3]
 1566              		.loc 1 1098 19
 1567 0018 DA68     		ldr	r2, [r3, #12]
 1568              		.loc 1 1098 9
 1569 001a FB68     		ldr	r3, [r7, #12]
 1570 001c 1B68     		ldr	r3, [r3]
 1571              		.loc 1 1098 26
 1572 001e 42F48012 		orr	r2, r2, #1048576
 1573 0022 DA60     		str	r2, [r3, #12]
1099:Drivers/STM32L4xx_HAL_Driver/Src/stm32l4xx_hal_lptim.c **** 
1100:Drivers/STM32L4xx_HAL_Driver/Src/stm32l4xx_hal_lptim.c ****   /* Enable the Peripheral */
1101:Drivers/STM32L4xx_HAL_Driver/Src/stm32l4xx_hal_lptim.c ****   __HAL_LPTIM_ENABLE(hlptim);
 1574              		.loc 1 1101 3
 1575 0024 FB68     		ldr	r3, [r7, #12]
 1576 0026 1B68     		ldr	r3, [r3]
 1577 0028 1A69     		ldr	r2, [r3, #16]
 1578 002a FB68     		ldr	r3, [r7, #12]
 1579 002c 1B68     		ldr	r3, [r3]
 1580 002e 42F00102 		orr	r2, r2, #1
 1581 0032 1A61     		str	r2, [r3, #16]
1102:Drivers/STM32L4xx_HAL_Driver/Src/stm32l4xx_hal_lptim.c **** 
1103:Drivers/STM32L4xx_HAL_Driver/Src/stm32l4xx_hal_lptim.c ****   /* Clear flag */
1104:Drivers/STM32L4xx_HAL_Driver/Src/stm32l4xx_hal_lptim.c ****   __HAL_LPTIM_CLEAR_FLAG(hlptim, LPTIM_FLAG_ARROK);
 1582              		.loc 1 1104 3
 1583 0034 FB68     		ldr	r3, [r7, #12]
 1584 0036 1B68     		ldr	r3, [r3]
 1585 0038 1022     		movs	r2, #16
 1586 003a 5A60     		str	r2, [r3, #4]
1105:Drivers/STM32L4xx_HAL_Driver/Src/stm32l4xx_hal_lptim.c **** 
1106:Drivers/STM32L4xx_HAL_Driver/Src/stm32l4xx_hal_lptim.c ****   /* Load the period value in the autoreload register */
1107:Drivers/STM32L4xx_HAL_Driver/Src/stm32l4xx_hal_lptim.c ****   __HAL_LPTIM_AUTORELOAD_SET(hlptim, Period);
 1587              		.loc 1 1107 3
 1588 003c FB68     		ldr	r3, [r7, #12]
 1589 003e 1B68     		ldr	r3, [r3]
 1590 0040 BA68     		ldr	r2, [r7, #8]
ARM GAS  /tmp/ccB7T7H1.s 			page 48


 1591 0042 9A61     		str	r2, [r3, #24]
1108:Drivers/STM32L4xx_HAL_Driver/Src/stm32l4xx_hal_lptim.c **** 
1109:Drivers/STM32L4xx_HAL_Driver/Src/stm32l4xx_hal_lptim.c ****   /* Wait for the completion of the write operation to the LPTIM_ARR register */
1110:Drivers/STM32L4xx_HAL_Driver/Src/stm32l4xx_hal_lptim.c ****   if (LPTIM_WaitForFlag(hlptim, LPTIM_FLAG_ARROK) == HAL_TIMEOUT)
 1592              		.loc 1 1110 7
 1593 0044 1021     		movs	r1, #16
 1594 0046 F868     		ldr	r0, [r7, #12]
 1595 0048 FFF7FEFF 		bl	LPTIM_WaitForFlag
 1596 004c 0346     		mov	r3, r0
 1597              		.loc 1 1110 6 discriminator 1
 1598 004e 032B     		cmp	r3, #3
 1599 0050 01D1     		bne	.L65
1111:Drivers/STM32L4xx_HAL_Driver/Src/stm32l4xx_hal_lptim.c ****   {
1112:Drivers/STM32L4xx_HAL_Driver/Src/stm32l4xx_hal_lptim.c ****     return HAL_TIMEOUT;
 1600              		.loc 1 1112 12
 1601 0052 0323     		movs	r3, #3
 1602 0054 5EE0     		b	.L66
 1603              	.L65:
1113:Drivers/STM32L4xx_HAL_Driver/Src/stm32l4xx_hal_lptim.c ****   }
1114:Drivers/STM32L4xx_HAL_Driver/Src/stm32l4xx_hal_lptim.c **** 
1115:Drivers/STM32L4xx_HAL_Driver/Src/stm32l4xx_hal_lptim.c ****   /* Clear flag */
1116:Drivers/STM32L4xx_HAL_Driver/Src/stm32l4xx_hal_lptim.c ****   __HAL_LPTIM_CLEAR_FLAG(hlptim, LPTIM_FLAG_CMPOK);
 1604              		.loc 1 1116 3
 1605 0056 FB68     		ldr	r3, [r7, #12]
 1606 0058 1B68     		ldr	r3, [r3]
 1607 005a 0822     		movs	r2, #8
 1608 005c 5A60     		str	r2, [r3, #4]
1117:Drivers/STM32L4xx_HAL_Driver/Src/stm32l4xx_hal_lptim.c **** 
1118:Drivers/STM32L4xx_HAL_Driver/Src/stm32l4xx_hal_lptim.c ****   /* Load the pulse value in the compare register */
1119:Drivers/STM32L4xx_HAL_Driver/Src/stm32l4xx_hal_lptim.c ****   __HAL_LPTIM_COMPARE_SET(hlptim, Pulse);
 1609              		.loc 1 1119 3
 1610 005e FB68     		ldr	r3, [r7, #12]
 1611 0060 1B68     		ldr	r3, [r3]
 1612 0062 7A68     		ldr	r2, [r7, #4]
 1613 0064 5A61     		str	r2, [r3, #20]
1120:Drivers/STM32L4xx_HAL_Driver/Src/stm32l4xx_hal_lptim.c **** 
1121:Drivers/STM32L4xx_HAL_Driver/Src/stm32l4xx_hal_lptim.c ****   /* Wait for the completion of the write operation to the LPTIM_CMP register */
1122:Drivers/STM32L4xx_HAL_Driver/Src/stm32l4xx_hal_lptim.c ****   if (LPTIM_WaitForFlag(hlptim, LPTIM_FLAG_CMPOK) == HAL_TIMEOUT)
 1614              		.loc 1 1122 7
 1615 0066 0821     		movs	r1, #8
 1616 0068 F868     		ldr	r0, [r7, #12]
 1617 006a FFF7FEFF 		bl	LPTIM_WaitForFlag
 1618 006e 0346     		mov	r3, r0
 1619              		.loc 1 1122 6 discriminator 1
 1620 0070 032B     		cmp	r3, #3
 1621 0072 01D1     		bne	.L67
1123:Drivers/STM32L4xx_HAL_Driver/Src/stm32l4xx_hal_lptim.c ****   {
1124:Drivers/STM32L4xx_HAL_Driver/Src/stm32l4xx_hal_lptim.c ****     return HAL_TIMEOUT;
 1622              		.loc 1 1124 12
 1623 0074 0323     		movs	r3, #3
 1624 0076 4DE0     		b	.L66
 1625              	.L67:
1125:Drivers/STM32L4xx_HAL_Driver/Src/stm32l4xx_hal_lptim.c ****   }
1126:Drivers/STM32L4xx_HAL_Driver/Src/stm32l4xx_hal_lptim.c **** 
1127:Drivers/STM32L4xx_HAL_Driver/Src/stm32l4xx_hal_lptim.c ****   /* Disable the Peripheral */
1128:Drivers/STM32L4xx_HAL_Driver/Src/stm32l4xx_hal_lptim.c ****   __HAL_LPTIM_DISABLE(hlptim);
 1626              		.loc 1 1128 3
ARM GAS  /tmp/ccB7T7H1.s 			page 49


 1627 0078 F868     		ldr	r0, [r7, #12]
 1628 007a FFF7FEFF 		bl	LPTIM_Disable
1129:Drivers/STM32L4xx_HAL_Driver/Src/stm32l4xx_hal_lptim.c **** 
1130:Drivers/STM32L4xx_HAL_Driver/Src/stm32l4xx_hal_lptim.c ****   if (HAL_LPTIM_GetState(hlptim) == HAL_LPTIM_STATE_TIMEOUT)
 1629              		.loc 1 1130 7
 1630 007e F868     		ldr	r0, [r7, #12]
 1631 0080 FFF7FEFF 		bl	HAL_LPTIM_GetState
 1632 0084 0346     		mov	r3, r0
 1633              		.loc 1 1130 6 discriminator 1
 1634 0086 032B     		cmp	r3, #3
 1635 0088 01D1     		bne	.L68
1131:Drivers/STM32L4xx_HAL_Driver/Src/stm32l4xx_hal_lptim.c ****   {
1132:Drivers/STM32L4xx_HAL_Driver/Src/stm32l4xx_hal_lptim.c ****     return HAL_TIMEOUT;
 1636              		.loc 1 1132 12
 1637 008a 0323     		movs	r3, #3
 1638 008c 42E0     		b	.L66
 1639              	.L68:
1133:Drivers/STM32L4xx_HAL_Driver/Src/stm32l4xx_hal_lptim.c ****   }
1134:Drivers/STM32L4xx_HAL_Driver/Src/stm32l4xx_hal_lptim.c **** 
1135:Drivers/STM32L4xx_HAL_Driver/Src/stm32l4xx_hal_lptim.c ****   /* Enable Autoreload write complete interrupt */
1136:Drivers/STM32L4xx_HAL_Driver/Src/stm32l4xx_hal_lptim.c ****   __HAL_LPTIM_ENABLE_IT(hlptim, LPTIM_IT_ARROK);
 1640              		.loc 1 1136 3
 1641 008e FB68     		ldr	r3, [r7, #12]
 1642 0090 1B68     		ldr	r3, [r3]
 1643 0092 9A68     		ldr	r2, [r3, #8]
 1644 0094 FB68     		ldr	r3, [r7, #12]
 1645 0096 1B68     		ldr	r3, [r3]
 1646 0098 42F01002 		orr	r2, r2, #16
 1647 009c 9A60     		str	r2, [r3, #8]
1137:Drivers/STM32L4xx_HAL_Driver/Src/stm32l4xx_hal_lptim.c **** 
1138:Drivers/STM32L4xx_HAL_Driver/Src/stm32l4xx_hal_lptim.c ****   /* Enable Compare write complete interrupt */
1139:Drivers/STM32L4xx_HAL_Driver/Src/stm32l4xx_hal_lptim.c ****   __HAL_LPTIM_ENABLE_IT(hlptim, LPTIM_IT_CMPOK);
 1648              		.loc 1 1139 3
 1649 009e FB68     		ldr	r3, [r7, #12]
 1650 00a0 1B68     		ldr	r3, [r3]
 1651 00a2 9A68     		ldr	r2, [r3, #8]
 1652 00a4 FB68     		ldr	r3, [r7, #12]
 1653 00a6 1B68     		ldr	r3, [r3]
 1654 00a8 42F00802 		orr	r2, r2, #8
 1655 00ac 9A60     		str	r2, [r3, #8]
1140:Drivers/STM32L4xx_HAL_Driver/Src/stm32l4xx_hal_lptim.c **** 
1141:Drivers/STM32L4xx_HAL_Driver/Src/stm32l4xx_hal_lptim.c ****   /* Enable Autoreload match interrupt */
1142:Drivers/STM32L4xx_HAL_Driver/Src/stm32l4xx_hal_lptim.c ****   __HAL_LPTIM_ENABLE_IT(hlptim, LPTIM_IT_ARRM);
 1656              		.loc 1 1142 3
 1657 00ae FB68     		ldr	r3, [r7, #12]
 1658 00b0 1B68     		ldr	r3, [r3]
 1659 00b2 9A68     		ldr	r2, [r3, #8]
 1660 00b4 FB68     		ldr	r3, [r7, #12]
 1661 00b6 1B68     		ldr	r3, [r3]
 1662 00b8 42F00202 		orr	r2, r2, #2
 1663 00bc 9A60     		str	r2, [r3, #8]
1143:Drivers/STM32L4xx_HAL_Driver/Src/stm32l4xx_hal_lptim.c **** 
1144:Drivers/STM32L4xx_HAL_Driver/Src/stm32l4xx_hal_lptim.c ****   /* Enable Compare match interrupt */
1145:Drivers/STM32L4xx_HAL_Driver/Src/stm32l4xx_hal_lptim.c ****   __HAL_LPTIM_ENABLE_IT(hlptim, LPTIM_IT_CMPM);
 1664              		.loc 1 1145 3
 1665 00be FB68     		ldr	r3, [r7, #12]
 1666 00c0 1B68     		ldr	r3, [r3]
ARM GAS  /tmp/ccB7T7H1.s 			page 50


 1667 00c2 9A68     		ldr	r2, [r3, #8]
 1668 00c4 FB68     		ldr	r3, [r7, #12]
 1669 00c6 1B68     		ldr	r3, [r3]
 1670 00c8 42F00102 		orr	r2, r2, #1
 1671 00cc 9A60     		str	r2, [r3, #8]
1146:Drivers/STM32L4xx_HAL_Driver/Src/stm32l4xx_hal_lptim.c **** 
1147:Drivers/STM32L4xx_HAL_Driver/Src/stm32l4xx_hal_lptim.c ****   /* If external trigger source is used, then enable external trigger interrupt */
1148:Drivers/STM32L4xx_HAL_Driver/Src/stm32l4xx_hal_lptim.c ****   if ((hlptim->Init.Trigger.Source) != LPTIM_TRIGSOURCE_SOFTWARE)
 1672              		.loc 1 1148 28
 1673 00ce FB68     		ldr	r3, [r7, #12]
 1674 00d0 5B69     		ldr	r3, [r3, #20]
 1675              		.loc 1 1148 6
 1676 00d2 4FF6FF72 		movw	r2, #65535
 1677 00d6 9342     		cmp	r3, r2
 1678 00d8 07D0     		beq	.L69
1149:Drivers/STM32L4xx_HAL_Driver/Src/stm32l4xx_hal_lptim.c ****   {
1150:Drivers/STM32L4xx_HAL_Driver/Src/stm32l4xx_hal_lptim.c ****     /* Enable external trigger interrupt */
1151:Drivers/STM32L4xx_HAL_Driver/Src/stm32l4xx_hal_lptim.c ****     __HAL_LPTIM_ENABLE_IT(hlptim, LPTIM_IT_EXTTRIG);
 1679              		.loc 1 1151 5
 1680 00da FB68     		ldr	r3, [r7, #12]
 1681 00dc 1B68     		ldr	r3, [r3]
 1682 00de 9A68     		ldr	r2, [r3, #8]
 1683 00e0 FB68     		ldr	r3, [r7, #12]
 1684 00e2 1B68     		ldr	r3, [r3]
 1685 00e4 42F00402 		orr	r2, r2, #4
 1686 00e8 9A60     		str	r2, [r3, #8]
 1687              	.L69:
1152:Drivers/STM32L4xx_HAL_Driver/Src/stm32l4xx_hal_lptim.c ****   }
1153:Drivers/STM32L4xx_HAL_Driver/Src/stm32l4xx_hal_lptim.c **** 
1154:Drivers/STM32L4xx_HAL_Driver/Src/stm32l4xx_hal_lptim.c ****   /* Enable the Peripheral */
1155:Drivers/STM32L4xx_HAL_Driver/Src/stm32l4xx_hal_lptim.c ****   __HAL_LPTIM_ENABLE(hlptim);
 1688              		.loc 1 1155 3
 1689 00ea FB68     		ldr	r3, [r7, #12]
 1690 00ec 1B68     		ldr	r3, [r3]
 1691 00ee 1A69     		ldr	r2, [r3, #16]
 1692 00f0 FB68     		ldr	r3, [r7, #12]
 1693 00f2 1B68     		ldr	r3, [r3]
 1694 00f4 42F00102 		orr	r2, r2, #1
 1695 00f8 1A61     		str	r2, [r3, #16]
1156:Drivers/STM32L4xx_HAL_Driver/Src/stm32l4xx_hal_lptim.c **** 
1157:Drivers/STM32L4xx_HAL_Driver/Src/stm32l4xx_hal_lptim.c ****   /* Start timer in single (one shot) mode */
1158:Drivers/STM32L4xx_HAL_Driver/Src/stm32l4xx_hal_lptim.c ****   __HAL_LPTIM_START_SINGLE(hlptim);
 1696              		.loc 1 1158 3
 1697 00fa FB68     		ldr	r3, [r7, #12]
 1698 00fc 1B68     		ldr	r3, [r3]
 1699 00fe 1A69     		ldr	r2, [r3, #16]
 1700 0100 FB68     		ldr	r3, [r7, #12]
 1701 0102 1B68     		ldr	r3, [r3]
 1702 0104 42F00202 		orr	r2, r2, #2
 1703 0108 1A61     		str	r2, [r3, #16]
1159:Drivers/STM32L4xx_HAL_Driver/Src/stm32l4xx_hal_lptim.c **** 
1160:Drivers/STM32L4xx_HAL_Driver/Src/stm32l4xx_hal_lptim.c ****   /* Change the LPTIM state */
1161:Drivers/STM32L4xx_HAL_Driver/Src/stm32l4xx_hal_lptim.c ****   hlptim->State = HAL_LPTIM_STATE_READY;
 1704              		.loc 1 1161 17
 1705 010a FB68     		ldr	r3, [r7, #12]
 1706 010c 0122     		movs	r2, #1
 1707 010e 83F83620 		strb	r2, [r3, #54]
ARM GAS  /tmp/ccB7T7H1.s 			page 51


1162:Drivers/STM32L4xx_HAL_Driver/Src/stm32l4xx_hal_lptim.c **** 
1163:Drivers/STM32L4xx_HAL_Driver/Src/stm32l4xx_hal_lptim.c ****   /* Return function status */
1164:Drivers/STM32L4xx_HAL_Driver/Src/stm32l4xx_hal_lptim.c ****   return HAL_OK;
 1708              		.loc 1 1164 10
 1709 0112 0023     		movs	r3, #0
 1710              	.L66:
1165:Drivers/STM32L4xx_HAL_Driver/Src/stm32l4xx_hal_lptim.c **** }
 1711              		.loc 1 1165 1
 1712 0114 1846     		mov	r0, r3
 1713 0116 1037     		adds	r7, r7, #16
 1714              		.cfi_def_cfa_offset 8
 1715 0118 BD46     		mov	sp, r7
 1716              		.cfi_def_cfa_register 13
 1717              		@ sp needed
 1718 011a 80BD     		pop	{r7, pc}
 1719              		.cfi_endproc
 1720              	.LFE459:
 1722              		.section	.text.HAL_LPTIM_SetOnce_Stop_IT,"ax",%progbits
 1723              		.align	1
 1724              		.global	HAL_LPTIM_SetOnce_Stop_IT
 1725              		.syntax unified
 1726              		.thumb
 1727              		.thumb_func
 1729              	HAL_LPTIM_SetOnce_Stop_IT:
 1730              	.LFB460:
1166:Drivers/STM32L4xx_HAL_Driver/Src/stm32l4xx_hal_lptim.c **** 
1167:Drivers/STM32L4xx_HAL_Driver/Src/stm32l4xx_hal_lptim.c **** /**
1168:Drivers/STM32L4xx_HAL_Driver/Src/stm32l4xx_hal_lptim.c ****   * @brief  Stop the LPTIM Set once mode in interrupt mode.
1169:Drivers/STM32L4xx_HAL_Driver/Src/stm32l4xx_hal_lptim.c ****   * @param  hlptim LPTIM handle
1170:Drivers/STM32L4xx_HAL_Driver/Src/stm32l4xx_hal_lptim.c ****   * @retval HAL status
1171:Drivers/STM32L4xx_HAL_Driver/Src/stm32l4xx_hal_lptim.c ****   */
1172:Drivers/STM32L4xx_HAL_Driver/Src/stm32l4xx_hal_lptim.c **** HAL_StatusTypeDef HAL_LPTIM_SetOnce_Stop_IT(LPTIM_HandleTypeDef *hlptim)
1173:Drivers/STM32L4xx_HAL_Driver/Src/stm32l4xx_hal_lptim.c **** {
 1731              		.loc 1 1173 1
 1732              		.cfi_startproc
 1733              		@ args = 0, pretend = 0, frame = 8
 1734              		@ frame_needed = 1, uses_anonymous_args = 0
 1735 0000 80B5     		push	{r7, lr}
 1736              		.cfi_def_cfa_offset 8
 1737              		.cfi_offset 7, -8
 1738              		.cfi_offset 14, -4
 1739 0002 82B0     		sub	sp, sp, #8
 1740              		.cfi_def_cfa_offset 16
 1741 0004 00AF     		add	r7, sp, #0
 1742              		.cfi_def_cfa_register 7
 1743 0006 7860     		str	r0, [r7, #4]
1174:Drivers/STM32L4xx_HAL_Driver/Src/stm32l4xx_hal_lptim.c ****   /* Check the parameters */
1175:Drivers/STM32L4xx_HAL_Driver/Src/stm32l4xx_hal_lptim.c ****   assert_param(IS_LPTIM_INSTANCE(hlptim->Instance));
1176:Drivers/STM32L4xx_HAL_Driver/Src/stm32l4xx_hal_lptim.c **** 
1177:Drivers/STM32L4xx_HAL_Driver/Src/stm32l4xx_hal_lptim.c ****   /* Set the LPTIM state */
1178:Drivers/STM32L4xx_HAL_Driver/Src/stm32l4xx_hal_lptim.c ****   hlptim->State = HAL_LPTIM_STATE_BUSY;
 1744              		.loc 1 1178 17
 1745 0008 7B68     		ldr	r3, [r7, #4]
 1746 000a 0222     		movs	r2, #2
 1747 000c 83F83620 		strb	r2, [r3, #54]
1179:Drivers/STM32L4xx_HAL_Driver/Src/stm32l4xx_hal_lptim.c **** 
1180:Drivers/STM32L4xx_HAL_Driver/Src/stm32l4xx_hal_lptim.c ****   /* Disable the Peripheral */
ARM GAS  /tmp/ccB7T7H1.s 			page 52


1181:Drivers/STM32L4xx_HAL_Driver/Src/stm32l4xx_hal_lptim.c ****   __HAL_LPTIM_DISABLE(hlptim);
 1748              		.loc 1 1181 3
 1749 0010 7868     		ldr	r0, [r7, #4]
 1750 0012 FFF7FEFF 		bl	LPTIM_Disable
1182:Drivers/STM32L4xx_HAL_Driver/Src/stm32l4xx_hal_lptim.c **** 
1183:Drivers/STM32L4xx_HAL_Driver/Src/stm32l4xx_hal_lptim.c ****   if (HAL_LPTIM_GetState(hlptim) == HAL_LPTIM_STATE_TIMEOUT)
 1751              		.loc 1 1183 7
 1752 0016 7868     		ldr	r0, [r7, #4]
 1753 0018 FFF7FEFF 		bl	HAL_LPTIM_GetState
 1754 001c 0346     		mov	r3, r0
 1755              		.loc 1 1183 6 discriminator 1
 1756 001e 032B     		cmp	r3, #3
 1757 0020 01D1     		bne	.L71
1184:Drivers/STM32L4xx_HAL_Driver/Src/stm32l4xx_hal_lptim.c ****   {
1185:Drivers/STM32L4xx_HAL_Driver/Src/stm32l4xx_hal_lptim.c ****     return HAL_TIMEOUT;
 1758              		.loc 1 1185 12
 1759 0022 0323     		movs	r3, #3
 1760 0024 32E0     		b	.L72
 1761              	.L71:
1186:Drivers/STM32L4xx_HAL_Driver/Src/stm32l4xx_hal_lptim.c ****   }
1187:Drivers/STM32L4xx_HAL_Driver/Src/stm32l4xx_hal_lptim.c **** 
1188:Drivers/STM32L4xx_HAL_Driver/Src/stm32l4xx_hal_lptim.c ****   /* Disable Autoreload write complete interrupt */
1189:Drivers/STM32L4xx_HAL_Driver/Src/stm32l4xx_hal_lptim.c ****   __HAL_LPTIM_DISABLE_IT(hlptim, LPTIM_IT_ARROK);
 1762              		.loc 1 1189 3
 1763 0026 7B68     		ldr	r3, [r7, #4]
 1764 0028 1B68     		ldr	r3, [r3]
 1765 002a 9A68     		ldr	r2, [r3, #8]
 1766 002c 7B68     		ldr	r3, [r7, #4]
 1767 002e 1B68     		ldr	r3, [r3]
 1768 0030 22F01002 		bic	r2, r2, #16
 1769 0034 9A60     		str	r2, [r3, #8]
1190:Drivers/STM32L4xx_HAL_Driver/Src/stm32l4xx_hal_lptim.c **** 
1191:Drivers/STM32L4xx_HAL_Driver/Src/stm32l4xx_hal_lptim.c ****   /* Disable Compare write complete interrupt */
1192:Drivers/STM32L4xx_HAL_Driver/Src/stm32l4xx_hal_lptim.c ****   __HAL_LPTIM_DISABLE_IT(hlptim, LPTIM_IT_CMPOK);
 1770              		.loc 1 1192 3
 1771 0036 7B68     		ldr	r3, [r7, #4]
 1772 0038 1B68     		ldr	r3, [r3]
 1773 003a 9A68     		ldr	r2, [r3, #8]
 1774 003c 7B68     		ldr	r3, [r7, #4]
 1775 003e 1B68     		ldr	r3, [r3]
 1776 0040 22F00802 		bic	r2, r2, #8
 1777 0044 9A60     		str	r2, [r3, #8]
1193:Drivers/STM32L4xx_HAL_Driver/Src/stm32l4xx_hal_lptim.c **** 
1194:Drivers/STM32L4xx_HAL_Driver/Src/stm32l4xx_hal_lptim.c ****   /* Disable Autoreload match interrupt */
1195:Drivers/STM32L4xx_HAL_Driver/Src/stm32l4xx_hal_lptim.c ****   __HAL_LPTIM_DISABLE_IT(hlptim, LPTIM_IT_ARRM);
 1778              		.loc 1 1195 3
 1779 0046 7B68     		ldr	r3, [r7, #4]
 1780 0048 1B68     		ldr	r3, [r3]
 1781 004a 9A68     		ldr	r2, [r3, #8]
 1782 004c 7B68     		ldr	r3, [r7, #4]
 1783 004e 1B68     		ldr	r3, [r3]
 1784 0050 22F00202 		bic	r2, r2, #2
 1785 0054 9A60     		str	r2, [r3, #8]
1196:Drivers/STM32L4xx_HAL_Driver/Src/stm32l4xx_hal_lptim.c **** 
1197:Drivers/STM32L4xx_HAL_Driver/Src/stm32l4xx_hal_lptim.c ****   /* Disable Compare match interrupt */
1198:Drivers/STM32L4xx_HAL_Driver/Src/stm32l4xx_hal_lptim.c ****   __HAL_LPTIM_DISABLE_IT(hlptim, LPTIM_IT_CMPM);
 1786              		.loc 1 1198 3
ARM GAS  /tmp/ccB7T7H1.s 			page 53


 1787 0056 7B68     		ldr	r3, [r7, #4]
 1788 0058 1B68     		ldr	r3, [r3]
 1789 005a 9A68     		ldr	r2, [r3, #8]
 1790 005c 7B68     		ldr	r3, [r7, #4]
 1791 005e 1B68     		ldr	r3, [r3]
 1792 0060 22F00102 		bic	r2, r2, #1
 1793 0064 9A60     		str	r2, [r3, #8]
1199:Drivers/STM32L4xx_HAL_Driver/Src/stm32l4xx_hal_lptim.c **** 
1200:Drivers/STM32L4xx_HAL_Driver/Src/stm32l4xx_hal_lptim.c ****   /* If external trigger source is used, then disable external trigger interrupt */
1201:Drivers/STM32L4xx_HAL_Driver/Src/stm32l4xx_hal_lptim.c ****   if ((hlptim->Init.Trigger.Source) != LPTIM_TRIGSOURCE_SOFTWARE)
 1794              		.loc 1 1201 28
 1795 0066 7B68     		ldr	r3, [r7, #4]
 1796 0068 5B69     		ldr	r3, [r3, #20]
 1797              		.loc 1 1201 6
 1798 006a 4FF6FF72 		movw	r2, #65535
 1799 006e 9342     		cmp	r3, r2
 1800 0070 07D0     		beq	.L73
1202:Drivers/STM32L4xx_HAL_Driver/Src/stm32l4xx_hal_lptim.c ****   {
1203:Drivers/STM32L4xx_HAL_Driver/Src/stm32l4xx_hal_lptim.c ****     /* Disable external trigger interrupt */
1204:Drivers/STM32L4xx_HAL_Driver/Src/stm32l4xx_hal_lptim.c ****     __HAL_LPTIM_DISABLE_IT(hlptim, LPTIM_IT_EXTTRIG);
 1801              		.loc 1 1204 5
 1802 0072 7B68     		ldr	r3, [r7, #4]
 1803 0074 1B68     		ldr	r3, [r3]
 1804 0076 9A68     		ldr	r2, [r3, #8]
 1805 0078 7B68     		ldr	r3, [r7, #4]
 1806 007a 1B68     		ldr	r3, [r3]
 1807 007c 22F00402 		bic	r2, r2, #4
 1808 0080 9A60     		str	r2, [r3, #8]
 1809              	.L73:
1205:Drivers/STM32L4xx_HAL_Driver/Src/stm32l4xx_hal_lptim.c ****   }
1206:Drivers/STM32L4xx_HAL_Driver/Src/stm32l4xx_hal_lptim.c **** 
1207:Drivers/STM32L4xx_HAL_Driver/Src/stm32l4xx_hal_lptim.c ****   /* Change the LPTIM state */
1208:Drivers/STM32L4xx_HAL_Driver/Src/stm32l4xx_hal_lptim.c ****   hlptim->State = HAL_LPTIM_STATE_READY;
 1810              		.loc 1 1208 17
 1811 0082 7B68     		ldr	r3, [r7, #4]
 1812 0084 0122     		movs	r2, #1
 1813 0086 83F83620 		strb	r2, [r3, #54]
1209:Drivers/STM32L4xx_HAL_Driver/Src/stm32l4xx_hal_lptim.c **** 
1210:Drivers/STM32L4xx_HAL_Driver/Src/stm32l4xx_hal_lptim.c ****   /* Return function status */
1211:Drivers/STM32L4xx_HAL_Driver/Src/stm32l4xx_hal_lptim.c ****   return HAL_OK;
 1814              		.loc 1 1211 10
 1815 008a 0023     		movs	r3, #0
 1816              	.L72:
1212:Drivers/STM32L4xx_HAL_Driver/Src/stm32l4xx_hal_lptim.c **** }
 1817              		.loc 1 1212 1
 1818 008c 1846     		mov	r0, r3
 1819 008e 0837     		adds	r7, r7, #8
 1820              		.cfi_def_cfa_offset 8
 1821 0090 BD46     		mov	sp, r7
 1822              		.cfi_def_cfa_register 13
 1823              		@ sp needed
 1824 0092 80BD     		pop	{r7, pc}
 1825              		.cfi_endproc
 1826              	.LFE460:
 1828              		.section	.text.HAL_LPTIM_Encoder_Start,"ax",%progbits
 1829              		.align	1
 1830              		.global	HAL_LPTIM_Encoder_Start
ARM GAS  /tmp/ccB7T7H1.s 			page 54


 1831              		.syntax unified
 1832              		.thumb
 1833              		.thumb_func
 1835              	HAL_LPTIM_Encoder_Start:
 1836              	.LFB461:
1213:Drivers/STM32L4xx_HAL_Driver/Src/stm32l4xx_hal_lptim.c **** 
1214:Drivers/STM32L4xx_HAL_Driver/Src/stm32l4xx_hal_lptim.c **** /**
1215:Drivers/STM32L4xx_HAL_Driver/Src/stm32l4xx_hal_lptim.c ****   * @brief  Start the Encoder interface.
1216:Drivers/STM32L4xx_HAL_Driver/Src/stm32l4xx_hal_lptim.c ****   * @param  hlptim LPTIM handle
1217:Drivers/STM32L4xx_HAL_Driver/Src/stm32l4xx_hal_lptim.c ****   * @param  Period Specifies the Autoreload value.
1218:Drivers/STM32L4xx_HAL_Driver/Src/stm32l4xx_hal_lptim.c ****   *         This parameter must be a value between 0x0001 and 0xFFFF.
1219:Drivers/STM32L4xx_HAL_Driver/Src/stm32l4xx_hal_lptim.c ****   * @retval HAL status
1220:Drivers/STM32L4xx_HAL_Driver/Src/stm32l4xx_hal_lptim.c ****   */
1221:Drivers/STM32L4xx_HAL_Driver/Src/stm32l4xx_hal_lptim.c **** HAL_StatusTypeDef HAL_LPTIM_Encoder_Start(LPTIM_HandleTypeDef *hlptim, uint32_t Period)
1222:Drivers/STM32L4xx_HAL_Driver/Src/stm32l4xx_hal_lptim.c **** {
 1837              		.loc 1 1222 1
 1838              		.cfi_startproc
 1839              		@ args = 0, pretend = 0, frame = 16
 1840              		@ frame_needed = 1, uses_anonymous_args = 0
 1841 0000 80B5     		push	{r7, lr}
 1842              		.cfi_def_cfa_offset 8
 1843              		.cfi_offset 7, -8
 1844              		.cfi_offset 14, -4
 1845 0002 84B0     		sub	sp, sp, #16
 1846              		.cfi_def_cfa_offset 24
 1847 0004 00AF     		add	r7, sp, #0
 1848              		.cfi_def_cfa_register 7
 1849 0006 7860     		str	r0, [r7, #4]
 1850 0008 3960     		str	r1, [r7]
1223:Drivers/STM32L4xx_HAL_Driver/Src/stm32l4xx_hal_lptim.c ****   uint32_t          tmpcfgr;
1224:Drivers/STM32L4xx_HAL_Driver/Src/stm32l4xx_hal_lptim.c **** 
1225:Drivers/STM32L4xx_HAL_Driver/Src/stm32l4xx_hal_lptim.c ****   /* Check the parameters */
1226:Drivers/STM32L4xx_HAL_Driver/Src/stm32l4xx_hal_lptim.c ****   assert_param(IS_LPTIM_ENCODER_INTERFACE_INSTANCE(hlptim->Instance));
1227:Drivers/STM32L4xx_HAL_Driver/Src/stm32l4xx_hal_lptim.c ****   assert_param(IS_LPTIM_PERIOD(Period));
1228:Drivers/STM32L4xx_HAL_Driver/Src/stm32l4xx_hal_lptim.c ****   assert_param(hlptim->Init.Clock.Source == LPTIM_CLOCKSOURCE_APBCLOCK_LPOSC);
1229:Drivers/STM32L4xx_HAL_Driver/Src/stm32l4xx_hal_lptim.c ****   assert_param(hlptim->Init.Clock.Prescaler == LPTIM_PRESCALER_DIV1);
1230:Drivers/STM32L4xx_HAL_Driver/Src/stm32l4xx_hal_lptim.c ****   assert_param(IS_LPTIM_CLOCK_POLARITY(hlptim->Init.UltraLowPowerClock.Polarity));
1231:Drivers/STM32L4xx_HAL_Driver/Src/stm32l4xx_hal_lptim.c **** 
1232:Drivers/STM32L4xx_HAL_Driver/Src/stm32l4xx_hal_lptim.c ****   /* Set the LPTIM state */
1233:Drivers/STM32L4xx_HAL_Driver/Src/stm32l4xx_hal_lptim.c ****   hlptim->State = HAL_LPTIM_STATE_BUSY;
 1851              		.loc 1 1233 17
 1852 000a 7B68     		ldr	r3, [r7, #4]
 1853 000c 0222     		movs	r2, #2
 1854 000e 83F83620 		strb	r2, [r3, #54]
1234:Drivers/STM32L4xx_HAL_Driver/Src/stm32l4xx_hal_lptim.c **** 
1235:Drivers/STM32L4xx_HAL_Driver/Src/stm32l4xx_hal_lptim.c ****   /* Get the LPTIMx CFGR value */
1236:Drivers/STM32L4xx_HAL_Driver/Src/stm32l4xx_hal_lptim.c ****   tmpcfgr = hlptim->Instance->CFGR;
 1855              		.loc 1 1236 19
 1856 0012 7B68     		ldr	r3, [r7, #4]
 1857 0014 1B68     		ldr	r3, [r3]
 1858              		.loc 1 1236 11
 1859 0016 DB68     		ldr	r3, [r3, #12]
 1860 0018 FB60     		str	r3, [r7, #12]
1237:Drivers/STM32L4xx_HAL_Driver/Src/stm32l4xx_hal_lptim.c **** 
1238:Drivers/STM32L4xx_HAL_Driver/Src/stm32l4xx_hal_lptim.c ****   /* Clear CKPOL bits */
1239:Drivers/STM32L4xx_HAL_Driver/Src/stm32l4xx_hal_lptim.c ****   tmpcfgr &= (uint32_t)(~LPTIM_CFGR_CKPOL);
 1861              		.loc 1 1239 11
ARM GAS  /tmp/ccB7T7H1.s 			page 55


 1862 001a FB68     		ldr	r3, [r7, #12]
 1863 001c 23F00603 		bic	r3, r3, #6
 1864 0020 FB60     		str	r3, [r7, #12]
1240:Drivers/STM32L4xx_HAL_Driver/Src/stm32l4xx_hal_lptim.c **** 
1241:Drivers/STM32L4xx_HAL_Driver/Src/stm32l4xx_hal_lptim.c ****   /* Set Input polarity */
1242:Drivers/STM32L4xx_HAL_Driver/Src/stm32l4xx_hal_lptim.c ****   tmpcfgr |=  hlptim->Init.UltraLowPowerClock.Polarity;
 1865              		.loc 1 1242 46
 1866 0022 7B68     		ldr	r3, [r7, #4]
 1867 0024 DB68     		ldr	r3, [r3, #12]
 1868              		.loc 1 1242 11
 1869 0026 FA68     		ldr	r2, [r7, #12]
 1870 0028 1343     		orrs	r3, r3, r2
 1871 002a FB60     		str	r3, [r7, #12]
1243:Drivers/STM32L4xx_HAL_Driver/Src/stm32l4xx_hal_lptim.c **** 
1244:Drivers/STM32L4xx_HAL_Driver/Src/stm32l4xx_hal_lptim.c ****   /* Write to LPTIMx CFGR */
1245:Drivers/STM32L4xx_HAL_Driver/Src/stm32l4xx_hal_lptim.c ****   hlptim->Instance->CFGR = tmpcfgr;
 1872              		.loc 1 1245 9
 1873 002c 7B68     		ldr	r3, [r7, #4]
 1874 002e 1B68     		ldr	r3, [r3]
 1875              		.loc 1 1245 26
 1876 0030 FA68     		ldr	r2, [r7, #12]
 1877 0032 DA60     		str	r2, [r3, #12]
1246:Drivers/STM32L4xx_HAL_Driver/Src/stm32l4xx_hal_lptim.c **** 
1247:Drivers/STM32L4xx_HAL_Driver/Src/stm32l4xx_hal_lptim.c ****   /* Set ENC bit to enable the encoder interface */
1248:Drivers/STM32L4xx_HAL_Driver/Src/stm32l4xx_hal_lptim.c ****   hlptim->Instance->CFGR |= LPTIM_CFGR_ENC;
 1878              		.loc 1 1248 9
 1879 0034 7B68     		ldr	r3, [r7, #4]
 1880 0036 1B68     		ldr	r3, [r3]
 1881              		.loc 1 1248 19
 1882 0038 DA68     		ldr	r2, [r3, #12]
 1883              		.loc 1 1248 9
 1884 003a 7B68     		ldr	r3, [r7, #4]
 1885 003c 1B68     		ldr	r3, [r3]
 1886              		.loc 1 1248 26
 1887 003e 42F08072 		orr	r2, r2, #16777216
 1888 0042 DA60     		str	r2, [r3, #12]
1249:Drivers/STM32L4xx_HAL_Driver/Src/stm32l4xx_hal_lptim.c **** 
1250:Drivers/STM32L4xx_HAL_Driver/Src/stm32l4xx_hal_lptim.c ****   /* Enable the Peripheral */
1251:Drivers/STM32L4xx_HAL_Driver/Src/stm32l4xx_hal_lptim.c ****   __HAL_LPTIM_ENABLE(hlptim);
 1889              		.loc 1 1251 3
 1890 0044 7B68     		ldr	r3, [r7, #4]
 1891 0046 1B68     		ldr	r3, [r3]
 1892 0048 1A69     		ldr	r2, [r3, #16]
 1893 004a 7B68     		ldr	r3, [r7, #4]
 1894 004c 1B68     		ldr	r3, [r3]
 1895 004e 42F00102 		orr	r2, r2, #1
 1896 0052 1A61     		str	r2, [r3, #16]
1252:Drivers/STM32L4xx_HAL_Driver/Src/stm32l4xx_hal_lptim.c **** 
1253:Drivers/STM32L4xx_HAL_Driver/Src/stm32l4xx_hal_lptim.c ****   /* Clear flag */
1254:Drivers/STM32L4xx_HAL_Driver/Src/stm32l4xx_hal_lptim.c ****   __HAL_LPTIM_CLEAR_FLAG(hlptim, LPTIM_FLAG_ARROK);
 1897              		.loc 1 1254 3
 1898 0054 7B68     		ldr	r3, [r7, #4]
 1899 0056 1B68     		ldr	r3, [r3]
 1900 0058 1022     		movs	r2, #16
 1901 005a 5A60     		str	r2, [r3, #4]
1255:Drivers/STM32L4xx_HAL_Driver/Src/stm32l4xx_hal_lptim.c **** 
1256:Drivers/STM32L4xx_HAL_Driver/Src/stm32l4xx_hal_lptim.c ****   /* Load the period value in the autoreload register */
ARM GAS  /tmp/ccB7T7H1.s 			page 56


1257:Drivers/STM32L4xx_HAL_Driver/Src/stm32l4xx_hal_lptim.c ****   __HAL_LPTIM_AUTORELOAD_SET(hlptim, Period);
 1902              		.loc 1 1257 3
 1903 005c 7B68     		ldr	r3, [r7, #4]
 1904 005e 1B68     		ldr	r3, [r3]
 1905 0060 3A68     		ldr	r2, [r7]
 1906 0062 9A61     		str	r2, [r3, #24]
1258:Drivers/STM32L4xx_HAL_Driver/Src/stm32l4xx_hal_lptim.c **** 
1259:Drivers/STM32L4xx_HAL_Driver/Src/stm32l4xx_hal_lptim.c ****   /* Wait for the completion of the write operation to the LPTIM_ARR register */
1260:Drivers/STM32L4xx_HAL_Driver/Src/stm32l4xx_hal_lptim.c ****   if (LPTIM_WaitForFlag(hlptim, LPTIM_FLAG_ARROK) == HAL_TIMEOUT)
 1907              		.loc 1 1260 7
 1908 0064 1021     		movs	r1, #16
 1909 0066 7868     		ldr	r0, [r7, #4]
 1910 0068 FFF7FEFF 		bl	LPTIM_WaitForFlag
 1911 006c 0346     		mov	r3, r0
 1912              		.loc 1 1260 6 discriminator 1
 1913 006e 032B     		cmp	r3, #3
 1914 0070 01D1     		bne	.L75
1261:Drivers/STM32L4xx_HAL_Driver/Src/stm32l4xx_hal_lptim.c ****   {
1262:Drivers/STM32L4xx_HAL_Driver/Src/stm32l4xx_hal_lptim.c ****     return HAL_TIMEOUT;
 1915              		.loc 1 1262 12
 1916 0072 0323     		movs	r3, #3
 1917 0074 0CE0     		b	.L76
 1918              	.L75:
1263:Drivers/STM32L4xx_HAL_Driver/Src/stm32l4xx_hal_lptim.c ****   }
1264:Drivers/STM32L4xx_HAL_Driver/Src/stm32l4xx_hal_lptim.c **** 
1265:Drivers/STM32L4xx_HAL_Driver/Src/stm32l4xx_hal_lptim.c ****   /* Start timer in continuous mode */
1266:Drivers/STM32L4xx_HAL_Driver/Src/stm32l4xx_hal_lptim.c ****   __HAL_LPTIM_START_CONTINUOUS(hlptim);
 1919              		.loc 1 1266 3
 1920 0076 7B68     		ldr	r3, [r7, #4]
 1921 0078 1B68     		ldr	r3, [r3]
 1922 007a 1A69     		ldr	r2, [r3, #16]
 1923 007c 7B68     		ldr	r3, [r7, #4]
 1924 007e 1B68     		ldr	r3, [r3]
 1925 0080 42F00402 		orr	r2, r2, #4
 1926 0084 1A61     		str	r2, [r3, #16]
1267:Drivers/STM32L4xx_HAL_Driver/Src/stm32l4xx_hal_lptim.c **** 
1268:Drivers/STM32L4xx_HAL_Driver/Src/stm32l4xx_hal_lptim.c ****   /* Change the LPTIM state */
1269:Drivers/STM32L4xx_HAL_Driver/Src/stm32l4xx_hal_lptim.c ****   hlptim->State = HAL_LPTIM_STATE_READY;
 1927              		.loc 1 1269 17
 1928 0086 7B68     		ldr	r3, [r7, #4]
 1929 0088 0122     		movs	r2, #1
 1930 008a 83F83620 		strb	r2, [r3, #54]
1270:Drivers/STM32L4xx_HAL_Driver/Src/stm32l4xx_hal_lptim.c **** 
1271:Drivers/STM32L4xx_HAL_Driver/Src/stm32l4xx_hal_lptim.c ****   /* Return function status */
1272:Drivers/STM32L4xx_HAL_Driver/Src/stm32l4xx_hal_lptim.c ****   return HAL_OK;
 1931              		.loc 1 1272 10
 1932 008e 0023     		movs	r3, #0
 1933              	.L76:
1273:Drivers/STM32L4xx_HAL_Driver/Src/stm32l4xx_hal_lptim.c **** }
 1934              		.loc 1 1273 1
 1935 0090 1846     		mov	r0, r3
 1936 0092 1037     		adds	r7, r7, #16
 1937              		.cfi_def_cfa_offset 8
 1938 0094 BD46     		mov	sp, r7
 1939              		.cfi_def_cfa_register 13
 1940              		@ sp needed
 1941 0096 80BD     		pop	{r7, pc}
ARM GAS  /tmp/ccB7T7H1.s 			page 57


 1942              		.cfi_endproc
 1943              	.LFE461:
 1945              		.section	.text.HAL_LPTIM_Encoder_Stop,"ax",%progbits
 1946              		.align	1
 1947              		.global	HAL_LPTIM_Encoder_Stop
 1948              		.syntax unified
 1949              		.thumb
 1950              		.thumb_func
 1952              	HAL_LPTIM_Encoder_Stop:
 1953              	.LFB462:
1274:Drivers/STM32L4xx_HAL_Driver/Src/stm32l4xx_hal_lptim.c **** 
1275:Drivers/STM32L4xx_HAL_Driver/Src/stm32l4xx_hal_lptim.c **** /**
1276:Drivers/STM32L4xx_HAL_Driver/Src/stm32l4xx_hal_lptim.c ****   * @brief  Stop the Encoder interface.
1277:Drivers/STM32L4xx_HAL_Driver/Src/stm32l4xx_hal_lptim.c ****   * @param  hlptim LPTIM handle
1278:Drivers/STM32L4xx_HAL_Driver/Src/stm32l4xx_hal_lptim.c ****   * @retval HAL status
1279:Drivers/STM32L4xx_HAL_Driver/Src/stm32l4xx_hal_lptim.c ****   */
1280:Drivers/STM32L4xx_HAL_Driver/Src/stm32l4xx_hal_lptim.c **** HAL_StatusTypeDef HAL_LPTIM_Encoder_Stop(LPTIM_HandleTypeDef *hlptim)
1281:Drivers/STM32L4xx_HAL_Driver/Src/stm32l4xx_hal_lptim.c **** {
 1954              		.loc 1 1281 1
 1955              		.cfi_startproc
 1956              		@ args = 0, pretend = 0, frame = 8
 1957              		@ frame_needed = 1, uses_anonymous_args = 0
 1958 0000 80B5     		push	{r7, lr}
 1959              		.cfi_def_cfa_offset 8
 1960              		.cfi_offset 7, -8
 1961              		.cfi_offset 14, -4
 1962 0002 82B0     		sub	sp, sp, #8
 1963              		.cfi_def_cfa_offset 16
 1964 0004 00AF     		add	r7, sp, #0
 1965              		.cfi_def_cfa_register 7
 1966 0006 7860     		str	r0, [r7, #4]
1282:Drivers/STM32L4xx_HAL_Driver/Src/stm32l4xx_hal_lptim.c ****   /* Check the parameters */
1283:Drivers/STM32L4xx_HAL_Driver/Src/stm32l4xx_hal_lptim.c ****   assert_param(IS_LPTIM_ENCODER_INTERFACE_INSTANCE(hlptim->Instance));
1284:Drivers/STM32L4xx_HAL_Driver/Src/stm32l4xx_hal_lptim.c **** 
1285:Drivers/STM32L4xx_HAL_Driver/Src/stm32l4xx_hal_lptim.c ****   /* Set the LPTIM state */
1286:Drivers/STM32L4xx_HAL_Driver/Src/stm32l4xx_hal_lptim.c ****   hlptim->State = HAL_LPTIM_STATE_BUSY;
 1967              		.loc 1 1286 17
 1968 0008 7B68     		ldr	r3, [r7, #4]
 1969 000a 0222     		movs	r2, #2
 1970 000c 83F83620 		strb	r2, [r3, #54]
1287:Drivers/STM32L4xx_HAL_Driver/Src/stm32l4xx_hal_lptim.c **** 
1288:Drivers/STM32L4xx_HAL_Driver/Src/stm32l4xx_hal_lptim.c ****   /* Disable the Peripheral */
1289:Drivers/STM32L4xx_HAL_Driver/Src/stm32l4xx_hal_lptim.c ****   __HAL_LPTIM_DISABLE(hlptim);
 1971              		.loc 1 1289 3
 1972 0010 7868     		ldr	r0, [r7, #4]
 1973 0012 FFF7FEFF 		bl	LPTIM_Disable
1290:Drivers/STM32L4xx_HAL_Driver/Src/stm32l4xx_hal_lptim.c **** 
1291:Drivers/STM32L4xx_HAL_Driver/Src/stm32l4xx_hal_lptim.c ****   if (HAL_LPTIM_GetState(hlptim) == HAL_LPTIM_STATE_TIMEOUT)
 1974              		.loc 1 1291 7
 1975 0016 7868     		ldr	r0, [r7, #4]
 1976 0018 FFF7FEFF 		bl	HAL_LPTIM_GetState
 1977 001c 0346     		mov	r3, r0
 1978              		.loc 1 1291 6 discriminator 1
 1979 001e 032B     		cmp	r3, #3
 1980 0020 01D1     		bne	.L78
1292:Drivers/STM32L4xx_HAL_Driver/Src/stm32l4xx_hal_lptim.c ****   {
1293:Drivers/STM32L4xx_HAL_Driver/Src/stm32l4xx_hal_lptim.c ****     return HAL_TIMEOUT;
ARM GAS  /tmp/ccB7T7H1.s 			page 58


 1981              		.loc 1 1293 12
 1982 0022 0323     		movs	r3, #3
 1983 0024 0CE0     		b	.L79
 1984              	.L78:
1294:Drivers/STM32L4xx_HAL_Driver/Src/stm32l4xx_hal_lptim.c ****   }
1295:Drivers/STM32L4xx_HAL_Driver/Src/stm32l4xx_hal_lptim.c **** 
1296:Drivers/STM32L4xx_HAL_Driver/Src/stm32l4xx_hal_lptim.c ****   /* Reset ENC bit to disable the encoder interface */
1297:Drivers/STM32L4xx_HAL_Driver/Src/stm32l4xx_hal_lptim.c ****   hlptim->Instance->CFGR &= ~LPTIM_CFGR_ENC;
 1985              		.loc 1 1297 9
 1986 0026 7B68     		ldr	r3, [r7, #4]
 1987 0028 1B68     		ldr	r3, [r3]
 1988              		.loc 1 1297 19
 1989 002a DA68     		ldr	r2, [r3, #12]
 1990              		.loc 1 1297 9
 1991 002c 7B68     		ldr	r3, [r7, #4]
 1992 002e 1B68     		ldr	r3, [r3]
 1993              		.loc 1 1297 26
 1994 0030 22F08072 		bic	r2, r2, #16777216
 1995 0034 DA60     		str	r2, [r3, #12]
1298:Drivers/STM32L4xx_HAL_Driver/Src/stm32l4xx_hal_lptim.c **** 
1299:Drivers/STM32L4xx_HAL_Driver/Src/stm32l4xx_hal_lptim.c ****   /* Change the LPTIM state */
1300:Drivers/STM32L4xx_HAL_Driver/Src/stm32l4xx_hal_lptim.c ****   hlptim->State = HAL_LPTIM_STATE_READY;
 1996              		.loc 1 1300 17
 1997 0036 7B68     		ldr	r3, [r7, #4]
 1998 0038 0122     		movs	r2, #1
 1999 003a 83F83620 		strb	r2, [r3, #54]
1301:Drivers/STM32L4xx_HAL_Driver/Src/stm32l4xx_hal_lptim.c **** 
1302:Drivers/STM32L4xx_HAL_Driver/Src/stm32l4xx_hal_lptim.c ****   /* Return function status */
1303:Drivers/STM32L4xx_HAL_Driver/Src/stm32l4xx_hal_lptim.c ****   return HAL_OK;
 2000              		.loc 1 1303 10
 2001 003e 0023     		movs	r3, #0
 2002              	.L79:
1304:Drivers/STM32L4xx_HAL_Driver/Src/stm32l4xx_hal_lptim.c **** }
 2003              		.loc 1 1304 1
 2004 0040 1846     		mov	r0, r3
 2005 0042 0837     		adds	r7, r7, #8
 2006              		.cfi_def_cfa_offset 8
 2007 0044 BD46     		mov	sp, r7
 2008              		.cfi_def_cfa_register 13
 2009              		@ sp needed
 2010 0046 80BD     		pop	{r7, pc}
 2011              		.cfi_endproc
 2012              	.LFE462:
 2014              		.section	.text.HAL_LPTIM_Encoder_Start_IT,"ax",%progbits
 2015              		.align	1
 2016              		.global	HAL_LPTIM_Encoder_Start_IT
 2017              		.syntax unified
 2018              		.thumb
 2019              		.thumb_func
 2021              	HAL_LPTIM_Encoder_Start_IT:
 2022              	.LFB463:
1305:Drivers/STM32L4xx_HAL_Driver/Src/stm32l4xx_hal_lptim.c **** 
1306:Drivers/STM32L4xx_HAL_Driver/Src/stm32l4xx_hal_lptim.c **** /**
1307:Drivers/STM32L4xx_HAL_Driver/Src/stm32l4xx_hal_lptim.c ****   * @brief  Start the Encoder interface in interrupt mode.
1308:Drivers/STM32L4xx_HAL_Driver/Src/stm32l4xx_hal_lptim.c ****   * @param  hlptim LPTIM handle
1309:Drivers/STM32L4xx_HAL_Driver/Src/stm32l4xx_hal_lptim.c ****   * @param  Period Specifies the Autoreload value.
1310:Drivers/STM32L4xx_HAL_Driver/Src/stm32l4xx_hal_lptim.c ****   *         This parameter must be a value between 0x0000 and 0xFFFF.
ARM GAS  /tmp/ccB7T7H1.s 			page 59


1311:Drivers/STM32L4xx_HAL_Driver/Src/stm32l4xx_hal_lptim.c ****   * @retval HAL status
1312:Drivers/STM32L4xx_HAL_Driver/Src/stm32l4xx_hal_lptim.c ****   */
1313:Drivers/STM32L4xx_HAL_Driver/Src/stm32l4xx_hal_lptim.c **** HAL_StatusTypeDef HAL_LPTIM_Encoder_Start_IT(LPTIM_HandleTypeDef *hlptim, uint32_t Period)
1314:Drivers/STM32L4xx_HAL_Driver/Src/stm32l4xx_hal_lptim.c **** {
 2023              		.loc 1 1314 1
 2024              		.cfi_startproc
 2025              		@ args = 0, pretend = 0, frame = 16
 2026              		@ frame_needed = 1, uses_anonymous_args = 0
 2027 0000 80B5     		push	{r7, lr}
 2028              		.cfi_def_cfa_offset 8
 2029              		.cfi_offset 7, -8
 2030              		.cfi_offset 14, -4
 2031 0002 84B0     		sub	sp, sp, #16
 2032              		.cfi_def_cfa_offset 24
 2033 0004 00AF     		add	r7, sp, #0
 2034              		.cfi_def_cfa_register 7
 2035 0006 7860     		str	r0, [r7, #4]
 2036 0008 3960     		str	r1, [r7]
1315:Drivers/STM32L4xx_HAL_Driver/Src/stm32l4xx_hal_lptim.c ****   uint32_t          tmpcfgr;
1316:Drivers/STM32L4xx_HAL_Driver/Src/stm32l4xx_hal_lptim.c **** 
1317:Drivers/STM32L4xx_HAL_Driver/Src/stm32l4xx_hal_lptim.c ****   /* Check the parameters */
1318:Drivers/STM32L4xx_HAL_Driver/Src/stm32l4xx_hal_lptim.c ****   assert_param(IS_LPTIM_ENCODER_INTERFACE_INSTANCE(hlptim->Instance));
1319:Drivers/STM32L4xx_HAL_Driver/Src/stm32l4xx_hal_lptim.c ****   assert_param(IS_LPTIM_PERIOD(Period));
1320:Drivers/STM32L4xx_HAL_Driver/Src/stm32l4xx_hal_lptim.c ****   assert_param(hlptim->Init.Clock.Source == LPTIM_CLOCKSOURCE_APBCLOCK_LPOSC);
1321:Drivers/STM32L4xx_HAL_Driver/Src/stm32l4xx_hal_lptim.c ****   assert_param(hlptim->Init.Clock.Prescaler == LPTIM_PRESCALER_DIV1);
1322:Drivers/STM32L4xx_HAL_Driver/Src/stm32l4xx_hal_lptim.c ****   assert_param(IS_LPTIM_CLOCK_POLARITY(hlptim->Init.UltraLowPowerClock.Polarity));
1323:Drivers/STM32L4xx_HAL_Driver/Src/stm32l4xx_hal_lptim.c **** 
1324:Drivers/STM32L4xx_HAL_Driver/Src/stm32l4xx_hal_lptim.c ****   /* Set the LPTIM state */
1325:Drivers/STM32L4xx_HAL_Driver/Src/stm32l4xx_hal_lptim.c ****   hlptim->State = HAL_LPTIM_STATE_BUSY;
 2037              		.loc 1 1325 17
 2038 000a 7B68     		ldr	r3, [r7, #4]
 2039 000c 0222     		movs	r2, #2
 2040 000e 83F83620 		strb	r2, [r3, #54]
1326:Drivers/STM32L4xx_HAL_Driver/Src/stm32l4xx_hal_lptim.c **** 
1327:Drivers/STM32L4xx_HAL_Driver/Src/stm32l4xx_hal_lptim.c ****   /* Configure edge sensitivity for encoder mode */
1328:Drivers/STM32L4xx_HAL_Driver/Src/stm32l4xx_hal_lptim.c ****   /* Get the LPTIMx CFGR value */
1329:Drivers/STM32L4xx_HAL_Driver/Src/stm32l4xx_hal_lptim.c ****   tmpcfgr = hlptim->Instance->CFGR;
 2041              		.loc 1 1329 19
 2042 0012 7B68     		ldr	r3, [r7, #4]
 2043 0014 1B68     		ldr	r3, [r3]
 2044              		.loc 1 1329 11
 2045 0016 DB68     		ldr	r3, [r3, #12]
 2046 0018 FB60     		str	r3, [r7, #12]
1330:Drivers/STM32L4xx_HAL_Driver/Src/stm32l4xx_hal_lptim.c **** 
1331:Drivers/STM32L4xx_HAL_Driver/Src/stm32l4xx_hal_lptim.c ****   /* Clear CKPOL bits */
1332:Drivers/STM32L4xx_HAL_Driver/Src/stm32l4xx_hal_lptim.c ****   tmpcfgr &= (uint32_t)(~LPTIM_CFGR_CKPOL);
 2047              		.loc 1 1332 11
 2048 001a FB68     		ldr	r3, [r7, #12]
 2049 001c 23F00603 		bic	r3, r3, #6
 2050 0020 FB60     		str	r3, [r7, #12]
1333:Drivers/STM32L4xx_HAL_Driver/Src/stm32l4xx_hal_lptim.c **** 
1334:Drivers/STM32L4xx_HAL_Driver/Src/stm32l4xx_hal_lptim.c ****   /* Set Input polarity */
1335:Drivers/STM32L4xx_HAL_Driver/Src/stm32l4xx_hal_lptim.c ****   tmpcfgr |=  hlptim->Init.UltraLowPowerClock.Polarity;
 2051              		.loc 1 1335 46
 2052 0022 7B68     		ldr	r3, [r7, #4]
 2053 0024 DB68     		ldr	r3, [r3, #12]
 2054              		.loc 1 1335 11
ARM GAS  /tmp/ccB7T7H1.s 			page 60


 2055 0026 FA68     		ldr	r2, [r7, #12]
 2056 0028 1343     		orrs	r3, r3, r2
 2057 002a FB60     		str	r3, [r7, #12]
1336:Drivers/STM32L4xx_HAL_Driver/Src/stm32l4xx_hal_lptim.c **** 
1337:Drivers/STM32L4xx_HAL_Driver/Src/stm32l4xx_hal_lptim.c ****   /* Write to LPTIMx CFGR */
1338:Drivers/STM32L4xx_HAL_Driver/Src/stm32l4xx_hal_lptim.c ****   hlptim->Instance->CFGR = tmpcfgr;
 2058              		.loc 1 1338 9
 2059 002c 7B68     		ldr	r3, [r7, #4]
 2060 002e 1B68     		ldr	r3, [r3]
 2061              		.loc 1 1338 26
 2062 0030 FA68     		ldr	r2, [r7, #12]
 2063 0032 DA60     		str	r2, [r3, #12]
1339:Drivers/STM32L4xx_HAL_Driver/Src/stm32l4xx_hal_lptim.c **** 
1340:Drivers/STM32L4xx_HAL_Driver/Src/stm32l4xx_hal_lptim.c ****   /* Set ENC bit to enable the encoder interface */
1341:Drivers/STM32L4xx_HAL_Driver/Src/stm32l4xx_hal_lptim.c ****   hlptim->Instance->CFGR |= LPTIM_CFGR_ENC;
 2064              		.loc 1 1341 9
 2065 0034 7B68     		ldr	r3, [r7, #4]
 2066 0036 1B68     		ldr	r3, [r3]
 2067              		.loc 1 1341 19
 2068 0038 DA68     		ldr	r2, [r3, #12]
 2069              		.loc 1 1341 9
 2070 003a 7B68     		ldr	r3, [r7, #4]
 2071 003c 1B68     		ldr	r3, [r3]
 2072              		.loc 1 1341 26
 2073 003e 42F08072 		orr	r2, r2, #16777216
 2074 0042 DA60     		str	r2, [r3, #12]
1342:Drivers/STM32L4xx_HAL_Driver/Src/stm32l4xx_hal_lptim.c **** 
1343:Drivers/STM32L4xx_HAL_Driver/Src/stm32l4xx_hal_lptim.c ****   /* Enable the Peripheral */
1344:Drivers/STM32L4xx_HAL_Driver/Src/stm32l4xx_hal_lptim.c ****   __HAL_LPTIM_ENABLE(hlptim);
 2075              		.loc 1 1344 3
 2076 0044 7B68     		ldr	r3, [r7, #4]
 2077 0046 1B68     		ldr	r3, [r3]
 2078 0048 1A69     		ldr	r2, [r3, #16]
 2079 004a 7B68     		ldr	r3, [r7, #4]
 2080 004c 1B68     		ldr	r3, [r3]
 2081 004e 42F00102 		orr	r2, r2, #1
 2082 0052 1A61     		str	r2, [r3, #16]
1345:Drivers/STM32L4xx_HAL_Driver/Src/stm32l4xx_hal_lptim.c **** 
1346:Drivers/STM32L4xx_HAL_Driver/Src/stm32l4xx_hal_lptim.c ****   /* Clear flag */
1347:Drivers/STM32L4xx_HAL_Driver/Src/stm32l4xx_hal_lptim.c ****   __HAL_LPTIM_CLEAR_FLAG(hlptim, LPTIM_FLAG_ARROK);
 2083              		.loc 1 1347 3
 2084 0054 7B68     		ldr	r3, [r7, #4]
 2085 0056 1B68     		ldr	r3, [r3]
 2086 0058 1022     		movs	r2, #16
 2087 005a 5A60     		str	r2, [r3, #4]
1348:Drivers/STM32L4xx_HAL_Driver/Src/stm32l4xx_hal_lptim.c **** 
1349:Drivers/STM32L4xx_HAL_Driver/Src/stm32l4xx_hal_lptim.c ****   /* Load the period value in the autoreload register */
1350:Drivers/STM32L4xx_HAL_Driver/Src/stm32l4xx_hal_lptim.c ****   __HAL_LPTIM_AUTORELOAD_SET(hlptim, Period);
 2088              		.loc 1 1350 3
 2089 005c 7B68     		ldr	r3, [r7, #4]
 2090 005e 1B68     		ldr	r3, [r3]
 2091 0060 3A68     		ldr	r2, [r7]
 2092 0062 9A61     		str	r2, [r3, #24]
1351:Drivers/STM32L4xx_HAL_Driver/Src/stm32l4xx_hal_lptim.c **** 
1352:Drivers/STM32L4xx_HAL_Driver/Src/stm32l4xx_hal_lptim.c ****   /* Wait for the completion of the write operation to the LPTIM_ARR register */
1353:Drivers/STM32L4xx_HAL_Driver/Src/stm32l4xx_hal_lptim.c ****   if (LPTIM_WaitForFlag(hlptim, LPTIM_FLAG_ARROK) == HAL_TIMEOUT)
 2093              		.loc 1 1353 7
ARM GAS  /tmp/ccB7T7H1.s 			page 61


 2094 0064 1021     		movs	r1, #16
 2095 0066 7868     		ldr	r0, [r7, #4]
 2096 0068 FFF7FEFF 		bl	LPTIM_WaitForFlag
 2097 006c 0346     		mov	r3, r0
 2098              		.loc 1 1353 6 discriminator 1
 2099 006e 032B     		cmp	r3, #3
 2100 0070 01D1     		bne	.L81
1354:Drivers/STM32L4xx_HAL_Driver/Src/stm32l4xx_hal_lptim.c ****   {
1355:Drivers/STM32L4xx_HAL_Driver/Src/stm32l4xx_hal_lptim.c ****     return HAL_TIMEOUT;
 2101              		.loc 1 1355 12
 2102 0072 0323     		movs	r3, #3
 2103 0074 2FE0     		b	.L82
 2104              	.L81:
1356:Drivers/STM32L4xx_HAL_Driver/Src/stm32l4xx_hal_lptim.c ****   }
1357:Drivers/STM32L4xx_HAL_Driver/Src/stm32l4xx_hal_lptim.c **** 
1358:Drivers/STM32L4xx_HAL_Driver/Src/stm32l4xx_hal_lptim.c ****   /* Disable the Peripheral */
1359:Drivers/STM32L4xx_HAL_Driver/Src/stm32l4xx_hal_lptim.c ****   __HAL_LPTIM_DISABLE(hlptim);
 2105              		.loc 1 1359 3
 2106 0076 7868     		ldr	r0, [r7, #4]
 2107 0078 FFF7FEFF 		bl	LPTIM_Disable
1360:Drivers/STM32L4xx_HAL_Driver/Src/stm32l4xx_hal_lptim.c **** 
1361:Drivers/STM32L4xx_HAL_Driver/Src/stm32l4xx_hal_lptim.c ****   if (HAL_LPTIM_GetState(hlptim) == HAL_LPTIM_STATE_TIMEOUT)
 2108              		.loc 1 1361 7
 2109 007c 7868     		ldr	r0, [r7, #4]
 2110 007e FFF7FEFF 		bl	HAL_LPTIM_GetState
 2111 0082 0346     		mov	r3, r0
 2112              		.loc 1 1361 6 discriminator 1
 2113 0084 032B     		cmp	r3, #3
 2114 0086 01D1     		bne	.L83
1362:Drivers/STM32L4xx_HAL_Driver/Src/stm32l4xx_hal_lptim.c ****   {
1363:Drivers/STM32L4xx_HAL_Driver/Src/stm32l4xx_hal_lptim.c ****     return HAL_TIMEOUT;
 2115              		.loc 1 1363 12
 2116 0088 0323     		movs	r3, #3
 2117 008a 24E0     		b	.L82
 2118              	.L83:
1364:Drivers/STM32L4xx_HAL_Driver/Src/stm32l4xx_hal_lptim.c ****   }
1365:Drivers/STM32L4xx_HAL_Driver/Src/stm32l4xx_hal_lptim.c **** 
1366:Drivers/STM32L4xx_HAL_Driver/Src/stm32l4xx_hal_lptim.c ****   /* Enable "switch to down direction" interrupt */
1367:Drivers/STM32L4xx_HAL_Driver/Src/stm32l4xx_hal_lptim.c ****   __HAL_LPTIM_ENABLE_IT(hlptim, LPTIM_IT_DOWN);
 2119              		.loc 1 1367 3
 2120 008c 7B68     		ldr	r3, [r7, #4]
 2121 008e 1B68     		ldr	r3, [r3]
 2122 0090 9A68     		ldr	r2, [r3, #8]
 2123 0092 7B68     		ldr	r3, [r7, #4]
 2124 0094 1B68     		ldr	r3, [r3]
 2125 0096 42F04002 		orr	r2, r2, #64
 2126 009a 9A60     		str	r2, [r3, #8]
1368:Drivers/STM32L4xx_HAL_Driver/Src/stm32l4xx_hal_lptim.c **** 
1369:Drivers/STM32L4xx_HAL_Driver/Src/stm32l4xx_hal_lptim.c ****   /* Enable "switch to up direction" interrupt */
1370:Drivers/STM32L4xx_HAL_Driver/Src/stm32l4xx_hal_lptim.c ****   __HAL_LPTIM_ENABLE_IT(hlptim, LPTIM_IT_UP);
 2127              		.loc 1 1370 3
 2128 009c 7B68     		ldr	r3, [r7, #4]
 2129 009e 1B68     		ldr	r3, [r3]
 2130 00a0 9A68     		ldr	r2, [r3, #8]
 2131 00a2 7B68     		ldr	r3, [r7, #4]
 2132 00a4 1B68     		ldr	r3, [r3]
 2133 00a6 42F02002 		orr	r2, r2, #32
ARM GAS  /tmp/ccB7T7H1.s 			page 62


 2134 00aa 9A60     		str	r2, [r3, #8]
1371:Drivers/STM32L4xx_HAL_Driver/Src/stm32l4xx_hal_lptim.c **** 
1372:Drivers/STM32L4xx_HAL_Driver/Src/stm32l4xx_hal_lptim.c ****   /* Enable the Peripheral */
1373:Drivers/STM32L4xx_HAL_Driver/Src/stm32l4xx_hal_lptim.c ****   __HAL_LPTIM_ENABLE(hlptim);
 2135              		.loc 1 1373 3
 2136 00ac 7B68     		ldr	r3, [r7, #4]
 2137 00ae 1B68     		ldr	r3, [r3]
 2138 00b0 1A69     		ldr	r2, [r3, #16]
 2139 00b2 7B68     		ldr	r3, [r7, #4]
 2140 00b4 1B68     		ldr	r3, [r3]
 2141 00b6 42F00102 		orr	r2, r2, #1
 2142 00ba 1A61     		str	r2, [r3, #16]
1374:Drivers/STM32L4xx_HAL_Driver/Src/stm32l4xx_hal_lptim.c **** 
1375:Drivers/STM32L4xx_HAL_Driver/Src/stm32l4xx_hal_lptim.c ****   /* Start timer in continuous mode */
1376:Drivers/STM32L4xx_HAL_Driver/Src/stm32l4xx_hal_lptim.c ****   __HAL_LPTIM_START_CONTINUOUS(hlptim);
 2143              		.loc 1 1376 3
 2144 00bc 7B68     		ldr	r3, [r7, #4]
 2145 00be 1B68     		ldr	r3, [r3]
 2146 00c0 1A69     		ldr	r2, [r3, #16]
 2147 00c2 7B68     		ldr	r3, [r7, #4]
 2148 00c4 1B68     		ldr	r3, [r3]
 2149 00c6 42F00402 		orr	r2, r2, #4
 2150 00ca 1A61     		str	r2, [r3, #16]
1377:Drivers/STM32L4xx_HAL_Driver/Src/stm32l4xx_hal_lptim.c **** 
1378:Drivers/STM32L4xx_HAL_Driver/Src/stm32l4xx_hal_lptim.c ****   /* Change the LPTIM state */
1379:Drivers/STM32L4xx_HAL_Driver/Src/stm32l4xx_hal_lptim.c ****   hlptim->State = HAL_LPTIM_STATE_READY;
 2151              		.loc 1 1379 17
 2152 00cc 7B68     		ldr	r3, [r7, #4]
 2153 00ce 0122     		movs	r2, #1
 2154 00d0 83F83620 		strb	r2, [r3, #54]
1380:Drivers/STM32L4xx_HAL_Driver/Src/stm32l4xx_hal_lptim.c **** 
1381:Drivers/STM32L4xx_HAL_Driver/Src/stm32l4xx_hal_lptim.c ****   /* Return function status */
1382:Drivers/STM32L4xx_HAL_Driver/Src/stm32l4xx_hal_lptim.c ****   return HAL_OK;
 2155              		.loc 1 1382 10
 2156 00d4 0023     		movs	r3, #0
 2157              	.L82:
1383:Drivers/STM32L4xx_HAL_Driver/Src/stm32l4xx_hal_lptim.c **** }
 2158              		.loc 1 1383 1
 2159 00d6 1846     		mov	r0, r3
 2160 00d8 1037     		adds	r7, r7, #16
 2161              		.cfi_def_cfa_offset 8
 2162 00da BD46     		mov	sp, r7
 2163              		.cfi_def_cfa_register 13
 2164              		@ sp needed
 2165 00dc 80BD     		pop	{r7, pc}
 2166              		.cfi_endproc
 2167              	.LFE463:
 2169              		.section	.text.HAL_LPTIM_Encoder_Stop_IT,"ax",%progbits
 2170              		.align	1
 2171              		.global	HAL_LPTIM_Encoder_Stop_IT
 2172              		.syntax unified
 2173              		.thumb
 2174              		.thumb_func
 2176              	HAL_LPTIM_Encoder_Stop_IT:
 2177              	.LFB464:
1384:Drivers/STM32L4xx_HAL_Driver/Src/stm32l4xx_hal_lptim.c **** 
1385:Drivers/STM32L4xx_HAL_Driver/Src/stm32l4xx_hal_lptim.c **** /**
ARM GAS  /tmp/ccB7T7H1.s 			page 63


1386:Drivers/STM32L4xx_HAL_Driver/Src/stm32l4xx_hal_lptim.c ****   * @brief  Stop the Encoder interface in interrupt mode.
1387:Drivers/STM32L4xx_HAL_Driver/Src/stm32l4xx_hal_lptim.c ****   * @param  hlptim LPTIM handle
1388:Drivers/STM32L4xx_HAL_Driver/Src/stm32l4xx_hal_lptim.c ****   * @retval HAL status
1389:Drivers/STM32L4xx_HAL_Driver/Src/stm32l4xx_hal_lptim.c ****   */
1390:Drivers/STM32L4xx_HAL_Driver/Src/stm32l4xx_hal_lptim.c **** HAL_StatusTypeDef HAL_LPTIM_Encoder_Stop_IT(LPTIM_HandleTypeDef *hlptim)
1391:Drivers/STM32L4xx_HAL_Driver/Src/stm32l4xx_hal_lptim.c **** {
 2178              		.loc 1 1391 1
 2179              		.cfi_startproc
 2180              		@ args = 0, pretend = 0, frame = 8
 2181              		@ frame_needed = 1, uses_anonymous_args = 0
 2182 0000 80B5     		push	{r7, lr}
 2183              		.cfi_def_cfa_offset 8
 2184              		.cfi_offset 7, -8
 2185              		.cfi_offset 14, -4
 2186 0002 82B0     		sub	sp, sp, #8
 2187              		.cfi_def_cfa_offset 16
 2188 0004 00AF     		add	r7, sp, #0
 2189              		.cfi_def_cfa_register 7
 2190 0006 7860     		str	r0, [r7, #4]
1392:Drivers/STM32L4xx_HAL_Driver/Src/stm32l4xx_hal_lptim.c ****   /* Check the parameters */
1393:Drivers/STM32L4xx_HAL_Driver/Src/stm32l4xx_hal_lptim.c ****   assert_param(IS_LPTIM_ENCODER_INTERFACE_INSTANCE(hlptim->Instance));
1394:Drivers/STM32L4xx_HAL_Driver/Src/stm32l4xx_hal_lptim.c **** 
1395:Drivers/STM32L4xx_HAL_Driver/Src/stm32l4xx_hal_lptim.c ****   /* Set the LPTIM state */
1396:Drivers/STM32L4xx_HAL_Driver/Src/stm32l4xx_hal_lptim.c ****   hlptim->State = HAL_LPTIM_STATE_BUSY;
 2191              		.loc 1 1396 17
 2192 0008 7B68     		ldr	r3, [r7, #4]
 2193 000a 0222     		movs	r2, #2
 2194 000c 83F83620 		strb	r2, [r3, #54]
1397:Drivers/STM32L4xx_HAL_Driver/Src/stm32l4xx_hal_lptim.c **** 
1398:Drivers/STM32L4xx_HAL_Driver/Src/stm32l4xx_hal_lptim.c ****   /* Disable the Peripheral */
1399:Drivers/STM32L4xx_HAL_Driver/Src/stm32l4xx_hal_lptim.c ****   __HAL_LPTIM_DISABLE(hlptim);
 2195              		.loc 1 1399 3
 2196 0010 7868     		ldr	r0, [r7, #4]
 2197 0012 FFF7FEFF 		bl	LPTIM_Disable
1400:Drivers/STM32L4xx_HAL_Driver/Src/stm32l4xx_hal_lptim.c **** 
1401:Drivers/STM32L4xx_HAL_Driver/Src/stm32l4xx_hal_lptim.c ****   if (HAL_LPTIM_GetState(hlptim) == HAL_LPTIM_STATE_TIMEOUT)
 2198              		.loc 1 1401 7
 2199 0016 7868     		ldr	r0, [r7, #4]
 2200 0018 FFF7FEFF 		bl	HAL_LPTIM_GetState
 2201 001c 0346     		mov	r3, r0
 2202              		.loc 1 1401 6 discriminator 1
 2203 001e 032B     		cmp	r3, #3
 2204 0020 01D1     		bne	.L85
1402:Drivers/STM32L4xx_HAL_Driver/Src/stm32l4xx_hal_lptim.c ****   {
1403:Drivers/STM32L4xx_HAL_Driver/Src/stm32l4xx_hal_lptim.c ****     return HAL_TIMEOUT;
 2205              		.loc 1 1403 12
 2206 0022 0323     		movs	r3, #3
 2207 0024 1CE0     		b	.L86
 2208              	.L85:
1404:Drivers/STM32L4xx_HAL_Driver/Src/stm32l4xx_hal_lptim.c ****   }
1405:Drivers/STM32L4xx_HAL_Driver/Src/stm32l4xx_hal_lptim.c **** 
1406:Drivers/STM32L4xx_HAL_Driver/Src/stm32l4xx_hal_lptim.c ****   /* Reset ENC bit to disable the encoder interface */
1407:Drivers/STM32L4xx_HAL_Driver/Src/stm32l4xx_hal_lptim.c ****   hlptim->Instance->CFGR &= ~LPTIM_CFGR_ENC;
 2209              		.loc 1 1407 9
 2210 0026 7B68     		ldr	r3, [r7, #4]
 2211 0028 1B68     		ldr	r3, [r3]
 2212              		.loc 1 1407 19
ARM GAS  /tmp/ccB7T7H1.s 			page 64


 2213 002a DA68     		ldr	r2, [r3, #12]
 2214              		.loc 1 1407 9
 2215 002c 7B68     		ldr	r3, [r7, #4]
 2216 002e 1B68     		ldr	r3, [r3]
 2217              		.loc 1 1407 26
 2218 0030 22F08072 		bic	r2, r2, #16777216
 2219 0034 DA60     		str	r2, [r3, #12]
1408:Drivers/STM32L4xx_HAL_Driver/Src/stm32l4xx_hal_lptim.c **** 
1409:Drivers/STM32L4xx_HAL_Driver/Src/stm32l4xx_hal_lptim.c ****   /* Disable "switch to down direction" interrupt */
1410:Drivers/STM32L4xx_HAL_Driver/Src/stm32l4xx_hal_lptim.c ****   __HAL_LPTIM_DISABLE_IT(hlptim, LPTIM_IT_DOWN);
 2220              		.loc 1 1410 3
 2221 0036 7B68     		ldr	r3, [r7, #4]
 2222 0038 1B68     		ldr	r3, [r3]
 2223 003a 9A68     		ldr	r2, [r3, #8]
 2224 003c 7B68     		ldr	r3, [r7, #4]
 2225 003e 1B68     		ldr	r3, [r3]
 2226 0040 22F04002 		bic	r2, r2, #64
 2227 0044 9A60     		str	r2, [r3, #8]
1411:Drivers/STM32L4xx_HAL_Driver/Src/stm32l4xx_hal_lptim.c **** 
1412:Drivers/STM32L4xx_HAL_Driver/Src/stm32l4xx_hal_lptim.c ****   /* Disable "switch to up direction" interrupt */
1413:Drivers/STM32L4xx_HAL_Driver/Src/stm32l4xx_hal_lptim.c ****   __HAL_LPTIM_DISABLE_IT(hlptim, LPTIM_IT_UP);
 2228              		.loc 1 1413 3
 2229 0046 7B68     		ldr	r3, [r7, #4]
 2230 0048 1B68     		ldr	r3, [r3]
 2231 004a 9A68     		ldr	r2, [r3, #8]
 2232 004c 7B68     		ldr	r3, [r7, #4]
 2233 004e 1B68     		ldr	r3, [r3]
 2234 0050 22F02002 		bic	r2, r2, #32
 2235 0054 9A60     		str	r2, [r3, #8]
1414:Drivers/STM32L4xx_HAL_Driver/Src/stm32l4xx_hal_lptim.c **** 
1415:Drivers/STM32L4xx_HAL_Driver/Src/stm32l4xx_hal_lptim.c ****   /* Change the LPTIM state */
1416:Drivers/STM32L4xx_HAL_Driver/Src/stm32l4xx_hal_lptim.c ****   hlptim->State = HAL_LPTIM_STATE_READY;
 2236              		.loc 1 1416 17
 2237 0056 7B68     		ldr	r3, [r7, #4]
 2238 0058 0122     		movs	r2, #1
 2239 005a 83F83620 		strb	r2, [r3, #54]
1417:Drivers/STM32L4xx_HAL_Driver/Src/stm32l4xx_hal_lptim.c **** 
1418:Drivers/STM32L4xx_HAL_Driver/Src/stm32l4xx_hal_lptim.c ****   /* Return function status */
1419:Drivers/STM32L4xx_HAL_Driver/Src/stm32l4xx_hal_lptim.c ****   return HAL_OK;
 2240              		.loc 1 1419 10
 2241 005e 0023     		movs	r3, #0
 2242              	.L86:
1420:Drivers/STM32L4xx_HAL_Driver/Src/stm32l4xx_hal_lptim.c **** }
 2243              		.loc 1 1420 1
 2244 0060 1846     		mov	r0, r3
 2245 0062 0837     		adds	r7, r7, #8
 2246              		.cfi_def_cfa_offset 8
 2247 0064 BD46     		mov	sp, r7
 2248              		.cfi_def_cfa_register 13
 2249              		@ sp needed
 2250 0066 80BD     		pop	{r7, pc}
 2251              		.cfi_endproc
 2252              	.LFE464:
 2254              		.section	.text.HAL_LPTIM_TimeOut_Start,"ax",%progbits
 2255              		.align	1
 2256              		.global	HAL_LPTIM_TimeOut_Start
 2257              		.syntax unified
ARM GAS  /tmp/ccB7T7H1.s 			page 65


 2258              		.thumb
 2259              		.thumb_func
 2261              	HAL_LPTIM_TimeOut_Start:
 2262              	.LFB465:
1421:Drivers/STM32L4xx_HAL_Driver/Src/stm32l4xx_hal_lptim.c **** 
1422:Drivers/STM32L4xx_HAL_Driver/Src/stm32l4xx_hal_lptim.c **** /**
1423:Drivers/STM32L4xx_HAL_Driver/Src/stm32l4xx_hal_lptim.c ****   * @brief  Start the Timeout function.
1424:Drivers/STM32L4xx_HAL_Driver/Src/stm32l4xx_hal_lptim.c ****   * @note   The first trigger event will start the timer, any successive
1425:Drivers/STM32L4xx_HAL_Driver/Src/stm32l4xx_hal_lptim.c ****   *         trigger event will reset the counter and the timer restarts.
1426:Drivers/STM32L4xx_HAL_Driver/Src/stm32l4xx_hal_lptim.c ****   * @param  hlptim LPTIM handle
1427:Drivers/STM32L4xx_HAL_Driver/Src/stm32l4xx_hal_lptim.c ****   * @param  Period Specifies the Autoreload value.
1428:Drivers/STM32L4xx_HAL_Driver/Src/stm32l4xx_hal_lptim.c ****   *         This parameter must be a value between 0x0001 and 0xFFFF.
1429:Drivers/STM32L4xx_HAL_Driver/Src/stm32l4xx_hal_lptim.c ****   * @param  Timeout Specifies the TimeOut value to reset the counter.
1430:Drivers/STM32L4xx_HAL_Driver/Src/stm32l4xx_hal_lptim.c ****   *         This parameter must be a value between 0x0000 and 0xFFFF.
1431:Drivers/STM32L4xx_HAL_Driver/Src/stm32l4xx_hal_lptim.c ****   * @retval HAL status
1432:Drivers/STM32L4xx_HAL_Driver/Src/stm32l4xx_hal_lptim.c ****   */
1433:Drivers/STM32L4xx_HAL_Driver/Src/stm32l4xx_hal_lptim.c **** HAL_StatusTypeDef HAL_LPTIM_TimeOut_Start(LPTIM_HandleTypeDef *hlptim, uint32_t Period, uint32_t Ti
1434:Drivers/STM32L4xx_HAL_Driver/Src/stm32l4xx_hal_lptim.c **** {
 2263              		.loc 1 1434 1
 2264              		.cfi_startproc
 2265              		@ args = 0, pretend = 0, frame = 16
 2266              		@ frame_needed = 1, uses_anonymous_args = 0
 2267 0000 80B5     		push	{r7, lr}
 2268              		.cfi_def_cfa_offset 8
 2269              		.cfi_offset 7, -8
 2270              		.cfi_offset 14, -4
 2271 0002 84B0     		sub	sp, sp, #16
 2272              		.cfi_def_cfa_offset 24
 2273 0004 00AF     		add	r7, sp, #0
 2274              		.cfi_def_cfa_register 7
 2275 0006 F860     		str	r0, [r7, #12]
 2276 0008 B960     		str	r1, [r7, #8]
 2277 000a 7A60     		str	r2, [r7, #4]
1435:Drivers/STM32L4xx_HAL_Driver/Src/stm32l4xx_hal_lptim.c ****   /* Check the parameters */
1436:Drivers/STM32L4xx_HAL_Driver/Src/stm32l4xx_hal_lptim.c ****   assert_param(IS_LPTIM_INSTANCE(hlptim->Instance));
1437:Drivers/STM32L4xx_HAL_Driver/Src/stm32l4xx_hal_lptim.c ****   assert_param(IS_LPTIM_PERIOD(Period));
1438:Drivers/STM32L4xx_HAL_Driver/Src/stm32l4xx_hal_lptim.c ****   assert_param(IS_LPTIM_PULSE(Timeout));
1439:Drivers/STM32L4xx_HAL_Driver/Src/stm32l4xx_hal_lptim.c **** 
1440:Drivers/STM32L4xx_HAL_Driver/Src/stm32l4xx_hal_lptim.c ****   /* Set the LPTIM state */
1441:Drivers/STM32L4xx_HAL_Driver/Src/stm32l4xx_hal_lptim.c ****   hlptim->State = HAL_LPTIM_STATE_BUSY;
 2278              		.loc 1 1441 17
 2279 000c FB68     		ldr	r3, [r7, #12]
 2280 000e 0222     		movs	r2, #2
 2281 0010 83F83620 		strb	r2, [r3, #54]
1442:Drivers/STM32L4xx_HAL_Driver/Src/stm32l4xx_hal_lptim.c **** 
1443:Drivers/STM32L4xx_HAL_Driver/Src/stm32l4xx_hal_lptim.c ****   /* Set TIMOUT bit to enable the timeout function */
1444:Drivers/STM32L4xx_HAL_Driver/Src/stm32l4xx_hal_lptim.c ****   hlptim->Instance->CFGR |= LPTIM_CFGR_TIMOUT;
 2282              		.loc 1 1444 9
 2283 0014 FB68     		ldr	r3, [r7, #12]
 2284 0016 1B68     		ldr	r3, [r3]
 2285              		.loc 1 1444 19
 2286 0018 DA68     		ldr	r2, [r3, #12]
 2287              		.loc 1 1444 9
 2288 001a FB68     		ldr	r3, [r7, #12]
 2289 001c 1B68     		ldr	r3, [r3]
 2290              		.loc 1 1444 26
 2291 001e 42F40022 		orr	r2, r2, #524288
ARM GAS  /tmp/ccB7T7H1.s 			page 66


 2292 0022 DA60     		str	r2, [r3, #12]
1445:Drivers/STM32L4xx_HAL_Driver/Src/stm32l4xx_hal_lptim.c **** 
1446:Drivers/STM32L4xx_HAL_Driver/Src/stm32l4xx_hal_lptim.c ****   /* Enable the Peripheral */
1447:Drivers/STM32L4xx_HAL_Driver/Src/stm32l4xx_hal_lptim.c ****   __HAL_LPTIM_ENABLE(hlptim);
 2293              		.loc 1 1447 3
 2294 0024 FB68     		ldr	r3, [r7, #12]
 2295 0026 1B68     		ldr	r3, [r3]
 2296 0028 1A69     		ldr	r2, [r3, #16]
 2297 002a FB68     		ldr	r3, [r7, #12]
 2298 002c 1B68     		ldr	r3, [r3]
 2299 002e 42F00102 		orr	r2, r2, #1
 2300 0032 1A61     		str	r2, [r3, #16]
1448:Drivers/STM32L4xx_HAL_Driver/Src/stm32l4xx_hal_lptim.c **** 
1449:Drivers/STM32L4xx_HAL_Driver/Src/stm32l4xx_hal_lptim.c ****   /* Clear flag */
1450:Drivers/STM32L4xx_HAL_Driver/Src/stm32l4xx_hal_lptim.c ****   __HAL_LPTIM_CLEAR_FLAG(hlptim, LPTIM_FLAG_ARROK);
 2301              		.loc 1 1450 3
 2302 0034 FB68     		ldr	r3, [r7, #12]
 2303 0036 1B68     		ldr	r3, [r3]
 2304 0038 1022     		movs	r2, #16
 2305 003a 5A60     		str	r2, [r3, #4]
1451:Drivers/STM32L4xx_HAL_Driver/Src/stm32l4xx_hal_lptim.c **** 
1452:Drivers/STM32L4xx_HAL_Driver/Src/stm32l4xx_hal_lptim.c ****   /* Load the period value in the autoreload register */
1453:Drivers/STM32L4xx_HAL_Driver/Src/stm32l4xx_hal_lptim.c ****   __HAL_LPTIM_AUTORELOAD_SET(hlptim, Period);
 2306              		.loc 1 1453 3
 2307 003c FB68     		ldr	r3, [r7, #12]
 2308 003e 1B68     		ldr	r3, [r3]
 2309 0040 BA68     		ldr	r2, [r7, #8]
 2310 0042 9A61     		str	r2, [r3, #24]
1454:Drivers/STM32L4xx_HAL_Driver/Src/stm32l4xx_hal_lptim.c **** 
1455:Drivers/STM32L4xx_HAL_Driver/Src/stm32l4xx_hal_lptim.c ****   /* Wait for the completion of the write operation to the LPTIM_ARR register */
1456:Drivers/STM32L4xx_HAL_Driver/Src/stm32l4xx_hal_lptim.c ****   if (LPTIM_WaitForFlag(hlptim, LPTIM_FLAG_ARROK) == HAL_TIMEOUT)
 2311              		.loc 1 1456 7
 2312 0044 1021     		movs	r1, #16
 2313 0046 F868     		ldr	r0, [r7, #12]
 2314 0048 FFF7FEFF 		bl	LPTIM_WaitForFlag
 2315 004c 0346     		mov	r3, r0
 2316              		.loc 1 1456 6 discriminator 1
 2317 004e 032B     		cmp	r3, #3
 2318 0050 01D1     		bne	.L88
1457:Drivers/STM32L4xx_HAL_Driver/Src/stm32l4xx_hal_lptim.c ****   {
1458:Drivers/STM32L4xx_HAL_Driver/Src/stm32l4xx_hal_lptim.c ****     return HAL_TIMEOUT;
 2319              		.loc 1 1458 12
 2320 0052 0323     		movs	r3, #3
 2321 0054 1DE0     		b	.L89
 2322              	.L88:
1459:Drivers/STM32L4xx_HAL_Driver/Src/stm32l4xx_hal_lptim.c ****   }
1460:Drivers/STM32L4xx_HAL_Driver/Src/stm32l4xx_hal_lptim.c **** 
1461:Drivers/STM32L4xx_HAL_Driver/Src/stm32l4xx_hal_lptim.c ****   /* Clear flag */
1462:Drivers/STM32L4xx_HAL_Driver/Src/stm32l4xx_hal_lptim.c ****   __HAL_LPTIM_CLEAR_FLAG(hlptim, LPTIM_FLAG_CMPOK);
 2323              		.loc 1 1462 3
 2324 0056 FB68     		ldr	r3, [r7, #12]
 2325 0058 1B68     		ldr	r3, [r3]
 2326 005a 0822     		movs	r2, #8
 2327 005c 5A60     		str	r2, [r3, #4]
1463:Drivers/STM32L4xx_HAL_Driver/Src/stm32l4xx_hal_lptim.c **** 
1464:Drivers/STM32L4xx_HAL_Driver/Src/stm32l4xx_hal_lptim.c ****   /* Load the Timeout value in the compare register */
1465:Drivers/STM32L4xx_HAL_Driver/Src/stm32l4xx_hal_lptim.c ****   __HAL_LPTIM_COMPARE_SET(hlptim, Timeout);
ARM GAS  /tmp/ccB7T7H1.s 			page 67


 2328              		.loc 1 1465 3
 2329 005e FB68     		ldr	r3, [r7, #12]
 2330 0060 1B68     		ldr	r3, [r3]
 2331 0062 7A68     		ldr	r2, [r7, #4]
 2332 0064 5A61     		str	r2, [r3, #20]
1466:Drivers/STM32L4xx_HAL_Driver/Src/stm32l4xx_hal_lptim.c **** 
1467:Drivers/STM32L4xx_HAL_Driver/Src/stm32l4xx_hal_lptim.c ****   /* Wait for the completion of the write operation to the LPTIM_CMP register */
1468:Drivers/STM32L4xx_HAL_Driver/Src/stm32l4xx_hal_lptim.c ****   if (LPTIM_WaitForFlag(hlptim, LPTIM_FLAG_CMPOK) == HAL_TIMEOUT)
 2333              		.loc 1 1468 7
 2334 0066 0821     		movs	r1, #8
 2335 0068 F868     		ldr	r0, [r7, #12]
 2336 006a FFF7FEFF 		bl	LPTIM_WaitForFlag
 2337 006e 0346     		mov	r3, r0
 2338              		.loc 1 1468 6 discriminator 1
 2339 0070 032B     		cmp	r3, #3
 2340 0072 01D1     		bne	.L90
1469:Drivers/STM32L4xx_HAL_Driver/Src/stm32l4xx_hal_lptim.c ****   {
1470:Drivers/STM32L4xx_HAL_Driver/Src/stm32l4xx_hal_lptim.c ****     return HAL_TIMEOUT;
 2341              		.loc 1 1470 12
 2342 0074 0323     		movs	r3, #3
 2343 0076 0CE0     		b	.L89
 2344              	.L90:
1471:Drivers/STM32L4xx_HAL_Driver/Src/stm32l4xx_hal_lptim.c ****   }
1472:Drivers/STM32L4xx_HAL_Driver/Src/stm32l4xx_hal_lptim.c **** 
1473:Drivers/STM32L4xx_HAL_Driver/Src/stm32l4xx_hal_lptim.c ****   /* Start timer in continuous mode */
1474:Drivers/STM32L4xx_HAL_Driver/Src/stm32l4xx_hal_lptim.c ****   __HAL_LPTIM_START_CONTINUOUS(hlptim);
 2345              		.loc 1 1474 3
 2346 0078 FB68     		ldr	r3, [r7, #12]
 2347 007a 1B68     		ldr	r3, [r3]
 2348 007c 1A69     		ldr	r2, [r3, #16]
 2349 007e FB68     		ldr	r3, [r7, #12]
 2350 0080 1B68     		ldr	r3, [r3]
 2351 0082 42F00402 		orr	r2, r2, #4
 2352 0086 1A61     		str	r2, [r3, #16]
1475:Drivers/STM32L4xx_HAL_Driver/Src/stm32l4xx_hal_lptim.c **** 
1476:Drivers/STM32L4xx_HAL_Driver/Src/stm32l4xx_hal_lptim.c ****   /* Change the LPTIM state */
1477:Drivers/STM32L4xx_HAL_Driver/Src/stm32l4xx_hal_lptim.c ****   hlptim->State = HAL_LPTIM_STATE_READY;
 2353              		.loc 1 1477 17
 2354 0088 FB68     		ldr	r3, [r7, #12]
 2355 008a 0122     		movs	r2, #1
 2356 008c 83F83620 		strb	r2, [r3, #54]
1478:Drivers/STM32L4xx_HAL_Driver/Src/stm32l4xx_hal_lptim.c **** 
1479:Drivers/STM32L4xx_HAL_Driver/Src/stm32l4xx_hal_lptim.c ****   /* Return function status */
1480:Drivers/STM32L4xx_HAL_Driver/Src/stm32l4xx_hal_lptim.c ****   return HAL_OK;
 2357              		.loc 1 1480 10
 2358 0090 0023     		movs	r3, #0
 2359              	.L89:
1481:Drivers/STM32L4xx_HAL_Driver/Src/stm32l4xx_hal_lptim.c **** }
 2360              		.loc 1 1481 1
 2361 0092 1846     		mov	r0, r3
 2362 0094 1037     		adds	r7, r7, #16
 2363              		.cfi_def_cfa_offset 8
 2364 0096 BD46     		mov	sp, r7
 2365              		.cfi_def_cfa_register 13
 2366              		@ sp needed
 2367 0098 80BD     		pop	{r7, pc}
 2368              		.cfi_endproc
ARM GAS  /tmp/ccB7T7H1.s 			page 68


 2369              	.LFE465:
 2371              		.section	.text.HAL_LPTIM_TimeOut_Stop,"ax",%progbits
 2372              		.align	1
 2373              		.global	HAL_LPTIM_TimeOut_Stop
 2374              		.syntax unified
 2375              		.thumb
 2376              		.thumb_func
 2378              	HAL_LPTIM_TimeOut_Stop:
 2379              	.LFB466:
1482:Drivers/STM32L4xx_HAL_Driver/Src/stm32l4xx_hal_lptim.c **** 
1483:Drivers/STM32L4xx_HAL_Driver/Src/stm32l4xx_hal_lptim.c **** /**
1484:Drivers/STM32L4xx_HAL_Driver/Src/stm32l4xx_hal_lptim.c ****   * @brief  Stop the Timeout function.
1485:Drivers/STM32L4xx_HAL_Driver/Src/stm32l4xx_hal_lptim.c ****   * @param  hlptim LPTIM handle
1486:Drivers/STM32L4xx_HAL_Driver/Src/stm32l4xx_hal_lptim.c ****   * @retval HAL status
1487:Drivers/STM32L4xx_HAL_Driver/Src/stm32l4xx_hal_lptim.c ****   */
1488:Drivers/STM32L4xx_HAL_Driver/Src/stm32l4xx_hal_lptim.c **** HAL_StatusTypeDef HAL_LPTIM_TimeOut_Stop(LPTIM_HandleTypeDef *hlptim)
1489:Drivers/STM32L4xx_HAL_Driver/Src/stm32l4xx_hal_lptim.c **** {
 2380              		.loc 1 1489 1
 2381              		.cfi_startproc
 2382              		@ args = 0, pretend = 0, frame = 8
 2383              		@ frame_needed = 1, uses_anonymous_args = 0
 2384 0000 80B5     		push	{r7, lr}
 2385              		.cfi_def_cfa_offset 8
 2386              		.cfi_offset 7, -8
 2387              		.cfi_offset 14, -4
 2388 0002 82B0     		sub	sp, sp, #8
 2389              		.cfi_def_cfa_offset 16
 2390 0004 00AF     		add	r7, sp, #0
 2391              		.cfi_def_cfa_register 7
 2392 0006 7860     		str	r0, [r7, #4]
1490:Drivers/STM32L4xx_HAL_Driver/Src/stm32l4xx_hal_lptim.c ****   /* Check the parameters */
1491:Drivers/STM32L4xx_HAL_Driver/Src/stm32l4xx_hal_lptim.c ****   assert_param(IS_LPTIM_INSTANCE(hlptim->Instance));
1492:Drivers/STM32L4xx_HAL_Driver/Src/stm32l4xx_hal_lptim.c **** 
1493:Drivers/STM32L4xx_HAL_Driver/Src/stm32l4xx_hal_lptim.c ****   /* Set the LPTIM state */
1494:Drivers/STM32L4xx_HAL_Driver/Src/stm32l4xx_hal_lptim.c ****   hlptim->State = HAL_LPTIM_STATE_BUSY;
 2393              		.loc 1 1494 17
 2394 0008 7B68     		ldr	r3, [r7, #4]
 2395 000a 0222     		movs	r2, #2
 2396 000c 83F83620 		strb	r2, [r3, #54]
1495:Drivers/STM32L4xx_HAL_Driver/Src/stm32l4xx_hal_lptim.c **** 
1496:Drivers/STM32L4xx_HAL_Driver/Src/stm32l4xx_hal_lptim.c ****   /* Disable the Peripheral */
1497:Drivers/STM32L4xx_HAL_Driver/Src/stm32l4xx_hal_lptim.c ****   __HAL_LPTIM_DISABLE(hlptim);
 2397              		.loc 1 1497 3
 2398 0010 7868     		ldr	r0, [r7, #4]
 2399 0012 FFF7FEFF 		bl	LPTIM_Disable
1498:Drivers/STM32L4xx_HAL_Driver/Src/stm32l4xx_hal_lptim.c **** 
1499:Drivers/STM32L4xx_HAL_Driver/Src/stm32l4xx_hal_lptim.c ****   if (HAL_LPTIM_GetState(hlptim) == HAL_LPTIM_STATE_TIMEOUT)
 2400              		.loc 1 1499 7
 2401 0016 7868     		ldr	r0, [r7, #4]
 2402 0018 FFF7FEFF 		bl	HAL_LPTIM_GetState
 2403 001c 0346     		mov	r3, r0
 2404              		.loc 1 1499 6 discriminator 1
 2405 001e 032B     		cmp	r3, #3
 2406 0020 01D1     		bne	.L92
1500:Drivers/STM32L4xx_HAL_Driver/Src/stm32l4xx_hal_lptim.c ****   {
1501:Drivers/STM32L4xx_HAL_Driver/Src/stm32l4xx_hal_lptim.c ****     return HAL_TIMEOUT;
 2407              		.loc 1 1501 12
ARM GAS  /tmp/ccB7T7H1.s 			page 69


 2408 0022 0323     		movs	r3, #3
 2409 0024 0CE0     		b	.L93
 2410              	.L92:
1502:Drivers/STM32L4xx_HAL_Driver/Src/stm32l4xx_hal_lptim.c ****   }
1503:Drivers/STM32L4xx_HAL_Driver/Src/stm32l4xx_hal_lptim.c **** 
1504:Drivers/STM32L4xx_HAL_Driver/Src/stm32l4xx_hal_lptim.c ****   /* Reset TIMOUT bit to enable the timeout function */
1505:Drivers/STM32L4xx_HAL_Driver/Src/stm32l4xx_hal_lptim.c ****   hlptim->Instance->CFGR &= ~LPTIM_CFGR_TIMOUT;
 2411              		.loc 1 1505 9
 2412 0026 7B68     		ldr	r3, [r7, #4]
 2413 0028 1B68     		ldr	r3, [r3]
 2414              		.loc 1 1505 19
 2415 002a DA68     		ldr	r2, [r3, #12]
 2416              		.loc 1 1505 9
 2417 002c 7B68     		ldr	r3, [r7, #4]
 2418 002e 1B68     		ldr	r3, [r3]
 2419              		.loc 1 1505 26
 2420 0030 22F40022 		bic	r2, r2, #524288
 2421 0034 DA60     		str	r2, [r3, #12]
1506:Drivers/STM32L4xx_HAL_Driver/Src/stm32l4xx_hal_lptim.c **** 
1507:Drivers/STM32L4xx_HAL_Driver/Src/stm32l4xx_hal_lptim.c ****   /* Change the LPTIM state */
1508:Drivers/STM32L4xx_HAL_Driver/Src/stm32l4xx_hal_lptim.c ****   hlptim->State = HAL_LPTIM_STATE_READY;
 2422              		.loc 1 1508 17
 2423 0036 7B68     		ldr	r3, [r7, #4]
 2424 0038 0122     		movs	r2, #1
 2425 003a 83F83620 		strb	r2, [r3, #54]
1509:Drivers/STM32L4xx_HAL_Driver/Src/stm32l4xx_hal_lptim.c **** 
1510:Drivers/STM32L4xx_HAL_Driver/Src/stm32l4xx_hal_lptim.c ****   /* Return function status */
1511:Drivers/STM32L4xx_HAL_Driver/Src/stm32l4xx_hal_lptim.c ****   return HAL_OK;
 2426              		.loc 1 1511 10
 2427 003e 0023     		movs	r3, #0
 2428              	.L93:
1512:Drivers/STM32L4xx_HAL_Driver/Src/stm32l4xx_hal_lptim.c **** }
 2429              		.loc 1 1512 1
 2430 0040 1846     		mov	r0, r3
 2431 0042 0837     		adds	r7, r7, #8
 2432              		.cfi_def_cfa_offset 8
 2433 0044 BD46     		mov	sp, r7
 2434              		.cfi_def_cfa_register 13
 2435              		@ sp needed
 2436 0046 80BD     		pop	{r7, pc}
 2437              		.cfi_endproc
 2438              	.LFE466:
 2440              		.section	.text.HAL_LPTIM_TimeOut_Start_IT,"ax",%progbits
 2441              		.align	1
 2442              		.global	HAL_LPTIM_TimeOut_Start_IT
 2443              		.syntax unified
 2444              		.thumb
 2445              		.thumb_func
 2447              	HAL_LPTIM_TimeOut_Start_IT:
 2448              	.LFB467:
1513:Drivers/STM32L4xx_HAL_Driver/Src/stm32l4xx_hal_lptim.c **** 
1514:Drivers/STM32L4xx_HAL_Driver/Src/stm32l4xx_hal_lptim.c **** /**
1515:Drivers/STM32L4xx_HAL_Driver/Src/stm32l4xx_hal_lptim.c ****   * @brief  Start the Timeout function in interrupt mode.
1516:Drivers/STM32L4xx_HAL_Driver/Src/stm32l4xx_hal_lptim.c ****   * @note   The first trigger event will start the timer, any successive
1517:Drivers/STM32L4xx_HAL_Driver/Src/stm32l4xx_hal_lptim.c ****   *         trigger event will reset the counter and the timer restarts.
1518:Drivers/STM32L4xx_HAL_Driver/Src/stm32l4xx_hal_lptim.c ****   * @param  hlptim LPTIM handle
1519:Drivers/STM32L4xx_HAL_Driver/Src/stm32l4xx_hal_lptim.c ****   * @param  Period Specifies the Autoreload value.
ARM GAS  /tmp/ccB7T7H1.s 			page 70


1520:Drivers/STM32L4xx_HAL_Driver/Src/stm32l4xx_hal_lptim.c ****   *         This parameter must be a value between 0x0001 and 0xFFFF.
1521:Drivers/STM32L4xx_HAL_Driver/Src/stm32l4xx_hal_lptim.c ****   * @param  Timeout Specifies the TimeOut value to reset the counter.
1522:Drivers/STM32L4xx_HAL_Driver/Src/stm32l4xx_hal_lptim.c ****   *         This parameter must be a value between 0x0000 and 0xFFFF.
1523:Drivers/STM32L4xx_HAL_Driver/Src/stm32l4xx_hal_lptim.c ****   * @retval HAL status
1524:Drivers/STM32L4xx_HAL_Driver/Src/stm32l4xx_hal_lptim.c ****   */
1525:Drivers/STM32L4xx_HAL_Driver/Src/stm32l4xx_hal_lptim.c **** HAL_StatusTypeDef HAL_LPTIM_TimeOut_Start_IT(LPTIM_HandleTypeDef *hlptim, uint32_t Period, uint32_t
1526:Drivers/STM32L4xx_HAL_Driver/Src/stm32l4xx_hal_lptim.c **** {
 2449              		.loc 1 1526 1
 2450              		.cfi_startproc
 2451              		@ args = 0, pretend = 0, frame = 16
 2452              		@ frame_needed = 1, uses_anonymous_args = 0
 2453 0000 80B5     		push	{r7, lr}
 2454              		.cfi_def_cfa_offset 8
 2455              		.cfi_offset 7, -8
 2456              		.cfi_offset 14, -4
 2457 0002 84B0     		sub	sp, sp, #16
 2458              		.cfi_def_cfa_offset 24
 2459 0004 00AF     		add	r7, sp, #0
 2460              		.cfi_def_cfa_register 7
 2461 0006 F860     		str	r0, [r7, #12]
 2462 0008 B960     		str	r1, [r7, #8]
 2463 000a 7A60     		str	r2, [r7, #4]
1527:Drivers/STM32L4xx_HAL_Driver/Src/stm32l4xx_hal_lptim.c ****   /* Check the parameters */
1528:Drivers/STM32L4xx_HAL_Driver/Src/stm32l4xx_hal_lptim.c ****   assert_param(IS_LPTIM_INSTANCE(hlptim->Instance));
1529:Drivers/STM32L4xx_HAL_Driver/Src/stm32l4xx_hal_lptim.c ****   assert_param(IS_LPTIM_PERIOD(Period));
1530:Drivers/STM32L4xx_HAL_Driver/Src/stm32l4xx_hal_lptim.c ****   assert_param(IS_LPTIM_PULSE(Timeout));
1531:Drivers/STM32L4xx_HAL_Driver/Src/stm32l4xx_hal_lptim.c **** 
1532:Drivers/STM32L4xx_HAL_Driver/Src/stm32l4xx_hal_lptim.c ****   /* Set the LPTIM state */
1533:Drivers/STM32L4xx_HAL_Driver/Src/stm32l4xx_hal_lptim.c ****   hlptim->State = HAL_LPTIM_STATE_BUSY;
 2464              		.loc 1 1533 17
 2465 000c FB68     		ldr	r3, [r7, #12]
 2466 000e 0222     		movs	r2, #2
 2467 0010 83F83620 		strb	r2, [r3, #54]
1534:Drivers/STM32L4xx_HAL_Driver/Src/stm32l4xx_hal_lptim.c **** 
1535:Drivers/STM32L4xx_HAL_Driver/Src/stm32l4xx_hal_lptim.c ****   /* Enable EXTI Line interrupt on the LPTIM Wake-up Timer */
1536:Drivers/STM32L4xx_HAL_Driver/Src/stm32l4xx_hal_lptim.c ****   __HAL_LPTIM_WAKEUPTIMER_EXTI_ENABLE_IT(hlptim->Instance);
 2468              		.loc 1 1536 3
 2469 0014 FB68     		ldr	r3, [r7, #12]
 2470 0016 1B68     		ldr	r3, [r3]
 2471 0018 364A     		ldr	r2, .L101
 2472 001a 9342     		cmp	r3, r2
 2473 001c 06D1     		bne	.L95
 2474              		.loc 1 1536 3 is_stmt 0 discriminator 1
 2475 001e 364B     		ldr	r3, .L101+4
 2476 0020 1B6A     		ldr	r3, [r3, #32]
 2477 0022 354A     		ldr	r2, .L101+4
 2478 0024 43F00103 		orr	r3, r3, #1
 2479 0028 1362     		str	r3, [r2, #32]
 2480 002a 05E0     		b	.L96
 2481              	.L95:
 2482              		.loc 1 1536 3 discriminator 2
 2483 002c 324B     		ldr	r3, .L101+4
 2484 002e 1B6A     		ldr	r3, [r3, #32]
 2485 0030 314A     		ldr	r2, .L101+4
 2486 0032 43F00203 		orr	r3, r3, #2
 2487 0036 1362     		str	r3, [r2, #32]
 2488              	.L96:
ARM GAS  /tmp/ccB7T7H1.s 			page 71


1537:Drivers/STM32L4xx_HAL_Driver/Src/stm32l4xx_hal_lptim.c **** 
1538:Drivers/STM32L4xx_HAL_Driver/Src/stm32l4xx_hal_lptim.c ****   /* Set TIMOUT bit to enable the timeout function */
1539:Drivers/STM32L4xx_HAL_Driver/Src/stm32l4xx_hal_lptim.c ****   hlptim->Instance->CFGR |= LPTIM_CFGR_TIMOUT;
 2489              		.loc 1 1539 9 is_stmt 1
 2490 0038 FB68     		ldr	r3, [r7, #12]
 2491 003a 1B68     		ldr	r3, [r3]
 2492              		.loc 1 1539 19
 2493 003c DA68     		ldr	r2, [r3, #12]
 2494              		.loc 1 1539 9
 2495 003e FB68     		ldr	r3, [r7, #12]
 2496 0040 1B68     		ldr	r3, [r3]
 2497              		.loc 1 1539 26
 2498 0042 42F40022 		orr	r2, r2, #524288
 2499 0046 DA60     		str	r2, [r3, #12]
1540:Drivers/STM32L4xx_HAL_Driver/Src/stm32l4xx_hal_lptim.c **** 
1541:Drivers/STM32L4xx_HAL_Driver/Src/stm32l4xx_hal_lptim.c ****   /* Enable the Peripheral */
1542:Drivers/STM32L4xx_HAL_Driver/Src/stm32l4xx_hal_lptim.c ****   __HAL_LPTIM_ENABLE(hlptim);
 2500              		.loc 1 1542 3
 2501 0048 FB68     		ldr	r3, [r7, #12]
 2502 004a 1B68     		ldr	r3, [r3]
 2503 004c 1A69     		ldr	r2, [r3, #16]
 2504 004e FB68     		ldr	r3, [r7, #12]
 2505 0050 1B68     		ldr	r3, [r3]
 2506 0052 42F00102 		orr	r2, r2, #1
 2507 0056 1A61     		str	r2, [r3, #16]
1543:Drivers/STM32L4xx_HAL_Driver/Src/stm32l4xx_hal_lptim.c **** 
1544:Drivers/STM32L4xx_HAL_Driver/Src/stm32l4xx_hal_lptim.c ****   /* Clear flag */
1545:Drivers/STM32L4xx_HAL_Driver/Src/stm32l4xx_hal_lptim.c ****   __HAL_LPTIM_CLEAR_FLAG(hlptim, LPTIM_FLAG_ARROK);
 2508              		.loc 1 1545 3
 2509 0058 FB68     		ldr	r3, [r7, #12]
 2510 005a 1B68     		ldr	r3, [r3]
 2511 005c 1022     		movs	r2, #16
 2512 005e 5A60     		str	r2, [r3, #4]
1546:Drivers/STM32L4xx_HAL_Driver/Src/stm32l4xx_hal_lptim.c **** 
1547:Drivers/STM32L4xx_HAL_Driver/Src/stm32l4xx_hal_lptim.c ****   /* Load the period value in the autoreload register */
1548:Drivers/STM32L4xx_HAL_Driver/Src/stm32l4xx_hal_lptim.c ****   __HAL_LPTIM_AUTORELOAD_SET(hlptim, Period);
 2513              		.loc 1 1548 3
 2514 0060 FB68     		ldr	r3, [r7, #12]
 2515 0062 1B68     		ldr	r3, [r3]
 2516 0064 BA68     		ldr	r2, [r7, #8]
 2517 0066 9A61     		str	r2, [r3, #24]
1549:Drivers/STM32L4xx_HAL_Driver/Src/stm32l4xx_hal_lptim.c **** 
1550:Drivers/STM32L4xx_HAL_Driver/Src/stm32l4xx_hal_lptim.c ****   /* Wait for the completion of the write operation to the LPTIM_ARR register */
1551:Drivers/STM32L4xx_HAL_Driver/Src/stm32l4xx_hal_lptim.c ****   if (LPTIM_WaitForFlag(hlptim, LPTIM_FLAG_ARROK) == HAL_TIMEOUT)
 2518              		.loc 1 1551 7
 2519 0068 1021     		movs	r1, #16
 2520 006a F868     		ldr	r0, [r7, #12]
 2521 006c FFF7FEFF 		bl	LPTIM_WaitForFlag
 2522 0070 0346     		mov	r3, r0
 2523              		.loc 1 1551 6 discriminator 1
 2524 0072 032B     		cmp	r3, #3
 2525 0074 01D1     		bne	.L97
1552:Drivers/STM32L4xx_HAL_Driver/Src/stm32l4xx_hal_lptim.c ****   {
1553:Drivers/STM32L4xx_HAL_Driver/Src/stm32l4xx_hal_lptim.c ****     return HAL_TIMEOUT;
 2526              		.loc 1 1553 12
 2527 0076 0323     		movs	r3, #3
 2528 0078 38E0     		b	.L98
ARM GAS  /tmp/ccB7T7H1.s 			page 72


 2529              	.L97:
1554:Drivers/STM32L4xx_HAL_Driver/Src/stm32l4xx_hal_lptim.c ****   }
1555:Drivers/STM32L4xx_HAL_Driver/Src/stm32l4xx_hal_lptim.c **** 
1556:Drivers/STM32L4xx_HAL_Driver/Src/stm32l4xx_hal_lptim.c ****   /* Clear flag */
1557:Drivers/STM32L4xx_HAL_Driver/Src/stm32l4xx_hal_lptim.c ****   __HAL_LPTIM_CLEAR_FLAG(hlptim, LPTIM_FLAG_CMPOK);
 2530              		.loc 1 1557 3
 2531 007a FB68     		ldr	r3, [r7, #12]
 2532 007c 1B68     		ldr	r3, [r3]
 2533 007e 0822     		movs	r2, #8
 2534 0080 5A60     		str	r2, [r3, #4]
1558:Drivers/STM32L4xx_HAL_Driver/Src/stm32l4xx_hal_lptim.c **** 
1559:Drivers/STM32L4xx_HAL_Driver/Src/stm32l4xx_hal_lptim.c ****   /* Load the Timeout value in the compare register */
1560:Drivers/STM32L4xx_HAL_Driver/Src/stm32l4xx_hal_lptim.c ****   __HAL_LPTIM_COMPARE_SET(hlptim, Timeout);
 2535              		.loc 1 1560 3
 2536 0082 FB68     		ldr	r3, [r7, #12]
 2537 0084 1B68     		ldr	r3, [r3]
 2538 0086 7A68     		ldr	r2, [r7, #4]
 2539 0088 5A61     		str	r2, [r3, #20]
1561:Drivers/STM32L4xx_HAL_Driver/Src/stm32l4xx_hal_lptim.c **** 
1562:Drivers/STM32L4xx_HAL_Driver/Src/stm32l4xx_hal_lptim.c ****   /* Wait for the completion of the write operation to the LPTIM_CMP register */
1563:Drivers/STM32L4xx_HAL_Driver/Src/stm32l4xx_hal_lptim.c ****   if (LPTIM_WaitForFlag(hlptim, LPTIM_FLAG_CMPOK) == HAL_TIMEOUT)
 2540              		.loc 1 1563 7
 2541 008a 0821     		movs	r1, #8
 2542 008c F868     		ldr	r0, [r7, #12]
 2543 008e FFF7FEFF 		bl	LPTIM_WaitForFlag
 2544 0092 0346     		mov	r3, r0
 2545              		.loc 1 1563 6 discriminator 1
 2546 0094 032B     		cmp	r3, #3
 2547 0096 01D1     		bne	.L99
1564:Drivers/STM32L4xx_HAL_Driver/Src/stm32l4xx_hal_lptim.c ****   {
1565:Drivers/STM32L4xx_HAL_Driver/Src/stm32l4xx_hal_lptim.c ****     return HAL_TIMEOUT;
 2548              		.loc 1 1565 12
 2549 0098 0323     		movs	r3, #3
 2550 009a 27E0     		b	.L98
 2551              	.L99:
1566:Drivers/STM32L4xx_HAL_Driver/Src/stm32l4xx_hal_lptim.c ****   }
1567:Drivers/STM32L4xx_HAL_Driver/Src/stm32l4xx_hal_lptim.c **** 
1568:Drivers/STM32L4xx_HAL_Driver/Src/stm32l4xx_hal_lptim.c ****   /* Disable the Peripheral */
1569:Drivers/STM32L4xx_HAL_Driver/Src/stm32l4xx_hal_lptim.c ****   __HAL_LPTIM_DISABLE(hlptim);
 2552              		.loc 1 1569 3
 2553 009c F868     		ldr	r0, [r7, #12]
 2554 009e FFF7FEFF 		bl	LPTIM_Disable
1570:Drivers/STM32L4xx_HAL_Driver/Src/stm32l4xx_hal_lptim.c **** 
1571:Drivers/STM32L4xx_HAL_Driver/Src/stm32l4xx_hal_lptim.c ****   if (HAL_LPTIM_GetState(hlptim) == HAL_LPTIM_STATE_TIMEOUT)
 2555              		.loc 1 1571 7
 2556 00a2 F868     		ldr	r0, [r7, #12]
 2557 00a4 FFF7FEFF 		bl	HAL_LPTIM_GetState
 2558 00a8 0346     		mov	r3, r0
 2559              		.loc 1 1571 6 discriminator 1
 2560 00aa 032B     		cmp	r3, #3
 2561 00ac 01D1     		bne	.L100
1572:Drivers/STM32L4xx_HAL_Driver/Src/stm32l4xx_hal_lptim.c ****   {
1573:Drivers/STM32L4xx_HAL_Driver/Src/stm32l4xx_hal_lptim.c ****     return HAL_TIMEOUT;
 2562              		.loc 1 1573 12
 2563 00ae 0323     		movs	r3, #3
 2564 00b0 1CE0     		b	.L98
 2565              	.L100:
ARM GAS  /tmp/ccB7T7H1.s 			page 73


1574:Drivers/STM32L4xx_HAL_Driver/Src/stm32l4xx_hal_lptim.c ****   }
1575:Drivers/STM32L4xx_HAL_Driver/Src/stm32l4xx_hal_lptim.c **** 
1576:Drivers/STM32L4xx_HAL_Driver/Src/stm32l4xx_hal_lptim.c ****   /* Enable Compare match interrupt */
1577:Drivers/STM32L4xx_HAL_Driver/Src/stm32l4xx_hal_lptim.c ****   __HAL_LPTIM_ENABLE_IT(hlptim, LPTIM_IT_CMPM);
 2566              		.loc 1 1577 3
 2567 00b2 FB68     		ldr	r3, [r7, #12]
 2568 00b4 1B68     		ldr	r3, [r3]
 2569 00b6 9A68     		ldr	r2, [r3, #8]
 2570 00b8 FB68     		ldr	r3, [r7, #12]
 2571 00ba 1B68     		ldr	r3, [r3]
 2572 00bc 42F00102 		orr	r2, r2, #1
 2573 00c0 9A60     		str	r2, [r3, #8]
1578:Drivers/STM32L4xx_HAL_Driver/Src/stm32l4xx_hal_lptim.c **** 
1579:Drivers/STM32L4xx_HAL_Driver/Src/stm32l4xx_hal_lptim.c ****   /* Enable the Peripheral */
1580:Drivers/STM32L4xx_HAL_Driver/Src/stm32l4xx_hal_lptim.c ****   __HAL_LPTIM_ENABLE(hlptim);
 2574              		.loc 1 1580 3
 2575 00c2 FB68     		ldr	r3, [r7, #12]
 2576 00c4 1B68     		ldr	r3, [r3]
 2577 00c6 1A69     		ldr	r2, [r3, #16]
 2578 00c8 FB68     		ldr	r3, [r7, #12]
 2579 00ca 1B68     		ldr	r3, [r3]
 2580 00cc 42F00102 		orr	r2, r2, #1
 2581 00d0 1A61     		str	r2, [r3, #16]
1581:Drivers/STM32L4xx_HAL_Driver/Src/stm32l4xx_hal_lptim.c **** 
1582:Drivers/STM32L4xx_HAL_Driver/Src/stm32l4xx_hal_lptim.c ****   /* Start timer in continuous mode */
1583:Drivers/STM32L4xx_HAL_Driver/Src/stm32l4xx_hal_lptim.c ****   __HAL_LPTIM_START_CONTINUOUS(hlptim);
 2582              		.loc 1 1583 3
 2583 00d2 FB68     		ldr	r3, [r7, #12]
 2584 00d4 1B68     		ldr	r3, [r3]
 2585 00d6 1A69     		ldr	r2, [r3, #16]
 2586 00d8 FB68     		ldr	r3, [r7, #12]
 2587 00da 1B68     		ldr	r3, [r3]
 2588 00dc 42F00402 		orr	r2, r2, #4
 2589 00e0 1A61     		str	r2, [r3, #16]
1584:Drivers/STM32L4xx_HAL_Driver/Src/stm32l4xx_hal_lptim.c **** 
1585:Drivers/STM32L4xx_HAL_Driver/Src/stm32l4xx_hal_lptim.c ****   /* Change the LPTIM state */
1586:Drivers/STM32L4xx_HAL_Driver/Src/stm32l4xx_hal_lptim.c ****   hlptim->State = HAL_LPTIM_STATE_READY;
 2590              		.loc 1 1586 17
 2591 00e2 FB68     		ldr	r3, [r7, #12]
 2592 00e4 0122     		movs	r2, #1
 2593 00e6 83F83620 		strb	r2, [r3, #54]
1587:Drivers/STM32L4xx_HAL_Driver/Src/stm32l4xx_hal_lptim.c **** 
1588:Drivers/STM32L4xx_HAL_Driver/Src/stm32l4xx_hal_lptim.c ****   /* Return function status */
1589:Drivers/STM32L4xx_HAL_Driver/Src/stm32l4xx_hal_lptim.c ****   return HAL_OK;
 2594              		.loc 1 1589 10
 2595 00ea 0023     		movs	r3, #0
 2596              	.L98:
1590:Drivers/STM32L4xx_HAL_Driver/Src/stm32l4xx_hal_lptim.c **** }
 2597              		.loc 1 1590 1
 2598 00ec 1846     		mov	r0, r3
 2599 00ee 1037     		adds	r7, r7, #16
 2600              		.cfi_def_cfa_offset 8
 2601 00f0 BD46     		mov	sp, r7
 2602              		.cfi_def_cfa_register 13
 2603              		@ sp needed
 2604 00f2 80BD     		pop	{r7, pc}
 2605              	.L102:
ARM GAS  /tmp/ccB7T7H1.s 			page 74


 2606              		.align	2
 2607              	.L101:
 2608 00f4 007C0040 		.word	1073773568
 2609 00f8 00040140 		.word	1073808384
 2610              		.cfi_endproc
 2611              	.LFE467:
 2613              		.section	.text.HAL_LPTIM_TimeOut_Stop_IT,"ax",%progbits
 2614              		.align	1
 2615              		.global	HAL_LPTIM_TimeOut_Stop_IT
 2616              		.syntax unified
 2617              		.thumb
 2618              		.thumb_func
 2620              	HAL_LPTIM_TimeOut_Stop_IT:
 2621              	.LFB468:
1591:Drivers/STM32L4xx_HAL_Driver/Src/stm32l4xx_hal_lptim.c **** 
1592:Drivers/STM32L4xx_HAL_Driver/Src/stm32l4xx_hal_lptim.c **** /**
1593:Drivers/STM32L4xx_HAL_Driver/Src/stm32l4xx_hal_lptim.c ****   * @brief  Stop the Timeout function in interrupt mode.
1594:Drivers/STM32L4xx_HAL_Driver/Src/stm32l4xx_hal_lptim.c ****   * @param  hlptim LPTIM handle
1595:Drivers/STM32L4xx_HAL_Driver/Src/stm32l4xx_hal_lptim.c ****   * @retval HAL status
1596:Drivers/STM32L4xx_HAL_Driver/Src/stm32l4xx_hal_lptim.c ****   */
1597:Drivers/STM32L4xx_HAL_Driver/Src/stm32l4xx_hal_lptim.c **** HAL_StatusTypeDef HAL_LPTIM_TimeOut_Stop_IT(LPTIM_HandleTypeDef *hlptim)
1598:Drivers/STM32L4xx_HAL_Driver/Src/stm32l4xx_hal_lptim.c **** {
 2622              		.loc 1 1598 1
 2623              		.cfi_startproc
 2624              		@ args = 0, pretend = 0, frame = 8
 2625              		@ frame_needed = 1, uses_anonymous_args = 0
 2626 0000 80B5     		push	{r7, lr}
 2627              		.cfi_def_cfa_offset 8
 2628              		.cfi_offset 7, -8
 2629              		.cfi_offset 14, -4
 2630 0002 82B0     		sub	sp, sp, #8
 2631              		.cfi_def_cfa_offset 16
 2632 0004 00AF     		add	r7, sp, #0
 2633              		.cfi_def_cfa_register 7
 2634 0006 7860     		str	r0, [r7, #4]
1599:Drivers/STM32L4xx_HAL_Driver/Src/stm32l4xx_hal_lptim.c ****   /* Check the parameters */
1600:Drivers/STM32L4xx_HAL_Driver/Src/stm32l4xx_hal_lptim.c ****   assert_param(IS_LPTIM_INSTANCE(hlptim->Instance));
1601:Drivers/STM32L4xx_HAL_Driver/Src/stm32l4xx_hal_lptim.c **** 
1602:Drivers/STM32L4xx_HAL_Driver/Src/stm32l4xx_hal_lptim.c **** 
1603:Drivers/STM32L4xx_HAL_Driver/Src/stm32l4xx_hal_lptim.c ****   /* Disable EXTI Line interrupt on the LPTIM Wake-up Timer */
1604:Drivers/STM32L4xx_HAL_Driver/Src/stm32l4xx_hal_lptim.c ****   __HAL_LPTIM_WAKEUPTIMER_EXTI_DISABLE_IT(hlptim->Instance);
 2635              		.loc 1 1604 3
 2636 0008 7B68     		ldr	r3, [r7, #4]
 2637 000a 1B68     		ldr	r3, [r3]
 2638 000c 1B4A     		ldr	r2, .L108
 2639 000e 9342     		cmp	r3, r2
 2640 0010 06D1     		bne	.L104
 2641              		.loc 1 1604 3 is_stmt 0 discriminator 1
 2642 0012 1B4B     		ldr	r3, .L108+4
 2643 0014 1B6A     		ldr	r3, [r3, #32]
 2644 0016 1A4A     		ldr	r2, .L108+4
 2645 0018 23F00103 		bic	r3, r3, #1
 2646 001c 1362     		str	r3, [r2, #32]
 2647 001e 05E0     		b	.L105
 2648              	.L104:
 2649              		.loc 1 1604 3 discriminator 2
 2650 0020 174B     		ldr	r3, .L108+4
ARM GAS  /tmp/ccB7T7H1.s 			page 75


 2651 0022 1B6A     		ldr	r3, [r3, #32]
 2652 0024 164A     		ldr	r2, .L108+4
 2653 0026 23F00203 		bic	r3, r3, #2
 2654 002a 1362     		str	r3, [r2, #32]
 2655              	.L105:
1605:Drivers/STM32L4xx_HAL_Driver/Src/stm32l4xx_hal_lptim.c **** 
1606:Drivers/STM32L4xx_HAL_Driver/Src/stm32l4xx_hal_lptim.c ****   /* Set the LPTIM state */
1607:Drivers/STM32L4xx_HAL_Driver/Src/stm32l4xx_hal_lptim.c ****   hlptim->State = HAL_LPTIM_STATE_BUSY;
 2656              		.loc 1 1607 17 is_stmt 1
 2657 002c 7B68     		ldr	r3, [r7, #4]
 2658 002e 0222     		movs	r2, #2
 2659 0030 83F83620 		strb	r2, [r3, #54]
1608:Drivers/STM32L4xx_HAL_Driver/Src/stm32l4xx_hal_lptim.c **** 
1609:Drivers/STM32L4xx_HAL_Driver/Src/stm32l4xx_hal_lptim.c ****   /* Disable the Peripheral */
1610:Drivers/STM32L4xx_HAL_Driver/Src/stm32l4xx_hal_lptim.c ****   __HAL_LPTIM_DISABLE(hlptim);
 2660              		.loc 1 1610 3
 2661 0034 7868     		ldr	r0, [r7, #4]
 2662 0036 FFF7FEFF 		bl	LPTIM_Disable
1611:Drivers/STM32L4xx_HAL_Driver/Src/stm32l4xx_hal_lptim.c **** 
1612:Drivers/STM32L4xx_HAL_Driver/Src/stm32l4xx_hal_lptim.c ****   if (HAL_LPTIM_GetState(hlptim) == HAL_LPTIM_STATE_TIMEOUT)
 2663              		.loc 1 1612 7
 2664 003a 7868     		ldr	r0, [r7, #4]
 2665 003c FFF7FEFF 		bl	HAL_LPTIM_GetState
 2666 0040 0346     		mov	r3, r0
 2667              		.loc 1 1612 6 discriminator 1
 2668 0042 032B     		cmp	r3, #3
 2669 0044 01D1     		bne	.L106
1613:Drivers/STM32L4xx_HAL_Driver/Src/stm32l4xx_hal_lptim.c ****   {
1614:Drivers/STM32L4xx_HAL_Driver/Src/stm32l4xx_hal_lptim.c ****     return HAL_TIMEOUT;
 2670              		.loc 1 1614 12
 2671 0046 0323     		movs	r3, #3
 2672 0048 14E0     		b	.L107
 2673              	.L106:
1615:Drivers/STM32L4xx_HAL_Driver/Src/stm32l4xx_hal_lptim.c ****   }
1616:Drivers/STM32L4xx_HAL_Driver/Src/stm32l4xx_hal_lptim.c **** 
1617:Drivers/STM32L4xx_HAL_Driver/Src/stm32l4xx_hal_lptim.c ****   /* Reset TIMOUT bit to enable the timeout function */
1618:Drivers/STM32L4xx_HAL_Driver/Src/stm32l4xx_hal_lptim.c ****   hlptim->Instance->CFGR &= ~LPTIM_CFGR_TIMOUT;
 2674              		.loc 1 1618 9
 2675 004a 7B68     		ldr	r3, [r7, #4]
 2676 004c 1B68     		ldr	r3, [r3]
 2677              		.loc 1 1618 19
 2678 004e DA68     		ldr	r2, [r3, #12]
 2679              		.loc 1 1618 9
 2680 0050 7B68     		ldr	r3, [r7, #4]
 2681 0052 1B68     		ldr	r3, [r3]
 2682              		.loc 1 1618 26
 2683 0054 22F40022 		bic	r2, r2, #524288
 2684 0058 DA60     		str	r2, [r3, #12]
1619:Drivers/STM32L4xx_HAL_Driver/Src/stm32l4xx_hal_lptim.c **** 
1620:Drivers/STM32L4xx_HAL_Driver/Src/stm32l4xx_hal_lptim.c ****   /* Disable Compare match interrupt */
1621:Drivers/STM32L4xx_HAL_Driver/Src/stm32l4xx_hal_lptim.c ****   __HAL_LPTIM_DISABLE_IT(hlptim, LPTIM_IT_CMPM);
 2685              		.loc 1 1621 3
 2686 005a 7B68     		ldr	r3, [r7, #4]
 2687 005c 1B68     		ldr	r3, [r3]
 2688 005e 9A68     		ldr	r2, [r3, #8]
 2689 0060 7B68     		ldr	r3, [r7, #4]
 2690 0062 1B68     		ldr	r3, [r3]
ARM GAS  /tmp/ccB7T7H1.s 			page 76


 2691 0064 22F00102 		bic	r2, r2, #1
 2692 0068 9A60     		str	r2, [r3, #8]
1622:Drivers/STM32L4xx_HAL_Driver/Src/stm32l4xx_hal_lptim.c **** 
1623:Drivers/STM32L4xx_HAL_Driver/Src/stm32l4xx_hal_lptim.c ****   /* Change the LPTIM state */
1624:Drivers/STM32L4xx_HAL_Driver/Src/stm32l4xx_hal_lptim.c ****   hlptim->State = HAL_LPTIM_STATE_READY;
 2693              		.loc 1 1624 17
 2694 006a 7B68     		ldr	r3, [r7, #4]
 2695 006c 0122     		movs	r2, #1
 2696 006e 83F83620 		strb	r2, [r3, #54]
1625:Drivers/STM32L4xx_HAL_Driver/Src/stm32l4xx_hal_lptim.c **** 
1626:Drivers/STM32L4xx_HAL_Driver/Src/stm32l4xx_hal_lptim.c ****   /* Return function status */
1627:Drivers/STM32L4xx_HAL_Driver/Src/stm32l4xx_hal_lptim.c ****   return HAL_OK;
 2697              		.loc 1 1627 10
 2698 0072 0023     		movs	r3, #0
 2699              	.L107:
1628:Drivers/STM32L4xx_HAL_Driver/Src/stm32l4xx_hal_lptim.c **** }
 2700              		.loc 1 1628 1
 2701 0074 1846     		mov	r0, r3
 2702 0076 0837     		adds	r7, r7, #8
 2703              		.cfi_def_cfa_offset 8
 2704 0078 BD46     		mov	sp, r7
 2705              		.cfi_def_cfa_register 13
 2706              		@ sp needed
 2707 007a 80BD     		pop	{r7, pc}
 2708              	.L109:
 2709              		.align	2
 2710              	.L108:
 2711 007c 007C0040 		.word	1073773568
 2712 0080 00040140 		.word	1073808384
 2713              		.cfi_endproc
 2714              	.LFE468:
 2716              		.section	.text.HAL_LPTIM_Counter_Start,"ax",%progbits
 2717              		.align	1
 2718              		.global	HAL_LPTIM_Counter_Start
 2719              		.syntax unified
 2720              		.thumb
 2721              		.thumb_func
 2723              	HAL_LPTIM_Counter_Start:
 2724              	.LFB469:
1629:Drivers/STM32L4xx_HAL_Driver/Src/stm32l4xx_hal_lptim.c **** 
1630:Drivers/STM32L4xx_HAL_Driver/Src/stm32l4xx_hal_lptim.c **** /**
1631:Drivers/STM32L4xx_HAL_Driver/Src/stm32l4xx_hal_lptim.c ****   * @brief  Start the Counter mode.
1632:Drivers/STM32L4xx_HAL_Driver/Src/stm32l4xx_hal_lptim.c ****   * @param  hlptim LPTIM handle
1633:Drivers/STM32L4xx_HAL_Driver/Src/stm32l4xx_hal_lptim.c ****   * @param  Period Specifies the Autoreload value.
1634:Drivers/STM32L4xx_HAL_Driver/Src/stm32l4xx_hal_lptim.c ****   *         This parameter must be a value between 0x0001 and 0xFFFF.
1635:Drivers/STM32L4xx_HAL_Driver/Src/stm32l4xx_hal_lptim.c ****   * @retval HAL status
1636:Drivers/STM32L4xx_HAL_Driver/Src/stm32l4xx_hal_lptim.c ****   */
1637:Drivers/STM32L4xx_HAL_Driver/Src/stm32l4xx_hal_lptim.c **** HAL_StatusTypeDef HAL_LPTIM_Counter_Start(LPTIM_HandleTypeDef *hlptim, uint32_t Period)
1638:Drivers/STM32L4xx_HAL_Driver/Src/stm32l4xx_hal_lptim.c **** {
 2725              		.loc 1 1638 1
 2726              		.cfi_startproc
 2727              		@ args = 0, pretend = 0, frame = 8
 2728              		@ frame_needed = 1, uses_anonymous_args = 0
 2729 0000 80B5     		push	{r7, lr}
 2730              		.cfi_def_cfa_offset 8
 2731              		.cfi_offset 7, -8
 2732              		.cfi_offset 14, -4
ARM GAS  /tmp/ccB7T7H1.s 			page 77


 2733 0002 82B0     		sub	sp, sp, #8
 2734              		.cfi_def_cfa_offset 16
 2735 0004 00AF     		add	r7, sp, #0
 2736              		.cfi_def_cfa_register 7
 2737 0006 7860     		str	r0, [r7, #4]
 2738 0008 3960     		str	r1, [r7]
1639:Drivers/STM32L4xx_HAL_Driver/Src/stm32l4xx_hal_lptim.c ****   /* Check the parameters */
1640:Drivers/STM32L4xx_HAL_Driver/Src/stm32l4xx_hal_lptim.c ****   assert_param(IS_LPTIM_INSTANCE(hlptim->Instance));
1641:Drivers/STM32L4xx_HAL_Driver/Src/stm32l4xx_hal_lptim.c ****   assert_param(IS_LPTIM_PERIOD(Period));
1642:Drivers/STM32L4xx_HAL_Driver/Src/stm32l4xx_hal_lptim.c **** 
1643:Drivers/STM32L4xx_HAL_Driver/Src/stm32l4xx_hal_lptim.c ****   /* Set the LPTIM state */
1644:Drivers/STM32L4xx_HAL_Driver/Src/stm32l4xx_hal_lptim.c ****   hlptim->State = HAL_LPTIM_STATE_BUSY;
 2739              		.loc 1 1644 17
 2740 000a 7B68     		ldr	r3, [r7, #4]
 2741 000c 0222     		movs	r2, #2
 2742 000e 83F83620 		strb	r2, [r3, #54]
1645:Drivers/STM32L4xx_HAL_Driver/Src/stm32l4xx_hal_lptim.c **** 
1646:Drivers/STM32L4xx_HAL_Driver/Src/stm32l4xx_hal_lptim.c ****   /* If clock source is not ULPTIM clock and counter source is external, then it must not be presca
1647:Drivers/STM32L4xx_HAL_Driver/Src/stm32l4xx_hal_lptim.c ****   if ((hlptim->Init.Clock.Source != LPTIM_CLOCKSOURCE_ULPTIM)
 2743              		.loc 1 1647 26
 2744 0012 7B68     		ldr	r3, [r7, #4]
 2745 0014 5B68     		ldr	r3, [r3, #4]
 2746              		.loc 1 1647 6
 2747 0016 012B     		cmp	r3, #1
 2748 0018 0CD0     		beq	.L111
1648:Drivers/STM32L4xx_HAL_Driver/Src/stm32l4xx_hal_lptim.c ****       && (hlptim->Init.CounterSource == LPTIM_COUNTERSOURCE_EXTERNAL))
 2749              		.loc 1 1648 23
 2750 001a 7B68     		ldr	r3, [r7, #4]
 2751 001c 9B6A     		ldr	r3, [r3, #40]
 2752              		.loc 1 1648 7
 2753 001e B3F5000F 		cmp	r3, #8388608
 2754 0022 07D1     		bne	.L111
1649:Drivers/STM32L4xx_HAL_Driver/Src/stm32l4xx_hal_lptim.c ****   {
1650:Drivers/STM32L4xx_HAL_Driver/Src/stm32l4xx_hal_lptim.c ****     /* Check if clock is prescaled */
1651:Drivers/STM32L4xx_HAL_Driver/Src/stm32l4xx_hal_lptim.c ****     assert_param(IS_LPTIM_CLOCK_PRESCALERDIV1(hlptim->Init.Clock.Prescaler));
1652:Drivers/STM32L4xx_HAL_Driver/Src/stm32l4xx_hal_lptim.c ****     /* Set clock prescaler to 0 */
1653:Drivers/STM32L4xx_HAL_Driver/Src/stm32l4xx_hal_lptim.c ****     hlptim->Instance->CFGR &= ~LPTIM_CFGR_PRESC;
 2755              		.loc 1 1653 11
 2756 0024 7B68     		ldr	r3, [r7, #4]
 2757 0026 1B68     		ldr	r3, [r3]
 2758              		.loc 1 1653 21
 2759 0028 DA68     		ldr	r2, [r3, #12]
 2760              		.loc 1 1653 11
 2761 002a 7B68     		ldr	r3, [r7, #4]
 2762 002c 1B68     		ldr	r3, [r3]
 2763              		.loc 1 1653 28
 2764 002e 22F46062 		bic	r2, r2, #3584
 2765 0032 DA60     		str	r2, [r3, #12]
 2766              	.L111:
1654:Drivers/STM32L4xx_HAL_Driver/Src/stm32l4xx_hal_lptim.c ****   }
1655:Drivers/STM32L4xx_HAL_Driver/Src/stm32l4xx_hal_lptim.c **** 
1656:Drivers/STM32L4xx_HAL_Driver/Src/stm32l4xx_hal_lptim.c ****   /* Enable the Peripheral */
1657:Drivers/STM32L4xx_HAL_Driver/Src/stm32l4xx_hal_lptim.c ****   __HAL_LPTIM_ENABLE(hlptim);
 2767              		.loc 1 1657 3
 2768 0034 7B68     		ldr	r3, [r7, #4]
 2769 0036 1B68     		ldr	r3, [r3]
 2770 0038 1A69     		ldr	r2, [r3, #16]
ARM GAS  /tmp/ccB7T7H1.s 			page 78


 2771 003a 7B68     		ldr	r3, [r7, #4]
 2772 003c 1B68     		ldr	r3, [r3]
 2773 003e 42F00102 		orr	r2, r2, #1
 2774 0042 1A61     		str	r2, [r3, #16]
1658:Drivers/STM32L4xx_HAL_Driver/Src/stm32l4xx_hal_lptim.c **** 
1659:Drivers/STM32L4xx_HAL_Driver/Src/stm32l4xx_hal_lptim.c ****   /* Clear flag */
1660:Drivers/STM32L4xx_HAL_Driver/Src/stm32l4xx_hal_lptim.c ****   __HAL_LPTIM_CLEAR_FLAG(hlptim, LPTIM_FLAG_ARROK);
 2775              		.loc 1 1660 3
 2776 0044 7B68     		ldr	r3, [r7, #4]
 2777 0046 1B68     		ldr	r3, [r3]
 2778 0048 1022     		movs	r2, #16
 2779 004a 5A60     		str	r2, [r3, #4]
1661:Drivers/STM32L4xx_HAL_Driver/Src/stm32l4xx_hal_lptim.c **** 
1662:Drivers/STM32L4xx_HAL_Driver/Src/stm32l4xx_hal_lptim.c ****   /* Load the period value in the autoreload register */
1663:Drivers/STM32L4xx_HAL_Driver/Src/stm32l4xx_hal_lptim.c ****   __HAL_LPTIM_AUTORELOAD_SET(hlptim, Period);
 2780              		.loc 1 1663 3
 2781 004c 7B68     		ldr	r3, [r7, #4]
 2782 004e 1B68     		ldr	r3, [r3]
 2783 0050 3A68     		ldr	r2, [r7]
 2784 0052 9A61     		str	r2, [r3, #24]
1664:Drivers/STM32L4xx_HAL_Driver/Src/stm32l4xx_hal_lptim.c **** 
1665:Drivers/STM32L4xx_HAL_Driver/Src/stm32l4xx_hal_lptim.c ****   /* Wait for the completion of the write operation to the LPTIM_ARR register */
1666:Drivers/STM32L4xx_HAL_Driver/Src/stm32l4xx_hal_lptim.c ****   if (LPTIM_WaitForFlag(hlptim, LPTIM_FLAG_ARROK) == HAL_TIMEOUT)
 2785              		.loc 1 1666 7
 2786 0054 1021     		movs	r1, #16
 2787 0056 7868     		ldr	r0, [r7, #4]
 2788 0058 FFF7FEFF 		bl	LPTIM_WaitForFlag
 2789 005c 0346     		mov	r3, r0
 2790              		.loc 1 1666 6 discriminator 1
 2791 005e 032B     		cmp	r3, #3
 2792 0060 01D1     		bne	.L112
1667:Drivers/STM32L4xx_HAL_Driver/Src/stm32l4xx_hal_lptim.c ****   {
1668:Drivers/STM32L4xx_HAL_Driver/Src/stm32l4xx_hal_lptim.c ****     return HAL_TIMEOUT;
 2793              		.loc 1 1668 12
 2794 0062 0323     		movs	r3, #3
 2795 0064 0CE0     		b	.L113
 2796              	.L112:
1669:Drivers/STM32L4xx_HAL_Driver/Src/stm32l4xx_hal_lptim.c ****   }
1670:Drivers/STM32L4xx_HAL_Driver/Src/stm32l4xx_hal_lptim.c **** 
1671:Drivers/STM32L4xx_HAL_Driver/Src/stm32l4xx_hal_lptim.c ****   /* Start timer in continuous mode */
1672:Drivers/STM32L4xx_HAL_Driver/Src/stm32l4xx_hal_lptim.c ****   __HAL_LPTIM_START_CONTINUOUS(hlptim);
 2797              		.loc 1 1672 3
 2798 0066 7B68     		ldr	r3, [r7, #4]
 2799 0068 1B68     		ldr	r3, [r3]
 2800 006a 1A69     		ldr	r2, [r3, #16]
 2801 006c 7B68     		ldr	r3, [r7, #4]
 2802 006e 1B68     		ldr	r3, [r3]
 2803 0070 42F00402 		orr	r2, r2, #4
 2804 0074 1A61     		str	r2, [r3, #16]
1673:Drivers/STM32L4xx_HAL_Driver/Src/stm32l4xx_hal_lptim.c **** 
1674:Drivers/STM32L4xx_HAL_Driver/Src/stm32l4xx_hal_lptim.c ****   /* Change the LPTIM state */
1675:Drivers/STM32L4xx_HAL_Driver/Src/stm32l4xx_hal_lptim.c ****   hlptim->State = HAL_LPTIM_STATE_READY;
 2805              		.loc 1 1675 17
 2806 0076 7B68     		ldr	r3, [r7, #4]
 2807 0078 0122     		movs	r2, #1
 2808 007a 83F83620 		strb	r2, [r3, #54]
1676:Drivers/STM32L4xx_HAL_Driver/Src/stm32l4xx_hal_lptim.c **** 
ARM GAS  /tmp/ccB7T7H1.s 			page 79


1677:Drivers/STM32L4xx_HAL_Driver/Src/stm32l4xx_hal_lptim.c ****   /* Return function status */
1678:Drivers/STM32L4xx_HAL_Driver/Src/stm32l4xx_hal_lptim.c ****   return HAL_OK;
 2809              		.loc 1 1678 10
 2810 007e 0023     		movs	r3, #0
 2811              	.L113:
1679:Drivers/STM32L4xx_HAL_Driver/Src/stm32l4xx_hal_lptim.c **** }
 2812              		.loc 1 1679 1
 2813 0080 1846     		mov	r0, r3
 2814 0082 0837     		adds	r7, r7, #8
 2815              		.cfi_def_cfa_offset 8
 2816 0084 BD46     		mov	sp, r7
 2817              		.cfi_def_cfa_register 13
 2818              		@ sp needed
 2819 0086 80BD     		pop	{r7, pc}
 2820              		.cfi_endproc
 2821              	.LFE469:
 2823              		.section	.text.HAL_LPTIM_Counter_Stop,"ax",%progbits
 2824              		.align	1
 2825              		.global	HAL_LPTIM_Counter_Stop
 2826              		.syntax unified
 2827              		.thumb
 2828              		.thumb_func
 2830              	HAL_LPTIM_Counter_Stop:
 2831              	.LFB470:
1680:Drivers/STM32L4xx_HAL_Driver/Src/stm32l4xx_hal_lptim.c **** 
1681:Drivers/STM32L4xx_HAL_Driver/Src/stm32l4xx_hal_lptim.c **** /**
1682:Drivers/STM32L4xx_HAL_Driver/Src/stm32l4xx_hal_lptim.c ****   * @brief  Stop the Counter mode.
1683:Drivers/STM32L4xx_HAL_Driver/Src/stm32l4xx_hal_lptim.c ****   * @param  hlptim LPTIM handle
1684:Drivers/STM32L4xx_HAL_Driver/Src/stm32l4xx_hal_lptim.c ****   * @retval HAL status
1685:Drivers/STM32L4xx_HAL_Driver/Src/stm32l4xx_hal_lptim.c ****   */
1686:Drivers/STM32L4xx_HAL_Driver/Src/stm32l4xx_hal_lptim.c **** HAL_StatusTypeDef HAL_LPTIM_Counter_Stop(LPTIM_HandleTypeDef *hlptim)
1687:Drivers/STM32L4xx_HAL_Driver/Src/stm32l4xx_hal_lptim.c **** {
 2832              		.loc 1 1687 1
 2833              		.cfi_startproc
 2834              		@ args = 0, pretend = 0, frame = 8
 2835              		@ frame_needed = 1, uses_anonymous_args = 0
 2836 0000 80B5     		push	{r7, lr}
 2837              		.cfi_def_cfa_offset 8
 2838              		.cfi_offset 7, -8
 2839              		.cfi_offset 14, -4
 2840 0002 82B0     		sub	sp, sp, #8
 2841              		.cfi_def_cfa_offset 16
 2842 0004 00AF     		add	r7, sp, #0
 2843              		.cfi_def_cfa_register 7
 2844 0006 7860     		str	r0, [r7, #4]
1688:Drivers/STM32L4xx_HAL_Driver/Src/stm32l4xx_hal_lptim.c ****   /* Check the parameters */
1689:Drivers/STM32L4xx_HAL_Driver/Src/stm32l4xx_hal_lptim.c ****   assert_param(IS_LPTIM_INSTANCE(hlptim->Instance));
1690:Drivers/STM32L4xx_HAL_Driver/Src/stm32l4xx_hal_lptim.c **** 
1691:Drivers/STM32L4xx_HAL_Driver/Src/stm32l4xx_hal_lptim.c ****   /* Set the LPTIM state */
1692:Drivers/STM32L4xx_HAL_Driver/Src/stm32l4xx_hal_lptim.c ****   hlptim->State = HAL_LPTIM_STATE_BUSY;
 2845              		.loc 1 1692 17
 2846 0008 7B68     		ldr	r3, [r7, #4]
 2847 000a 0222     		movs	r2, #2
 2848 000c 83F83620 		strb	r2, [r3, #54]
1693:Drivers/STM32L4xx_HAL_Driver/Src/stm32l4xx_hal_lptim.c **** 
1694:Drivers/STM32L4xx_HAL_Driver/Src/stm32l4xx_hal_lptim.c ****   /* Disable the Peripheral */
1695:Drivers/STM32L4xx_HAL_Driver/Src/stm32l4xx_hal_lptim.c ****   __HAL_LPTIM_DISABLE(hlptim);
ARM GAS  /tmp/ccB7T7H1.s 			page 80


 2849              		.loc 1 1695 3
 2850 0010 7868     		ldr	r0, [r7, #4]
 2851 0012 FFF7FEFF 		bl	LPTIM_Disable
1696:Drivers/STM32L4xx_HAL_Driver/Src/stm32l4xx_hal_lptim.c **** 
1697:Drivers/STM32L4xx_HAL_Driver/Src/stm32l4xx_hal_lptim.c ****   if (HAL_LPTIM_GetState(hlptim) == HAL_LPTIM_STATE_TIMEOUT)
 2852              		.loc 1 1697 7
 2853 0016 7868     		ldr	r0, [r7, #4]
 2854 0018 FFF7FEFF 		bl	HAL_LPTIM_GetState
 2855 001c 0346     		mov	r3, r0
 2856              		.loc 1 1697 6 discriminator 1
 2857 001e 032B     		cmp	r3, #3
 2858 0020 01D1     		bne	.L115
1698:Drivers/STM32L4xx_HAL_Driver/Src/stm32l4xx_hal_lptim.c ****   {
1699:Drivers/STM32L4xx_HAL_Driver/Src/stm32l4xx_hal_lptim.c ****     return HAL_TIMEOUT;
 2859              		.loc 1 1699 12
 2860 0022 0323     		movs	r3, #3
 2861 0024 04E0     		b	.L116
 2862              	.L115:
1700:Drivers/STM32L4xx_HAL_Driver/Src/stm32l4xx_hal_lptim.c ****   }
1701:Drivers/STM32L4xx_HAL_Driver/Src/stm32l4xx_hal_lptim.c **** 
1702:Drivers/STM32L4xx_HAL_Driver/Src/stm32l4xx_hal_lptim.c ****   /* Change the LPTIM state */
1703:Drivers/STM32L4xx_HAL_Driver/Src/stm32l4xx_hal_lptim.c ****   hlptim->State = HAL_LPTIM_STATE_READY;
 2863              		.loc 1 1703 17
 2864 0026 7B68     		ldr	r3, [r7, #4]
 2865 0028 0122     		movs	r2, #1
 2866 002a 83F83620 		strb	r2, [r3, #54]
1704:Drivers/STM32L4xx_HAL_Driver/Src/stm32l4xx_hal_lptim.c **** 
1705:Drivers/STM32L4xx_HAL_Driver/Src/stm32l4xx_hal_lptim.c ****   /* Return function status */
1706:Drivers/STM32L4xx_HAL_Driver/Src/stm32l4xx_hal_lptim.c ****   return HAL_OK;
 2867              		.loc 1 1706 10
 2868 002e 0023     		movs	r3, #0
 2869              	.L116:
1707:Drivers/STM32L4xx_HAL_Driver/Src/stm32l4xx_hal_lptim.c **** }
 2870              		.loc 1 1707 1
 2871 0030 1846     		mov	r0, r3
 2872 0032 0837     		adds	r7, r7, #8
 2873              		.cfi_def_cfa_offset 8
 2874 0034 BD46     		mov	sp, r7
 2875              		.cfi_def_cfa_register 13
 2876              		@ sp needed
 2877 0036 80BD     		pop	{r7, pc}
 2878              		.cfi_endproc
 2879              	.LFE470:
 2881              		.section	.text.HAL_LPTIM_Counter_Start_IT,"ax",%progbits
 2882              		.align	1
 2883              		.global	HAL_LPTIM_Counter_Start_IT
 2884              		.syntax unified
 2885              		.thumb
 2886              		.thumb_func
 2888              	HAL_LPTIM_Counter_Start_IT:
 2889              	.LFB471:
1708:Drivers/STM32L4xx_HAL_Driver/Src/stm32l4xx_hal_lptim.c **** 
1709:Drivers/STM32L4xx_HAL_Driver/Src/stm32l4xx_hal_lptim.c **** /**
1710:Drivers/STM32L4xx_HAL_Driver/Src/stm32l4xx_hal_lptim.c ****   * @brief  Start the Counter mode in interrupt mode.
1711:Drivers/STM32L4xx_HAL_Driver/Src/stm32l4xx_hal_lptim.c ****   * @param  hlptim LPTIM handle
1712:Drivers/STM32L4xx_HAL_Driver/Src/stm32l4xx_hal_lptim.c ****   * @param  Period Specifies the Autoreload value.
1713:Drivers/STM32L4xx_HAL_Driver/Src/stm32l4xx_hal_lptim.c ****   *         This parameter must be a value between 0x0001 and 0xFFFF.
ARM GAS  /tmp/ccB7T7H1.s 			page 81


1714:Drivers/STM32L4xx_HAL_Driver/Src/stm32l4xx_hal_lptim.c ****   * @retval HAL status
1715:Drivers/STM32L4xx_HAL_Driver/Src/stm32l4xx_hal_lptim.c ****   */
1716:Drivers/STM32L4xx_HAL_Driver/Src/stm32l4xx_hal_lptim.c **** HAL_StatusTypeDef HAL_LPTIM_Counter_Start_IT(LPTIM_HandleTypeDef *hlptim, uint32_t Period)
1717:Drivers/STM32L4xx_HAL_Driver/Src/stm32l4xx_hal_lptim.c **** {
 2890              		.loc 1 1717 1
 2891              		.cfi_startproc
 2892              		@ args = 0, pretend = 0, frame = 8
 2893              		@ frame_needed = 1, uses_anonymous_args = 0
 2894 0000 80B5     		push	{r7, lr}
 2895              		.cfi_def_cfa_offset 8
 2896              		.cfi_offset 7, -8
 2897              		.cfi_offset 14, -4
 2898 0002 82B0     		sub	sp, sp, #8
 2899              		.cfi_def_cfa_offset 16
 2900 0004 00AF     		add	r7, sp, #0
 2901              		.cfi_def_cfa_register 7
 2902 0006 7860     		str	r0, [r7, #4]
 2903 0008 3960     		str	r1, [r7]
1718:Drivers/STM32L4xx_HAL_Driver/Src/stm32l4xx_hal_lptim.c ****   /* Check the parameters */
1719:Drivers/STM32L4xx_HAL_Driver/Src/stm32l4xx_hal_lptim.c ****   assert_param(IS_LPTIM_INSTANCE(hlptim->Instance));
1720:Drivers/STM32L4xx_HAL_Driver/Src/stm32l4xx_hal_lptim.c ****   assert_param(IS_LPTIM_PERIOD(Period));
1721:Drivers/STM32L4xx_HAL_Driver/Src/stm32l4xx_hal_lptim.c **** 
1722:Drivers/STM32L4xx_HAL_Driver/Src/stm32l4xx_hal_lptim.c ****   /* Set the LPTIM state */
1723:Drivers/STM32L4xx_HAL_Driver/Src/stm32l4xx_hal_lptim.c ****   hlptim->State = HAL_LPTIM_STATE_BUSY;
 2904              		.loc 1 1723 17
 2905 000a 7B68     		ldr	r3, [r7, #4]
 2906 000c 0222     		movs	r2, #2
 2907 000e 83F83620 		strb	r2, [r3, #54]
1724:Drivers/STM32L4xx_HAL_Driver/Src/stm32l4xx_hal_lptim.c **** 
1725:Drivers/STM32L4xx_HAL_Driver/Src/stm32l4xx_hal_lptim.c ****   /* Enable EXTI Line interrupt on the LPTIM Wake-up Timer */
1726:Drivers/STM32L4xx_HAL_Driver/Src/stm32l4xx_hal_lptim.c ****   __HAL_LPTIM_WAKEUPTIMER_EXTI_ENABLE_IT(hlptim->Instance);
 2908              		.loc 1 1726 3
 2909 0012 7B68     		ldr	r3, [r7, #4]
 2910 0014 1B68     		ldr	r3, [r3]
 2911 0016 374A     		ldr	r2, .L124
 2912 0018 9342     		cmp	r3, r2
 2913 001a 06D1     		bne	.L118
 2914              		.loc 1 1726 3 is_stmt 0 discriminator 1
 2915 001c 364B     		ldr	r3, .L124+4
 2916 001e 1B6A     		ldr	r3, [r3, #32]
 2917 0020 354A     		ldr	r2, .L124+4
 2918 0022 43F00103 		orr	r3, r3, #1
 2919 0026 1362     		str	r3, [r2, #32]
 2920 0028 05E0     		b	.L119
 2921              	.L118:
 2922              		.loc 1 1726 3 discriminator 2
 2923 002a 334B     		ldr	r3, .L124+4
 2924 002c 1B6A     		ldr	r3, [r3, #32]
 2925 002e 324A     		ldr	r2, .L124+4
 2926 0030 43F00203 		orr	r3, r3, #2
 2927 0034 1362     		str	r3, [r2, #32]
 2928              	.L119:
1727:Drivers/STM32L4xx_HAL_Driver/Src/stm32l4xx_hal_lptim.c **** 
1728:Drivers/STM32L4xx_HAL_Driver/Src/stm32l4xx_hal_lptim.c ****   /* If clock source is not ULPTIM clock and counter source is external, then it must not be presca
1729:Drivers/STM32L4xx_HAL_Driver/Src/stm32l4xx_hal_lptim.c ****   if ((hlptim->Init.Clock.Source != LPTIM_CLOCKSOURCE_ULPTIM)
 2929              		.loc 1 1729 26 is_stmt 1
 2930 0036 7B68     		ldr	r3, [r7, #4]
ARM GAS  /tmp/ccB7T7H1.s 			page 82


 2931 0038 5B68     		ldr	r3, [r3, #4]
 2932              		.loc 1 1729 6
 2933 003a 012B     		cmp	r3, #1
 2934 003c 0CD0     		beq	.L120
1730:Drivers/STM32L4xx_HAL_Driver/Src/stm32l4xx_hal_lptim.c ****       && (hlptim->Init.CounterSource == LPTIM_COUNTERSOURCE_EXTERNAL))
 2935              		.loc 1 1730 23
 2936 003e 7B68     		ldr	r3, [r7, #4]
 2937 0040 9B6A     		ldr	r3, [r3, #40]
 2938              		.loc 1 1730 7
 2939 0042 B3F5000F 		cmp	r3, #8388608
 2940 0046 07D1     		bne	.L120
1731:Drivers/STM32L4xx_HAL_Driver/Src/stm32l4xx_hal_lptim.c ****   {
1732:Drivers/STM32L4xx_HAL_Driver/Src/stm32l4xx_hal_lptim.c ****     /* Check if clock is prescaled */
1733:Drivers/STM32L4xx_HAL_Driver/Src/stm32l4xx_hal_lptim.c ****     assert_param(IS_LPTIM_CLOCK_PRESCALERDIV1(hlptim->Init.Clock.Prescaler));
1734:Drivers/STM32L4xx_HAL_Driver/Src/stm32l4xx_hal_lptim.c ****     /* Set clock prescaler to 0 */
1735:Drivers/STM32L4xx_HAL_Driver/Src/stm32l4xx_hal_lptim.c ****     hlptim->Instance->CFGR &= ~LPTIM_CFGR_PRESC;
 2941              		.loc 1 1735 11
 2942 0048 7B68     		ldr	r3, [r7, #4]
 2943 004a 1B68     		ldr	r3, [r3]
 2944              		.loc 1 1735 21
 2945 004c DA68     		ldr	r2, [r3, #12]
 2946              		.loc 1 1735 11
 2947 004e 7B68     		ldr	r3, [r7, #4]
 2948 0050 1B68     		ldr	r3, [r3]
 2949              		.loc 1 1735 28
 2950 0052 22F46062 		bic	r2, r2, #3584
 2951 0056 DA60     		str	r2, [r3, #12]
 2952              	.L120:
1736:Drivers/STM32L4xx_HAL_Driver/Src/stm32l4xx_hal_lptim.c ****   }
1737:Drivers/STM32L4xx_HAL_Driver/Src/stm32l4xx_hal_lptim.c **** 
1738:Drivers/STM32L4xx_HAL_Driver/Src/stm32l4xx_hal_lptim.c ****   /* Enable the Peripheral */
1739:Drivers/STM32L4xx_HAL_Driver/Src/stm32l4xx_hal_lptim.c ****   __HAL_LPTIM_ENABLE(hlptim);
 2953              		.loc 1 1739 3
 2954 0058 7B68     		ldr	r3, [r7, #4]
 2955 005a 1B68     		ldr	r3, [r3]
 2956 005c 1A69     		ldr	r2, [r3, #16]
 2957 005e 7B68     		ldr	r3, [r7, #4]
 2958 0060 1B68     		ldr	r3, [r3]
 2959 0062 42F00102 		orr	r2, r2, #1
 2960 0066 1A61     		str	r2, [r3, #16]
1740:Drivers/STM32L4xx_HAL_Driver/Src/stm32l4xx_hal_lptim.c **** 
1741:Drivers/STM32L4xx_HAL_Driver/Src/stm32l4xx_hal_lptim.c ****   /* Clear flag */
1742:Drivers/STM32L4xx_HAL_Driver/Src/stm32l4xx_hal_lptim.c ****   __HAL_LPTIM_CLEAR_FLAG(hlptim, LPTIM_FLAG_ARROK);
 2961              		.loc 1 1742 3
 2962 0068 7B68     		ldr	r3, [r7, #4]
 2963 006a 1B68     		ldr	r3, [r3]
 2964 006c 1022     		movs	r2, #16
 2965 006e 5A60     		str	r2, [r3, #4]
1743:Drivers/STM32L4xx_HAL_Driver/Src/stm32l4xx_hal_lptim.c **** 
1744:Drivers/STM32L4xx_HAL_Driver/Src/stm32l4xx_hal_lptim.c ****   /* Load the period value in the autoreload register */
1745:Drivers/STM32L4xx_HAL_Driver/Src/stm32l4xx_hal_lptim.c ****   __HAL_LPTIM_AUTORELOAD_SET(hlptim, Period);
 2966              		.loc 1 1745 3
 2967 0070 7B68     		ldr	r3, [r7, #4]
 2968 0072 1B68     		ldr	r3, [r3]
 2969 0074 3A68     		ldr	r2, [r7]
 2970 0076 9A61     		str	r2, [r3, #24]
1746:Drivers/STM32L4xx_HAL_Driver/Src/stm32l4xx_hal_lptim.c **** 
ARM GAS  /tmp/ccB7T7H1.s 			page 83


1747:Drivers/STM32L4xx_HAL_Driver/Src/stm32l4xx_hal_lptim.c ****   /* Wait for the completion of the write operation to the LPTIM_ARR register */
1748:Drivers/STM32L4xx_HAL_Driver/Src/stm32l4xx_hal_lptim.c ****   if (LPTIM_WaitForFlag(hlptim, LPTIM_FLAG_ARROK) == HAL_TIMEOUT)
 2971              		.loc 1 1748 7
 2972 0078 1021     		movs	r1, #16
 2973 007a 7868     		ldr	r0, [r7, #4]
 2974 007c FFF7FEFF 		bl	LPTIM_WaitForFlag
 2975 0080 0346     		mov	r3, r0
 2976              		.loc 1 1748 6 discriminator 1
 2977 0082 032B     		cmp	r3, #3
 2978 0084 01D1     		bne	.L121
1749:Drivers/STM32L4xx_HAL_Driver/Src/stm32l4xx_hal_lptim.c ****   {
1750:Drivers/STM32L4xx_HAL_Driver/Src/stm32l4xx_hal_lptim.c ****     return HAL_TIMEOUT;
 2979              		.loc 1 1750 12
 2980 0086 0323     		movs	r3, #3
 2981 0088 2FE0     		b	.L122
 2982              	.L121:
1751:Drivers/STM32L4xx_HAL_Driver/Src/stm32l4xx_hal_lptim.c ****   }
1752:Drivers/STM32L4xx_HAL_Driver/Src/stm32l4xx_hal_lptim.c **** 
1753:Drivers/STM32L4xx_HAL_Driver/Src/stm32l4xx_hal_lptim.c ****   /* Disable the Peripheral */
1754:Drivers/STM32L4xx_HAL_Driver/Src/stm32l4xx_hal_lptim.c ****   __HAL_LPTIM_DISABLE(hlptim);
 2983              		.loc 1 1754 3
 2984 008a 7868     		ldr	r0, [r7, #4]
 2985 008c FFF7FEFF 		bl	LPTIM_Disable
1755:Drivers/STM32L4xx_HAL_Driver/Src/stm32l4xx_hal_lptim.c **** 
1756:Drivers/STM32L4xx_HAL_Driver/Src/stm32l4xx_hal_lptim.c ****   if (HAL_LPTIM_GetState(hlptim) == HAL_LPTIM_STATE_TIMEOUT)
 2986              		.loc 1 1756 7
 2987 0090 7868     		ldr	r0, [r7, #4]
 2988 0092 FFF7FEFF 		bl	HAL_LPTIM_GetState
 2989 0096 0346     		mov	r3, r0
 2990              		.loc 1 1756 6 discriminator 1
 2991 0098 032B     		cmp	r3, #3
 2992 009a 01D1     		bne	.L123
1757:Drivers/STM32L4xx_HAL_Driver/Src/stm32l4xx_hal_lptim.c ****   {
1758:Drivers/STM32L4xx_HAL_Driver/Src/stm32l4xx_hal_lptim.c ****     return HAL_TIMEOUT;
 2993              		.loc 1 1758 12
 2994 009c 0323     		movs	r3, #3
 2995 009e 24E0     		b	.L122
 2996              	.L123:
1759:Drivers/STM32L4xx_HAL_Driver/Src/stm32l4xx_hal_lptim.c ****   }
1760:Drivers/STM32L4xx_HAL_Driver/Src/stm32l4xx_hal_lptim.c **** 
1761:Drivers/STM32L4xx_HAL_Driver/Src/stm32l4xx_hal_lptim.c ****   /* Enable Autoreload write complete interrupt */
1762:Drivers/STM32L4xx_HAL_Driver/Src/stm32l4xx_hal_lptim.c ****   __HAL_LPTIM_ENABLE_IT(hlptim, LPTIM_IT_ARROK);
 2997              		.loc 1 1762 3
 2998 00a0 7B68     		ldr	r3, [r7, #4]
 2999 00a2 1B68     		ldr	r3, [r3]
 3000 00a4 9A68     		ldr	r2, [r3, #8]
 3001 00a6 7B68     		ldr	r3, [r7, #4]
 3002 00a8 1B68     		ldr	r3, [r3]
 3003 00aa 42F01002 		orr	r2, r2, #16
 3004 00ae 9A60     		str	r2, [r3, #8]
1763:Drivers/STM32L4xx_HAL_Driver/Src/stm32l4xx_hal_lptim.c **** 
1764:Drivers/STM32L4xx_HAL_Driver/Src/stm32l4xx_hal_lptim.c ****   /* Enable Autoreload match interrupt */
1765:Drivers/STM32L4xx_HAL_Driver/Src/stm32l4xx_hal_lptim.c ****   __HAL_LPTIM_ENABLE_IT(hlptim, LPTIM_IT_ARRM);
 3005              		.loc 1 1765 3
 3006 00b0 7B68     		ldr	r3, [r7, #4]
 3007 00b2 1B68     		ldr	r3, [r3]
 3008 00b4 9A68     		ldr	r2, [r3, #8]
ARM GAS  /tmp/ccB7T7H1.s 			page 84


 3009 00b6 7B68     		ldr	r3, [r7, #4]
 3010 00b8 1B68     		ldr	r3, [r3]
 3011 00ba 42F00202 		orr	r2, r2, #2
 3012 00be 9A60     		str	r2, [r3, #8]
1766:Drivers/STM32L4xx_HAL_Driver/Src/stm32l4xx_hal_lptim.c **** 
1767:Drivers/STM32L4xx_HAL_Driver/Src/stm32l4xx_hal_lptim.c **** #if defined(LPTIM_RCR_REP)
1768:Drivers/STM32L4xx_HAL_Driver/Src/stm32l4xx_hal_lptim.c ****   /* Enable Rep Update Ok interrupt */
1769:Drivers/STM32L4xx_HAL_Driver/Src/stm32l4xx_hal_lptim.c ****   __HAL_LPTIM_ENABLE_IT(hlptim, LPTIM_IT_REPOK);
1770:Drivers/STM32L4xx_HAL_Driver/Src/stm32l4xx_hal_lptim.c **** 
1771:Drivers/STM32L4xx_HAL_Driver/Src/stm32l4xx_hal_lptim.c ****   /* Enable Update Event interrupt */
1772:Drivers/STM32L4xx_HAL_Driver/Src/stm32l4xx_hal_lptim.c ****   __HAL_LPTIM_ENABLE_IT(hlptim, LPTIM_IT_UPDATE);
1773:Drivers/STM32L4xx_HAL_Driver/Src/stm32l4xx_hal_lptim.c **** 
1774:Drivers/STM32L4xx_HAL_Driver/Src/stm32l4xx_hal_lptim.c **** #endif
1775:Drivers/STM32L4xx_HAL_Driver/Src/stm32l4xx_hal_lptim.c ****   /* Enable the Peripheral */
1776:Drivers/STM32L4xx_HAL_Driver/Src/stm32l4xx_hal_lptim.c ****   __HAL_LPTIM_ENABLE(hlptim);
 3013              		.loc 1 1776 3
 3014 00c0 7B68     		ldr	r3, [r7, #4]
 3015 00c2 1B68     		ldr	r3, [r3]
 3016 00c4 1A69     		ldr	r2, [r3, #16]
 3017 00c6 7B68     		ldr	r3, [r7, #4]
 3018 00c8 1B68     		ldr	r3, [r3]
 3019 00ca 42F00102 		orr	r2, r2, #1
 3020 00ce 1A61     		str	r2, [r3, #16]
1777:Drivers/STM32L4xx_HAL_Driver/Src/stm32l4xx_hal_lptim.c **** 
1778:Drivers/STM32L4xx_HAL_Driver/Src/stm32l4xx_hal_lptim.c ****   /* Start timer in continuous mode */
1779:Drivers/STM32L4xx_HAL_Driver/Src/stm32l4xx_hal_lptim.c ****   __HAL_LPTIM_START_CONTINUOUS(hlptim);
 3021              		.loc 1 1779 3
 3022 00d0 7B68     		ldr	r3, [r7, #4]
 3023 00d2 1B68     		ldr	r3, [r3]
 3024 00d4 1A69     		ldr	r2, [r3, #16]
 3025 00d6 7B68     		ldr	r3, [r7, #4]
 3026 00d8 1B68     		ldr	r3, [r3]
 3027 00da 42F00402 		orr	r2, r2, #4
 3028 00de 1A61     		str	r2, [r3, #16]
1780:Drivers/STM32L4xx_HAL_Driver/Src/stm32l4xx_hal_lptim.c **** 
1781:Drivers/STM32L4xx_HAL_Driver/Src/stm32l4xx_hal_lptim.c ****   /* Change the LPTIM state */
1782:Drivers/STM32L4xx_HAL_Driver/Src/stm32l4xx_hal_lptim.c ****   hlptim->State = HAL_LPTIM_STATE_READY;
 3029              		.loc 1 1782 17
 3030 00e0 7B68     		ldr	r3, [r7, #4]
 3031 00e2 0122     		movs	r2, #1
 3032 00e4 83F83620 		strb	r2, [r3, #54]
1783:Drivers/STM32L4xx_HAL_Driver/Src/stm32l4xx_hal_lptim.c **** 
1784:Drivers/STM32L4xx_HAL_Driver/Src/stm32l4xx_hal_lptim.c ****   /* Return function status */
1785:Drivers/STM32L4xx_HAL_Driver/Src/stm32l4xx_hal_lptim.c ****   return HAL_OK;
 3033              		.loc 1 1785 10
 3034 00e8 0023     		movs	r3, #0
 3035              	.L122:
1786:Drivers/STM32L4xx_HAL_Driver/Src/stm32l4xx_hal_lptim.c **** }
 3036              		.loc 1 1786 1
 3037 00ea 1846     		mov	r0, r3
 3038 00ec 0837     		adds	r7, r7, #8
 3039              		.cfi_def_cfa_offset 8
 3040 00ee BD46     		mov	sp, r7
 3041              		.cfi_def_cfa_register 13
 3042              		@ sp needed
 3043 00f0 80BD     		pop	{r7, pc}
 3044              	.L125:
ARM GAS  /tmp/ccB7T7H1.s 			page 85


 3045 00f2 00BF     		.align	2
 3046              	.L124:
 3047 00f4 007C0040 		.word	1073773568
 3048 00f8 00040140 		.word	1073808384
 3049              		.cfi_endproc
 3050              	.LFE471:
 3052              		.section	.text.HAL_LPTIM_Counter_Stop_IT,"ax",%progbits
 3053              		.align	1
 3054              		.global	HAL_LPTIM_Counter_Stop_IT
 3055              		.syntax unified
 3056              		.thumb
 3057              		.thumb_func
 3059              	HAL_LPTIM_Counter_Stop_IT:
 3060              	.LFB472:
1787:Drivers/STM32L4xx_HAL_Driver/Src/stm32l4xx_hal_lptim.c **** 
1788:Drivers/STM32L4xx_HAL_Driver/Src/stm32l4xx_hal_lptim.c **** /**
1789:Drivers/STM32L4xx_HAL_Driver/Src/stm32l4xx_hal_lptim.c ****   * @brief  Stop the Counter mode in interrupt mode.
1790:Drivers/STM32L4xx_HAL_Driver/Src/stm32l4xx_hal_lptim.c ****   * @param  hlptim LPTIM handle
1791:Drivers/STM32L4xx_HAL_Driver/Src/stm32l4xx_hal_lptim.c ****   * @retval HAL status
1792:Drivers/STM32L4xx_HAL_Driver/Src/stm32l4xx_hal_lptim.c ****   */
1793:Drivers/STM32L4xx_HAL_Driver/Src/stm32l4xx_hal_lptim.c **** HAL_StatusTypeDef HAL_LPTIM_Counter_Stop_IT(LPTIM_HandleTypeDef *hlptim)
1794:Drivers/STM32L4xx_HAL_Driver/Src/stm32l4xx_hal_lptim.c **** {
 3061              		.loc 1 1794 1
 3062              		.cfi_startproc
 3063              		@ args = 0, pretend = 0, frame = 8
 3064              		@ frame_needed = 1, uses_anonymous_args = 0
 3065 0000 80B5     		push	{r7, lr}
 3066              		.cfi_def_cfa_offset 8
 3067              		.cfi_offset 7, -8
 3068              		.cfi_offset 14, -4
 3069 0002 82B0     		sub	sp, sp, #8
 3070              		.cfi_def_cfa_offset 16
 3071 0004 00AF     		add	r7, sp, #0
 3072              		.cfi_def_cfa_register 7
 3073 0006 7860     		str	r0, [r7, #4]
1795:Drivers/STM32L4xx_HAL_Driver/Src/stm32l4xx_hal_lptim.c ****   /* Check the parameters */
1796:Drivers/STM32L4xx_HAL_Driver/Src/stm32l4xx_hal_lptim.c ****   assert_param(IS_LPTIM_INSTANCE(hlptim->Instance));
1797:Drivers/STM32L4xx_HAL_Driver/Src/stm32l4xx_hal_lptim.c **** 
1798:Drivers/STM32L4xx_HAL_Driver/Src/stm32l4xx_hal_lptim.c **** 
1799:Drivers/STM32L4xx_HAL_Driver/Src/stm32l4xx_hal_lptim.c ****   /* Disable EXTI Line interrupt on the LPTIM Wake-up Timer */
1800:Drivers/STM32L4xx_HAL_Driver/Src/stm32l4xx_hal_lptim.c ****   __HAL_LPTIM_WAKEUPTIMER_EXTI_DISABLE_IT(hlptim->Instance);
 3074              		.loc 1 1800 3
 3075 0008 7B68     		ldr	r3, [r7, #4]
 3076 000a 1B68     		ldr	r3, [r3]
 3077 000c 1B4A     		ldr	r2, .L131
 3078 000e 9342     		cmp	r3, r2
 3079 0010 06D1     		bne	.L127
 3080              		.loc 1 1800 3 is_stmt 0 discriminator 1
 3081 0012 1B4B     		ldr	r3, .L131+4
 3082 0014 1B6A     		ldr	r3, [r3, #32]
 3083 0016 1A4A     		ldr	r2, .L131+4
 3084 0018 23F00103 		bic	r3, r3, #1
 3085 001c 1362     		str	r3, [r2, #32]
 3086 001e 05E0     		b	.L128
 3087              	.L127:
 3088              		.loc 1 1800 3 discriminator 2
 3089 0020 174B     		ldr	r3, .L131+4
ARM GAS  /tmp/ccB7T7H1.s 			page 86


 3090 0022 1B6A     		ldr	r3, [r3, #32]
 3091 0024 164A     		ldr	r2, .L131+4
 3092 0026 23F00203 		bic	r3, r3, #2
 3093 002a 1362     		str	r3, [r2, #32]
 3094              	.L128:
1801:Drivers/STM32L4xx_HAL_Driver/Src/stm32l4xx_hal_lptim.c **** 
1802:Drivers/STM32L4xx_HAL_Driver/Src/stm32l4xx_hal_lptim.c ****   /* Set the LPTIM state */
1803:Drivers/STM32L4xx_HAL_Driver/Src/stm32l4xx_hal_lptim.c ****   hlptim->State = HAL_LPTIM_STATE_BUSY;
 3095              		.loc 1 1803 17 is_stmt 1
 3096 002c 7B68     		ldr	r3, [r7, #4]
 3097 002e 0222     		movs	r2, #2
 3098 0030 83F83620 		strb	r2, [r3, #54]
1804:Drivers/STM32L4xx_HAL_Driver/Src/stm32l4xx_hal_lptim.c **** 
1805:Drivers/STM32L4xx_HAL_Driver/Src/stm32l4xx_hal_lptim.c ****   /* Disable the Peripheral */
1806:Drivers/STM32L4xx_HAL_Driver/Src/stm32l4xx_hal_lptim.c ****   __HAL_LPTIM_DISABLE(hlptim);
 3099              		.loc 1 1806 3
 3100 0034 7868     		ldr	r0, [r7, #4]
 3101 0036 FFF7FEFF 		bl	LPTIM_Disable
1807:Drivers/STM32L4xx_HAL_Driver/Src/stm32l4xx_hal_lptim.c **** 
1808:Drivers/STM32L4xx_HAL_Driver/Src/stm32l4xx_hal_lptim.c ****   if (HAL_LPTIM_GetState(hlptim) == HAL_LPTIM_STATE_TIMEOUT)
 3102              		.loc 1 1808 7
 3103 003a 7868     		ldr	r0, [r7, #4]
 3104 003c FFF7FEFF 		bl	HAL_LPTIM_GetState
 3105 0040 0346     		mov	r3, r0
 3106              		.loc 1 1808 6 discriminator 1
 3107 0042 032B     		cmp	r3, #3
 3108 0044 01D1     		bne	.L129
1809:Drivers/STM32L4xx_HAL_Driver/Src/stm32l4xx_hal_lptim.c ****   {
1810:Drivers/STM32L4xx_HAL_Driver/Src/stm32l4xx_hal_lptim.c ****     return HAL_TIMEOUT;
 3109              		.loc 1 1810 12
 3110 0046 0323     		movs	r3, #3
 3111 0048 14E0     		b	.L130
 3112              	.L129:
1811:Drivers/STM32L4xx_HAL_Driver/Src/stm32l4xx_hal_lptim.c ****   }
1812:Drivers/STM32L4xx_HAL_Driver/Src/stm32l4xx_hal_lptim.c **** 
1813:Drivers/STM32L4xx_HAL_Driver/Src/stm32l4xx_hal_lptim.c ****   /* Disable Autoreload write complete interrupt */
1814:Drivers/STM32L4xx_HAL_Driver/Src/stm32l4xx_hal_lptim.c ****   __HAL_LPTIM_DISABLE_IT(hlptim, LPTIM_IT_ARROK);
 3113              		.loc 1 1814 3
 3114 004a 7B68     		ldr	r3, [r7, #4]
 3115 004c 1B68     		ldr	r3, [r3]
 3116 004e 9A68     		ldr	r2, [r3, #8]
 3117 0050 7B68     		ldr	r3, [r7, #4]
 3118 0052 1B68     		ldr	r3, [r3]
 3119 0054 22F01002 		bic	r2, r2, #16
 3120 0058 9A60     		str	r2, [r3, #8]
1815:Drivers/STM32L4xx_HAL_Driver/Src/stm32l4xx_hal_lptim.c **** 
1816:Drivers/STM32L4xx_HAL_Driver/Src/stm32l4xx_hal_lptim.c ****   /* Disable Autoreload match interrupt */
1817:Drivers/STM32L4xx_HAL_Driver/Src/stm32l4xx_hal_lptim.c ****   __HAL_LPTIM_DISABLE_IT(hlptim, LPTIM_IT_ARRM);
 3121              		.loc 1 1817 3
 3122 005a 7B68     		ldr	r3, [r7, #4]
 3123 005c 1B68     		ldr	r3, [r3]
 3124 005e 9A68     		ldr	r2, [r3, #8]
 3125 0060 7B68     		ldr	r3, [r7, #4]
 3126 0062 1B68     		ldr	r3, [r3]
 3127 0064 22F00202 		bic	r2, r2, #2
 3128 0068 9A60     		str	r2, [r3, #8]
1818:Drivers/STM32L4xx_HAL_Driver/Src/stm32l4xx_hal_lptim.c **** #if defined(LPTIM_RCR_REP)
ARM GAS  /tmp/ccB7T7H1.s 			page 87


1819:Drivers/STM32L4xx_HAL_Driver/Src/stm32l4xx_hal_lptim.c **** 
1820:Drivers/STM32L4xx_HAL_Driver/Src/stm32l4xx_hal_lptim.c ****   /* Disable Rep Update Ok interrupt */
1821:Drivers/STM32L4xx_HAL_Driver/Src/stm32l4xx_hal_lptim.c ****   __HAL_LPTIM_DISABLE_IT(hlptim, LPTIM_IT_REPOK);
1822:Drivers/STM32L4xx_HAL_Driver/Src/stm32l4xx_hal_lptim.c **** 
1823:Drivers/STM32L4xx_HAL_Driver/Src/stm32l4xx_hal_lptim.c ****   /* Disable Update Event interrupt */
1824:Drivers/STM32L4xx_HAL_Driver/Src/stm32l4xx_hal_lptim.c ****   __HAL_LPTIM_DISABLE_IT(hlptim, LPTIM_IT_UPDATE);
1825:Drivers/STM32L4xx_HAL_Driver/Src/stm32l4xx_hal_lptim.c **** #endif
1826:Drivers/STM32L4xx_HAL_Driver/Src/stm32l4xx_hal_lptim.c ****   /* Change the LPTIM state */
1827:Drivers/STM32L4xx_HAL_Driver/Src/stm32l4xx_hal_lptim.c ****   hlptim->State = HAL_LPTIM_STATE_READY;
 3129              		.loc 1 1827 17
 3130 006a 7B68     		ldr	r3, [r7, #4]
 3131 006c 0122     		movs	r2, #1
 3132 006e 83F83620 		strb	r2, [r3, #54]
1828:Drivers/STM32L4xx_HAL_Driver/Src/stm32l4xx_hal_lptim.c **** 
1829:Drivers/STM32L4xx_HAL_Driver/Src/stm32l4xx_hal_lptim.c ****   /* Return function status */
1830:Drivers/STM32L4xx_HAL_Driver/Src/stm32l4xx_hal_lptim.c ****   return HAL_OK;
 3133              		.loc 1 1830 10
 3134 0072 0023     		movs	r3, #0
 3135              	.L130:
1831:Drivers/STM32L4xx_HAL_Driver/Src/stm32l4xx_hal_lptim.c **** }
 3136              		.loc 1 1831 1
 3137 0074 1846     		mov	r0, r3
 3138 0076 0837     		adds	r7, r7, #8
 3139              		.cfi_def_cfa_offset 8
 3140 0078 BD46     		mov	sp, r7
 3141              		.cfi_def_cfa_register 13
 3142              		@ sp needed
 3143 007a 80BD     		pop	{r7, pc}
 3144              	.L132:
 3145              		.align	2
 3146              	.L131:
 3147 007c 007C0040 		.word	1073773568
 3148 0080 00040140 		.word	1073808384
 3149              		.cfi_endproc
 3150              	.LFE472:
 3152              		.section	.text.HAL_LPTIM_ReadCounter,"ax",%progbits
 3153              		.align	1
 3154              		.global	HAL_LPTIM_ReadCounter
 3155              		.syntax unified
 3156              		.thumb
 3157              		.thumb_func
 3159              	HAL_LPTIM_ReadCounter:
 3160              	.LFB473:
1832:Drivers/STM32L4xx_HAL_Driver/Src/stm32l4xx_hal_lptim.c **** 
1833:Drivers/STM32L4xx_HAL_Driver/Src/stm32l4xx_hal_lptim.c **** /**
1834:Drivers/STM32L4xx_HAL_Driver/Src/stm32l4xx_hal_lptim.c ****   * @}
1835:Drivers/STM32L4xx_HAL_Driver/Src/stm32l4xx_hal_lptim.c ****   */
1836:Drivers/STM32L4xx_HAL_Driver/Src/stm32l4xx_hal_lptim.c **** 
1837:Drivers/STM32L4xx_HAL_Driver/Src/stm32l4xx_hal_lptim.c **** /** @defgroup LPTIM_Exported_Functions_Group3 LPTIM Read operation functions
1838:Drivers/STM32L4xx_HAL_Driver/Src/stm32l4xx_hal_lptim.c ****   *  @brief  Read operation functions.
1839:Drivers/STM32L4xx_HAL_Driver/Src/stm32l4xx_hal_lptim.c ****   *
1840:Drivers/STM32L4xx_HAL_Driver/Src/stm32l4xx_hal_lptim.c **** @verbatim
1841:Drivers/STM32L4xx_HAL_Driver/Src/stm32l4xx_hal_lptim.c ****   ==============================================================================
1842:Drivers/STM32L4xx_HAL_Driver/Src/stm32l4xx_hal_lptim.c ****                   ##### LPTIM Read operation functions #####
1843:Drivers/STM32L4xx_HAL_Driver/Src/stm32l4xx_hal_lptim.c ****   ==============================================================================
1844:Drivers/STM32L4xx_HAL_Driver/Src/stm32l4xx_hal_lptim.c **** [..]  This section provides LPTIM Reading functions.
1845:Drivers/STM32L4xx_HAL_Driver/Src/stm32l4xx_hal_lptim.c ****       (+) Read the counter value.
ARM GAS  /tmp/ccB7T7H1.s 			page 88


1846:Drivers/STM32L4xx_HAL_Driver/Src/stm32l4xx_hal_lptim.c ****       (+) Read the period (Auto-reload) value.
1847:Drivers/STM32L4xx_HAL_Driver/Src/stm32l4xx_hal_lptim.c ****       (+) Read the pulse (Compare)value.
1848:Drivers/STM32L4xx_HAL_Driver/Src/stm32l4xx_hal_lptim.c **** @endverbatim
1849:Drivers/STM32L4xx_HAL_Driver/Src/stm32l4xx_hal_lptim.c ****   * @{
1850:Drivers/STM32L4xx_HAL_Driver/Src/stm32l4xx_hal_lptim.c ****   */
1851:Drivers/STM32L4xx_HAL_Driver/Src/stm32l4xx_hal_lptim.c **** 
1852:Drivers/STM32L4xx_HAL_Driver/Src/stm32l4xx_hal_lptim.c **** /**
1853:Drivers/STM32L4xx_HAL_Driver/Src/stm32l4xx_hal_lptim.c ****   * @brief  Return the current counter value.
1854:Drivers/STM32L4xx_HAL_Driver/Src/stm32l4xx_hal_lptim.c ****   * @param  hlptim LPTIM handle
1855:Drivers/STM32L4xx_HAL_Driver/Src/stm32l4xx_hal_lptim.c ****   * @retval Counter value.
1856:Drivers/STM32L4xx_HAL_Driver/Src/stm32l4xx_hal_lptim.c ****   */
1857:Drivers/STM32L4xx_HAL_Driver/Src/stm32l4xx_hal_lptim.c **** uint32_t HAL_LPTIM_ReadCounter(const LPTIM_HandleTypeDef *hlptim)
1858:Drivers/STM32L4xx_HAL_Driver/Src/stm32l4xx_hal_lptim.c **** {
 3161              		.loc 1 1858 1
 3162              		.cfi_startproc
 3163              		@ args = 0, pretend = 0, frame = 8
 3164              		@ frame_needed = 1, uses_anonymous_args = 0
 3165              		@ link register save eliminated.
 3166 0000 80B4     		push	{r7}
 3167              		.cfi_def_cfa_offset 4
 3168              		.cfi_offset 7, -4
 3169 0002 83B0     		sub	sp, sp, #12
 3170              		.cfi_def_cfa_offset 16
 3171 0004 00AF     		add	r7, sp, #0
 3172              		.cfi_def_cfa_register 7
 3173 0006 7860     		str	r0, [r7, #4]
1859:Drivers/STM32L4xx_HAL_Driver/Src/stm32l4xx_hal_lptim.c ****   /* Check the parameters */
1860:Drivers/STM32L4xx_HAL_Driver/Src/stm32l4xx_hal_lptim.c ****   assert_param(IS_LPTIM_INSTANCE(hlptim->Instance));
1861:Drivers/STM32L4xx_HAL_Driver/Src/stm32l4xx_hal_lptim.c **** 
1862:Drivers/STM32L4xx_HAL_Driver/Src/stm32l4xx_hal_lptim.c ****   return (hlptim->Instance->CNT);
 3174              		.loc 1 1862 17
 3175 0008 7B68     		ldr	r3, [r7, #4]
 3176 000a 1B68     		ldr	r3, [r3]
 3177              		.loc 1 1862 27
 3178 000c DB69     		ldr	r3, [r3, #28]
1863:Drivers/STM32L4xx_HAL_Driver/Src/stm32l4xx_hal_lptim.c **** }
 3179              		.loc 1 1863 1
 3180 000e 1846     		mov	r0, r3
 3181 0010 0C37     		adds	r7, r7, #12
 3182              		.cfi_def_cfa_offset 4
 3183 0012 BD46     		mov	sp, r7
 3184              		.cfi_def_cfa_register 13
 3185              		@ sp needed
 3186 0014 5DF8047B 		ldr	r7, [sp], #4
 3187              		.cfi_restore 7
 3188              		.cfi_def_cfa_offset 0
 3189 0018 7047     		bx	lr
 3190              		.cfi_endproc
 3191              	.LFE473:
 3193              		.section	.text.HAL_LPTIM_ReadAutoReload,"ax",%progbits
 3194              		.align	1
 3195              		.global	HAL_LPTIM_ReadAutoReload
 3196              		.syntax unified
 3197              		.thumb
 3198              		.thumb_func
 3200              	HAL_LPTIM_ReadAutoReload:
 3201              	.LFB474:
ARM GAS  /tmp/ccB7T7H1.s 			page 89


1864:Drivers/STM32L4xx_HAL_Driver/Src/stm32l4xx_hal_lptim.c **** 
1865:Drivers/STM32L4xx_HAL_Driver/Src/stm32l4xx_hal_lptim.c **** /**
1866:Drivers/STM32L4xx_HAL_Driver/Src/stm32l4xx_hal_lptim.c ****   * @brief  Return the current Autoreload (Period) value.
1867:Drivers/STM32L4xx_HAL_Driver/Src/stm32l4xx_hal_lptim.c ****   * @param  hlptim LPTIM handle
1868:Drivers/STM32L4xx_HAL_Driver/Src/stm32l4xx_hal_lptim.c ****   * @retval Autoreload value.
1869:Drivers/STM32L4xx_HAL_Driver/Src/stm32l4xx_hal_lptim.c ****   */
1870:Drivers/STM32L4xx_HAL_Driver/Src/stm32l4xx_hal_lptim.c **** uint32_t HAL_LPTIM_ReadAutoReload(const LPTIM_HandleTypeDef *hlptim)
1871:Drivers/STM32L4xx_HAL_Driver/Src/stm32l4xx_hal_lptim.c **** {
 3202              		.loc 1 1871 1
 3203              		.cfi_startproc
 3204              		@ args = 0, pretend = 0, frame = 8
 3205              		@ frame_needed = 1, uses_anonymous_args = 0
 3206              		@ link register save eliminated.
 3207 0000 80B4     		push	{r7}
 3208              		.cfi_def_cfa_offset 4
 3209              		.cfi_offset 7, -4
 3210 0002 83B0     		sub	sp, sp, #12
 3211              		.cfi_def_cfa_offset 16
 3212 0004 00AF     		add	r7, sp, #0
 3213              		.cfi_def_cfa_register 7
 3214 0006 7860     		str	r0, [r7, #4]
1872:Drivers/STM32L4xx_HAL_Driver/Src/stm32l4xx_hal_lptim.c ****   /* Check the parameters */
1873:Drivers/STM32L4xx_HAL_Driver/Src/stm32l4xx_hal_lptim.c ****   assert_param(IS_LPTIM_INSTANCE(hlptim->Instance));
1874:Drivers/STM32L4xx_HAL_Driver/Src/stm32l4xx_hal_lptim.c **** 
1875:Drivers/STM32L4xx_HAL_Driver/Src/stm32l4xx_hal_lptim.c ****   return (hlptim->Instance->ARR);
 3215              		.loc 1 1875 17
 3216 0008 7B68     		ldr	r3, [r7, #4]
 3217 000a 1B68     		ldr	r3, [r3]
 3218              		.loc 1 1875 27
 3219 000c 9B69     		ldr	r3, [r3, #24]
1876:Drivers/STM32L4xx_HAL_Driver/Src/stm32l4xx_hal_lptim.c **** }
 3220              		.loc 1 1876 1
 3221 000e 1846     		mov	r0, r3
 3222 0010 0C37     		adds	r7, r7, #12
 3223              		.cfi_def_cfa_offset 4
 3224 0012 BD46     		mov	sp, r7
 3225              		.cfi_def_cfa_register 13
 3226              		@ sp needed
 3227 0014 5DF8047B 		ldr	r7, [sp], #4
 3228              		.cfi_restore 7
 3229              		.cfi_def_cfa_offset 0
 3230 0018 7047     		bx	lr
 3231              		.cfi_endproc
 3232              	.LFE474:
 3234              		.section	.text.HAL_LPTIM_ReadCapturedValue,"ax",%progbits
 3235              		.align	1
 3236              		.global	HAL_LPTIM_ReadCapturedValue
 3237              		.syntax unified
 3238              		.thumb
 3239              		.thumb_func
 3241              	HAL_LPTIM_ReadCapturedValue:
 3242              	.LFB475:
1877:Drivers/STM32L4xx_HAL_Driver/Src/stm32l4xx_hal_lptim.c **** 
1878:Drivers/STM32L4xx_HAL_Driver/Src/stm32l4xx_hal_lptim.c **** /**
1879:Drivers/STM32L4xx_HAL_Driver/Src/stm32l4xx_hal_lptim.c ****   * @brief  Return the current Compare (Pulse) value.
1880:Drivers/STM32L4xx_HAL_Driver/Src/stm32l4xx_hal_lptim.c ****   * @param  hlptim LPTIM handle
1881:Drivers/STM32L4xx_HAL_Driver/Src/stm32l4xx_hal_lptim.c ****   * @retval Compare value.
ARM GAS  /tmp/ccB7T7H1.s 			page 90


1882:Drivers/STM32L4xx_HAL_Driver/Src/stm32l4xx_hal_lptim.c ****   */
1883:Drivers/STM32L4xx_HAL_Driver/Src/stm32l4xx_hal_lptim.c **** uint32_t HAL_LPTIM_ReadCompare(const LPTIM_HandleTypeDef *hlptim)
1884:Drivers/STM32L4xx_HAL_Driver/Src/stm32l4xx_hal_lptim.c **** {
 3243              		.loc 1 1884 1
 3244              		.cfi_startproc
 3245              		@ args = 0, pretend = 0, frame = 8
 3246              		@ frame_needed = 1, uses_anonymous_args = 0
 3247              		@ link register save eliminated.
 3248 0000 80B4     		push	{r7}
 3249              		.cfi_def_cfa_offset 4
 3250              		.cfi_offset 7, -4
 3251 0002 83B0     		sub	sp, sp, #12
 3252              		.cfi_def_cfa_offset 16
 3253 0004 00AF     		add	r7, sp, #0
 3254              		.cfi_def_cfa_register 7
 3255 0006 7860     		str	r0, [r7, #4]
1885:Drivers/STM32L4xx_HAL_Driver/Src/stm32l4xx_hal_lptim.c ****   /* Check the parameters */
1886:Drivers/STM32L4xx_HAL_Driver/Src/stm32l4xx_hal_lptim.c ****   assert_param(IS_LPTIM_INSTANCE(hlptim->Instance));
1887:Drivers/STM32L4xx_HAL_Driver/Src/stm32l4xx_hal_lptim.c **** 
1888:Drivers/STM32L4xx_HAL_Driver/Src/stm32l4xx_hal_lptim.c ****   return (hlptim->Instance->CMP);
 3256              		.loc 1 1888 17
 3257 0008 7B68     		ldr	r3, [r7, #4]
 3258 000a 1B68     		ldr	r3, [r3]
 3259              		.loc 1 1888 27
 3260 000c 5B69     		ldr	r3, [r3, #20]
1889:Drivers/STM32L4xx_HAL_Driver/Src/stm32l4xx_hal_lptim.c **** }
 3261              		.loc 1 1889 1
 3262 000e 1846     		mov	r0, r3
 3263 0010 0C37     		adds	r7, r7, #12
 3264              		.cfi_def_cfa_offset 4
 3265 0012 BD46     		mov	sp, r7
 3266              		.cfi_def_cfa_register 13
 3267              		@ sp needed
 3268 0014 5DF8047B 		ldr	r7, [sp], #4
 3269              		.cfi_restore 7
 3270              		.cfi_def_cfa_offset 0
 3271 0018 7047     		bx	lr
 3272              		.cfi_endproc
 3273              	.LFE475:
 3275              		.section	.text.HAL_LPTIM_IRQHandler,"ax",%progbits
 3276              		.align	1
 3277              		.global	HAL_LPTIM_IRQHandler
 3278              		.syntax unified
 3279              		.thumb
 3280              		.thumb_func
 3282              	HAL_LPTIM_IRQHandler:
 3283              	.LFB476:
1890:Drivers/STM32L4xx_HAL_Driver/Src/stm32l4xx_hal_lptim.c **** 
1891:Drivers/STM32L4xx_HAL_Driver/Src/stm32l4xx_hal_lptim.c **** /**
1892:Drivers/STM32L4xx_HAL_Driver/Src/stm32l4xx_hal_lptim.c ****   * @}
1893:Drivers/STM32L4xx_HAL_Driver/Src/stm32l4xx_hal_lptim.c ****   */
1894:Drivers/STM32L4xx_HAL_Driver/Src/stm32l4xx_hal_lptim.c **** 
1895:Drivers/STM32L4xx_HAL_Driver/Src/stm32l4xx_hal_lptim.c **** /** @defgroup LPTIM_Exported_Functions_Group4 LPTIM IRQ handler and callbacks
1896:Drivers/STM32L4xx_HAL_Driver/Src/stm32l4xx_hal_lptim.c ****   *  @brief  LPTIM  IRQ handler.
1897:Drivers/STM32L4xx_HAL_Driver/Src/stm32l4xx_hal_lptim.c ****   *
1898:Drivers/STM32L4xx_HAL_Driver/Src/stm32l4xx_hal_lptim.c **** @verbatim
1899:Drivers/STM32L4xx_HAL_Driver/Src/stm32l4xx_hal_lptim.c ****   ==============================================================================
ARM GAS  /tmp/ccB7T7H1.s 			page 91


1900:Drivers/STM32L4xx_HAL_Driver/Src/stm32l4xx_hal_lptim.c ****                       ##### LPTIM IRQ handler and callbacks  #####
1901:Drivers/STM32L4xx_HAL_Driver/Src/stm32l4xx_hal_lptim.c ****   ==============================================================================
1902:Drivers/STM32L4xx_HAL_Driver/Src/stm32l4xx_hal_lptim.c **** [..]  This section provides LPTIM IRQ handler and callback functions called within
1903:Drivers/STM32L4xx_HAL_Driver/Src/stm32l4xx_hal_lptim.c ****       the IRQ handler:
1904:Drivers/STM32L4xx_HAL_Driver/Src/stm32l4xx_hal_lptim.c ****    (+) LPTIM interrupt request handler
1905:Drivers/STM32L4xx_HAL_Driver/Src/stm32l4xx_hal_lptim.c ****    (+) Compare match Callback
1906:Drivers/STM32L4xx_HAL_Driver/Src/stm32l4xx_hal_lptim.c ****    (+) Auto-reload match Callback
1907:Drivers/STM32L4xx_HAL_Driver/Src/stm32l4xx_hal_lptim.c ****    (+) External trigger event detection Callback
1908:Drivers/STM32L4xx_HAL_Driver/Src/stm32l4xx_hal_lptim.c ****    (+) Compare register write complete Callback
1909:Drivers/STM32L4xx_HAL_Driver/Src/stm32l4xx_hal_lptim.c ****    (+) Auto-reload register write complete Callback
1910:Drivers/STM32L4xx_HAL_Driver/Src/stm32l4xx_hal_lptim.c ****    (+) Up-counting direction change Callback
1911:Drivers/STM32L4xx_HAL_Driver/Src/stm32l4xx_hal_lptim.c ****    (+) Down-counting direction change Callback
1912:Drivers/STM32L4xx_HAL_Driver/Src/stm32l4xx_hal_lptim.c **** 
1913:Drivers/STM32L4xx_HAL_Driver/Src/stm32l4xx_hal_lptim.c **** @endverbatim
1914:Drivers/STM32L4xx_HAL_Driver/Src/stm32l4xx_hal_lptim.c ****   * @{
1915:Drivers/STM32L4xx_HAL_Driver/Src/stm32l4xx_hal_lptim.c ****   */
1916:Drivers/STM32L4xx_HAL_Driver/Src/stm32l4xx_hal_lptim.c **** 
1917:Drivers/STM32L4xx_HAL_Driver/Src/stm32l4xx_hal_lptim.c **** /**
1918:Drivers/STM32L4xx_HAL_Driver/Src/stm32l4xx_hal_lptim.c ****   * @brief  Handle LPTIM interrupt request.
1919:Drivers/STM32L4xx_HAL_Driver/Src/stm32l4xx_hal_lptim.c ****   * @param  hlptim LPTIM handle
1920:Drivers/STM32L4xx_HAL_Driver/Src/stm32l4xx_hal_lptim.c ****   * @retval None
1921:Drivers/STM32L4xx_HAL_Driver/Src/stm32l4xx_hal_lptim.c ****   */
1922:Drivers/STM32L4xx_HAL_Driver/Src/stm32l4xx_hal_lptim.c **** void HAL_LPTIM_IRQHandler(LPTIM_HandleTypeDef *hlptim)
1923:Drivers/STM32L4xx_HAL_Driver/Src/stm32l4xx_hal_lptim.c **** {
 3284              		.loc 1 1923 1
 3285              		.cfi_startproc
 3286              		@ args = 0, pretend = 0, frame = 8
 3287              		@ frame_needed = 1, uses_anonymous_args = 0
 3288 0000 80B5     		push	{r7, lr}
 3289              		.cfi_def_cfa_offset 8
 3290              		.cfi_offset 7, -8
 3291              		.cfi_offset 14, -4
 3292 0002 82B0     		sub	sp, sp, #8
 3293              		.cfi_def_cfa_offset 16
 3294 0004 00AF     		add	r7, sp, #0
 3295              		.cfi_def_cfa_register 7
 3296 0006 7860     		str	r0, [r7, #4]
1924:Drivers/STM32L4xx_HAL_Driver/Src/stm32l4xx_hal_lptim.c ****   /* Compare match interrupt */
1925:Drivers/STM32L4xx_HAL_Driver/Src/stm32l4xx_hal_lptim.c ****   if (__HAL_LPTIM_GET_FLAG(hlptim, LPTIM_FLAG_CMPM) != RESET)
 3297              		.loc 1 1925 7
 3298 0008 7B68     		ldr	r3, [r7, #4]
 3299 000a 1B68     		ldr	r3, [r3]
 3300 000c 1B68     		ldr	r3, [r3]
 3301 000e 03F00103 		and	r3, r3, #1
 3302              		.loc 1 1925 6
 3303 0012 012B     		cmp	r3, #1
 3304 0014 0DD1     		bne	.L140
1926:Drivers/STM32L4xx_HAL_Driver/Src/stm32l4xx_hal_lptim.c ****   {
1927:Drivers/STM32L4xx_HAL_Driver/Src/stm32l4xx_hal_lptim.c ****     if (__HAL_LPTIM_GET_IT_SOURCE(hlptim, LPTIM_IT_CMPM) != RESET)
 3305              		.loc 1 1927 9
 3306 0016 7B68     		ldr	r3, [r7, #4]
 3307 0018 1B68     		ldr	r3, [r3]
 3308 001a 9B68     		ldr	r3, [r3, #8]
 3309 001c 03F00103 		and	r3, r3, #1
 3310              		.loc 1 1927 8
 3311 0020 012B     		cmp	r3, #1
 3312 0022 06D1     		bne	.L140
ARM GAS  /tmp/ccB7T7H1.s 			page 92


1928:Drivers/STM32L4xx_HAL_Driver/Src/stm32l4xx_hal_lptim.c ****     {
1929:Drivers/STM32L4xx_HAL_Driver/Src/stm32l4xx_hal_lptim.c ****       /* Clear Compare match flag */
1930:Drivers/STM32L4xx_HAL_Driver/Src/stm32l4xx_hal_lptim.c ****       __HAL_LPTIM_CLEAR_FLAG(hlptim, LPTIM_FLAG_CMPM);
 3313              		.loc 1 1930 7
 3314 0024 7B68     		ldr	r3, [r7, #4]
 3315 0026 1B68     		ldr	r3, [r3]
 3316 0028 0122     		movs	r2, #1
 3317 002a 5A60     		str	r2, [r3, #4]
1931:Drivers/STM32L4xx_HAL_Driver/Src/stm32l4xx_hal_lptim.c **** 
1932:Drivers/STM32L4xx_HAL_Driver/Src/stm32l4xx_hal_lptim.c ****       /* Compare match Callback */
1933:Drivers/STM32L4xx_HAL_Driver/Src/stm32l4xx_hal_lptim.c **** #if (USE_HAL_LPTIM_REGISTER_CALLBACKS == 1)
1934:Drivers/STM32L4xx_HAL_Driver/Src/stm32l4xx_hal_lptim.c ****       hlptim->CompareMatchCallback(hlptim);
1935:Drivers/STM32L4xx_HAL_Driver/Src/stm32l4xx_hal_lptim.c **** #else
1936:Drivers/STM32L4xx_HAL_Driver/Src/stm32l4xx_hal_lptim.c ****       HAL_LPTIM_CompareMatchCallback(hlptim);
 3318              		.loc 1 1936 7
 3319 002c 7868     		ldr	r0, [r7, #4]
 3320 002e FFF7FEFF 		bl	HAL_LPTIM_CompareMatchCallback
 3321              	.L140:
1937:Drivers/STM32L4xx_HAL_Driver/Src/stm32l4xx_hal_lptim.c **** #endif /* USE_HAL_LPTIM_REGISTER_CALLBACKS */
1938:Drivers/STM32L4xx_HAL_Driver/Src/stm32l4xx_hal_lptim.c ****     }
1939:Drivers/STM32L4xx_HAL_Driver/Src/stm32l4xx_hal_lptim.c ****   }
1940:Drivers/STM32L4xx_HAL_Driver/Src/stm32l4xx_hal_lptim.c **** 
1941:Drivers/STM32L4xx_HAL_Driver/Src/stm32l4xx_hal_lptim.c ****   /* Autoreload match interrupt */
1942:Drivers/STM32L4xx_HAL_Driver/Src/stm32l4xx_hal_lptim.c ****   if (__HAL_LPTIM_GET_FLAG(hlptim, LPTIM_FLAG_ARRM) != RESET)
 3322              		.loc 1 1942 7
 3323 0032 7B68     		ldr	r3, [r7, #4]
 3324 0034 1B68     		ldr	r3, [r3]
 3325 0036 1B68     		ldr	r3, [r3]
 3326 0038 03F00203 		and	r3, r3, #2
 3327              		.loc 1 1942 6
 3328 003c 022B     		cmp	r3, #2
 3329 003e 0DD1     		bne	.L141
1943:Drivers/STM32L4xx_HAL_Driver/Src/stm32l4xx_hal_lptim.c ****   {
1944:Drivers/STM32L4xx_HAL_Driver/Src/stm32l4xx_hal_lptim.c ****     if (__HAL_LPTIM_GET_IT_SOURCE(hlptim, LPTIM_IT_ARRM) != RESET)
 3330              		.loc 1 1944 9
 3331 0040 7B68     		ldr	r3, [r7, #4]
 3332 0042 1B68     		ldr	r3, [r3]
 3333 0044 9B68     		ldr	r3, [r3, #8]
 3334 0046 03F00203 		and	r3, r3, #2
 3335              		.loc 1 1944 8
 3336 004a 022B     		cmp	r3, #2
 3337 004c 06D1     		bne	.L141
1945:Drivers/STM32L4xx_HAL_Driver/Src/stm32l4xx_hal_lptim.c ****     {
1946:Drivers/STM32L4xx_HAL_Driver/Src/stm32l4xx_hal_lptim.c ****       /* Clear Autoreload match flag */
1947:Drivers/STM32L4xx_HAL_Driver/Src/stm32l4xx_hal_lptim.c ****       __HAL_LPTIM_CLEAR_FLAG(hlptim, LPTIM_FLAG_ARRM);
 3338              		.loc 1 1947 7
 3339 004e 7B68     		ldr	r3, [r7, #4]
 3340 0050 1B68     		ldr	r3, [r3]
 3341 0052 0222     		movs	r2, #2
 3342 0054 5A60     		str	r2, [r3, #4]
1948:Drivers/STM32L4xx_HAL_Driver/Src/stm32l4xx_hal_lptim.c **** 
1949:Drivers/STM32L4xx_HAL_Driver/Src/stm32l4xx_hal_lptim.c ****       /* Autoreload match Callback */
1950:Drivers/STM32L4xx_HAL_Driver/Src/stm32l4xx_hal_lptim.c **** #if (USE_HAL_LPTIM_REGISTER_CALLBACKS == 1)
1951:Drivers/STM32L4xx_HAL_Driver/Src/stm32l4xx_hal_lptim.c ****       hlptim->AutoReloadMatchCallback(hlptim);
1952:Drivers/STM32L4xx_HAL_Driver/Src/stm32l4xx_hal_lptim.c **** #else
1953:Drivers/STM32L4xx_HAL_Driver/Src/stm32l4xx_hal_lptim.c ****       HAL_LPTIM_AutoReloadMatchCallback(hlptim);
 3343              		.loc 1 1953 7
ARM GAS  /tmp/ccB7T7H1.s 			page 93


 3344 0056 7868     		ldr	r0, [r7, #4]
 3345 0058 FFF7FEFF 		bl	HAL_LPTIM_AutoReloadMatchCallback
 3346              	.L141:
1954:Drivers/STM32L4xx_HAL_Driver/Src/stm32l4xx_hal_lptim.c **** #endif /* USE_HAL_LPTIM_REGISTER_CALLBACKS */
1955:Drivers/STM32L4xx_HAL_Driver/Src/stm32l4xx_hal_lptim.c ****     }
1956:Drivers/STM32L4xx_HAL_Driver/Src/stm32l4xx_hal_lptim.c ****   }
1957:Drivers/STM32L4xx_HAL_Driver/Src/stm32l4xx_hal_lptim.c **** 
1958:Drivers/STM32L4xx_HAL_Driver/Src/stm32l4xx_hal_lptim.c ****   /* Trigger detected interrupt */
1959:Drivers/STM32L4xx_HAL_Driver/Src/stm32l4xx_hal_lptim.c ****   if (__HAL_LPTIM_GET_FLAG(hlptim, LPTIM_FLAG_EXTTRIG) != RESET)
 3347              		.loc 1 1959 7
 3348 005c 7B68     		ldr	r3, [r7, #4]
 3349 005e 1B68     		ldr	r3, [r3]
 3350 0060 1B68     		ldr	r3, [r3]
 3351 0062 03F00403 		and	r3, r3, #4
 3352              		.loc 1 1959 6
 3353 0066 042B     		cmp	r3, #4
 3354 0068 0DD1     		bne	.L142
1960:Drivers/STM32L4xx_HAL_Driver/Src/stm32l4xx_hal_lptim.c ****   {
1961:Drivers/STM32L4xx_HAL_Driver/Src/stm32l4xx_hal_lptim.c ****     if (__HAL_LPTIM_GET_IT_SOURCE(hlptim, LPTIM_IT_EXTTRIG) != RESET)
 3355              		.loc 1 1961 9
 3356 006a 7B68     		ldr	r3, [r7, #4]
 3357 006c 1B68     		ldr	r3, [r3]
 3358 006e 9B68     		ldr	r3, [r3, #8]
 3359 0070 03F00403 		and	r3, r3, #4
 3360              		.loc 1 1961 8
 3361 0074 042B     		cmp	r3, #4
 3362 0076 06D1     		bne	.L142
1962:Drivers/STM32L4xx_HAL_Driver/Src/stm32l4xx_hal_lptim.c ****     {
1963:Drivers/STM32L4xx_HAL_Driver/Src/stm32l4xx_hal_lptim.c ****       /* Clear Trigger detected flag */
1964:Drivers/STM32L4xx_HAL_Driver/Src/stm32l4xx_hal_lptim.c ****       __HAL_LPTIM_CLEAR_FLAG(hlptim, LPTIM_FLAG_EXTTRIG);
 3363              		.loc 1 1964 7
 3364 0078 7B68     		ldr	r3, [r7, #4]
 3365 007a 1B68     		ldr	r3, [r3]
 3366 007c 0422     		movs	r2, #4
 3367 007e 5A60     		str	r2, [r3, #4]
1965:Drivers/STM32L4xx_HAL_Driver/Src/stm32l4xx_hal_lptim.c **** 
1966:Drivers/STM32L4xx_HAL_Driver/Src/stm32l4xx_hal_lptim.c ****       /* Trigger detected callback */
1967:Drivers/STM32L4xx_HAL_Driver/Src/stm32l4xx_hal_lptim.c **** #if (USE_HAL_LPTIM_REGISTER_CALLBACKS == 1)
1968:Drivers/STM32L4xx_HAL_Driver/Src/stm32l4xx_hal_lptim.c ****       hlptim->TriggerCallback(hlptim);
1969:Drivers/STM32L4xx_HAL_Driver/Src/stm32l4xx_hal_lptim.c **** #else
1970:Drivers/STM32L4xx_HAL_Driver/Src/stm32l4xx_hal_lptim.c ****       HAL_LPTIM_TriggerCallback(hlptim);
 3368              		.loc 1 1970 7
 3369 0080 7868     		ldr	r0, [r7, #4]
 3370 0082 FFF7FEFF 		bl	HAL_LPTIM_TriggerCallback
 3371              	.L142:
1971:Drivers/STM32L4xx_HAL_Driver/Src/stm32l4xx_hal_lptim.c **** #endif /* USE_HAL_LPTIM_REGISTER_CALLBACKS */
1972:Drivers/STM32L4xx_HAL_Driver/Src/stm32l4xx_hal_lptim.c ****     }
1973:Drivers/STM32L4xx_HAL_Driver/Src/stm32l4xx_hal_lptim.c ****   }
1974:Drivers/STM32L4xx_HAL_Driver/Src/stm32l4xx_hal_lptim.c **** 
1975:Drivers/STM32L4xx_HAL_Driver/Src/stm32l4xx_hal_lptim.c ****   /* Compare write interrupt */
1976:Drivers/STM32L4xx_HAL_Driver/Src/stm32l4xx_hal_lptim.c ****   if (__HAL_LPTIM_GET_FLAG(hlptim, LPTIM_FLAG_CMPOK) != RESET)
 3372              		.loc 1 1976 7
 3373 0086 7B68     		ldr	r3, [r7, #4]
 3374 0088 1B68     		ldr	r3, [r3]
 3375 008a 1B68     		ldr	r3, [r3]
 3376 008c 03F00803 		and	r3, r3, #8
 3377              		.loc 1 1976 6
ARM GAS  /tmp/ccB7T7H1.s 			page 94


 3378 0090 082B     		cmp	r3, #8
 3379 0092 0DD1     		bne	.L143
1977:Drivers/STM32L4xx_HAL_Driver/Src/stm32l4xx_hal_lptim.c ****   {
1978:Drivers/STM32L4xx_HAL_Driver/Src/stm32l4xx_hal_lptim.c ****     if (__HAL_LPTIM_GET_IT_SOURCE(hlptim, LPTIM_IT_CMPOK) != RESET)
 3380              		.loc 1 1978 9
 3381 0094 7B68     		ldr	r3, [r7, #4]
 3382 0096 1B68     		ldr	r3, [r3]
 3383 0098 9B68     		ldr	r3, [r3, #8]
 3384 009a 03F00803 		and	r3, r3, #8
 3385              		.loc 1 1978 8
 3386 009e 082B     		cmp	r3, #8
 3387 00a0 06D1     		bne	.L143
1979:Drivers/STM32L4xx_HAL_Driver/Src/stm32l4xx_hal_lptim.c ****     {
1980:Drivers/STM32L4xx_HAL_Driver/Src/stm32l4xx_hal_lptim.c ****       /* Clear Compare write flag */
1981:Drivers/STM32L4xx_HAL_Driver/Src/stm32l4xx_hal_lptim.c ****       __HAL_LPTIM_CLEAR_FLAG(hlptim, LPTIM_FLAG_CMPOK);
 3388              		.loc 1 1981 7
 3389 00a2 7B68     		ldr	r3, [r7, #4]
 3390 00a4 1B68     		ldr	r3, [r3]
 3391 00a6 0822     		movs	r2, #8
 3392 00a8 5A60     		str	r2, [r3, #4]
1982:Drivers/STM32L4xx_HAL_Driver/Src/stm32l4xx_hal_lptim.c **** 
1983:Drivers/STM32L4xx_HAL_Driver/Src/stm32l4xx_hal_lptim.c ****       /* Compare write Callback */
1984:Drivers/STM32L4xx_HAL_Driver/Src/stm32l4xx_hal_lptim.c **** #if (USE_HAL_LPTIM_REGISTER_CALLBACKS == 1)
1985:Drivers/STM32L4xx_HAL_Driver/Src/stm32l4xx_hal_lptim.c ****       hlptim->CompareWriteCallback(hlptim);
1986:Drivers/STM32L4xx_HAL_Driver/Src/stm32l4xx_hal_lptim.c **** #else
1987:Drivers/STM32L4xx_HAL_Driver/Src/stm32l4xx_hal_lptim.c ****       HAL_LPTIM_CompareWriteCallback(hlptim);
 3393              		.loc 1 1987 7
 3394 00aa 7868     		ldr	r0, [r7, #4]
 3395 00ac FFF7FEFF 		bl	HAL_LPTIM_CompareWriteCallback
 3396              	.L143:
1988:Drivers/STM32L4xx_HAL_Driver/Src/stm32l4xx_hal_lptim.c **** #endif /* USE_HAL_LPTIM_REGISTER_CALLBACKS */
1989:Drivers/STM32L4xx_HAL_Driver/Src/stm32l4xx_hal_lptim.c ****     }
1990:Drivers/STM32L4xx_HAL_Driver/Src/stm32l4xx_hal_lptim.c ****   }
1991:Drivers/STM32L4xx_HAL_Driver/Src/stm32l4xx_hal_lptim.c **** 
1992:Drivers/STM32L4xx_HAL_Driver/Src/stm32l4xx_hal_lptim.c ****   /* Autoreload write interrupt */
1993:Drivers/STM32L4xx_HAL_Driver/Src/stm32l4xx_hal_lptim.c ****   if (__HAL_LPTIM_GET_FLAG(hlptim, LPTIM_FLAG_ARROK) != RESET)
 3397              		.loc 1 1993 7
 3398 00b0 7B68     		ldr	r3, [r7, #4]
 3399 00b2 1B68     		ldr	r3, [r3]
 3400 00b4 1B68     		ldr	r3, [r3]
 3401 00b6 03F01003 		and	r3, r3, #16
 3402              		.loc 1 1993 6
 3403 00ba 102B     		cmp	r3, #16
 3404 00bc 0DD1     		bne	.L144
1994:Drivers/STM32L4xx_HAL_Driver/Src/stm32l4xx_hal_lptim.c ****   {
1995:Drivers/STM32L4xx_HAL_Driver/Src/stm32l4xx_hal_lptim.c ****     if (__HAL_LPTIM_GET_IT_SOURCE(hlptim, LPTIM_IT_ARROK) != RESET)
 3405              		.loc 1 1995 9
 3406 00be 7B68     		ldr	r3, [r7, #4]
 3407 00c0 1B68     		ldr	r3, [r3]
 3408 00c2 9B68     		ldr	r3, [r3, #8]
 3409 00c4 03F01003 		and	r3, r3, #16
 3410              		.loc 1 1995 8
 3411 00c8 102B     		cmp	r3, #16
 3412 00ca 06D1     		bne	.L144
1996:Drivers/STM32L4xx_HAL_Driver/Src/stm32l4xx_hal_lptim.c ****     {
1997:Drivers/STM32L4xx_HAL_Driver/Src/stm32l4xx_hal_lptim.c ****       /* Clear Autoreload write flag */
1998:Drivers/STM32L4xx_HAL_Driver/Src/stm32l4xx_hal_lptim.c ****       __HAL_LPTIM_CLEAR_FLAG(hlptim, LPTIM_FLAG_ARROK);
ARM GAS  /tmp/ccB7T7H1.s 			page 95


 3413              		.loc 1 1998 7
 3414 00cc 7B68     		ldr	r3, [r7, #4]
 3415 00ce 1B68     		ldr	r3, [r3]
 3416 00d0 1022     		movs	r2, #16
 3417 00d2 5A60     		str	r2, [r3, #4]
1999:Drivers/STM32L4xx_HAL_Driver/Src/stm32l4xx_hal_lptim.c **** 
2000:Drivers/STM32L4xx_HAL_Driver/Src/stm32l4xx_hal_lptim.c ****       /* Autoreload write Callback */
2001:Drivers/STM32L4xx_HAL_Driver/Src/stm32l4xx_hal_lptim.c **** #if (USE_HAL_LPTIM_REGISTER_CALLBACKS == 1)
2002:Drivers/STM32L4xx_HAL_Driver/Src/stm32l4xx_hal_lptim.c ****       hlptim->AutoReloadWriteCallback(hlptim);
2003:Drivers/STM32L4xx_HAL_Driver/Src/stm32l4xx_hal_lptim.c **** #else
2004:Drivers/STM32L4xx_HAL_Driver/Src/stm32l4xx_hal_lptim.c ****       HAL_LPTIM_AutoReloadWriteCallback(hlptim);
 3418              		.loc 1 2004 7
 3419 00d4 7868     		ldr	r0, [r7, #4]
 3420 00d6 FFF7FEFF 		bl	HAL_LPTIM_AutoReloadWriteCallback
 3421              	.L144:
2005:Drivers/STM32L4xx_HAL_Driver/Src/stm32l4xx_hal_lptim.c **** #endif /* USE_HAL_LPTIM_REGISTER_CALLBACKS */
2006:Drivers/STM32L4xx_HAL_Driver/Src/stm32l4xx_hal_lptim.c ****     }
2007:Drivers/STM32L4xx_HAL_Driver/Src/stm32l4xx_hal_lptim.c ****   }
2008:Drivers/STM32L4xx_HAL_Driver/Src/stm32l4xx_hal_lptim.c **** 
2009:Drivers/STM32L4xx_HAL_Driver/Src/stm32l4xx_hal_lptim.c ****   /* Direction counter changed from Down to Up interrupt */
2010:Drivers/STM32L4xx_HAL_Driver/Src/stm32l4xx_hal_lptim.c ****   if (__HAL_LPTIM_GET_FLAG(hlptim, LPTIM_FLAG_UP) != RESET)
 3422              		.loc 1 2010 7
 3423 00da 7B68     		ldr	r3, [r7, #4]
 3424 00dc 1B68     		ldr	r3, [r3]
 3425 00de 1B68     		ldr	r3, [r3]
 3426 00e0 03F02003 		and	r3, r3, #32
 3427              		.loc 1 2010 6
 3428 00e4 202B     		cmp	r3, #32
 3429 00e6 0DD1     		bne	.L145
2011:Drivers/STM32L4xx_HAL_Driver/Src/stm32l4xx_hal_lptim.c ****   {
2012:Drivers/STM32L4xx_HAL_Driver/Src/stm32l4xx_hal_lptim.c ****     if (__HAL_LPTIM_GET_IT_SOURCE(hlptim, LPTIM_IT_UP) != RESET)
 3430              		.loc 1 2012 9
 3431 00e8 7B68     		ldr	r3, [r7, #4]
 3432 00ea 1B68     		ldr	r3, [r3]
 3433 00ec 9B68     		ldr	r3, [r3, #8]
 3434 00ee 03F02003 		and	r3, r3, #32
 3435              		.loc 1 2012 8
 3436 00f2 202B     		cmp	r3, #32
 3437 00f4 06D1     		bne	.L145
2013:Drivers/STM32L4xx_HAL_Driver/Src/stm32l4xx_hal_lptim.c ****     {
2014:Drivers/STM32L4xx_HAL_Driver/Src/stm32l4xx_hal_lptim.c ****       /* Clear Direction counter changed from Down to Up flag */
2015:Drivers/STM32L4xx_HAL_Driver/Src/stm32l4xx_hal_lptim.c ****       __HAL_LPTIM_CLEAR_FLAG(hlptim, LPTIM_FLAG_UP);
 3438              		.loc 1 2015 7
 3439 00f6 7B68     		ldr	r3, [r7, #4]
 3440 00f8 1B68     		ldr	r3, [r3]
 3441 00fa 2022     		movs	r2, #32
 3442 00fc 5A60     		str	r2, [r3, #4]
2016:Drivers/STM32L4xx_HAL_Driver/Src/stm32l4xx_hal_lptim.c **** 
2017:Drivers/STM32L4xx_HAL_Driver/Src/stm32l4xx_hal_lptim.c ****       /* Direction counter changed from Down to Up Callback */
2018:Drivers/STM32L4xx_HAL_Driver/Src/stm32l4xx_hal_lptim.c **** #if (USE_HAL_LPTIM_REGISTER_CALLBACKS == 1)
2019:Drivers/STM32L4xx_HAL_Driver/Src/stm32l4xx_hal_lptim.c ****       hlptim->DirectionUpCallback(hlptim);
2020:Drivers/STM32L4xx_HAL_Driver/Src/stm32l4xx_hal_lptim.c **** #else
2021:Drivers/STM32L4xx_HAL_Driver/Src/stm32l4xx_hal_lptim.c ****       HAL_LPTIM_DirectionUpCallback(hlptim);
 3443              		.loc 1 2021 7
 3444 00fe 7868     		ldr	r0, [r7, #4]
 3445 0100 FFF7FEFF 		bl	HAL_LPTIM_DirectionUpCallback
 3446              	.L145:
ARM GAS  /tmp/ccB7T7H1.s 			page 96


2022:Drivers/STM32L4xx_HAL_Driver/Src/stm32l4xx_hal_lptim.c **** #endif /* USE_HAL_LPTIM_REGISTER_CALLBACKS */
2023:Drivers/STM32L4xx_HAL_Driver/Src/stm32l4xx_hal_lptim.c ****     }
2024:Drivers/STM32L4xx_HAL_Driver/Src/stm32l4xx_hal_lptim.c ****   }
2025:Drivers/STM32L4xx_HAL_Driver/Src/stm32l4xx_hal_lptim.c **** 
2026:Drivers/STM32L4xx_HAL_Driver/Src/stm32l4xx_hal_lptim.c ****   /* Direction counter changed from Up to Down interrupt */
2027:Drivers/STM32L4xx_HAL_Driver/Src/stm32l4xx_hal_lptim.c ****   if (__HAL_LPTIM_GET_FLAG(hlptim, LPTIM_FLAG_DOWN) != RESET)
 3447              		.loc 1 2027 7
 3448 0104 7B68     		ldr	r3, [r7, #4]
 3449 0106 1B68     		ldr	r3, [r3]
 3450 0108 1B68     		ldr	r3, [r3]
 3451 010a 03F04003 		and	r3, r3, #64
 3452              		.loc 1 2027 6
 3453 010e 402B     		cmp	r3, #64
 3454 0110 0DD1     		bne	.L147
2028:Drivers/STM32L4xx_HAL_Driver/Src/stm32l4xx_hal_lptim.c ****   {
2029:Drivers/STM32L4xx_HAL_Driver/Src/stm32l4xx_hal_lptim.c ****     if (__HAL_LPTIM_GET_IT_SOURCE(hlptim, LPTIM_IT_DOWN) != RESET)
 3455              		.loc 1 2029 9
 3456 0112 7B68     		ldr	r3, [r7, #4]
 3457 0114 1B68     		ldr	r3, [r3]
 3458 0116 9B68     		ldr	r3, [r3, #8]
 3459 0118 03F04003 		and	r3, r3, #64
 3460              		.loc 1 2029 8
 3461 011c 402B     		cmp	r3, #64
 3462 011e 06D1     		bne	.L147
2030:Drivers/STM32L4xx_HAL_Driver/Src/stm32l4xx_hal_lptim.c ****     {
2031:Drivers/STM32L4xx_HAL_Driver/Src/stm32l4xx_hal_lptim.c ****       /* Clear Direction counter changed from Up to Down flag */
2032:Drivers/STM32L4xx_HAL_Driver/Src/stm32l4xx_hal_lptim.c ****       __HAL_LPTIM_CLEAR_FLAG(hlptim, LPTIM_FLAG_DOWN);
 3463              		.loc 1 2032 7
 3464 0120 7B68     		ldr	r3, [r7, #4]
 3465 0122 1B68     		ldr	r3, [r3]
 3466 0124 4022     		movs	r2, #64
 3467 0126 5A60     		str	r2, [r3, #4]
2033:Drivers/STM32L4xx_HAL_Driver/Src/stm32l4xx_hal_lptim.c **** 
2034:Drivers/STM32L4xx_HAL_Driver/Src/stm32l4xx_hal_lptim.c ****       /* Direction counter changed from Up to Down Callback */
2035:Drivers/STM32L4xx_HAL_Driver/Src/stm32l4xx_hal_lptim.c **** #if (USE_HAL_LPTIM_REGISTER_CALLBACKS == 1)
2036:Drivers/STM32L4xx_HAL_Driver/Src/stm32l4xx_hal_lptim.c ****       hlptim->DirectionDownCallback(hlptim);
2037:Drivers/STM32L4xx_HAL_Driver/Src/stm32l4xx_hal_lptim.c **** #else
2038:Drivers/STM32L4xx_HAL_Driver/Src/stm32l4xx_hal_lptim.c ****       HAL_LPTIM_DirectionDownCallback(hlptim);
 3468              		.loc 1 2038 7
 3469 0128 7868     		ldr	r0, [r7, #4]
 3470 012a FFF7FEFF 		bl	HAL_LPTIM_DirectionDownCallback
 3471              	.L147:
2039:Drivers/STM32L4xx_HAL_Driver/Src/stm32l4xx_hal_lptim.c **** #endif /* USE_HAL_LPTIM_REGISTER_CALLBACKS */
2040:Drivers/STM32L4xx_HAL_Driver/Src/stm32l4xx_hal_lptim.c ****     }
2041:Drivers/STM32L4xx_HAL_Driver/Src/stm32l4xx_hal_lptim.c ****   }
2042:Drivers/STM32L4xx_HAL_Driver/Src/stm32l4xx_hal_lptim.c **** #if defined(LPTIM_RCR_REP)
2043:Drivers/STM32L4xx_HAL_Driver/Src/stm32l4xx_hal_lptim.c **** 
2044:Drivers/STM32L4xx_HAL_Driver/Src/stm32l4xx_hal_lptim.c ****   /* Repetition counter underflowed (or contains zero) and the LPTIM counter
2045:Drivers/STM32L4xx_HAL_Driver/Src/stm32l4xx_hal_lptim.c ****      overflowed */
2046:Drivers/STM32L4xx_HAL_Driver/Src/stm32l4xx_hal_lptim.c ****   if (__HAL_LPTIM_GET_FLAG(hlptim, LPTIM_FLAG_UPDATE) != RESET)
2047:Drivers/STM32L4xx_HAL_Driver/Src/stm32l4xx_hal_lptim.c ****   {
2048:Drivers/STM32L4xx_HAL_Driver/Src/stm32l4xx_hal_lptim.c ****     if (__HAL_LPTIM_GET_IT_SOURCE(hlptim, LPTIM_IT_UPDATE) != RESET)
2049:Drivers/STM32L4xx_HAL_Driver/Src/stm32l4xx_hal_lptim.c ****     {
2050:Drivers/STM32L4xx_HAL_Driver/Src/stm32l4xx_hal_lptim.c ****       /* Clear update event flag */
2051:Drivers/STM32L4xx_HAL_Driver/Src/stm32l4xx_hal_lptim.c ****       __HAL_LPTIM_CLEAR_FLAG(hlptim, LPTIM_FLAG_UPDATE);
2052:Drivers/STM32L4xx_HAL_Driver/Src/stm32l4xx_hal_lptim.c **** 
2053:Drivers/STM32L4xx_HAL_Driver/Src/stm32l4xx_hal_lptim.c ****       /* Update event Callback */
ARM GAS  /tmp/ccB7T7H1.s 			page 97


2054:Drivers/STM32L4xx_HAL_Driver/Src/stm32l4xx_hal_lptim.c **** #if (USE_HAL_LPTIM_REGISTER_CALLBACKS == 1)
2055:Drivers/STM32L4xx_HAL_Driver/Src/stm32l4xx_hal_lptim.c ****       hlptim->UpdateEventCallback(hlptim);
2056:Drivers/STM32L4xx_HAL_Driver/Src/stm32l4xx_hal_lptim.c **** #else
2057:Drivers/STM32L4xx_HAL_Driver/Src/stm32l4xx_hal_lptim.c ****       HAL_LPTIM_UpdateEventCallback(hlptim);
2058:Drivers/STM32L4xx_HAL_Driver/Src/stm32l4xx_hal_lptim.c **** #endif /* USE_HAL_LPTIM_REGISTER_CALLBACKS */
2059:Drivers/STM32L4xx_HAL_Driver/Src/stm32l4xx_hal_lptim.c ****     }
2060:Drivers/STM32L4xx_HAL_Driver/Src/stm32l4xx_hal_lptim.c ****   }
2061:Drivers/STM32L4xx_HAL_Driver/Src/stm32l4xx_hal_lptim.c **** 
2062:Drivers/STM32L4xx_HAL_Driver/Src/stm32l4xx_hal_lptim.c ****   /* Successful APB bus write to repetition counter register */
2063:Drivers/STM32L4xx_HAL_Driver/Src/stm32l4xx_hal_lptim.c ****   if (__HAL_LPTIM_GET_FLAG(hlptim, LPTIM_FLAG_REPOK) != RESET)
2064:Drivers/STM32L4xx_HAL_Driver/Src/stm32l4xx_hal_lptim.c ****   {
2065:Drivers/STM32L4xx_HAL_Driver/Src/stm32l4xx_hal_lptim.c ****     if (__HAL_LPTIM_GET_IT_SOURCE(hlptim, LPTIM_IT_REPOK) != RESET)
2066:Drivers/STM32L4xx_HAL_Driver/Src/stm32l4xx_hal_lptim.c ****     {
2067:Drivers/STM32L4xx_HAL_Driver/Src/stm32l4xx_hal_lptim.c ****       /* Clear successful APB bus write to repetition counter flag */
2068:Drivers/STM32L4xx_HAL_Driver/Src/stm32l4xx_hal_lptim.c ****       __HAL_LPTIM_CLEAR_FLAG(hlptim, LPTIM_FLAG_REPOK);
2069:Drivers/STM32L4xx_HAL_Driver/Src/stm32l4xx_hal_lptim.c **** 
2070:Drivers/STM32L4xx_HAL_Driver/Src/stm32l4xx_hal_lptim.c ****       /* Successful APB bus write to repetition counter Callback */
2071:Drivers/STM32L4xx_HAL_Driver/Src/stm32l4xx_hal_lptim.c **** #if (USE_HAL_LPTIM_REGISTER_CALLBACKS == 1)
2072:Drivers/STM32L4xx_HAL_Driver/Src/stm32l4xx_hal_lptim.c ****       hlptim->RepCounterWriteCallback(hlptim);
2073:Drivers/STM32L4xx_HAL_Driver/Src/stm32l4xx_hal_lptim.c **** #else
2074:Drivers/STM32L4xx_HAL_Driver/Src/stm32l4xx_hal_lptim.c ****       HAL_LPTIM_RepCounterWriteCallback(hlptim);
2075:Drivers/STM32L4xx_HAL_Driver/Src/stm32l4xx_hal_lptim.c **** #endif /* USE_HAL_LPTIM_REGISTER_CALLBACKS */
2076:Drivers/STM32L4xx_HAL_Driver/Src/stm32l4xx_hal_lptim.c ****     }
2077:Drivers/STM32L4xx_HAL_Driver/Src/stm32l4xx_hal_lptim.c ****   }
2078:Drivers/STM32L4xx_HAL_Driver/Src/stm32l4xx_hal_lptim.c **** #endif
2079:Drivers/STM32L4xx_HAL_Driver/Src/stm32l4xx_hal_lptim.c **** }
 3472              		.loc 1 2079 1
 3473 012e 00BF     		nop
 3474 0130 0837     		adds	r7, r7, #8
 3475              		.cfi_def_cfa_offset 8
 3476 0132 BD46     		mov	sp, r7
 3477              		.cfi_def_cfa_register 13
 3478              		@ sp needed
 3479 0134 80BD     		pop	{r7, pc}
 3480              		.cfi_endproc
 3481              	.LFE476:
 3483              		.section	.text.HAL_LPTIM_CompareMatchCallback,"ax",%progbits
 3484              		.align	1
 3485              		.weak	HAL_LPTIM_CompareMatchCallback
 3486              		.syntax unified
 3487              		.thumb
 3488              		.thumb_func
 3490              	HAL_LPTIM_CompareMatchCallback:
 3491              	.LFB477:
2080:Drivers/STM32L4xx_HAL_Driver/Src/stm32l4xx_hal_lptim.c **** 
2081:Drivers/STM32L4xx_HAL_Driver/Src/stm32l4xx_hal_lptim.c **** /**
2082:Drivers/STM32L4xx_HAL_Driver/Src/stm32l4xx_hal_lptim.c ****   * @brief  Compare match callback in non-blocking mode.
2083:Drivers/STM32L4xx_HAL_Driver/Src/stm32l4xx_hal_lptim.c ****   * @param  hlptim LPTIM handle
2084:Drivers/STM32L4xx_HAL_Driver/Src/stm32l4xx_hal_lptim.c ****   * @retval None
2085:Drivers/STM32L4xx_HAL_Driver/Src/stm32l4xx_hal_lptim.c ****   */
2086:Drivers/STM32L4xx_HAL_Driver/Src/stm32l4xx_hal_lptim.c **** __weak void HAL_LPTIM_CompareMatchCallback(LPTIM_HandleTypeDef *hlptim)
2087:Drivers/STM32L4xx_HAL_Driver/Src/stm32l4xx_hal_lptim.c **** {
 3492              		.loc 1 2087 1
 3493              		.cfi_startproc
 3494              		@ args = 0, pretend = 0, frame = 8
 3495              		@ frame_needed = 1, uses_anonymous_args = 0
 3496              		@ link register save eliminated.
ARM GAS  /tmp/ccB7T7H1.s 			page 98


 3497 0000 80B4     		push	{r7}
 3498              		.cfi_def_cfa_offset 4
 3499              		.cfi_offset 7, -4
 3500 0002 83B0     		sub	sp, sp, #12
 3501              		.cfi_def_cfa_offset 16
 3502 0004 00AF     		add	r7, sp, #0
 3503              		.cfi_def_cfa_register 7
 3504 0006 7860     		str	r0, [r7, #4]
2088:Drivers/STM32L4xx_HAL_Driver/Src/stm32l4xx_hal_lptim.c ****   /* Prevent unused argument(s) compilation warning */
2089:Drivers/STM32L4xx_HAL_Driver/Src/stm32l4xx_hal_lptim.c ****   UNUSED(hlptim);
2090:Drivers/STM32L4xx_HAL_Driver/Src/stm32l4xx_hal_lptim.c **** 
2091:Drivers/STM32L4xx_HAL_Driver/Src/stm32l4xx_hal_lptim.c ****   /* NOTE : This function should not be modified, when the callback is needed,
2092:Drivers/STM32L4xx_HAL_Driver/Src/stm32l4xx_hal_lptim.c ****             the HAL_LPTIM_CompareMatchCallback could be implemented in the user file
2093:Drivers/STM32L4xx_HAL_Driver/Src/stm32l4xx_hal_lptim.c ****    */
2094:Drivers/STM32L4xx_HAL_Driver/Src/stm32l4xx_hal_lptim.c **** }
 3505              		.loc 1 2094 1
 3506 0008 00BF     		nop
 3507 000a 0C37     		adds	r7, r7, #12
 3508              		.cfi_def_cfa_offset 4
 3509 000c BD46     		mov	sp, r7
 3510              		.cfi_def_cfa_register 13
 3511              		@ sp needed
 3512 000e 5DF8047B 		ldr	r7, [sp], #4
 3513              		.cfi_restore 7
 3514              		.cfi_def_cfa_offset 0
 3515 0012 7047     		bx	lr
 3516              		.cfi_endproc
 3517              	.LFE477:
 3519              		.section	.text.HAL_LPTIM_AutoReloadMatchCallback,"ax",%progbits
 3520              		.align	1
 3521              		.weak	HAL_LPTIM_AutoReloadMatchCallback
 3522              		.syntax unified
 3523              		.thumb
 3524              		.thumb_func
 3526              	HAL_LPTIM_AutoReloadMatchCallback:
 3527              	.LFB478:
2095:Drivers/STM32L4xx_HAL_Driver/Src/stm32l4xx_hal_lptim.c **** 
2096:Drivers/STM32L4xx_HAL_Driver/Src/stm32l4xx_hal_lptim.c **** /**
2097:Drivers/STM32L4xx_HAL_Driver/Src/stm32l4xx_hal_lptim.c ****   * @brief  Autoreload match callback in non-blocking mode.
2098:Drivers/STM32L4xx_HAL_Driver/Src/stm32l4xx_hal_lptim.c ****   * @param  hlptim LPTIM handle
2099:Drivers/STM32L4xx_HAL_Driver/Src/stm32l4xx_hal_lptim.c ****   * @retval None
2100:Drivers/STM32L4xx_HAL_Driver/Src/stm32l4xx_hal_lptim.c ****   */
2101:Drivers/STM32L4xx_HAL_Driver/Src/stm32l4xx_hal_lptim.c **** __weak void HAL_LPTIM_AutoReloadMatchCallback(LPTIM_HandleTypeDef *hlptim)
2102:Drivers/STM32L4xx_HAL_Driver/Src/stm32l4xx_hal_lptim.c **** {
 3528              		.loc 1 2102 1
 3529              		.cfi_startproc
 3530              		@ args = 0, pretend = 0, frame = 8
 3531              		@ frame_needed = 1, uses_anonymous_args = 0
 3532              		@ link register save eliminated.
 3533 0000 80B4     		push	{r7}
 3534              		.cfi_def_cfa_offset 4
 3535              		.cfi_offset 7, -4
 3536 0002 83B0     		sub	sp, sp, #12
 3537              		.cfi_def_cfa_offset 16
 3538 0004 00AF     		add	r7, sp, #0
 3539              		.cfi_def_cfa_register 7
 3540 0006 7860     		str	r0, [r7, #4]
ARM GAS  /tmp/ccB7T7H1.s 			page 99


2103:Drivers/STM32L4xx_HAL_Driver/Src/stm32l4xx_hal_lptim.c ****   /* Prevent unused argument(s) compilation warning */
2104:Drivers/STM32L4xx_HAL_Driver/Src/stm32l4xx_hal_lptim.c ****   UNUSED(hlptim);
2105:Drivers/STM32L4xx_HAL_Driver/Src/stm32l4xx_hal_lptim.c **** 
2106:Drivers/STM32L4xx_HAL_Driver/Src/stm32l4xx_hal_lptim.c ****   /* NOTE : This function should not be modified, when the callback is needed,
2107:Drivers/STM32L4xx_HAL_Driver/Src/stm32l4xx_hal_lptim.c ****             the HAL_LPTIM_AutoReloadMatchCallback could be implemented in the user file
2108:Drivers/STM32L4xx_HAL_Driver/Src/stm32l4xx_hal_lptim.c ****    */
2109:Drivers/STM32L4xx_HAL_Driver/Src/stm32l4xx_hal_lptim.c **** }
 3541              		.loc 1 2109 1
 3542 0008 00BF     		nop
 3543 000a 0C37     		adds	r7, r7, #12
 3544              		.cfi_def_cfa_offset 4
 3545 000c BD46     		mov	sp, r7
 3546              		.cfi_def_cfa_register 13
 3547              		@ sp needed
 3548 000e 5DF8047B 		ldr	r7, [sp], #4
 3549              		.cfi_restore 7
 3550              		.cfi_def_cfa_offset 0
 3551 0012 7047     		bx	lr
 3552              		.cfi_endproc
 3553              	.LFE478:
 3555              		.section	.text.HAL_LPTIM_TriggerCallback,"ax",%progbits
 3556              		.align	1
 3557              		.weak	HAL_LPTIM_TriggerCallback
 3558              		.syntax unified
 3559              		.thumb
 3560              		.thumb_func
 3562              	HAL_LPTIM_TriggerCallback:
 3563              	.LFB479:
2110:Drivers/STM32L4xx_HAL_Driver/Src/stm32l4xx_hal_lptim.c **** 
2111:Drivers/STM32L4xx_HAL_Driver/Src/stm32l4xx_hal_lptim.c **** /**
2112:Drivers/STM32L4xx_HAL_Driver/Src/stm32l4xx_hal_lptim.c ****   * @brief  Trigger detected callback in non-blocking mode.
2113:Drivers/STM32L4xx_HAL_Driver/Src/stm32l4xx_hal_lptim.c ****   * @param  hlptim LPTIM handle
2114:Drivers/STM32L4xx_HAL_Driver/Src/stm32l4xx_hal_lptim.c ****   * @retval None
2115:Drivers/STM32L4xx_HAL_Driver/Src/stm32l4xx_hal_lptim.c ****   */
2116:Drivers/STM32L4xx_HAL_Driver/Src/stm32l4xx_hal_lptim.c **** __weak void HAL_LPTIM_TriggerCallback(LPTIM_HandleTypeDef *hlptim)
2117:Drivers/STM32L4xx_HAL_Driver/Src/stm32l4xx_hal_lptim.c **** {
 3564              		.loc 1 2117 1
 3565              		.cfi_startproc
 3566              		@ args = 0, pretend = 0, frame = 8
 3567              		@ frame_needed = 1, uses_anonymous_args = 0
 3568              		@ link register save eliminated.
 3569 0000 80B4     		push	{r7}
 3570              		.cfi_def_cfa_offset 4
 3571              		.cfi_offset 7, -4
 3572 0002 83B0     		sub	sp, sp, #12
 3573              		.cfi_def_cfa_offset 16
 3574 0004 00AF     		add	r7, sp, #0
 3575              		.cfi_def_cfa_register 7
 3576 0006 7860     		str	r0, [r7, #4]
2118:Drivers/STM32L4xx_HAL_Driver/Src/stm32l4xx_hal_lptim.c ****   /* Prevent unused argument(s) compilation warning */
2119:Drivers/STM32L4xx_HAL_Driver/Src/stm32l4xx_hal_lptim.c ****   UNUSED(hlptim);
2120:Drivers/STM32L4xx_HAL_Driver/Src/stm32l4xx_hal_lptim.c **** 
2121:Drivers/STM32L4xx_HAL_Driver/Src/stm32l4xx_hal_lptim.c ****   /* NOTE : This function should not be modified, when the callback is needed,
2122:Drivers/STM32L4xx_HAL_Driver/Src/stm32l4xx_hal_lptim.c ****             the HAL_LPTIM_TriggerCallback could be implemented in the user file
2123:Drivers/STM32L4xx_HAL_Driver/Src/stm32l4xx_hal_lptim.c ****    */
2124:Drivers/STM32L4xx_HAL_Driver/Src/stm32l4xx_hal_lptim.c **** }
 3577              		.loc 1 2124 1
ARM GAS  /tmp/ccB7T7H1.s 			page 100


 3578 0008 00BF     		nop
 3579 000a 0C37     		adds	r7, r7, #12
 3580              		.cfi_def_cfa_offset 4
 3581 000c BD46     		mov	sp, r7
 3582              		.cfi_def_cfa_register 13
 3583              		@ sp needed
 3584 000e 5DF8047B 		ldr	r7, [sp], #4
 3585              		.cfi_restore 7
 3586              		.cfi_def_cfa_offset 0
 3587 0012 7047     		bx	lr
 3588              		.cfi_endproc
 3589              	.LFE479:
 3591              		.section	.text.HAL_LPTIM_CompareWriteCallback,"ax",%progbits
 3592              		.align	1
 3593              		.weak	HAL_LPTIM_CompareWriteCallback
 3594              		.syntax unified
 3595              		.thumb
 3596              		.thumb_func
 3598              	HAL_LPTIM_CompareWriteCallback:
 3599              	.LFB480:
2125:Drivers/STM32L4xx_HAL_Driver/Src/stm32l4xx_hal_lptim.c **** 
2126:Drivers/STM32L4xx_HAL_Driver/Src/stm32l4xx_hal_lptim.c **** /**
2127:Drivers/STM32L4xx_HAL_Driver/Src/stm32l4xx_hal_lptim.c ****   * @brief  Compare write callback in non-blocking mode.
2128:Drivers/STM32L4xx_HAL_Driver/Src/stm32l4xx_hal_lptim.c ****   * @param  hlptim LPTIM handle
2129:Drivers/STM32L4xx_HAL_Driver/Src/stm32l4xx_hal_lptim.c ****   * @retval None
2130:Drivers/STM32L4xx_HAL_Driver/Src/stm32l4xx_hal_lptim.c ****   */
2131:Drivers/STM32L4xx_HAL_Driver/Src/stm32l4xx_hal_lptim.c **** __weak void HAL_LPTIM_CompareWriteCallback(LPTIM_HandleTypeDef *hlptim)
2132:Drivers/STM32L4xx_HAL_Driver/Src/stm32l4xx_hal_lptim.c **** {
 3600              		.loc 1 2132 1
 3601              		.cfi_startproc
 3602              		@ args = 0, pretend = 0, frame = 8
 3603              		@ frame_needed = 1, uses_anonymous_args = 0
 3604              		@ link register save eliminated.
 3605 0000 80B4     		push	{r7}
 3606              		.cfi_def_cfa_offset 4
 3607              		.cfi_offset 7, -4
 3608 0002 83B0     		sub	sp, sp, #12
 3609              		.cfi_def_cfa_offset 16
 3610 0004 00AF     		add	r7, sp, #0
 3611              		.cfi_def_cfa_register 7
 3612 0006 7860     		str	r0, [r7, #4]
2133:Drivers/STM32L4xx_HAL_Driver/Src/stm32l4xx_hal_lptim.c ****   /* Prevent unused argument(s) compilation warning */
2134:Drivers/STM32L4xx_HAL_Driver/Src/stm32l4xx_hal_lptim.c ****   UNUSED(hlptim);
2135:Drivers/STM32L4xx_HAL_Driver/Src/stm32l4xx_hal_lptim.c **** 
2136:Drivers/STM32L4xx_HAL_Driver/Src/stm32l4xx_hal_lptim.c ****   /* NOTE : This function should not be modified, when the callback is needed,
2137:Drivers/STM32L4xx_HAL_Driver/Src/stm32l4xx_hal_lptim.c ****             the HAL_LPTIM_CompareWriteCallback could be implemented in the user file
2138:Drivers/STM32L4xx_HAL_Driver/Src/stm32l4xx_hal_lptim.c ****    */
2139:Drivers/STM32L4xx_HAL_Driver/Src/stm32l4xx_hal_lptim.c **** }
 3613              		.loc 1 2139 1
 3614 0008 00BF     		nop
 3615 000a 0C37     		adds	r7, r7, #12
 3616              		.cfi_def_cfa_offset 4
 3617 000c BD46     		mov	sp, r7
 3618              		.cfi_def_cfa_register 13
 3619              		@ sp needed
 3620 000e 5DF8047B 		ldr	r7, [sp], #4
 3621              		.cfi_restore 7
ARM GAS  /tmp/ccB7T7H1.s 			page 101


 3622              		.cfi_def_cfa_offset 0
 3623 0012 7047     		bx	lr
 3624              		.cfi_endproc
 3625              	.LFE480:
 3627              		.section	.text.HAL_LPTIM_AutoReloadWriteCallback,"ax",%progbits
 3628              		.align	1
 3629              		.weak	HAL_LPTIM_AutoReloadWriteCallback
 3630              		.syntax unified
 3631              		.thumb
 3632              		.thumb_func
 3634              	HAL_LPTIM_AutoReloadWriteCallback:
 3635              	.LFB481:
2140:Drivers/STM32L4xx_HAL_Driver/Src/stm32l4xx_hal_lptim.c **** 
2141:Drivers/STM32L4xx_HAL_Driver/Src/stm32l4xx_hal_lptim.c **** /**
2142:Drivers/STM32L4xx_HAL_Driver/Src/stm32l4xx_hal_lptim.c ****   * @brief  Autoreload write callback in non-blocking mode.
2143:Drivers/STM32L4xx_HAL_Driver/Src/stm32l4xx_hal_lptim.c ****   * @param  hlptim LPTIM handle
2144:Drivers/STM32L4xx_HAL_Driver/Src/stm32l4xx_hal_lptim.c ****   * @retval None
2145:Drivers/STM32L4xx_HAL_Driver/Src/stm32l4xx_hal_lptim.c ****   */
2146:Drivers/STM32L4xx_HAL_Driver/Src/stm32l4xx_hal_lptim.c **** __weak void HAL_LPTIM_AutoReloadWriteCallback(LPTIM_HandleTypeDef *hlptim)
2147:Drivers/STM32L4xx_HAL_Driver/Src/stm32l4xx_hal_lptim.c **** {
 3636              		.loc 1 2147 1
 3637              		.cfi_startproc
 3638              		@ args = 0, pretend = 0, frame = 8
 3639              		@ frame_needed = 1, uses_anonymous_args = 0
 3640              		@ link register save eliminated.
 3641 0000 80B4     		push	{r7}
 3642              		.cfi_def_cfa_offset 4
 3643              		.cfi_offset 7, -4
 3644 0002 83B0     		sub	sp, sp, #12
 3645              		.cfi_def_cfa_offset 16
 3646 0004 00AF     		add	r7, sp, #0
 3647              		.cfi_def_cfa_register 7
 3648 0006 7860     		str	r0, [r7, #4]
2148:Drivers/STM32L4xx_HAL_Driver/Src/stm32l4xx_hal_lptim.c ****   /* Prevent unused argument(s) compilation warning */
2149:Drivers/STM32L4xx_HAL_Driver/Src/stm32l4xx_hal_lptim.c ****   UNUSED(hlptim);
2150:Drivers/STM32L4xx_HAL_Driver/Src/stm32l4xx_hal_lptim.c **** 
2151:Drivers/STM32L4xx_HAL_Driver/Src/stm32l4xx_hal_lptim.c ****   /* NOTE : This function should not be modified, when the callback is needed,
2152:Drivers/STM32L4xx_HAL_Driver/Src/stm32l4xx_hal_lptim.c ****             the HAL_LPTIM_AutoReloadWriteCallback could be implemented in the user file
2153:Drivers/STM32L4xx_HAL_Driver/Src/stm32l4xx_hal_lptim.c ****    */
2154:Drivers/STM32L4xx_HAL_Driver/Src/stm32l4xx_hal_lptim.c **** }
 3649              		.loc 1 2154 1
 3650 0008 00BF     		nop
 3651 000a 0C37     		adds	r7, r7, #12
 3652              		.cfi_def_cfa_offset 4
 3653 000c BD46     		mov	sp, r7
 3654              		.cfi_def_cfa_register 13
 3655              		@ sp needed
 3656 000e 5DF8047B 		ldr	r7, [sp], #4
 3657              		.cfi_restore 7
 3658              		.cfi_def_cfa_offset 0
 3659 0012 7047     		bx	lr
 3660              		.cfi_endproc
 3661              	.LFE481:
 3663              		.section	.text.HAL_LPTIM_DirectionUpCallback,"ax",%progbits
 3664              		.align	1
 3665              		.weak	HAL_LPTIM_DirectionUpCallback
 3666              		.syntax unified
ARM GAS  /tmp/ccB7T7H1.s 			page 102


 3667              		.thumb
 3668              		.thumb_func
 3670              	HAL_LPTIM_DirectionUpCallback:
 3671              	.LFB482:
2155:Drivers/STM32L4xx_HAL_Driver/Src/stm32l4xx_hal_lptim.c **** 
2156:Drivers/STM32L4xx_HAL_Driver/Src/stm32l4xx_hal_lptim.c **** /**
2157:Drivers/STM32L4xx_HAL_Driver/Src/stm32l4xx_hal_lptim.c ****   * @brief  Direction counter changed from Down to Up callback in non-blocking mode.
2158:Drivers/STM32L4xx_HAL_Driver/Src/stm32l4xx_hal_lptim.c ****   * @param  hlptim LPTIM handle
2159:Drivers/STM32L4xx_HAL_Driver/Src/stm32l4xx_hal_lptim.c ****   * @retval None
2160:Drivers/STM32L4xx_HAL_Driver/Src/stm32l4xx_hal_lptim.c ****   */
2161:Drivers/STM32L4xx_HAL_Driver/Src/stm32l4xx_hal_lptim.c **** __weak void HAL_LPTIM_DirectionUpCallback(LPTIM_HandleTypeDef *hlptim)
2162:Drivers/STM32L4xx_HAL_Driver/Src/stm32l4xx_hal_lptim.c **** {
 3672              		.loc 1 2162 1
 3673              		.cfi_startproc
 3674              		@ args = 0, pretend = 0, frame = 8
 3675              		@ frame_needed = 1, uses_anonymous_args = 0
 3676              		@ link register save eliminated.
 3677 0000 80B4     		push	{r7}
 3678              		.cfi_def_cfa_offset 4
 3679              		.cfi_offset 7, -4
 3680 0002 83B0     		sub	sp, sp, #12
 3681              		.cfi_def_cfa_offset 16
 3682 0004 00AF     		add	r7, sp, #0
 3683              		.cfi_def_cfa_register 7
 3684 0006 7860     		str	r0, [r7, #4]
2163:Drivers/STM32L4xx_HAL_Driver/Src/stm32l4xx_hal_lptim.c ****   /* Prevent unused argument(s) compilation warning */
2164:Drivers/STM32L4xx_HAL_Driver/Src/stm32l4xx_hal_lptim.c ****   UNUSED(hlptim);
2165:Drivers/STM32L4xx_HAL_Driver/Src/stm32l4xx_hal_lptim.c **** 
2166:Drivers/STM32L4xx_HAL_Driver/Src/stm32l4xx_hal_lptim.c ****   /* NOTE : This function should not be modified, when the callback is needed,
2167:Drivers/STM32L4xx_HAL_Driver/Src/stm32l4xx_hal_lptim.c ****             the HAL_LPTIM_DirectionUpCallback could be implemented in the user file
2168:Drivers/STM32L4xx_HAL_Driver/Src/stm32l4xx_hal_lptim.c ****    */
2169:Drivers/STM32L4xx_HAL_Driver/Src/stm32l4xx_hal_lptim.c **** }
 3685              		.loc 1 2169 1
 3686 0008 00BF     		nop
 3687 000a 0C37     		adds	r7, r7, #12
 3688              		.cfi_def_cfa_offset 4
 3689 000c BD46     		mov	sp, r7
 3690              		.cfi_def_cfa_register 13
 3691              		@ sp needed
 3692 000e 5DF8047B 		ldr	r7, [sp], #4
 3693              		.cfi_restore 7
 3694              		.cfi_def_cfa_offset 0
 3695 0012 7047     		bx	lr
 3696              		.cfi_endproc
 3697              	.LFE482:
 3699              		.section	.text.HAL_LPTIM_DirectionDownCallback,"ax",%progbits
 3700              		.align	1
 3701              		.weak	HAL_LPTIM_DirectionDownCallback
 3702              		.syntax unified
 3703              		.thumb
 3704              		.thumb_func
 3706              	HAL_LPTIM_DirectionDownCallback:
 3707              	.LFB483:
2170:Drivers/STM32L4xx_HAL_Driver/Src/stm32l4xx_hal_lptim.c **** 
2171:Drivers/STM32L4xx_HAL_Driver/Src/stm32l4xx_hal_lptim.c **** /**
2172:Drivers/STM32L4xx_HAL_Driver/Src/stm32l4xx_hal_lptim.c ****   * @brief  Direction counter changed from Up to Down callback in non-blocking mode.
2173:Drivers/STM32L4xx_HAL_Driver/Src/stm32l4xx_hal_lptim.c ****   * @param  hlptim LPTIM handle
ARM GAS  /tmp/ccB7T7H1.s 			page 103


2174:Drivers/STM32L4xx_HAL_Driver/Src/stm32l4xx_hal_lptim.c ****   * @retval None
2175:Drivers/STM32L4xx_HAL_Driver/Src/stm32l4xx_hal_lptim.c ****   */
2176:Drivers/STM32L4xx_HAL_Driver/Src/stm32l4xx_hal_lptim.c **** __weak void HAL_LPTIM_DirectionDownCallback(LPTIM_HandleTypeDef *hlptim)
2177:Drivers/STM32L4xx_HAL_Driver/Src/stm32l4xx_hal_lptim.c **** {
 3708              		.loc 1 2177 1
 3709              		.cfi_startproc
 3710              		@ args = 0, pretend = 0, frame = 8
 3711              		@ frame_needed = 1, uses_anonymous_args = 0
 3712              		@ link register save eliminated.
 3713 0000 80B4     		push	{r7}
 3714              		.cfi_def_cfa_offset 4
 3715              		.cfi_offset 7, -4
 3716 0002 83B0     		sub	sp, sp, #12
 3717              		.cfi_def_cfa_offset 16
 3718 0004 00AF     		add	r7, sp, #0
 3719              		.cfi_def_cfa_register 7
 3720 0006 7860     		str	r0, [r7, #4]
2178:Drivers/STM32L4xx_HAL_Driver/Src/stm32l4xx_hal_lptim.c ****   /* Prevent unused argument(s) compilation warning */
2179:Drivers/STM32L4xx_HAL_Driver/Src/stm32l4xx_hal_lptim.c ****   UNUSED(hlptim);
2180:Drivers/STM32L4xx_HAL_Driver/Src/stm32l4xx_hal_lptim.c **** 
2181:Drivers/STM32L4xx_HAL_Driver/Src/stm32l4xx_hal_lptim.c ****   /* NOTE : This function should not be modified, when the callback is needed,
2182:Drivers/STM32L4xx_HAL_Driver/Src/stm32l4xx_hal_lptim.c ****             the HAL_LPTIM_DirectionDownCallback could be implemented in the user file
2183:Drivers/STM32L4xx_HAL_Driver/Src/stm32l4xx_hal_lptim.c ****    */
2184:Drivers/STM32L4xx_HAL_Driver/Src/stm32l4xx_hal_lptim.c **** }
 3721              		.loc 1 2184 1
 3722 0008 00BF     		nop
 3723 000a 0C37     		adds	r7, r7, #12
 3724              		.cfi_def_cfa_offset 4
 3725 000c BD46     		mov	sp, r7
 3726              		.cfi_def_cfa_register 13
 3727              		@ sp needed
 3728 000e 5DF8047B 		ldr	r7, [sp], #4
 3729              		.cfi_restore 7
 3730              		.cfi_def_cfa_offset 0
 3731 0012 7047     		bx	lr
 3732              		.cfi_endproc
 3733              	.LFE483:
 3735              		.section	.text.HAL_LPTIM_GetState,"ax",%progbits
 3736              		.align	1
 3737              		.global	HAL_LPTIM_GetState
 3738              		.syntax unified
 3739              		.thumb
 3740              		.thumb_func
 3742              	HAL_LPTIM_GetState:
 3743              	.LFB484:
2185:Drivers/STM32L4xx_HAL_Driver/Src/stm32l4xx_hal_lptim.c **** #if defined(LPTIM_RCR_REP)
2186:Drivers/STM32L4xx_HAL_Driver/Src/stm32l4xx_hal_lptim.c **** 
2187:Drivers/STM32L4xx_HAL_Driver/Src/stm32l4xx_hal_lptim.c **** /**
2188:Drivers/STM32L4xx_HAL_Driver/Src/stm32l4xx_hal_lptim.c ****   * @brief Repetition counter underflowed (or contains zero) and LPTIM counter overflowed callback 
2189:Drivers/STM32L4xx_HAL_Driver/Src/stm32l4xx_hal_lptim.c ****   * @param  hlptim LPTIM handle
2190:Drivers/STM32L4xx_HAL_Driver/Src/stm32l4xx_hal_lptim.c ****   * @retval None
2191:Drivers/STM32L4xx_HAL_Driver/Src/stm32l4xx_hal_lptim.c ****   */
2192:Drivers/STM32L4xx_HAL_Driver/Src/stm32l4xx_hal_lptim.c **** __weak void HAL_LPTIM_UpdateEventCallback(LPTIM_HandleTypeDef *hlptim)
2193:Drivers/STM32L4xx_HAL_Driver/Src/stm32l4xx_hal_lptim.c **** {
2194:Drivers/STM32L4xx_HAL_Driver/Src/stm32l4xx_hal_lptim.c ****   /* Prevent unused argument(s) compilation warning */
2195:Drivers/STM32L4xx_HAL_Driver/Src/stm32l4xx_hal_lptim.c ****   UNUSED(hlptim);
2196:Drivers/STM32L4xx_HAL_Driver/Src/stm32l4xx_hal_lptim.c **** 
ARM GAS  /tmp/ccB7T7H1.s 			page 104


2197:Drivers/STM32L4xx_HAL_Driver/Src/stm32l4xx_hal_lptim.c ****   /* NOTE : This function should not be modified, when the callback is needed,
2198:Drivers/STM32L4xx_HAL_Driver/Src/stm32l4xx_hal_lptim.c ****             the HAL_LPTIM_UpdateEventCallback could be implemented in the user file
2199:Drivers/STM32L4xx_HAL_Driver/Src/stm32l4xx_hal_lptim.c ****    */
2200:Drivers/STM32L4xx_HAL_Driver/Src/stm32l4xx_hal_lptim.c **** }
2201:Drivers/STM32L4xx_HAL_Driver/Src/stm32l4xx_hal_lptim.c **** 
2202:Drivers/STM32L4xx_HAL_Driver/Src/stm32l4xx_hal_lptim.c **** /**
2203:Drivers/STM32L4xx_HAL_Driver/Src/stm32l4xx_hal_lptim.c ****   * @brief  Successful APB bus write to repetition counter register callback in non-blocking mode.
2204:Drivers/STM32L4xx_HAL_Driver/Src/stm32l4xx_hal_lptim.c ****   * @param  hlptim LPTIM handle
2205:Drivers/STM32L4xx_HAL_Driver/Src/stm32l4xx_hal_lptim.c ****   * @retval None
2206:Drivers/STM32L4xx_HAL_Driver/Src/stm32l4xx_hal_lptim.c ****   */
2207:Drivers/STM32L4xx_HAL_Driver/Src/stm32l4xx_hal_lptim.c **** __weak void HAL_LPTIM_RepCounterWriteCallback(LPTIM_HandleTypeDef *hlptim)
2208:Drivers/STM32L4xx_HAL_Driver/Src/stm32l4xx_hal_lptim.c **** {
2209:Drivers/STM32L4xx_HAL_Driver/Src/stm32l4xx_hal_lptim.c ****   /* Prevent unused argument(s) compilation warning */
2210:Drivers/STM32L4xx_HAL_Driver/Src/stm32l4xx_hal_lptim.c ****   UNUSED(hlptim);
2211:Drivers/STM32L4xx_HAL_Driver/Src/stm32l4xx_hal_lptim.c **** 
2212:Drivers/STM32L4xx_HAL_Driver/Src/stm32l4xx_hal_lptim.c ****   /* NOTE : This function should not be modified, when the callback is needed,
2213:Drivers/STM32L4xx_HAL_Driver/Src/stm32l4xx_hal_lptim.c ****             the HAL_LPTIM_RepCounterWriteCallback could be implemented in the user file
2214:Drivers/STM32L4xx_HAL_Driver/Src/stm32l4xx_hal_lptim.c ****    */
2215:Drivers/STM32L4xx_HAL_Driver/Src/stm32l4xx_hal_lptim.c **** }
2216:Drivers/STM32L4xx_HAL_Driver/Src/stm32l4xx_hal_lptim.c **** #endif
2217:Drivers/STM32L4xx_HAL_Driver/Src/stm32l4xx_hal_lptim.c **** 
2218:Drivers/STM32L4xx_HAL_Driver/Src/stm32l4xx_hal_lptim.c **** #if (USE_HAL_LPTIM_REGISTER_CALLBACKS == 1)
2219:Drivers/STM32L4xx_HAL_Driver/Src/stm32l4xx_hal_lptim.c **** /**
2220:Drivers/STM32L4xx_HAL_Driver/Src/stm32l4xx_hal_lptim.c ****   * @brief  Register a User LPTIM callback to be used instead of the weak predefined callback
2221:Drivers/STM32L4xx_HAL_Driver/Src/stm32l4xx_hal_lptim.c ****   * @param hlptim LPTIM handle
2222:Drivers/STM32L4xx_HAL_Driver/Src/stm32l4xx_hal_lptim.c ****   * @param CallbackID ID of the callback to be registered
2223:Drivers/STM32L4xx_HAL_Driver/Src/stm32l4xx_hal_lptim.c ****   *        This parameter can be one of the following values:
2224:Drivers/STM32L4xx_HAL_Driver/Src/stm32l4xx_hal_lptim.c ****   *          @arg @ref HAL_LPTIM_MSPINIT_CB_ID          LPTIM Base Msp Init Callback ID
2225:Drivers/STM32L4xx_HAL_Driver/Src/stm32l4xx_hal_lptim.c ****   *          @arg @ref HAL_LPTIM_MSPDEINIT_CB_ID        LPTIM Base Msp DeInit Callback ID
2226:Drivers/STM32L4xx_HAL_Driver/Src/stm32l4xx_hal_lptim.c ****   *          @arg @ref HAL_LPTIM_COMPARE_MATCH_CB_ID    Compare match Callback ID
2227:Drivers/STM32L4xx_HAL_Driver/Src/stm32l4xx_hal_lptim.c ****   *          @arg @ref HAL_LPTIM_AUTORELOAD_MATCH_CB_ID Auto-reload match Callback ID
2228:Drivers/STM32L4xx_HAL_Driver/Src/stm32l4xx_hal_lptim.c ****   *          @arg @ref HAL_LPTIM_TRIGGER_CB_ID          External trigger event detection Callback I
2229:Drivers/STM32L4xx_HAL_Driver/Src/stm32l4xx_hal_lptim.c ****   *          @arg @ref HAL_LPTIM_COMPARE_WRITE_CB_ID    Compare register write complete Callback ID
2230:Drivers/STM32L4xx_HAL_Driver/Src/stm32l4xx_hal_lptim.c ****   *          @arg @ref HAL_LPTIM_AUTORELOAD_WRITE_CB_ID Auto-reload register write complete Callbac
2231:Drivers/STM32L4xx_HAL_Driver/Src/stm32l4xx_hal_lptim.c ****   *          @arg @ref HAL_LPTIM_DIRECTION_UP_CB_ID     Up-counting direction change Callback ID
2232:Drivers/STM32L4xx_HAL_Driver/Src/stm32l4xx_hal_lptim.c ****   *          @arg @ref HAL_LPTIM_DIRECTION_DOWN_CB_ID   Down-counting direction change Callback ID
2233:Drivers/STM32L4xx_HAL_Driver/Src/stm32l4xx_hal_lptim.c ****   *          @arg @ref HAL_LPTIM_UPDATE_EVENT_CB_ID      Update event detection Callback ID (when a
2234:Drivers/STM32L4xx_HAL_Driver/Src/stm32l4xx_hal_lptim.c ****   *          @arg @ref HAL_LPTIM_REP_COUNTER_WRITE_CB_ID Repetition counter register write complete
2235:Drivers/STM32L4xx_HAL_Driver/Src/stm32l4xx_hal_lptim.c ****   * @param pCallback pointer to the callback function
2236:Drivers/STM32L4xx_HAL_Driver/Src/stm32l4xx_hal_lptim.c ****   * @retval status
2237:Drivers/STM32L4xx_HAL_Driver/Src/stm32l4xx_hal_lptim.c ****   */
2238:Drivers/STM32L4xx_HAL_Driver/Src/stm32l4xx_hal_lptim.c **** HAL_StatusTypeDef HAL_LPTIM_RegisterCallback(LPTIM_HandleTypeDef        *hlptim,
2239:Drivers/STM32L4xx_HAL_Driver/Src/stm32l4xx_hal_lptim.c ****                                              HAL_LPTIM_CallbackIDTypeDef CallbackID,
2240:Drivers/STM32L4xx_HAL_Driver/Src/stm32l4xx_hal_lptim.c ****                                              pLPTIM_CallbackTypeDef      pCallback)
2241:Drivers/STM32L4xx_HAL_Driver/Src/stm32l4xx_hal_lptim.c **** {
2242:Drivers/STM32L4xx_HAL_Driver/Src/stm32l4xx_hal_lptim.c ****   HAL_StatusTypeDef status = HAL_OK;
2243:Drivers/STM32L4xx_HAL_Driver/Src/stm32l4xx_hal_lptim.c **** 
2244:Drivers/STM32L4xx_HAL_Driver/Src/stm32l4xx_hal_lptim.c ****   if (pCallback == NULL)
2245:Drivers/STM32L4xx_HAL_Driver/Src/stm32l4xx_hal_lptim.c ****   {
2246:Drivers/STM32L4xx_HAL_Driver/Src/stm32l4xx_hal_lptim.c ****     return HAL_ERROR;
2247:Drivers/STM32L4xx_HAL_Driver/Src/stm32l4xx_hal_lptim.c ****   }
2248:Drivers/STM32L4xx_HAL_Driver/Src/stm32l4xx_hal_lptim.c **** 
2249:Drivers/STM32L4xx_HAL_Driver/Src/stm32l4xx_hal_lptim.c ****   if (hlptim->State == HAL_LPTIM_STATE_READY)
2250:Drivers/STM32L4xx_HAL_Driver/Src/stm32l4xx_hal_lptim.c ****   {
2251:Drivers/STM32L4xx_HAL_Driver/Src/stm32l4xx_hal_lptim.c ****     switch (CallbackID)
2252:Drivers/STM32L4xx_HAL_Driver/Src/stm32l4xx_hal_lptim.c ****     {
2253:Drivers/STM32L4xx_HAL_Driver/Src/stm32l4xx_hal_lptim.c ****       case HAL_LPTIM_MSPINIT_CB_ID :
ARM GAS  /tmp/ccB7T7H1.s 			page 105


2254:Drivers/STM32L4xx_HAL_Driver/Src/stm32l4xx_hal_lptim.c ****         hlptim->MspInitCallback = pCallback;
2255:Drivers/STM32L4xx_HAL_Driver/Src/stm32l4xx_hal_lptim.c ****         break;
2256:Drivers/STM32L4xx_HAL_Driver/Src/stm32l4xx_hal_lptim.c **** 
2257:Drivers/STM32L4xx_HAL_Driver/Src/stm32l4xx_hal_lptim.c ****       case HAL_LPTIM_MSPDEINIT_CB_ID :
2258:Drivers/STM32L4xx_HAL_Driver/Src/stm32l4xx_hal_lptim.c ****         hlptim->MspDeInitCallback = pCallback;
2259:Drivers/STM32L4xx_HAL_Driver/Src/stm32l4xx_hal_lptim.c ****         break;
2260:Drivers/STM32L4xx_HAL_Driver/Src/stm32l4xx_hal_lptim.c **** 
2261:Drivers/STM32L4xx_HAL_Driver/Src/stm32l4xx_hal_lptim.c ****       case HAL_LPTIM_COMPARE_MATCH_CB_ID :
2262:Drivers/STM32L4xx_HAL_Driver/Src/stm32l4xx_hal_lptim.c ****         hlptim->CompareMatchCallback = pCallback;
2263:Drivers/STM32L4xx_HAL_Driver/Src/stm32l4xx_hal_lptim.c ****         break;
2264:Drivers/STM32L4xx_HAL_Driver/Src/stm32l4xx_hal_lptim.c **** 
2265:Drivers/STM32L4xx_HAL_Driver/Src/stm32l4xx_hal_lptim.c ****       case HAL_LPTIM_AUTORELOAD_MATCH_CB_ID :
2266:Drivers/STM32L4xx_HAL_Driver/Src/stm32l4xx_hal_lptim.c ****         hlptim->AutoReloadMatchCallback = pCallback;
2267:Drivers/STM32L4xx_HAL_Driver/Src/stm32l4xx_hal_lptim.c ****         break;
2268:Drivers/STM32L4xx_HAL_Driver/Src/stm32l4xx_hal_lptim.c **** 
2269:Drivers/STM32L4xx_HAL_Driver/Src/stm32l4xx_hal_lptim.c ****       case HAL_LPTIM_TRIGGER_CB_ID :
2270:Drivers/STM32L4xx_HAL_Driver/Src/stm32l4xx_hal_lptim.c ****         hlptim->TriggerCallback = pCallback;
2271:Drivers/STM32L4xx_HAL_Driver/Src/stm32l4xx_hal_lptim.c ****         break;
2272:Drivers/STM32L4xx_HAL_Driver/Src/stm32l4xx_hal_lptim.c **** 
2273:Drivers/STM32L4xx_HAL_Driver/Src/stm32l4xx_hal_lptim.c ****       case HAL_LPTIM_COMPARE_WRITE_CB_ID :
2274:Drivers/STM32L4xx_HAL_Driver/Src/stm32l4xx_hal_lptim.c ****         hlptim->CompareWriteCallback = pCallback;
2275:Drivers/STM32L4xx_HAL_Driver/Src/stm32l4xx_hal_lptim.c ****         break;
2276:Drivers/STM32L4xx_HAL_Driver/Src/stm32l4xx_hal_lptim.c **** 
2277:Drivers/STM32L4xx_HAL_Driver/Src/stm32l4xx_hal_lptim.c ****       case HAL_LPTIM_AUTORELOAD_WRITE_CB_ID :
2278:Drivers/STM32L4xx_HAL_Driver/Src/stm32l4xx_hal_lptim.c ****         hlptim->AutoReloadWriteCallback = pCallback;
2279:Drivers/STM32L4xx_HAL_Driver/Src/stm32l4xx_hal_lptim.c ****         break;
2280:Drivers/STM32L4xx_HAL_Driver/Src/stm32l4xx_hal_lptim.c **** 
2281:Drivers/STM32L4xx_HAL_Driver/Src/stm32l4xx_hal_lptim.c ****       case HAL_LPTIM_DIRECTION_UP_CB_ID :
2282:Drivers/STM32L4xx_HAL_Driver/Src/stm32l4xx_hal_lptim.c ****         hlptim->DirectionUpCallback = pCallback;
2283:Drivers/STM32L4xx_HAL_Driver/Src/stm32l4xx_hal_lptim.c ****         break;
2284:Drivers/STM32L4xx_HAL_Driver/Src/stm32l4xx_hal_lptim.c **** 
2285:Drivers/STM32L4xx_HAL_Driver/Src/stm32l4xx_hal_lptim.c ****       case HAL_LPTIM_DIRECTION_DOWN_CB_ID :
2286:Drivers/STM32L4xx_HAL_Driver/Src/stm32l4xx_hal_lptim.c ****         hlptim->DirectionDownCallback = pCallback;
2287:Drivers/STM32L4xx_HAL_Driver/Src/stm32l4xx_hal_lptim.c ****         break;
2288:Drivers/STM32L4xx_HAL_Driver/Src/stm32l4xx_hal_lptim.c **** #if defined(LPTIM_RCR_REP)
2289:Drivers/STM32L4xx_HAL_Driver/Src/stm32l4xx_hal_lptim.c **** 
2290:Drivers/STM32L4xx_HAL_Driver/Src/stm32l4xx_hal_lptim.c ****       case HAL_LPTIM_UPDATE_EVENT_CB_ID :
2291:Drivers/STM32L4xx_HAL_Driver/Src/stm32l4xx_hal_lptim.c ****         hlptim->UpdateEventCallback = pCallback;
2292:Drivers/STM32L4xx_HAL_Driver/Src/stm32l4xx_hal_lptim.c ****         break;
2293:Drivers/STM32L4xx_HAL_Driver/Src/stm32l4xx_hal_lptim.c **** 
2294:Drivers/STM32L4xx_HAL_Driver/Src/stm32l4xx_hal_lptim.c ****       case HAL_LPTIM_REP_COUNTER_WRITE_CB_ID :
2295:Drivers/STM32L4xx_HAL_Driver/Src/stm32l4xx_hal_lptim.c ****         hlptim->RepCounterWriteCallback = pCallback;
2296:Drivers/STM32L4xx_HAL_Driver/Src/stm32l4xx_hal_lptim.c ****         break;
2297:Drivers/STM32L4xx_HAL_Driver/Src/stm32l4xx_hal_lptim.c **** #endif
2298:Drivers/STM32L4xx_HAL_Driver/Src/stm32l4xx_hal_lptim.c **** 
2299:Drivers/STM32L4xx_HAL_Driver/Src/stm32l4xx_hal_lptim.c ****       default :
2300:Drivers/STM32L4xx_HAL_Driver/Src/stm32l4xx_hal_lptim.c ****         /* Return error status */
2301:Drivers/STM32L4xx_HAL_Driver/Src/stm32l4xx_hal_lptim.c ****         status =  HAL_ERROR;
2302:Drivers/STM32L4xx_HAL_Driver/Src/stm32l4xx_hal_lptim.c ****         break;
2303:Drivers/STM32L4xx_HAL_Driver/Src/stm32l4xx_hal_lptim.c ****     }
2304:Drivers/STM32L4xx_HAL_Driver/Src/stm32l4xx_hal_lptim.c ****   }
2305:Drivers/STM32L4xx_HAL_Driver/Src/stm32l4xx_hal_lptim.c ****   else if (hlptim->State == HAL_LPTIM_STATE_RESET)
2306:Drivers/STM32L4xx_HAL_Driver/Src/stm32l4xx_hal_lptim.c ****   {
2307:Drivers/STM32L4xx_HAL_Driver/Src/stm32l4xx_hal_lptim.c ****     switch (CallbackID)
2308:Drivers/STM32L4xx_HAL_Driver/Src/stm32l4xx_hal_lptim.c ****     {
2309:Drivers/STM32L4xx_HAL_Driver/Src/stm32l4xx_hal_lptim.c ****       case HAL_LPTIM_MSPINIT_CB_ID :
2310:Drivers/STM32L4xx_HAL_Driver/Src/stm32l4xx_hal_lptim.c ****         hlptim->MspInitCallback = pCallback;
ARM GAS  /tmp/ccB7T7H1.s 			page 106


2311:Drivers/STM32L4xx_HAL_Driver/Src/stm32l4xx_hal_lptim.c ****         break;
2312:Drivers/STM32L4xx_HAL_Driver/Src/stm32l4xx_hal_lptim.c **** 
2313:Drivers/STM32L4xx_HAL_Driver/Src/stm32l4xx_hal_lptim.c ****       case HAL_LPTIM_MSPDEINIT_CB_ID :
2314:Drivers/STM32L4xx_HAL_Driver/Src/stm32l4xx_hal_lptim.c ****         hlptim->MspDeInitCallback = pCallback;
2315:Drivers/STM32L4xx_HAL_Driver/Src/stm32l4xx_hal_lptim.c ****         break;
2316:Drivers/STM32L4xx_HAL_Driver/Src/stm32l4xx_hal_lptim.c **** 
2317:Drivers/STM32L4xx_HAL_Driver/Src/stm32l4xx_hal_lptim.c ****       default :
2318:Drivers/STM32L4xx_HAL_Driver/Src/stm32l4xx_hal_lptim.c ****         /* Return error status */
2319:Drivers/STM32L4xx_HAL_Driver/Src/stm32l4xx_hal_lptim.c ****         status =  HAL_ERROR;
2320:Drivers/STM32L4xx_HAL_Driver/Src/stm32l4xx_hal_lptim.c ****         break;
2321:Drivers/STM32L4xx_HAL_Driver/Src/stm32l4xx_hal_lptim.c ****     }
2322:Drivers/STM32L4xx_HAL_Driver/Src/stm32l4xx_hal_lptim.c ****   }
2323:Drivers/STM32L4xx_HAL_Driver/Src/stm32l4xx_hal_lptim.c ****   else
2324:Drivers/STM32L4xx_HAL_Driver/Src/stm32l4xx_hal_lptim.c ****   {
2325:Drivers/STM32L4xx_HAL_Driver/Src/stm32l4xx_hal_lptim.c ****     /* Return error status */
2326:Drivers/STM32L4xx_HAL_Driver/Src/stm32l4xx_hal_lptim.c ****     status =  HAL_ERROR;
2327:Drivers/STM32L4xx_HAL_Driver/Src/stm32l4xx_hal_lptim.c ****   }
2328:Drivers/STM32L4xx_HAL_Driver/Src/stm32l4xx_hal_lptim.c **** 
2329:Drivers/STM32L4xx_HAL_Driver/Src/stm32l4xx_hal_lptim.c ****   return status;
2330:Drivers/STM32L4xx_HAL_Driver/Src/stm32l4xx_hal_lptim.c **** }
2331:Drivers/STM32L4xx_HAL_Driver/Src/stm32l4xx_hal_lptim.c **** 
2332:Drivers/STM32L4xx_HAL_Driver/Src/stm32l4xx_hal_lptim.c **** /**
2333:Drivers/STM32L4xx_HAL_Driver/Src/stm32l4xx_hal_lptim.c ****   * @brief  Unregister a LPTIM callback
2334:Drivers/STM32L4xx_HAL_Driver/Src/stm32l4xx_hal_lptim.c ****   *         LLPTIM callback is redirected to the weak predefined callback
2335:Drivers/STM32L4xx_HAL_Driver/Src/stm32l4xx_hal_lptim.c ****   * @param hlptim LPTIM handle
2336:Drivers/STM32L4xx_HAL_Driver/Src/stm32l4xx_hal_lptim.c ****   * @param CallbackID ID of the callback to be unregistered
2337:Drivers/STM32L4xx_HAL_Driver/Src/stm32l4xx_hal_lptim.c ****   *        This parameter can be one of the following values:
2338:Drivers/STM32L4xx_HAL_Driver/Src/stm32l4xx_hal_lptim.c ****   *          @arg @ref HAL_LPTIM_MSPINIT_CB_ID          LPTIM Base Msp Init Callback ID
2339:Drivers/STM32L4xx_HAL_Driver/Src/stm32l4xx_hal_lptim.c ****   *          @arg @ref HAL_LPTIM_MSPDEINIT_CB_ID        LPTIM Base Msp DeInit Callback ID
2340:Drivers/STM32L4xx_HAL_Driver/Src/stm32l4xx_hal_lptim.c ****   *          @arg @ref HAL_LPTIM_COMPARE_MATCH_CB_ID    Compare match Callback ID
2341:Drivers/STM32L4xx_HAL_Driver/Src/stm32l4xx_hal_lptim.c ****   *          @arg @ref HAL_LPTIM_AUTORELOAD_MATCH_CB_ID Auto-reload match Callback ID
2342:Drivers/STM32L4xx_HAL_Driver/Src/stm32l4xx_hal_lptim.c ****   *          @arg @ref HAL_LPTIM_TRIGGER_CB_ID          External trigger event detection Callback I
2343:Drivers/STM32L4xx_HAL_Driver/Src/stm32l4xx_hal_lptim.c ****   *          @arg @ref HAL_LPTIM_COMPARE_WRITE_CB_ID    Compare register write complete Callback ID
2344:Drivers/STM32L4xx_HAL_Driver/Src/stm32l4xx_hal_lptim.c ****   *          @arg @ref HAL_LPTIM_AUTORELOAD_WRITE_CB_ID Auto-reload register write complete Callbac
2345:Drivers/STM32L4xx_HAL_Driver/Src/stm32l4xx_hal_lptim.c ****   *          @arg @ref HAL_LPTIM_DIRECTION_UP_CB_ID     Up-counting direction change Callback ID
2346:Drivers/STM32L4xx_HAL_Driver/Src/stm32l4xx_hal_lptim.c ****   *          @arg @ref HAL_LPTIM_DIRECTION_DOWN_CB_ID   Down-counting direction change Callback ID
2347:Drivers/STM32L4xx_HAL_Driver/Src/stm32l4xx_hal_lptim.c ****   *          @arg @ref HAL_LPTIM_UPDATE_EVENT_CB_ID      Update event detection Callback ID (when a
2348:Drivers/STM32L4xx_HAL_Driver/Src/stm32l4xx_hal_lptim.c ****   *          @arg @ref HAL_LPTIM_REP_COUNTER_WRITE_CB_ID Repetition counter register write complete
2349:Drivers/STM32L4xx_HAL_Driver/Src/stm32l4xx_hal_lptim.c ****   * @retval status
2350:Drivers/STM32L4xx_HAL_Driver/Src/stm32l4xx_hal_lptim.c ****   */
2351:Drivers/STM32L4xx_HAL_Driver/Src/stm32l4xx_hal_lptim.c **** HAL_StatusTypeDef HAL_LPTIM_UnRegisterCallback(LPTIM_HandleTypeDef        *hlptim,
2352:Drivers/STM32L4xx_HAL_Driver/Src/stm32l4xx_hal_lptim.c ****                                                HAL_LPTIM_CallbackIDTypeDef CallbackID)
2353:Drivers/STM32L4xx_HAL_Driver/Src/stm32l4xx_hal_lptim.c **** {
2354:Drivers/STM32L4xx_HAL_Driver/Src/stm32l4xx_hal_lptim.c ****   HAL_StatusTypeDef status = HAL_OK;
2355:Drivers/STM32L4xx_HAL_Driver/Src/stm32l4xx_hal_lptim.c **** 
2356:Drivers/STM32L4xx_HAL_Driver/Src/stm32l4xx_hal_lptim.c ****   if (hlptim->State == HAL_LPTIM_STATE_READY)
2357:Drivers/STM32L4xx_HAL_Driver/Src/stm32l4xx_hal_lptim.c ****   {
2358:Drivers/STM32L4xx_HAL_Driver/Src/stm32l4xx_hal_lptim.c ****     switch (CallbackID)
2359:Drivers/STM32L4xx_HAL_Driver/Src/stm32l4xx_hal_lptim.c ****     {
2360:Drivers/STM32L4xx_HAL_Driver/Src/stm32l4xx_hal_lptim.c ****       case HAL_LPTIM_MSPINIT_CB_ID :
2361:Drivers/STM32L4xx_HAL_Driver/Src/stm32l4xx_hal_lptim.c ****         /* Legacy weak MspInit Callback */
2362:Drivers/STM32L4xx_HAL_Driver/Src/stm32l4xx_hal_lptim.c ****         hlptim->MspInitCallback = HAL_LPTIM_MspInit;
2363:Drivers/STM32L4xx_HAL_Driver/Src/stm32l4xx_hal_lptim.c ****         break;
2364:Drivers/STM32L4xx_HAL_Driver/Src/stm32l4xx_hal_lptim.c **** 
2365:Drivers/STM32L4xx_HAL_Driver/Src/stm32l4xx_hal_lptim.c ****       case HAL_LPTIM_MSPDEINIT_CB_ID :
2366:Drivers/STM32L4xx_HAL_Driver/Src/stm32l4xx_hal_lptim.c ****         /* Legacy weak Msp DeInit Callback */
2367:Drivers/STM32L4xx_HAL_Driver/Src/stm32l4xx_hal_lptim.c ****         hlptim->MspDeInitCallback = HAL_LPTIM_MspDeInit;
ARM GAS  /tmp/ccB7T7H1.s 			page 107


2368:Drivers/STM32L4xx_HAL_Driver/Src/stm32l4xx_hal_lptim.c ****         break;
2369:Drivers/STM32L4xx_HAL_Driver/Src/stm32l4xx_hal_lptim.c **** 
2370:Drivers/STM32L4xx_HAL_Driver/Src/stm32l4xx_hal_lptim.c ****       case HAL_LPTIM_COMPARE_MATCH_CB_ID :
2371:Drivers/STM32L4xx_HAL_Driver/Src/stm32l4xx_hal_lptim.c ****         /* Legacy weak Compare match Callback */
2372:Drivers/STM32L4xx_HAL_Driver/Src/stm32l4xx_hal_lptim.c ****         hlptim->CompareMatchCallback = HAL_LPTIM_CompareMatchCallback;
2373:Drivers/STM32L4xx_HAL_Driver/Src/stm32l4xx_hal_lptim.c ****         break;
2374:Drivers/STM32L4xx_HAL_Driver/Src/stm32l4xx_hal_lptim.c **** 
2375:Drivers/STM32L4xx_HAL_Driver/Src/stm32l4xx_hal_lptim.c ****       case HAL_LPTIM_AUTORELOAD_MATCH_CB_ID :
2376:Drivers/STM32L4xx_HAL_Driver/Src/stm32l4xx_hal_lptim.c ****         /* Legacy weak Auto-reload match Callback */
2377:Drivers/STM32L4xx_HAL_Driver/Src/stm32l4xx_hal_lptim.c ****         hlptim->AutoReloadMatchCallback = HAL_LPTIM_AutoReloadMatchCallback;
2378:Drivers/STM32L4xx_HAL_Driver/Src/stm32l4xx_hal_lptim.c ****         break;
2379:Drivers/STM32L4xx_HAL_Driver/Src/stm32l4xx_hal_lptim.c **** 
2380:Drivers/STM32L4xx_HAL_Driver/Src/stm32l4xx_hal_lptim.c ****       case HAL_LPTIM_TRIGGER_CB_ID :
2381:Drivers/STM32L4xx_HAL_Driver/Src/stm32l4xx_hal_lptim.c ****         /* Legacy weak External trigger event detection Callback */
2382:Drivers/STM32L4xx_HAL_Driver/Src/stm32l4xx_hal_lptim.c ****         hlptim->TriggerCallback = HAL_LPTIM_TriggerCallback;
2383:Drivers/STM32L4xx_HAL_Driver/Src/stm32l4xx_hal_lptim.c ****         break;
2384:Drivers/STM32L4xx_HAL_Driver/Src/stm32l4xx_hal_lptim.c **** 
2385:Drivers/STM32L4xx_HAL_Driver/Src/stm32l4xx_hal_lptim.c ****       case HAL_LPTIM_COMPARE_WRITE_CB_ID :
2386:Drivers/STM32L4xx_HAL_Driver/Src/stm32l4xx_hal_lptim.c ****         /* Legacy weak Compare register write complete Callback */
2387:Drivers/STM32L4xx_HAL_Driver/Src/stm32l4xx_hal_lptim.c ****         hlptim->CompareWriteCallback = HAL_LPTIM_CompareWriteCallback;
2388:Drivers/STM32L4xx_HAL_Driver/Src/stm32l4xx_hal_lptim.c ****         break;
2389:Drivers/STM32L4xx_HAL_Driver/Src/stm32l4xx_hal_lptim.c **** 
2390:Drivers/STM32L4xx_HAL_Driver/Src/stm32l4xx_hal_lptim.c ****       case HAL_LPTIM_AUTORELOAD_WRITE_CB_ID :
2391:Drivers/STM32L4xx_HAL_Driver/Src/stm32l4xx_hal_lptim.c ****         /* Legacy weak Auto-reload register write complete Callback */
2392:Drivers/STM32L4xx_HAL_Driver/Src/stm32l4xx_hal_lptim.c ****         hlptim->AutoReloadWriteCallback = HAL_LPTIM_AutoReloadWriteCallback;
2393:Drivers/STM32L4xx_HAL_Driver/Src/stm32l4xx_hal_lptim.c ****         break;
2394:Drivers/STM32L4xx_HAL_Driver/Src/stm32l4xx_hal_lptim.c **** 
2395:Drivers/STM32L4xx_HAL_Driver/Src/stm32l4xx_hal_lptim.c ****       case HAL_LPTIM_DIRECTION_UP_CB_ID :
2396:Drivers/STM32L4xx_HAL_Driver/Src/stm32l4xx_hal_lptim.c ****         /* Legacy weak Up-counting direction change Callback */
2397:Drivers/STM32L4xx_HAL_Driver/Src/stm32l4xx_hal_lptim.c ****         hlptim->DirectionUpCallback = HAL_LPTIM_DirectionUpCallback;
2398:Drivers/STM32L4xx_HAL_Driver/Src/stm32l4xx_hal_lptim.c ****         break;
2399:Drivers/STM32L4xx_HAL_Driver/Src/stm32l4xx_hal_lptim.c **** 
2400:Drivers/STM32L4xx_HAL_Driver/Src/stm32l4xx_hal_lptim.c ****       case HAL_LPTIM_DIRECTION_DOWN_CB_ID :
2401:Drivers/STM32L4xx_HAL_Driver/Src/stm32l4xx_hal_lptim.c ****         /* Legacy weak Down-counting direction change Callback */
2402:Drivers/STM32L4xx_HAL_Driver/Src/stm32l4xx_hal_lptim.c ****         hlptim->DirectionDownCallback = HAL_LPTIM_DirectionDownCallback;
2403:Drivers/STM32L4xx_HAL_Driver/Src/stm32l4xx_hal_lptim.c ****         break;
2404:Drivers/STM32L4xx_HAL_Driver/Src/stm32l4xx_hal_lptim.c **** #if defined(LPTIM_RCR_REP)
2405:Drivers/STM32L4xx_HAL_Driver/Src/stm32l4xx_hal_lptim.c **** 
2406:Drivers/STM32L4xx_HAL_Driver/Src/stm32l4xx_hal_lptim.c ****       case HAL_LPTIM_UPDATE_EVENT_CB_ID :
2407:Drivers/STM32L4xx_HAL_Driver/Src/stm32l4xx_hal_lptim.c ****         /* Legacy weak Update event detection Callback */
2408:Drivers/STM32L4xx_HAL_Driver/Src/stm32l4xx_hal_lptim.c ****         hlptim->UpdateEventCallback = HAL_LPTIM_UpdateEventCallback;
2409:Drivers/STM32L4xx_HAL_Driver/Src/stm32l4xx_hal_lptim.c ****         break;
2410:Drivers/STM32L4xx_HAL_Driver/Src/stm32l4xx_hal_lptim.c **** 
2411:Drivers/STM32L4xx_HAL_Driver/Src/stm32l4xx_hal_lptim.c ****       case HAL_LPTIM_REP_COUNTER_WRITE_CB_ID :
2412:Drivers/STM32L4xx_HAL_Driver/Src/stm32l4xx_hal_lptim.c ****         /* Legacy weak Repetition counter register write complete Callback */
2413:Drivers/STM32L4xx_HAL_Driver/Src/stm32l4xx_hal_lptim.c ****         hlptim->RepCounterWriteCallback = HAL_LPTIM_RepCounterWriteCallback;
2414:Drivers/STM32L4xx_HAL_Driver/Src/stm32l4xx_hal_lptim.c ****         break;
2415:Drivers/STM32L4xx_HAL_Driver/Src/stm32l4xx_hal_lptim.c **** #endif
2416:Drivers/STM32L4xx_HAL_Driver/Src/stm32l4xx_hal_lptim.c **** 
2417:Drivers/STM32L4xx_HAL_Driver/Src/stm32l4xx_hal_lptim.c ****       default :
2418:Drivers/STM32L4xx_HAL_Driver/Src/stm32l4xx_hal_lptim.c ****         /* Return error status */
2419:Drivers/STM32L4xx_HAL_Driver/Src/stm32l4xx_hal_lptim.c ****         status =  HAL_ERROR;
2420:Drivers/STM32L4xx_HAL_Driver/Src/stm32l4xx_hal_lptim.c ****         break;
2421:Drivers/STM32L4xx_HAL_Driver/Src/stm32l4xx_hal_lptim.c ****     }
2422:Drivers/STM32L4xx_HAL_Driver/Src/stm32l4xx_hal_lptim.c ****   }
2423:Drivers/STM32L4xx_HAL_Driver/Src/stm32l4xx_hal_lptim.c ****   else if (hlptim->State == HAL_LPTIM_STATE_RESET)
2424:Drivers/STM32L4xx_HAL_Driver/Src/stm32l4xx_hal_lptim.c ****   {
ARM GAS  /tmp/ccB7T7H1.s 			page 108


2425:Drivers/STM32L4xx_HAL_Driver/Src/stm32l4xx_hal_lptim.c ****     switch (CallbackID)
2426:Drivers/STM32L4xx_HAL_Driver/Src/stm32l4xx_hal_lptim.c ****     {
2427:Drivers/STM32L4xx_HAL_Driver/Src/stm32l4xx_hal_lptim.c ****       case HAL_LPTIM_MSPINIT_CB_ID :
2428:Drivers/STM32L4xx_HAL_Driver/Src/stm32l4xx_hal_lptim.c ****         /* Legacy weak MspInit Callback */
2429:Drivers/STM32L4xx_HAL_Driver/Src/stm32l4xx_hal_lptim.c ****         hlptim->MspInitCallback = HAL_LPTIM_MspInit;
2430:Drivers/STM32L4xx_HAL_Driver/Src/stm32l4xx_hal_lptim.c ****         break;
2431:Drivers/STM32L4xx_HAL_Driver/Src/stm32l4xx_hal_lptim.c **** 
2432:Drivers/STM32L4xx_HAL_Driver/Src/stm32l4xx_hal_lptim.c ****       case HAL_LPTIM_MSPDEINIT_CB_ID :
2433:Drivers/STM32L4xx_HAL_Driver/Src/stm32l4xx_hal_lptim.c ****         /* Legacy weak Msp DeInit Callback */
2434:Drivers/STM32L4xx_HAL_Driver/Src/stm32l4xx_hal_lptim.c ****         hlptim->MspDeInitCallback = HAL_LPTIM_MspDeInit;
2435:Drivers/STM32L4xx_HAL_Driver/Src/stm32l4xx_hal_lptim.c ****         break;
2436:Drivers/STM32L4xx_HAL_Driver/Src/stm32l4xx_hal_lptim.c **** 
2437:Drivers/STM32L4xx_HAL_Driver/Src/stm32l4xx_hal_lptim.c ****       default :
2438:Drivers/STM32L4xx_HAL_Driver/Src/stm32l4xx_hal_lptim.c ****         /* Return error status */
2439:Drivers/STM32L4xx_HAL_Driver/Src/stm32l4xx_hal_lptim.c ****         status =  HAL_ERROR;
2440:Drivers/STM32L4xx_HAL_Driver/Src/stm32l4xx_hal_lptim.c ****         break;
2441:Drivers/STM32L4xx_HAL_Driver/Src/stm32l4xx_hal_lptim.c ****     }
2442:Drivers/STM32L4xx_HAL_Driver/Src/stm32l4xx_hal_lptim.c ****   }
2443:Drivers/STM32L4xx_HAL_Driver/Src/stm32l4xx_hal_lptim.c ****   else
2444:Drivers/STM32L4xx_HAL_Driver/Src/stm32l4xx_hal_lptim.c ****   {
2445:Drivers/STM32L4xx_HAL_Driver/Src/stm32l4xx_hal_lptim.c ****     /* Return error status */
2446:Drivers/STM32L4xx_HAL_Driver/Src/stm32l4xx_hal_lptim.c ****     status =  HAL_ERROR;
2447:Drivers/STM32L4xx_HAL_Driver/Src/stm32l4xx_hal_lptim.c ****   }
2448:Drivers/STM32L4xx_HAL_Driver/Src/stm32l4xx_hal_lptim.c **** 
2449:Drivers/STM32L4xx_HAL_Driver/Src/stm32l4xx_hal_lptim.c ****   return status;
2450:Drivers/STM32L4xx_HAL_Driver/Src/stm32l4xx_hal_lptim.c **** }
2451:Drivers/STM32L4xx_HAL_Driver/Src/stm32l4xx_hal_lptim.c **** #endif /* USE_HAL_LPTIM_REGISTER_CALLBACKS */
2452:Drivers/STM32L4xx_HAL_Driver/Src/stm32l4xx_hal_lptim.c **** 
2453:Drivers/STM32L4xx_HAL_Driver/Src/stm32l4xx_hal_lptim.c **** /**
2454:Drivers/STM32L4xx_HAL_Driver/Src/stm32l4xx_hal_lptim.c ****   * @}
2455:Drivers/STM32L4xx_HAL_Driver/Src/stm32l4xx_hal_lptim.c ****   */
2456:Drivers/STM32L4xx_HAL_Driver/Src/stm32l4xx_hal_lptim.c **** 
2457:Drivers/STM32L4xx_HAL_Driver/Src/stm32l4xx_hal_lptim.c **** /** @defgroup LPTIM_Group5 Peripheral State functions
2458:Drivers/STM32L4xx_HAL_Driver/Src/stm32l4xx_hal_lptim.c ****   *  @brief   Peripheral State functions.
2459:Drivers/STM32L4xx_HAL_Driver/Src/stm32l4xx_hal_lptim.c ****   *
2460:Drivers/STM32L4xx_HAL_Driver/Src/stm32l4xx_hal_lptim.c **** @verbatim
2461:Drivers/STM32L4xx_HAL_Driver/Src/stm32l4xx_hal_lptim.c ****   ==============================================================================
2462:Drivers/STM32L4xx_HAL_Driver/Src/stm32l4xx_hal_lptim.c ****                       ##### Peripheral State functions #####
2463:Drivers/STM32L4xx_HAL_Driver/Src/stm32l4xx_hal_lptim.c ****   ==============================================================================
2464:Drivers/STM32L4xx_HAL_Driver/Src/stm32l4xx_hal_lptim.c ****     [..]
2465:Drivers/STM32L4xx_HAL_Driver/Src/stm32l4xx_hal_lptim.c ****     This subsection permits to get in run-time the status of the peripheral.
2466:Drivers/STM32L4xx_HAL_Driver/Src/stm32l4xx_hal_lptim.c **** 
2467:Drivers/STM32L4xx_HAL_Driver/Src/stm32l4xx_hal_lptim.c **** @endverbatim
2468:Drivers/STM32L4xx_HAL_Driver/Src/stm32l4xx_hal_lptim.c ****   * @{
2469:Drivers/STM32L4xx_HAL_Driver/Src/stm32l4xx_hal_lptim.c ****   */
2470:Drivers/STM32L4xx_HAL_Driver/Src/stm32l4xx_hal_lptim.c **** 
2471:Drivers/STM32L4xx_HAL_Driver/Src/stm32l4xx_hal_lptim.c **** /**
2472:Drivers/STM32L4xx_HAL_Driver/Src/stm32l4xx_hal_lptim.c ****   * @brief  Return the LPTIM handle state.
2473:Drivers/STM32L4xx_HAL_Driver/Src/stm32l4xx_hal_lptim.c ****   * @param  hlptim LPTIM handle
2474:Drivers/STM32L4xx_HAL_Driver/Src/stm32l4xx_hal_lptim.c ****   * @retval HAL state
2475:Drivers/STM32L4xx_HAL_Driver/Src/stm32l4xx_hal_lptim.c ****   */
2476:Drivers/STM32L4xx_HAL_Driver/Src/stm32l4xx_hal_lptim.c **** HAL_LPTIM_StateTypeDef HAL_LPTIM_GetState(const LPTIM_HandleTypeDef *hlptim)
2477:Drivers/STM32L4xx_HAL_Driver/Src/stm32l4xx_hal_lptim.c **** {
 3744              		.loc 1 2477 1
 3745              		.cfi_startproc
 3746              		@ args = 0, pretend = 0, frame = 8
 3747              		@ frame_needed = 1, uses_anonymous_args = 0
ARM GAS  /tmp/ccB7T7H1.s 			page 109


 3748              		@ link register save eliminated.
 3749 0000 80B4     		push	{r7}
 3750              		.cfi_def_cfa_offset 4
 3751              		.cfi_offset 7, -4
 3752 0002 83B0     		sub	sp, sp, #12
 3753              		.cfi_def_cfa_offset 16
 3754 0004 00AF     		add	r7, sp, #0
 3755              		.cfi_def_cfa_register 7
 3756 0006 7860     		str	r0, [r7, #4]
2478:Drivers/STM32L4xx_HAL_Driver/Src/stm32l4xx_hal_lptim.c ****   /* Return LPTIM handle state */
2479:Drivers/STM32L4xx_HAL_Driver/Src/stm32l4xx_hal_lptim.c ****   return hlptim->State;
 3757              		.loc 1 2479 16
 3758 0008 7B68     		ldr	r3, [r7, #4]
 3759 000a 93F83630 		ldrb	r3, [r3, #54]
 3760 000e DBB2     		uxtb	r3, r3
2480:Drivers/STM32L4xx_HAL_Driver/Src/stm32l4xx_hal_lptim.c **** }
 3761              		.loc 1 2480 1
 3762 0010 1846     		mov	r0, r3
 3763 0012 0C37     		adds	r7, r7, #12
 3764              		.cfi_def_cfa_offset 4
 3765 0014 BD46     		mov	sp, r7
 3766              		.cfi_def_cfa_register 13
 3767              		@ sp needed
 3768 0016 5DF8047B 		ldr	r7, [sp], #4
 3769              		.cfi_restore 7
 3770              		.cfi_def_cfa_offset 0
 3771 001a 7047     		bx	lr
 3772              		.cfi_endproc
 3773              	.LFE484:
 3775              		.section	.text.LPTIM_WaitForFlag,"ax",%progbits
 3776              		.align	1
 3777              		.syntax unified
 3778              		.thumb
 3779              		.thumb_func
 3781              	LPTIM_WaitForFlag:
 3782              	.LFB485:
2481:Drivers/STM32L4xx_HAL_Driver/Src/stm32l4xx_hal_lptim.c **** 
2482:Drivers/STM32L4xx_HAL_Driver/Src/stm32l4xx_hal_lptim.c **** /**
2483:Drivers/STM32L4xx_HAL_Driver/Src/stm32l4xx_hal_lptim.c ****   * @}
2484:Drivers/STM32L4xx_HAL_Driver/Src/stm32l4xx_hal_lptim.c ****   */
2485:Drivers/STM32L4xx_HAL_Driver/Src/stm32l4xx_hal_lptim.c **** 
2486:Drivers/STM32L4xx_HAL_Driver/Src/stm32l4xx_hal_lptim.c **** 
2487:Drivers/STM32L4xx_HAL_Driver/Src/stm32l4xx_hal_lptim.c **** /**
2488:Drivers/STM32L4xx_HAL_Driver/Src/stm32l4xx_hal_lptim.c ****   * @}
2489:Drivers/STM32L4xx_HAL_Driver/Src/stm32l4xx_hal_lptim.c ****   */
2490:Drivers/STM32L4xx_HAL_Driver/Src/stm32l4xx_hal_lptim.c **** 
2491:Drivers/STM32L4xx_HAL_Driver/Src/stm32l4xx_hal_lptim.c **** /* Private functions ---------------------------------------------------------*/
2492:Drivers/STM32L4xx_HAL_Driver/Src/stm32l4xx_hal_lptim.c **** 
2493:Drivers/STM32L4xx_HAL_Driver/Src/stm32l4xx_hal_lptim.c **** /** @defgroup LPTIM_Private_Functions LPTIM Private Functions
2494:Drivers/STM32L4xx_HAL_Driver/Src/stm32l4xx_hal_lptim.c ****   * @{
2495:Drivers/STM32L4xx_HAL_Driver/Src/stm32l4xx_hal_lptim.c ****   */
2496:Drivers/STM32L4xx_HAL_Driver/Src/stm32l4xx_hal_lptim.c **** #if (USE_HAL_LPTIM_REGISTER_CALLBACKS == 1)
2497:Drivers/STM32L4xx_HAL_Driver/Src/stm32l4xx_hal_lptim.c **** /**
2498:Drivers/STM32L4xx_HAL_Driver/Src/stm32l4xx_hal_lptim.c ****   * @brief  Reset interrupt callbacks to the legacy weak callbacks.
2499:Drivers/STM32L4xx_HAL_Driver/Src/stm32l4xx_hal_lptim.c ****   * @param  lptim pointer to a LPTIM_HandleTypeDef structure that contains
2500:Drivers/STM32L4xx_HAL_Driver/Src/stm32l4xx_hal_lptim.c ****   *                the configuration information for LPTIM module.
2501:Drivers/STM32L4xx_HAL_Driver/Src/stm32l4xx_hal_lptim.c ****   * @retval None
ARM GAS  /tmp/ccB7T7H1.s 			page 110


2502:Drivers/STM32L4xx_HAL_Driver/Src/stm32l4xx_hal_lptim.c ****   */
2503:Drivers/STM32L4xx_HAL_Driver/Src/stm32l4xx_hal_lptim.c **** static void LPTIM_ResetCallback(LPTIM_HandleTypeDef *lptim)
2504:Drivers/STM32L4xx_HAL_Driver/Src/stm32l4xx_hal_lptim.c **** {
2505:Drivers/STM32L4xx_HAL_Driver/Src/stm32l4xx_hal_lptim.c ****   /* Reset the LPTIM callback to the legacy weak callbacks */
2506:Drivers/STM32L4xx_HAL_Driver/Src/stm32l4xx_hal_lptim.c ****   lptim->CompareMatchCallback    = HAL_LPTIM_CompareMatchCallback;
2507:Drivers/STM32L4xx_HAL_Driver/Src/stm32l4xx_hal_lptim.c ****   lptim->AutoReloadMatchCallback = HAL_LPTIM_AutoReloadMatchCallback;
2508:Drivers/STM32L4xx_HAL_Driver/Src/stm32l4xx_hal_lptim.c ****   lptim->TriggerCallback         = HAL_LPTIM_TriggerCallback;
2509:Drivers/STM32L4xx_HAL_Driver/Src/stm32l4xx_hal_lptim.c ****   lptim->CompareWriteCallback    = HAL_LPTIM_CompareWriteCallback;
2510:Drivers/STM32L4xx_HAL_Driver/Src/stm32l4xx_hal_lptim.c ****   lptim->AutoReloadWriteCallback = HAL_LPTIM_AutoReloadWriteCallback;
2511:Drivers/STM32L4xx_HAL_Driver/Src/stm32l4xx_hal_lptim.c ****   lptim->DirectionUpCallback     = HAL_LPTIM_DirectionUpCallback;
2512:Drivers/STM32L4xx_HAL_Driver/Src/stm32l4xx_hal_lptim.c ****   lptim->DirectionDownCallback   = HAL_LPTIM_DirectionDownCallback;
2513:Drivers/STM32L4xx_HAL_Driver/Src/stm32l4xx_hal_lptim.c **** #if defined(LPTIM_RCR_REP)
2514:Drivers/STM32L4xx_HAL_Driver/Src/stm32l4xx_hal_lptim.c ****   lptim->UpdateEventCallback = HAL_LPTIM_UpdateEventCallback;
2515:Drivers/STM32L4xx_HAL_Driver/Src/stm32l4xx_hal_lptim.c ****   lptim->RepCounterWriteCallback = HAL_LPTIM_RepCounterWriteCallback;
2516:Drivers/STM32L4xx_HAL_Driver/Src/stm32l4xx_hal_lptim.c **** #endif
2517:Drivers/STM32L4xx_HAL_Driver/Src/stm32l4xx_hal_lptim.c **** }
2518:Drivers/STM32L4xx_HAL_Driver/Src/stm32l4xx_hal_lptim.c **** #endif /* USE_HAL_LPTIM_REGISTER_CALLBACKS */
2519:Drivers/STM32L4xx_HAL_Driver/Src/stm32l4xx_hal_lptim.c **** 
2520:Drivers/STM32L4xx_HAL_Driver/Src/stm32l4xx_hal_lptim.c **** /**
2521:Drivers/STM32L4xx_HAL_Driver/Src/stm32l4xx_hal_lptim.c ****   * @brief  LPTimer Wait for flag set
2522:Drivers/STM32L4xx_HAL_Driver/Src/stm32l4xx_hal_lptim.c ****   * @param  hlptim pointer to a LPTIM_HandleTypeDef structure that contains
2523:Drivers/STM32L4xx_HAL_Driver/Src/stm32l4xx_hal_lptim.c ****   *                the configuration information for LPTIM module.
2524:Drivers/STM32L4xx_HAL_Driver/Src/stm32l4xx_hal_lptim.c ****   * @param  flag   The lptim flag
2525:Drivers/STM32L4xx_HAL_Driver/Src/stm32l4xx_hal_lptim.c ****   * @retval HAL status
2526:Drivers/STM32L4xx_HAL_Driver/Src/stm32l4xx_hal_lptim.c ****   */
2527:Drivers/STM32L4xx_HAL_Driver/Src/stm32l4xx_hal_lptim.c **** static HAL_StatusTypeDef LPTIM_WaitForFlag(const LPTIM_HandleTypeDef *hlptim, uint32_t flag)
2528:Drivers/STM32L4xx_HAL_Driver/Src/stm32l4xx_hal_lptim.c **** {
 3783              		.loc 1 2528 1
 3784              		.cfi_startproc
 3785              		@ args = 0, pretend = 0, frame = 16
 3786              		@ frame_needed = 1, uses_anonymous_args = 0
 3787              		@ link register save eliminated.
 3788 0000 80B4     		push	{r7}
 3789              		.cfi_def_cfa_offset 4
 3790              		.cfi_offset 7, -4
 3791 0002 85B0     		sub	sp, sp, #20
 3792              		.cfi_def_cfa_offset 24
 3793 0004 00AF     		add	r7, sp, #0
 3794              		.cfi_def_cfa_register 7
 3795 0006 7860     		str	r0, [r7, #4]
 3796 0008 3960     		str	r1, [r7]
2529:Drivers/STM32L4xx_HAL_Driver/Src/stm32l4xx_hal_lptim.c ****   HAL_StatusTypeDef result = HAL_OK;
 3797              		.loc 1 2529 21
 3798 000a 0023     		movs	r3, #0
 3799 000c FB73     		strb	r3, [r7, #15]
2530:Drivers/STM32L4xx_HAL_Driver/Src/stm32l4xx_hal_lptim.c ****   uint32_t count = TIMEOUT * (SystemCoreClock / 20UL / 1000UL);
 3800              		.loc 1 2530 54
 3801 000e 124B     		ldr	r3, .L162
 3802 0010 1B68     		ldr	r3, [r3]
 3803 0012 124A     		ldr	r2, .L162+4
 3804 0014 A2FB0323 		umull	r2, r3, r2, r3
 3805 0018 9B0B     		lsrs	r3, r3, #14
 3806              		.loc 1 2530 12
 3807 001a 4FF47A72 		mov	r2, #1000
 3808 001e 02FB03F3 		mul	r3, r2, r3
 3809 0022 BB60     		str	r3, [r7, #8]
 3810              	.L160:
ARM GAS  /tmp/ccB7T7H1.s 			page 111


2531:Drivers/STM32L4xx_HAL_Driver/Src/stm32l4xx_hal_lptim.c ****   do
2532:Drivers/STM32L4xx_HAL_Driver/Src/stm32l4xx_hal_lptim.c ****   {
2533:Drivers/STM32L4xx_HAL_Driver/Src/stm32l4xx_hal_lptim.c ****     count--;
 3811              		.loc 1 2533 10
 3812 0024 BB68     		ldr	r3, [r7, #8]
 3813 0026 013B     		subs	r3, r3, #1
 3814 0028 BB60     		str	r3, [r7, #8]
2534:Drivers/STM32L4xx_HAL_Driver/Src/stm32l4xx_hal_lptim.c ****     if (count == 0UL)
 3815              		.loc 1 2534 8
 3816 002a BB68     		ldr	r3, [r7, #8]
 3817 002c 002B     		cmp	r3, #0
 3818 002e 01D1     		bne	.L158
2535:Drivers/STM32L4xx_HAL_Driver/Src/stm32l4xx_hal_lptim.c ****     {
2536:Drivers/STM32L4xx_HAL_Driver/Src/stm32l4xx_hal_lptim.c ****       result = HAL_TIMEOUT;
 3819              		.loc 1 2536 14
 3820 0030 0323     		movs	r3, #3
 3821 0032 FB73     		strb	r3, [r7, #15]
 3822              	.L158:
2537:Drivers/STM32L4xx_HAL_Driver/Src/stm32l4xx_hal_lptim.c ****     }
2538:Drivers/STM32L4xx_HAL_Driver/Src/stm32l4xx_hal_lptim.c ****   } while ((!(__HAL_LPTIM_GET_FLAG((hlptim), (flag)))) && (count != 0UL));
 3823              		.loc 1 2538 15
 3824 0034 7B68     		ldr	r3, [r7, #4]
 3825 0036 1B68     		ldr	r3, [r3]
 3826 0038 1A68     		ldr	r2, [r3]
 3827 003a 3B68     		ldr	r3, [r7]
 3828 003c 1340     		ands	r3, r3, r2
 3829              		.loc 1 2538 56
 3830 003e 3A68     		ldr	r2, [r7]
 3831 0040 9A42     		cmp	r2, r3
 3832 0042 02D0     		beq	.L159
 3833              		.loc 1 2538 56 is_stmt 0 discriminator 1
 3834 0044 BB68     		ldr	r3, [r7, #8]
 3835 0046 002B     		cmp	r3, #0
 3836 0048 ECD1     		bne	.L160
 3837              	.L159:
2539:Drivers/STM32L4xx_HAL_Driver/Src/stm32l4xx_hal_lptim.c **** 
2540:Drivers/STM32L4xx_HAL_Driver/Src/stm32l4xx_hal_lptim.c ****   return result;
 3838              		.loc 1 2540 10 is_stmt 1
 3839 004a FB7B     		ldrb	r3, [r7, #15]	@ zero_extendqisi2
2541:Drivers/STM32L4xx_HAL_Driver/Src/stm32l4xx_hal_lptim.c **** }
 3840              		.loc 1 2541 1
 3841 004c 1846     		mov	r0, r3
 3842 004e 1437     		adds	r7, r7, #20
 3843              		.cfi_def_cfa_offset 4
 3844 0050 BD46     		mov	sp, r7
 3845              		.cfi_def_cfa_register 13
 3846              		@ sp needed
 3847 0052 5DF8047B 		ldr	r7, [sp], #4
 3848              		.cfi_restore 7
 3849              		.cfi_def_cfa_offset 0
 3850 0056 7047     		bx	lr
 3851              	.L163:
 3852              		.align	2
 3853              	.L162:
 3854 0058 00000000 		.word	SystemCoreClock
 3855 005c 5917B7D1 		.word	-776530087
 3856              		.cfi_endproc
ARM GAS  /tmp/ccB7T7H1.s 			page 112


 3857              	.LFE485:
 3859              		.section	.text.LPTIM_Disable,"ax",%progbits
 3860              		.align	1
 3861              		.global	LPTIM_Disable
 3862              		.syntax unified
 3863              		.thumb
 3864              		.thumb_func
 3866              	LPTIM_Disable:
 3867              	.LFB486:
2542:Drivers/STM32L4xx_HAL_Driver/Src/stm32l4xx_hal_lptim.c **** 
2543:Drivers/STM32L4xx_HAL_Driver/Src/stm32l4xx_hal_lptim.c **** /**
2544:Drivers/STM32L4xx_HAL_Driver/Src/stm32l4xx_hal_lptim.c ****   * @brief  Disable LPTIM HW instance.
2545:Drivers/STM32L4xx_HAL_Driver/Src/stm32l4xx_hal_lptim.c ****   * @param  hlptim pointer to a LPTIM_HandleTypeDef structure that contains
2546:Drivers/STM32L4xx_HAL_Driver/Src/stm32l4xx_hal_lptim.c ****   *                the configuration information for LPTIM module.
2547:Drivers/STM32L4xx_HAL_Driver/Src/stm32l4xx_hal_lptim.c ****   * @note   The following sequence is required to solve LPTIM disable HW limitation.
2548:Drivers/STM32L4xx_HAL_Driver/Src/stm32l4xx_hal_lptim.c ****   *         Please check Errata Sheet ES0335 for more details under "MCU may remain
2549:Drivers/STM32L4xx_HAL_Driver/Src/stm32l4xx_hal_lptim.c ****   *         stuck in LPTIM interrupt when entering Stop mode" section.
2550:Drivers/STM32L4xx_HAL_Driver/Src/stm32l4xx_hal_lptim.c ****   * @retval None
2551:Drivers/STM32L4xx_HAL_Driver/Src/stm32l4xx_hal_lptim.c ****   */
2552:Drivers/STM32L4xx_HAL_Driver/Src/stm32l4xx_hal_lptim.c **** void LPTIM_Disable(LPTIM_HandleTypeDef *hlptim)
2553:Drivers/STM32L4xx_HAL_Driver/Src/stm32l4xx_hal_lptim.c **** {
 3868              		.loc 1 2553 1
 3869              		.cfi_startproc
 3870              		@ args = 0, pretend = 0, frame = 48
 3871              		@ frame_needed = 1, uses_anonymous_args = 0
 3872 0000 80B5     		push	{r7, lr}
 3873              		.cfi_def_cfa_offset 8
 3874              		.cfi_offset 7, -8
 3875              		.cfi_offset 14, -4
 3876 0002 8CB0     		sub	sp, sp, #48
 3877              		.cfi_def_cfa_offset 56
 3878 0004 00AF     		add	r7, sp, #0
 3879              		.cfi_def_cfa_register 7
 3880 0006 7860     		str	r0, [r7, #4]
2554:Drivers/STM32L4xx_HAL_Driver/Src/stm32l4xx_hal_lptim.c ****   uint32_t tmpclksource = 0;
 3881              		.loc 1 2554 12
 3882 0008 0023     		movs	r3, #0
 3883 000a FB62     		str	r3, [r7, #44]
 3884              	.LBB8:
 3885              	.LBB9:
 3886              		.file 2 "Drivers/CMSIS/Core/Include/cmsis_gcc.h"
   1:Drivers/CMSIS/Core/Include/cmsis_gcc.h **** /**************************************************************************//**
   2:Drivers/CMSIS/Core/Include/cmsis_gcc.h ****  * @file     cmsis_gcc.h
   3:Drivers/CMSIS/Core/Include/cmsis_gcc.h ****  * @brief    CMSIS compiler GCC header file
   4:Drivers/CMSIS/Core/Include/cmsis_gcc.h ****  * @version  V5.2.0
   5:Drivers/CMSIS/Core/Include/cmsis_gcc.h ****  * @date     08. May 2019
   6:Drivers/CMSIS/Core/Include/cmsis_gcc.h ****  ******************************************************************************/
   7:Drivers/CMSIS/Core/Include/cmsis_gcc.h **** /*
   8:Drivers/CMSIS/Core/Include/cmsis_gcc.h ****  * Copyright (c) 2009-2019 Arm Limited. All rights reserved.
   9:Drivers/CMSIS/Core/Include/cmsis_gcc.h ****  *
  10:Drivers/CMSIS/Core/Include/cmsis_gcc.h ****  * SPDX-License-Identifier: Apache-2.0
  11:Drivers/CMSIS/Core/Include/cmsis_gcc.h ****  *
  12:Drivers/CMSIS/Core/Include/cmsis_gcc.h ****  * Licensed under the Apache License, Version 2.0 (the License); you may
  13:Drivers/CMSIS/Core/Include/cmsis_gcc.h ****  * not use this file except in compliance with the License.
  14:Drivers/CMSIS/Core/Include/cmsis_gcc.h ****  * You may obtain a copy of the License at
  15:Drivers/CMSIS/Core/Include/cmsis_gcc.h ****  *
  16:Drivers/CMSIS/Core/Include/cmsis_gcc.h ****  * www.apache.org/licenses/LICENSE-2.0
ARM GAS  /tmp/ccB7T7H1.s 			page 113


  17:Drivers/CMSIS/Core/Include/cmsis_gcc.h ****  *
  18:Drivers/CMSIS/Core/Include/cmsis_gcc.h ****  * Unless required by applicable law or agreed to in writing, software
  19:Drivers/CMSIS/Core/Include/cmsis_gcc.h ****  * distributed under the License is distributed on an AS IS BASIS, WITHOUT
  20:Drivers/CMSIS/Core/Include/cmsis_gcc.h ****  * WARRANTIES OR CONDITIONS OF ANY KIND, either express or implied.
  21:Drivers/CMSIS/Core/Include/cmsis_gcc.h ****  * See the License for the specific language governing permissions and
  22:Drivers/CMSIS/Core/Include/cmsis_gcc.h ****  * limitations under the License.
  23:Drivers/CMSIS/Core/Include/cmsis_gcc.h ****  */
  24:Drivers/CMSIS/Core/Include/cmsis_gcc.h **** 
  25:Drivers/CMSIS/Core/Include/cmsis_gcc.h **** #ifndef __CMSIS_GCC_H
  26:Drivers/CMSIS/Core/Include/cmsis_gcc.h **** #define __CMSIS_GCC_H
  27:Drivers/CMSIS/Core/Include/cmsis_gcc.h **** 
  28:Drivers/CMSIS/Core/Include/cmsis_gcc.h **** /* ignore some GCC warnings */
  29:Drivers/CMSIS/Core/Include/cmsis_gcc.h **** #pragma GCC diagnostic push
  30:Drivers/CMSIS/Core/Include/cmsis_gcc.h **** #pragma GCC diagnostic ignored "-Wsign-conversion"
  31:Drivers/CMSIS/Core/Include/cmsis_gcc.h **** #pragma GCC diagnostic ignored "-Wconversion"
  32:Drivers/CMSIS/Core/Include/cmsis_gcc.h **** #pragma GCC diagnostic ignored "-Wunused-parameter"
  33:Drivers/CMSIS/Core/Include/cmsis_gcc.h **** 
  34:Drivers/CMSIS/Core/Include/cmsis_gcc.h **** /* Fallback for __has_builtin */
  35:Drivers/CMSIS/Core/Include/cmsis_gcc.h **** #ifndef __has_builtin
  36:Drivers/CMSIS/Core/Include/cmsis_gcc.h ****   #define __has_builtin(x) (0)
  37:Drivers/CMSIS/Core/Include/cmsis_gcc.h **** #endif
  38:Drivers/CMSIS/Core/Include/cmsis_gcc.h **** 
  39:Drivers/CMSIS/Core/Include/cmsis_gcc.h **** /* CMSIS compiler specific defines */
  40:Drivers/CMSIS/Core/Include/cmsis_gcc.h **** #ifndef   __ASM
  41:Drivers/CMSIS/Core/Include/cmsis_gcc.h ****   #define __ASM                                  __asm
  42:Drivers/CMSIS/Core/Include/cmsis_gcc.h **** #endif
  43:Drivers/CMSIS/Core/Include/cmsis_gcc.h **** #ifndef   __INLINE
  44:Drivers/CMSIS/Core/Include/cmsis_gcc.h ****   #define __INLINE                               inline
  45:Drivers/CMSIS/Core/Include/cmsis_gcc.h **** #endif
  46:Drivers/CMSIS/Core/Include/cmsis_gcc.h **** #ifndef   __STATIC_INLINE
  47:Drivers/CMSIS/Core/Include/cmsis_gcc.h ****   #define __STATIC_INLINE                        static inline
  48:Drivers/CMSIS/Core/Include/cmsis_gcc.h **** #endif
  49:Drivers/CMSIS/Core/Include/cmsis_gcc.h **** #ifndef   __STATIC_FORCEINLINE                 
  50:Drivers/CMSIS/Core/Include/cmsis_gcc.h ****   #define __STATIC_FORCEINLINE                   __attribute__((always_inline)) static inline
  51:Drivers/CMSIS/Core/Include/cmsis_gcc.h **** #endif                                           
  52:Drivers/CMSIS/Core/Include/cmsis_gcc.h **** #ifndef   __NO_RETURN
  53:Drivers/CMSIS/Core/Include/cmsis_gcc.h ****   #define __NO_RETURN                            __attribute__((__noreturn__))
  54:Drivers/CMSIS/Core/Include/cmsis_gcc.h **** #endif
  55:Drivers/CMSIS/Core/Include/cmsis_gcc.h **** #ifndef   __USED
  56:Drivers/CMSIS/Core/Include/cmsis_gcc.h ****   #define __USED                                 __attribute__((used))
  57:Drivers/CMSIS/Core/Include/cmsis_gcc.h **** #endif
  58:Drivers/CMSIS/Core/Include/cmsis_gcc.h **** #ifndef   __WEAK
  59:Drivers/CMSIS/Core/Include/cmsis_gcc.h ****   #define __WEAK                                 __attribute__((weak))
  60:Drivers/CMSIS/Core/Include/cmsis_gcc.h **** #endif
  61:Drivers/CMSIS/Core/Include/cmsis_gcc.h **** #ifndef   __PACKED
  62:Drivers/CMSIS/Core/Include/cmsis_gcc.h ****   #define __PACKED                               __attribute__((packed, aligned(1)))
  63:Drivers/CMSIS/Core/Include/cmsis_gcc.h **** #endif
  64:Drivers/CMSIS/Core/Include/cmsis_gcc.h **** #ifndef   __PACKED_STRUCT
  65:Drivers/CMSIS/Core/Include/cmsis_gcc.h ****   #define __PACKED_STRUCT                        struct __attribute__((packed, aligned(1)))
  66:Drivers/CMSIS/Core/Include/cmsis_gcc.h **** #endif
  67:Drivers/CMSIS/Core/Include/cmsis_gcc.h **** #ifndef   __PACKED_UNION
  68:Drivers/CMSIS/Core/Include/cmsis_gcc.h ****   #define __PACKED_UNION                         union __attribute__((packed, aligned(1)))
  69:Drivers/CMSIS/Core/Include/cmsis_gcc.h **** #endif
  70:Drivers/CMSIS/Core/Include/cmsis_gcc.h **** #ifndef   __UNALIGNED_UINT32        /* deprecated */
  71:Drivers/CMSIS/Core/Include/cmsis_gcc.h ****   #pragma GCC diagnostic push
  72:Drivers/CMSIS/Core/Include/cmsis_gcc.h ****   #pragma GCC diagnostic ignored "-Wpacked"
  73:Drivers/CMSIS/Core/Include/cmsis_gcc.h ****   #pragma GCC diagnostic ignored "-Wattributes"
ARM GAS  /tmp/ccB7T7H1.s 			page 114


  74:Drivers/CMSIS/Core/Include/cmsis_gcc.h ****   struct __attribute__((packed)) T_UINT32 { uint32_t v; };
  75:Drivers/CMSIS/Core/Include/cmsis_gcc.h ****   #pragma GCC diagnostic pop
  76:Drivers/CMSIS/Core/Include/cmsis_gcc.h ****   #define __UNALIGNED_UINT32(x)                  (((struct T_UINT32 *)(x))->v)
  77:Drivers/CMSIS/Core/Include/cmsis_gcc.h **** #endif
  78:Drivers/CMSIS/Core/Include/cmsis_gcc.h **** #ifndef   __UNALIGNED_UINT16_WRITE
  79:Drivers/CMSIS/Core/Include/cmsis_gcc.h ****   #pragma GCC diagnostic push
  80:Drivers/CMSIS/Core/Include/cmsis_gcc.h ****   #pragma GCC diagnostic ignored "-Wpacked"
  81:Drivers/CMSIS/Core/Include/cmsis_gcc.h ****   #pragma GCC diagnostic ignored "-Wattributes"
  82:Drivers/CMSIS/Core/Include/cmsis_gcc.h ****   __PACKED_STRUCT T_UINT16_WRITE { uint16_t v; };
  83:Drivers/CMSIS/Core/Include/cmsis_gcc.h ****   #pragma GCC diagnostic pop
  84:Drivers/CMSIS/Core/Include/cmsis_gcc.h ****   #define __UNALIGNED_UINT16_WRITE(addr, val)    (void)((((struct T_UINT16_WRITE *)(void *)(addr))-
  85:Drivers/CMSIS/Core/Include/cmsis_gcc.h **** #endif
  86:Drivers/CMSIS/Core/Include/cmsis_gcc.h **** #ifndef   __UNALIGNED_UINT16_READ
  87:Drivers/CMSIS/Core/Include/cmsis_gcc.h ****   #pragma GCC diagnostic push
  88:Drivers/CMSIS/Core/Include/cmsis_gcc.h ****   #pragma GCC diagnostic ignored "-Wpacked"
  89:Drivers/CMSIS/Core/Include/cmsis_gcc.h ****   #pragma GCC diagnostic ignored "-Wattributes"
  90:Drivers/CMSIS/Core/Include/cmsis_gcc.h ****   __PACKED_STRUCT T_UINT16_READ { uint16_t v; };
  91:Drivers/CMSIS/Core/Include/cmsis_gcc.h ****   #pragma GCC diagnostic pop
  92:Drivers/CMSIS/Core/Include/cmsis_gcc.h ****   #define __UNALIGNED_UINT16_READ(addr)          (((const struct T_UINT16_READ *)(const void *)(add
  93:Drivers/CMSIS/Core/Include/cmsis_gcc.h **** #endif
  94:Drivers/CMSIS/Core/Include/cmsis_gcc.h **** #ifndef   __UNALIGNED_UINT32_WRITE
  95:Drivers/CMSIS/Core/Include/cmsis_gcc.h ****   #pragma GCC diagnostic push
  96:Drivers/CMSIS/Core/Include/cmsis_gcc.h ****   #pragma GCC diagnostic ignored "-Wpacked"
  97:Drivers/CMSIS/Core/Include/cmsis_gcc.h ****   #pragma GCC diagnostic ignored "-Wattributes"
  98:Drivers/CMSIS/Core/Include/cmsis_gcc.h ****   __PACKED_STRUCT T_UINT32_WRITE { uint32_t v; };
  99:Drivers/CMSIS/Core/Include/cmsis_gcc.h ****   #pragma GCC diagnostic pop
 100:Drivers/CMSIS/Core/Include/cmsis_gcc.h ****   #define __UNALIGNED_UINT32_WRITE(addr, val)    (void)((((struct T_UINT32_WRITE *)(void *)(addr))-
 101:Drivers/CMSIS/Core/Include/cmsis_gcc.h **** #endif
 102:Drivers/CMSIS/Core/Include/cmsis_gcc.h **** #ifndef   __UNALIGNED_UINT32_READ
 103:Drivers/CMSIS/Core/Include/cmsis_gcc.h ****   #pragma GCC diagnostic push
 104:Drivers/CMSIS/Core/Include/cmsis_gcc.h ****   #pragma GCC diagnostic ignored "-Wpacked"
 105:Drivers/CMSIS/Core/Include/cmsis_gcc.h ****   #pragma GCC diagnostic ignored "-Wattributes"
 106:Drivers/CMSIS/Core/Include/cmsis_gcc.h ****   __PACKED_STRUCT T_UINT32_READ { uint32_t v; };
 107:Drivers/CMSIS/Core/Include/cmsis_gcc.h ****   #pragma GCC diagnostic pop
 108:Drivers/CMSIS/Core/Include/cmsis_gcc.h ****   #define __UNALIGNED_UINT32_READ(addr)          (((const struct T_UINT32_READ *)(const void *)(add
 109:Drivers/CMSIS/Core/Include/cmsis_gcc.h **** #endif
 110:Drivers/CMSIS/Core/Include/cmsis_gcc.h **** #ifndef   __ALIGNED
 111:Drivers/CMSIS/Core/Include/cmsis_gcc.h ****   #define __ALIGNED(x)                           __attribute__((aligned(x)))
 112:Drivers/CMSIS/Core/Include/cmsis_gcc.h **** #endif
 113:Drivers/CMSIS/Core/Include/cmsis_gcc.h **** #ifndef   __RESTRICT
 114:Drivers/CMSIS/Core/Include/cmsis_gcc.h ****   #define __RESTRICT                             __restrict
 115:Drivers/CMSIS/Core/Include/cmsis_gcc.h **** #endif
 116:Drivers/CMSIS/Core/Include/cmsis_gcc.h **** #ifndef   __COMPILER_BARRIER
 117:Drivers/CMSIS/Core/Include/cmsis_gcc.h ****   #define __COMPILER_BARRIER()                   __ASM volatile("":::"memory")
 118:Drivers/CMSIS/Core/Include/cmsis_gcc.h **** #endif
 119:Drivers/CMSIS/Core/Include/cmsis_gcc.h **** 
 120:Drivers/CMSIS/Core/Include/cmsis_gcc.h **** /* #########################  Startup and Lowlevel Init  ######################## */
 121:Drivers/CMSIS/Core/Include/cmsis_gcc.h **** 
 122:Drivers/CMSIS/Core/Include/cmsis_gcc.h **** #ifndef __PROGRAM_START
 123:Drivers/CMSIS/Core/Include/cmsis_gcc.h **** 
 124:Drivers/CMSIS/Core/Include/cmsis_gcc.h **** /**
 125:Drivers/CMSIS/Core/Include/cmsis_gcc.h ****   \brief   Initializes data and bss sections
 126:Drivers/CMSIS/Core/Include/cmsis_gcc.h ****   \details This default implementations initialized all data and additional bss
 127:Drivers/CMSIS/Core/Include/cmsis_gcc.h ****            sections relying on .copy.table and .zero.table specified properly
 128:Drivers/CMSIS/Core/Include/cmsis_gcc.h ****            in the used linker script.
 129:Drivers/CMSIS/Core/Include/cmsis_gcc.h ****   
 130:Drivers/CMSIS/Core/Include/cmsis_gcc.h ****  */
ARM GAS  /tmp/ccB7T7H1.s 			page 115


 131:Drivers/CMSIS/Core/Include/cmsis_gcc.h **** __STATIC_FORCEINLINE __NO_RETURN void __cmsis_start(void)
 132:Drivers/CMSIS/Core/Include/cmsis_gcc.h **** {
 133:Drivers/CMSIS/Core/Include/cmsis_gcc.h ****   extern void _start(void) __NO_RETURN;
 134:Drivers/CMSIS/Core/Include/cmsis_gcc.h ****   
 135:Drivers/CMSIS/Core/Include/cmsis_gcc.h ****   typedef struct {
 136:Drivers/CMSIS/Core/Include/cmsis_gcc.h ****     uint32_t const* src;
 137:Drivers/CMSIS/Core/Include/cmsis_gcc.h ****     uint32_t* dest;
 138:Drivers/CMSIS/Core/Include/cmsis_gcc.h ****     uint32_t  wlen;
 139:Drivers/CMSIS/Core/Include/cmsis_gcc.h ****   } __copy_table_t;
 140:Drivers/CMSIS/Core/Include/cmsis_gcc.h ****   
 141:Drivers/CMSIS/Core/Include/cmsis_gcc.h ****   typedef struct {
 142:Drivers/CMSIS/Core/Include/cmsis_gcc.h ****     uint32_t* dest;
 143:Drivers/CMSIS/Core/Include/cmsis_gcc.h ****     uint32_t  wlen;
 144:Drivers/CMSIS/Core/Include/cmsis_gcc.h ****   } __zero_table_t;
 145:Drivers/CMSIS/Core/Include/cmsis_gcc.h ****   
 146:Drivers/CMSIS/Core/Include/cmsis_gcc.h ****   extern const __copy_table_t __copy_table_start__;
 147:Drivers/CMSIS/Core/Include/cmsis_gcc.h ****   extern const __copy_table_t __copy_table_end__;
 148:Drivers/CMSIS/Core/Include/cmsis_gcc.h ****   extern const __zero_table_t __zero_table_start__;
 149:Drivers/CMSIS/Core/Include/cmsis_gcc.h ****   extern const __zero_table_t __zero_table_end__;
 150:Drivers/CMSIS/Core/Include/cmsis_gcc.h **** 
 151:Drivers/CMSIS/Core/Include/cmsis_gcc.h ****   for (__copy_table_t const* pTable = &__copy_table_start__; pTable < &__copy_table_end__; ++pTable
 152:Drivers/CMSIS/Core/Include/cmsis_gcc.h ****     for(uint32_t i=0u; i<pTable->wlen; ++i) {
 153:Drivers/CMSIS/Core/Include/cmsis_gcc.h ****       pTable->dest[i] = pTable->src[i];
 154:Drivers/CMSIS/Core/Include/cmsis_gcc.h ****     }
 155:Drivers/CMSIS/Core/Include/cmsis_gcc.h ****   }
 156:Drivers/CMSIS/Core/Include/cmsis_gcc.h ****  
 157:Drivers/CMSIS/Core/Include/cmsis_gcc.h ****   for (__zero_table_t const* pTable = &__zero_table_start__; pTable < &__zero_table_end__; ++pTable
 158:Drivers/CMSIS/Core/Include/cmsis_gcc.h ****     for(uint32_t i=0u; i<pTable->wlen; ++i) {
 159:Drivers/CMSIS/Core/Include/cmsis_gcc.h ****       pTable->dest[i] = 0u;
 160:Drivers/CMSIS/Core/Include/cmsis_gcc.h ****     }
 161:Drivers/CMSIS/Core/Include/cmsis_gcc.h ****   }
 162:Drivers/CMSIS/Core/Include/cmsis_gcc.h ****  
 163:Drivers/CMSIS/Core/Include/cmsis_gcc.h ****   _start();
 164:Drivers/CMSIS/Core/Include/cmsis_gcc.h **** }
 165:Drivers/CMSIS/Core/Include/cmsis_gcc.h ****   
 166:Drivers/CMSIS/Core/Include/cmsis_gcc.h **** #define __PROGRAM_START           __cmsis_start
 167:Drivers/CMSIS/Core/Include/cmsis_gcc.h **** #endif
 168:Drivers/CMSIS/Core/Include/cmsis_gcc.h **** 
 169:Drivers/CMSIS/Core/Include/cmsis_gcc.h **** #ifndef __INITIAL_SP
 170:Drivers/CMSIS/Core/Include/cmsis_gcc.h **** #define __INITIAL_SP              __StackTop
 171:Drivers/CMSIS/Core/Include/cmsis_gcc.h **** #endif
 172:Drivers/CMSIS/Core/Include/cmsis_gcc.h **** 
 173:Drivers/CMSIS/Core/Include/cmsis_gcc.h **** #ifndef __STACK_LIMIT
 174:Drivers/CMSIS/Core/Include/cmsis_gcc.h **** #define __STACK_LIMIT             __StackLimit
 175:Drivers/CMSIS/Core/Include/cmsis_gcc.h **** #endif
 176:Drivers/CMSIS/Core/Include/cmsis_gcc.h **** 
 177:Drivers/CMSIS/Core/Include/cmsis_gcc.h **** #ifndef __VECTOR_TABLE
 178:Drivers/CMSIS/Core/Include/cmsis_gcc.h **** #define __VECTOR_TABLE            __Vectors
 179:Drivers/CMSIS/Core/Include/cmsis_gcc.h **** #endif
 180:Drivers/CMSIS/Core/Include/cmsis_gcc.h **** 
 181:Drivers/CMSIS/Core/Include/cmsis_gcc.h **** #ifndef __VECTOR_TABLE_ATTRIBUTE
 182:Drivers/CMSIS/Core/Include/cmsis_gcc.h **** #define __VECTOR_TABLE_ATTRIBUTE  __attribute((used, section(".vectors")))
 183:Drivers/CMSIS/Core/Include/cmsis_gcc.h **** #endif
 184:Drivers/CMSIS/Core/Include/cmsis_gcc.h **** 
 185:Drivers/CMSIS/Core/Include/cmsis_gcc.h **** /* ###########################  Core Function Access  ########################### */
 186:Drivers/CMSIS/Core/Include/cmsis_gcc.h **** /** \ingroup  CMSIS_Core_FunctionInterface
 187:Drivers/CMSIS/Core/Include/cmsis_gcc.h ****     \defgroup CMSIS_Core_RegAccFunctions CMSIS Core Register Access Functions
ARM GAS  /tmp/ccB7T7H1.s 			page 116


 188:Drivers/CMSIS/Core/Include/cmsis_gcc.h ****   @{
 189:Drivers/CMSIS/Core/Include/cmsis_gcc.h ****  */
 190:Drivers/CMSIS/Core/Include/cmsis_gcc.h **** 
 191:Drivers/CMSIS/Core/Include/cmsis_gcc.h **** /**
 192:Drivers/CMSIS/Core/Include/cmsis_gcc.h ****   \brief   Enable IRQ Interrupts
 193:Drivers/CMSIS/Core/Include/cmsis_gcc.h ****   \details Enables IRQ interrupts by clearing the I-bit in the CPSR.
 194:Drivers/CMSIS/Core/Include/cmsis_gcc.h ****            Can only be executed in Privileged modes.
 195:Drivers/CMSIS/Core/Include/cmsis_gcc.h ****  */
 196:Drivers/CMSIS/Core/Include/cmsis_gcc.h **** __STATIC_FORCEINLINE void __enable_irq(void)
 197:Drivers/CMSIS/Core/Include/cmsis_gcc.h **** {
 198:Drivers/CMSIS/Core/Include/cmsis_gcc.h ****   __ASM volatile ("cpsie i" : : : "memory");
 199:Drivers/CMSIS/Core/Include/cmsis_gcc.h **** }
 200:Drivers/CMSIS/Core/Include/cmsis_gcc.h **** 
 201:Drivers/CMSIS/Core/Include/cmsis_gcc.h **** 
 202:Drivers/CMSIS/Core/Include/cmsis_gcc.h **** /**
 203:Drivers/CMSIS/Core/Include/cmsis_gcc.h ****   \brief   Disable IRQ Interrupts
 204:Drivers/CMSIS/Core/Include/cmsis_gcc.h ****   \details Disables IRQ interrupts by setting the I-bit in the CPSR.
 205:Drivers/CMSIS/Core/Include/cmsis_gcc.h ****            Can only be executed in Privileged modes.
 206:Drivers/CMSIS/Core/Include/cmsis_gcc.h ****  */
 207:Drivers/CMSIS/Core/Include/cmsis_gcc.h **** __STATIC_FORCEINLINE void __disable_irq(void)
 208:Drivers/CMSIS/Core/Include/cmsis_gcc.h **** {
 209:Drivers/CMSIS/Core/Include/cmsis_gcc.h ****   __ASM volatile ("cpsid i" : : : "memory");
 210:Drivers/CMSIS/Core/Include/cmsis_gcc.h **** }
 211:Drivers/CMSIS/Core/Include/cmsis_gcc.h **** 
 212:Drivers/CMSIS/Core/Include/cmsis_gcc.h **** 
 213:Drivers/CMSIS/Core/Include/cmsis_gcc.h **** /**
 214:Drivers/CMSIS/Core/Include/cmsis_gcc.h ****   \brief   Get Control Register
 215:Drivers/CMSIS/Core/Include/cmsis_gcc.h ****   \details Returns the content of the Control Register.
 216:Drivers/CMSIS/Core/Include/cmsis_gcc.h ****   \return               Control Register value
 217:Drivers/CMSIS/Core/Include/cmsis_gcc.h ****  */
 218:Drivers/CMSIS/Core/Include/cmsis_gcc.h **** __STATIC_FORCEINLINE uint32_t __get_CONTROL(void)
 219:Drivers/CMSIS/Core/Include/cmsis_gcc.h **** {
 220:Drivers/CMSIS/Core/Include/cmsis_gcc.h ****   uint32_t result;
 221:Drivers/CMSIS/Core/Include/cmsis_gcc.h **** 
 222:Drivers/CMSIS/Core/Include/cmsis_gcc.h ****   __ASM volatile ("MRS %0, control" : "=r" (result) );
 223:Drivers/CMSIS/Core/Include/cmsis_gcc.h ****   return(result);
 224:Drivers/CMSIS/Core/Include/cmsis_gcc.h **** }
 225:Drivers/CMSIS/Core/Include/cmsis_gcc.h **** 
 226:Drivers/CMSIS/Core/Include/cmsis_gcc.h **** 
 227:Drivers/CMSIS/Core/Include/cmsis_gcc.h **** #if (defined (__ARM_FEATURE_CMSE ) && (__ARM_FEATURE_CMSE == 3))
 228:Drivers/CMSIS/Core/Include/cmsis_gcc.h **** /**
 229:Drivers/CMSIS/Core/Include/cmsis_gcc.h ****   \brief   Get Control Register (non-secure)
 230:Drivers/CMSIS/Core/Include/cmsis_gcc.h ****   \details Returns the content of the non-secure Control Register when in secure mode.
 231:Drivers/CMSIS/Core/Include/cmsis_gcc.h ****   \return               non-secure Control Register value
 232:Drivers/CMSIS/Core/Include/cmsis_gcc.h ****  */
 233:Drivers/CMSIS/Core/Include/cmsis_gcc.h **** __STATIC_FORCEINLINE uint32_t __TZ_get_CONTROL_NS(void)
 234:Drivers/CMSIS/Core/Include/cmsis_gcc.h **** {
 235:Drivers/CMSIS/Core/Include/cmsis_gcc.h ****   uint32_t result;
 236:Drivers/CMSIS/Core/Include/cmsis_gcc.h **** 
 237:Drivers/CMSIS/Core/Include/cmsis_gcc.h ****   __ASM volatile ("MRS %0, control_ns" : "=r" (result) );
 238:Drivers/CMSIS/Core/Include/cmsis_gcc.h ****   return(result);
 239:Drivers/CMSIS/Core/Include/cmsis_gcc.h **** }
 240:Drivers/CMSIS/Core/Include/cmsis_gcc.h **** #endif
 241:Drivers/CMSIS/Core/Include/cmsis_gcc.h **** 
 242:Drivers/CMSIS/Core/Include/cmsis_gcc.h **** 
 243:Drivers/CMSIS/Core/Include/cmsis_gcc.h **** /**
 244:Drivers/CMSIS/Core/Include/cmsis_gcc.h ****   \brief   Set Control Register
ARM GAS  /tmp/ccB7T7H1.s 			page 117


 245:Drivers/CMSIS/Core/Include/cmsis_gcc.h ****   \details Writes the given value to the Control Register.
 246:Drivers/CMSIS/Core/Include/cmsis_gcc.h ****   \param [in]    control  Control Register value to set
 247:Drivers/CMSIS/Core/Include/cmsis_gcc.h ****  */
 248:Drivers/CMSIS/Core/Include/cmsis_gcc.h **** __STATIC_FORCEINLINE void __set_CONTROL(uint32_t control)
 249:Drivers/CMSIS/Core/Include/cmsis_gcc.h **** {
 250:Drivers/CMSIS/Core/Include/cmsis_gcc.h ****   __ASM volatile ("MSR control, %0" : : "r" (control) : "memory");
 251:Drivers/CMSIS/Core/Include/cmsis_gcc.h **** }
 252:Drivers/CMSIS/Core/Include/cmsis_gcc.h **** 
 253:Drivers/CMSIS/Core/Include/cmsis_gcc.h **** 
 254:Drivers/CMSIS/Core/Include/cmsis_gcc.h **** #if (defined (__ARM_FEATURE_CMSE ) && (__ARM_FEATURE_CMSE == 3))
 255:Drivers/CMSIS/Core/Include/cmsis_gcc.h **** /**
 256:Drivers/CMSIS/Core/Include/cmsis_gcc.h ****   \brief   Set Control Register (non-secure)
 257:Drivers/CMSIS/Core/Include/cmsis_gcc.h ****   \details Writes the given value to the non-secure Control Register when in secure state.
 258:Drivers/CMSIS/Core/Include/cmsis_gcc.h ****   \param [in]    control  Control Register value to set
 259:Drivers/CMSIS/Core/Include/cmsis_gcc.h ****  */
 260:Drivers/CMSIS/Core/Include/cmsis_gcc.h **** __STATIC_FORCEINLINE void __TZ_set_CONTROL_NS(uint32_t control)
 261:Drivers/CMSIS/Core/Include/cmsis_gcc.h **** {
 262:Drivers/CMSIS/Core/Include/cmsis_gcc.h ****   __ASM volatile ("MSR control_ns, %0" : : "r" (control) : "memory");
 263:Drivers/CMSIS/Core/Include/cmsis_gcc.h **** }
 264:Drivers/CMSIS/Core/Include/cmsis_gcc.h **** #endif
 265:Drivers/CMSIS/Core/Include/cmsis_gcc.h **** 
 266:Drivers/CMSIS/Core/Include/cmsis_gcc.h **** 
 267:Drivers/CMSIS/Core/Include/cmsis_gcc.h **** /**
 268:Drivers/CMSIS/Core/Include/cmsis_gcc.h ****   \brief   Get IPSR Register
 269:Drivers/CMSIS/Core/Include/cmsis_gcc.h ****   \details Returns the content of the IPSR Register.
 270:Drivers/CMSIS/Core/Include/cmsis_gcc.h ****   \return               IPSR Register value
 271:Drivers/CMSIS/Core/Include/cmsis_gcc.h ****  */
 272:Drivers/CMSIS/Core/Include/cmsis_gcc.h **** __STATIC_FORCEINLINE uint32_t __get_IPSR(void)
 273:Drivers/CMSIS/Core/Include/cmsis_gcc.h **** {
 274:Drivers/CMSIS/Core/Include/cmsis_gcc.h ****   uint32_t result;
 275:Drivers/CMSIS/Core/Include/cmsis_gcc.h **** 
 276:Drivers/CMSIS/Core/Include/cmsis_gcc.h ****   __ASM volatile ("MRS %0, ipsr" : "=r" (result) );
 277:Drivers/CMSIS/Core/Include/cmsis_gcc.h ****   return(result);
 278:Drivers/CMSIS/Core/Include/cmsis_gcc.h **** }
 279:Drivers/CMSIS/Core/Include/cmsis_gcc.h **** 
 280:Drivers/CMSIS/Core/Include/cmsis_gcc.h **** 
 281:Drivers/CMSIS/Core/Include/cmsis_gcc.h **** /**
 282:Drivers/CMSIS/Core/Include/cmsis_gcc.h ****   \brief   Get APSR Register
 283:Drivers/CMSIS/Core/Include/cmsis_gcc.h ****   \details Returns the content of the APSR Register.
 284:Drivers/CMSIS/Core/Include/cmsis_gcc.h ****   \return               APSR Register value
 285:Drivers/CMSIS/Core/Include/cmsis_gcc.h ****  */
 286:Drivers/CMSIS/Core/Include/cmsis_gcc.h **** __STATIC_FORCEINLINE uint32_t __get_APSR(void)
 287:Drivers/CMSIS/Core/Include/cmsis_gcc.h **** {
 288:Drivers/CMSIS/Core/Include/cmsis_gcc.h ****   uint32_t result;
 289:Drivers/CMSIS/Core/Include/cmsis_gcc.h **** 
 290:Drivers/CMSIS/Core/Include/cmsis_gcc.h ****   __ASM volatile ("MRS %0, apsr" : "=r" (result) );
 291:Drivers/CMSIS/Core/Include/cmsis_gcc.h ****   return(result);
 292:Drivers/CMSIS/Core/Include/cmsis_gcc.h **** }
 293:Drivers/CMSIS/Core/Include/cmsis_gcc.h **** 
 294:Drivers/CMSIS/Core/Include/cmsis_gcc.h **** 
 295:Drivers/CMSIS/Core/Include/cmsis_gcc.h **** /**
 296:Drivers/CMSIS/Core/Include/cmsis_gcc.h ****   \brief   Get xPSR Register
 297:Drivers/CMSIS/Core/Include/cmsis_gcc.h ****   \details Returns the content of the xPSR Register.
 298:Drivers/CMSIS/Core/Include/cmsis_gcc.h ****   \return               xPSR Register value
 299:Drivers/CMSIS/Core/Include/cmsis_gcc.h ****  */
 300:Drivers/CMSIS/Core/Include/cmsis_gcc.h **** __STATIC_FORCEINLINE uint32_t __get_xPSR(void)
 301:Drivers/CMSIS/Core/Include/cmsis_gcc.h **** {
ARM GAS  /tmp/ccB7T7H1.s 			page 118


 302:Drivers/CMSIS/Core/Include/cmsis_gcc.h ****   uint32_t result;
 303:Drivers/CMSIS/Core/Include/cmsis_gcc.h **** 
 304:Drivers/CMSIS/Core/Include/cmsis_gcc.h ****   __ASM volatile ("MRS %0, xpsr" : "=r" (result) );
 305:Drivers/CMSIS/Core/Include/cmsis_gcc.h ****   return(result);
 306:Drivers/CMSIS/Core/Include/cmsis_gcc.h **** }
 307:Drivers/CMSIS/Core/Include/cmsis_gcc.h **** 
 308:Drivers/CMSIS/Core/Include/cmsis_gcc.h **** 
 309:Drivers/CMSIS/Core/Include/cmsis_gcc.h **** /**
 310:Drivers/CMSIS/Core/Include/cmsis_gcc.h ****   \brief   Get Process Stack Pointer
 311:Drivers/CMSIS/Core/Include/cmsis_gcc.h ****   \details Returns the current value of the Process Stack Pointer (PSP).
 312:Drivers/CMSIS/Core/Include/cmsis_gcc.h ****   \return               PSP Register value
 313:Drivers/CMSIS/Core/Include/cmsis_gcc.h ****  */
 314:Drivers/CMSIS/Core/Include/cmsis_gcc.h **** __STATIC_FORCEINLINE uint32_t __get_PSP(void)
 315:Drivers/CMSIS/Core/Include/cmsis_gcc.h **** {
 316:Drivers/CMSIS/Core/Include/cmsis_gcc.h ****   uint32_t result;
 317:Drivers/CMSIS/Core/Include/cmsis_gcc.h **** 
 318:Drivers/CMSIS/Core/Include/cmsis_gcc.h ****   __ASM volatile ("MRS %0, psp"  : "=r" (result) );
 319:Drivers/CMSIS/Core/Include/cmsis_gcc.h ****   return(result);
 320:Drivers/CMSIS/Core/Include/cmsis_gcc.h **** }
 321:Drivers/CMSIS/Core/Include/cmsis_gcc.h **** 
 322:Drivers/CMSIS/Core/Include/cmsis_gcc.h **** 
 323:Drivers/CMSIS/Core/Include/cmsis_gcc.h **** #if (defined (__ARM_FEATURE_CMSE ) && (__ARM_FEATURE_CMSE == 3))
 324:Drivers/CMSIS/Core/Include/cmsis_gcc.h **** /**
 325:Drivers/CMSIS/Core/Include/cmsis_gcc.h ****   \brief   Get Process Stack Pointer (non-secure)
 326:Drivers/CMSIS/Core/Include/cmsis_gcc.h ****   \details Returns the current value of the non-secure Process Stack Pointer (PSP) when in secure s
 327:Drivers/CMSIS/Core/Include/cmsis_gcc.h ****   \return               PSP Register value
 328:Drivers/CMSIS/Core/Include/cmsis_gcc.h ****  */
 329:Drivers/CMSIS/Core/Include/cmsis_gcc.h **** __STATIC_FORCEINLINE uint32_t __TZ_get_PSP_NS(void)
 330:Drivers/CMSIS/Core/Include/cmsis_gcc.h **** {
 331:Drivers/CMSIS/Core/Include/cmsis_gcc.h ****   uint32_t result;
 332:Drivers/CMSIS/Core/Include/cmsis_gcc.h **** 
 333:Drivers/CMSIS/Core/Include/cmsis_gcc.h ****   __ASM volatile ("MRS %0, psp_ns"  : "=r" (result) );
 334:Drivers/CMSIS/Core/Include/cmsis_gcc.h ****   return(result);
 335:Drivers/CMSIS/Core/Include/cmsis_gcc.h **** }
 336:Drivers/CMSIS/Core/Include/cmsis_gcc.h **** #endif
 337:Drivers/CMSIS/Core/Include/cmsis_gcc.h **** 
 338:Drivers/CMSIS/Core/Include/cmsis_gcc.h **** 
 339:Drivers/CMSIS/Core/Include/cmsis_gcc.h **** /**
 340:Drivers/CMSIS/Core/Include/cmsis_gcc.h ****   \brief   Set Process Stack Pointer
 341:Drivers/CMSIS/Core/Include/cmsis_gcc.h ****   \details Assigns the given value to the Process Stack Pointer (PSP).
 342:Drivers/CMSIS/Core/Include/cmsis_gcc.h ****   \param [in]    topOfProcStack  Process Stack Pointer value to set
 343:Drivers/CMSIS/Core/Include/cmsis_gcc.h ****  */
 344:Drivers/CMSIS/Core/Include/cmsis_gcc.h **** __STATIC_FORCEINLINE void __set_PSP(uint32_t topOfProcStack)
 345:Drivers/CMSIS/Core/Include/cmsis_gcc.h **** {
 346:Drivers/CMSIS/Core/Include/cmsis_gcc.h ****   __ASM volatile ("MSR psp, %0" : : "r" (topOfProcStack) : );
 347:Drivers/CMSIS/Core/Include/cmsis_gcc.h **** }
 348:Drivers/CMSIS/Core/Include/cmsis_gcc.h **** 
 349:Drivers/CMSIS/Core/Include/cmsis_gcc.h **** 
 350:Drivers/CMSIS/Core/Include/cmsis_gcc.h **** #if (defined (__ARM_FEATURE_CMSE ) && (__ARM_FEATURE_CMSE == 3))
 351:Drivers/CMSIS/Core/Include/cmsis_gcc.h **** /**
 352:Drivers/CMSIS/Core/Include/cmsis_gcc.h ****   \brief   Set Process Stack Pointer (non-secure)
 353:Drivers/CMSIS/Core/Include/cmsis_gcc.h ****   \details Assigns the given value to the non-secure Process Stack Pointer (PSP) when in secure sta
 354:Drivers/CMSIS/Core/Include/cmsis_gcc.h ****   \param [in]    topOfProcStack  Process Stack Pointer value to set
 355:Drivers/CMSIS/Core/Include/cmsis_gcc.h ****  */
 356:Drivers/CMSIS/Core/Include/cmsis_gcc.h **** __STATIC_FORCEINLINE void __TZ_set_PSP_NS(uint32_t topOfProcStack)
 357:Drivers/CMSIS/Core/Include/cmsis_gcc.h **** {
 358:Drivers/CMSIS/Core/Include/cmsis_gcc.h ****   __ASM volatile ("MSR psp_ns, %0" : : "r" (topOfProcStack) : );
ARM GAS  /tmp/ccB7T7H1.s 			page 119


 359:Drivers/CMSIS/Core/Include/cmsis_gcc.h **** }
 360:Drivers/CMSIS/Core/Include/cmsis_gcc.h **** #endif
 361:Drivers/CMSIS/Core/Include/cmsis_gcc.h **** 
 362:Drivers/CMSIS/Core/Include/cmsis_gcc.h **** 
 363:Drivers/CMSIS/Core/Include/cmsis_gcc.h **** /**
 364:Drivers/CMSIS/Core/Include/cmsis_gcc.h ****   \brief   Get Main Stack Pointer
 365:Drivers/CMSIS/Core/Include/cmsis_gcc.h ****   \details Returns the current value of the Main Stack Pointer (MSP).
 366:Drivers/CMSIS/Core/Include/cmsis_gcc.h ****   \return               MSP Register value
 367:Drivers/CMSIS/Core/Include/cmsis_gcc.h ****  */
 368:Drivers/CMSIS/Core/Include/cmsis_gcc.h **** __STATIC_FORCEINLINE uint32_t __get_MSP(void)
 369:Drivers/CMSIS/Core/Include/cmsis_gcc.h **** {
 370:Drivers/CMSIS/Core/Include/cmsis_gcc.h ****   uint32_t result;
 371:Drivers/CMSIS/Core/Include/cmsis_gcc.h **** 
 372:Drivers/CMSIS/Core/Include/cmsis_gcc.h ****   __ASM volatile ("MRS %0, msp" : "=r" (result) );
 373:Drivers/CMSIS/Core/Include/cmsis_gcc.h ****   return(result);
 374:Drivers/CMSIS/Core/Include/cmsis_gcc.h **** }
 375:Drivers/CMSIS/Core/Include/cmsis_gcc.h **** 
 376:Drivers/CMSIS/Core/Include/cmsis_gcc.h **** 
 377:Drivers/CMSIS/Core/Include/cmsis_gcc.h **** #if (defined (__ARM_FEATURE_CMSE ) && (__ARM_FEATURE_CMSE == 3))
 378:Drivers/CMSIS/Core/Include/cmsis_gcc.h **** /**
 379:Drivers/CMSIS/Core/Include/cmsis_gcc.h ****   \brief   Get Main Stack Pointer (non-secure)
 380:Drivers/CMSIS/Core/Include/cmsis_gcc.h ****   \details Returns the current value of the non-secure Main Stack Pointer (MSP) when in secure stat
 381:Drivers/CMSIS/Core/Include/cmsis_gcc.h ****   \return               MSP Register value
 382:Drivers/CMSIS/Core/Include/cmsis_gcc.h ****  */
 383:Drivers/CMSIS/Core/Include/cmsis_gcc.h **** __STATIC_FORCEINLINE uint32_t __TZ_get_MSP_NS(void)
 384:Drivers/CMSIS/Core/Include/cmsis_gcc.h **** {
 385:Drivers/CMSIS/Core/Include/cmsis_gcc.h ****   uint32_t result;
 386:Drivers/CMSIS/Core/Include/cmsis_gcc.h **** 
 387:Drivers/CMSIS/Core/Include/cmsis_gcc.h ****   __ASM volatile ("MRS %0, msp_ns" : "=r" (result) );
 388:Drivers/CMSIS/Core/Include/cmsis_gcc.h ****   return(result);
 389:Drivers/CMSIS/Core/Include/cmsis_gcc.h **** }
 390:Drivers/CMSIS/Core/Include/cmsis_gcc.h **** #endif
 391:Drivers/CMSIS/Core/Include/cmsis_gcc.h **** 
 392:Drivers/CMSIS/Core/Include/cmsis_gcc.h **** 
 393:Drivers/CMSIS/Core/Include/cmsis_gcc.h **** /**
 394:Drivers/CMSIS/Core/Include/cmsis_gcc.h ****   \brief   Set Main Stack Pointer
 395:Drivers/CMSIS/Core/Include/cmsis_gcc.h ****   \details Assigns the given value to the Main Stack Pointer (MSP).
 396:Drivers/CMSIS/Core/Include/cmsis_gcc.h ****   \param [in]    topOfMainStack  Main Stack Pointer value to set
 397:Drivers/CMSIS/Core/Include/cmsis_gcc.h ****  */
 398:Drivers/CMSIS/Core/Include/cmsis_gcc.h **** __STATIC_FORCEINLINE void __set_MSP(uint32_t topOfMainStack)
 399:Drivers/CMSIS/Core/Include/cmsis_gcc.h **** {
 400:Drivers/CMSIS/Core/Include/cmsis_gcc.h ****   __ASM volatile ("MSR msp, %0" : : "r" (topOfMainStack) : );
 401:Drivers/CMSIS/Core/Include/cmsis_gcc.h **** }
 402:Drivers/CMSIS/Core/Include/cmsis_gcc.h **** 
 403:Drivers/CMSIS/Core/Include/cmsis_gcc.h **** 
 404:Drivers/CMSIS/Core/Include/cmsis_gcc.h **** #if (defined (__ARM_FEATURE_CMSE ) && (__ARM_FEATURE_CMSE == 3))
 405:Drivers/CMSIS/Core/Include/cmsis_gcc.h **** /**
 406:Drivers/CMSIS/Core/Include/cmsis_gcc.h ****   \brief   Set Main Stack Pointer (non-secure)
 407:Drivers/CMSIS/Core/Include/cmsis_gcc.h ****   \details Assigns the given value to the non-secure Main Stack Pointer (MSP) when in secure state.
 408:Drivers/CMSIS/Core/Include/cmsis_gcc.h ****   \param [in]    topOfMainStack  Main Stack Pointer value to set
 409:Drivers/CMSIS/Core/Include/cmsis_gcc.h ****  */
 410:Drivers/CMSIS/Core/Include/cmsis_gcc.h **** __STATIC_FORCEINLINE void __TZ_set_MSP_NS(uint32_t topOfMainStack)
 411:Drivers/CMSIS/Core/Include/cmsis_gcc.h **** {
 412:Drivers/CMSIS/Core/Include/cmsis_gcc.h ****   __ASM volatile ("MSR msp_ns, %0" : : "r" (topOfMainStack) : );
 413:Drivers/CMSIS/Core/Include/cmsis_gcc.h **** }
 414:Drivers/CMSIS/Core/Include/cmsis_gcc.h **** #endif
 415:Drivers/CMSIS/Core/Include/cmsis_gcc.h **** 
ARM GAS  /tmp/ccB7T7H1.s 			page 120


 416:Drivers/CMSIS/Core/Include/cmsis_gcc.h **** 
 417:Drivers/CMSIS/Core/Include/cmsis_gcc.h **** #if (defined (__ARM_FEATURE_CMSE ) && (__ARM_FEATURE_CMSE == 3))
 418:Drivers/CMSIS/Core/Include/cmsis_gcc.h **** /**
 419:Drivers/CMSIS/Core/Include/cmsis_gcc.h ****   \brief   Get Stack Pointer (non-secure)
 420:Drivers/CMSIS/Core/Include/cmsis_gcc.h ****   \details Returns the current value of the non-secure Stack Pointer (SP) when in secure state.
 421:Drivers/CMSIS/Core/Include/cmsis_gcc.h ****   \return               SP Register value
 422:Drivers/CMSIS/Core/Include/cmsis_gcc.h ****  */
 423:Drivers/CMSIS/Core/Include/cmsis_gcc.h **** __STATIC_FORCEINLINE uint32_t __TZ_get_SP_NS(void)
 424:Drivers/CMSIS/Core/Include/cmsis_gcc.h **** {
 425:Drivers/CMSIS/Core/Include/cmsis_gcc.h ****   uint32_t result;
 426:Drivers/CMSIS/Core/Include/cmsis_gcc.h **** 
 427:Drivers/CMSIS/Core/Include/cmsis_gcc.h ****   __ASM volatile ("MRS %0, sp_ns" : "=r" (result) );
 428:Drivers/CMSIS/Core/Include/cmsis_gcc.h ****   return(result);
 429:Drivers/CMSIS/Core/Include/cmsis_gcc.h **** }
 430:Drivers/CMSIS/Core/Include/cmsis_gcc.h **** 
 431:Drivers/CMSIS/Core/Include/cmsis_gcc.h **** 
 432:Drivers/CMSIS/Core/Include/cmsis_gcc.h **** /**
 433:Drivers/CMSIS/Core/Include/cmsis_gcc.h ****   \brief   Set Stack Pointer (non-secure)
 434:Drivers/CMSIS/Core/Include/cmsis_gcc.h ****   \details Assigns the given value to the non-secure Stack Pointer (SP) when in secure state.
 435:Drivers/CMSIS/Core/Include/cmsis_gcc.h ****   \param [in]    topOfStack  Stack Pointer value to set
 436:Drivers/CMSIS/Core/Include/cmsis_gcc.h ****  */
 437:Drivers/CMSIS/Core/Include/cmsis_gcc.h **** __STATIC_FORCEINLINE void __TZ_set_SP_NS(uint32_t topOfStack)
 438:Drivers/CMSIS/Core/Include/cmsis_gcc.h **** {
 439:Drivers/CMSIS/Core/Include/cmsis_gcc.h ****   __ASM volatile ("MSR sp_ns, %0" : : "r" (topOfStack) : );
 440:Drivers/CMSIS/Core/Include/cmsis_gcc.h **** }
 441:Drivers/CMSIS/Core/Include/cmsis_gcc.h **** #endif
 442:Drivers/CMSIS/Core/Include/cmsis_gcc.h **** 
 443:Drivers/CMSIS/Core/Include/cmsis_gcc.h **** 
 444:Drivers/CMSIS/Core/Include/cmsis_gcc.h **** /**
 445:Drivers/CMSIS/Core/Include/cmsis_gcc.h ****   \brief   Get Priority Mask
 446:Drivers/CMSIS/Core/Include/cmsis_gcc.h ****   \details Returns the current state of the priority mask bit from the Priority Mask Register.
 447:Drivers/CMSIS/Core/Include/cmsis_gcc.h ****   \return               Priority Mask value
 448:Drivers/CMSIS/Core/Include/cmsis_gcc.h ****  */
 449:Drivers/CMSIS/Core/Include/cmsis_gcc.h **** __STATIC_FORCEINLINE uint32_t __get_PRIMASK(void)
 450:Drivers/CMSIS/Core/Include/cmsis_gcc.h **** {
 451:Drivers/CMSIS/Core/Include/cmsis_gcc.h ****   uint32_t result;
 452:Drivers/CMSIS/Core/Include/cmsis_gcc.h **** 
 453:Drivers/CMSIS/Core/Include/cmsis_gcc.h ****   __ASM volatile ("MRS %0, primask" : "=r" (result) :: "memory");
 3887              		.loc 2 453 3
 3888              		.syntax unified
 3889              	@ 453 "Drivers/CMSIS/Core/Include/cmsis_gcc.h" 1
 3890 000c EFF31083 		MRS r3, primask
 3891              	@ 0 "" 2
 3892              		.thumb
 3893              		.syntax unified
 3894 0010 FB60     		str	r3, [r7, #12]
 454:Drivers/CMSIS/Core/Include/cmsis_gcc.h ****   return(result);
 3895              		.loc 2 454 9
 3896 0012 FB68     		ldr	r3, [r7, #12]
 3897              	.LBE9:
 3898              	.LBE8:
2555:Drivers/STM32L4xx_HAL_Driver/Src/stm32l4xx_hal_lptim.c ****   uint32_t tmpIER;
2556:Drivers/STM32L4xx_HAL_Driver/Src/stm32l4xx_hal_lptim.c ****   uint32_t tmpCFGR;
2557:Drivers/STM32L4xx_HAL_Driver/Src/stm32l4xx_hal_lptim.c ****   uint32_t tmpCMP;
2558:Drivers/STM32L4xx_HAL_Driver/Src/stm32l4xx_hal_lptim.c ****   uint32_t tmpARR;
2559:Drivers/STM32L4xx_HAL_Driver/Src/stm32l4xx_hal_lptim.c ****   uint32_t primask_bit;
2560:Drivers/STM32L4xx_HAL_Driver/Src/stm32l4xx_hal_lptim.c ****   uint32_t tmpOR;
ARM GAS  /tmp/ccB7T7H1.s 			page 121


2561:Drivers/STM32L4xx_HAL_Driver/Src/stm32l4xx_hal_lptim.c **** #if defined(LPTIM_RCR_REP)
2562:Drivers/STM32L4xx_HAL_Driver/Src/stm32l4xx_hal_lptim.c ****   uint32_t tmpRCR;
2563:Drivers/STM32L4xx_HAL_Driver/Src/stm32l4xx_hal_lptim.c **** #endif
2564:Drivers/STM32L4xx_HAL_Driver/Src/stm32l4xx_hal_lptim.c **** 
2565:Drivers/STM32L4xx_HAL_Driver/Src/stm32l4xx_hal_lptim.c ****   /* Enter critical section */
2566:Drivers/STM32L4xx_HAL_Driver/Src/stm32l4xx_hal_lptim.c ****   primask_bit = __get_PRIMASK();
 3899              		.loc 1 2566 17
 3900 0014 BB62     		str	r3, [r7, #40]
 3901 0016 0123     		movs	r3, #1
 3902 0018 3B61     		str	r3, [r7, #16]
 3903              	.LBB10:
 3904              	.LBB11:
 455:Drivers/CMSIS/Core/Include/cmsis_gcc.h **** }
 456:Drivers/CMSIS/Core/Include/cmsis_gcc.h **** 
 457:Drivers/CMSIS/Core/Include/cmsis_gcc.h **** 
 458:Drivers/CMSIS/Core/Include/cmsis_gcc.h **** #if (defined (__ARM_FEATURE_CMSE ) && (__ARM_FEATURE_CMSE == 3))
 459:Drivers/CMSIS/Core/Include/cmsis_gcc.h **** /**
 460:Drivers/CMSIS/Core/Include/cmsis_gcc.h ****   \brief   Get Priority Mask (non-secure)
 461:Drivers/CMSIS/Core/Include/cmsis_gcc.h ****   \details Returns the current state of the non-secure priority mask bit from the Priority Mask Reg
 462:Drivers/CMSIS/Core/Include/cmsis_gcc.h ****   \return               Priority Mask value
 463:Drivers/CMSIS/Core/Include/cmsis_gcc.h ****  */
 464:Drivers/CMSIS/Core/Include/cmsis_gcc.h **** __STATIC_FORCEINLINE uint32_t __TZ_get_PRIMASK_NS(void)
 465:Drivers/CMSIS/Core/Include/cmsis_gcc.h **** {
 466:Drivers/CMSIS/Core/Include/cmsis_gcc.h ****   uint32_t result;
 467:Drivers/CMSIS/Core/Include/cmsis_gcc.h **** 
 468:Drivers/CMSIS/Core/Include/cmsis_gcc.h ****   __ASM volatile ("MRS %0, primask_ns" : "=r" (result) :: "memory");
 469:Drivers/CMSIS/Core/Include/cmsis_gcc.h ****   return(result);
 470:Drivers/CMSIS/Core/Include/cmsis_gcc.h **** }
 471:Drivers/CMSIS/Core/Include/cmsis_gcc.h **** #endif
 472:Drivers/CMSIS/Core/Include/cmsis_gcc.h **** 
 473:Drivers/CMSIS/Core/Include/cmsis_gcc.h **** 
 474:Drivers/CMSIS/Core/Include/cmsis_gcc.h **** /**
 475:Drivers/CMSIS/Core/Include/cmsis_gcc.h ****   \brief   Set Priority Mask
 476:Drivers/CMSIS/Core/Include/cmsis_gcc.h ****   \details Assigns the given value to the Priority Mask Register.
 477:Drivers/CMSIS/Core/Include/cmsis_gcc.h ****   \param [in]    priMask  Priority Mask
 478:Drivers/CMSIS/Core/Include/cmsis_gcc.h ****  */
 479:Drivers/CMSIS/Core/Include/cmsis_gcc.h **** __STATIC_FORCEINLINE void __set_PRIMASK(uint32_t priMask)
 480:Drivers/CMSIS/Core/Include/cmsis_gcc.h **** {
 481:Drivers/CMSIS/Core/Include/cmsis_gcc.h ****   __ASM volatile ("MSR primask, %0" : : "r" (priMask) : "memory");
 3905              		.loc 2 481 3
 3906 001a 3B69     		ldr	r3, [r7, #16]
 3907              		.syntax unified
 3908              	@ 481 "Drivers/CMSIS/Core/Include/cmsis_gcc.h" 1
 3909 001c 83F31088 		MSR primask, r3
 3910              	@ 0 "" 2
 482:Drivers/CMSIS/Core/Include/cmsis_gcc.h **** }
 3911              		.loc 2 482 1
 3912              		.thumb
 3913              		.syntax unified
 3914 0020 00BF     		nop
 3915              	.LBE11:
 3916              	.LBE10:
2567:Drivers/STM32L4xx_HAL_Driver/Src/stm32l4xx_hal_lptim.c ****   __set_PRIMASK(1) ;
2568:Drivers/STM32L4xx_HAL_Driver/Src/stm32l4xx_hal_lptim.c **** 
2569:Drivers/STM32L4xx_HAL_Driver/Src/stm32l4xx_hal_lptim.c ****   /*********** Save LPTIM Config ***********/
2570:Drivers/STM32L4xx_HAL_Driver/Src/stm32l4xx_hal_lptim.c ****   /* Save LPTIM source clock */
2571:Drivers/STM32L4xx_HAL_Driver/Src/stm32l4xx_hal_lptim.c ****   switch ((uint32_t)hlptim->Instance)
ARM GAS  /tmp/ccB7T7H1.s 			page 122


 3917              		.loc 1 2571 27
 3918 0022 7B68     		ldr	r3, [r7, #4]
 3919 0024 1B68     		ldr	r3, [r3]
 3920              		.loc 1 2571 3
 3921 0026 734A     		ldr	r2, .L187
 3922 0028 9342     		cmp	r3, r2
 3923 002a 03D0     		beq	.L166
 3924 002c 724A     		ldr	r2, .L187+4
 3925 002e 9342     		cmp	r3, r2
 3926 0030 07D0     		beq	.L167
2572:Drivers/STM32L4xx_HAL_Driver/Src/stm32l4xx_hal_lptim.c ****   {
2573:Drivers/STM32L4xx_HAL_Driver/Src/stm32l4xx_hal_lptim.c ****     case LPTIM1_BASE:
2574:Drivers/STM32L4xx_HAL_Driver/Src/stm32l4xx_hal_lptim.c ****       tmpclksource = __HAL_RCC_GET_LPTIM1_SOURCE();
2575:Drivers/STM32L4xx_HAL_Driver/Src/stm32l4xx_hal_lptim.c ****       break;
2576:Drivers/STM32L4xx_HAL_Driver/Src/stm32l4xx_hal_lptim.c **** #if defined(LPTIM2)
2577:Drivers/STM32L4xx_HAL_Driver/Src/stm32l4xx_hal_lptim.c ****     case LPTIM2_BASE:
2578:Drivers/STM32L4xx_HAL_Driver/Src/stm32l4xx_hal_lptim.c ****       tmpclksource = __HAL_RCC_GET_LPTIM2_SOURCE();
2579:Drivers/STM32L4xx_HAL_Driver/Src/stm32l4xx_hal_lptim.c ****       break;
2580:Drivers/STM32L4xx_HAL_Driver/Src/stm32l4xx_hal_lptim.c **** #endif /* LPTIM2 */
2581:Drivers/STM32L4xx_HAL_Driver/Src/stm32l4xx_hal_lptim.c ****     default:
2582:Drivers/STM32L4xx_HAL_Driver/Src/stm32l4xx_hal_lptim.c ****       break;
 3927              		.loc 1 2582 7
 3928 0032 0DE0     		b	.L169
 3929              	.L166:
2574:Drivers/STM32L4xx_HAL_Driver/Src/stm32l4xx_hal_lptim.c ****       break;
 3930              		.loc 1 2574 22
 3931 0034 714B     		ldr	r3, .L187+8
 3932 0036 D3F88830 		ldr	r3, [r3, #136]
2574:Drivers/STM32L4xx_HAL_Driver/Src/stm32l4xx_hal_lptim.c ****       break;
 3933              		.loc 1 2574 20
 3934 003a 03F44023 		and	r3, r3, #786432
 3935 003e FB62     		str	r3, [r7, #44]
2575:Drivers/STM32L4xx_HAL_Driver/Src/stm32l4xx_hal_lptim.c **** #if defined(LPTIM2)
 3936              		.loc 1 2575 7
 3937 0040 06E0     		b	.L169
 3938              	.L167:
2578:Drivers/STM32L4xx_HAL_Driver/Src/stm32l4xx_hal_lptim.c ****       break;
 3939              		.loc 1 2578 22
 3940 0042 6E4B     		ldr	r3, .L187+8
 3941 0044 D3F88830 		ldr	r3, [r3, #136]
2578:Drivers/STM32L4xx_HAL_Driver/Src/stm32l4xx_hal_lptim.c ****       break;
 3942              		.loc 1 2578 20
 3943 0048 03F44013 		and	r3, r3, #3145728
 3944 004c FB62     		str	r3, [r7, #44]
2579:Drivers/STM32L4xx_HAL_Driver/Src/stm32l4xx_hal_lptim.c **** #endif /* LPTIM2 */
 3945              		.loc 1 2579 7
 3946 004e 00BF     		nop
 3947              	.L169:
2583:Drivers/STM32L4xx_HAL_Driver/Src/stm32l4xx_hal_lptim.c ****   }
2584:Drivers/STM32L4xx_HAL_Driver/Src/stm32l4xx_hal_lptim.c **** 
2585:Drivers/STM32L4xx_HAL_Driver/Src/stm32l4xx_hal_lptim.c ****   /* Save LPTIM configuration registers */
2586:Drivers/STM32L4xx_HAL_Driver/Src/stm32l4xx_hal_lptim.c ****   tmpIER = hlptim->Instance->IER;
 3948              		.loc 1 2586 18
 3949 0050 7B68     		ldr	r3, [r7, #4]
 3950 0052 1B68     		ldr	r3, [r3]
 3951              		.loc 1 2586 10
 3952 0054 9B68     		ldr	r3, [r3, #8]
ARM GAS  /tmp/ccB7T7H1.s 			page 123


 3953 0056 7B62     		str	r3, [r7, #36]
2587:Drivers/STM32L4xx_HAL_Driver/Src/stm32l4xx_hal_lptim.c ****   tmpCFGR = hlptim->Instance->CFGR;
 3954              		.loc 1 2587 19
 3955 0058 7B68     		ldr	r3, [r7, #4]
 3956 005a 1B68     		ldr	r3, [r3]
 3957              		.loc 1 2587 11
 3958 005c DB68     		ldr	r3, [r3, #12]
 3959 005e 3B62     		str	r3, [r7, #32]
2588:Drivers/STM32L4xx_HAL_Driver/Src/stm32l4xx_hal_lptim.c ****   tmpCMP = hlptim->Instance->CMP;
 3960              		.loc 1 2588 18
 3961 0060 7B68     		ldr	r3, [r7, #4]
 3962 0062 1B68     		ldr	r3, [r3]
 3963              		.loc 1 2588 10
 3964 0064 5B69     		ldr	r3, [r3, #20]
 3965 0066 FB61     		str	r3, [r7, #28]
2589:Drivers/STM32L4xx_HAL_Driver/Src/stm32l4xx_hal_lptim.c ****   tmpARR = hlptim->Instance->ARR;
 3966              		.loc 1 2589 18
 3967 0068 7B68     		ldr	r3, [r7, #4]
 3968 006a 1B68     		ldr	r3, [r3]
 3969              		.loc 1 2589 10
 3970 006c 9B69     		ldr	r3, [r3, #24]
 3971 006e BB61     		str	r3, [r7, #24]
2590:Drivers/STM32L4xx_HAL_Driver/Src/stm32l4xx_hal_lptim.c ****   tmpOR = hlptim->Instance->OR;
 3972              		.loc 1 2590 17
 3973 0070 7B68     		ldr	r3, [r7, #4]
 3974 0072 1B68     		ldr	r3, [r3]
 3975              		.loc 1 2590 9
 3976 0074 1B6A     		ldr	r3, [r3, #32]
 3977 0076 7B61     		str	r3, [r7, #20]
2591:Drivers/STM32L4xx_HAL_Driver/Src/stm32l4xx_hal_lptim.c **** #if defined(LPTIM_RCR_REP)
2592:Drivers/STM32L4xx_HAL_Driver/Src/stm32l4xx_hal_lptim.c ****   tmpRCR = hlptim->Instance->RCR;
2593:Drivers/STM32L4xx_HAL_Driver/Src/stm32l4xx_hal_lptim.c **** #endif
2594:Drivers/STM32L4xx_HAL_Driver/Src/stm32l4xx_hal_lptim.c **** 
2595:Drivers/STM32L4xx_HAL_Driver/Src/stm32l4xx_hal_lptim.c ****   /*********** Reset LPTIM ***********/
2596:Drivers/STM32L4xx_HAL_Driver/Src/stm32l4xx_hal_lptim.c ****   switch ((uint32_t)hlptim->Instance)
 3978              		.loc 1 2596 27
 3979 0078 7B68     		ldr	r3, [r7, #4]
 3980 007a 1B68     		ldr	r3, [r3]
 3981              		.loc 1 2596 3
 3982 007c 5D4A     		ldr	r2, .L187
 3983 007e 9342     		cmp	r3, r2
 3984 0080 03D0     		beq	.L170
 3985 0082 5D4A     		ldr	r2, .L187+4
 3986 0084 9342     		cmp	r3, r2
 3987 0086 0DD0     		beq	.L171
2597:Drivers/STM32L4xx_HAL_Driver/Src/stm32l4xx_hal_lptim.c ****   {
2598:Drivers/STM32L4xx_HAL_Driver/Src/stm32l4xx_hal_lptim.c ****     case LPTIM1_BASE:
2599:Drivers/STM32L4xx_HAL_Driver/Src/stm32l4xx_hal_lptim.c ****       __HAL_RCC_LPTIM1_FORCE_RESET();
2600:Drivers/STM32L4xx_HAL_Driver/Src/stm32l4xx_hal_lptim.c ****       __HAL_RCC_LPTIM1_RELEASE_RESET();
2601:Drivers/STM32L4xx_HAL_Driver/Src/stm32l4xx_hal_lptim.c ****       break;
2602:Drivers/STM32L4xx_HAL_Driver/Src/stm32l4xx_hal_lptim.c **** #if defined(LPTIM2)
2603:Drivers/STM32L4xx_HAL_Driver/Src/stm32l4xx_hal_lptim.c ****     case LPTIM2_BASE:
2604:Drivers/STM32L4xx_HAL_Driver/Src/stm32l4xx_hal_lptim.c ****       __HAL_RCC_LPTIM2_FORCE_RESET();
2605:Drivers/STM32L4xx_HAL_Driver/Src/stm32l4xx_hal_lptim.c ****       __HAL_RCC_LPTIM2_RELEASE_RESET();
2606:Drivers/STM32L4xx_HAL_Driver/Src/stm32l4xx_hal_lptim.c ****       break;
2607:Drivers/STM32L4xx_HAL_Driver/Src/stm32l4xx_hal_lptim.c **** #endif /* LPTIM2 */
2608:Drivers/STM32L4xx_HAL_Driver/Src/stm32l4xx_hal_lptim.c ****     default:
ARM GAS  /tmp/ccB7T7H1.s 			page 124


2609:Drivers/STM32L4xx_HAL_Driver/Src/stm32l4xx_hal_lptim.c ****       break;
 3988              		.loc 1 2609 7
 3989 0088 19E0     		b	.L173
 3990              	.L170:
2599:Drivers/STM32L4xx_HAL_Driver/Src/stm32l4xx_hal_lptim.c ****       __HAL_RCC_LPTIM1_RELEASE_RESET();
 3991              		.loc 1 2599 7
 3992 008a 5C4B     		ldr	r3, .L187+8
 3993 008c 9B6B     		ldr	r3, [r3, #56]
 3994 008e 5B4A     		ldr	r2, .L187+8
 3995 0090 43F00043 		orr	r3, r3, #-2147483648
 3996 0094 9363     		str	r3, [r2, #56]
2600:Drivers/STM32L4xx_HAL_Driver/Src/stm32l4xx_hal_lptim.c ****       break;
 3997              		.loc 1 2600 7
 3998 0096 594B     		ldr	r3, .L187+8
 3999 0098 9B6B     		ldr	r3, [r3, #56]
 4000 009a 584A     		ldr	r2, .L187+8
 4001 009c 23F00043 		bic	r3, r3, #-2147483648
 4002 00a0 9363     		str	r3, [r2, #56]
2601:Drivers/STM32L4xx_HAL_Driver/Src/stm32l4xx_hal_lptim.c **** #if defined(LPTIM2)
 4003              		.loc 1 2601 7
 4004 00a2 0CE0     		b	.L173
 4005              	.L171:
2604:Drivers/STM32L4xx_HAL_Driver/Src/stm32l4xx_hal_lptim.c ****       __HAL_RCC_LPTIM2_RELEASE_RESET();
 4006              		.loc 1 2604 7
 4007 00a4 554B     		ldr	r3, .L187+8
 4008 00a6 DB6B     		ldr	r3, [r3, #60]
 4009 00a8 544A     		ldr	r2, .L187+8
 4010 00aa 43F02003 		orr	r3, r3, #32
 4011 00ae D363     		str	r3, [r2, #60]
2605:Drivers/STM32L4xx_HAL_Driver/Src/stm32l4xx_hal_lptim.c ****       break;
 4012              		.loc 1 2605 7
 4013 00b0 524B     		ldr	r3, .L187+8
 4014 00b2 DB6B     		ldr	r3, [r3, #60]
 4015 00b4 514A     		ldr	r2, .L187+8
 4016 00b6 23F02003 		bic	r3, r3, #32
 4017 00ba D363     		str	r3, [r2, #60]
2606:Drivers/STM32L4xx_HAL_Driver/Src/stm32l4xx_hal_lptim.c **** #endif /* LPTIM2 */
 4018              		.loc 1 2606 7
 4019 00bc 00BF     		nop
 4020              	.L173:
2610:Drivers/STM32L4xx_HAL_Driver/Src/stm32l4xx_hal_lptim.c ****   }
2611:Drivers/STM32L4xx_HAL_Driver/Src/stm32l4xx_hal_lptim.c **** 
2612:Drivers/STM32L4xx_HAL_Driver/Src/stm32l4xx_hal_lptim.c ****   /*********** Restore LPTIM Config ***********/
2613:Drivers/STM32L4xx_HAL_Driver/Src/stm32l4xx_hal_lptim.c **** #if defined(LPTIM_RCR_REP)
2614:Drivers/STM32L4xx_HAL_Driver/Src/stm32l4xx_hal_lptim.c ****   if ((tmpCMP != 0UL) || (tmpARR != 0UL) || (tmpRCR != 0UL))
2615:Drivers/STM32L4xx_HAL_Driver/Src/stm32l4xx_hal_lptim.c **** #else
2616:Drivers/STM32L4xx_HAL_Driver/Src/stm32l4xx_hal_lptim.c ****   if ((tmpCMP != 0UL) || (tmpARR != 0UL))
 4021              		.loc 1 2616 6
 4022 00be FB69     		ldr	r3, [r7, #28]
 4023 00c0 002B     		cmp	r3, #0
 4024 00c2 02D1     		bne	.L174
 4025              		.loc 1 2616 23 discriminator 1
 4026 00c4 BB69     		ldr	r3, [r7, #24]
 4027 00c6 002B     		cmp	r3, #0
 4028 00c8 75D0     		beq	.L175
 4029              	.L174:
2617:Drivers/STM32L4xx_HAL_Driver/Src/stm32l4xx_hal_lptim.c **** #endif
ARM GAS  /tmp/ccB7T7H1.s 			page 125


2618:Drivers/STM32L4xx_HAL_Driver/Src/stm32l4xx_hal_lptim.c ****   {
2619:Drivers/STM32L4xx_HAL_Driver/Src/stm32l4xx_hal_lptim.c ****     /* Force LPTIM source kernel clock from APB */
2620:Drivers/STM32L4xx_HAL_Driver/Src/stm32l4xx_hal_lptim.c ****     switch ((uint32_t)hlptim->Instance)
 4030              		.loc 1 2620 29
 4031 00ca 7B68     		ldr	r3, [r7, #4]
 4032 00cc 1B68     		ldr	r3, [r3]
 4033              		.loc 1 2620 5
 4034 00ce 494A     		ldr	r2, .L187
 4035 00d0 9342     		cmp	r3, r2
 4036 00d2 03D0     		beq	.L176
 4037 00d4 484A     		ldr	r2, .L187+4
 4038 00d6 9342     		cmp	r3, r2
 4039 00d8 09D0     		beq	.L177
2621:Drivers/STM32L4xx_HAL_Driver/Src/stm32l4xx_hal_lptim.c ****     {
2622:Drivers/STM32L4xx_HAL_Driver/Src/stm32l4xx_hal_lptim.c ****       case LPTIM1_BASE:
2623:Drivers/STM32L4xx_HAL_Driver/Src/stm32l4xx_hal_lptim.c ****         __HAL_RCC_LPTIM1_CONFIG(RCC_LPTIM1CLKSOURCE_PCLK1);
2624:Drivers/STM32L4xx_HAL_Driver/Src/stm32l4xx_hal_lptim.c ****         break;
2625:Drivers/STM32L4xx_HAL_Driver/Src/stm32l4xx_hal_lptim.c **** #if defined(LPTIM2)
2626:Drivers/STM32L4xx_HAL_Driver/Src/stm32l4xx_hal_lptim.c ****       case LPTIM2_BASE:
2627:Drivers/STM32L4xx_HAL_Driver/Src/stm32l4xx_hal_lptim.c ****         __HAL_RCC_LPTIM2_CONFIG(RCC_LPTIM2CLKSOURCE_PCLK1);
2628:Drivers/STM32L4xx_HAL_Driver/Src/stm32l4xx_hal_lptim.c ****         break;
2629:Drivers/STM32L4xx_HAL_Driver/Src/stm32l4xx_hal_lptim.c **** #endif /* LPTIM2 */
2630:Drivers/STM32L4xx_HAL_Driver/Src/stm32l4xx_hal_lptim.c ****       default:
2631:Drivers/STM32L4xx_HAL_Driver/Src/stm32l4xx_hal_lptim.c ****         break;
 4040              		.loc 1 2631 9
 4041 00da 11E0     		b	.L179
 4042              	.L176:
2623:Drivers/STM32L4xx_HAL_Driver/Src/stm32l4xx_hal_lptim.c ****         break;
 4043              		.loc 1 2623 9
 4044 00dc 474B     		ldr	r3, .L187+8
 4045 00de D3F88830 		ldr	r3, [r3, #136]
 4046 00e2 464A     		ldr	r2, .L187+8
 4047 00e4 23F44023 		bic	r3, r3, #786432
 4048 00e8 C2F88830 		str	r3, [r2, #136]
2624:Drivers/STM32L4xx_HAL_Driver/Src/stm32l4xx_hal_lptim.c **** #if defined(LPTIM2)
 4049              		.loc 1 2624 9
 4050 00ec 08E0     		b	.L179
 4051              	.L177:
2627:Drivers/STM32L4xx_HAL_Driver/Src/stm32l4xx_hal_lptim.c ****         break;
 4052              		.loc 1 2627 9
 4053 00ee 434B     		ldr	r3, .L187+8
 4054 00f0 D3F88830 		ldr	r3, [r3, #136]
 4055 00f4 414A     		ldr	r2, .L187+8
 4056 00f6 23F44013 		bic	r3, r3, #3145728
 4057 00fa C2F88830 		str	r3, [r2, #136]
2628:Drivers/STM32L4xx_HAL_Driver/Src/stm32l4xx_hal_lptim.c **** #endif /* LPTIM2 */
 4058              		.loc 1 2628 9
 4059 00fe 00BF     		nop
 4060              	.L179:
2632:Drivers/STM32L4xx_HAL_Driver/Src/stm32l4xx_hal_lptim.c ****     }
2633:Drivers/STM32L4xx_HAL_Driver/Src/stm32l4xx_hal_lptim.c **** 
2634:Drivers/STM32L4xx_HAL_Driver/Src/stm32l4xx_hal_lptim.c ****     if (tmpCMP != 0UL)
 4061              		.loc 1 2634 8
 4062 0100 FB69     		ldr	r3, [r7, #28]
 4063 0102 002B     		cmp	r3, #0
 4064 0104 1AD0     		beq	.L180
2635:Drivers/STM32L4xx_HAL_Driver/Src/stm32l4xx_hal_lptim.c ****     {
ARM GAS  /tmp/ccB7T7H1.s 			page 126


2636:Drivers/STM32L4xx_HAL_Driver/Src/stm32l4xx_hal_lptim.c ****       /* Restore CMP register (LPTIM should be enabled first) */
2637:Drivers/STM32L4xx_HAL_Driver/Src/stm32l4xx_hal_lptim.c ****       hlptim->Instance->CR |= LPTIM_CR_ENABLE;
 4065              		.loc 1 2637 13
 4066 0106 7B68     		ldr	r3, [r7, #4]
 4067 0108 1B68     		ldr	r3, [r3]
 4068              		.loc 1 2637 23
 4069 010a 1A69     		ldr	r2, [r3, #16]
 4070              		.loc 1 2637 13
 4071 010c 7B68     		ldr	r3, [r7, #4]
 4072 010e 1B68     		ldr	r3, [r3]
 4073              		.loc 1 2637 28
 4074 0110 42F00102 		orr	r2, r2, #1
 4075 0114 1A61     		str	r2, [r3, #16]
2638:Drivers/STM32L4xx_HAL_Driver/Src/stm32l4xx_hal_lptim.c ****       hlptim->Instance->CMP = tmpCMP;
 4076              		.loc 1 2638 13
 4077 0116 7B68     		ldr	r3, [r7, #4]
 4078 0118 1B68     		ldr	r3, [r3]
 4079              		.loc 1 2638 29
 4080 011a FA69     		ldr	r2, [r7, #28]
 4081 011c 5A61     		str	r2, [r3, #20]
2639:Drivers/STM32L4xx_HAL_Driver/Src/stm32l4xx_hal_lptim.c **** 
2640:Drivers/STM32L4xx_HAL_Driver/Src/stm32l4xx_hal_lptim.c ****       /* Wait for the completion of the write operation to the LPTIM_CMP register */
2641:Drivers/STM32L4xx_HAL_Driver/Src/stm32l4xx_hal_lptim.c ****       if (LPTIM_WaitForFlag(hlptim, LPTIM_FLAG_CMPOK) == HAL_TIMEOUT)
 4082              		.loc 1 2641 11
 4083 011e 0821     		movs	r1, #8
 4084 0120 7868     		ldr	r0, [r7, #4]
 4085 0122 FFF7FEFF 		bl	LPTIM_WaitForFlag
 4086 0126 0346     		mov	r3, r0
 4087              		.loc 1 2641 10 discriminator 1
 4088 0128 032B     		cmp	r3, #3
 4089 012a 03D1     		bne	.L181
2642:Drivers/STM32L4xx_HAL_Driver/Src/stm32l4xx_hal_lptim.c ****       {
2643:Drivers/STM32L4xx_HAL_Driver/Src/stm32l4xx_hal_lptim.c ****         hlptim->State = HAL_LPTIM_STATE_TIMEOUT;
 4090              		.loc 1 2643 23
 4091 012c 7B68     		ldr	r3, [r7, #4]
 4092 012e 0322     		movs	r2, #3
 4093 0130 83F83620 		strb	r2, [r3, #54]
 4094              	.L181:
2644:Drivers/STM32L4xx_HAL_Driver/Src/stm32l4xx_hal_lptim.c ****       }
2645:Drivers/STM32L4xx_HAL_Driver/Src/stm32l4xx_hal_lptim.c ****       __HAL_LPTIM_CLEAR_FLAG(hlptim, LPTIM_FLAG_CMPOK);
 4095              		.loc 1 2645 7
 4096 0134 7B68     		ldr	r3, [r7, #4]
 4097 0136 1B68     		ldr	r3, [r3]
 4098 0138 0822     		movs	r2, #8
 4099 013a 5A60     		str	r2, [r3, #4]
 4100              	.L180:
2646:Drivers/STM32L4xx_HAL_Driver/Src/stm32l4xx_hal_lptim.c ****     }
2647:Drivers/STM32L4xx_HAL_Driver/Src/stm32l4xx_hal_lptim.c **** 
2648:Drivers/STM32L4xx_HAL_Driver/Src/stm32l4xx_hal_lptim.c ****     if (tmpARR != 0UL)
 4101              		.loc 1 2648 8
 4102 013c BB69     		ldr	r3, [r7, #24]
 4103 013e 002B     		cmp	r3, #0
 4104 0140 1AD0     		beq	.L182
2649:Drivers/STM32L4xx_HAL_Driver/Src/stm32l4xx_hal_lptim.c ****     {
2650:Drivers/STM32L4xx_HAL_Driver/Src/stm32l4xx_hal_lptim.c ****       /* Restore ARR register (LPTIM should be enabled first) */
2651:Drivers/STM32L4xx_HAL_Driver/Src/stm32l4xx_hal_lptim.c ****       hlptim->Instance->CR |= LPTIM_CR_ENABLE;
 4105              		.loc 1 2651 13
ARM GAS  /tmp/ccB7T7H1.s 			page 127


 4106 0142 7B68     		ldr	r3, [r7, #4]
 4107 0144 1B68     		ldr	r3, [r3]
 4108              		.loc 1 2651 23
 4109 0146 1A69     		ldr	r2, [r3, #16]
 4110              		.loc 1 2651 13
 4111 0148 7B68     		ldr	r3, [r7, #4]
 4112 014a 1B68     		ldr	r3, [r3]
 4113              		.loc 1 2651 28
 4114 014c 42F00102 		orr	r2, r2, #1
 4115 0150 1A61     		str	r2, [r3, #16]
2652:Drivers/STM32L4xx_HAL_Driver/Src/stm32l4xx_hal_lptim.c ****       hlptim->Instance->ARR = tmpARR;
 4116              		.loc 1 2652 13
 4117 0152 7B68     		ldr	r3, [r7, #4]
 4118 0154 1B68     		ldr	r3, [r3]
 4119              		.loc 1 2652 29
 4120 0156 BA69     		ldr	r2, [r7, #24]
 4121 0158 9A61     		str	r2, [r3, #24]
2653:Drivers/STM32L4xx_HAL_Driver/Src/stm32l4xx_hal_lptim.c **** 
2654:Drivers/STM32L4xx_HAL_Driver/Src/stm32l4xx_hal_lptim.c ****       /* Wait for the completion of the write operation to the LPTIM_ARR register */
2655:Drivers/STM32L4xx_HAL_Driver/Src/stm32l4xx_hal_lptim.c ****       if (LPTIM_WaitForFlag(hlptim, LPTIM_FLAG_ARROK) == HAL_TIMEOUT)
 4122              		.loc 1 2655 11
 4123 015a 1021     		movs	r1, #16
 4124 015c 7868     		ldr	r0, [r7, #4]
 4125 015e FFF7FEFF 		bl	LPTIM_WaitForFlag
 4126 0162 0346     		mov	r3, r0
 4127              		.loc 1 2655 10 discriminator 1
 4128 0164 032B     		cmp	r3, #3
 4129 0166 03D1     		bne	.L183
2656:Drivers/STM32L4xx_HAL_Driver/Src/stm32l4xx_hal_lptim.c ****       {
2657:Drivers/STM32L4xx_HAL_Driver/Src/stm32l4xx_hal_lptim.c ****         hlptim->State = HAL_LPTIM_STATE_TIMEOUT;
 4130              		.loc 1 2657 23
 4131 0168 7B68     		ldr	r3, [r7, #4]
 4132 016a 0322     		movs	r2, #3
 4133 016c 83F83620 		strb	r2, [r3, #54]
 4134              	.L183:
2658:Drivers/STM32L4xx_HAL_Driver/Src/stm32l4xx_hal_lptim.c ****       }
2659:Drivers/STM32L4xx_HAL_Driver/Src/stm32l4xx_hal_lptim.c **** 
2660:Drivers/STM32L4xx_HAL_Driver/Src/stm32l4xx_hal_lptim.c ****       __HAL_LPTIM_CLEAR_FLAG(hlptim, LPTIM_FLAG_ARROK);
 4135              		.loc 1 2660 7
 4136 0170 7B68     		ldr	r3, [r7, #4]
 4137 0172 1B68     		ldr	r3, [r3]
 4138 0174 1022     		movs	r2, #16
 4139 0176 5A60     		str	r2, [r3, #4]
 4140              	.L182:
2661:Drivers/STM32L4xx_HAL_Driver/Src/stm32l4xx_hal_lptim.c ****     }
2662:Drivers/STM32L4xx_HAL_Driver/Src/stm32l4xx_hal_lptim.c **** #if defined(LPTIM_RCR_REP)
2663:Drivers/STM32L4xx_HAL_Driver/Src/stm32l4xx_hal_lptim.c **** 
2664:Drivers/STM32L4xx_HAL_Driver/Src/stm32l4xx_hal_lptim.c ****     if (tmpRCR != 0UL)
2665:Drivers/STM32L4xx_HAL_Driver/Src/stm32l4xx_hal_lptim.c ****     {
2666:Drivers/STM32L4xx_HAL_Driver/Src/stm32l4xx_hal_lptim.c ****       /* Restore RCR register (LPTIM should be enabled first) */
2667:Drivers/STM32L4xx_HAL_Driver/Src/stm32l4xx_hal_lptim.c ****       hlptim->Instance->CR |= LPTIM_CR_ENABLE;
2668:Drivers/STM32L4xx_HAL_Driver/Src/stm32l4xx_hal_lptim.c ****       hlptim->Instance->RCR = tmpRCR;
2669:Drivers/STM32L4xx_HAL_Driver/Src/stm32l4xx_hal_lptim.c **** 
2670:Drivers/STM32L4xx_HAL_Driver/Src/stm32l4xx_hal_lptim.c ****       /* Wait for the completion of the write operation to the LPTIM_RCR register */
2671:Drivers/STM32L4xx_HAL_Driver/Src/stm32l4xx_hal_lptim.c ****       if (LPTIM_WaitForFlag(hlptim, LPTIM_FLAG_REPOK) == HAL_TIMEOUT)
2672:Drivers/STM32L4xx_HAL_Driver/Src/stm32l4xx_hal_lptim.c ****       {
2673:Drivers/STM32L4xx_HAL_Driver/Src/stm32l4xx_hal_lptim.c ****         hlptim->State = HAL_LPTIM_STATE_TIMEOUT;
ARM GAS  /tmp/ccB7T7H1.s 			page 128


2674:Drivers/STM32L4xx_HAL_Driver/Src/stm32l4xx_hal_lptim.c ****       }
2675:Drivers/STM32L4xx_HAL_Driver/Src/stm32l4xx_hal_lptim.c ****       __HAL_LPTIM_CLEAR_FLAG(hlptim, LPTIM_FLAG_REPOK);
2676:Drivers/STM32L4xx_HAL_Driver/Src/stm32l4xx_hal_lptim.c ****     }
2677:Drivers/STM32L4xx_HAL_Driver/Src/stm32l4xx_hal_lptim.c **** #endif
2678:Drivers/STM32L4xx_HAL_Driver/Src/stm32l4xx_hal_lptim.c **** 
2679:Drivers/STM32L4xx_HAL_Driver/Src/stm32l4xx_hal_lptim.c ****     /* Restore LPTIM source kernel clock */
2680:Drivers/STM32L4xx_HAL_Driver/Src/stm32l4xx_hal_lptim.c ****     switch ((uint32_t)hlptim->Instance)
 4141              		.loc 1 2680 29
 4142 0178 7B68     		ldr	r3, [r7, #4]
 4143 017a 1B68     		ldr	r3, [r3]
 4144              		.loc 1 2680 5
 4145 017c 1D4A     		ldr	r2, .L187
 4146 017e 9342     		cmp	r3, r2
 4147 0180 03D0     		beq	.L184
 4148 0182 1D4A     		ldr	r2, .L187+4
 4149 0184 9342     		cmp	r3, r2
 4150 0186 0BD0     		beq	.L185
2681:Drivers/STM32L4xx_HAL_Driver/Src/stm32l4xx_hal_lptim.c ****     {
2682:Drivers/STM32L4xx_HAL_Driver/Src/stm32l4xx_hal_lptim.c ****       case LPTIM1_BASE:
2683:Drivers/STM32L4xx_HAL_Driver/Src/stm32l4xx_hal_lptim.c ****         __HAL_RCC_LPTIM1_CONFIG(tmpclksource);
2684:Drivers/STM32L4xx_HAL_Driver/Src/stm32l4xx_hal_lptim.c ****         break;
2685:Drivers/STM32L4xx_HAL_Driver/Src/stm32l4xx_hal_lptim.c **** #if defined(LPTIM2)
2686:Drivers/STM32L4xx_HAL_Driver/Src/stm32l4xx_hal_lptim.c ****       case LPTIM2_BASE:
2687:Drivers/STM32L4xx_HAL_Driver/Src/stm32l4xx_hal_lptim.c ****         __HAL_RCC_LPTIM2_CONFIG(tmpclksource);
2688:Drivers/STM32L4xx_HAL_Driver/Src/stm32l4xx_hal_lptim.c ****         break;
2689:Drivers/STM32L4xx_HAL_Driver/Src/stm32l4xx_hal_lptim.c **** #endif /* LPTIM2 */
2690:Drivers/STM32L4xx_HAL_Driver/Src/stm32l4xx_hal_lptim.c ****       default:
2691:Drivers/STM32L4xx_HAL_Driver/Src/stm32l4xx_hal_lptim.c ****         break;
 4151              		.loc 1 2691 9
 4152 0188 15E0     		b	.L175
 4153              	.L184:
2683:Drivers/STM32L4xx_HAL_Driver/Src/stm32l4xx_hal_lptim.c ****         break;
 4154              		.loc 1 2683 9
 4155 018a 1C4B     		ldr	r3, .L187+8
 4156 018c D3F88830 		ldr	r3, [r3, #136]
 4157 0190 23F44022 		bic	r2, r3, #786432
 4158 0194 1949     		ldr	r1, .L187+8
 4159 0196 FB6A     		ldr	r3, [r7, #44]
 4160 0198 1343     		orrs	r3, r3, r2
 4161 019a C1F88830 		str	r3, [r1, #136]
2684:Drivers/STM32L4xx_HAL_Driver/Src/stm32l4xx_hal_lptim.c **** #if defined(LPTIM2)
 4162              		.loc 1 2684 9
 4163 019e 0AE0     		b	.L175
 4164              	.L185:
2687:Drivers/STM32L4xx_HAL_Driver/Src/stm32l4xx_hal_lptim.c ****         break;
 4165              		.loc 1 2687 9
 4166 01a0 164B     		ldr	r3, .L187+8
 4167 01a2 D3F88830 		ldr	r3, [r3, #136]
 4168 01a6 23F44012 		bic	r2, r3, #3145728
 4169 01aa 1449     		ldr	r1, .L187+8
 4170 01ac FB6A     		ldr	r3, [r7, #44]
 4171 01ae 1343     		orrs	r3, r3, r2
 4172 01b0 C1F88830 		str	r3, [r1, #136]
2688:Drivers/STM32L4xx_HAL_Driver/Src/stm32l4xx_hal_lptim.c **** #endif /* LPTIM2 */
 4173              		.loc 1 2688 9
 4174 01b4 00BF     		nop
 4175              	.L175:
ARM GAS  /tmp/ccB7T7H1.s 			page 129


2692:Drivers/STM32L4xx_HAL_Driver/Src/stm32l4xx_hal_lptim.c ****     }
2693:Drivers/STM32L4xx_HAL_Driver/Src/stm32l4xx_hal_lptim.c ****   }
2694:Drivers/STM32L4xx_HAL_Driver/Src/stm32l4xx_hal_lptim.c **** 
2695:Drivers/STM32L4xx_HAL_Driver/Src/stm32l4xx_hal_lptim.c ****   /* Restore configuration registers (LPTIM should be disabled first) */
2696:Drivers/STM32L4xx_HAL_Driver/Src/stm32l4xx_hal_lptim.c ****   hlptim->Instance->CR &= ~(LPTIM_CR_ENABLE);
 4176              		.loc 1 2696 9
 4177 01b6 7B68     		ldr	r3, [r7, #4]
 4178 01b8 1B68     		ldr	r3, [r3]
 4179              		.loc 1 2696 19
 4180 01ba 1A69     		ldr	r2, [r3, #16]
 4181              		.loc 1 2696 9
 4182 01bc 7B68     		ldr	r3, [r7, #4]
 4183 01be 1B68     		ldr	r3, [r3]
 4184              		.loc 1 2696 24
 4185 01c0 22F00102 		bic	r2, r2, #1
 4186 01c4 1A61     		str	r2, [r3, #16]
2697:Drivers/STM32L4xx_HAL_Driver/Src/stm32l4xx_hal_lptim.c ****   hlptim->Instance->IER = tmpIER;
 4187              		.loc 1 2697 9
 4188 01c6 7B68     		ldr	r3, [r7, #4]
 4189 01c8 1B68     		ldr	r3, [r3]
 4190              		.loc 1 2697 25
 4191 01ca 7A6A     		ldr	r2, [r7, #36]
 4192 01cc 9A60     		str	r2, [r3, #8]
2698:Drivers/STM32L4xx_HAL_Driver/Src/stm32l4xx_hal_lptim.c ****   hlptim->Instance->CFGR = tmpCFGR;
 4193              		.loc 1 2698 9
 4194 01ce 7B68     		ldr	r3, [r7, #4]
 4195 01d0 1B68     		ldr	r3, [r3]
 4196              		.loc 1 2698 26
 4197 01d2 3A6A     		ldr	r2, [r7, #32]
 4198 01d4 DA60     		str	r2, [r3, #12]
2699:Drivers/STM32L4xx_HAL_Driver/Src/stm32l4xx_hal_lptim.c ****   hlptim->Instance->OR = tmpOR;
 4199              		.loc 1 2699 9
 4200 01d6 7B68     		ldr	r3, [r7, #4]
 4201 01d8 1B68     		ldr	r3, [r3]
 4202              		.loc 1 2699 24
 4203 01da 7A69     		ldr	r2, [r7, #20]
 4204 01dc 1A62     		str	r2, [r3, #32]
 4205 01de BB6A     		ldr	r3, [r7, #40]
 4206 01e0 BB60     		str	r3, [r7, #8]
 4207              	.LBB12:
 4208              	.LBB13:
 481:Drivers/CMSIS/Core/Include/cmsis_gcc.h **** }
 4209              		.loc 2 481 3
 4210 01e2 BB68     		ldr	r3, [r7, #8]
 4211              		.syntax unified
 4212              	@ 481 "Drivers/CMSIS/Core/Include/cmsis_gcc.h" 1
 4213 01e4 83F31088 		MSR primask, r3
 4214              	@ 0 "" 2
 4215              		.loc 2 482 1
 4216              		.thumb
 4217              		.syntax unified
 4218 01e8 00BF     		nop
 4219              	.LBE13:
 4220              	.LBE12:
2700:Drivers/STM32L4xx_HAL_Driver/Src/stm32l4xx_hal_lptim.c **** 
2701:Drivers/STM32L4xx_HAL_Driver/Src/stm32l4xx_hal_lptim.c ****   /* Exit critical section: restore previous priority mask */
2702:Drivers/STM32L4xx_HAL_Driver/Src/stm32l4xx_hal_lptim.c ****   __set_PRIMASK(primask_bit);
ARM GAS  /tmp/ccB7T7H1.s 			page 130


2703:Drivers/STM32L4xx_HAL_Driver/Src/stm32l4xx_hal_lptim.c **** }
 4221              		.loc 1 2703 1
 4222 01ea 00BF     		nop
 4223 01ec 3037     		adds	r7, r7, #48
 4224              		.cfi_def_cfa_offset 8
 4225 01ee BD46     		mov	sp, r7
 4226              		.cfi_def_cfa_register 13
 4227              		@ sp needed
 4228 01f0 80BD     		pop	{r7, pc}
 4229              	.L188:
 4230 01f2 00BF     		.align	2
 4231              	.L187:
 4232 01f4 007C0040 		.word	1073773568
 4233 01f8 00940040 		.word	1073779712
 4234 01fc 00100240 		.word	1073876992
 4235              		.cfi_endproc
 4236              	.LFE486:
 4238              		.text
 4239              	.Letext0:
 4240              		.file 3 "/usr/lib/gcc/arm-none-eabi/13.2.1/include/stdint.h"
 4241              		.file 4 "Drivers/CMSIS/Device/ST/STM32L4xx/Include/stm32l475xx.h"
 4242              		.file 5 "Drivers/CMSIS/Device/ST/STM32L4xx/Include/stm32l4xx.h"
 4243              		.file 6 "Drivers/STM32L4xx_HAL_Driver/Inc/stm32l4xx_hal_def.h"
 4244              		.file 7 "Drivers/STM32L4xx_HAL_Driver/Inc/stm32l4xx_hal_lptim.h"
 4245              		.file 8 "Drivers/STM32L4xx_HAL_Driver/Inc/stm32l4xx_ll_dma.h"
 4246              		.file 9 "Drivers/CMSIS/Device/ST/STM32L4xx/Include/system_stm32l4xx.h"
ARM GAS  /tmp/ccB7T7H1.s 			page 131


DEFINED SYMBOLS
                            *ABS*:00000000 stm32l4xx_hal_lptim.c
     /tmp/ccB7T7H1.s:21     .rodata.CHANNEL_OFFSET_TAB:00000000 $d
     /tmp/ccB7T7H1.s:24     .rodata.CHANNEL_OFFSET_TAB:00000000 CHANNEL_OFFSET_TAB
     /tmp/ccB7T7H1.s:27     .text.HAL_LPTIM_Init:00000000 $t
     /tmp/ccB7T7H1.s:33     .text.HAL_LPTIM_Init:00000000 HAL_LPTIM_Init
     /tmp/ccB7T7H1.s:359    .text.HAL_LPTIM_MspInit:00000000 HAL_LPTIM_MspInit
     /tmp/ccB7T7H1.s:274    .text.HAL_LPTIM_Init:0000013c $d
     /tmp/ccB7T7H1.s:280    .text.HAL_LPTIM_DeInit:00000000 $t
     /tmp/ccB7T7H1.s:286    .text.HAL_LPTIM_DeInit:00000000 HAL_LPTIM_DeInit
     /tmp/ccB7T7H1.s:3866   .text.LPTIM_Disable:00000000 LPTIM_Disable
     /tmp/ccB7T7H1.s:3742   .text.HAL_LPTIM_GetState:00000000 HAL_LPTIM_GetState
     /tmp/ccB7T7H1.s:395    .text.HAL_LPTIM_MspDeInit:00000000 HAL_LPTIM_MspDeInit
     /tmp/ccB7T7H1.s:353    .text.HAL_LPTIM_MspInit:00000000 $t
     /tmp/ccB7T7H1.s:389    .text.HAL_LPTIM_MspDeInit:00000000 $t
     /tmp/ccB7T7H1.s:425    .text.HAL_LPTIM_PWM_Start:00000000 $t
     /tmp/ccB7T7H1.s:431    .text.HAL_LPTIM_PWM_Start:00000000 HAL_LPTIM_PWM_Start
     /tmp/ccB7T7H1.s:3781   .text.LPTIM_WaitForFlag:00000000 LPTIM_WaitForFlag
     /tmp/ccB7T7H1.s:542    .text.HAL_LPTIM_PWM_Stop:00000000 $t
     /tmp/ccB7T7H1.s:548    .text.HAL_LPTIM_PWM_Stop:00000000 HAL_LPTIM_PWM_Stop
     /tmp/ccB7T7H1.s:600    .text.HAL_LPTIM_PWM_Start_IT:00000000 $t
     /tmp/ccB7T7H1.s:606    .text.HAL_LPTIM_PWM_Start_IT:00000000 HAL_LPTIM_PWM_Start_IT
     /tmp/ccB7T7H1.s:787    .text.HAL_LPTIM_PWM_Stop_IT:00000000 $t
     /tmp/ccB7T7H1.s:793    .text.HAL_LPTIM_PWM_Stop_IT:00000000 HAL_LPTIM_PWM_Stop_IT
     /tmp/ccB7T7H1.s:893    .text.HAL_LPTIM_OnePulse_Start:00000000 $t
     /tmp/ccB7T7H1.s:899    .text.HAL_LPTIM_OnePulse_Start:00000000 HAL_LPTIM_OnePulse_Start
     /tmp/ccB7T7H1.s:1010   .text.HAL_LPTIM_OnePulse_Stop:00000000 $t
     /tmp/ccB7T7H1.s:1016   .text.HAL_LPTIM_OnePulse_Stop:00000000 HAL_LPTIM_OnePulse_Stop
     /tmp/ccB7T7H1.s:1068   .text.HAL_LPTIM_OnePulse_Start_IT:00000000 $t
     /tmp/ccB7T7H1.s:1074   .text.HAL_LPTIM_OnePulse_Start_IT:00000000 HAL_LPTIM_OnePulse_Start_IT
     /tmp/ccB7T7H1.s:1255   .text.HAL_LPTIM_OnePulse_Stop_IT:00000000 $t
     /tmp/ccB7T7H1.s:1261   .text.HAL_LPTIM_OnePulse_Stop_IT:00000000 HAL_LPTIM_OnePulse_Stop_IT
     /tmp/ccB7T7H1.s:1361   .text.HAL_LPTIM_SetOnce_Start:00000000 $t
     /tmp/ccB7T7H1.s:1367   .text.HAL_LPTIM_SetOnce_Start:00000000 HAL_LPTIM_SetOnce_Start
     /tmp/ccB7T7H1.s:1478   .text.HAL_LPTIM_SetOnce_Stop:00000000 $t
     /tmp/ccB7T7H1.s:1484   .text.HAL_LPTIM_SetOnce_Stop:00000000 HAL_LPTIM_SetOnce_Stop
     /tmp/ccB7T7H1.s:1536   .text.HAL_LPTIM_SetOnce_Start_IT:00000000 $t
     /tmp/ccB7T7H1.s:1542   .text.HAL_LPTIM_SetOnce_Start_IT:00000000 HAL_LPTIM_SetOnce_Start_IT
     /tmp/ccB7T7H1.s:1723   .text.HAL_LPTIM_SetOnce_Stop_IT:00000000 $t
     /tmp/ccB7T7H1.s:1729   .text.HAL_LPTIM_SetOnce_Stop_IT:00000000 HAL_LPTIM_SetOnce_Stop_IT
     /tmp/ccB7T7H1.s:1829   .text.HAL_LPTIM_Encoder_Start:00000000 $t
     /tmp/ccB7T7H1.s:1835   .text.HAL_LPTIM_Encoder_Start:00000000 HAL_LPTIM_Encoder_Start
     /tmp/ccB7T7H1.s:1946   .text.HAL_LPTIM_Encoder_Stop:00000000 $t
     /tmp/ccB7T7H1.s:1952   .text.HAL_LPTIM_Encoder_Stop:00000000 HAL_LPTIM_Encoder_Stop
     /tmp/ccB7T7H1.s:2015   .text.HAL_LPTIM_Encoder_Start_IT:00000000 $t
     /tmp/ccB7T7H1.s:2021   .text.HAL_LPTIM_Encoder_Start_IT:00000000 HAL_LPTIM_Encoder_Start_IT
     /tmp/ccB7T7H1.s:2170   .text.HAL_LPTIM_Encoder_Stop_IT:00000000 $t
     /tmp/ccB7T7H1.s:2176   .text.HAL_LPTIM_Encoder_Stop_IT:00000000 HAL_LPTIM_Encoder_Stop_IT
     /tmp/ccB7T7H1.s:2255   .text.HAL_LPTIM_TimeOut_Start:00000000 $t
     /tmp/ccB7T7H1.s:2261   .text.HAL_LPTIM_TimeOut_Start:00000000 HAL_LPTIM_TimeOut_Start
     /tmp/ccB7T7H1.s:2372   .text.HAL_LPTIM_TimeOut_Stop:00000000 $t
     /tmp/ccB7T7H1.s:2378   .text.HAL_LPTIM_TimeOut_Stop:00000000 HAL_LPTIM_TimeOut_Stop
     /tmp/ccB7T7H1.s:2441   .text.HAL_LPTIM_TimeOut_Start_IT:00000000 $t
     /tmp/ccB7T7H1.s:2447   .text.HAL_LPTIM_TimeOut_Start_IT:00000000 HAL_LPTIM_TimeOut_Start_IT
     /tmp/ccB7T7H1.s:2608   .text.HAL_LPTIM_TimeOut_Start_IT:000000f4 $d
     /tmp/ccB7T7H1.s:2614   .text.HAL_LPTIM_TimeOut_Stop_IT:00000000 $t
     /tmp/ccB7T7H1.s:2620   .text.HAL_LPTIM_TimeOut_Stop_IT:00000000 HAL_LPTIM_TimeOut_Stop_IT
ARM GAS  /tmp/ccB7T7H1.s 			page 132


     /tmp/ccB7T7H1.s:2711   .text.HAL_LPTIM_TimeOut_Stop_IT:0000007c $d
     /tmp/ccB7T7H1.s:2717   .text.HAL_LPTIM_Counter_Start:00000000 $t
     /tmp/ccB7T7H1.s:2723   .text.HAL_LPTIM_Counter_Start:00000000 HAL_LPTIM_Counter_Start
     /tmp/ccB7T7H1.s:2824   .text.HAL_LPTIM_Counter_Stop:00000000 $t
     /tmp/ccB7T7H1.s:2830   .text.HAL_LPTIM_Counter_Stop:00000000 HAL_LPTIM_Counter_Stop
     /tmp/ccB7T7H1.s:2882   .text.HAL_LPTIM_Counter_Start_IT:00000000 $t
     /tmp/ccB7T7H1.s:2888   .text.HAL_LPTIM_Counter_Start_IT:00000000 HAL_LPTIM_Counter_Start_IT
     /tmp/ccB7T7H1.s:3047   .text.HAL_LPTIM_Counter_Start_IT:000000f4 $d
     /tmp/ccB7T7H1.s:3053   .text.HAL_LPTIM_Counter_Stop_IT:00000000 $t
     /tmp/ccB7T7H1.s:3059   .text.HAL_LPTIM_Counter_Stop_IT:00000000 HAL_LPTIM_Counter_Stop_IT
     /tmp/ccB7T7H1.s:3147   .text.HAL_LPTIM_Counter_Stop_IT:0000007c $d
     /tmp/ccB7T7H1.s:3153   .text.HAL_LPTIM_ReadCounter:00000000 $t
     /tmp/ccB7T7H1.s:3159   .text.HAL_LPTIM_ReadCounter:00000000 HAL_LPTIM_ReadCounter
     /tmp/ccB7T7H1.s:3194   .text.HAL_LPTIM_ReadAutoReload:00000000 $t
     /tmp/ccB7T7H1.s:3200   .text.HAL_LPTIM_ReadAutoReload:00000000 HAL_LPTIM_ReadAutoReload
     /tmp/ccB7T7H1.s:3235   .text.HAL_LPTIM_ReadCapturedValue:00000000 $t
     /tmp/ccB7T7H1.s:3241   .text.HAL_LPTIM_ReadCapturedValue:00000000 HAL_LPTIM_ReadCapturedValue
     /tmp/ccB7T7H1.s:3276   .text.HAL_LPTIM_IRQHandler:00000000 $t
     /tmp/ccB7T7H1.s:3282   .text.HAL_LPTIM_IRQHandler:00000000 HAL_LPTIM_IRQHandler
     /tmp/ccB7T7H1.s:3490   .text.HAL_LPTIM_CompareMatchCallback:00000000 HAL_LPTIM_CompareMatchCallback
     /tmp/ccB7T7H1.s:3526   .text.HAL_LPTIM_AutoReloadMatchCallback:00000000 HAL_LPTIM_AutoReloadMatchCallback
     /tmp/ccB7T7H1.s:3562   .text.HAL_LPTIM_TriggerCallback:00000000 HAL_LPTIM_TriggerCallback
     /tmp/ccB7T7H1.s:3598   .text.HAL_LPTIM_CompareWriteCallback:00000000 HAL_LPTIM_CompareWriteCallback
     /tmp/ccB7T7H1.s:3634   .text.HAL_LPTIM_AutoReloadWriteCallback:00000000 HAL_LPTIM_AutoReloadWriteCallback
     /tmp/ccB7T7H1.s:3670   .text.HAL_LPTIM_DirectionUpCallback:00000000 HAL_LPTIM_DirectionUpCallback
     /tmp/ccB7T7H1.s:3706   .text.HAL_LPTIM_DirectionDownCallback:00000000 HAL_LPTIM_DirectionDownCallback
     /tmp/ccB7T7H1.s:3484   .text.HAL_LPTIM_CompareMatchCallback:00000000 $t
     /tmp/ccB7T7H1.s:3520   .text.HAL_LPTIM_AutoReloadMatchCallback:00000000 $t
     /tmp/ccB7T7H1.s:3556   .text.HAL_LPTIM_TriggerCallback:00000000 $t
     /tmp/ccB7T7H1.s:3592   .text.HAL_LPTIM_CompareWriteCallback:00000000 $t
     /tmp/ccB7T7H1.s:3628   .text.HAL_LPTIM_AutoReloadWriteCallback:00000000 $t
     /tmp/ccB7T7H1.s:3664   .text.HAL_LPTIM_DirectionUpCallback:00000000 $t
     /tmp/ccB7T7H1.s:3700   .text.HAL_LPTIM_DirectionDownCallback:00000000 $t
     /tmp/ccB7T7H1.s:3736   .text.HAL_LPTIM_GetState:00000000 $t
     /tmp/ccB7T7H1.s:3776   .text.LPTIM_WaitForFlag:00000000 $t
     /tmp/ccB7T7H1.s:3854   .text.LPTIM_WaitForFlag:00000058 $d
     /tmp/ccB7T7H1.s:3860   .text.LPTIM_Disable:00000000 $t
     /tmp/ccB7T7H1.s:4232   .text.LPTIM_Disable:000001f4 $d
                           .group:00000000 wm4.0.e7b64c2c371cf922f2c8028878d5c18e
                           .group:00000000 wm4.stm32l4xx_hal_conf.h.23.286c2f63aaa73ed97ffb4d26f7caa6e9
                           .group:00000000 wm4.stm32l4xx.h.38.9f5830373ca31b8a3cd182fdc6c7b69a
                           .group:00000000 wm4.stm32l475xx.h.34.2f1a75aed66751e299f09004aef64973
                           .group:00000000 wm4.stdint.h.29.6d480f4ba0f60596e88234283d42444f
                           .group:00000000 wm4.cmsis_version.h.32.46e8eccfa2cfeaae11d008bb2823a3ed
                           .group:00000000 wm4.core_cm4.h.66.e4ff136c4a17abc46741866f64f8e729
                           .group:00000000 wm4.cmsis_gcc.h.26.78077cef1206e937f7b56043ffca496a
                           .group:00000000 wm4.core_cm4.h.174.fcddd62df80231752fa39eb9b61dadfe
                           .group:00000000 wm4.mpu_armv7.h.32.4049752bb5792d4e15357775e9506cfc
                           .group:00000000 wm4.stm32l475xx.h.423.4d783859c9ac66890c9807dd7bd3a4db
                           .group:00000000 wm4.stm32l4xx.h.196.f5ae8047c57b6175c94f246ef967a286
                           .group:00000000 wm4.stm32_hal_legacy.h.22.08b8350ccf512ba8d98002fb33e7cbe5
                           .group:00000000 wm4.stddef.h.39.0dc9006b34572d4d9cae4c8b422c4971
                           .group:00000000 wm4.stm32l4xx_hal_def.h.58.1058a33f7217e935f2a6b51956d66a69
                           .group:00000000 wm4.stm32l4xx_hal_rcc.h.156.ab8eecc4e10f4827a2aa75d3549a356d
                           .group:00000000 wm4.stm32l4xx_hal_rcc_ex.h.20.4a82a27d561b6d42fa16a54f82e29067
                           .group:00000000 wm4.stm32l4xx_hal_gpio.h.21.2d2b1fd6aa6afa7b6dcc89cf752a9a25
                           .group:00000000 wm4.stm32l4xx_hal_gpio_ex.h.21.7ea705f5185dd3c6b8ea336f2858cd46
ARM GAS  /tmp/ccB7T7H1.s 			page 133


                           .group:00000000 wm4.stm32l4xx_ll_dma.h.21.b30e7f48d60d1fc53041ec1e3fd6e54a
                           .group:00000000 wm4.stm32l4xx_hal_dma.h.166.54a7f8d65cee6f051d541dc010387b5a
                           .group:00000000 wm4.stm32l4xx_hal_dfsdm.h.21.6785e38d00075079c7f2e5657def82ae
                           .group:00000000 wm4.stm32l4xx_hal_cortex.h.21.cb491126bd2d6f44e90b66f27acb8434
                           .group:00000000 wm4.stm32l4xx_ll_adc.h.21.0c578f71501c74365c67044efed214d6
                           .group:00000000 wm4.stm32l4xx_hal_adc.h.411.68f60682cdb20556089756a482f23764
                           .group:00000000 wm4.stm32l4xx_hal_adc_ex.h.21.7b82cb80166a21dfa8cb3e2fa8f8e654
                           .group:00000000 wm4.stm32l4xx_hal_can.h.21.5019586d8e7137c0cec16eb1f9d6677b
                           .group:00000000 wm4.stm32l4xx_ll_exti.h.21.d866eff070d6f999af2ce4ea60aa40ac
                           .group:00000000 wm4.stm32l4xx_hal_comp.h.87.7f14cb673a463359c83faa552328844d
                           .group:00000000 wm4.stm32l4xx_hal_crc.h.21.4c36a140cca35e6a8e478e76c6ad98e3
                           .group:00000000 wm4.stm32l4xx_hal_crc_ex.h.21.9cc3dead436542d416ee5572c231a242
                           .group:00000000 wm4.stm32l4xx_hal_dac.h.21.69feba704135531cf3d9b92de27b71d5
                           .group:00000000 wm4.stm32l4xx_hal_dac_ex.h.21.c86699169bead5415cc3e94027b67df4
                           .group:00000000 wm4.stm32l4xx_hal_exti.h.21.242e0410874d91d6d7523948fff74125
                           .group:00000000 wm4.stm32l4xx_hal_firewall.h.21.7ed44f4228fcc2ef96d2177dd8632645
                           .group:00000000 wm4.stm32l4xx_hal_flash.h.20.5e337018ccfa211b4afe888a79aae9f5
                           .group:00000000 wm4.stm32l4xx_hal_flash.h.846.0445f6ea07a3f9aac82891c8687d96fb
                           .group:00000000 wm4.stm32l4xx_ll_usb.h.21.5b5e42fb72a33dd326d7b20064953946
                           .group:00000000 wm4.stm32l4xx_hal_hcd.h.107.73f2fd24f57e8822da5cc86bd5ad3dfd
                           .group:00000000 wm4.stm32l4xx_hal_i2c.h.21.e7fc2065051c77019a818818e4a637d8
                           .group:00000000 wm4.stm32l4xx_hal_i2c_ex.h.21.ad4ad4e558d4fec06df87d163a6927d7
                           .group:00000000 wm4.stm32l4xx_hal_i2c.h.737.fa3908c81294cf0f9894ae336466002c
                           .group:00000000 wm4.stm32l4xx_hal_irda.h.21.136c042f9eef333167a549cc099df0c9
                           .group:00000000 wm4.stm32l4xx_hal_irda_ex.h.21.e0ada4e6d2b2cadfb512dd3c8ac0a637
                           .group:00000000 wm4.stm32l4xx_hal_iwdg.h.21.f94ca75f2fe1ebc7a2a8d0f5b58d8430
                           .group:00000000 wm4.stm32l4xx_hal_lptim.h.21.78222ea6639fc8c02789d293a048991e
                           .group:00000000 wm4.stm32l4xx_ll_sdmmc.h.21.65a5a8696b6ca7b87cc93d218084d702
                           .group:00000000 wm4.stm32l4xx_hal_mmc.h.69.8f4159f0a88ef1ebc33c58a8f10362b9
                           .group:00000000 wm4.stm32l4xx_ll_fmc.h.21.156a244c55010643ee92c6119049cb68
                           .group:00000000 wm4.stm32l4xx_hal_nand.h.176.9bfeac6e4e757991088bbd0df44e2be9
                           .group:00000000 wm4.stm32l4xx_hal_nor.h.21.d47e91e825f466bbac02fac0a7845a7a
                           .group:00000000 wm4.stm32l4xx_hal_opamp.h.21.9d841e1eaccee939f247b3f973f8af5f
                           .group:00000000 wm4.stm32l4xx_hal_pcd.h.169.addb1fac652268a18a0707cfcb5e2e47
                           .group:00000000 wm4.stm32l4xx_hal_pwr.h.21.7ddab2caa97243c36e496eca17b27618
                           .group:00000000 wm4.stm32l4xx_hal_pwr_ex.h.21.65ad8bbdbcb1950d945c0de10f22dc80
                           .group:00000000 wm4.stm32l4xx_hal_qspi.h.21.0291dad4eaa82101f2f77d76315c9b12
                           .group:00000000 wm4.stm32l4xx_hal_rng.h.21.96593715bdeab0c74ac9dfc538fb2feb
                           .group:00000000 wm4.stm32l4xx_hal_rtc.h.21.9da6b1aeebde99930891f803cb7f9678
                           .group:00000000 wm4.stm32l4xx_hal_rtc_ex.h.21.c692539378320719c7f2a2da1ca64502
                           .group:00000000 wm4.stm32l4xx_hal_rtc.h.999.c8bd9450c783628bd606ecb31bea5cc9
                           .group:00000000 wm4.stm32l4xx_hal_sai.h.21.c1165aaf2bbde65fae28ed4817be5cc5
                           .group:00000000 wm4.stm32l4xx_hal_sd.h.21.b395c90a87e82f7e8d77d4a518036063
                           .group:00000000 wm4.stm32l4xx_hal_smartcard.h.21.423c3ad63e0df35b864303e89e6d253c
                           .group:00000000 wm4.stm32l4xx_hal_smartcard_ex.h.21.801a2ce9252a785aec000b3fc7667a74
                           .group:00000000 wm4.stm32l4xx_hal_smbus.h.21.7480adb16468bfdce819ee591f21299e
                           .group:00000000 wm4.stm32l4xx_hal_smbus_ex.h.21.bdc715f5f6fb6612a871d3c03c3b871f
                           .group:00000000 wm4.stm32l4xx_hal_spi.h.21.3b51f9f7b241962f6b3483c47a43334f
                           .group:00000000 wm4.stm32l4xx_hal_sram.h.21.285210181e158bddc1cdde63dde572fd
                           .group:00000000 wm4.stm32l4xx_hal_swpmi.h.21.787f994f40b117a62aad9a6dd408b8fc
                           .group:00000000 wm4.stm32l4xx_hal_tim.h.21.d190832030e7505384ad081daa7ba8d6
                           .group:00000000 wm4.stm32l4xx_hal_tim_ex.h.21.1d0860218366ee9f64a97fd8af0ddee1
                           .group:00000000 wm4.stm32l4xx_hal_tsc.h.21.e9010049847ea38297d4b95a5ede0d8c
                           .group:00000000 wm4.stm32l4xx_hal_uart.h.21.480c0a64ca01596a921cda9dceb01df4
                           .group:00000000 wm4.stm32l4xx_hal_uart_ex.h.21.d793e64693c93af07c90464aef42bd83
                           .group:00000000 wm4.stm32l4xx_hal_usart.h.21.561c0058e33cb8df6671dcd29d5d25f9
                           .group:00000000 wm4.stm32l4xx_hal_usart_ex.h.21.111da650523691ebc80d64103d7b26e5
ARM GAS  /tmp/ccB7T7H1.s 			page 134


                           .group:00000000 wm4.stm32l4xx_hal_wwdg.h.21.073aa79d58120ae4fb8590c46b210051
                           .group:00000000 wm4.stm32l4xx_hal.h.75.d364b3778b3801d2f66bb409c48d396d

UNDEFINED SYMBOLS
SystemCoreClock
