ARM GAS  /tmp/ccqkTO7R.s 			page 1


   1              		.cpu cortex-m4
   2              		.arch armv7e-m
   3              		.fpu fpv4-sp-d16
   4              		.eabi_attribute 27, 1
   5              		.eabi_attribute 28, 1
   6              		.eabi_attribute 20, 1
   7              		.eabi_attribute 21, 1
   8              		.eabi_attribute 23, 3
   9              		.eabi_attribute 24, 1
  10              		.eabi_attribute 25, 1
  11              		.eabi_attribute 26, 1
  12              		.eabi_attribute 30, 6
  13              		.eabi_attribute 34, 1
  14              		.eabi_attribute 18, 4
  15              		.file	"stm32l475e_iot01_accelero.c"
  16              		.text
  17              	.Ltext0:
  18              		.cfi_sections	.debug_frame
  19              		.file 1 "Drivers/BSP/B-L475E-IOT01/stm32l475e_iot01_accelero.c"
  20              		.section	.rodata.CHANNEL_OFFSET_TAB,"a"
  21              		.align	2
  24              	CHANNEL_OFFSET_TAB:
  25 0000 081C3044 		.ascii	"\010\0340DXl\200"
  25      586C80
  26              		.section	.bss.AccelerometerDrv,"aw",%nobits
  27              		.align	2
  30              	AccelerometerDrv:
  31 0000 00000000 		.space	4
  32              		.section	.text.BSP_ACCELERO_Init,"ax",%progbits
  33              		.align	1
  34              		.global	BSP_ACCELERO_Init
  35              		.syntax unified
  36              		.thumb
  37              		.thumb_func
  39              	BSP_ACCELERO_Init:
  40              	.LFB445:
   1:Drivers/BSP/B-L475E-IOT01/stm32l475e_iot01_accelero.c **** /**
   2:Drivers/BSP/B-L475E-IOT01/stm32l475e_iot01_accelero.c ****   ******************************************************************************
   3:Drivers/BSP/B-L475E-IOT01/stm32l475e_iot01_accelero.c ****   * @file    stm32l475e_iot01_accelero.c
   4:Drivers/BSP/B-L475E-IOT01/stm32l475e_iot01_accelero.c ****   * @author  MCD Application Team
   5:Drivers/BSP/B-L475E-IOT01/stm32l475e_iot01_accelero.c ****   * @brief   This file provides a set of functions needed to manage the accelerometer sensor
   6:Drivers/BSP/B-L475E-IOT01/stm32l475e_iot01_accelero.c ****   ******************************************************************************
   7:Drivers/BSP/B-L475E-IOT01/stm32l475e_iot01_accelero.c ****   * @attention
   8:Drivers/BSP/B-L475E-IOT01/stm32l475e_iot01_accelero.c ****   *
   9:Drivers/BSP/B-L475E-IOT01/stm32l475e_iot01_accelero.c ****   * Copyright (c) 2017 STMicroelectronics.
  10:Drivers/BSP/B-L475E-IOT01/stm32l475e_iot01_accelero.c ****   * All rights reserved.
  11:Drivers/BSP/B-L475E-IOT01/stm32l475e_iot01_accelero.c ****   *
  12:Drivers/BSP/B-L475E-IOT01/stm32l475e_iot01_accelero.c ****   * This software is licensed under terms that can be found in the LICENSE file
  13:Drivers/BSP/B-L475E-IOT01/stm32l475e_iot01_accelero.c ****   * in the root directory of this software component.
  14:Drivers/BSP/B-L475E-IOT01/stm32l475e_iot01_accelero.c ****   * If no LICENSE file comes with this software, it is provided AS-IS.
  15:Drivers/BSP/B-L475E-IOT01/stm32l475e_iot01_accelero.c ****   *
  16:Drivers/BSP/B-L475E-IOT01/stm32l475e_iot01_accelero.c ****   ******************************************************************************
  17:Drivers/BSP/B-L475E-IOT01/stm32l475e_iot01_accelero.c ****   */
  18:Drivers/BSP/B-L475E-IOT01/stm32l475e_iot01_accelero.c **** 
  19:Drivers/BSP/B-L475E-IOT01/stm32l475e_iot01_accelero.c **** /* Includes ------------------------------------------------------------------*/
  20:Drivers/BSP/B-L475E-IOT01/stm32l475e_iot01_accelero.c **** #include "stm32l475e_iot01_accelero.h"
  21:Drivers/BSP/B-L475E-IOT01/stm32l475e_iot01_accelero.c **** /** @addtogroup BSP
ARM GAS  /tmp/ccqkTO7R.s 			page 2


  22:Drivers/BSP/B-L475E-IOT01/stm32l475e_iot01_accelero.c ****   * @{
  23:Drivers/BSP/B-L475E-IOT01/stm32l475e_iot01_accelero.c ****   */ 
  24:Drivers/BSP/B-L475E-IOT01/stm32l475e_iot01_accelero.c **** 
  25:Drivers/BSP/B-L475E-IOT01/stm32l475e_iot01_accelero.c **** /** @addtogroup STM32L475E_IOT01
  26:Drivers/BSP/B-L475E-IOT01/stm32l475e_iot01_accelero.c ****   * @{
  27:Drivers/BSP/B-L475E-IOT01/stm32l475e_iot01_accelero.c ****   */
  28:Drivers/BSP/B-L475E-IOT01/stm32l475e_iot01_accelero.c **** 
  29:Drivers/BSP/B-L475E-IOT01/stm32l475e_iot01_accelero.c **** /** @defgroup STM32L475E_IOT01_ACCELERO ACCELERO
  30:Drivers/BSP/B-L475E-IOT01/stm32l475e_iot01_accelero.c ****   * @{
  31:Drivers/BSP/B-L475E-IOT01/stm32l475e_iot01_accelero.c ****   */
  32:Drivers/BSP/B-L475E-IOT01/stm32l475e_iot01_accelero.c **** 
  33:Drivers/BSP/B-L475E-IOT01/stm32l475e_iot01_accelero.c **** /** @defgroup STM32L475E_IOT01_ACCELERO_Private_Variables ACCELERO Private Variables 
  34:Drivers/BSP/B-L475E-IOT01/stm32l475e_iot01_accelero.c ****   * @{
  35:Drivers/BSP/B-L475E-IOT01/stm32l475e_iot01_accelero.c ****   */    
  36:Drivers/BSP/B-L475E-IOT01/stm32l475e_iot01_accelero.c **** static ACCELERO_DrvTypeDef *AccelerometerDrv;  
  37:Drivers/BSP/B-L475E-IOT01/stm32l475e_iot01_accelero.c **** /**
  38:Drivers/BSP/B-L475E-IOT01/stm32l475e_iot01_accelero.c ****   * @}
  39:Drivers/BSP/B-L475E-IOT01/stm32l475e_iot01_accelero.c ****   */
  40:Drivers/BSP/B-L475E-IOT01/stm32l475e_iot01_accelero.c **** 
  41:Drivers/BSP/B-L475E-IOT01/stm32l475e_iot01_accelero.c **** /** @defgroup STM32L475E_IOT01_ACCELERO_Private_Functions ACCELERO Private Functions
  42:Drivers/BSP/B-L475E-IOT01/stm32l475e_iot01_accelero.c ****   * @{
  43:Drivers/BSP/B-L475E-IOT01/stm32l475e_iot01_accelero.c ****   */ 
  44:Drivers/BSP/B-L475E-IOT01/stm32l475e_iot01_accelero.c **** /**
  45:Drivers/BSP/B-L475E-IOT01/stm32l475e_iot01_accelero.c ****   * @brief  Initialize the ACCELERO.
  46:Drivers/BSP/B-L475E-IOT01/stm32l475e_iot01_accelero.c ****   * @retval ACCELERO_OK or ACCELERO_ERROR
  47:Drivers/BSP/B-L475E-IOT01/stm32l475e_iot01_accelero.c ****   */
  48:Drivers/BSP/B-L475E-IOT01/stm32l475e_iot01_accelero.c **** ACCELERO_StatusTypeDef BSP_ACCELERO_Init(void)
  49:Drivers/BSP/B-L475E-IOT01/stm32l475e_iot01_accelero.c **** {  
  41              		.loc 1 49 1
  42              		.cfi_startproc
  43              		@ args = 0, pretend = 0, frame = 16
  44              		@ frame_needed = 1, uses_anonymous_args = 0
  45 0000 80B5     		push	{r7, lr}
  46              		.cfi_def_cfa_offset 8
  47              		.cfi_offset 7, -8
  48              		.cfi_offset 14, -4
  49 0002 84B0     		sub	sp, sp, #16
  50              		.cfi_def_cfa_offset 24
  51 0004 00AF     		add	r7, sp, #0
  52              		.cfi_def_cfa_register 7
  50:Drivers/BSP/B-L475E-IOT01/stm32l475e_iot01_accelero.c ****   ACCELERO_StatusTypeDef ret = ACCELERO_OK;
  53              		.loc 1 50 26
  54 0006 0023     		movs	r3, #0
  55 0008 FB73     		strb	r3, [r7, #15]
  51:Drivers/BSP/B-L475E-IOT01/stm32l475e_iot01_accelero.c ****   uint16_t ctrl = 0x0000;
  56              		.loc 1 51 12
  57 000a 0023     		movs	r3, #0
  58 000c BB81     		strh	r3, [r7, #12]	@ movhi
  52:Drivers/BSP/B-L475E-IOT01/stm32l475e_iot01_accelero.c ****   ACCELERO_InitTypeDef LSM6DSL_InitStructure;
  53:Drivers/BSP/B-L475E-IOT01/stm32l475e_iot01_accelero.c **** 
  54:Drivers/BSP/B-L475E-IOT01/stm32l475e_iot01_accelero.c ****   if(Lsm6dslAccDrv.ReadID() != LSM6DSL_ACC_GYRO_WHO_AM_I)
  59              		.loc 1 54 19
  60 000e 1A4B     		ldr	r3, .L5
  61 0010 9B68     		ldr	r3, [r3, #8]
  62              		.loc 1 54 6
  63 0012 9847     		blx	r3
  64              	.LVL0:
ARM GAS  /tmp/ccqkTO7R.s 			page 3


  65 0014 0346     		mov	r3, r0
  66              		.loc 1 54 5 discriminator 1
  67 0016 6A2B     		cmp	r3, #106
  68 0018 02D0     		beq	.L2
  55:Drivers/BSP/B-L475E-IOT01/stm32l475e_iot01_accelero.c ****   {
  56:Drivers/BSP/B-L475E-IOT01/stm32l475e_iot01_accelero.c ****     ret = ACCELERO_ERROR;
  69              		.loc 1 56 9
  70 001a 0123     		movs	r3, #1
  71 001c FB73     		strb	r3, [r7, #15]
  72 001e 25E0     		b	.L3
  73              	.L2:
  57:Drivers/BSP/B-L475E-IOT01/stm32l475e_iot01_accelero.c ****   }
  58:Drivers/BSP/B-L475E-IOT01/stm32l475e_iot01_accelero.c ****   else
  59:Drivers/BSP/B-L475E-IOT01/stm32l475e_iot01_accelero.c ****   {
  60:Drivers/BSP/B-L475E-IOT01/stm32l475e_iot01_accelero.c ****     /* Initialize the ACCELERO accelerometer driver structure */
  61:Drivers/BSP/B-L475E-IOT01/stm32l475e_iot01_accelero.c ****     AccelerometerDrv = &Lsm6dslAccDrv;
  74              		.loc 1 61 22
  75 0020 164B     		ldr	r3, .L5+4
  76 0022 154A     		ldr	r2, .L5
  77 0024 1A60     		str	r2, [r3]
  62:Drivers/BSP/B-L475E-IOT01/stm32l475e_iot01_accelero.c ****   
  63:Drivers/BSP/B-L475E-IOT01/stm32l475e_iot01_accelero.c ****     /* MEMS configuration ------------------------------------------------------*/
  64:Drivers/BSP/B-L475E-IOT01/stm32l475e_iot01_accelero.c ****     /* Fill the ACCELERO accelerometer structure */
  65:Drivers/BSP/B-L475E-IOT01/stm32l475e_iot01_accelero.c ****     LSM6DSL_InitStructure.AccOutput_DataRate = LSM6DSL_ODR_52Hz;
  78              		.loc 1 65 46
  79 0026 3023     		movs	r3, #48
  80 0028 7B71     		strb	r3, [r7, #5]
  66:Drivers/BSP/B-L475E-IOT01/stm32l475e_iot01_accelero.c ****     LSM6DSL_InitStructure.Axes_Enable = 0;
  81              		.loc 1 66 39
  82 002a 0023     		movs	r3, #0
  83 002c BB71     		strb	r3, [r7, #6]
  67:Drivers/BSP/B-L475E-IOT01/stm32l475e_iot01_accelero.c ****     LSM6DSL_InitStructure.AccFull_Scale = LSM6DSL_ACC_FULLSCALE_2G;
  84              		.loc 1 67 41
  85 002e 0023     		movs	r3, #0
  86 0030 BB72     		strb	r3, [r7, #10]
  68:Drivers/BSP/B-L475E-IOT01/stm32l475e_iot01_accelero.c ****     LSM6DSL_InitStructure.BlockData_Update = LSM6DSL_BDU_BLOCK_UPDATE;
  87              		.loc 1 68 44
  88 0032 4023     		movs	r3, #64
  89 0034 3B72     		strb	r3, [r7, #8]
  69:Drivers/BSP/B-L475E-IOT01/stm32l475e_iot01_accelero.c ****     LSM6DSL_InitStructure.High_Resolution = 0;
  90              		.loc 1 69 43
  91 0036 0023     		movs	r3, #0
  92 0038 FB71     		strb	r3, [r7, #7]
  70:Drivers/BSP/B-L475E-IOT01/stm32l475e_iot01_accelero.c ****     LSM6DSL_InitStructure.Communication_Mode = 0;
  93              		.loc 1 70 46
  94 003a 0023     		movs	r3, #0
  95 003c FB72     		strb	r3, [r7, #11]
  71:Drivers/BSP/B-L475E-IOT01/stm32l475e_iot01_accelero.c ****         
  72:Drivers/BSP/B-L475E-IOT01/stm32l475e_iot01_accelero.c ****     /* Configure MEMS: data rate, full scale  */
  73:Drivers/BSP/B-L475E-IOT01/stm32l475e_iot01_accelero.c ****     ctrl =  (LSM6DSL_InitStructure.AccOutput_DataRate | LSM6DSL_InitStructure.AccFull_Scale);
  96              		.loc 1 73 35
  97 003e 7A79     		ldrb	r2, [r7, #5]	@ zero_extendqisi2
  98              		.loc 1 73 78
  99 0040 BB7A     		ldrb	r3, [r7, #10]	@ zero_extendqisi2
 100              		.loc 1 73 10
 101 0042 1343     		orrs	r3, r3, r2
 102 0044 DBB2     		uxtb	r3, r3
ARM GAS  /tmp/ccqkTO7R.s 			page 4


 103 0046 BB81     		strh	r3, [r7, #12]	@ movhi
  74:Drivers/BSP/B-L475E-IOT01/stm32l475e_iot01_accelero.c ****     
  75:Drivers/BSP/B-L475E-IOT01/stm32l475e_iot01_accelero.c ****     /* Configure MEMS: BDU and Auto-increment for multi read/write */
  76:Drivers/BSP/B-L475E-IOT01/stm32l475e_iot01_accelero.c ****     ctrl |= ((LSM6DSL_InitStructure.BlockData_Update | LSM6DSL_ACC_GYRO_IF_INC_ENABLED) << 8);
 104              		.loc 1 76 36
 105 0048 3B7A     		ldrb	r3, [r7, #8]	@ zero_extendqisi2
 106              		.loc 1 76 10
 107 004a 43F00403 		orr	r3, r3, #4
 108 004e DBB2     		uxtb	r3, r3
 109 0050 1BB2     		sxth	r3, r3
 110 0052 1B02     		lsls	r3, r3, #8
 111 0054 1AB2     		sxth	r2, r3
 112 0056 B7F90C30 		ldrsh	r3, [r7, #12]
 113 005a 1343     		orrs	r3, r3, r2
 114 005c 1BB2     		sxth	r3, r3
 115 005e BB81     		strh	r3, [r7, #12]	@ movhi
  77:Drivers/BSP/B-L475E-IOT01/stm32l475e_iot01_accelero.c **** 
  78:Drivers/BSP/B-L475E-IOT01/stm32l475e_iot01_accelero.c ****     /* Configure the ACCELERO accelerometer main parameters */
  79:Drivers/BSP/B-L475E-IOT01/stm32l475e_iot01_accelero.c ****     AccelerometerDrv->Init(ctrl);
 116              		.loc 1 79 21
 117 0060 064B     		ldr	r3, .L5+4
 118 0062 1B68     		ldr	r3, [r3]
 119 0064 1B68     		ldr	r3, [r3]
 120              		.loc 1 79 5
 121 0066 BA89     		ldrh	r2, [r7, #12]
 122 0068 1046     		mov	r0, r2
 123 006a 9847     		blx	r3
 124              	.LVL1:
 125              	.L3:
  80:Drivers/BSP/B-L475E-IOT01/stm32l475e_iot01_accelero.c ****   }  
  81:Drivers/BSP/B-L475E-IOT01/stm32l475e_iot01_accelero.c **** 
  82:Drivers/BSP/B-L475E-IOT01/stm32l475e_iot01_accelero.c ****   return ret;
 126              		.loc 1 82 10
 127 006c FB7B     		ldrb	r3, [r7, #15]	@ zero_extendqisi2
  83:Drivers/BSP/B-L475E-IOT01/stm32l475e_iot01_accelero.c **** }
 128              		.loc 1 83 1
 129 006e 1846     		mov	r0, r3
 130 0070 1037     		adds	r7, r7, #16
 131              		.cfi_def_cfa_offset 8
 132 0072 BD46     		mov	sp, r7
 133              		.cfi_def_cfa_register 13
 134              		@ sp needed
 135 0074 80BD     		pop	{r7, pc}
 136              	.L6:
 137 0076 00BF     		.align	2
 138              	.L5:
 139 0078 00000000 		.word	Lsm6dslAccDrv
 140 007c 00000000 		.word	AccelerometerDrv
 141              		.cfi_endproc
 142              	.LFE445:
 144              		.section	.text.BSP_ACCELERO_DeInit,"ax",%progbits
 145              		.align	1
 146              		.global	BSP_ACCELERO_DeInit
 147              		.syntax unified
 148              		.thumb
 149              		.thumb_func
 151              	BSP_ACCELERO_DeInit:
ARM GAS  /tmp/ccqkTO7R.s 			page 5


 152              	.LFB446:
  84:Drivers/BSP/B-L475E-IOT01/stm32l475e_iot01_accelero.c **** 
  85:Drivers/BSP/B-L475E-IOT01/stm32l475e_iot01_accelero.c **** /**
  86:Drivers/BSP/B-L475E-IOT01/stm32l475e_iot01_accelero.c ****   * @brief  DeInitialize the ACCELERO.
  87:Drivers/BSP/B-L475E-IOT01/stm32l475e_iot01_accelero.c ****   * @retval None.
  88:Drivers/BSP/B-L475E-IOT01/stm32l475e_iot01_accelero.c ****   */
  89:Drivers/BSP/B-L475E-IOT01/stm32l475e_iot01_accelero.c **** void BSP_ACCELERO_DeInit(void)
  90:Drivers/BSP/B-L475E-IOT01/stm32l475e_iot01_accelero.c **** {
 153              		.loc 1 90 1
 154              		.cfi_startproc
 155              		@ args = 0, pretend = 0, frame = 0
 156              		@ frame_needed = 1, uses_anonymous_args = 0
 157 0000 80B5     		push	{r7, lr}
 158              		.cfi_def_cfa_offset 8
 159              		.cfi_offset 7, -8
 160              		.cfi_offset 14, -4
 161 0002 00AF     		add	r7, sp, #0
 162              		.cfi_def_cfa_register 7
  91:Drivers/BSP/B-L475E-IOT01/stm32l475e_iot01_accelero.c ****   /* DeInitialize the accelerometer IO interfaces */
  92:Drivers/BSP/B-L475E-IOT01/stm32l475e_iot01_accelero.c ****   if(AccelerometerDrv != NULL)
 163              		.loc 1 92 23
 164 0004 074B     		ldr	r3, .L10
 165 0006 1B68     		ldr	r3, [r3]
 166              		.loc 1 92 5
 167 0008 002B     		cmp	r3, #0
 168 000a 08D0     		beq	.L9
  93:Drivers/BSP/B-L475E-IOT01/stm32l475e_iot01_accelero.c ****   {
  94:Drivers/BSP/B-L475E-IOT01/stm32l475e_iot01_accelero.c ****     if(AccelerometerDrv->DeInit != NULL)
 169              		.loc 1 94 24
 170 000c 054B     		ldr	r3, .L10
 171 000e 1B68     		ldr	r3, [r3]
 172 0010 5B68     		ldr	r3, [r3, #4]
 173              		.loc 1 94 7
 174 0012 002B     		cmp	r3, #0
 175 0014 03D0     		beq	.L9
  95:Drivers/BSP/B-L475E-IOT01/stm32l475e_iot01_accelero.c ****     {
  96:Drivers/BSP/B-L475E-IOT01/stm32l475e_iot01_accelero.c ****       AccelerometerDrv->DeInit();
 176              		.loc 1 96 23
 177 0016 034B     		ldr	r3, .L10
 178 0018 1B68     		ldr	r3, [r3]
 179 001a 5B68     		ldr	r3, [r3, #4]
 180              		.loc 1 96 7
 181 001c 9847     		blx	r3
 182              	.LVL2:
 183              	.L9:
  97:Drivers/BSP/B-L475E-IOT01/stm32l475e_iot01_accelero.c ****     }
  98:Drivers/BSP/B-L475E-IOT01/stm32l475e_iot01_accelero.c ****   }
  99:Drivers/BSP/B-L475E-IOT01/stm32l475e_iot01_accelero.c **** }
 184              		.loc 1 99 1
 185 001e 00BF     		nop
 186 0020 80BD     		pop	{r7, pc}
 187              	.L11:
 188 0022 00BF     		.align	2
 189              	.L10:
 190 0024 00000000 		.word	AccelerometerDrv
 191              		.cfi_endproc
 192              	.LFE446:
ARM GAS  /tmp/ccqkTO7R.s 			page 6


 194              		.section	.text.BSP_ACCELERO_LowPower,"ax",%progbits
 195              		.align	1
 196              		.global	BSP_ACCELERO_LowPower
 197              		.syntax unified
 198              		.thumb
 199              		.thumb_func
 201              	BSP_ACCELERO_LowPower:
 202              	.LFB447:
 100:Drivers/BSP/B-L475E-IOT01/stm32l475e_iot01_accelero.c **** 
 101:Drivers/BSP/B-L475E-IOT01/stm32l475e_iot01_accelero.c **** /**
 102:Drivers/BSP/B-L475E-IOT01/stm32l475e_iot01_accelero.c ****   * @brief  Set/Unset the ACCELERO in low power mode.
 103:Drivers/BSP/B-L475E-IOT01/stm32l475e_iot01_accelero.c ****   * @param  status 0 means disable Low Power Mode, otherwise Low Power Mode is enabled
 104:Drivers/BSP/B-L475E-IOT01/stm32l475e_iot01_accelero.c ****   * @retval None
 105:Drivers/BSP/B-L475E-IOT01/stm32l475e_iot01_accelero.c ****   */
 106:Drivers/BSP/B-L475E-IOT01/stm32l475e_iot01_accelero.c **** void BSP_ACCELERO_LowPower(uint16_t status)
 107:Drivers/BSP/B-L475E-IOT01/stm32l475e_iot01_accelero.c **** {
 203              		.loc 1 107 1
 204              		.cfi_startproc
 205              		@ args = 0, pretend = 0, frame = 8
 206              		@ frame_needed = 1, uses_anonymous_args = 0
 207 0000 80B5     		push	{r7, lr}
 208              		.cfi_def_cfa_offset 8
 209              		.cfi_offset 7, -8
 210              		.cfi_offset 14, -4
 211 0002 82B0     		sub	sp, sp, #8
 212              		.cfi_def_cfa_offset 16
 213 0004 00AF     		add	r7, sp, #0
 214              		.cfi_def_cfa_register 7
 215 0006 0346     		mov	r3, r0
 216 0008 FB80     		strh	r3, [r7, #6]	@ movhi
 108:Drivers/BSP/B-L475E-IOT01/stm32l475e_iot01_accelero.c ****   /* Set/Unset the ACCELERO in low power mode */
 109:Drivers/BSP/B-L475E-IOT01/stm32l475e_iot01_accelero.c ****   if(AccelerometerDrv != NULL)
 217              		.loc 1 109 23
 218 000a 094B     		ldr	r3, .L15
 219 000c 1B68     		ldr	r3, [r3]
 220              		.loc 1 109 5
 221 000e 002B     		cmp	r3, #0
 222 0010 0AD0     		beq	.L14
 110:Drivers/BSP/B-L475E-IOT01/stm32l475e_iot01_accelero.c ****   {
 111:Drivers/BSP/B-L475E-IOT01/stm32l475e_iot01_accelero.c ****     if(AccelerometerDrv->LowPower != NULL)
 223              		.loc 1 111 24
 224 0012 074B     		ldr	r3, .L15
 225 0014 1B68     		ldr	r3, [r3]
 226 0016 1B69     		ldr	r3, [r3, #16]
 227              		.loc 1 111 7
 228 0018 002B     		cmp	r3, #0
 229 001a 05D0     		beq	.L14
 112:Drivers/BSP/B-L475E-IOT01/stm32l475e_iot01_accelero.c ****     {
 113:Drivers/BSP/B-L475E-IOT01/stm32l475e_iot01_accelero.c ****       AccelerometerDrv->LowPower(status);
 230              		.loc 1 113 23
 231 001c 044B     		ldr	r3, .L15
 232 001e 1B68     		ldr	r3, [r3]
 233 0020 1B69     		ldr	r3, [r3, #16]
 234              		.loc 1 113 7
 235 0022 FA88     		ldrh	r2, [r7, #6]
 236 0024 1046     		mov	r0, r2
 237 0026 9847     		blx	r3
ARM GAS  /tmp/ccqkTO7R.s 			page 7


 238              	.LVL3:
 239              	.L14:
 114:Drivers/BSP/B-L475E-IOT01/stm32l475e_iot01_accelero.c ****     }
 115:Drivers/BSP/B-L475E-IOT01/stm32l475e_iot01_accelero.c ****   }
 116:Drivers/BSP/B-L475E-IOT01/stm32l475e_iot01_accelero.c **** }
 240              		.loc 1 116 1
 241 0028 00BF     		nop
 242 002a 0837     		adds	r7, r7, #8
 243              		.cfi_def_cfa_offset 8
 244 002c BD46     		mov	sp, r7
 245              		.cfi_def_cfa_register 13
 246              		@ sp needed
 247 002e 80BD     		pop	{r7, pc}
 248              	.L16:
 249              		.align	2
 250              	.L15:
 251 0030 00000000 		.word	AccelerometerDrv
 252              		.cfi_endproc
 253              	.LFE447:
 255              		.section	.text.BSP_ACCELERO_AccGetXYZ,"ax",%progbits
 256              		.align	1
 257              		.global	BSP_ACCELERO_AccGetXYZ
 258              		.syntax unified
 259              		.thumb
 260              		.thumb_func
 262              	BSP_ACCELERO_AccGetXYZ:
 263              	.LFB448:
 117:Drivers/BSP/B-L475E-IOT01/stm32l475e_iot01_accelero.c **** 
 118:Drivers/BSP/B-L475E-IOT01/stm32l475e_iot01_accelero.c **** /**
 119:Drivers/BSP/B-L475E-IOT01/stm32l475e_iot01_accelero.c ****   * @brief  Get XYZ acceleration values.
 120:Drivers/BSP/B-L475E-IOT01/stm32l475e_iot01_accelero.c ****   * @param  pDataXYZ Pointer on 3 angular accelerations table with  
 121:Drivers/BSP/B-L475E-IOT01/stm32l475e_iot01_accelero.c ****   *                  pDataXYZ[0] = X axis, pDataXYZ[1] = Y axis, pDataXYZ[2] = Z axis
 122:Drivers/BSP/B-L475E-IOT01/stm32l475e_iot01_accelero.c ****   * @retval None
 123:Drivers/BSP/B-L475E-IOT01/stm32l475e_iot01_accelero.c ****   */
 124:Drivers/BSP/B-L475E-IOT01/stm32l475e_iot01_accelero.c **** void BSP_ACCELERO_AccGetXYZ(int16_t *pDataXYZ)
 125:Drivers/BSP/B-L475E-IOT01/stm32l475e_iot01_accelero.c **** {
 264              		.loc 1 125 1
 265              		.cfi_startproc
 266              		@ args = 0, pretend = 0, frame = 8
 267              		@ frame_needed = 1, uses_anonymous_args = 0
 268 0000 80B5     		push	{r7, lr}
 269              		.cfi_def_cfa_offset 8
 270              		.cfi_offset 7, -8
 271              		.cfi_offset 14, -4
 272 0002 82B0     		sub	sp, sp, #8
 273              		.cfi_def_cfa_offset 16
 274 0004 00AF     		add	r7, sp, #0
 275              		.cfi_def_cfa_register 7
 276 0006 7860     		str	r0, [r7, #4]
 126:Drivers/BSP/B-L475E-IOT01/stm32l475e_iot01_accelero.c ****   if(AccelerometerDrv != NULL)
 277              		.loc 1 126 23
 278 0008 084B     		ldr	r3, .L20
 279 000a 1B68     		ldr	r3, [r3]
 280              		.loc 1 126 5
 281 000c 002B     		cmp	r3, #0
 282 000e 09D0     		beq	.L19
 127:Drivers/BSP/B-L475E-IOT01/stm32l475e_iot01_accelero.c ****   {
ARM GAS  /tmp/ccqkTO7R.s 			page 8


 128:Drivers/BSP/B-L475E-IOT01/stm32l475e_iot01_accelero.c ****     if(AccelerometerDrv->GetXYZ != NULL)
 283              		.loc 1 128 24
 284 0010 064B     		ldr	r3, .L20
 285 0012 1B68     		ldr	r3, [r3]
 286 0014 1B6B     		ldr	r3, [r3, #48]
 287              		.loc 1 128 7
 288 0016 002B     		cmp	r3, #0
 289 0018 04D0     		beq	.L19
 129:Drivers/BSP/B-L475E-IOT01/stm32l475e_iot01_accelero.c ****     {   
 130:Drivers/BSP/B-L475E-IOT01/stm32l475e_iot01_accelero.c ****       AccelerometerDrv->GetXYZ(pDataXYZ);
 290              		.loc 1 130 23
 291 001a 044B     		ldr	r3, .L20
 292 001c 1B68     		ldr	r3, [r3]
 293 001e 1B6B     		ldr	r3, [r3, #48]
 294              		.loc 1 130 7
 295 0020 7868     		ldr	r0, [r7, #4]
 296 0022 9847     		blx	r3
 297              	.LVL4:
 298              	.L19:
 131:Drivers/BSP/B-L475E-IOT01/stm32l475e_iot01_accelero.c ****     }
 132:Drivers/BSP/B-L475E-IOT01/stm32l475e_iot01_accelero.c ****   }
 133:Drivers/BSP/B-L475E-IOT01/stm32l475e_iot01_accelero.c **** }
 299              		.loc 1 133 1
 300 0024 00BF     		nop
 301 0026 0837     		adds	r7, r7, #8
 302              		.cfi_def_cfa_offset 8
 303 0028 BD46     		mov	sp, r7
 304              		.cfi_def_cfa_register 13
 305              		@ sp needed
 306 002a 80BD     		pop	{r7, pc}
 307              	.L21:
 308              		.align	2
 309              	.L20:
 310 002c 00000000 		.word	AccelerometerDrv
 311              		.cfi_endproc
 312              	.LFE448:
 314              		.text
 315              	.Letext0:
 316              		.file 2 "/usr/lib/gcc/arm-none-eabi/13.2.1/include/stdint.h"
 317              		.file 3 "Drivers/BSP/B-L475E-IOT01/../Components/lsm6dsl/../Common/accelero.h"
 318              		.file 4 "Drivers/BSP/B-L475E-IOT01/stm32l475e_iot01_accelero.h"
 319              		.file 5 "Drivers/STM32L4xx_HAL_Driver/Inc/stm32l4xx_ll_dma.h"
 320              		.file 6 "Drivers/BSP/B-L475E-IOT01/../Components/lsm6dsl/lsm6dsl.h"
ARM GAS  /tmp/ccqkTO7R.s 			page 9

