ARM GAS  /tmp/ccXP8iAY.s 			page 1


   1              		.cpu cortex-m4
   2              		.arch armv7e-m
   3              		.fpu fpv4-sp-d16
   4              		.eabi_attribute 27, 1
   5              		.eabi_attribute 28, 1
   6              		.eabi_attribute 20, 1
   7              		.eabi_attribute 21, 1
   8              		.eabi_attribute 23, 3
   9              		.eabi_attribute 24, 1
  10              		.eabi_attribute 25, 1
  11              		.eabi_attribute 26, 1
  12              		.eabi_attribute 30, 6
  13              		.eabi_attribute 34, 1
  14              		.eabi_attribute 18, 4
  15              		.file	"stm32l4xx_hal_opamp.c"
  16              		.text
  17              	.Ltext0:
  18              		.cfi_sections	.debug_frame
  19              		.file 1 "Drivers/STM32L4xx_HAL_Driver/Src/stm32l4xx_hal_opamp.c"
  20              		.section	.rodata.CHANNEL_OFFSET_TAB,"a"
  21              		.align	2
  24              	CHANNEL_OFFSET_TAB:
  25 0000 081C3044 		.ascii	"\010\0340DXl\200"
  25      586C80
  26              		.section	.text.HAL_OPAMP_Init,"ax",%progbits
  27              		.align	1
  28              		.global	HAL_OPAMP_Init
  29              		.syntax unified
  30              		.thumb
  31              		.thumb_func
  33              	HAL_OPAMP_Init:
  34              	.LFB445:
   1:Drivers/STM32L4xx_HAL_Driver/Src/stm32l4xx_hal_opamp.c **** /**
   2:Drivers/STM32L4xx_HAL_Driver/Src/stm32l4xx_hal_opamp.c ****   ******************************************************************************
   3:Drivers/STM32L4xx_HAL_Driver/Src/stm32l4xx_hal_opamp.c ****   * @file    stm32l4xx_hal_opamp.c
   4:Drivers/STM32L4xx_HAL_Driver/Src/stm32l4xx_hal_opamp.c ****   * @author  MCD Application Team
   5:Drivers/STM32L4xx_HAL_Driver/Src/stm32l4xx_hal_opamp.c ****   * @brief   OPAMP HAL module driver.
   6:Drivers/STM32L4xx_HAL_Driver/Src/stm32l4xx_hal_opamp.c ****   *          This file provides firmware functions to manage the following
   7:Drivers/STM32L4xx_HAL_Driver/Src/stm32l4xx_hal_opamp.c ****   *          functionalities of the operational amplifier(s) peripheral:
   8:Drivers/STM32L4xx_HAL_Driver/Src/stm32l4xx_hal_opamp.c ****   *           + Initialization and de-initialization functions
   9:Drivers/STM32L4xx_HAL_Driver/Src/stm32l4xx_hal_opamp.c ****   *           + IO operation functions
  10:Drivers/STM32L4xx_HAL_Driver/Src/stm32l4xx_hal_opamp.c ****   *           + Peripheral Control functions
  11:Drivers/STM32L4xx_HAL_Driver/Src/stm32l4xx_hal_opamp.c ****   *           + Peripheral State functions
  12:Drivers/STM32L4xx_HAL_Driver/Src/stm32l4xx_hal_opamp.c ****   *
  13:Drivers/STM32L4xx_HAL_Driver/Src/stm32l4xx_hal_opamp.c ****   ******************************************************************************
  14:Drivers/STM32L4xx_HAL_Driver/Src/stm32l4xx_hal_opamp.c ****   * @attention
  15:Drivers/STM32L4xx_HAL_Driver/Src/stm32l4xx_hal_opamp.c ****   *
  16:Drivers/STM32L4xx_HAL_Driver/Src/stm32l4xx_hal_opamp.c ****   * Copyright (c) 2017 STMicroelectronics.
  17:Drivers/STM32L4xx_HAL_Driver/Src/stm32l4xx_hal_opamp.c ****   * All rights reserved.
  18:Drivers/STM32L4xx_HAL_Driver/Src/stm32l4xx_hal_opamp.c ****   *
  19:Drivers/STM32L4xx_HAL_Driver/Src/stm32l4xx_hal_opamp.c ****   * This software is licensed under terms that can be found in the LICENSE file
  20:Drivers/STM32L4xx_HAL_Driver/Src/stm32l4xx_hal_opamp.c ****   * in the root directory of this software component.
  21:Drivers/STM32L4xx_HAL_Driver/Src/stm32l4xx_hal_opamp.c ****   * If no LICENSE file comes with this software, it is provided AS-IS.
  22:Drivers/STM32L4xx_HAL_Driver/Src/stm32l4xx_hal_opamp.c ****   *
  23:Drivers/STM32L4xx_HAL_Driver/Src/stm32l4xx_hal_opamp.c ****   ******************************************************************************
  24:Drivers/STM32L4xx_HAL_Driver/Src/stm32l4xx_hal_opamp.c ****   @verbatim
  25:Drivers/STM32L4xx_HAL_Driver/Src/stm32l4xx_hal_opamp.c **** ================================================================================
ARM GAS  /tmp/ccXP8iAY.s 			page 2


  26:Drivers/STM32L4xx_HAL_Driver/Src/stm32l4xx_hal_opamp.c ****           ##### OPAMP Peripheral Features #####
  27:Drivers/STM32L4xx_HAL_Driver/Src/stm32l4xx_hal_opamp.c **** ================================================================================
  28:Drivers/STM32L4xx_HAL_Driver/Src/stm32l4xx_hal_opamp.c **** 
  29:Drivers/STM32L4xx_HAL_Driver/Src/stm32l4xx_hal_opamp.c ****   [..] The device integrates 1 or 2 operational amplifiers OPAMP1 & OPAMP2
  30:Drivers/STM32L4xx_HAL_Driver/Src/stm32l4xx_hal_opamp.c **** 
  31:Drivers/STM32L4xx_HAL_Driver/Src/stm32l4xx_hal_opamp.c ****        (#) The OPAMP(s) provide(s) several exclusive running modes.
  32:Drivers/STM32L4xx_HAL_Driver/Src/stm32l4xx_hal_opamp.c ****        (++) 1 OPAMP: STM32L412xx STM32L422xx STM32L431xx STM32L432xx STM32L433xx STM32L442xx STM32L
  33:Drivers/STM32L4xx_HAL_Driver/Src/stm32l4xx_hal_opamp.c ****        (++) 2 OPAMP: STM32L471xx STM32L475xx STM32L476xx STM32L485xx STM32L486xx
  34:Drivers/STM32L4xx_HAL_Driver/Src/stm32l4xx_hal_opamp.c **** 
  35:Drivers/STM32L4xx_HAL_Driver/Src/stm32l4xx_hal_opamp.c ****        (#) The OPAMP(s) provide(s) several exclusive running modes.
  36:Drivers/STM32L4xx_HAL_Driver/Src/stm32l4xx_hal_opamp.c ****        (++) Standalone mode
  37:Drivers/STM32L4xx_HAL_Driver/Src/stm32l4xx_hal_opamp.c ****        (++) Programmable Gain Amplifier (PGA) mode (Resistor feedback output)
  38:Drivers/STM32L4xx_HAL_Driver/Src/stm32l4xx_hal_opamp.c ****        (++) Follower mode
  39:Drivers/STM32L4xx_HAL_Driver/Src/stm32l4xx_hal_opamp.c **** 
  40:Drivers/STM32L4xx_HAL_Driver/Src/stm32l4xx_hal_opamp.c ****        (#) All OPAMP (same for all OPAMPs) can operate in
  41:Drivers/STM32L4xx_HAL_Driver/Src/stm32l4xx_hal_opamp.c ****        (++) Either Low range (VDDA < 2.4V) power supply
  42:Drivers/STM32L4xx_HAL_Driver/Src/stm32l4xx_hal_opamp.c ****        (++) Or High range (VDDA > 2.4V) power supply
  43:Drivers/STM32L4xx_HAL_Driver/Src/stm32l4xx_hal_opamp.c **** 
  44:Drivers/STM32L4xx_HAL_Driver/Src/stm32l4xx_hal_opamp.c ****        (#) Each OPAMP(s) can be configured in normal and low power mode.
  45:Drivers/STM32L4xx_HAL_Driver/Src/stm32l4xx_hal_opamp.c **** 
  46:Drivers/STM32L4xx_HAL_Driver/Src/stm32l4xx_hal_opamp.c ****        (#) The OPAMP(s) provide(s) calibration capabilities.
  47:Drivers/STM32L4xx_HAL_Driver/Src/stm32l4xx_hal_opamp.c ****        (++) Calibration aims at correcting some offset for running mode.
  48:Drivers/STM32L4xx_HAL_Driver/Src/stm32l4xx_hal_opamp.c ****        (++) The OPAMP uses either factory calibration settings OR user defined
  49:Drivers/STM32L4xx_HAL_Driver/Src/stm32l4xx_hal_opamp.c ****            calibration (trimming) settings (i.e. trimming mode).
  50:Drivers/STM32L4xx_HAL_Driver/Src/stm32l4xx_hal_opamp.c ****        (++) The user defined settings can be figured out using self calibration
  51:Drivers/STM32L4xx_HAL_Driver/Src/stm32l4xx_hal_opamp.c ****            handled by HAL_OPAMP_SelfCalibrate, HAL_OPAMPEx_SelfCalibrateAll
  52:Drivers/STM32L4xx_HAL_Driver/Src/stm32l4xx_hal_opamp.c ****        (++) HAL_OPAMP_SelfCalibrate:
  53:Drivers/STM32L4xx_HAL_Driver/Src/stm32l4xx_hal_opamp.c ****        (+++) Runs automatically the calibration.
  54:Drivers/STM32L4xx_HAL_Driver/Src/stm32l4xx_hal_opamp.c ****        (+++) Enables the user trimming mode
  55:Drivers/STM32L4xx_HAL_Driver/Src/stm32l4xx_hal_opamp.c ****        (+++) Updates the init structure with trimming values with fresh calibration
  56:Drivers/STM32L4xx_HAL_Driver/Src/stm32l4xx_hal_opamp.c ****             results.
  57:Drivers/STM32L4xx_HAL_Driver/Src/stm32l4xx_hal_opamp.c ****             The user may store the calibration results for larger
  58:Drivers/STM32L4xx_HAL_Driver/Src/stm32l4xx_hal_opamp.c ****             (ex monitoring the trimming as a function of temperature
  59:Drivers/STM32L4xx_HAL_Driver/Src/stm32l4xx_hal_opamp.c ****             for instance)
  60:Drivers/STM32L4xx_HAL_Driver/Src/stm32l4xx_hal_opamp.c ****        (+++) HAL_OPAMPEx_SelfCalibrateAll
  61:Drivers/STM32L4xx_HAL_Driver/Src/stm32l4xx_hal_opamp.c ****             runs calibration of all OPAMPs in parallel to save search time.
  62:Drivers/STM32L4xx_HAL_Driver/Src/stm32l4xx_hal_opamp.c **** 
  63:Drivers/STM32L4xx_HAL_Driver/Src/stm32l4xx_hal_opamp.c ****        (#) Running mode: Standalone mode
  64:Drivers/STM32L4xx_HAL_Driver/Src/stm32l4xx_hal_opamp.c ****        (++) Gain is set externally (gain depends on external loads).
  65:Drivers/STM32L4xx_HAL_Driver/Src/stm32l4xx_hal_opamp.c ****        (++) Follower mode also possible externally by connecting the inverting input to
  66:Drivers/STM32L4xx_HAL_Driver/Src/stm32l4xx_hal_opamp.c ****            the output.
  67:Drivers/STM32L4xx_HAL_Driver/Src/stm32l4xx_hal_opamp.c **** 
  68:Drivers/STM32L4xx_HAL_Driver/Src/stm32l4xx_hal_opamp.c ****        (#) Running mode: Follower mode
  69:Drivers/STM32L4xx_HAL_Driver/Src/stm32l4xx_hal_opamp.c ****        (++) No Inverting Input is connected.
  70:Drivers/STM32L4xx_HAL_Driver/Src/stm32l4xx_hal_opamp.c **** 
  71:Drivers/STM32L4xx_HAL_Driver/Src/stm32l4xx_hal_opamp.c ****        (#) Running mode: Programmable Gain Amplifier (PGA) mode
  72:Drivers/STM32L4xx_HAL_Driver/Src/stm32l4xx_hal_opamp.c ****            (Resistor feedback output)
  73:Drivers/STM32L4xx_HAL_Driver/Src/stm32l4xx_hal_opamp.c ****        (++) The OPAMP(s) output(s) can be internally connected to resistor feedback
  74:Drivers/STM32L4xx_HAL_Driver/Src/stm32l4xx_hal_opamp.c ****            output.
  75:Drivers/STM32L4xx_HAL_Driver/Src/stm32l4xx_hal_opamp.c ****        (++) OPAMP gain is either 2, 4, 8 or 16.
  76:Drivers/STM32L4xx_HAL_Driver/Src/stm32l4xx_hal_opamp.c **** 
  77:Drivers/STM32L4xx_HAL_Driver/Src/stm32l4xx_hal_opamp.c ****        (#) The OPAMPs inverting input can be selected according to the Reference Manual
  78:Drivers/STM32L4xx_HAL_Driver/Src/stm32l4xx_hal_opamp.c ****            "OPAMP function description" chapter.
  79:Drivers/STM32L4xx_HAL_Driver/Src/stm32l4xx_hal_opamp.c **** 
  80:Drivers/STM32L4xx_HAL_Driver/Src/stm32l4xx_hal_opamp.c ****        (#) The OPAMPs non inverting input can be selected according to the Reference Manual
  81:Drivers/STM32L4xx_HAL_Driver/Src/stm32l4xx_hal_opamp.c ****            "OPAMP function description" chapter.
  82:Drivers/STM32L4xx_HAL_Driver/Src/stm32l4xx_hal_opamp.c **** 
ARM GAS  /tmp/ccXP8iAY.s 			page 3


  83:Drivers/STM32L4xx_HAL_Driver/Src/stm32l4xx_hal_opamp.c **** 
  84:Drivers/STM32L4xx_HAL_Driver/Src/stm32l4xx_hal_opamp.c ****             ##### How to use this driver #####
  85:Drivers/STM32L4xx_HAL_Driver/Src/stm32l4xx_hal_opamp.c **** ================================================================================
  86:Drivers/STM32L4xx_HAL_Driver/Src/stm32l4xx_hal_opamp.c ****   [..]
  87:Drivers/STM32L4xx_HAL_Driver/Src/stm32l4xx_hal_opamp.c **** 
  88:Drivers/STM32L4xx_HAL_Driver/Src/stm32l4xx_hal_opamp.c ****     *** Power supply range ***
  89:Drivers/STM32L4xx_HAL_Driver/Src/stm32l4xx_hal_opamp.c ****     ============================================
  90:Drivers/STM32L4xx_HAL_Driver/Src/stm32l4xx_hal_opamp.c ****     [..] To run in low power mode:
  91:Drivers/STM32L4xx_HAL_Driver/Src/stm32l4xx_hal_opamp.c **** 
  92:Drivers/STM32L4xx_HAL_Driver/Src/stm32l4xx_hal_opamp.c ****       (#) Configure the OPAMP using HAL_OPAMP_Init() function:
  93:Drivers/STM32L4xx_HAL_Driver/Src/stm32l4xx_hal_opamp.c ****       (++) Select OPAMP_POWERSUPPLY_LOW (VDDA lower than 2.4V)
  94:Drivers/STM32L4xx_HAL_Driver/Src/stm32l4xx_hal_opamp.c ****       (++) Otherwise select OPAMP_POWERSUPPLY_HIGH (VDDA higher than 2.4V)
  95:Drivers/STM32L4xx_HAL_Driver/Src/stm32l4xx_hal_opamp.c **** 
  96:Drivers/STM32L4xx_HAL_Driver/Src/stm32l4xx_hal_opamp.c ****     *** Low / normal power mode ***
  97:Drivers/STM32L4xx_HAL_Driver/Src/stm32l4xx_hal_opamp.c ****     ============================================
  98:Drivers/STM32L4xx_HAL_Driver/Src/stm32l4xx_hal_opamp.c ****     [..] To run in low power mode:
  99:Drivers/STM32L4xx_HAL_Driver/Src/stm32l4xx_hal_opamp.c **** 
 100:Drivers/STM32L4xx_HAL_Driver/Src/stm32l4xx_hal_opamp.c ****       (#) Configure the OPAMP using HAL_OPAMP_Init() function:
 101:Drivers/STM32L4xx_HAL_Driver/Src/stm32l4xx_hal_opamp.c ****       (++) Select OPAMP_POWERMODE_LOWPOWER
 102:Drivers/STM32L4xx_HAL_Driver/Src/stm32l4xx_hal_opamp.c ****       (++) Otherwise select OPAMP_POWERMODE_NORMALPOWER
 103:Drivers/STM32L4xx_HAL_Driver/Src/stm32l4xx_hal_opamp.c **** 
 104:Drivers/STM32L4xx_HAL_Driver/Src/stm32l4xx_hal_opamp.c ****     *** Calibration ***
 105:Drivers/STM32L4xx_HAL_Driver/Src/stm32l4xx_hal_opamp.c ****     ============================================
 106:Drivers/STM32L4xx_HAL_Driver/Src/stm32l4xx_hal_opamp.c ****     [..] To run the OPAMP calibration self calibration:
 107:Drivers/STM32L4xx_HAL_Driver/Src/stm32l4xx_hal_opamp.c **** 
 108:Drivers/STM32L4xx_HAL_Driver/Src/stm32l4xx_hal_opamp.c ****       (#) Start calibration using HAL_OPAMP_SelfCalibrate.
 109:Drivers/STM32L4xx_HAL_Driver/Src/stm32l4xx_hal_opamp.c ****            Store the calibration results.
 110:Drivers/STM32L4xx_HAL_Driver/Src/stm32l4xx_hal_opamp.c **** 
 111:Drivers/STM32L4xx_HAL_Driver/Src/stm32l4xx_hal_opamp.c ****     *** Running mode ***
 112:Drivers/STM32L4xx_HAL_Driver/Src/stm32l4xx_hal_opamp.c ****     ============================================
 113:Drivers/STM32L4xx_HAL_Driver/Src/stm32l4xx_hal_opamp.c **** 
 114:Drivers/STM32L4xx_HAL_Driver/Src/stm32l4xx_hal_opamp.c ****     [..] To use the OPAMP, perform the following steps:
 115:Drivers/STM32L4xx_HAL_Driver/Src/stm32l4xx_hal_opamp.c **** 
 116:Drivers/STM32L4xx_HAL_Driver/Src/stm32l4xx_hal_opamp.c ****       (#) Fill in the HAL_OPAMP_MspInit() to
 117:Drivers/STM32L4xx_HAL_Driver/Src/stm32l4xx_hal_opamp.c ****       (++) Enable the OPAMP Peripheral clock using macro __HAL_RCC_OPAMP_CLK_ENABLE()
 118:Drivers/STM32L4xx_HAL_Driver/Src/stm32l4xx_hal_opamp.c ****       (++) Configure the OPAMP input AND output in analog mode using
 119:Drivers/STM32L4xx_HAL_Driver/Src/stm32l4xx_hal_opamp.c ****            HAL_GPIO_Init() to map the OPAMP output to the GPIO pin.
 120:Drivers/STM32L4xx_HAL_Driver/Src/stm32l4xx_hal_opamp.c **** 
 121:Drivers/STM32L4xx_HAL_Driver/Src/stm32l4xx_hal_opamp.c ****       (#) Registrate Callbacks
 122:Drivers/STM32L4xx_HAL_Driver/Src/stm32l4xx_hal_opamp.c ****       (++) The compilation define  USE_HAL_OPAMP_REGISTER_CALLBACKS when set to 1
 123:Drivers/STM32L4xx_HAL_Driver/Src/stm32l4xx_hal_opamp.c ****            allows the user to configure dynamically the driver callbacks.
 124:Drivers/STM32L4xx_HAL_Driver/Src/stm32l4xx_hal_opamp.c **** 
 125:Drivers/STM32L4xx_HAL_Driver/Src/stm32l4xx_hal_opamp.c ****       (++) Use Functions HAL_OPAMP_RegisterCallback() to register a user callback,
 126:Drivers/STM32L4xx_HAL_Driver/Src/stm32l4xx_hal_opamp.c ****            it allows to register following callbacks:
 127:Drivers/STM32L4xx_HAL_Driver/Src/stm32l4xx_hal_opamp.c ****       (+++) MspInitCallback         : OPAMP MspInit.
 128:Drivers/STM32L4xx_HAL_Driver/Src/stm32l4xx_hal_opamp.c ****       (+++) MspDeInitCallback       : OPAMP MspFeInit.
 129:Drivers/STM32L4xx_HAL_Driver/Src/stm32l4xx_hal_opamp.c ****            This function takes as parameters the HAL peripheral handle, the Callback ID
 130:Drivers/STM32L4xx_HAL_Driver/Src/stm32l4xx_hal_opamp.c ****            and a pointer to the user callback function.
 131:Drivers/STM32L4xx_HAL_Driver/Src/stm32l4xx_hal_opamp.c **** 
 132:Drivers/STM32L4xx_HAL_Driver/Src/stm32l4xx_hal_opamp.c ****       (++) Use function HAL_OPAMP_UnRegisterCallback() to reset a callback to the default
 133:Drivers/STM32L4xx_HAL_Driver/Src/stm32l4xx_hal_opamp.c ****            weak (overridden) function. It allows to reset following callbacks:
 134:Drivers/STM32L4xx_HAL_Driver/Src/stm32l4xx_hal_opamp.c ****       (+++) MspInitCallback         : OPAMP MspInit.
 135:Drivers/STM32L4xx_HAL_Driver/Src/stm32l4xx_hal_opamp.c ****       (+++) MspDeInitCallback       : OPAMP MspdeInit.
 136:Drivers/STM32L4xx_HAL_Driver/Src/stm32l4xx_hal_opamp.c ****       (+++) All Callbacks
 137:Drivers/STM32L4xx_HAL_Driver/Src/stm32l4xx_hal_opamp.c **** 
 138:Drivers/STM32L4xx_HAL_Driver/Src/stm32l4xx_hal_opamp.c ****       (#) Configure the OPAMP using HAL_OPAMP_Init() function:
 139:Drivers/STM32L4xx_HAL_Driver/Src/stm32l4xx_hal_opamp.c ****       (++) Select the mode
ARM GAS  /tmp/ccXP8iAY.s 			page 4


 140:Drivers/STM32L4xx_HAL_Driver/Src/stm32l4xx_hal_opamp.c ****       (++) Select the inverting input
 141:Drivers/STM32L4xx_HAL_Driver/Src/stm32l4xx_hal_opamp.c ****       (++) Select the non-inverting input
 142:Drivers/STM32L4xx_HAL_Driver/Src/stm32l4xx_hal_opamp.c ****       (++) If PGA mode is enabled, Select if inverting input is connected.
 143:Drivers/STM32L4xx_HAL_Driver/Src/stm32l4xx_hal_opamp.c ****       (++) Select either factory or user defined trimming mode.
 144:Drivers/STM32L4xx_HAL_Driver/Src/stm32l4xx_hal_opamp.c ****       (++) If the user-defined trimming mode is enabled, select PMOS & NMOS trimming values
 145:Drivers/STM32L4xx_HAL_Driver/Src/stm32l4xx_hal_opamp.c ****           (typically values set by HAL_OPAMP_SelfCalibrate function).
 146:Drivers/STM32L4xx_HAL_Driver/Src/stm32l4xx_hal_opamp.c **** 
 147:Drivers/STM32L4xx_HAL_Driver/Src/stm32l4xx_hal_opamp.c ****       (#) Enable the OPAMP using HAL_OPAMP_Start() function.
 148:Drivers/STM32L4xx_HAL_Driver/Src/stm32l4xx_hal_opamp.c **** 
 149:Drivers/STM32L4xx_HAL_Driver/Src/stm32l4xx_hal_opamp.c ****       (#) Disable the OPAMP using HAL_OPAMP_Stop() function.
 150:Drivers/STM32L4xx_HAL_Driver/Src/stm32l4xx_hal_opamp.c **** 
 151:Drivers/STM32L4xx_HAL_Driver/Src/stm32l4xx_hal_opamp.c ****       (#) Lock the OPAMP in running mode using HAL_OPAMP_Lock() function.
 152:Drivers/STM32L4xx_HAL_Driver/Src/stm32l4xx_hal_opamp.c ****           Caution: On STM32L4, HAL OPAMP lock is software lock only (not
 153:Drivers/STM32L4xx_HAL_Driver/Src/stm32l4xx_hal_opamp.c ****           hardware lock as on some other STM32 devices)
 154:Drivers/STM32L4xx_HAL_Driver/Src/stm32l4xx_hal_opamp.c **** 
 155:Drivers/STM32L4xx_HAL_Driver/Src/stm32l4xx_hal_opamp.c ****       (#) If needed, unlock the OPAMP using HAL_OPAMPEx_Unlock() function.
 156:Drivers/STM32L4xx_HAL_Driver/Src/stm32l4xx_hal_opamp.c **** 
 157:Drivers/STM32L4xx_HAL_Driver/Src/stm32l4xx_hal_opamp.c ****     *** Running mode: change of configuration while OPAMP ON  ***
 158:Drivers/STM32L4xx_HAL_Driver/Src/stm32l4xx_hal_opamp.c ****     ============================================
 159:Drivers/STM32L4xx_HAL_Driver/Src/stm32l4xx_hal_opamp.c ****     [..] To Re-configure OPAMP when OPAMP is ON (change on the fly)
 160:Drivers/STM32L4xx_HAL_Driver/Src/stm32l4xx_hal_opamp.c ****       (#) If needed, fill in the HAL_OPAMP_MspInit()
 161:Drivers/STM32L4xx_HAL_Driver/Src/stm32l4xx_hal_opamp.c ****       (++) This is the case for instance if you wish to use new OPAMP I/O
 162:Drivers/STM32L4xx_HAL_Driver/Src/stm32l4xx_hal_opamp.c **** 
 163:Drivers/STM32L4xx_HAL_Driver/Src/stm32l4xx_hal_opamp.c ****       (#) Configure the OPAMP using HAL_OPAMP_Init() function:
 164:Drivers/STM32L4xx_HAL_Driver/Src/stm32l4xx_hal_opamp.c ****       (++) As in configure case, select first the parameters you wish to modify.
 165:Drivers/STM32L4xx_HAL_Driver/Src/stm32l4xx_hal_opamp.c **** 
 166:Drivers/STM32L4xx_HAL_Driver/Src/stm32l4xx_hal_opamp.c ****       (#) Change from low power mode to normal power mode (& vice versa) requires
 167:Drivers/STM32L4xx_HAL_Driver/Src/stm32l4xx_hal_opamp.c ****           first HAL_OPAMP_DeInit() (force OPAMP OFF) and then HAL_OPAMP_Init().
 168:Drivers/STM32L4xx_HAL_Driver/Src/stm32l4xx_hal_opamp.c ****           In other words, of OPAMP is ON, HAL_OPAMP_Init can NOT change power mode
 169:Drivers/STM32L4xx_HAL_Driver/Src/stm32l4xx_hal_opamp.c ****           alone.
 170:Drivers/STM32L4xx_HAL_Driver/Src/stm32l4xx_hal_opamp.c **** 
 171:Drivers/STM32L4xx_HAL_Driver/Src/stm32l4xx_hal_opamp.c ****   @endverbatim
 172:Drivers/STM32L4xx_HAL_Driver/Src/stm32l4xx_hal_opamp.c ****   ******************************************************************************
 173:Drivers/STM32L4xx_HAL_Driver/Src/stm32l4xx_hal_opamp.c **** 
 174:Drivers/STM32L4xx_HAL_Driver/Src/stm32l4xx_hal_opamp.c ****       Table 1.  OPAMPs inverting/non-inverting inputs for the STM32L4 devices:
 175:Drivers/STM32L4xx_HAL_Driver/Src/stm32l4xx_hal_opamp.c ****       +------------------------------------------------------------------------|
 176:Drivers/STM32L4xx_HAL_Driver/Src/stm32l4xx_hal_opamp.c ****       |                 |         | OPAMP1               | OPAMP2              |
 177:Drivers/STM32L4xx_HAL_Driver/Src/stm32l4xx_hal_opamp.c ****       |-----------------|---------|----------------------|---------------------|
 178:Drivers/STM32L4xx_HAL_Driver/Src/stm32l4xx_hal_opamp.c ****       | Inverting Input | VM_SEL  |                      |                     |
 179:Drivers/STM32L4xx_HAL_Driver/Src/stm32l4xx_hal_opamp.c ****       |                 |         |  IO0-> PA1           | IO0-> PA7           |
 180:Drivers/STM32L4xx_HAL_Driver/Src/stm32l4xx_hal_opamp.c ****       |                 |         |  LOW LEAKAGE IO (2)  | LOW LEAKAGE IO (2)  |
 181:Drivers/STM32L4xx_HAL_Driver/Src/stm32l4xx_hal_opamp.c ****       |                 |         |  Not connected       | Not connected       |
 182:Drivers/STM32L4xx_HAL_Driver/Src/stm32l4xx_hal_opamp.c ****       | (1)             |         |    PGA mode only     |   PGA mode only     |
 183:Drivers/STM32L4xx_HAL_Driver/Src/stm32l4xx_hal_opamp.c ****       |-----------------|---------|----------------------|---------------------|
 184:Drivers/STM32L4xx_HAL_Driver/Src/stm32l4xx_hal_opamp.c ****       |  Non Inverting  | VP_SEL  |                      |                     |
 185:Drivers/STM32L4xx_HAL_Driver/Src/stm32l4xx_hal_opamp.c ****       |                 |         |  IO0-> PA0 (GPIO)    | IO0-> PA6  (GPIO)   |
 186:Drivers/STM32L4xx_HAL_Driver/Src/stm32l4xx_hal_opamp.c ****       |    Input        |         |  DAC1_OUT1 internal  | DAC1_OUT2 internal  |
 187:Drivers/STM32L4xx_HAL_Driver/Src/stm32l4xx_hal_opamp.c ****       +------------------------------------------------------------------------|
 188:Drivers/STM32L4xx_HAL_Driver/Src/stm32l4xx_hal_opamp.c ****        (1): NA in follower mode.
 189:Drivers/STM32L4xx_HAL_Driver/Src/stm32l4xx_hal_opamp.c ****        (2): Available on some package only (ex. BGA132).
 190:Drivers/STM32L4xx_HAL_Driver/Src/stm32l4xx_hal_opamp.c **** 
 191:Drivers/STM32L4xx_HAL_Driver/Src/stm32l4xx_hal_opamp.c **** 
 192:Drivers/STM32L4xx_HAL_Driver/Src/stm32l4xx_hal_opamp.c ****       Table 2.  OPAMPs outputs for the STM32L4 devices:
 193:Drivers/STM32L4xx_HAL_Driver/Src/stm32l4xx_hal_opamp.c **** 
 194:Drivers/STM32L4xx_HAL_Driver/Src/stm32l4xx_hal_opamp.c ****       +-------------------------------------------------------------------------
 195:Drivers/STM32L4xx_HAL_Driver/Src/stm32l4xx_hal_opamp.c ****       |                 |        | OPAMP1                | OPAMP2              |
 196:Drivers/STM32L4xx_HAL_Driver/Src/stm32l4xx_hal_opamp.c ****       |-----------------|--------|-----------------------|---------------------|
ARM GAS  /tmp/ccXP8iAY.s 			page 5


 197:Drivers/STM32L4xx_HAL_Driver/Src/stm32l4xx_hal_opamp.c ****       | Output          |  VOUT  |  PA3                  |  PB0                |
 198:Drivers/STM32L4xx_HAL_Driver/Src/stm32l4xx_hal_opamp.c ****       |                 |        |  & (1) ADC12_IN if    | & (1) ADC12_IN if   |
 199:Drivers/STM32L4xx_HAL_Driver/Src/stm32l4xx_hal_opamp.c ****       |                 |        |  connected internally | connected internally|
 200:Drivers/STM32L4xx_HAL_Driver/Src/stm32l4xx_hal_opamp.c ****       |-----------------|--------|-----------------------|---------------------|
 201:Drivers/STM32L4xx_HAL_Driver/Src/stm32l4xx_hal_opamp.c ****        (1): ADC1 or ADC2 shall select IN15.
 202:Drivers/STM32L4xx_HAL_Driver/Src/stm32l4xx_hal_opamp.c **** 
 203:Drivers/STM32L4xx_HAL_Driver/Src/stm32l4xx_hal_opamp.c ****   */
 204:Drivers/STM32L4xx_HAL_Driver/Src/stm32l4xx_hal_opamp.c **** 
 205:Drivers/STM32L4xx_HAL_Driver/Src/stm32l4xx_hal_opamp.c **** /* Includes ------------------------------------------------------------------*/
 206:Drivers/STM32L4xx_HAL_Driver/Src/stm32l4xx_hal_opamp.c **** #include "stm32l4xx_hal.h"
 207:Drivers/STM32L4xx_HAL_Driver/Src/stm32l4xx_hal_opamp.c **** 
 208:Drivers/STM32L4xx_HAL_Driver/Src/stm32l4xx_hal_opamp.c **** /** @addtogroup STM32L4xx_HAL_Driver
 209:Drivers/STM32L4xx_HAL_Driver/Src/stm32l4xx_hal_opamp.c ****   * @{
 210:Drivers/STM32L4xx_HAL_Driver/Src/stm32l4xx_hal_opamp.c ****   */
 211:Drivers/STM32L4xx_HAL_Driver/Src/stm32l4xx_hal_opamp.c **** 
 212:Drivers/STM32L4xx_HAL_Driver/Src/stm32l4xx_hal_opamp.c **** /** @defgroup OPAMP OPAMP
 213:Drivers/STM32L4xx_HAL_Driver/Src/stm32l4xx_hal_opamp.c ****   * @brief OPAMP module driver
 214:Drivers/STM32L4xx_HAL_Driver/Src/stm32l4xx_hal_opamp.c ****   * @{
 215:Drivers/STM32L4xx_HAL_Driver/Src/stm32l4xx_hal_opamp.c ****   */
 216:Drivers/STM32L4xx_HAL_Driver/Src/stm32l4xx_hal_opamp.c **** 
 217:Drivers/STM32L4xx_HAL_Driver/Src/stm32l4xx_hal_opamp.c **** #ifdef HAL_OPAMP_MODULE_ENABLED
 218:Drivers/STM32L4xx_HAL_Driver/Src/stm32l4xx_hal_opamp.c **** 
 219:Drivers/STM32L4xx_HAL_Driver/Src/stm32l4xx_hal_opamp.c **** /* Private types -------------------------------------------------------------*/
 220:Drivers/STM32L4xx_HAL_Driver/Src/stm32l4xx_hal_opamp.c **** /* Private variables ---------------------------------------------------------*/
 221:Drivers/STM32L4xx_HAL_Driver/Src/stm32l4xx_hal_opamp.c **** /* Private constants ---------------------------------------------------------*/
 222:Drivers/STM32L4xx_HAL_Driver/Src/stm32l4xx_hal_opamp.c **** /** @addtogroup OPAMP_Private_Constants
 223:Drivers/STM32L4xx_HAL_Driver/Src/stm32l4xx_hal_opamp.c ****   * @{
 224:Drivers/STM32L4xx_HAL_Driver/Src/stm32l4xx_hal_opamp.c ****   */
 225:Drivers/STM32L4xx_HAL_Driver/Src/stm32l4xx_hal_opamp.c **** 
 226:Drivers/STM32L4xx_HAL_Driver/Src/stm32l4xx_hal_opamp.c **** /* CSR register reset value */
 227:Drivers/STM32L4xx_HAL_Driver/Src/stm32l4xx_hal_opamp.c **** #define OPAMP_CSR_RESET_VALUE             ((uint32_t)0x00000000)
 228:Drivers/STM32L4xx_HAL_Driver/Src/stm32l4xx_hal_opamp.c **** 
 229:Drivers/STM32L4xx_HAL_Driver/Src/stm32l4xx_hal_opamp.c **** #define OPAMP_CSR_RESET_BITS    (OPAMP_CSR_OPAMPxEN | OPAMP_CSR_OPALPM | OPAMP_CSR_OPAMODE \
 230:Drivers/STM32L4xx_HAL_Driver/Src/stm32l4xx_hal_opamp.c ****                                | OPAMP_CSR_PGGAIN | OPAMP_CSR_VMSEL | OPAMP_CSR_VPSEL \
 231:Drivers/STM32L4xx_HAL_Driver/Src/stm32l4xx_hal_opamp.c ****                                | OPAMP_CSR_CALON | OPAMP_CSR_USERTRIM)
 232:Drivers/STM32L4xx_HAL_Driver/Src/stm32l4xx_hal_opamp.c **** 
 233:Drivers/STM32L4xx_HAL_Driver/Src/stm32l4xx_hal_opamp.c **** /* CSR Init masks */
 234:Drivers/STM32L4xx_HAL_Driver/Src/stm32l4xx_hal_opamp.c **** #define OPAMP_CSR_INIT_MASK_PGA (OPAMP_CSR_OPALPM | OPAMP_CSR_OPAMODE| OPAMP_CSR_PGGAIN \
 235:Drivers/STM32L4xx_HAL_Driver/Src/stm32l4xx_hal_opamp.c ****                                | OPAMP_CSR_VMSEL | OPAMP_CSR_VPSEL | OPAMP_CSR_USERTRIM)
 236:Drivers/STM32L4xx_HAL_Driver/Src/stm32l4xx_hal_opamp.c **** 
 237:Drivers/STM32L4xx_HAL_Driver/Src/stm32l4xx_hal_opamp.c **** #define OPAMP_CSR_INIT_MASK_FOLLOWER (OPAMP_CSR_OPALPM | OPAMP_CSR_OPAMODE| OPAMP_CSR_VPSEL \
 238:Drivers/STM32L4xx_HAL_Driver/Src/stm32l4xx_hal_opamp.c ****                                     | OPAMP_CSR_USERTRIM)
 239:Drivers/STM32L4xx_HAL_Driver/Src/stm32l4xx_hal_opamp.c **** 
 240:Drivers/STM32L4xx_HAL_Driver/Src/stm32l4xx_hal_opamp.c **** #define OPAMP_CSR_INIT_MASK_STANDALONE (OPAMP_CSR_OPALPM | OPAMP_CSR_OPAMODE| OPAMP_CSR_VPSEL \
 241:Drivers/STM32L4xx_HAL_Driver/Src/stm32l4xx_hal_opamp.c ****                                       | OPAMP_CSR_VMSEL | OPAMP_CSR_USERTRIM)
 242:Drivers/STM32L4xx_HAL_Driver/Src/stm32l4xx_hal_opamp.c **** 
 243:Drivers/STM32L4xx_HAL_Driver/Src/stm32l4xx_hal_opamp.c **** 
 244:Drivers/STM32L4xx_HAL_Driver/Src/stm32l4xx_hal_opamp.c **** /**
 245:Drivers/STM32L4xx_HAL_Driver/Src/stm32l4xx_hal_opamp.c ****   * @}
 246:Drivers/STM32L4xx_HAL_Driver/Src/stm32l4xx_hal_opamp.c ****   */
 247:Drivers/STM32L4xx_HAL_Driver/Src/stm32l4xx_hal_opamp.c **** 
 248:Drivers/STM32L4xx_HAL_Driver/Src/stm32l4xx_hal_opamp.c **** /* Private macros ------------------------------------------------------------*/
 249:Drivers/STM32L4xx_HAL_Driver/Src/stm32l4xx_hal_opamp.c **** /* Private functions ---------------------------------------------------------*/
 250:Drivers/STM32L4xx_HAL_Driver/Src/stm32l4xx_hal_opamp.c **** /* Exported functions --------------------------------------------------------*/
 251:Drivers/STM32L4xx_HAL_Driver/Src/stm32l4xx_hal_opamp.c **** 
 252:Drivers/STM32L4xx_HAL_Driver/Src/stm32l4xx_hal_opamp.c **** /** @defgroup OPAMP_Exported_Functions OPAMP Exported Functions
 253:Drivers/STM32L4xx_HAL_Driver/Src/stm32l4xx_hal_opamp.c ****   * @{
ARM GAS  /tmp/ccXP8iAY.s 			page 6


 254:Drivers/STM32L4xx_HAL_Driver/Src/stm32l4xx_hal_opamp.c ****   */
 255:Drivers/STM32L4xx_HAL_Driver/Src/stm32l4xx_hal_opamp.c **** 
 256:Drivers/STM32L4xx_HAL_Driver/Src/stm32l4xx_hal_opamp.c **** /** @defgroup OPAMP_Exported_Functions_Group1 Initialization and de-initialization functions
 257:Drivers/STM32L4xx_HAL_Driver/Src/stm32l4xx_hal_opamp.c ****  *  @brief    Initialization and Configuration functions
 258:Drivers/STM32L4xx_HAL_Driver/Src/stm32l4xx_hal_opamp.c ****  *
 259:Drivers/STM32L4xx_HAL_Driver/Src/stm32l4xx_hal_opamp.c **** @verbatim
 260:Drivers/STM32L4xx_HAL_Driver/Src/stm32l4xx_hal_opamp.c ****   ==============================================================================
 261:Drivers/STM32L4xx_HAL_Driver/Src/stm32l4xx_hal_opamp.c ****               ##### Initialization and de-initialization functions #####
 262:Drivers/STM32L4xx_HAL_Driver/Src/stm32l4xx_hal_opamp.c ****   ==============================================================================
 263:Drivers/STM32L4xx_HAL_Driver/Src/stm32l4xx_hal_opamp.c **** 
 264:Drivers/STM32L4xx_HAL_Driver/Src/stm32l4xx_hal_opamp.c **** @endverbatim
 265:Drivers/STM32L4xx_HAL_Driver/Src/stm32l4xx_hal_opamp.c ****   * @{
 266:Drivers/STM32L4xx_HAL_Driver/Src/stm32l4xx_hal_opamp.c ****   */
 267:Drivers/STM32L4xx_HAL_Driver/Src/stm32l4xx_hal_opamp.c **** 
 268:Drivers/STM32L4xx_HAL_Driver/Src/stm32l4xx_hal_opamp.c **** /**
 269:Drivers/STM32L4xx_HAL_Driver/Src/stm32l4xx_hal_opamp.c ****   * @brief  Initializes the OPAMP according to the specified
 270:Drivers/STM32L4xx_HAL_Driver/Src/stm32l4xx_hal_opamp.c ****   *         parameters in the OPAMP_InitTypeDef and initialize the associated handle.
 271:Drivers/STM32L4xx_HAL_Driver/Src/stm32l4xx_hal_opamp.c ****   * @note   If the selected opamp is locked, initialization can't be performed.
 272:Drivers/STM32L4xx_HAL_Driver/Src/stm32l4xx_hal_opamp.c ****   *         To unlock the configuration, perform a system reset.
 273:Drivers/STM32L4xx_HAL_Driver/Src/stm32l4xx_hal_opamp.c ****   * @param  hopamp OPAMP handle
 274:Drivers/STM32L4xx_HAL_Driver/Src/stm32l4xx_hal_opamp.c ****   * @retval HAL status
 275:Drivers/STM32L4xx_HAL_Driver/Src/stm32l4xx_hal_opamp.c ****   */
 276:Drivers/STM32L4xx_HAL_Driver/Src/stm32l4xx_hal_opamp.c **** HAL_StatusTypeDef HAL_OPAMP_Init(OPAMP_HandleTypeDef *hopamp)
 277:Drivers/STM32L4xx_HAL_Driver/Src/stm32l4xx_hal_opamp.c **** {
  35              		.loc 1 277 1
  36              		.cfi_startproc
  37              		@ args = 0, pretend = 0, frame = 16
  38              		@ frame_needed = 1, uses_anonymous_args = 0
  39 0000 80B5     		push	{r7, lr}
  40              		.cfi_def_cfa_offset 8
  41              		.cfi_offset 7, -8
  42              		.cfi_offset 14, -4
  43 0002 84B0     		sub	sp, sp, #16
  44              		.cfi_def_cfa_offset 24
  45 0004 00AF     		add	r7, sp, #0
  46              		.cfi_def_cfa_register 7
  47 0006 7860     		str	r0, [r7, #4]
 278:Drivers/STM32L4xx_HAL_Driver/Src/stm32l4xx_hal_opamp.c ****   HAL_StatusTypeDef status = HAL_OK;
  48              		.loc 1 278 21
  49 0008 0023     		movs	r3, #0
  50 000a FB73     		strb	r3, [r7, #15]
 279:Drivers/STM32L4xx_HAL_Driver/Src/stm32l4xx_hal_opamp.c ****   uint32_t updateotrlpotr;
 280:Drivers/STM32L4xx_HAL_Driver/Src/stm32l4xx_hal_opamp.c **** 
 281:Drivers/STM32L4xx_HAL_Driver/Src/stm32l4xx_hal_opamp.c ****   /* Check the OPAMP handle allocation and lock status */
 282:Drivers/STM32L4xx_HAL_Driver/Src/stm32l4xx_hal_opamp.c ****   /* Init not allowed if calibration is ongoing */
 283:Drivers/STM32L4xx_HAL_Driver/Src/stm32l4xx_hal_opamp.c ****   if(hopamp == NULL)
  51              		.loc 1 283 5
  52 000c 7B68     		ldr	r3, [r7, #4]
  53 000e 002B     		cmp	r3, #0
  54 0010 01D1     		bne	.L2
 284:Drivers/STM32L4xx_HAL_Driver/Src/stm32l4xx_hal_opamp.c ****   {
 285:Drivers/STM32L4xx_HAL_Driver/Src/stm32l4xx_hal_opamp.c ****     return HAL_ERROR;
  55              		.loc 1 285 12
  56 0012 0123     		movs	r3, #1
  57 0014 C3E0     		b	.L3
  58              	.L2:
 286:Drivers/STM32L4xx_HAL_Driver/Src/stm32l4xx_hal_opamp.c ****   }
ARM GAS  /tmp/ccXP8iAY.s 			page 7


 287:Drivers/STM32L4xx_HAL_Driver/Src/stm32l4xx_hal_opamp.c ****   else if(hopamp->State == HAL_OPAMP_STATE_BUSYLOCKED)
  59              		.loc 1 287 17
  60 0016 7B68     		ldr	r3, [r7, #4]
  61 0018 93F83230 		ldrb	r3, [r3, #50]
  62 001c DBB2     		uxtb	r3, r3
  63              		.loc 1 287 10
  64 001e 052B     		cmp	r3, #5
  65 0020 01D1     		bne	.L4
 288:Drivers/STM32L4xx_HAL_Driver/Src/stm32l4xx_hal_opamp.c ****   {
 289:Drivers/STM32L4xx_HAL_Driver/Src/stm32l4xx_hal_opamp.c ****     return HAL_ERROR;
  66              		.loc 1 289 12
  67 0022 0123     		movs	r3, #1
  68 0024 BBE0     		b	.L3
  69              	.L4:
 290:Drivers/STM32L4xx_HAL_Driver/Src/stm32l4xx_hal_opamp.c ****   }
 291:Drivers/STM32L4xx_HAL_Driver/Src/stm32l4xx_hal_opamp.c ****   else if(hopamp->State == HAL_OPAMP_STATE_CALIBBUSY)
  70              		.loc 1 291 17
  71 0026 7B68     		ldr	r3, [r7, #4]
  72 0028 93F83230 		ldrb	r3, [r3, #50]
  73 002c DBB2     		uxtb	r3, r3
  74              		.loc 1 291 10
  75 002e 022B     		cmp	r3, #2
  76 0030 01D1     		bne	.L5
 292:Drivers/STM32L4xx_HAL_Driver/Src/stm32l4xx_hal_opamp.c ****   {
 293:Drivers/STM32L4xx_HAL_Driver/Src/stm32l4xx_hal_opamp.c ****     return HAL_ERROR;
  77              		.loc 1 293 12
  78 0032 0123     		movs	r3, #1
  79 0034 B3E0     		b	.L3
  80              	.L5:
 294:Drivers/STM32L4xx_HAL_Driver/Src/stm32l4xx_hal_opamp.c ****   }
 295:Drivers/STM32L4xx_HAL_Driver/Src/stm32l4xx_hal_opamp.c ****   else
 296:Drivers/STM32L4xx_HAL_Driver/Src/stm32l4xx_hal_opamp.c ****   {
 297:Drivers/STM32L4xx_HAL_Driver/Src/stm32l4xx_hal_opamp.c ****     /* Check the parameter */
 298:Drivers/STM32L4xx_HAL_Driver/Src/stm32l4xx_hal_opamp.c ****     assert_param(IS_OPAMP_ALL_INSTANCE(hopamp->Instance));
 299:Drivers/STM32L4xx_HAL_Driver/Src/stm32l4xx_hal_opamp.c **** 
 300:Drivers/STM32L4xx_HAL_Driver/Src/stm32l4xx_hal_opamp.c ****     /* Set OPAMP parameters */
 301:Drivers/STM32L4xx_HAL_Driver/Src/stm32l4xx_hal_opamp.c ****     assert_param(IS_OPAMP_POWER_SUPPLY_RANGE(hopamp->Init.PowerSupplyRange));
 302:Drivers/STM32L4xx_HAL_Driver/Src/stm32l4xx_hal_opamp.c ****     assert_param(IS_OPAMP_POWERMODE(hopamp->Init.PowerMode));
 303:Drivers/STM32L4xx_HAL_Driver/Src/stm32l4xx_hal_opamp.c ****     assert_param(IS_OPAMP_FUNCTIONAL_NORMALMODE(hopamp->Init.Mode));
 304:Drivers/STM32L4xx_HAL_Driver/Src/stm32l4xx_hal_opamp.c ****     assert_param(IS_OPAMP_NONINVERTING_INPUT(hopamp->Init.NonInvertingInput));
 305:Drivers/STM32L4xx_HAL_Driver/Src/stm32l4xx_hal_opamp.c **** 
 306:Drivers/STM32L4xx_HAL_Driver/Src/stm32l4xx_hal_opamp.c **** #if (USE_HAL_OPAMP_REGISTER_CALLBACKS == 1)
 307:Drivers/STM32L4xx_HAL_Driver/Src/stm32l4xx_hal_opamp.c ****     if(hopamp->State == HAL_OPAMP_STATE_RESET)
 308:Drivers/STM32L4xx_HAL_Driver/Src/stm32l4xx_hal_opamp.c ****     {
 309:Drivers/STM32L4xx_HAL_Driver/Src/stm32l4xx_hal_opamp.c ****       if(hopamp->MspInitCallback == NULL)
 310:Drivers/STM32L4xx_HAL_Driver/Src/stm32l4xx_hal_opamp.c ****       {
 311:Drivers/STM32L4xx_HAL_Driver/Src/stm32l4xx_hal_opamp.c ****         hopamp->MspInitCallback               = HAL_OPAMP_MspInit;
 312:Drivers/STM32L4xx_HAL_Driver/Src/stm32l4xx_hal_opamp.c ****       }
 313:Drivers/STM32L4xx_HAL_Driver/Src/stm32l4xx_hal_opamp.c ****     }
 314:Drivers/STM32L4xx_HAL_Driver/Src/stm32l4xx_hal_opamp.c **** #endif /* USE_HAL_OPAMP_REGISTER_CALLBACKS */
 315:Drivers/STM32L4xx_HAL_Driver/Src/stm32l4xx_hal_opamp.c **** 
 316:Drivers/STM32L4xx_HAL_Driver/Src/stm32l4xx_hal_opamp.c ****     if ((hopamp->Init.Mode) == OPAMP_STANDALONE_MODE)
 317:Drivers/STM32L4xx_HAL_Driver/Src/stm32l4xx_hal_opamp.c ****     {
 318:Drivers/STM32L4xx_HAL_Driver/Src/stm32l4xx_hal_opamp.c ****       assert_param(IS_OPAMP_INVERTING_INPUT_STANDALONE(hopamp->Init.InvertingInput));
 319:Drivers/STM32L4xx_HAL_Driver/Src/stm32l4xx_hal_opamp.c ****     }
 320:Drivers/STM32L4xx_HAL_Driver/Src/stm32l4xx_hal_opamp.c **** 
 321:Drivers/STM32L4xx_HAL_Driver/Src/stm32l4xx_hal_opamp.c ****     if ((hopamp->Init.Mode) == OPAMP_PGA_MODE)
ARM GAS  /tmp/ccXP8iAY.s 			page 8


 322:Drivers/STM32L4xx_HAL_Driver/Src/stm32l4xx_hal_opamp.c ****     {
 323:Drivers/STM32L4xx_HAL_Driver/Src/stm32l4xx_hal_opamp.c ****       assert_param(IS_OPAMP_INVERTING_INPUT_PGA(hopamp->Init.InvertingInput));
 324:Drivers/STM32L4xx_HAL_Driver/Src/stm32l4xx_hal_opamp.c ****     }
 325:Drivers/STM32L4xx_HAL_Driver/Src/stm32l4xx_hal_opamp.c **** 
 326:Drivers/STM32L4xx_HAL_Driver/Src/stm32l4xx_hal_opamp.c ****     if ((hopamp->Init.Mode) == OPAMP_PGA_MODE)
 327:Drivers/STM32L4xx_HAL_Driver/Src/stm32l4xx_hal_opamp.c ****     {
 328:Drivers/STM32L4xx_HAL_Driver/Src/stm32l4xx_hal_opamp.c ****       assert_param(IS_OPAMP_PGA_GAIN(hopamp->Init.PgaGain));
 329:Drivers/STM32L4xx_HAL_Driver/Src/stm32l4xx_hal_opamp.c ****     }
 330:Drivers/STM32L4xx_HAL_Driver/Src/stm32l4xx_hal_opamp.c **** 
 331:Drivers/STM32L4xx_HAL_Driver/Src/stm32l4xx_hal_opamp.c ****     assert_param(IS_OPAMP_TRIMMING(hopamp->Init.UserTrimming));
 332:Drivers/STM32L4xx_HAL_Driver/Src/stm32l4xx_hal_opamp.c ****     if ((hopamp->Init.UserTrimming) == OPAMP_TRIMMING_USER)
  81              		.loc 1 332 22
  82 0036 7B68     		ldr	r3, [r7, #4]
  83 0038 DB69     		ldr	r3, [r3, #28]
  84              		.loc 1 332 8
  85 003a B3F5804F 		cmp	r3, #16384
 333:Drivers/STM32L4xx_HAL_Driver/Src/stm32l4xx_hal_opamp.c ****     {
 334:Drivers/STM32L4xx_HAL_Driver/Src/stm32l4xx_hal_opamp.c ****       if (hopamp->Init.PowerMode == OPAMP_POWERMODE_NORMALPOWER)
 335:Drivers/STM32L4xx_HAL_Driver/Src/stm32l4xx_hal_opamp.c ****       {
 336:Drivers/STM32L4xx_HAL_Driver/Src/stm32l4xx_hal_opamp.c ****         assert_param(IS_OPAMP_TRIMMINGVALUE(hopamp->Init.TrimmingValueP));
 337:Drivers/STM32L4xx_HAL_Driver/Src/stm32l4xx_hal_opamp.c ****         assert_param(IS_OPAMP_TRIMMINGVALUE(hopamp->Init.TrimmingValueN));
 338:Drivers/STM32L4xx_HAL_Driver/Src/stm32l4xx_hal_opamp.c ****       }
 339:Drivers/STM32L4xx_HAL_Driver/Src/stm32l4xx_hal_opamp.c ****     else
 340:Drivers/STM32L4xx_HAL_Driver/Src/stm32l4xx_hal_opamp.c ****       {
 341:Drivers/STM32L4xx_HAL_Driver/Src/stm32l4xx_hal_opamp.c ****         assert_param(IS_OPAMP_TRIMMINGVALUE(hopamp->Init.TrimmingValuePLowPower));
 342:Drivers/STM32L4xx_HAL_Driver/Src/stm32l4xx_hal_opamp.c ****         assert_param(IS_OPAMP_TRIMMINGVALUE(hopamp->Init.TrimmingValueNLowPower));
 343:Drivers/STM32L4xx_HAL_Driver/Src/stm32l4xx_hal_opamp.c ****       }
 344:Drivers/STM32L4xx_HAL_Driver/Src/stm32l4xx_hal_opamp.c ****     }
 345:Drivers/STM32L4xx_HAL_Driver/Src/stm32l4xx_hal_opamp.c **** 
 346:Drivers/STM32L4xx_HAL_Driver/Src/stm32l4xx_hal_opamp.c ****     if(hopamp->State == HAL_OPAMP_STATE_RESET)
  86              		.loc 1 346 14
  87 003e 7B68     		ldr	r3, [r7, #4]
  88 0040 93F83230 		ldrb	r3, [r3, #50]
  89 0044 DBB2     		uxtb	r3, r3
  90              		.loc 1 346 7
  91 0046 002B     		cmp	r3, #0
  92 0048 03D1     		bne	.L7
 347:Drivers/STM32L4xx_HAL_Driver/Src/stm32l4xx_hal_opamp.c ****     {
 348:Drivers/STM32L4xx_HAL_Driver/Src/stm32l4xx_hal_opamp.c ****       /* Allocate lock resource and initialize it */
 349:Drivers/STM32L4xx_HAL_Driver/Src/stm32l4xx_hal_opamp.c ****       hopamp->Lock = HAL_UNLOCKED;
  93              		.loc 1 349 20
  94 004a 7B68     		ldr	r3, [r7, #4]
  95 004c 0022     		movs	r2, #0
  96 004e 83F83120 		strb	r2, [r3, #49]
  97              	.L7:
 350:Drivers/STM32L4xx_HAL_Driver/Src/stm32l4xx_hal_opamp.c ****     }
 351:Drivers/STM32L4xx_HAL_Driver/Src/stm32l4xx_hal_opamp.c **** 
 352:Drivers/STM32L4xx_HAL_Driver/Src/stm32l4xx_hal_opamp.c **** #if (USE_HAL_OPAMP_REGISTER_CALLBACKS == 1)
 353:Drivers/STM32L4xx_HAL_Driver/Src/stm32l4xx_hal_opamp.c ****     hopamp->MspInitCallback(hopamp);
 354:Drivers/STM32L4xx_HAL_Driver/Src/stm32l4xx_hal_opamp.c **** #else
 355:Drivers/STM32L4xx_HAL_Driver/Src/stm32l4xx_hal_opamp.c ****     /* Call MSP init function */
 356:Drivers/STM32L4xx_HAL_Driver/Src/stm32l4xx_hal_opamp.c ****     HAL_OPAMP_MspInit(hopamp);
  98              		.loc 1 356 5
  99 0052 7868     		ldr	r0, [r7, #4]
 100 0054 FFF7FEFF 		bl	HAL_OPAMP_MspInit
 357:Drivers/STM32L4xx_HAL_Driver/Src/stm32l4xx_hal_opamp.c **** #endif /* USE_HAL_OPAMP_REGISTER_CALLBACKS */
 358:Drivers/STM32L4xx_HAL_Driver/Src/stm32l4xx_hal_opamp.c **** 
ARM GAS  /tmp/ccXP8iAY.s 			page 9


 359:Drivers/STM32L4xx_HAL_Driver/Src/stm32l4xx_hal_opamp.c ****     /* Set operating mode */
 360:Drivers/STM32L4xx_HAL_Driver/Src/stm32l4xx_hal_opamp.c ****     CLEAR_BIT(hopamp->Instance->CSR, OPAMP_CSR_CALON);
 101              		.loc 1 360 5
 102 0058 7B68     		ldr	r3, [r7, #4]
 103 005a 1B68     		ldr	r3, [r3]
 104 005c 1A68     		ldr	r2, [r3]
 105 005e 7B68     		ldr	r3, [r7, #4]
 106 0060 1B68     		ldr	r3, [r3]
 107 0062 22F48052 		bic	r2, r2, #4096
 108 0066 1A60     		str	r2, [r3]
 361:Drivers/STM32L4xx_HAL_Driver/Src/stm32l4xx_hal_opamp.c **** 
 362:Drivers/STM32L4xx_HAL_Driver/Src/stm32l4xx_hal_opamp.c ****     if (hopamp->Init.Mode == OPAMP_PGA_MODE)
 109              		.loc 1 362 21
 110 0068 7B68     		ldr	r3, [r7, #4]
 111 006a DB68     		ldr	r3, [r3, #12]
 112              		.loc 1 362 8
 113 006c 082B     		cmp	r3, #8
 114 006e 1BD1     		bne	.L8
 363:Drivers/STM32L4xx_HAL_Driver/Src/stm32l4xx_hal_opamp.c ****     {
 364:Drivers/STM32L4xx_HAL_Driver/Src/stm32l4xx_hal_opamp.c ****       MODIFY_REG(hopamp->Instance->CSR, OPAMP_CSR_INIT_MASK_PGA, \
 115              		.loc 1 364 7
 116 0070 7B68     		ldr	r3, [r7, #4]
 117 0072 1B68     		ldr	r3, [r3]
 118 0074 1B68     		ldr	r3, [r3]
 119 0076 23F48E43 		bic	r3, r3, #18176
 120 007a 23F03E03 		bic	r3, r3, #62
 121 007e 7A68     		ldr	r2, [r7, #4]
 122 0080 9168     		ldr	r1, [r2, #8]
 123 0082 7A68     		ldr	r2, [r7, #4]
 124 0084 D268     		ldr	r2, [r2, #12]
 125 0086 1143     		orrs	r1, r1, r2
 126 0088 7A68     		ldr	r2, [r7, #4]
 127 008a 9269     		ldr	r2, [r2, #24]
 128 008c 1143     		orrs	r1, r1, r2
 129 008e 7A68     		ldr	r2, [r7, #4]
 130 0090 1269     		ldr	r2, [r2, #16]
 131 0092 1143     		orrs	r1, r1, r2
 132 0094 7A68     		ldr	r2, [r7, #4]
 133 0096 5269     		ldr	r2, [r2, #20]
 134 0098 1143     		orrs	r1, r1, r2
 135 009a 7A68     		ldr	r2, [r7, #4]
 136 009c D269     		ldr	r2, [r2, #28]
 137 009e 1143     		orrs	r1, r1, r2
 138 00a0 7A68     		ldr	r2, [r7, #4]
 139 00a2 1268     		ldr	r2, [r2]
 140 00a4 0B43     		orrs	r3, r3, r1
 141 00a6 1360     		str	r3, [r2]
 142              	.L8:
 365:Drivers/STM32L4xx_HAL_Driver/Src/stm32l4xx_hal_opamp.c ****                                         hopamp->Init.PowerMode | \
 366:Drivers/STM32L4xx_HAL_Driver/Src/stm32l4xx_hal_opamp.c ****                                         hopamp->Init.Mode | \
 367:Drivers/STM32L4xx_HAL_Driver/Src/stm32l4xx_hal_opamp.c ****                                         hopamp->Init.PgaGain | \
 368:Drivers/STM32L4xx_HAL_Driver/Src/stm32l4xx_hal_opamp.c ****                                         hopamp->Init.InvertingInput    | \
 369:Drivers/STM32L4xx_HAL_Driver/Src/stm32l4xx_hal_opamp.c ****                                         hopamp->Init.NonInvertingInput | \
 370:Drivers/STM32L4xx_HAL_Driver/Src/stm32l4xx_hal_opamp.c ****                                         hopamp->Init.UserTrimming);
 371:Drivers/STM32L4xx_HAL_Driver/Src/stm32l4xx_hal_opamp.c ****     }
 372:Drivers/STM32L4xx_HAL_Driver/Src/stm32l4xx_hal_opamp.c **** 
 373:Drivers/STM32L4xx_HAL_Driver/Src/stm32l4xx_hal_opamp.c ****     if (hopamp->Init.Mode == OPAMP_FOLLOWER_MODE)
ARM GAS  /tmp/ccXP8iAY.s 			page 10


 143              		.loc 1 373 21
 144 00a8 7B68     		ldr	r3, [r7, #4]
 145 00aa DB68     		ldr	r3, [r3, #12]
 146              		.loc 1 373 8
 147 00ac 0C2B     		cmp	r3, #12
 148 00ae 15D1     		bne	.L9
 374:Drivers/STM32L4xx_HAL_Driver/Src/stm32l4xx_hal_opamp.c ****     {
 375:Drivers/STM32L4xx_HAL_Driver/Src/stm32l4xx_hal_opamp.c ****     /* In Follower mode InvertingInput is Not Applicable  */
 376:Drivers/STM32L4xx_HAL_Driver/Src/stm32l4xx_hal_opamp.c ****     MODIFY_REG(hopamp->Instance->CSR, OPAMP_CSR_INIT_MASK_FOLLOWER, \
 149              		.loc 1 376 5
 150 00b0 7B68     		ldr	r3, [r7, #4]
 151 00b2 1B68     		ldr	r3, [r3]
 152 00b4 1B68     		ldr	r3, [r3]
 153 00b6 23F48843 		bic	r3, r3, #17408
 154 00ba 23F00E03 		bic	r3, r3, #14
 155 00be 7A68     		ldr	r2, [r7, #4]
 156 00c0 9168     		ldr	r1, [r2, #8]
 157 00c2 7A68     		ldr	r2, [r7, #4]
 158 00c4 D268     		ldr	r2, [r2, #12]
 159 00c6 1143     		orrs	r1, r1, r2
 160 00c8 7A68     		ldr	r2, [r7, #4]
 161 00ca 5269     		ldr	r2, [r2, #20]
 162 00cc 1143     		orrs	r1, r1, r2
 163 00ce 7A68     		ldr	r2, [r7, #4]
 164 00d0 D269     		ldr	r2, [r2, #28]
 165 00d2 1143     		orrs	r1, r1, r2
 166 00d4 7A68     		ldr	r2, [r7, #4]
 167 00d6 1268     		ldr	r2, [r2]
 168 00d8 0B43     		orrs	r3, r3, r1
 169 00da 1360     		str	r3, [r2]
 170              	.L9:
 377:Drivers/STM32L4xx_HAL_Driver/Src/stm32l4xx_hal_opamp.c ****                                         hopamp->Init.PowerMode | \
 378:Drivers/STM32L4xx_HAL_Driver/Src/stm32l4xx_hal_opamp.c ****                                         hopamp->Init.Mode | \
 379:Drivers/STM32L4xx_HAL_Driver/Src/stm32l4xx_hal_opamp.c ****                                         hopamp->Init.NonInvertingInput | \
 380:Drivers/STM32L4xx_HAL_Driver/Src/stm32l4xx_hal_opamp.c ****                                         hopamp->Init.UserTrimming);
 381:Drivers/STM32L4xx_HAL_Driver/Src/stm32l4xx_hal_opamp.c ****     }
 382:Drivers/STM32L4xx_HAL_Driver/Src/stm32l4xx_hal_opamp.c **** 
 383:Drivers/STM32L4xx_HAL_Driver/Src/stm32l4xx_hal_opamp.c ****     if (hopamp->Init.Mode == OPAMP_STANDALONE_MODE)
 171              		.loc 1 383 21
 172 00dc 7B68     		ldr	r3, [r7, #4]
 173 00de DB68     		ldr	r3, [r3, #12]
 174              		.loc 1 383 8
 175 00e0 002B     		cmp	r3, #0
 176 00e2 18D1     		bne	.L10
 384:Drivers/STM32L4xx_HAL_Driver/Src/stm32l4xx_hal_opamp.c ****     {
 385:Drivers/STM32L4xx_HAL_Driver/Src/stm32l4xx_hal_opamp.c ****       MODIFY_REG(hopamp->Instance->CSR, OPAMP_CSR_INIT_MASK_STANDALONE, \
 177              		.loc 1 385 7
 178 00e4 7B68     		ldr	r3, [r7, #4]
 179 00e6 1B68     		ldr	r3, [r3]
 180 00e8 1B68     		ldr	r3, [r3]
 181 00ea 23F48E43 		bic	r3, r3, #18176
 182 00ee 23F00E03 		bic	r3, r3, #14
 183 00f2 7A68     		ldr	r2, [r7, #4]
 184 00f4 9168     		ldr	r1, [r2, #8]
 185 00f6 7A68     		ldr	r2, [r7, #4]
 186 00f8 D268     		ldr	r2, [r2, #12]
 187 00fa 1143     		orrs	r1, r1, r2
ARM GAS  /tmp/ccXP8iAY.s 			page 11


 188 00fc 7A68     		ldr	r2, [r7, #4]
 189 00fe 1269     		ldr	r2, [r2, #16]
 190 0100 1143     		orrs	r1, r1, r2
 191 0102 7A68     		ldr	r2, [r7, #4]
 192 0104 5269     		ldr	r2, [r2, #20]
 193 0106 1143     		orrs	r1, r1, r2
 194 0108 7A68     		ldr	r2, [r7, #4]
 195 010a D269     		ldr	r2, [r2, #28]
 196 010c 1143     		orrs	r1, r1, r2
 197 010e 7A68     		ldr	r2, [r7, #4]
 198 0110 1268     		ldr	r2, [r2]
 199 0112 0B43     		orrs	r3, r3, r1
 200 0114 1360     		str	r3, [r2]
 201              	.L10:
 386:Drivers/STM32L4xx_HAL_Driver/Src/stm32l4xx_hal_opamp.c ****                                         hopamp->Init.PowerMode | \
 387:Drivers/STM32L4xx_HAL_Driver/Src/stm32l4xx_hal_opamp.c ****                                         hopamp->Init.Mode | \
 388:Drivers/STM32L4xx_HAL_Driver/Src/stm32l4xx_hal_opamp.c ****                                         hopamp->Init.InvertingInput    | \
 389:Drivers/STM32L4xx_HAL_Driver/Src/stm32l4xx_hal_opamp.c ****                                         hopamp->Init.NonInvertingInput | \
 390:Drivers/STM32L4xx_HAL_Driver/Src/stm32l4xx_hal_opamp.c ****                                         hopamp->Init.UserTrimming);
 391:Drivers/STM32L4xx_HAL_Driver/Src/stm32l4xx_hal_opamp.c ****     }
 392:Drivers/STM32L4xx_HAL_Driver/Src/stm32l4xx_hal_opamp.c **** 
 393:Drivers/STM32L4xx_HAL_Driver/Src/stm32l4xx_hal_opamp.c ****     if (hopamp->Init.UserTrimming == OPAMP_TRIMMING_USER)
 202              		.loc 1 393 21
 203 0116 7B68     		ldr	r3, [r7, #4]
 204 0118 DB69     		ldr	r3, [r3, #28]
 205              		.loc 1 393 8
 206 011a B3F5804F 		cmp	r3, #16384
 207 011e 2AD1     		bne	.L11
 394:Drivers/STM32L4xx_HAL_Driver/Src/stm32l4xx_hal_opamp.c ****     {
 395:Drivers/STM32L4xx_HAL_Driver/Src/stm32l4xx_hal_opamp.c ****       /* Set power mode and associated calibration parameters */
 396:Drivers/STM32L4xx_HAL_Driver/Src/stm32l4xx_hal_opamp.c ****       if (hopamp->Init.PowerMode != OPAMP_POWERMODE_LOWPOWER)
 208              		.loc 1 396 23
 209 0120 7B68     		ldr	r3, [r7, #4]
 210 0122 9B68     		ldr	r3, [r3, #8]
 211              		.loc 1 396 10
 212 0124 022B     		cmp	r3, #2
 213 0126 13D0     		beq	.L12
 397:Drivers/STM32L4xx_HAL_Driver/Src/stm32l4xx_hal_opamp.c ****       {
 398:Drivers/STM32L4xx_HAL_Driver/Src/stm32l4xx_hal_opamp.c ****         /* OPAMP_POWERMODE_NORMALPOWER */
 399:Drivers/STM32L4xx_HAL_Driver/Src/stm32l4xx_hal_opamp.c ****         /* Set calibration mode (factory or user) and values for            */
 400:Drivers/STM32L4xx_HAL_Driver/Src/stm32l4xx_hal_opamp.c ****         /* transistors differential pair high (PMOS) and low (NMOS) for     */
 401:Drivers/STM32L4xx_HAL_Driver/Src/stm32l4xx_hal_opamp.c ****         /* normal mode.                                                     */
 402:Drivers/STM32L4xx_HAL_Driver/Src/stm32l4xx_hal_opamp.c ****         updateotrlpotr = (((hopamp->Init.TrimmingValueP) << (OPAMP_INPUT_NONINVERTING)) \
 214              		.loc 1 402 41
 215 0128 7B68     		ldr	r3, [r7, #4]
 216 012a 1B6A     		ldr	r3, [r3, #32]
 217              		.loc 1 402 58
 218 012c 1A02     		lsls	r2, r3, #8
 403:Drivers/STM32L4xx_HAL_Driver/Src/stm32l4xx_hal_opamp.c ****                          | (hopamp->Init.TrimmingValueN));
 219              		.loc 1 403 41
 220 012e 7B68     		ldr	r3, [r7, #4]
 221 0130 5B6A     		ldr	r3, [r3, #36]
 402:Drivers/STM32L4xx_HAL_Driver/Src/stm32l4xx_hal_opamp.c ****                          | (hopamp->Init.TrimmingValueN));
 222              		.loc 1 402 24
 223 0132 1343     		orrs	r3, r3, r2
 224 0134 BB60     		str	r3, [r7, #8]
 404:Drivers/STM32L4xx_HAL_Driver/Src/stm32l4xx_hal_opamp.c ****         MODIFY_REG(hopamp->Instance->OTR, OPAMP_OTR_TRIMOFFSETN | OPAMP_OTR_TRIMOFFSETP, updateotrl
ARM GAS  /tmp/ccXP8iAY.s 			page 12


 225              		.loc 1 404 9
 226 0136 7B68     		ldr	r3, [r7, #4]
 227 0138 1B68     		ldr	r3, [r3]
 228 013a 5B68     		ldr	r3, [r3, #4]
 229 013c 23F4F853 		bic	r3, r3, #7936
 230 0140 23F01F03 		bic	r3, r3, #31
 231 0144 7A68     		ldr	r2, [r7, #4]
 232 0146 1268     		ldr	r2, [r2]
 233 0148 B968     		ldr	r1, [r7, #8]
 234 014a 0B43     		orrs	r3, r3, r1
 235 014c 5360     		str	r3, [r2, #4]
 236 014e 12E0     		b	.L11
 237              	.L12:
 405:Drivers/STM32L4xx_HAL_Driver/Src/stm32l4xx_hal_opamp.c ****       }
 406:Drivers/STM32L4xx_HAL_Driver/Src/stm32l4xx_hal_opamp.c ****       else
 407:Drivers/STM32L4xx_HAL_Driver/Src/stm32l4xx_hal_opamp.c ****       {
 408:Drivers/STM32L4xx_HAL_Driver/Src/stm32l4xx_hal_opamp.c ****         /* OPAMP_POWERMODE_LOWPOWER */
 409:Drivers/STM32L4xx_HAL_Driver/Src/stm32l4xx_hal_opamp.c ****         /* transistors differential pair high (PMOS) and low (NMOS) for     */
 410:Drivers/STM32L4xx_HAL_Driver/Src/stm32l4xx_hal_opamp.c ****         /* low power mode.                                                     */
 411:Drivers/STM32L4xx_HAL_Driver/Src/stm32l4xx_hal_opamp.c ****         updateotrlpotr = (((hopamp->Init.TrimmingValuePLowPower) << (OPAMP_INPUT_NONINVERTING)) \
 238              		.loc 1 411 41
 239 0150 7B68     		ldr	r3, [r7, #4]
 240 0152 9B6A     		ldr	r3, [r3, #40]
 241              		.loc 1 411 66
 242 0154 1A02     		lsls	r2, r3, #8
 412:Drivers/STM32L4xx_HAL_Driver/Src/stm32l4xx_hal_opamp.c ****                          | (hopamp->Init.TrimmingValueNLowPower));
 243              		.loc 1 412 41
 244 0156 7B68     		ldr	r3, [r7, #4]
 245 0158 DB6A     		ldr	r3, [r3, #44]
 411:Drivers/STM32L4xx_HAL_Driver/Src/stm32l4xx_hal_opamp.c ****                          | (hopamp->Init.TrimmingValueNLowPower));
 246              		.loc 1 411 24
 247 015a 1343     		orrs	r3, r3, r2
 248 015c BB60     		str	r3, [r7, #8]
 413:Drivers/STM32L4xx_HAL_Driver/Src/stm32l4xx_hal_opamp.c ****         MODIFY_REG(hopamp->Instance->LPOTR, OPAMP_OTR_TRIMOFFSETN | OPAMP_OTR_TRIMOFFSETP, updateot
 249              		.loc 1 413 9
 250 015e 7B68     		ldr	r3, [r7, #4]
 251 0160 1B68     		ldr	r3, [r3]
 252 0162 9B68     		ldr	r3, [r3, #8]
 253 0164 23F4F853 		bic	r3, r3, #7936
 254 0168 23F01F03 		bic	r3, r3, #31
 255 016c 7A68     		ldr	r2, [r7, #4]
 256 016e 1268     		ldr	r2, [r2]
 257 0170 B968     		ldr	r1, [r7, #8]
 258 0172 0B43     		orrs	r3, r3, r1
 259 0174 9360     		str	r3, [r2, #8]
 260              	.L11:
 414:Drivers/STM32L4xx_HAL_Driver/Src/stm32l4xx_hal_opamp.c ****       }
 415:Drivers/STM32L4xx_HAL_Driver/Src/stm32l4xx_hal_opamp.c ****     }
 416:Drivers/STM32L4xx_HAL_Driver/Src/stm32l4xx_hal_opamp.c **** 
 417:Drivers/STM32L4xx_HAL_Driver/Src/stm32l4xx_hal_opamp.c ****     /* Configure the power supply range */
 418:Drivers/STM32L4xx_HAL_Driver/Src/stm32l4xx_hal_opamp.c ****     /* The OPAMP_CSR_OPARANGE is common configuration for all OPAMPs */
 419:Drivers/STM32L4xx_HAL_Driver/Src/stm32l4xx_hal_opamp.c ****     /* bit OPAMP1_CSR_OPARANGE is used for both OPAMPs */
 420:Drivers/STM32L4xx_HAL_Driver/Src/stm32l4xx_hal_opamp.c ****     MODIFY_REG(OPAMP1->CSR, OPAMP1_CSR_OPARANGE, hopamp->Init.PowerSupplyRange);
 261              		.loc 1 420 5
 262 0176 0C4B     		ldr	r3, .L14
 263 0178 1B68     		ldr	r3, [r3]
 264 017a 23F00042 		bic	r2, r3, #-2147483648
ARM GAS  /tmp/ccXP8iAY.s 			page 13


 265 017e 7B68     		ldr	r3, [r7, #4]
 266 0180 5B68     		ldr	r3, [r3, #4]
 267 0182 0949     		ldr	r1, .L14
 268 0184 1343     		orrs	r3, r3, r2
 269 0186 0B60     		str	r3, [r1]
 421:Drivers/STM32L4xx_HAL_Driver/Src/stm32l4xx_hal_opamp.c **** 
 422:Drivers/STM32L4xx_HAL_Driver/Src/stm32l4xx_hal_opamp.c ****     /* Update the OPAMP state*/
 423:Drivers/STM32L4xx_HAL_Driver/Src/stm32l4xx_hal_opamp.c ****     if (hopamp->State == HAL_OPAMP_STATE_RESET)
 270              		.loc 1 423 15
 271 0188 7B68     		ldr	r3, [r7, #4]
 272 018a 93F83230 		ldrb	r3, [r3, #50]
 273 018e DBB2     		uxtb	r3, r3
 274              		.loc 1 423 8
 275 0190 002B     		cmp	r3, #0
 276 0192 03D1     		bne	.L13
 424:Drivers/STM32L4xx_HAL_Driver/Src/stm32l4xx_hal_opamp.c ****     {
 425:Drivers/STM32L4xx_HAL_Driver/Src/stm32l4xx_hal_opamp.c ****       /* From RESET state to READY State */
 426:Drivers/STM32L4xx_HAL_Driver/Src/stm32l4xx_hal_opamp.c ****       hopamp->State = HAL_OPAMP_STATE_READY;
 277              		.loc 1 426 21
 278 0194 7B68     		ldr	r3, [r7, #4]
 279 0196 0122     		movs	r2, #1
 280 0198 83F83220 		strb	r2, [r3, #50]
 281              	.L13:
 427:Drivers/STM32L4xx_HAL_Driver/Src/stm32l4xx_hal_opamp.c ****     }
 428:Drivers/STM32L4xx_HAL_Driver/Src/stm32l4xx_hal_opamp.c ****     /* else: remain in READY or BUSY state (no update) */
 429:Drivers/STM32L4xx_HAL_Driver/Src/stm32l4xx_hal_opamp.c ****     return status;
 282              		.loc 1 429 12
 283 019c FB7B     		ldrb	r3, [r7, #15]	@ zero_extendqisi2
 284              	.L3:
 430:Drivers/STM32L4xx_HAL_Driver/Src/stm32l4xx_hal_opamp.c ****   }
 431:Drivers/STM32L4xx_HAL_Driver/Src/stm32l4xx_hal_opamp.c **** }
 285              		.loc 1 431 1
 286 019e 1846     		mov	r0, r3
 287 01a0 1037     		adds	r7, r7, #16
 288              		.cfi_def_cfa_offset 8
 289 01a2 BD46     		mov	sp, r7
 290              		.cfi_def_cfa_register 13
 291              		@ sp needed
 292 01a4 80BD     		pop	{r7, pc}
 293              	.L15:
 294 01a6 00BF     		.align	2
 295              	.L14:
 296 01a8 00780040 		.word	1073772544
 297              		.cfi_endproc
 298              	.LFE445:
 300              		.section	.text.HAL_OPAMP_DeInit,"ax",%progbits
 301              		.align	1
 302              		.global	HAL_OPAMP_DeInit
 303              		.syntax unified
 304              		.thumb
 305              		.thumb_func
 307              	HAL_OPAMP_DeInit:
 308              	.LFB446:
 432:Drivers/STM32L4xx_HAL_Driver/Src/stm32l4xx_hal_opamp.c **** 
 433:Drivers/STM32L4xx_HAL_Driver/Src/stm32l4xx_hal_opamp.c **** /**
 434:Drivers/STM32L4xx_HAL_Driver/Src/stm32l4xx_hal_opamp.c ****   * @brief  DeInitialize the OPAMP peripheral.
 435:Drivers/STM32L4xx_HAL_Driver/Src/stm32l4xx_hal_opamp.c ****   * @note   Deinitialization can be performed if the OPAMP configuration is locked.
ARM GAS  /tmp/ccXP8iAY.s 			page 14


 436:Drivers/STM32L4xx_HAL_Driver/Src/stm32l4xx_hal_opamp.c ****   *         (the lock is SW in L4)
 437:Drivers/STM32L4xx_HAL_Driver/Src/stm32l4xx_hal_opamp.c ****   * @param  hopamp OPAMP handle
 438:Drivers/STM32L4xx_HAL_Driver/Src/stm32l4xx_hal_opamp.c ****   * @retval HAL status
 439:Drivers/STM32L4xx_HAL_Driver/Src/stm32l4xx_hal_opamp.c ****   */
 440:Drivers/STM32L4xx_HAL_Driver/Src/stm32l4xx_hal_opamp.c **** HAL_StatusTypeDef HAL_OPAMP_DeInit(OPAMP_HandleTypeDef *hopamp)
 441:Drivers/STM32L4xx_HAL_Driver/Src/stm32l4xx_hal_opamp.c **** {
 309              		.loc 1 441 1
 310              		.cfi_startproc
 311              		@ args = 0, pretend = 0, frame = 16
 312              		@ frame_needed = 1, uses_anonymous_args = 0
 313 0000 80B5     		push	{r7, lr}
 314              		.cfi_def_cfa_offset 8
 315              		.cfi_offset 7, -8
 316              		.cfi_offset 14, -4
 317 0002 84B0     		sub	sp, sp, #16
 318              		.cfi_def_cfa_offset 24
 319 0004 00AF     		add	r7, sp, #0
 320              		.cfi_def_cfa_register 7
 321 0006 7860     		str	r0, [r7, #4]
 442:Drivers/STM32L4xx_HAL_Driver/Src/stm32l4xx_hal_opamp.c ****   HAL_StatusTypeDef status = HAL_OK;
 322              		.loc 1 442 21
 323 0008 0023     		movs	r3, #0
 324 000a FB73     		strb	r3, [r7, #15]
 443:Drivers/STM32L4xx_HAL_Driver/Src/stm32l4xx_hal_opamp.c **** 
 444:Drivers/STM32L4xx_HAL_Driver/Src/stm32l4xx_hal_opamp.c ****   /* Check the OPAMP handle allocation */
 445:Drivers/STM32L4xx_HAL_Driver/Src/stm32l4xx_hal_opamp.c ****   /* DeInit not allowed if calibration is ongoing */
 446:Drivers/STM32L4xx_HAL_Driver/Src/stm32l4xx_hal_opamp.c ****   if(hopamp == NULL)
 325              		.loc 1 446 5
 326 000c 7B68     		ldr	r3, [r7, #4]
 327 000e 002B     		cmp	r3, #0
 328 0010 02D1     		bne	.L17
 447:Drivers/STM32L4xx_HAL_Driver/Src/stm32l4xx_hal_opamp.c ****   {
 448:Drivers/STM32L4xx_HAL_Driver/Src/stm32l4xx_hal_opamp.c ****     status = HAL_ERROR;
 329              		.loc 1 448 12
 330 0012 0123     		movs	r3, #1
 331 0014 FB73     		strb	r3, [r7, #15]
 332 0016 25E0     		b	.L18
 333              	.L17:
 449:Drivers/STM32L4xx_HAL_Driver/Src/stm32l4xx_hal_opamp.c ****   }
 450:Drivers/STM32L4xx_HAL_Driver/Src/stm32l4xx_hal_opamp.c ****   else if(hopamp->State == HAL_OPAMP_STATE_CALIBBUSY)
 334              		.loc 1 450 17
 335 0018 7B68     		ldr	r3, [r7, #4]
 336 001a 93F83230 		ldrb	r3, [r3, #50]
 337 001e DBB2     		uxtb	r3, r3
 338              		.loc 1 450 10
 339 0020 022B     		cmp	r3, #2
 340 0022 02D1     		bne	.L19
 451:Drivers/STM32L4xx_HAL_Driver/Src/stm32l4xx_hal_opamp.c ****   {
 452:Drivers/STM32L4xx_HAL_Driver/Src/stm32l4xx_hal_opamp.c ****     status = HAL_ERROR;
 341              		.loc 1 452 12
 342 0024 0123     		movs	r3, #1
 343 0026 FB73     		strb	r3, [r7, #15]
 344 0028 1CE0     		b	.L18
 345              	.L19:
 453:Drivers/STM32L4xx_HAL_Driver/Src/stm32l4xx_hal_opamp.c ****   }
 454:Drivers/STM32L4xx_HAL_Driver/Src/stm32l4xx_hal_opamp.c ****   else
 455:Drivers/STM32L4xx_HAL_Driver/Src/stm32l4xx_hal_opamp.c ****   {
ARM GAS  /tmp/ccXP8iAY.s 			page 15


 456:Drivers/STM32L4xx_HAL_Driver/Src/stm32l4xx_hal_opamp.c ****     /* Check the parameter */
 457:Drivers/STM32L4xx_HAL_Driver/Src/stm32l4xx_hal_opamp.c ****     assert_param(IS_OPAMP_ALL_INSTANCE(hopamp->Instance));
 458:Drivers/STM32L4xx_HAL_Driver/Src/stm32l4xx_hal_opamp.c **** 
 459:Drivers/STM32L4xx_HAL_Driver/Src/stm32l4xx_hal_opamp.c ****     /* Set OPAMP_CSR register to reset value */
 460:Drivers/STM32L4xx_HAL_Driver/Src/stm32l4xx_hal_opamp.c ****     /* Mind that OPAMP1_CSR_OPARANGE of CSR of OPAMP1 remains unchanged (applies to both OPAMPs) */
 461:Drivers/STM32L4xx_HAL_Driver/Src/stm32l4xx_hal_opamp.c ****     /* OPAMP shall be disabled first separately */
 462:Drivers/STM32L4xx_HAL_Driver/Src/stm32l4xx_hal_opamp.c ****     CLEAR_BIT(hopamp->Instance->CSR, OPAMP_CSR_OPAMPxEN);
 346              		.loc 1 462 5
 347 002a 7B68     		ldr	r3, [r7, #4]
 348 002c 1B68     		ldr	r3, [r3]
 349 002e 1A68     		ldr	r2, [r3]
 350 0030 7B68     		ldr	r3, [r7, #4]
 351 0032 1B68     		ldr	r3, [r3]
 352 0034 22F00102 		bic	r2, r2, #1
 353 0038 1A60     		str	r2, [r3]
 463:Drivers/STM32L4xx_HAL_Driver/Src/stm32l4xx_hal_opamp.c ****     MODIFY_REG(hopamp->Instance->CSR, OPAMP_CSR_RESET_BITS, OPAMP_CSR_RESET_VALUE);
 354              		.loc 1 463 5
 355 003a 7B68     		ldr	r3, [r7, #4]
 356 003c 1B68     		ldr	r3, [r3]
 357 003e 1B68     		ldr	r3, [r3]
 358 0040 7A68     		ldr	r2, [r7, #4]
 359 0042 1268     		ldr	r2, [r2]
 360 0044 23F4AE43 		bic	r3, r3, #22272
 361 0048 23F03F03 		bic	r3, r3, #63
 362 004c 1360     		str	r3, [r2]
 464:Drivers/STM32L4xx_HAL_Driver/Src/stm32l4xx_hal_opamp.c **** 
 465:Drivers/STM32L4xx_HAL_Driver/Src/stm32l4xx_hal_opamp.c **** #if (USE_HAL_OPAMP_REGISTER_CALLBACKS == 1)
 466:Drivers/STM32L4xx_HAL_Driver/Src/stm32l4xx_hal_opamp.c ****   if(hopamp->MspDeInitCallback == NULL)
 467:Drivers/STM32L4xx_HAL_Driver/Src/stm32l4xx_hal_opamp.c ****   {
 468:Drivers/STM32L4xx_HAL_Driver/Src/stm32l4xx_hal_opamp.c ****     hopamp->MspDeInitCallback = HAL_OPAMP_MspDeInit;
 469:Drivers/STM32L4xx_HAL_Driver/Src/stm32l4xx_hal_opamp.c ****   }
 470:Drivers/STM32L4xx_HAL_Driver/Src/stm32l4xx_hal_opamp.c ****   /* DeInit the low level hardware */
 471:Drivers/STM32L4xx_HAL_Driver/Src/stm32l4xx_hal_opamp.c ****   hopamp->MspDeInitCallback(hopamp);
 472:Drivers/STM32L4xx_HAL_Driver/Src/stm32l4xx_hal_opamp.c **** #else
 473:Drivers/STM32L4xx_HAL_Driver/Src/stm32l4xx_hal_opamp.c ****     /* DeInit the low level hardware: GPIO, CLOCK and NVIC */
 474:Drivers/STM32L4xx_HAL_Driver/Src/stm32l4xx_hal_opamp.c ****     HAL_OPAMP_MspDeInit(hopamp);
 363              		.loc 1 474 5
 364 004e 7868     		ldr	r0, [r7, #4]
 365 0050 FFF7FEFF 		bl	HAL_OPAMP_MspDeInit
 475:Drivers/STM32L4xx_HAL_Driver/Src/stm32l4xx_hal_opamp.c **** #endif /* USE_HAL_OPAMP_REGISTER_CALLBACKS */
 476:Drivers/STM32L4xx_HAL_Driver/Src/stm32l4xx_hal_opamp.c ****     /* Update the OPAMP state*/
 477:Drivers/STM32L4xx_HAL_Driver/Src/stm32l4xx_hal_opamp.c ****     hopamp->State = HAL_OPAMP_STATE_RESET;
 366              		.loc 1 477 19
 367 0054 7B68     		ldr	r3, [r7, #4]
 368 0056 0022     		movs	r2, #0
 369 0058 83F83220 		strb	r2, [r3, #50]
 478:Drivers/STM32L4xx_HAL_Driver/Src/stm32l4xx_hal_opamp.c **** 
 479:Drivers/STM32L4xx_HAL_Driver/Src/stm32l4xx_hal_opamp.c ****     /* Process unlocked */
 480:Drivers/STM32L4xx_HAL_Driver/Src/stm32l4xx_hal_opamp.c ****     __HAL_UNLOCK(hopamp);
 370              		.loc 1 480 5
 371 005c 7B68     		ldr	r3, [r7, #4]
 372 005e 0022     		movs	r2, #0
 373 0060 83F83120 		strb	r2, [r3, #49]
 374              	.L18:
 481:Drivers/STM32L4xx_HAL_Driver/Src/stm32l4xx_hal_opamp.c ****   }
 482:Drivers/STM32L4xx_HAL_Driver/Src/stm32l4xx_hal_opamp.c ****   return status;
 375              		.loc 1 482 10
ARM GAS  /tmp/ccXP8iAY.s 			page 16


 376 0064 FB7B     		ldrb	r3, [r7, #15]	@ zero_extendqisi2
 483:Drivers/STM32L4xx_HAL_Driver/Src/stm32l4xx_hal_opamp.c **** }
 377              		.loc 1 483 1
 378 0066 1846     		mov	r0, r3
 379 0068 1037     		adds	r7, r7, #16
 380              		.cfi_def_cfa_offset 8
 381 006a BD46     		mov	sp, r7
 382              		.cfi_def_cfa_register 13
 383              		@ sp needed
 384 006c 80BD     		pop	{r7, pc}
 385              		.cfi_endproc
 386              	.LFE446:
 388              		.section	.text.HAL_OPAMP_MspInit,"ax",%progbits
 389              		.align	1
 390              		.weak	HAL_OPAMP_MspInit
 391              		.syntax unified
 392              		.thumb
 393              		.thumb_func
 395              	HAL_OPAMP_MspInit:
 396              	.LFB447:
 484:Drivers/STM32L4xx_HAL_Driver/Src/stm32l4xx_hal_opamp.c **** 
 485:Drivers/STM32L4xx_HAL_Driver/Src/stm32l4xx_hal_opamp.c **** /**
 486:Drivers/STM32L4xx_HAL_Driver/Src/stm32l4xx_hal_opamp.c ****   * @brief  Initialize the OPAMP MSP.
 487:Drivers/STM32L4xx_HAL_Driver/Src/stm32l4xx_hal_opamp.c ****   * @param  hopamp OPAMP handle
 488:Drivers/STM32L4xx_HAL_Driver/Src/stm32l4xx_hal_opamp.c ****   * @retval None
 489:Drivers/STM32L4xx_HAL_Driver/Src/stm32l4xx_hal_opamp.c ****   */
 490:Drivers/STM32L4xx_HAL_Driver/Src/stm32l4xx_hal_opamp.c **** __weak void HAL_OPAMP_MspInit(OPAMP_HandleTypeDef *hopamp)
 491:Drivers/STM32L4xx_HAL_Driver/Src/stm32l4xx_hal_opamp.c **** {
 397              		.loc 1 491 1
 398              		.cfi_startproc
 399              		@ args = 0, pretend = 0, frame = 8
 400              		@ frame_needed = 1, uses_anonymous_args = 0
 401              		@ link register save eliminated.
 402 0000 80B4     		push	{r7}
 403              		.cfi_def_cfa_offset 4
 404              		.cfi_offset 7, -4
 405 0002 83B0     		sub	sp, sp, #12
 406              		.cfi_def_cfa_offset 16
 407 0004 00AF     		add	r7, sp, #0
 408              		.cfi_def_cfa_register 7
 409 0006 7860     		str	r0, [r7, #4]
 492:Drivers/STM32L4xx_HAL_Driver/Src/stm32l4xx_hal_opamp.c ****   /* Prevent unused argument(s) compilation warning */
 493:Drivers/STM32L4xx_HAL_Driver/Src/stm32l4xx_hal_opamp.c ****   UNUSED(hopamp);
 494:Drivers/STM32L4xx_HAL_Driver/Src/stm32l4xx_hal_opamp.c **** 
 495:Drivers/STM32L4xx_HAL_Driver/Src/stm32l4xx_hal_opamp.c ****   /* NOTE : This function should not be modified, when the callback is needed,
 496:Drivers/STM32L4xx_HAL_Driver/Src/stm32l4xx_hal_opamp.c ****             the function "HAL_OPAMP_MspInit()" must be implemented in the user file.
 497:Drivers/STM32L4xx_HAL_Driver/Src/stm32l4xx_hal_opamp.c ****    */
 498:Drivers/STM32L4xx_HAL_Driver/Src/stm32l4xx_hal_opamp.c **** }
 410              		.loc 1 498 1
 411 0008 00BF     		nop
 412 000a 0C37     		adds	r7, r7, #12
 413              		.cfi_def_cfa_offset 4
 414 000c BD46     		mov	sp, r7
 415              		.cfi_def_cfa_register 13
 416              		@ sp needed
 417 000e 5DF8047B 		ldr	r7, [sp], #4
 418              		.cfi_restore 7
ARM GAS  /tmp/ccXP8iAY.s 			page 17


 419              		.cfi_def_cfa_offset 0
 420 0012 7047     		bx	lr
 421              		.cfi_endproc
 422              	.LFE447:
 424              		.section	.text.HAL_OPAMP_MspDeInit,"ax",%progbits
 425              		.align	1
 426              		.weak	HAL_OPAMP_MspDeInit
 427              		.syntax unified
 428              		.thumb
 429              		.thumb_func
 431              	HAL_OPAMP_MspDeInit:
 432              	.LFB448:
 499:Drivers/STM32L4xx_HAL_Driver/Src/stm32l4xx_hal_opamp.c **** 
 500:Drivers/STM32L4xx_HAL_Driver/Src/stm32l4xx_hal_opamp.c **** /**
 501:Drivers/STM32L4xx_HAL_Driver/Src/stm32l4xx_hal_opamp.c ****   * @brief  DeInitialize OPAMP MSP.
 502:Drivers/STM32L4xx_HAL_Driver/Src/stm32l4xx_hal_opamp.c ****   * @param  hopamp OPAMP handle
 503:Drivers/STM32L4xx_HAL_Driver/Src/stm32l4xx_hal_opamp.c ****   * @retval None
 504:Drivers/STM32L4xx_HAL_Driver/Src/stm32l4xx_hal_opamp.c ****   */
 505:Drivers/STM32L4xx_HAL_Driver/Src/stm32l4xx_hal_opamp.c **** __weak void HAL_OPAMP_MspDeInit(OPAMP_HandleTypeDef *hopamp)
 506:Drivers/STM32L4xx_HAL_Driver/Src/stm32l4xx_hal_opamp.c **** {
 433              		.loc 1 506 1
 434              		.cfi_startproc
 435              		@ args = 0, pretend = 0, frame = 8
 436              		@ frame_needed = 1, uses_anonymous_args = 0
 437              		@ link register save eliminated.
 438 0000 80B4     		push	{r7}
 439              		.cfi_def_cfa_offset 4
 440              		.cfi_offset 7, -4
 441 0002 83B0     		sub	sp, sp, #12
 442              		.cfi_def_cfa_offset 16
 443 0004 00AF     		add	r7, sp, #0
 444              		.cfi_def_cfa_register 7
 445 0006 7860     		str	r0, [r7, #4]
 507:Drivers/STM32L4xx_HAL_Driver/Src/stm32l4xx_hal_opamp.c ****   /* Prevent unused argument(s) compilation warning */
 508:Drivers/STM32L4xx_HAL_Driver/Src/stm32l4xx_hal_opamp.c ****   UNUSED(hopamp);
 509:Drivers/STM32L4xx_HAL_Driver/Src/stm32l4xx_hal_opamp.c **** 
 510:Drivers/STM32L4xx_HAL_Driver/Src/stm32l4xx_hal_opamp.c ****   /* NOTE : This function should not be modified, when the callback is needed,
 511:Drivers/STM32L4xx_HAL_Driver/Src/stm32l4xx_hal_opamp.c ****             the function "HAL_OPAMP_MspDeInit()" must be implemented in the user file.
 512:Drivers/STM32L4xx_HAL_Driver/Src/stm32l4xx_hal_opamp.c ****    */
 513:Drivers/STM32L4xx_HAL_Driver/Src/stm32l4xx_hal_opamp.c **** }
 446              		.loc 1 513 1
 447 0008 00BF     		nop
 448 000a 0C37     		adds	r7, r7, #12
 449              		.cfi_def_cfa_offset 4
 450 000c BD46     		mov	sp, r7
 451              		.cfi_def_cfa_register 13
 452              		@ sp needed
 453 000e 5DF8047B 		ldr	r7, [sp], #4
 454              		.cfi_restore 7
 455              		.cfi_def_cfa_offset 0
 456 0012 7047     		bx	lr
 457              		.cfi_endproc
 458              	.LFE448:
 460              		.section	.text.HAL_OPAMP_Start,"ax",%progbits
 461              		.align	1
 462              		.global	HAL_OPAMP_Start
 463              		.syntax unified
ARM GAS  /tmp/ccXP8iAY.s 			page 18


 464              		.thumb
 465              		.thumb_func
 467              	HAL_OPAMP_Start:
 468              	.LFB449:
 514:Drivers/STM32L4xx_HAL_Driver/Src/stm32l4xx_hal_opamp.c **** 
 515:Drivers/STM32L4xx_HAL_Driver/Src/stm32l4xx_hal_opamp.c **** /**
 516:Drivers/STM32L4xx_HAL_Driver/Src/stm32l4xx_hal_opamp.c ****   * @}
 517:Drivers/STM32L4xx_HAL_Driver/Src/stm32l4xx_hal_opamp.c ****   */
 518:Drivers/STM32L4xx_HAL_Driver/Src/stm32l4xx_hal_opamp.c **** 
 519:Drivers/STM32L4xx_HAL_Driver/Src/stm32l4xx_hal_opamp.c **** 
 520:Drivers/STM32L4xx_HAL_Driver/Src/stm32l4xx_hal_opamp.c **** /** @defgroup OPAMP_Exported_Functions_Group2 IO operation functions
 521:Drivers/STM32L4xx_HAL_Driver/Src/stm32l4xx_hal_opamp.c ****  *  @brief   IO operation functions
 522:Drivers/STM32L4xx_HAL_Driver/Src/stm32l4xx_hal_opamp.c ****  *
 523:Drivers/STM32L4xx_HAL_Driver/Src/stm32l4xx_hal_opamp.c **** @verbatim
 524:Drivers/STM32L4xx_HAL_Driver/Src/stm32l4xx_hal_opamp.c ****  ===============================================================================
 525:Drivers/STM32L4xx_HAL_Driver/Src/stm32l4xx_hal_opamp.c ****                         ##### IO operation functions #####
 526:Drivers/STM32L4xx_HAL_Driver/Src/stm32l4xx_hal_opamp.c ****  ===============================================================================
 527:Drivers/STM32L4xx_HAL_Driver/Src/stm32l4xx_hal_opamp.c ****     [..]
 528:Drivers/STM32L4xx_HAL_Driver/Src/stm32l4xx_hal_opamp.c ****     This subsection provides a set of functions allowing to manage the OPAMP
 529:Drivers/STM32L4xx_HAL_Driver/Src/stm32l4xx_hal_opamp.c ****     start, stop and calibration actions.
 530:Drivers/STM32L4xx_HAL_Driver/Src/stm32l4xx_hal_opamp.c **** 
 531:Drivers/STM32L4xx_HAL_Driver/Src/stm32l4xx_hal_opamp.c **** @endverbatim
 532:Drivers/STM32L4xx_HAL_Driver/Src/stm32l4xx_hal_opamp.c ****   * @{
 533:Drivers/STM32L4xx_HAL_Driver/Src/stm32l4xx_hal_opamp.c ****   */
 534:Drivers/STM32L4xx_HAL_Driver/Src/stm32l4xx_hal_opamp.c **** 
 535:Drivers/STM32L4xx_HAL_Driver/Src/stm32l4xx_hal_opamp.c **** /**
 536:Drivers/STM32L4xx_HAL_Driver/Src/stm32l4xx_hal_opamp.c ****   * @brief  Start the OPAMP.
 537:Drivers/STM32L4xx_HAL_Driver/Src/stm32l4xx_hal_opamp.c ****   * @param  hopamp OPAMP handle
 538:Drivers/STM32L4xx_HAL_Driver/Src/stm32l4xx_hal_opamp.c ****   * @retval HAL status
 539:Drivers/STM32L4xx_HAL_Driver/Src/stm32l4xx_hal_opamp.c ****   */
 540:Drivers/STM32L4xx_HAL_Driver/Src/stm32l4xx_hal_opamp.c **** 
 541:Drivers/STM32L4xx_HAL_Driver/Src/stm32l4xx_hal_opamp.c **** HAL_StatusTypeDef HAL_OPAMP_Start(OPAMP_HandleTypeDef *hopamp)
 542:Drivers/STM32L4xx_HAL_Driver/Src/stm32l4xx_hal_opamp.c **** {
 469              		.loc 1 542 1
 470              		.cfi_startproc
 471              		@ args = 0, pretend = 0, frame = 16
 472              		@ frame_needed = 1, uses_anonymous_args = 0
 473              		@ link register save eliminated.
 474 0000 80B4     		push	{r7}
 475              		.cfi_def_cfa_offset 4
 476              		.cfi_offset 7, -4
 477 0002 85B0     		sub	sp, sp, #20
 478              		.cfi_def_cfa_offset 24
 479 0004 00AF     		add	r7, sp, #0
 480              		.cfi_def_cfa_register 7
 481 0006 7860     		str	r0, [r7, #4]
 543:Drivers/STM32L4xx_HAL_Driver/Src/stm32l4xx_hal_opamp.c ****   HAL_StatusTypeDef status = HAL_OK;
 482              		.loc 1 543 21
 483 0008 0023     		movs	r3, #0
 484 000a FB73     		strb	r3, [r7, #15]
 544:Drivers/STM32L4xx_HAL_Driver/Src/stm32l4xx_hal_opamp.c **** 
 545:Drivers/STM32L4xx_HAL_Driver/Src/stm32l4xx_hal_opamp.c ****   /* Check the OPAMP handle allocation */
 546:Drivers/STM32L4xx_HAL_Driver/Src/stm32l4xx_hal_opamp.c ****   /* Check if OPAMP locked */
 547:Drivers/STM32L4xx_HAL_Driver/Src/stm32l4xx_hal_opamp.c ****   if(hopamp == NULL)
 485              		.loc 1 547 5
 486 000c 7B68     		ldr	r3, [r7, #4]
 487 000e 002B     		cmp	r3, #0
ARM GAS  /tmp/ccXP8iAY.s 			page 19


 488 0010 02D1     		bne	.L24
 548:Drivers/STM32L4xx_HAL_Driver/Src/stm32l4xx_hal_opamp.c ****   {
 549:Drivers/STM32L4xx_HAL_Driver/Src/stm32l4xx_hal_opamp.c ****     status = HAL_ERROR;
 489              		.loc 1 549 12
 490 0012 0123     		movs	r3, #1
 491 0014 FB73     		strb	r3, [r7, #15]
 492 0016 1DE0     		b	.L25
 493              	.L24:
 550:Drivers/STM32L4xx_HAL_Driver/Src/stm32l4xx_hal_opamp.c ****   }
 551:Drivers/STM32L4xx_HAL_Driver/Src/stm32l4xx_hal_opamp.c ****   else if(hopamp->State == HAL_OPAMP_STATE_BUSYLOCKED)
 494              		.loc 1 551 17
 495 0018 7B68     		ldr	r3, [r7, #4]
 496 001a 93F83230 		ldrb	r3, [r3, #50]
 497 001e DBB2     		uxtb	r3, r3
 498              		.loc 1 551 10
 499 0020 052B     		cmp	r3, #5
 500 0022 02D1     		bne	.L26
 552:Drivers/STM32L4xx_HAL_Driver/Src/stm32l4xx_hal_opamp.c ****   {
 553:Drivers/STM32L4xx_HAL_Driver/Src/stm32l4xx_hal_opamp.c ****     status = HAL_ERROR;
 501              		.loc 1 553 12
 502 0024 0123     		movs	r3, #1
 503 0026 FB73     		strb	r3, [r7, #15]
 504 0028 14E0     		b	.L25
 505              	.L26:
 554:Drivers/STM32L4xx_HAL_Driver/Src/stm32l4xx_hal_opamp.c ****   }
 555:Drivers/STM32L4xx_HAL_Driver/Src/stm32l4xx_hal_opamp.c ****   else
 556:Drivers/STM32L4xx_HAL_Driver/Src/stm32l4xx_hal_opamp.c ****   {
 557:Drivers/STM32L4xx_HAL_Driver/Src/stm32l4xx_hal_opamp.c ****     /* Check the parameter */
 558:Drivers/STM32L4xx_HAL_Driver/Src/stm32l4xx_hal_opamp.c ****     assert_param(IS_OPAMP_ALL_INSTANCE(hopamp->Instance));
 559:Drivers/STM32L4xx_HAL_Driver/Src/stm32l4xx_hal_opamp.c **** 
 560:Drivers/STM32L4xx_HAL_Driver/Src/stm32l4xx_hal_opamp.c ****     if(hopamp->State == HAL_OPAMP_STATE_READY)
 506              		.loc 1 560 14
 507 002a 7B68     		ldr	r3, [r7, #4]
 508 002c 93F83230 		ldrb	r3, [r3, #50]
 509 0030 DBB2     		uxtb	r3, r3
 510              		.loc 1 560 7
 511 0032 012B     		cmp	r3, #1
 512 0034 0CD1     		bne	.L27
 561:Drivers/STM32L4xx_HAL_Driver/Src/stm32l4xx_hal_opamp.c ****     {
 562:Drivers/STM32L4xx_HAL_Driver/Src/stm32l4xx_hal_opamp.c ****       /* Enable the selected opamp */
 563:Drivers/STM32L4xx_HAL_Driver/Src/stm32l4xx_hal_opamp.c ****       SET_BIT (hopamp->Instance->CSR, OPAMP_CSR_OPAMPxEN);
 513              		.loc 1 563 7
 514 0036 7B68     		ldr	r3, [r7, #4]
 515 0038 1B68     		ldr	r3, [r3]
 516 003a 1A68     		ldr	r2, [r3]
 517 003c 7B68     		ldr	r3, [r7, #4]
 518 003e 1B68     		ldr	r3, [r3]
 519 0040 42F00102 		orr	r2, r2, #1
 520 0044 1A60     		str	r2, [r3]
 564:Drivers/STM32L4xx_HAL_Driver/Src/stm32l4xx_hal_opamp.c **** 
 565:Drivers/STM32L4xx_HAL_Driver/Src/stm32l4xx_hal_opamp.c ****       /* Update the OPAMP state*/
 566:Drivers/STM32L4xx_HAL_Driver/Src/stm32l4xx_hal_opamp.c ****       /* From HAL_OPAMP_STATE_READY to HAL_OPAMP_STATE_BUSY */
 567:Drivers/STM32L4xx_HAL_Driver/Src/stm32l4xx_hal_opamp.c ****       hopamp->State = HAL_OPAMP_STATE_BUSY;
 521              		.loc 1 567 21
 522 0046 7B68     		ldr	r3, [r7, #4]
 523 0048 0422     		movs	r2, #4
 524 004a 83F83220 		strb	r2, [r3, #50]
ARM GAS  /tmp/ccXP8iAY.s 			page 20


 525 004e 01E0     		b	.L25
 526              	.L27:
 568:Drivers/STM32L4xx_HAL_Driver/Src/stm32l4xx_hal_opamp.c ****     }
 569:Drivers/STM32L4xx_HAL_Driver/Src/stm32l4xx_hal_opamp.c ****     else
 570:Drivers/STM32L4xx_HAL_Driver/Src/stm32l4xx_hal_opamp.c ****     {
 571:Drivers/STM32L4xx_HAL_Driver/Src/stm32l4xx_hal_opamp.c ****       status = HAL_ERROR;
 527              		.loc 1 571 14
 528 0050 0123     		movs	r3, #1
 529 0052 FB73     		strb	r3, [r7, #15]
 530              	.L25:
 572:Drivers/STM32L4xx_HAL_Driver/Src/stm32l4xx_hal_opamp.c ****     }
 573:Drivers/STM32L4xx_HAL_Driver/Src/stm32l4xx_hal_opamp.c **** 
 574:Drivers/STM32L4xx_HAL_Driver/Src/stm32l4xx_hal_opamp.c ****    }
 575:Drivers/STM32L4xx_HAL_Driver/Src/stm32l4xx_hal_opamp.c ****   return status;
 531              		.loc 1 575 10
 532 0054 FB7B     		ldrb	r3, [r7, #15]	@ zero_extendqisi2
 576:Drivers/STM32L4xx_HAL_Driver/Src/stm32l4xx_hal_opamp.c **** }
 533              		.loc 1 576 1
 534 0056 1846     		mov	r0, r3
 535 0058 1437     		adds	r7, r7, #20
 536              		.cfi_def_cfa_offset 4
 537 005a BD46     		mov	sp, r7
 538              		.cfi_def_cfa_register 13
 539              		@ sp needed
 540 005c 5DF8047B 		ldr	r7, [sp], #4
 541              		.cfi_restore 7
 542              		.cfi_def_cfa_offset 0
 543 0060 7047     		bx	lr
 544              		.cfi_endproc
 545              	.LFE449:
 547              		.section	.text.HAL_OPAMP_Stop,"ax",%progbits
 548              		.align	1
 549              		.global	HAL_OPAMP_Stop
 550              		.syntax unified
 551              		.thumb
 552              		.thumb_func
 554              	HAL_OPAMP_Stop:
 555              	.LFB450:
 577:Drivers/STM32L4xx_HAL_Driver/Src/stm32l4xx_hal_opamp.c **** 
 578:Drivers/STM32L4xx_HAL_Driver/Src/stm32l4xx_hal_opamp.c **** /**
 579:Drivers/STM32L4xx_HAL_Driver/Src/stm32l4xx_hal_opamp.c ****   * @brief  Stop the OPAMP.
 580:Drivers/STM32L4xx_HAL_Driver/Src/stm32l4xx_hal_opamp.c ****   * @param  hopamp OPAMP handle
 581:Drivers/STM32L4xx_HAL_Driver/Src/stm32l4xx_hal_opamp.c ****   * @retval HAL status
 582:Drivers/STM32L4xx_HAL_Driver/Src/stm32l4xx_hal_opamp.c ****   */
 583:Drivers/STM32L4xx_HAL_Driver/Src/stm32l4xx_hal_opamp.c **** HAL_StatusTypeDef HAL_OPAMP_Stop(OPAMP_HandleTypeDef *hopamp)
 584:Drivers/STM32L4xx_HAL_Driver/Src/stm32l4xx_hal_opamp.c **** {
 556              		.loc 1 584 1
 557              		.cfi_startproc
 558              		@ args = 0, pretend = 0, frame = 16
 559              		@ frame_needed = 1, uses_anonymous_args = 0
 560              		@ link register save eliminated.
 561 0000 80B4     		push	{r7}
 562              		.cfi_def_cfa_offset 4
 563              		.cfi_offset 7, -4
 564 0002 85B0     		sub	sp, sp, #20
 565              		.cfi_def_cfa_offset 24
 566 0004 00AF     		add	r7, sp, #0
ARM GAS  /tmp/ccXP8iAY.s 			page 21


 567              		.cfi_def_cfa_register 7
 568 0006 7860     		str	r0, [r7, #4]
 585:Drivers/STM32L4xx_HAL_Driver/Src/stm32l4xx_hal_opamp.c ****   HAL_StatusTypeDef status = HAL_OK;
 569              		.loc 1 585 21
 570 0008 0023     		movs	r3, #0
 571 000a FB73     		strb	r3, [r7, #15]
 586:Drivers/STM32L4xx_HAL_Driver/Src/stm32l4xx_hal_opamp.c **** 
 587:Drivers/STM32L4xx_HAL_Driver/Src/stm32l4xx_hal_opamp.c ****   /* Check the OPAMP handle allocation */
 588:Drivers/STM32L4xx_HAL_Driver/Src/stm32l4xx_hal_opamp.c ****   /* Check if OPAMP locked */
 589:Drivers/STM32L4xx_HAL_Driver/Src/stm32l4xx_hal_opamp.c ****   /* Check if OPAMP calibration ongoing */
 590:Drivers/STM32L4xx_HAL_Driver/Src/stm32l4xx_hal_opamp.c ****   if(hopamp == NULL)
 572              		.loc 1 590 5
 573 000c 7B68     		ldr	r3, [r7, #4]
 574 000e 002B     		cmp	r3, #0
 575 0010 02D1     		bne	.L30
 591:Drivers/STM32L4xx_HAL_Driver/Src/stm32l4xx_hal_opamp.c ****   {
 592:Drivers/STM32L4xx_HAL_Driver/Src/stm32l4xx_hal_opamp.c ****     status = HAL_ERROR;
 576              		.loc 1 592 12
 577 0012 0123     		movs	r3, #1
 578 0014 FB73     		strb	r3, [r7, #15]
 579 0016 26E0     		b	.L31
 580              	.L30:
 593:Drivers/STM32L4xx_HAL_Driver/Src/stm32l4xx_hal_opamp.c ****   }
 594:Drivers/STM32L4xx_HAL_Driver/Src/stm32l4xx_hal_opamp.c ****   else if(hopamp->State == HAL_OPAMP_STATE_BUSYLOCKED)
 581              		.loc 1 594 17
 582 0018 7B68     		ldr	r3, [r7, #4]
 583 001a 93F83230 		ldrb	r3, [r3, #50]
 584 001e DBB2     		uxtb	r3, r3
 585              		.loc 1 594 10
 586 0020 052B     		cmp	r3, #5
 587 0022 02D1     		bne	.L32
 595:Drivers/STM32L4xx_HAL_Driver/Src/stm32l4xx_hal_opamp.c ****   {
 596:Drivers/STM32L4xx_HAL_Driver/Src/stm32l4xx_hal_opamp.c ****     status = HAL_ERROR;
 588              		.loc 1 596 12
 589 0024 0123     		movs	r3, #1
 590 0026 FB73     		strb	r3, [r7, #15]
 591 0028 1DE0     		b	.L31
 592              	.L32:
 597:Drivers/STM32L4xx_HAL_Driver/Src/stm32l4xx_hal_opamp.c ****   }
 598:Drivers/STM32L4xx_HAL_Driver/Src/stm32l4xx_hal_opamp.c ****   else if(hopamp->State == HAL_OPAMP_STATE_CALIBBUSY)
 593              		.loc 1 598 17
 594 002a 7B68     		ldr	r3, [r7, #4]
 595 002c 93F83230 		ldrb	r3, [r3, #50]
 596 0030 DBB2     		uxtb	r3, r3
 597              		.loc 1 598 10
 598 0032 022B     		cmp	r3, #2
 599 0034 02D1     		bne	.L33
 599:Drivers/STM32L4xx_HAL_Driver/Src/stm32l4xx_hal_opamp.c ****   {
 600:Drivers/STM32L4xx_HAL_Driver/Src/stm32l4xx_hal_opamp.c ****     status = HAL_ERROR;
 600              		.loc 1 600 12
 601 0036 0123     		movs	r3, #1
 602 0038 FB73     		strb	r3, [r7, #15]
 603 003a 14E0     		b	.L31
 604              	.L33:
 601:Drivers/STM32L4xx_HAL_Driver/Src/stm32l4xx_hal_opamp.c ****   }
 602:Drivers/STM32L4xx_HAL_Driver/Src/stm32l4xx_hal_opamp.c ****   else
 603:Drivers/STM32L4xx_HAL_Driver/Src/stm32l4xx_hal_opamp.c ****   {
ARM GAS  /tmp/ccXP8iAY.s 			page 22


 604:Drivers/STM32L4xx_HAL_Driver/Src/stm32l4xx_hal_opamp.c ****     /* Check the parameter */
 605:Drivers/STM32L4xx_HAL_Driver/Src/stm32l4xx_hal_opamp.c ****     assert_param(IS_OPAMP_ALL_INSTANCE(hopamp->Instance));
 606:Drivers/STM32L4xx_HAL_Driver/Src/stm32l4xx_hal_opamp.c **** 
 607:Drivers/STM32L4xx_HAL_Driver/Src/stm32l4xx_hal_opamp.c ****     if(hopamp->State == HAL_OPAMP_STATE_BUSY)
 605              		.loc 1 607 14
 606 003c 7B68     		ldr	r3, [r7, #4]
 607 003e 93F83230 		ldrb	r3, [r3, #50]
 608 0042 DBB2     		uxtb	r3, r3
 609              		.loc 1 607 7
 610 0044 042B     		cmp	r3, #4
 611 0046 0CD1     		bne	.L34
 608:Drivers/STM32L4xx_HAL_Driver/Src/stm32l4xx_hal_opamp.c ****     {
 609:Drivers/STM32L4xx_HAL_Driver/Src/stm32l4xx_hal_opamp.c ****       /* Disable the selected opamp */
 610:Drivers/STM32L4xx_HAL_Driver/Src/stm32l4xx_hal_opamp.c ****       CLEAR_BIT (hopamp->Instance->CSR, OPAMP_CSR_OPAMPxEN);
 612              		.loc 1 610 7
 613 0048 7B68     		ldr	r3, [r7, #4]
 614 004a 1B68     		ldr	r3, [r3]
 615 004c 1A68     		ldr	r2, [r3]
 616 004e 7B68     		ldr	r3, [r7, #4]
 617 0050 1B68     		ldr	r3, [r3]
 618 0052 22F00102 		bic	r2, r2, #1
 619 0056 1A60     		str	r2, [r3]
 611:Drivers/STM32L4xx_HAL_Driver/Src/stm32l4xx_hal_opamp.c **** 
 612:Drivers/STM32L4xx_HAL_Driver/Src/stm32l4xx_hal_opamp.c ****       /* Update the OPAMP state*/
 613:Drivers/STM32L4xx_HAL_Driver/Src/stm32l4xx_hal_opamp.c ****       /* From  HAL_OPAMP_STATE_BUSY to HAL_OPAMP_STATE_READY*/
 614:Drivers/STM32L4xx_HAL_Driver/Src/stm32l4xx_hal_opamp.c ****       hopamp->State = HAL_OPAMP_STATE_READY;
 620              		.loc 1 614 21
 621 0058 7B68     		ldr	r3, [r7, #4]
 622 005a 0122     		movs	r2, #1
 623 005c 83F83220 		strb	r2, [r3, #50]
 624 0060 01E0     		b	.L31
 625              	.L34:
 615:Drivers/STM32L4xx_HAL_Driver/Src/stm32l4xx_hal_opamp.c ****     }
 616:Drivers/STM32L4xx_HAL_Driver/Src/stm32l4xx_hal_opamp.c ****     else
 617:Drivers/STM32L4xx_HAL_Driver/Src/stm32l4xx_hal_opamp.c ****     {
 618:Drivers/STM32L4xx_HAL_Driver/Src/stm32l4xx_hal_opamp.c ****       status = HAL_ERROR;
 626              		.loc 1 618 14
 627 0062 0123     		movs	r3, #1
 628 0064 FB73     		strb	r3, [r7, #15]
 629              	.L31:
 619:Drivers/STM32L4xx_HAL_Driver/Src/stm32l4xx_hal_opamp.c ****     }
 620:Drivers/STM32L4xx_HAL_Driver/Src/stm32l4xx_hal_opamp.c ****   }
 621:Drivers/STM32L4xx_HAL_Driver/Src/stm32l4xx_hal_opamp.c ****   return status;
 630              		.loc 1 621 10
 631 0066 FB7B     		ldrb	r3, [r7, #15]	@ zero_extendqisi2
 622:Drivers/STM32L4xx_HAL_Driver/Src/stm32l4xx_hal_opamp.c **** }
 632              		.loc 1 622 1
 633 0068 1846     		mov	r0, r3
 634 006a 1437     		adds	r7, r7, #20
 635              		.cfi_def_cfa_offset 4
 636 006c BD46     		mov	sp, r7
 637              		.cfi_def_cfa_register 13
 638              		@ sp needed
 639 006e 5DF8047B 		ldr	r7, [sp], #4
 640              		.cfi_restore 7
 641              		.cfi_def_cfa_offset 0
 642 0072 7047     		bx	lr
ARM GAS  /tmp/ccXP8iAY.s 			page 23


 643              		.cfi_endproc
 644              	.LFE450:
 646              		.section	.text.HAL_OPAMP_SelfCalibrate,"ax",%progbits
 647              		.align	1
 648              		.global	HAL_OPAMP_SelfCalibrate
 649              		.syntax unified
 650              		.thumb
 651              		.thumb_func
 653              	HAL_OPAMP_SelfCalibrate:
 654              	.LFB451:
 623:Drivers/STM32L4xx_HAL_Driver/Src/stm32l4xx_hal_opamp.c **** 
 624:Drivers/STM32L4xx_HAL_Driver/Src/stm32l4xx_hal_opamp.c **** /**
 625:Drivers/STM32L4xx_HAL_Driver/Src/stm32l4xx_hal_opamp.c ****   * @brief  Run the self calibration of one OPAMP.
 626:Drivers/STM32L4xx_HAL_Driver/Src/stm32l4xx_hal_opamp.c ****   * @note   Calibration is performed in the mode specified in OPAMP init
 627:Drivers/STM32L4xx_HAL_Driver/Src/stm32l4xx_hal_opamp.c ****   *         structure (mode normal or low-power). To perform calibration for
 628:Drivers/STM32L4xx_HAL_Driver/Src/stm32l4xx_hal_opamp.c ****   *         both modes, repeat this function twice after OPAMP init structure
 629:Drivers/STM32L4xx_HAL_Driver/Src/stm32l4xx_hal_opamp.c ****   *         accordingly updated.
 630:Drivers/STM32L4xx_HAL_Driver/Src/stm32l4xx_hal_opamp.c ****   * @note   Calibration runs about 10 ms.
 631:Drivers/STM32L4xx_HAL_Driver/Src/stm32l4xx_hal_opamp.c ****   * @param  hopamp handle
 632:Drivers/STM32L4xx_HAL_Driver/Src/stm32l4xx_hal_opamp.c ****   * @retval Updated offset trimming values (PMOS & NMOS), user trimming is enabled
 633:Drivers/STM32L4xx_HAL_Driver/Src/stm32l4xx_hal_opamp.c ****   * @retval HAL status
 634:Drivers/STM32L4xx_HAL_Driver/Src/stm32l4xx_hal_opamp.c **** 
 635:Drivers/STM32L4xx_HAL_Driver/Src/stm32l4xx_hal_opamp.c ****   */
 636:Drivers/STM32L4xx_HAL_Driver/Src/stm32l4xx_hal_opamp.c **** 
 637:Drivers/STM32L4xx_HAL_Driver/Src/stm32l4xx_hal_opamp.c **** HAL_StatusTypeDef HAL_OPAMP_SelfCalibrate(OPAMP_HandleTypeDef *hopamp)
 638:Drivers/STM32L4xx_HAL_Driver/Src/stm32l4xx_hal_opamp.c **** {
 655              		.loc 1 638 1
 656              		.cfi_startproc
 657              		@ args = 0, pretend = 0, frame = 32
 658              		@ frame_needed = 1, uses_anonymous_args = 0
 659 0000 80B5     		push	{r7, lr}
 660              		.cfi_def_cfa_offset 8
 661              		.cfi_offset 7, -8
 662              		.cfi_offset 14, -4
 663 0002 88B0     		sub	sp, sp, #32
 664              		.cfi_def_cfa_offset 40
 665 0004 00AF     		add	r7, sp, #0
 666              		.cfi_def_cfa_register 7
 667 0006 7860     		str	r0, [r7, #4]
 639:Drivers/STM32L4xx_HAL_Driver/Src/stm32l4xx_hal_opamp.c **** 
 640:Drivers/STM32L4xx_HAL_Driver/Src/stm32l4xx_hal_opamp.c ****   HAL_StatusTypeDef status = HAL_OK;
 668              		.loc 1 640 21
 669 0008 0023     		movs	r3, #0
 670 000a FB77     		strb	r3, [r7, #31]
 641:Drivers/STM32L4xx_HAL_Driver/Src/stm32l4xx_hal_opamp.c **** 
 642:Drivers/STM32L4xx_HAL_Driver/Src/stm32l4xx_hal_opamp.c ****   uint32_t trimmingvaluen;
 643:Drivers/STM32L4xx_HAL_Driver/Src/stm32l4xx_hal_opamp.c ****   uint32_t trimmingvaluep;
 644:Drivers/STM32L4xx_HAL_Driver/Src/stm32l4xx_hal_opamp.c ****   uint32_t delta;
 645:Drivers/STM32L4xx_HAL_Driver/Src/stm32l4xx_hal_opamp.c ****   uint32_t opampmode;
 646:Drivers/STM32L4xx_HAL_Driver/Src/stm32l4xx_hal_opamp.c **** 
 647:Drivers/STM32L4xx_HAL_Driver/Src/stm32l4xx_hal_opamp.c ****   __IO uint32_t* tmp_opamp_reg_trimming;   /* Selection of register of trimming depending on power 
 648:Drivers/STM32L4xx_HAL_Driver/Src/stm32l4xx_hal_opamp.c **** 
 649:Drivers/STM32L4xx_HAL_Driver/Src/stm32l4xx_hal_opamp.c ****   /* Check the OPAMP handle allocation */
 650:Drivers/STM32L4xx_HAL_Driver/Src/stm32l4xx_hal_opamp.c ****   /* Check if OPAMP locked */
 651:Drivers/STM32L4xx_HAL_Driver/Src/stm32l4xx_hal_opamp.c ****   if(hopamp == NULL)
 671              		.loc 1 651 5
 672 000c 7B68     		ldr	r3, [r7, #4]
ARM GAS  /tmp/ccXP8iAY.s 			page 24


 673 000e 002B     		cmp	r3, #0
 674 0010 02D1     		bne	.L37
 652:Drivers/STM32L4xx_HAL_Driver/Src/stm32l4xx_hal_opamp.c ****   {
 653:Drivers/STM32L4xx_HAL_Driver/Src/stm32l4xx_hal_opamp.c ****     status = HAL_ERROR;
 675              		.loc 1 653 12
 676 0012 0123     		movs	r3, #1
 677 0014 FB77     		strb	r3, [r7, #31]
 678 0016 0DE1     		b	.L38
 679              	.L37:
 654:Drivers/STM32L4xx_HAL_Driver/Src/stm32l4xx_hal_opamp.c ****   }
 655:Drivers/STM32L4xx_HAL_Driver/Src/stm32l4xx_hal_opamp.c ****   else if(hopamp->State == HAL_OPAMP_STATE_BUSYLOCKED)
 680              		.loc 1 655 17
 681 0018 7B68     		ldr	r3, [r7, #4]
 682 001a 93F83230 		ldrb	r3, [r3, #50]
 683 001e DBB2     		uxtb	r3, r3
 684              		.loc 1 655 10
 685 0020 052B     		cmp	r3, #5
 686 0022 02D1     		bne	.L39
 656:Drivers/STM32L4xx_HAL_Driver/Src/stm32l4xx_hal_opamp.c ****   {
 657:Drivers/STM32L4xx_HAL_Driver/Src/stm32l4xx_hal_opamp.c ****     status = HAL_ERROR;
 687              		.loc 1 657 12
 688 0024 0123     		movs	r3, #1
 689 0026 FB77     		strb	r3, [r7, #31]
 690 0028 04E1     		b	.L38
 691              	.L39:
 658:Drivers/STM32L4xx_HAL_Driver/Src/stm32l4xx_hal_opamp.c ****   }
 659:Drivers/STM32L4xx_HAL_Driver/Src/stm32l4xx_hal_opamp.c ****   else
 660:Drivers/STM32L4xx_HAL_Driver/Src/stm32l4xx_hal_opamp.c ****   {
 661:Drivers/STM32L4xx_HAL_Driver/Src/stm32l4xx_hal_opamp.c ****     /* Check if OPAMP in calibration mode and calibration not yet enable */
 662:Drivers/STM32L4xx_HAL_Driver/Src/stm32l4xx_hal_opamp.c ****     if(hopamp->State ==  HAL_OPAMP_STATE_READY)
 692              		.loc 1 662 14
 693 002a 7B68     		ldr	r3, [r7, #4]
 694 002c 93F83230 		ldrb	r3, [r3, #50]
 695 0030 DBB2     		uxtb	r3, r3
 696              		.loc 1 662 7
 697 0032 012B     		cmp	r3, #1
 698 0034 40F0FC80 		bne	.L40
 663:Drivers/STM32L4xx_HAL_Driver/Src/stm32l4xx_hal_opamp.c ****     {
 664:Drivers/STM32L4xx_HAL_Driver/Src/stm32l4xx_hal_opamp.c ****       /* Check the parameter */
 665:Drivers/STM32L4xx_HAL_Driver/Src/stm32l4xx_hal_opamp.c ****       assert_param(IS_OPAMP_ALL_INSTANCE(hopamp->Instance));
 666:Drivers/STM32L4xx_HAL_Driver/Src/stm32l4xx_hal_opamp.c ****       assert_param(IS_OPAMP_POWERMODE(hopamp->Init.PowerMode));
 667:Drivers/STM32L4xx_HAL_Driver/Src/stm32l4xx_hal_opamp.c **** 
 668:Drivers/STM32L4xx_HAL_Driver/Src/stm32l4xx_hal_opamp.c ****       /* Save OPAMP mode as in                                       */
 669:Drivers/STM32L4xx_HAL_Driver/Src/stm32l4xx_hal_opamp.c ****       /* STM32L471xx STM32L475xx STM32L476xx STM32L485xx STM32L486xx */
 670:Drivers/STM32L4xx_HAL_Driver/Src/stm32l4xx_hal_opamp.c ****       /* the calibration is not working in PGA mode                  */
 671:Drivers/STM32L4xx_HAL_Driver/Src/stm32l4xx_hal_opamp.c ****       opampmode = READ_BIT(hopamp->Instance->CSR,OPAMP_CSR_OPAMODE);
 699              		.loc 1 671 19
 700 0038 7B68     		ldr	r3, [r7, #4]
 701 003a 1B68     		ldr	r3, [r3]
 702 003c 1B68     		ldr	r3, [r3]
 703              		.loc 1 671 17
 704 003e 03F00C03 		and	r3, r3, #12
 705 0042 BB60     		str	r3, [r7, #8]
 672:Drivers/STM32L4xx_HAL_Driver/Src/stm32l4xx_hal_opamp.c **** 
 673:Drivers/STM32L4xx_HAL_Driver/Src/stm32l4xx_hal_opamp.c ****       /* Use of standalone mode */
 674:Drivers/STM32L4xx_HAL_Driver/Src/stm32l4xx_hal_opamp.c ****       MODIFY_REG(hopamp->Instance->CSR, OPAMP_CSR_OPAMODE, OPAMP_STANDALONE_MODE);
 706              		.loc 1 674 7
ARM GAS  /tmp/ccXP8iAY.s 			page 25


 707 0044 7B68     		ldr	r3, [r7, #4]
 708 0046 1B68     		ldr	r3, [r3]
 709 0048 1A68     		ldr	r2, [r3]
 710 004a 7B68     		ldr	r3, [r7, #4]
 711 004c 1B68     		ldr	r3, [r3]
 712 004e 22F00C02 		bic	r2, r2, #12
 713 0052 1A60     		str	r2, [r3]
 675:Drivers/STM32L4xx_HAL_Driver/Src/stm32l4xx_hal_opamp.c **** 
 676:Drivers/STM32L4xx_HAL_Driver/Src/stm32l4xx_hal_opamp.c ****       /*  user trimming values are used for offset calibration */
 677:Drivers/STM32L4xx_HAL_Driver/Src/stm32l4xx_hal_opamp.c ****       SET_BIT(hopamp->Instance->CSR, OPAMP_CSR_USERTRIM);
 714              		.loc 1 677 7
 715 0054 7B68     		ldr	r3, [r7, #4]
 716 0056 1B68     		ldr	r3, [r3]
 717 0058 1A68     		ldr	r2, [r3]
 718 005a 7B68     		ldr	r3, [r7, #4]
 719 005c 1B68     		ldr	r3, [r3]
 720 005e 42F48042 		orr	r2, r2, #16384
 721 0062 1A60     		str	r2, [r3]
 678:Drivers/STM32L4xx_HAL_Driver/Src/stm32l4xx_hal_opamp.c **** 
 679:Drivers/STM32L4xx_HAL_Driver/Src/stm32l4xx_hal_opamp.c ****       /* Select trimming settings depending on power mode */
 680:Drivers/STM32L4xx_HAL_Driver/Src/stm32l4xx_hal_opamp.c ****       if (hopamp->Init.PowerMode == OPAMP_POWERMODE_NORMALPOWER)
 722              		.loc 1 680 23
 723 0064 7B68     		ldr	r3, [r7, #4]
 724 0066 9B68     		ldr	r3, [r3, #8]
 725              		.loc 1 680 10
 726 0068 002B     		cmp	r3, #0
 727 006a 04D1     		bne	.L41
 681:Drivers/STM32L4xx_HAL_Driver/Src/stm32l4xx_hal_opamp.c ****       {
 682:Drivers/STM32L4xx_HAL_Driver/Src/stm32l4xx_hal_opamp.c ****         tmp_opamp_reg_trimming = &hopamp->Instance->OTR;
 728              		.loc 1 682 41
 729 006c 7B68     		ldr	r3, [r7, #4]
 730 006e 1B68     		ldr	r3, [r3]
 731              		.loc 1 682 32
 732 0070 0433     		adds	r3, r3, #4
 733 0072 FB60     		str	r3, [r7, #12]
 734 0074 03E0     		b	.L42
 735              	.L41:
 683:Drivers/STM32L4xx_HAL_Driver/Src/stm32l4xx_hal_opamp.c ****       }
 684:Drivers/STM32L4xx_HAL_Driver/Src/stm32l4xx_hal_opamp.c ****       else
 685:Drivers/STM32L4xx_HAL_Driver/Src/stm32l4xx_hal_opamp.c ****       {
 686:Drivers/STM32L4xx_HAL_Driver/Src/stm32l4xx_hal_opamp.c ****         tmp_opamp_reg_trimming = &hopamp->Instance->LPOTR;
 736              		.loc 1 686 41
 737 0076 7B68     		ldr	r3, [r7, #4]
 738 0078 1B68     		ldr	r3, [r3]
 739              		.loc 1 686 32
 740 007a 0833     		adds	r3, r3, #8
 741 007c FB60     		str	r3, [r7, #12]
 742              	.L42:
 687:Drivers/STM32L4xx_HAL_Driver/Src/stm32l4xx_hal_opamp.c ****       }
 688:Drivers/STM32L4xx_HAL_Driver/Src/stm32l4xx_hal_opamp.c **** 
 689:Drivers/STM32L4xx_HAL_Driver/Src/stm32l4xx_hal_opamp.c ****       /* Enable calibration */
 690:Drivers/STM32L4xx_HAL_Driver/Src/stm32l4xx_hal_opamp.c ****       SET_BIT (hopamp->Instance->CSR, OPAMP_CSR_CALON);
 743              		.loc 1 690 7
 744 007e 7B68     		ldr	r3, [r7, #4]
 745 0080 1B68     		ldr	r3, [r3]
 746 0082 1A68     		ldr	r2, [r3]
 747 0084 7B68     		ldr	r3, [r7, #4]
ARM GAS  /tmp/ccXP8iAY.s 			page 26


 748 0086 1B68     		ldr	r3, [r3]
 749 0088 42F48052 		orr	r2, r2, #4096
 750 008c 1A60     		str	r2, [r3]
 691:Drivers/STM32L4xx_HAL_Driver/Src/stm32l4xx_hal_opamp.c **** 
 692:Drivers/STM32L4xx_HAL_Driver/Src/stm32l4xx_hal_opamp.c ****       /* 1st calibration - N */
 693:Drivers/STM32L4xx_HAL_Driver/Src/stm32l4xx_hal_opamp.c ****       CLEAR_BIT (hopamp->Instance->CSR, OPAMP_CSR_CALSEL);
 751              		.loc 1 693 7
 752 008e 7B68     		ldr	r3, [r7, #4]
 753 0090 1B68     		ldr	r3, [r3]
 754 0092 1A68     		ldr	r2, [r3]
 755 0094 7B68     		ldr	r3, [r7, #4]
 756 0096 1B68     		ldr	r3, [r3]
 757 0098 22F40052 		bic	r2, r2, #8192
 758 009c 1A60     		str	r2, [r3]
 694:Drivers/STM32L4xx_HAL_Driver/Src/stm32l4xx_hal_opamp.c **** 
 695:Drivers/STM32L4xx_HAL_Driver/Src/stm32l4xx_hal_opamp.c ****       /* Enable the selected opamp */
 696:Drivers/STM32L4xx_HAL_Driver/Src/stm32l4xx_hal_opamp.c ****       SET_BIT (hopamp->Instance->CSR, OPAMP_CSR_OPAMPxEN);
 759              		.loc 1 696 7
 760 009e 7B68     		ldr	r3, [r7, #4]
 761 00a0 1B68     		ldr	r3, [r3]
 762 00a2 1A68     		ldr	r2, [r3]
 763 00a4 7B68     		ldr	r3, [r7, #4]
 764 00a6 1B68     		ldr	r3, [r3]
 765 00a8 42F00102 		orr	r2, r2, #1
 766 00ac 1A60     		str	r2, [r3]
 697:Drivers/STM32L4xx_HAL_Driver/Src/stm32l4xx_hal_opamp.c **** 
 698:Drivers/STM32L4xx_HAL_Driver/Src/stm32l4xx_hal_opamp.c ****       /* Init trimming counter */
 699:Drivers/STM32L4xx_HAL_Driver/Src/stm32l4xx_hal_opamp.c ****       /* Medium value */
 700:Drivers/STM32L4xx_HAL_Driver/Src/stm32l4xx_hal_opamp.c ****       trimmingvaluen = 16U;
 767              		.loc 1 700 22
 768 00ae 1023     		movs	r3, #16
 769 00b0 BB61     		str	r3, [r7, #24]
 701:Drivers/STM32L4xx_HAL_Driver/Src/stm32l4xx_hal_opamp.c ****       delta = 8U;
 770              		.loc 1 701 13
 771 00b2 0823     		movs	r3, #8
 772 00b4 3B61     		str	r3, [r7, #16]
 702:Drivers/STM32L4xx_HAL_Driver/Src/stm32l4xx_hal_opamp.c **** 
 703:Drivers/STM32L4xx_HAL_Driver/Src/stm32l4xx_hal_opamp.c ****       while (delta != 0U)
 773              		.loc 1 703 13
 774 00b6 1DE0     		b	.L43
 775              	.L46:
 704:Drivers/STM32L4xx_HAL_Driver/Src/stm32l4xx_hal_opamp.c ****       {
 705:Drivers/STM32L4xx_HAL_Driver/Src/stm32l4xx_hal_opamp.c ****         /* Set candidate trimming */
 706:Drivers/STM32L4xx_HAL_Driver/Src/stm32l4xx_hal_opamp.c ****         /* OPAMP_POWERMODE_NORMALPOWER */
 707:Drivers/STM32L4xx_HAL_Driver/Src/stm32l4xx_hal_opamp.c ****         MODIFY_REG(*tmp_opamp_reg_trimming, OPAMP_OTR_TRIMOFFSETN, trimmingvaluen);
 776              		.loc 1 707 9
 777 00b8 FB68     		ldr	r3, [r7, #12]
 778 00ba 1B68     		ldr	r3, [r3]
 779 00bc 23F01F02 		bic	r2, r3, #31
 780 00c0 BB69     		ldr	r3, [r7, #24]
 781 00c2 1A43     		orrs	r2, r2, r3
 782 00c4 FB68     		ldr	r3, [r7, #12]
 783 00c6 1A60     		str	r2, [r3]
 708:Drivers/STM32L4xx_HAL_Driver/Src/stm32l4xx_hal_opamp.c **** 
 709:Drivers/STM32L4xx_HAL_Driver/Src/stm32l4xx_hal_opamp.c ****         /* OFFTRIMmax delay 1 ms as per datasheet (electrical characteristics */
 710:Drivers/STM32L4xx_HAL_Driver/Src/stm32l4xx_hal_opamp.c ****         /* Offset trim time: during calibration, minimum time needed between */
 711:Drivers/STM32L4xx_HAL_Driver/Src/stm32l4xx_hal_opamp.c ****         /* two steps to have 1 mV accuracy */
ARM GAS  /tmp/ccXP8iAY.s 			page 27


 712:Drivers/STM32L4xx_HAL_Driver/Src/stm32l4xx_hal_opamp.c ****         HAL_Delay(OPAMP_TRIMMING_DELAY);
 784              		.loc 1 712 9
 785 00c8 0120     		movs	r0, #1
 786 00ca FFF7FEFF 		bl	HAL_Delay
 713:Drivers/STM32L4xx_HAL_Driver/Src/stm32l4xx_hal_opamp.c **** 
 714:Drivers/STM32L4xx_HAL_Driver/Src/stm32l4xx_hal_opamp.c ****         if (READ_BIT(hopamp->Instance->CSR, OPAMP_CSR_CALOUT) != 0U)
 787              		.loc 1 714 13
 788 00ce 7B68     		ldr	r3, [r7, #4]
 789 00d0 1B68     		ldr	r3, [r3]
 790 00d2 1B68     		ldr	r3, [r3]
 791 00d4 03F40043 		and	r3, r3, #32768
 792              		.loc 1 714 12
 793 00d8 002B     		cmp	r3, #0
 794 00da 04D0     		beq	.L44
 715:Drivers/STM32L4xx_HAL_Driver/Src/stm32l4xx_hal_opamp.c ****         {
 716:Drivers/STM32L4xx_HAL_Driver/Src/stm32l4xx_hal_opamp.c ****           /* OPAMP_CSR_CALOUT is HIGH try higher trimming */
 717:Drivers/STM32L4xx_HAL_Driver/Src/stm32l4xx_hal_opamp.c ****           trimmingvaluen -= delta;
 795              		.loc 1 717 26
 796 00dc BA69     		ldr	r2, [r7, #24]
 797 00de 3B69     		ldr	r3, [r7, #16]
 798 00e0 D31A     		subs	r3, r2, r3
 799 00e2 BB61     		str	r3, [r7, #24]
 800 00e4 03E0     		b	.L45
 801              	.L44:
 718:Drivers/STM32L4xx_HAL_Driver/Src/stm32l4xx_hal_opamp.c ****         }
 719:Drivers/STM32L4xx_HAL_Driver/Src/stm32l4xx_hal_opamp.c ****         else
 720:Drivers/STM32L4xx_HAL_Driver/Src/stm32l4xx_hal_opamp.c ****         {
 721:Drivers/STM32L4xx_HAL_Driver/Src/stm32l4xx_hal_opamp.c ****           /* OPAMP_CSR_CALOUT is LOW try lower trimming */
 722:Drivers/STM32L4xx_HAL_Driver/Src/stm32l4xx_hal_opamp.c ****           trimmingvaluen += delta;
 802              		.loc 1 722 26
 803 00e6 BA69     		ldr	r2, [r7, #24]
 804 00e8 3B69     		ldr	r3, [r7, #16]
 805 00ea 1344     		add	r3, r3, r2
 806 00ec BB61     		str	r3, [r7, #24]
 807              	.L45:
 723:Drivers/STM32L4xx_HAL_Driver/Src/stm32l4xx_hal_opamp.c ****         }
 724:Drivers/STM32L4xx_HAL_Driver/Src/stm32l4xx_hal_opamp.c ****         /* Divide range by 2 to continue dichotomy sweep */
 725:Drivers/STM32L4xx_HAL_Driver/Src/stm32l4xx_hal_opamp.c ****         delta >>= 1U;
 808              		.loc 1 725 15
 809 00ee 3B69     		ldr	r3, [r7, #16]
 810 00f0 5B08     		lsrs	r3, r3, #1
 811 00f2 3B61     		str	r3, [r7, #16]
 812              	.L43:
 703:Drivers/STM32L4xx_HAL_Driver/Src/stm32l4xx_hal_opamp.c ****       {
 813              		.loc 1 703 20
 814 00f4 3B69     		ldr	r3, [r7, #16]
 815 00f6 002B     		cmp	r3, #0
 816 00f8 DED1     		bne	.L46
 726:Drivers/STM32L4xx_HAL_Driver/Src/stm32l4xx_hal_opamp.c ****       }
 727:Drivers/STM32L4xx_HAL_Driver/Src/stm32l4xx_hal_opamp.c **** 
 728:Drivers/STM32L4xx_HAL_Driver/Src/stm32l4xx_hal_opamp.c ****       /* Still need to check if right calibration is current value or one step below */
 729:Drivers/STM32L4xx_HAL_Driver/Src/stm32l4xx_hal_opamp.c ****       /* Indeed the first value that causes the OUTCAL bit to change from 0 to 1  */
 730:Drivers/STM32L4xx_HAL_Driver/Src/stm32l4xx_hal_opamp.c ****       /* Set candidate trimming */
 731:Drivers/STM32L4xx_HAL_Driver/Src/stm32l4xx_hal_opamp.c ****       MODIFY_REG(*tmp_opamp_reg_trimming, OPAMP_OTR_TRIMOFFSETN, trimmingvaluen);
 817              		.loc 1 731 7
 818 00fa FB68     		ldr	r3, [r7, #12]
 819 00fc 1B68     		ldr	r3, [r3]
ARM GAS  /tmp/ccXP8iAY.s 			page 28


 820 00fe 23F01F02 		bic	r2, r3, #31
 821 0102 BB69     		ldr	r3, [r7, #24]
 822 0104 1A43     		orrs	r2, r2, r3
 823 0106 FB68     		ldr	r3, [r7, #12]
 824 0108 1A60     		str	r2, [r3]
 732:Drivers/STM32L4xx_HAL_Driver/Src/stm32l4xx_hal_opamp.c **** 
 733:Drivers/STM32L4xx_HAL_Driver/Src/stm32l4xx_hal_opamp.c ****       /* OFFTRIMmax delay 1 ms as per datasheet (electrical characteristics */
 734:Drivers/STM32L4xx_HAL_Driver/Src/stm32l4xx_hal_opamp.c ****       /* Offset trim time: during calibration, minimum time needed between */
 735:Drivers/STM32L4xx_HAL_Driver/Src/stm32l4xx_hal_opamp.c ****       /* two steps to have 1 mV accuracy */
 736:Drivers/STM32L4xx_HAL_Driver/Src/stm32l4xx_hal_opamp.c ****       HAL_Delay(OPAMP_TRIMMING_DELAY);
 825              		.loc 1 736 7
 826 010a 0120     		movs	r0, #1
 827 010c FFF7FEFF 		bl	HAL_Delay
 737:Drivers/STM32L4xx_HAL_Driver/Src/stm32l4xx_hal_opamp.c **** 
 738:Drivers/STM32L4xx_HAL_Driver/Src/stm32l4xx_hal_opamp.c ****       if ((READ_BIT(hopamp->Instance->CSR, OPAMP_CSR_CALOUT)) == 0U)
 828              		.loc 1 738 12
 829 0110 7B68     		ldr	r3, [r7, #4]
 830 0112 1B68     		ldr	r3, [r3]
 831 0114 1B68     		ldr	r3, [r3]
 832 0116 03F40043 		and	r3, r3, #32768
 833              		.loc 1 738 10
 834 011a 002B     		cmp	r3, #0
 835 011c 0AD1     		bne	.L47
 739:Drivers/STM32L4xx_HAL_Driver/Src/stm32l4xx_hal_opamp.c ****       {
 740:Drivers/STM32L4xx_HAL_Driver/Src/stm32l4xx_hal_opamp.c ****         /* Trimming value is actually one value more */
 741:Drivers/STM32L4xx_HAL_Driver/Src/stm32l4xx_hal_opamp.c ****         trimmingvaluen++;
 836              		.loc 1 741 23
 837 011e BB69     		ldr	r3, [r7, #24]
 838 0120 0133     		adds	r3, r3, #1
 839 0122 BB61     		str	r3, [r7, #24]
 742:Drivers/STM32L4xx_HAL_Driver/Src/stm32l4xx_hal_opamp.c ****         /* Set right trimming */
 743:Drivers/STM32L4xx_HAL_Driver/Src/stm32l4xx_hal_opamp.c ****         MODIFY_REG(*tmp_opamp_reg_trimming, OPAMP_OTR_TRIMOFFSETN, trimmingvaluen);
 840              		.loc 1 743 9
 841 0124 FB68     		ldr	r3, [r7, #12]
 842 0126 1B68     		ldr	r3, [r3]
 843 0128 23F01F02 		bic	r2, r3, #31
 844 012c BB69     		ldr	r3, [r7, #24]
 845 012e 1A43     		orrs	r2, r2, r3
 846 0130 FB68     		ldr	r3, [r7, #12]
 847 0132 1A60     		str	r2, [r3]
 848              	.L47:
 744:Drivers/STM32L4xx_HAL_Driver/Src/stm32l4xx_hal_opamp.c ****       }
 745:Drivers/STM32L4xx_HAL_Driver/Src/stm32l4xx_hal_opamp.c **** 
 746:Drivers/STM32L4xx_HAL_Driver/Src/stm32l4xx_hal_opamp.c ****       /* 2nd calibration - P */
 747:Drivers/STM32L4xx_HAL_Driver/Src/stm32l4xx_hal_opamp.c ****       SET_BIT (hopamp->Instance->CSR, OPAMP_CSR_CALSEL);
 849              		.loc 1 747 7
 850 0134 7B68     		ldr	r3, [r7, #4]
 851 0136 1B68     		ldr	r3, [r3]
 852 0138 1A68     		ldr	r2, [r3]
 853 013a 7B68     		ldr	r3, [r7, #4]
 854 013c 1B68     		ldr	r3, [r3]
 855 013e 42F40052 		orr	r2, r2, #8192
 856 0142 1A60     		str	r2, [r3]
 748:Drivers/STM32L4xx_HAL_Driver/Src/stm32l4xx_hal_opamp.c **** 
 749:Drivers/STM32L4xx_HAL_Driver/Src/stm32l4xx_hal_opamp.c ****       /* Init trimming counter */
 750:Drivers/STM32L4xx_HAL_Driver/Src/stm32l4xx_hal_opamp.c ****       /* Medium value */
 751:Drivers/STM32L4xx_HAL_Driver/Src/stm32l4xx_hal_opamp.c ****       trimmingvaluep = 16U;
ARM GAS  /tmp/ccXP8iAY.s 			page 29


 857              		.loc 1 751 22
 858 0144 1023     		movs	r3, #16
 859 0146 7B61     		str	r3, [r7, #20]
 752:Drivers/STM32L4xx_HAL_Driver/Src/stm32l4xx_hal_opamp.c ****       delta = 8U;
 860              		.loc 1 752 13
 861 0148 0823     		movs	r3, #8
 862 014a 3B61     		str	r3, [r7, #16]
 753:Drivers/STM32L4xx_HAL_Driver/Src/stm32l4xx_hal_opamp.c **** 
 754:Drivers/STM32L4xx_HAL_Driver/Src/stm32l4xx_hal_opamp.c ****       while (delta != 0U)
 863              		.loc 1 754 13
 864 014c 1EE0     		b	.L48
 865              	.L51:
 755:Drivers/STM32L4xx_HAL_Driver/Src/stm32l4xx_hal_opamp.c ****       {
 756:Drivers/STM32L4xx_HAL_Driver/Src/stm32l4xx_hal_opamp.c ****         /* Set candidate trimming */
 757:Drivers/STM32L4xx_HAL_Driver/Src/stm32l4xx_hal_opamp.c ****         /* OPAMP_POWERMODE_NORMALPOWER */
 758:Drivers/STM32L4xx_HAL_Driver/Src/stm32l4xx_hal_opamp.c ****         MODIFY_REG(*tmp_opamp_reg_trimming, OPAMP_OTR_TRIMOFFSETP, (trimmingvaluep<<OPAMP_INPUT_NON
 866              		.loc 1 758 9
 867 014e FB68     		ldr	r3, [r7, #12]
 868 0150 1B68     		ldr	r3, [r3]
 869 0152 23F4F852 		bic	r2, r3, #7936
 870 0156 7B69     		ldr	r3, [r7, #20]
 871 0158 1B02     		lsls	r3, r3, #8
 872 015a 1A43     		orrs	r2, r2, r3
 873 015c FB68     		ldr	r3, [r7, #12]
 874 015e 1A60     		str	r2, [r3]
 759:Drivers/STM32L4xx_HAL_Driver/Src/stm32l4xx_hal_opamp.c **** 
 760:Drivers/STM32L4xx_HAL_Driver/Src/stm32l4xx_hal_opamp.c ****         /* OFFTRIMmax delay 1 ms as per datasheet (electrical characteristics */
 761:Drivers/STM32L4xx_HAL_Driver/Src/stm32l4xx_hal_opamp.c ****         /* Offset trim time: during calibration, minimum time needed between */
 762:Drivers/STM32L4xx_HAL_Driver/Src/stm32l4xx_hal_opamp.c ****         /* two steps to have 1 mV accuracy */
 763:Drivers/STM32L4xx_HAL_Driver/Src/stm32l4xx_hal_opamp.c ****         HAL_Delay(OPAMP_TRIMMING_DELAY);
 875              		.loc 1 763 9
 876 0160 0120     		movs	r0, #1
 877 0162 FFF7FEFF 		bl	HAL_Delay
 764:Drivers/STM32L4xx_HAL_Driver/Src/stm32l4xx_hal_opamp.c **** 
 765:Drivers/STM32L4xx_HAL_Driver/Src/stm32l4xx_hal_opamp.c ****         if (READ_BIT(hopamp->Instance->CSR, OPAMP_CSR_CALOUT) != 0U)
 878              		.loc 1 765 13
 879 0166 7B68     		ldr	r3, [r7, #4]
 880 0168 1B68     		ldr	r3, [r3]
 881 016a 1B68     		ldr	r3, [r3]
 882 016c 03F40043 		and	r3, r3, #32768
 883              		.loc 1 765 12
 884 0170 002B     		cmp	r3, #0
 885 0172 04D0     		beq	.L49
 766:Drivers/STM32L4xx_HAL_Driver/Src/stm32l4xx_hal_opamp.c ****         {
 767:Drivers/STM32L4xx_HAL_Driver/Src/stm32l4xx_hal_opamp.c ****           /* OPAMP_CSR_CALOUT is HIGH try higher trimming */
 768:Drivers/STM32L4xx_HAL_Driver/Src/stm32l4xx_hal_opamp.c ****           trimmingvaluep += delta;
 886              		.loc 1 768 26
 887 0174 7A69     		ldr	r2, [r7, #20]
 888 0176 3B69     		ldr	r3, [r7, #16]
 889 0178 1344     		add	r3, r3, r2
 890 017a 7B61     		str	r3, [r7, #20]
 891 017c 03E0     		b	.L50
 892              	.L49:
 769:Drivers/STM32L4xx_HAL_Driver/Src/stm32l4xx_hal_opamp.c ****         }
 770:Drivers/STM32L4xx_HAL_Driver/Src/stm32l4xx_hal_opamp.c ****         else
 771:Drivers/STM32L4xx_HAL_Driver/Src/stm32l4xx_hal_opamp.c ****         {
 772:Drivers/STM32L4xx_HAL_Driver/Src/stm32l4xx_hal_opamp.c ****           /* OPAMP_CSR_CALOUT  is LOW try lower trimming */
ARM GAS  /tmp/ccXP8iAY.s 			page 30


 773:Drivers/STM32L4xx_HAL_Driver/Src/stm32l4xx_hal_opamp.c ****           trimmingvaluep -= delta;
 893              		.loc 1 773 26
 894 017e 7A69     		ldr	r2, [r7, #20]
 895 0180 3B69     		ldr	r3, [r7, #16]
 896 0182 D31A     		subs	r3, r2, r3
 897 0184 7B61     		str	r3, [r7, #20]
 898              	.L50:
 774:Drivers/STM32L4xx_HAL_Driver/Src/stm32l4xx_hal_opamp.c ****         }
 775:Drivers/STM32L4xx_HAL_Driver/Src/stm32l4xx_hal_opamp.c **** 
 776:Drivers/STM32L4xx_HAL_Driver/Src/stm32l4xx_hal_opamp.c ****         /* Divide range by 2 to continue dichotomy sweep */
 777:Drivers/STM32L4xx_HAL_Driver/Src/stm32l4xx_hal_opamp.c ****         delta >>= 1U;
 899              		.loc 1 777 15
 900 0186 3B69     		ldr	r3, [r7, #16]
 901 0188 5B08     		lsrs	r3, r3, #1
 902 018a 3B61     		str	r3, [r7, #16]
 903              	.L48:
 754:Drivers/STM32L4xx_HAL_Driver/Src/stm32l4xx_hal_opamp.c ****       {
 904              		.loc 1 754 20
 905 018c 3B69     		ldr	r3, [r7, #16]
 906 018e 002B     		cmp	r3, #0
 907 0190 DDD1     		bne	.L51
 778:Drivers/STM32L4xx_HAL_Driver/Src/stm32l4xx_hal_opamp.c ****       }
 779:Drivers/STM32L4xx_HAL_Driver/Src/stm32l4xx_hal_opamp.c **** 
 780:Drivers/STM32L4xx_HAL_Driver/Src/stm32l4xx_hal_opamp.c ****       /* Still need to check if right calibration is current value or one step below */
 781:Drivers/STM32L4xx_HAL_Driver/Src/stm32l4xx_hal_opamp.c ****       /* Indeed the first value that causes the OUTCAL bit to change from 1 to 0  */
 782:Drivers/STM32L4xx_HAL_Driver/Src/stm32l4xx_hal_opamp.c ****       /* Set candidate trimming */
 783:Drivers/STM32L4xx_HAL_Driver/Src/stm32l4xx_hal_opamp.c ****       MODIFY_REG(*tmp_opamp_reg_trimming, OPAMP_OTR_TRIMOFFSETP, (trimmingvaluep<<OPAMP_INPUT_NONIN
 908              		.loc 1 783 7
 909 0192 FB68     		ldr	r3, [r7, #12]
 910 0194 1B68     		ldr	r3, [r3]
 911 0196 23F4F852 		bic	r2, r3, #7936
 912 019a 7B69     		ldr	r3, [r7, #20]
 913 019c 1B02     		lsls	r3, r3, #8
 914 019e 1A43     		orrs	r2, r2, r3
 915 01a0 FB68     		ldr	r3, [r7, #12]
 916 01a2 1A60     		str	r2, [r3]
 784:Drivers/STM32L4xx_HAL_Driver/Src/stm32l4xx_hal_opamp.c **** 
 785:Drivers/STM32L4xx_HAL_Driver/Src/stm32l4xx_hal_opamp.c ****       /* OFFTRIMmax delay 1 ms as per datasheet (electrical characteristics */
 786:Drivers/STM32L4xx_HAL_Driver/Src/stm32l4xx_hal_opamp.c ****       /* Offset trim time: during calibration, minimum time needed between */
 787:Drivers/STM32L4xx_HAL_Driver/Src/stm32l4xx_hal_opamp.c ****       /* two steps to have 1 mV accuracy */
 788:Drivers/STM32L4xx_HAL_Driver/Src/stm32l4xx_hal_opamp.c ****       HAL_Delay(OPAMP_TRIMMING_DELAY);
 917              		.loc 1 788 7
 918 01a4 0120     		movs	r0, #1
 919 01a6 FFF7FEFF 		bl	HAL_Delay
 789:Drivers/STM32L4xx_HAL_Driver/Src/stm32l4xx_hal_opamp.c **** 
 790:Drivers/STM32L4xx_HAL_Driver/Src/stm32l4xx_hal_opamp.c ****       if (READ_BIT(hopamp->Instance->CSR, OPAMP_CSR_CALOUT) != 0U)
 920              		.loc 1 790 11
 921 01aa 7B68     		ldr	r3, [r7, #4]
 922 01ac 1B68     		ldr	r3, [r3]
 923 01ae 1B68     		ldr	r3, [r3]
 924 01b0 03F40043 		and	r3, r3, #32768
 925              		.loc 1 790 10
 926 01b4 002B     		cmp	r3, #0
 927 01b6 0BD0     		beq	.L52
 791:Drivers/STM32L4xx_HAL_Driver/Src/stm32l4xx_hal_opamp.c ****       {
 792:Drivers/STM32L4xx_HAL_Driver/Src/stm32l4xx_hal_opamp.c ****         /* Trimming value is actually one value more */
 793:Drivers/STM32L4xx_HAL_Driver/Src/stm32l4xx_hal_opamp.c ****         trimmingvaluep++;
ARM GAS  /tmp/ccXP8iAY.s 			page 31


 928              		.loc 1 793 23
 929 01b8 7B69     		ldr	r3, [r7, #20]
 930 01ba 0133     		adds	r3, r3, #1
 931 01bc 7B61     		str	r3, [r7, #20]
 794:Drivers/STM32L4xx_HAL_Driver/Src/stm32l4xx_hal_opamp.c ****         MODIFY_REG(*tmp_opamp_reg_trimming, OPAMP_OTR_TRIMOFFSETP, (trimmingvaluep<<OPAMP_INPUT_NON
 932              		.loc 1 794 9
 933 01be FB68     		ldr	r3, [r7, #12]
 934 01c0 1B68     		ldr	r3, [r3]
 935 01c2 23F4F852 		bic	r2, r3, #7936
 936 01c6 7B69     		ldr	r3, [r7, #20]
 937 01c8 1B02     		lsls	r3, r3, #8
 938 01ca 1A43     		orrs	r2, r2, r3
 939 01cc FB68     		ldr	r3, [r7, #12]
 940 01ce 1A60     		str	r2, [r3]
 941              	.L52:
 795:Drivers/STM32L4xx_HAL_Driver/Src/stm32l4xx_hal_opamp.c ****       }
 796:Drivers/STM32L4xx_HAL_Driver/Src/stm32l4xx_hal_opamp.c **** 
 797:Drivers/STM32L4xx_HAL_Driver/Src/stm32l4xx_hal_opamp.c ****       /* Disable the OPAMP */
 798:Drivers/STM32L4xx_HAL_Driver/Src/stm32l4xx_hal_opamp.c ****       CLEAR_BIT (hopamp->Instance->CSR, OPAMP_CSR_OPAMPxEN);
 942              		.loc 1 798 7
 943 01d0 7B68     		ldr	r3, [r7, #4]
 944 01d2 1B68     		ldr	r3, [r3]
 945 01d4 1A68     		ldr	r2, [r3]
 946 01d6 7B68     		ldr	r3, [r7, #4]
 947 01d8 1B68     		ldr	r3, [r3]
 948 01da 22F00102 		bic	r2, r2, #1
 949 01de 1A60     		str	r2, [r3]
 799:Drivers/STM32L4xx_HAL_Driver/Src/stm32l4xx_hal_opamp.c **** 
 800:Drivers/STM32L4xx_HAL_Driver/Src/stm32l4xx_hal_opamp.c ****       /* Disable calibration & set normal mode (operating mode) */
 801:Drivers/STM32L4xx_HAL_Driver/Src/stm32l4xx_hal_opamp.c ****       CLEAR_BIT (hopamp->Instance->CSR, OPAMP_CSR_CALON);
 950              		.loc 1 801 7
 951 01e0 7B68     		ldr	r3, [r7, #4]
 952 01e2 1B68     		ldr	r3, [r3]
 953 01e4 1A68     		ldr	r2, [r3]
 954 01e6 7B68     		ldr	r3, [r7, #4]
 955 01e8 1B68     		ldr	r3, [r3]
 956 01ea 22F48052 		bic	r2, r2, #4096
 957 01ee 1A60     		str	r2, [r3]
 802:Drivers/STM32L4xx_HAL_Driver/Src/stm32l4xx_hal_opamp.c **** 
 803:Drivers/STM32L4xx_HAL_Driver/Src/stm32l4xx_hal_opamp.c ****       /* Self calibration is successful  */
 804:Drivers/STM32L4xx_HAL_Driver/Src/stm32l4xx_hal_opamp.c ****       /* Store calibration(user trimming) results in init structure. */
 805:Drivers/STM32L4xx_HAL_Driver/Src/stm32l4xx_hal_opamp.c **** 
 806:Drivers/STM32L4xx_HAL_Driver/Src/stm32l4xx_hal_opamp.c ****       /* Set user trimming mode */
 807:Drivers/STM32L4xx_HAL_Driver/Src/stm32l4xx_hal_opamp.c ****       hopamp->Init.UserTrimming = OPAMP_TRIMMING_USER;
 958              		.loc 1 807 33
 959 01f0 7B68     		ldr	r3, [r7, #4]
 960 01f2 4FF48042 		mov	r2, #16384
 961 01f6 DA61     		str	r2, [r3, #28]
 808:Drivers/STM32L4xx_HAL_Driver/Src/stm32l4xx_hal_opamp.c **** 
 809:Drivers/STM32L4xx_HAL_Driver/Src/stm32l4xx_hal_opamp.c ****       /* Affect calibration parameters depending on mode normal/low power */
 810:Drivers/STM32L4xx_HAL_Driver/Src/stm32l4xx_hal_opamp.c ****       if (hopamp->Init.PowerMode != OPAMP_POWERMODE_LOWPOWER)
 962              		.loc 1 810 23
 963 01f8 7B68     		ldr	r3, [r7, #4]
 964 01fa 9B68     		ldr	r3, [r3, #8]
 965              		.loc 1 810 10
 966 01fc 022B     		cmp	r3, #2
 967 01fe 06D0     		beq	.L53
ARM GAS  /tmp/ccXP8iAY.s 			page 32


 811:Drivers/STM32L4xx_HAL_Driver/Src/stm32l4xx_hal_opamp.c ****       {
 812:Drivers/STM32L4xx_HAL_Driver/Src/stm32l4xx_hal_opamp.c ****         /* Write calibration result N */
 813:Drivers/STM32L4xx_HAL_Driver/Src/stm32l4xx_hal_opamp.c ****         hopamp->Init.TrimmingValueN = trimmingvaluen;
 968              		.loc 1 813 37
 969 0200 7B68     		ldr	r3, [r7, #4]
 970 0202 BA69     		ldr	r2, [r7, #24]
 971 0204 5A62     		str	r2, [r3, #36]
 814:Drivers/STM32L4xx_HAL_Driver/Src/stm32l4xx_hal_opamp.c ****         /* Write calibration result P */
 815:Drivers/STM32L4xx_HAL_Driver/Src/stm32l4xx_hal_opamp.c ****         hopamp->Init.TrimmingValueP = trimmingvaluep;
 972              		.loc 1 815 37
 973 0206 7B68     		ldr	r3, [r7, #4]
 974 0208 7A69     		ldr	r2, [r7, #20]
 975 020a 1A62     		str	r2, [r3, #32]
 976 020c 05E0     		b	.L54
 977              	.L53:
 816:Drivers/STM32L4xx_HAL_Driver/Src/stm32l4xx_hal_opamp.c ****       }
 817:Drivers/STM32L4xx_HAL_Driver/Src/stm32l4xx_hal_opamp.c ****       else
 818:Drivers/STM32L4xx_HAL_Driver/Src/stm32l4xx_hal_opamp.c ****       {
 819:Drivers/STM32L4xx_HAL_Driver/Src/stm32l4xx_hal_opamp.c ****         /* Write calibration result N */
 820:Drivers/STM32L4xx_HAL_Driver/Src/stm32l4xx_hal_opamp.c ****         hopamp->Init.TrimmingValueNLowPower = trimmingvaluen;
 978              		.loc 1 820 45
 979 020e 7B68     		ldr	r3, [r7, #4]
 980 0210 BA69     		ldr	r2, [r7, #24]
 981 0212 DA62     		str	r2, [r3, #44]
 821:Drivers/STM32L4xx_HAL_Driver/Src/stm32l4xx_hal_opamp.c ****         /* Write calibration result P */
 822:Drivers/STM32L4xx_HAL_Driver/Src/stm32l4xx_hal_opamp.c ****         hopamp->Init.TrimmingValuePLowPower = trimmingvaluep;
 982              		.loc 1 822 45
 983 0214 7B68     		ldr	r3, [r7, #4]
 984 0216 7A69     		ldr	r2, [r7, #20]
 985 0218 9A62     		str	r2, [r3, #40]
 986              	.L54:
 823:Drivers/STM32L4xx_HAL_Driver/Src/stm32l4xx_hal_opamp.c ****       }
 824:Drivers/STM32L4xx_HAL_Driver/Src/stm32l4xx_hal_opamp.c **** 
 825:Drivers/STM32L4xx_HAL_Driver/Src/stm32l4xx_hal_opamp.c ****     /* Restore OPAMP mode after calibration */
 826:Drivers/STM32L4xx_HAL_Driver/Src/stm32l4xx_hal_opamp.c ****     MODIFY_REG(hopamp->Instance->CSR, OPAMP_CSR_OPAMODE, opampmode);
 987              		.loc 1 826 5
 988 021a 7B68     		ldr	r3, [r7, #4]
 989 021c 1B68     		ldr	r3, [r3]
 990 021e 1B68     		ldr	r3, [r3]
 991 0220 23F00C01 		bic	r1, r3, #12
 992 0224 7B68     		ldr	r3, [r7, #4]
 993 0226 1B68     		ldr	r3, [r3]
 994 0228 BA68     		ldr	r2, [r7, #8]
 995 022a 0A43     		orrs	r2, r2, r1
 996 022c 1A60     		str	r2, [r3]
 997 022e 01E0     		b	.L38
 998              	.L40:
 827:Drivers/STM32L4xx_HAL_Driver/Src/stm32l4xx_hal_opamp.c ****     }
 828:Drivers/STM32L4xx_HAL_Driver/Src/stm32l4xx_hal_opamp.c ****     else
 829:Drivers/STM32L4xx_HAL_Driver/Src/stm32l4xx_hal_opamp.c ****     {
 830:Drivers/STM32L4xx_HAL_Driver/Src/stm32l4xx_hal_opamp.c ****       /* OPAMP can not be calibrated from this mode */
 831:Drivers/STM32L4xx_HAL_Driver/Src/stm32l4xx_hal_opamp.c ****       status = HAL_ERROR;
 999              		.loc 1 831 14
 1000 0230 0123     		movs	r3, #1
 1001 0232 FB77     		strb	r3, [r7, #31]
 1002              	.L38:
 832:Drivers/STM32L4xx_HAL_Driver/Src/stm32l4xx_hal_opamp.c ****     }
ARM GAS  /tmp/ccXP8iAY.s 			page 33


 833:Drivers/STM32L4xx_HAL_Driver/Src/stm32l4xx_hal_opamp.c ****   }
 834:Drivers/STM32L4xx_HAL_Driver/Src/stm32l4xx_hal_opamp.c ****   return status;
 1003              		.loc 1 834 10
 1004 0234 FB7F     		ldrb	r3, [r7, #31]	@ zero_extendqisi2
 835:Drivers/STM32L4xx_HAL_Driver/Src/stm32l4xx_hal_opamp.c **** }
 1005              		.loc 1 835 1
 1006 0236 1846     		mov	r0, r3
 1007 0238 2037     		adds	r7, r7, #32
 1008              		.cfi_def_cfa_offset 8
 1009 023a BD46     		mov	sp, r7
 1010              		.cfi_def_cfa_register 13
 1011              		@ sp needed
 1012 023c 80BD     		pop	{r7, pc}
 1013              		.cfi_endproc
 1014              	.LFE451:
 1016              		.section	.text.HAL_OPAMP_Lock,"ax",%progbits
 1017              		.align	1
 1018              		.global	HAL_OPAMP_Lock
 1019              		.syntax unified
 1020              		.thumb
 1021              		.thumb_func
 1023              	HAL_OPAMP_Lock:
 1024              	.LFB452:
 836:Drivers/STM32L4xx_HAL_Driver/Src/stm32l4xx_hal_opamp.c **** 
 837:Drivers/STM32L4xx_HAL_Driver/Src/stm32l4xx_hal_opamp.c **** /**
 838:Drivers/STM32L4xx_HAL_Driver/Src/stm32l4xx_hal_opamp.c ****   * @}
 839:Drivers/STM32L4xx_HAL_Driver/Src/stm32l4xx_hal_opamp.c ****   */
 840:Drivers/STM32L4xx_HAL_Driver/Src/stm32l4xx_hal_opamp.c **** 
 841:Drivers/STM32L4xx_HAL_Driver/Src/stm32l4xx_hal_opamp.c **** /** @defgroup OPAMP_Exported_Functions_Group3 Peripheral Control functions
 842:Drivers/STM32L4xx_HAL_Driver/Src/stm32l4xx_hal_opamp.c ****  *  @brief   Peripheral Control functions
 843:Drivers/STM32L4xx_HAL_Driver/Src/stm32l4xx_hal_opamp.c ****  *
 844:Drivers/STM32L4xx_HAL_Driver/Src/stm32l4xx_hal_opamp.c **** @verbatim
 845:Drivers/STM32L4xx_HAL_Driver/Src/stm32l4xx_hal_opamp.c ****  ===============================================================================
 846:Drivers/STM32L4xx_HAL_Driver/Src/stm32l4xx_hal_opamp.c ****                       ##### Peripheral Control functions #####
 847:Drivers/STM32L4xx_HAL_Driver/Src/stm32l4xx_hal_opamp.c ****  ===============================================================================
 848:Drivers/STM32L4xx_HAL_Driver/Src/stm32l4xx_hal_opamp.c ****     [..]
 849:Drivers/STM32L4xx_HAL_Driver/Src/stm32l4xx_hal_opamp.c ****     This subsection provides a set of functions allowing to control the OPAMP data
 850:Drivers/STM32L4xx_HAL_Driver/Src/stm32l4xx_hal_opamp.c ****     transfers.
 851:Drivers/STM32L4xx_HAL_Driver/Src/stm32l4xx_hal_opamp.c **** 
 852:Drivers/STM32L4xx_HAL_Driver/Src/stm32l4xx_hal_opamp.c **** 
 853:Drivers/STM32L4xx_HAL_Driver/Src/stm32l4xx_hal_opamp.c **** 
 854:Drivers/STM32L4xx_HAL_Driver/Src/stm32l4xx_hal_opamp.c **** @endverbatim
 855:Drivers/STM32L4xx_HAL_Driver/Src/stm32l4xx_hal_opamp.c ****   * @{
 856:Drivers/STM32L4xx_HAL_Driver/Src/stm32l4xx_hal_opamp.c ****   */
 857:Drivers/STM32L4xx_HAL_Driver/Src/stm32l4xx_hal_opamp.c **** 
 858:Drivers/STM32L4xx_HAL_Driver/Src/stm32l4xx_hal_opamp.c **** /**
 859:Drivers/STM32L4xx_HAL_Driver/Src/stm32l4xx_hal_opamp.c ****   * @brief  Lock the selected OPAMP configuration.
 860:Drivers/STM32L4xx_HAL_Driver/Src/stm32l4xx_hal_opamp.c ****   * @note   On STM32L4, HAL OPAMP lock is software lock only (in
 861:Drivers/STM32L4xx_HAL_Driver/Src/stm32l4xx_hal_opamp.c ****   *         contrast of hardware lock available on some other STM32
 862:Drivers/STM32L4xx_HAL_Driver/Src/stm32l4xx_hal_opamp.c ****   *         devices).
 863:Drivers/STM32L4xx_HAL_Driver/Src/stm32l4xx_hal_opamp.c ****   * @param  hopamp OPAMP handle
 864:Drivers/STM32L4xx_HAL_Driver/Src/stm32l4xx_hal_opamp.c ****   * @retval HAL status
 865:Drivers/STM32L4xx_HAL_Driver/Src/stm32l4xx_hal_opamp.c ****   */
 866:Drivers/STM32L4xx_HAL_Driver/Src/stm32l4xx_hal_opamp.c **** HAL_StatusTypeDef HAL_OPAMP_Lock(OPAMP_HandleTypeDef *hopamp)
 867:Drivers/STM32L4xx_HAL_Driver/Src/stm32l4xx_hal_opamp.c **** {
 1025              		.loc 1 867 1
 1026              		.cfi_startproc
ARM GAS  /tmp/ccXP8iAY.s 			page 34


 1027              		@ args = 0, pretend = 0, frame = 16
 1028              		@ frame_needed = 1, uses_anonymous_args = 0
 1029              		@ link register save eliminated.
 1030 0000 80B4     		push	{r7}
 1031              		.cfi_def_cfa_offset 4
 1032              		.cfi_offset 7, -4
 1033 0002 85B0     		sub	sp, sp, #20
 1034              		.cfi_def_cfa_offset 24
 1035 0004 00AF     		add	r7, sp, #0
 1036              		.cfi_def_cfa_register 7
 1037 0006 7860     		str	r0, [r7, #4]
 868:Drivers/STM32L4xx_HAL_Driver/Src/stm32l4xx_hal_opamp.c ****   HAL_StatusTypeDef status = HAL_OK;
 1038              		.loc 1 868 21
 1039 0008 0023     		movs	r3, #0
 1040 000a FB73     		strb	r3, [r7, #15]
 869:Drivers/STM32L4xx_HAL_Driver/Src/stm32l4xx_hal_opamp.c **** 
 870:Drivers/STM32L4xx_HAL_Driver/Src/stm32l4xx_hal_opamp.c ****   /* Check the OPAMP handle allocation */
 871:Drivers/STM32L4xx_HAL_Driver/Src/stm32l4xx_hal_opamp.c ****   /* Check if OPAMP locked */
 872:Drivers/STM32L4xx_HAL_Driver/Src/stm32l4xx_hal_opamp.c ****   /* OPAMP can be locked when enabled and running in normal mode */
 873:Drivers/STM32L4xx_HAL_Driver/Src/stm32l4xx_hal_opamp.c ****   /*   It is meaningless otherwise */
 874:Drivers/STM32L4xx_HAL_Driver/Src/stm32l4xx_hal_opamp.c ****   if(hopamp == NULL)
 1041              		.loc 1 874 5
 1042 000c 7B68     		ldr	r3, [r7, #4]
 1043 000e 002B     		cmp	r3, #0
 1044 0010 02D1     		bne	.L57
 875:Drivers/STM32L4xx_HAL_Driver/Src/stm32l4xx_hal_opamp.c ****   {
 876:Drivers/STM32L4xx_HAL_Driver/Src/stm32l4xx_hal_opamp.c ****     status = HAL_ERROR;
 1045              		.loc 1 876 12
 1046 0012 0123     		movs	r3, #1
 1047 0014 FB73     		strb	r3, [r7, #15]
 1048 0016 0CE0     		b	.L58
 1049              	.L57:
 877:Drivers/STM32L4xx_HAL_Driver/Src/stm32l4xx_hal_opamp.c ****   }
 878:Drivers/STM32L4xx_HAL_Driver/Src/stm32l4xx_hal_opamp.c ****   else if(hopamp->State == HAL_OPAMP_STATE_BUSY)
 1050              		.loc 1 878 17
 1051 0018 7B68     		ldr	r3, [r7, #4]
 1052 001a 93F83230 		ldrb	r3, [r3, #50]
 1053 001e DBB2     		uxtb	r3, r3
 1054              		.loc 1 878 10
 1055 0020 042B     		cmp	r3, #4
 1056 0022 04D1     		bne	.L59
 879:Drivers/STM32L4xx_HAL_Driver/Src/stm32l4xx_hal_opamp.c ****   {
 880:Drivers/STM32L4xx_HAL_Driver/Src/stm32l4xx_hal_opamp.c ****     /* Check the parameter */
 881:Drivers/STM32L4xx_HAL_Driver/Src/stm32l4xx_hal_opamp.c ****     assert_param(IS_OPAMP_ALL_INSTANCE(hopamp->Instance));
 882:Drivers/STM32L4xx_HAL_Driver/Src/stm32l4xx_hal_opamp.c **** 
 883:Drivers/STM32L4xx_HAL_Driver/Src/stm32l4xx_hal_opamp.c ****    /* OPAMP state changed to locked */
 884:Drivers/STM32L4xx_HAL_Driver/Src/stm32l4xx_hal_opamp.c ****     hopamp->State = HAL_OPAMP_STATE_BUSYLOCKED;
 1057              		.loc 1 884 19
 1058 0024 7B68     		ldr	r3, [r7, #4]
 1059 0026 0522     		movs	r2, #5
 1060 0028 83F83220 		strb	r2, [r3, #50]
 1061 002c 01E0     		b	.L58
 1062              	.L59:
 885:Drivers/STM32L4xx_HAL_Driver/Src/stm32l4xx_hal_opamp.c ****   }
 886:Drivers/STM32L4xx_HAL_Driver/Src/stm32l4xx_hal_opamp.c ****   else
 887:Drivers/STM32L4xx_HAL_Driver/Src/stm32l4xx_hal_opamp.c ****   {
 888:Drivers/STM32L4xx_HAL_Driver/Src/stm32l4xx_hal_opamp.c ****     status = HAL_ERROR;
ARM GAS  /tmp/ccXP8iAY.s 			page 35


 1063              		.loc 1 888 12
 1064 002e 0123     		movs	r3, #1
 1065 0030 FB73     		strb	r3, [r7, #15]
 1066              	.L58:
 889:Drivers/STM32L4xx_HAL_Driver/Src/stm32l4xx_hal_opamp.c ****   }
 890:Drivers/STM32L4xx_HAL_Driver/Src/stm32l4xx_hal_opamp.c ****   return status;
 1067              		.loc 1 890 10
 1068 0032 FB7B     		ldrb	r3, [r7, #15]	@ zero_extendqisi2
 891:Drivers/STM32L4xx_HAL_Driver/Src/stm32l4xx_hal_opamp.c **** }
 1069              		.loc 1 891 1
 1070 0034 1846     		mov	r0, r3
 1071 0036 1437     		adds	r7, r7, #20
 1072              		.cfi_def_cfa_offset 4
 1073 0038 BD46     		mov	sp, r7
 1074              		.cfi_def_cfa_register 13
 1075              		@ sp needed
 1076 003a 5DF8047B 		ldr	r7, [sp], #4
 1077              		.cfi_restore 7
 1078              		.cfi_def_cfa_offset 0
 1079 003e 7047     		bx	lr
 1080              		.cfi_endproc
 1081              	.LFE452:
 1083              		.section	.text.HAL_OPAMP_GetTrimOffset,"ax",%progbits
 1084              		.align	1
 1085              		.global	HAL_OPAMP_GetTrimOffset
 1086              		.syntax unified
 1087              		.thumb
 1088              		.thumb_func
 1090              	HAL_OPAMP_GetTrimOffset:
 1091              	.LFB453:
 892:Drivers/STM32L4xx_HAL_Driver/Src/stm32l4xx_hal_opamp.c **** 
 893:Drivers/STM32L4xx_HAL_Driver/Src/stm32l4xx_hal_opamp.c **** /**
 894:Drivers/STM32L4xx_HAL_Driver/Src/stm32l4xx_hal_opamp.c ****   * @brief  Return the OPAMP factory trimming value.
 895:Drivers/STM32L4xx_HAL_Driver/Src/stm32l4xx_hal_opamp.c ****   * @note            On STM32L4 OPAMP, user can retrieve factory trimming if
 896:Drivers/STM32L4xx_HAL_Driver/Src/stm32l4xx_hal_opamp.c ****   *                  OPAMP has never been set to user trimming before.
 897:Drivers/STM32L4xx_HAL_Driver/Src/stm32l4xx_hal_opamp.c ****   *                  Therefore, this function must be called when OPAMP init
 898:Drivers/STM32L4xx_HAL_Driver/Src/stm32l4xx_hal_opamp.c ****   *                  parameter "UserTrimming" is set to trimming factory,
 899:Drivers/STM32L4xx_HAL_Driver/Src/stm32l4xx_hal_opamp.c ****   *                  and before OPAMP  calibration (function
 900:Drivers/STM32L4xx_HAL_Driver/Src/stm32l4xx_hal_opamp.c ****   *                  "HAL_OPAMP_SelfCalibrate()").
 901:Drivers/STM32L4xx_HAL_Driver/Src/stm32l4xx_hal_opamp.c ****   *                  Otherwise, factory trimming value cannot be retrieved and
 902:Drivers/STM32L4xx_HAL_Driver/Src/stm32l4xx_hal_opamp.c ****   *                  error status is returned.
 903:Drivers/STM32L4xx_HAL_Driver/Src/stm32l4xx_hal_opamp.c ****   * @param  hopamp : OPAMP handle
 904:Drivers/STM32L4xx_HAL_Driver/Src/stm32l4xx_hal_opamp.c ****   * @param  trimmingoffset : Trimming offset (P or N)
 905:Drivers/STM32L4xx_HAL_Driver/Src/stm32l4xx_hal_opamp.c ****   *         This parameter must be a value of @ref OPAMP_FactoryTrimming
 906:Drivers/STM32L4xx_HAL_Driver/Src/stm32l4xx_hal_opamp.c ****   * @note   Calibration parameter retrieved is corresponding to the mode
 907:Drivers/STM32L4xx_HAL_Driver/Src/stm32l4xx_hal_opamp.c ****   *         specified in OPAMP init structure (mode normal or low-power).
 908:Drivers/STM32L4xx_HAL_Driver/Src/stm32l4xx_hal_opamp.c ****   *         To retrieve calibration parameters for both modes, repeat this
 909:Drivers/STM32L4xx_HAL_Driver/Src/stm32l4xx_hal_opamp.c ****   *         function after OPAMP init structure accordingly updated.
 910:Drivers/STM32L4xx_HAL_Driver/Src/stm32l4xx_hal_opamp.c ****   * @retval Trimming value (P or N): range: 0->31
 911:Drivers/STM32L4xx_HAL_Driver/Src/stm32l4xx_hal_opamp.c ****   *         or OPAMP_FACTORYTRIMMING_DUMMY if trimming value is not available
 912:Drivers/STM32L4xx_HAL_Driver/Src/stm32l4xx_hal_opamp.c ****   *
 913:Drivers/STM32L4xx_HAL_Driver/Src/stm32l4xx_hal_opamp.c ****   */
 914:Drivers/STM32L4xx_HAL_Driver/Src/stm32l4xx_hal_opamp.c **** 
 915:Drivers/STM32L4xx_HAL_Driver/Src/stm32l4xx_hal_opamp.c **** HAL_OPAMP_TrimmingValueTypeDef HAL_OPAMP_GetTrimOffset (OPAMP_HandleTypeDef *hopamp, uint32_t trimm
 916:Drivers/STM32L4xx_HAL_Driver/Src/stm32l4xx_hal_opamp.c **** {
 1092              		.loc 1 916 1
 1093              		.cfi_startproc
ARM GAS  /tmp/ccXP8iAY.s 			page 36


 1094              		@ args = 0, pretend = 0, frame = 16
 1095              		@ frame_needed = 1, uses_anonymous_args = 0
 1096              		@ link register save eliminated.
 1097 0000 80B4     		push	{r7}
 1098              		.cfi_def_cfa_offset 4
 1099              		.cfi_offset 7, -4
 1100 0002 85B0     		sub	sp, sp, #20
 1101              		.cfi_def_cfa_offset 24
 1102 0004 00AF     		add	r7, sp, #0
 1103              		.cfi_def_cfa_register 7
 1104 0006 7860     		str	r0, [r7, #4]
 1105 0008 3960     		str	r1, [r7]
 917:Drivers/STM32L4xx_HAL_Driver/Src/stm32l4xx_hal_opamp.c ****   HAL_OPAMP_TrimmingValueTypeDef trimmingvalue;
 918:Drivers/STM32L4xx_HAL_Driver/Src/stm32l4xx_hal_opamp.c ****   __IO uint32_t* tmp_opamp_reg_trimming;  /* Selection of register of trimming depending on power m
 919:Drivers/STM32L4xx_HAL_Driver/Src/stm32l4xx_hal_opamp.c **** 
 920:Drivers/STM32L4xx_HAL_Driver/Src/stm32l4xx_hal_opamp.c ****   /* Check the OPAMP handle allocation */
 921:Drivers/STM32L4xx_HAL_Driver/Src/stm32l4xx_hal_opamp.c ****   /* Value can be retrieved in HAL_OPAMP_STATE_READY state */
 922:Drivers/STM32L4xx_HAL_Driver/Src/stm32l4xx_hal_opamp.c ****   if(hopamp == NULL)
 1106              		.loc 1 922 5
 1107 000a 7B68     		ldr	r3, [r7, #4]
 1108 000c 002B     		cmp	r3, #0
 1109 000e 02D1     		bne	.L62
 923:Drivers/STM32L4xx_HAL_Driver/Src/stm32l4xx_hal_opamp.c ****   {
 924:Drivers/STM32L4xx_HAL_Driver/Src/stm32l4xx_hal_opamp.c ****     return OPAMP_FACTORYTRIMMING_DUMMY;
 1110              		.loc 1 924 12
 1111 0010 4FF0FF33 		mov	r3, #-1
 1112 0014 2DE0     		b	.L63
 1113              	.L62:
 925:Drivers/STM32L4xx_HAL_Driver/Src/stm32l4xx_hal_opamp.c ****   }
 926:Drivers/STM32L4xx_HAL_Driver/Src/stm32l4xx_hal_opamp.c **** 
 927:Drivers/STM32L4xx_HAL_Driver/Src/stm32l4xx_hal_opamp.c ****   /* Check the OPAMP handle allocation */
 928:Drivers/STM32L4xx_HAL_Driver/Src/stm32l4xx_hal_opamp.c ****   /* Value can be retrieved in HAL_OPAMP_STATE_READY state */
 929:Drivers/STM32L4xx_HAL_Driver/Src/stm32l4xx_hal_opamp.c ****   if(hopamp->State == HAL_OPAMP_STATE_READY)
 1114              		.loc 1 929 12
 1115 0016 7B68     		ldr	r3, [r7, #4]
 1116 0018 93F83230 		ldrb	r3, [r3, #50]
 1117 001c DBB2     		uxtb	r3, r3
 1118              		.loc 1 929 5
 1119 001e 012B     		cmp	r3, #1
 1120 0020 23D1     		bne	.L64
 930:Drivers/STM32L4xx_HAL_Driver/Src/stm32l4xx_hal_opamp.c ****   {
 931:Drivers/STM32L4xx_HAL_Driver/Src/stm32l4xx_hal_opamp.c ****     /* Check the parameter */
 932:Drivers/STM32L4xx_HAL_Driver/Src/stm32l4xx_hal_opamp.c ****     assert_param(IS_OPAMP_ALL_INSTANCE(hopamp->Instance));
 933:Drivers/STM32L4xx_HAL_Driver/Src/stm32l4xx_hal_opamp.c ****     assert_param(IS_OPAMP_FACTORYTRIMMING(trimmingoffset));
 934:Drivers/STM32L4xx_HAL_Driver/Src/stm32l4xx_hal_opamp.c ****     assert_param(IS_OPAMP_POWERMODE(hopamp->Init.PowerMode));
 935:Drivers/STM32L4xx_HAL_Driver/Src/stm32l4xx_hal_opamp.c **** 
 936:Drivers/STM32L4xx_HAL_Driver/Src/stm32l4xx_hal_opamp.c ****     /* Check the trimming mode */
 937:Drivers/STM32L4xx_HAL_Driver/Src/stm32l4xx_hal_opamp.c ****     if (READ_BIT(hopamp->Instance->CSR,OPAMP_CSR_USERTRIM) != 0U)
 1121              		.loc 1 937 9
 1122 0022 7B68     		ldr	r3, [r7, #4]
 1123 0024 1B68     		ldr	r3, [r3]
 1124 0026 1B68     		ldr	r3, [r3]
 1125 0028 03F48043 		and	r3, r3, #16384
 1126              		.loc 1 937 8
 1127 002c 002B     		cmp	r3, #0
 1128 002e 03D0     		beq	.L65
 938:Drivers/STM32L4xx_HAL_Driver/Src/stm32l4xx_hal_opamp.c ****     {
ARM GAS  /tmp/ccXP8iAY.s 			page 37


 939:Drivers/STM32L4xx_HAL_Driver/Src/stm32l4xx_hal_opamp.c ****       /* This function must called when OPAMP init parameter "UserTrimming"   */
 940:Drivers/STM32L4xx_HAL_Driver/Src/stm32l4xx_hal_opamp.c ****       /* is set to trimming factory, and before OPAMP calibration (function   */
 941:Drivers/STM32L4xx_HAL_Driver/Src/stm32l4xx_hal_opamp.c ****       /* "HAL_OPAMP_SelfCalibrate()").                                        */
 942:Drivers/STM32L4xx_HAL_Driver/Src/stm32l4xx_hal_opamp.c ****       /* Otherwise, factory trimming value cannot be retrieved and error       */
 943:Drivers/STM32L4xx_HAL_Driver/Src/stm32l4xx_hal_opamp.c ****       /* status is returned.                                                  */
 944:Drivers/STM32L4xx_HAL_Driver/Src/stm32l4xx_hal_opamp.c ****       trimmingvalue = OPAMP_FACTORYTRIMMING_DUMMY;
 1129              		.loc 1 944 21
 1130 0030 4FF0FF33 		mov	r3, #-1
 1131 0034 FB60     		str	r3, [r7, #12]
 1132 0036 1BE0     		b	.L66
 1133              	.L65:
 945:Drivers/STM32L4xx_HAL_Driver/Src/stm32l4xx_hal_opamp.c ****     }
 946:Drivers/STM32L4xx_HAL_Driver/Src/stm32l4xx_hal_opamp.c ****     else
 947:Drivers/STM32L4xx_HAL_Driver/Src/stm32l4xx_hal_opamp.c ****     {
 948:Drivers/STM32L4xx_HAL_Driver/Src/stm32l4xx_hal_opamp.c ****       /* Select trimming settings depending on power mode */
 949:Drivers/STM32L4xx_HAL_Driver/Src/stm32l4xx_hal_opamp.c ****       if (hopamp->Init.PowerMode == OPAMP_POWERMODE_NORMALPOWER)
 1134              		.loc 1 949 23
 1135 0038 7B68     		ldr	r3, [r7, #4]
 1136 003a 9B68     		ldr	r3, [r3, #8]
 1137              		.loc 1 949 10
 1138 003c 002B     		cmp	r3, #0
 1139 003e 02D1     		bne	.L67
 950:Drivers/STM32L4xx_HAL_Driver/Src/stm32l4xx_hal_opamp.c ****       {
 951:Drivers/STM32L4xx_HAL_Driver/Src/stm32l4xx_hal_opamp.c ****         tmp_opamp_reg_trimming = &OPAMP->OTR;
 1140              		.loc 1 951 32
 1141 0040 0F4B     		ldr	r3, .L70
 1142 0042 BB60     		str	r3, [r7, #8]
 1143 0044 01E0     		b	.L68
 1144              	.L67:
 952:Drivers/STM32L4xx_HAL_Driver/Src/stm32l4xx_hal_opamp.c ****       }
 953:Drivers/STM32L4xx_HAL_Driver/Src/stm32l4xx_hal_opamp.c ****       else
 954:Drivers/STM32L4xx_HAL_Driver/Src/stm32l4xx_hal_opamp.c ****       {
 955:Drivers/STM32L4xx_HAL_Driver/Src/stm32l4xx_hal_opamp.c ****         tmp_opamp_reg_trimming = &OPAMP->LPOTR;
 1145              		.loc 1 955 32
 1146 0046 0F4B     		ldr	r3, .L70+4
 1147 0048 BB60     		str	r3, [r7, #8]
 1148              	.L68:
 956:Drivers/STM32L4xx_HAL_Driver/Src/stm32l4xx_hal_opamp.c ****       }
 957:Drivers/STM32L4xx_HAL_Driver/Src/stm32l4xx_hal_opamp.c **** 
 958:Drivers/STM32L4xx_HAL_Driver/Src/stm32l4xx_hal_opamp.c ****       /* Get factory trimming  */
 959:Drivers/STM32L4xx_HAL_Driver/Src/stm32l4xx_hal_opamp.c ****       if (trimmingoffset == OPAMP_FACTORYTRIMMING_P)
 1149              		.loc 1 959 10
 1150 004a 3B68     		ldr	r3, [r7]
 1151 004c 012B     		cmp	r3, #1
 1152 004e 06D1     		bne	.L69
 960:Drivers/STM32L4xx_HAL_Driver/Src/stm32l4xx_hal_opamp.c ****       {
 961:Drivers/STM32L4xx_HAL_Driver/Src/stm32l4xx_hal_opamp.c ****         /* OPAMP_FACTORYTRIMMING_P */
 962:Drivers/STM32L4xx_HAL_Driver/Src/stm32l4xx_hal_opamp.c ****         trimmingvalue = ((*tmp_opamp_reg_trimming) & OPAMP_OTR_TRIMOFFSETP) >> OPAMP_INPUT_NONINVER
 1153              		.loc 1 962 27
 1154 0050 BB68     		ldr	r3, [r7, #8]
 1155 0052 1B68     		ldr	r3, [r3]
 1156              		.loc 1 962 77
 1157 0054 1B0A     		lsrs	r3, r3, #8
 1158              		.loc 1 962 23
 1159 0056 03F01F03 		and	r3, r3, #31
 1160 005a FB60     		str	r3, [r7, #12]
 1161 005c 08E0     		b	.L66
ARM GAS  /tmp/ccXP8iAY.s 			page 38


 1162              	.L69:
 963:Drivers/STM32L4xx_HAL_Driver/Src/stm32l4xx_hal_opamp.c ****       }
 964:Drivers/STM32L4xx_HAL_Driver/Src/stm32l4xx_hal_opamp.c ****       else
 965:Drivers/STM32L4xx_HAL_Driver/Src/stm32l4xx_hal_opamp.c ****       {
 966:Drivers/STM32L4xx_HAL_Driver/Src/stm32l4xx_hal_opamp.c ****         /* OPAMP_FACTORYTRIMMING_N */
 967:Drivers/STM32L4xx_HAL_Driver/Src/stm32l4xx_hal_opamp.c ****         trimmingvalue = (*tmp_opamp_reg_trimming) & OPAMP_OTR_TRIMOFFSETN;
 1163              		.loc 1 967 26
 1164 005e BB68     		ldr	r3, [r7, #8]
 1165 0060 1B68     		ldr	r3, [r3]
 1166              		.loc 1 967 23
 1167 0062 03F01F03 		and	r3, r3, #31
 1168 0066 FB60     		str	r3, [r7, #12]
 1169 0068 02E0     		b	.L66
 1170              	.L64:
 968:Drivers/STM32L4xx_HAL_Driver/Src/stm32l4xx_hal_opamp.c ****       }
 969:Drivers/STM32L4xx_HAL_Driver/Src/stm32l4xx_hal_opamp.c ****     }
 970:Drivers/STM32L4xx_HAL_Driver/Src/stm32l4xx_hal_opamp.c ****   }
 971:Drivers/STM32L4xx_HAL_Driver/Src/stm32l4xx_hal_opamp.c ****   else
 972:Drivers/STM32L4xx_HAL_Driver/Src/stm32l4xx_hal_opamp.c ****   {
 973:Drivers/STM32L4xx_HAL_Driver/Src/stm32l4xx_hal_opamp.c ****     return OPAMP_FACTORYTRIMMING_DUMMY;
 1171              		.loc 1 973 12
 1172 006a 4FF0FF33 		mov	r3, #-1
 1173 006e 00E0     		b	.L63
 1174              	.L66:
 974:Drivers/STM32L4xx_HAL_Driver/Src/stm32l4xx_hal_opamp.c ****   }
 975:Drivers/STM32L4xx_HAL_Driver/Src/stm32l4xx_hal_opamp.c ****   return trimmingvalue;
 1175              		.loc 1 975 10
 1176 0070 FB68     		ldr	r3, [r7, #12]
 1177              	.L63:
 976:Drivers/STM32L4xx_HAL_Driver/Src/stm32l4xx_hal_opamp.c **** }
 1178              		.loc 1 976 1
 1179 0072 1846     		mov	r0, r3
 1180 0074 1437     		adds	r7, r7, #20
 1181              		.cfi_def_cfa_offset 4
 1182 0076 BD46     		mov	sp, r7
 1183              		.cfi_def_cfa_register 13
 1184              		@ sp needed
 1185 0078 5DF8047B 		ldr	r7, [sp], #4
 1186              		.cfi_restore 7
 1187              		.cfi_def_cfa_offset 0
 1188 007c 7047     		bx	lr
 1189              	.L71:
 1190 007e 00BF     		.align	2
 1191              	.L70:
 1192 0080 04780040 		.word	1073772548
 1193 0084 08780040 		.word	1073772552
 1194              		.cfi_endproc
 1195              	.LFE453:
 1197              		.section	.text.HAL_OPAMP_GetState,"ax",%progbits
 1198              		.align	1
 1199              		.global	HAL_OPAMP_GetState
 1200              		.syntax unified
 1201              		.thumb
 1202              		.thumb_func
 1204              	HAL_OPAMP_GetState:
 1205              	.LFB454:
 977:Drivers/STM32L4xx_HAL_Driver/Src/stm32l4xx_hal_opamp.c **** 
ARM GAS  /tmp/ccXP8iAY.s 			page 39


 978:Drivers/STM32L4xx_HAL_Driver/Src/stm32l4xx_hal_opamp.c **** /**
 979:Drivers/STM32L4xx_HAL_Driver/Src/stm32l4xx_hal_opamp.c ****   * @}
 980:Drivers/STM32L4xx_HAL_Driver/Src/stm32l4xx_hal_opamp.c ****   */
 981:Drivers/STM32L4xx_HAL_Driver/Src/stm32l4xx_hal_opamp.c **** 
 982:Drivers/STM32L4xx_HAL_Driver/Src/stm32l4xx_hal_opamp.c **** 
 983:Drivers/STM32L4xx_HAL_Driver/Src/stm32l4xx_hal_opamp.c **** /** @defgroup OPAMP_Exported_Functions_Group4 Peripheral State functions
 984:Drivers/STM32L4xx_HAL_Driver/Src/stm32l4xx_hal_opamp.c ****  *  @brief   Peripheral State functions
 985:Drivers/STM32L4xx_HAL_Driver/Src/stm32l4xx_hal_opamp.c ****  *
 986:Drivers/STM32L4xx_HAL_Driver/Src/stm32l4xx_hal_opamp.c **** @verbatim
 987:Drivers/STM32L4xx_HAL_Driver/Src/stm32l4xx_hal_opamp.c ****  ===============================================================================
 988:Drivers/STM32L4xx_HAL_Driver/Src/stm32l4xx_hal_opamp.c ****                       ##### Peripheral State functions #####
 989:Drivers/STM32L4xx_HAL_Driver/Src/stm32l4xx_hal_opamp.c ****  ===============================================================================
 990:Drivers/STM32L4xx_HAL_Driver/Src/stm32l4xx_hal_opamp.c ****     [..]
 991:Drivers/STM32L4xx_HAL_Driver/Src/stm32l4xx_hal_opamp.c ****     This subsection permits to get in run-time the status of the peripheral.
 992:Drivers/STM32L4xx_HAL_Driver/Src/stm32l4xx_hal_opamp.c **** 
 993:Drivers/STM32L4xx_HAL_Driver/Src/stm32l4xx_hal_opamp.c **** @endverbatim
 994:Drivers/STM32L4xx_HAL_Driver/Src/stm32l4xx_hal_opamp.c ****   * @{
 995:Drivers/STM32L4xx_HAL_Driver/Src/stm32l4xx_hal_opamp.c ****   */
 996:Drivers/STM32L4xx_HAL_Driver/Src/stm32l4xx_hal_opamp.c **** 
 997:Drivers/STM32L4xx_HAL_Driver/Src/stm32l4xx_hal_opamp.c **** /**
 998:Drivers/STM32L4xx_HAL_Driver/Src/stm32l4xx_hal_opamp.c ****   * @brief  Return the OPAMP handle state.
 999:Drivers/STM32L4xx_HAL_Driver/Src/stm32l4xx_hal_opamp.c ****   * @param  hopamp : OPAMP handle
1000:Drivers/STM32L4xx_HAL_Driver/Src/stm32l4xx_hal_opamp.c ****   * @retval HAL state
1001:Drivers/STM32L4xx_HAL_Driver/Src/stm32l4xx_hal_opamp.c ****   */
1002:Drivers/STM32L4xx_HAL_Driver/Src/stm32l4xx_hal_opamp.c **** HAL_OPAMP_StateTypeDef HAL_OPAMP_GetState(OPAMP_HandleTypeDef *hopamp)
1003:Drivers/STM32L4xx_HAL_Driver/Src/stm32l4xx_hal_opamp.c **** {
 1206              		.loc 1 1003 1
 1207              		.cfi_startproc
 1208              		@ args = 0, pretend = 0, frame = 8
 1209              		@ frame_needed = 1, uses_anonymous_args = 0
 1210              		@ link register save eliminated.
 1211 0000 80B4     		push	{r7}
 1212              		.cfi_def_cfa_offset 4
 1213              		.cfi_offset 7, -4
 1214 0002 83B0     		sub	sp, sp, #12
 1215              		.cfi_def_cfa_offset 16
 1216 0004 00AF     		add	r7, sp, #0
 1217              		.cfi_def_cfa_register 7
 1218 0006 7860     		str	r0, [r7, #4]
1004:Drivers/STM32L4xx_HAL_Driver/Src/stm32l4xx_hal_opamp.c ****   /* Check the OPAMP handle allocation */
1005:Drivers/STM32L4xx_HAL_Driver/Src/stm32l4xx_hal_opamp.c ****   if(hopamp == NULL)
 1219              		.loc 1 1005 5
 1220 0008 7B68     		ldr	r3, [r7, #4]
 1221 000a 002B     		cmp	r3, #0
 1222 000c 01D1     		bne	.L73
1006:Drivers/STM32L4xx_HAL_Driver/Src/stm32l4xx_hal_opamp.c ****   {
1007:Drivers/STM32L4xx_HAL_Driver/Src/stm32l4xx_hal_opamp.c ****     return HAL_OPAMP_STATE_RESET;
 1223              		.loc 1 1007 12
 1224 000e 0023     		movs	r3, #0
 1225 0010 03E0     		b	.L74
 1226              	.L73:
1008:Drivers/STM32L4xx_HAL_Driver/Src/stm32l4xx_hal_opamp.c ****   }
1009:Drivers/STM32L4xx_HAL_Driver/Src/stm32l4xx_hal_opamp.c **** 
1010:Drivers/STM32L4xx_HAL_Driver/Src/stm32l4xx_hal_opamp.c ****   /* Check the parameter */
1011:Drivers/STM32L4xx_HAL_Driver/Src/stm32l4xx_hal_opamp.c ****   assert_param(IS_OPAMP_ALL_INSTANCE(hopamp->Instance));
1012:Drivers/STM32L4xx_HAL_Driver/Src/stm32l4xx_hal_opamp.c **** 
1013:Drivers/STM32L4xx_HAL_Driver/Src/stm32l4xx_hal_opamp.c ****   /* Return OPAMP handle state */
ARM GAS  /tmp/ccXP8iAY.s 			page 40


1014:Drivers/STM32L4xx_HAL_Driver/Src/stm32l4xx_hal_opamp.c ****   return hopamp->State;
 1227              		.loc 1 1014 16
 1228 0012 7B68     		ldr	r3, [r7, #4]
 1229 0014 93F83230 		ldrb	r3, [r3, #50]
 1230 0018 DBB2     		uxtb	r3, r3
 1231              	.L74:
1015:Drivers/STM32L4xx_HAL_Driver/Src/stm32l4xx_hal_opamp.c **** }
 1232              		.loc 1 1015 1
 1233 001a 1846     		mov	r0, r3
 1234 001c 0C37     		adds	r7, r7, #12
 1235              		.cfi_def_cfa_offset 4
 1236 001e BD46     		mov	sp, r7
 1237              		.cfi_def_cfa_register 13
 1238              		@ sp needed
 1239 0020 5DF8047B 		ldr	r7, [sp], #4
 1240              		.cfi_restore 7
 1241              		.cfi_def_cfa_offset 0
 1242 0024 7047     		bx	lr
 1243              		.cfi_endproc
 1244              	.LFE454:
 1246              		.text
 1247              	.Letext0:
 1248              		.file 2 "/usr/lib/gcc/arm-none-eabi/13.2.1/include/stdint.h"
 1249              		.file 3 "Drivers/CMSIS/Device/ST/STM32L4xx/Include/stm32l475xx.h"
 1250              		.file 4 "Drivers/STM32L4xx_HAL_Driver/Inc/stm32l4xx_hal_def.h"
 1251              		.file 5 "Drivers/STM32L4xx_HAL_Driver/Inc/stm32l4xx_hal_opamp.h"
 1252              		.file 6 "Drivers/STM32L4xx_HAL_Driver/Inc/stm32l4xx_ll_dma.h"
 1253              		.file 7 "Drivers/STM32L4xx_HAL_Driver/Inc/stm32l4xx_hal.h"
ARM GAS  /tmp/ccXP8iAY.s 			page 41

