ARM GAS  /tmp/cchlXIps.s 			page 1


   1              		.cpu cortex-m4
   2              		.arch armv7e-m
   3              		.fpu fpv4-sp-d16
   4              		.eabi_attribute 27, 1
   5              		.eabi_attribute 28, 1
   6              		.eabi_attribute 20, 1
   7              		.eabi_attribute 21, 1
   8              		.eabi_attribute 23, 3
   9              		.eabi_attribute 24, 1
  10              		.eabi_attribute 25, 1
  11              		.eabi_attribute 26, 1
  12              		.eabi_attribute 30, 6
  13              		.eabi_attribute 34, 1
  14              		.eabi_attribute 18, 4
  15              		.file	"stm32l4xx_hal_firewall.c"
  16              		.text
  17              	.Ltext0:
  18              		.cfi_sections	.debug_frame
  19              		.file 1 "Drivers/STM32L4xx_HAL_Driver/Src/stm32l4xx_hal_firewall.c"
  20              		.section	.rodata.CHANNEL_OFFSET_TAB,"a"
  21              		.align	2
  24              	CHANNEL_OFFSET_TAB:
  25 0000 081C3044 		.ascii	"\010\0340DXl\200"
  25      586C80
  26              		.section	.text.HAL_FIREWALL_Config,"ax",%progbits
  27              		.align	1
  28              		.global	HAL_FIREWALL_Config
  29              		.syntax unified
  30              		.thumb
  31              		.thumb_func
  33              	HAL_FIREWALL_Config:
  34              	.LFB445:
   1:Drivers/STM32L4xx_HAL_Driver/Src/stm32l4xx_hal_firewall.c **** /**
   2:Drivers/STM32L4xx_HAL_Driver/Src/stm32l4xx_hal_firewall.c ****   ******************************************************************************
   3:Drivers/STM32L4xx_HAL_Driver/Src/stm32l4xx_hal_firewall.c ****   * @file    stm32l4xx_hal_firewall.c
   4:Drivers/STM32L4xx_HAL_Driver/Src/stm32l4xx_hal_firewall.c ****   * @author  MCD Application Team
   5:Drivers/STM32L4xx_HAL_Driver/Src/stm32l4xx_hal_firewall.c ****   * @brief   FIREWALL HAL module driver.
   6:Drivers/STM32L4xx_HAL_Driver/Src/stm32l4xx_hal_firewall.c ****   *          This file provides firmware functions to manage the Firewall
   7:Drivers/STM32L4xx_HAL_Driver/Src/stm32l4xx_hal_firewall.c ****   *          Peripheral initialization and enabling.
   8:Drivers/STM32L4xx_HAL_Driver/Src/stm32l4xx_hal_firewall.c ****   *
   9:Drivers/STM32L4xx_HAL_Driver/Src/stm32l4xx_hal_firewall.c ****   ******************************************************************************
  10:Drivers/STM32L4xx_HAL_Driver/Src/stm32l4xx_hal_firewall.c ****   * @attention
  11:Drivers/STM32L4xx_HAL_Driver/Src/stm32l4xx_hal_firewall.c ****   *
  12:Drivers/STM32L4xx_HAL_Driver/Src/stm32l4xx_hal_firewall.c ****   * Copyright (c) 2017 STMicroelectronics.
  13:Drivers/STM32L4xx_HAL_Driver/Src/stm32l4xx_hal_firewall.c ****   * All rights reserved.
  14:Drivers/STM32L4xx_HAL_Driver/Src/stm32l4xx_hal_firewall.c ****   *
  15:Drivers/STM32L4xx_HAL_Driver/Src/stm32l4xx_hal_firewall.c ****   * This software is licensed under terms that can be found in the LICENSE file
  16:Drivers/STM32L4xx_HAL_Driver/Src/stm32l4xx_hal_firewall.c ****   * in the root directory of this software component.
  17:Drivers/STM32L4xx_HAL_Driver/Src/stm32l4xx_hal_firewall.c ****   * If no LICENSE file comes with this software, it is provided AS-IS.
  18:Drivers/STM32L4xx_HAL_Driver/Src/stm32l4xx_hal_firewall.c ****   *
  19:Drivers/STM32L4xx_HAL_Driver/Src/stm32l4xx_hal_firewall.c ****   ******************************************************************************
  20:Drivers/STM32L4xx_HAL_Driver/Src/stm32l4xx_hal_firewall.c ****   @verbatim
  21:Drivers/STM32L4xx_HAL_Driver/Src/stm32l4xx_hal_firewall.c ****  ===============================================================================
  22:Drivers/STM32L4xx_HAL_Driver/Src/stm32l4xx_hal_firewall.c ****                         ##### How to use this driver #####
  23:Drivers/STM32L4xx_HAL_Driver/Src/stm32l4xx_hal_firewall.c ****  ===============================================================================
  24:Drivers/STM32L4xx_HAL_Driver/Src/stm32l4xx_hal_firewall.c ****   [..]
  25:Drivers/STM32L4xx_HAL_Driver/Src/stm32l4xx_hal_firewall.c ****     The FIREWALL HAL driver can be used as follows:
ARM GAS  /tmp/cchlXIps.s 			page 2


  26:Drivers/STM32L4xx_HAL_Driver/Src/stm32l4xx_hal_firewall.c **** 
  27:Drivers/STM32L4xx_HAL_Driver/Src/stm32l4xx_hal_firewall.c ****     (#) Declare a FIREWALL_InitTypeDef initialization structure.
  28:Drivers/STM32L4xx_HAL_Driver/Src/stm32l4xx_hal_firewall.c **** 
  29:Drivers/STM32L4xx_HAL_Driver/Src/stm32l4xx_hal_firewall.c ****     (#) Resort to HAL_FIREWALL_Config() API to initialize the Firewall
  30:Drivers/STM32L4xx_HAL_Driver/Src/stm32l4xx_hal_firewall.c **** 
  31:Drivers/STM32L4xx_HAL_Driver/Src/stm32l4xx_hal_firewall.c ****     (#) Enable the FIREWALL in calling HAL_FIREWALL_EnableFirewall() API
  32:Drivers/STM32L4xx_HAL_Driver/Src/stm32l4xx_hal_firewall.c **** 
  33:Drivers/STM32L4xx_HAL_Driver/Src/stm32l4xx_hal_firewall.c ****     (#) To ensure that any code executed outside the protected segment closes the
  34:Drivers/STM32L4xx_HAL_Driver/Src/stm32l4xx_hal_firewall.c ****         FIREWALL, the user must set the flag FIREWALL_PRE_ARM_SET in calling
  35:Drivers/STM32L4xx_HAL_Driver/Src/stm32l4xx_hal_firewall.c ****         __HAL_FIREWALL_PREARM_ENABLE() macro if called within a protected code segment
  36:Drivers/STM32L4xx_HAL_Driver/Src/stm32l4xx_hal_firewall.c ****         or
  37:Drivers/STM32L4xx_HAL_Driver/Src/stm32l4xx_hal_firewall.c ****         HAL_FIREWALL_EnablePreArmFlag() API if called outside of protected code segment
  38:Drivers/STM32L4xx_HAL_Driver/Src/stm32l4xx_hal_firewall.c ****         after HAL_FIREWALL_Config() call.
  39:Drivers/STM32L4xx_HAL_Driver/Src/stm32l4xx_hal_firewall.c **** 
  40:Drivers/STM32L4xx_HAL_Driver/Src/stm32l4xx_hal_firewall.c **** 
  41:Drivers/STM32L4xx_HAL_Driver/Src/stm32l4xx_hal_firewall.c ****   @endverbatim
  42:Drivers/STM32L4xx_HAL_Driver/Src/stm32l4xx_hal_firewall.c ****   ******************************************************************************
  43:Drivers/STM32L4xx_HAL_Driver/Src/stm32l4xx_hal_firewall.c ****   */
  44:Drivers/STM32L4xx_HAL_Driver/Src/stm32l4xx_hal_firewall.c **** 
  45:Drivers/STM32L4xx_HAL_Driver/Src/stm32l4xx_hal_firewall.c **** /* Includes ------------------------------------------------------------------*/
  46:Drivers/STM32L4xx_HAL_Driver/Src/stm32l4xx_hal_firewall.c **** #include "stm32l4xx_hal.h"
  47:Drivers/STM32L4xx_HAL_Driver/Src/stm32l4xx_hal_firewall.c **** 
  48:Drivers/STM32L4xx_HAL_Driver/Src/stm32l4xx_hal_firewall.c **** /** @addtogroup STM32L4xx_HAL_Driver
  49:Drivers/STM32L4xx_HAL_Driver/Src/stm32l4xx_hal_firewall.c ****   * @{
  50:Drivers/STM32L4xx_HAL_Driver/Src/stm32l4xx_hal_firewall.c ****   */
  51:Drivers/STM32L4xx_HAL_Driver/Src/stm32l4xx_hal_firewall.c **** 
  52:Drivers/STM32L4xx_HAL_Driver/Src/stm32l4xx_hal_firewall.c **** /** @defgroup FIREWALL FIREWALL
  53:Drivers/STM32L4xx_HAL_Driver/Src/stm32l4xx_hal_firewall.c ****   * @brief HAL FIREWALL module driver
  54:Drivers/STM32L4xx_HAL_Driver/Src/stm32l4xx_hal_firewall.c ****   * @{
  55:Drivers/STM32L4xx_HAL_Driver/Src/stm32l4xx_hal_firewall.c ****   */
  56:Drivers/STM32L4xx_HAL_Driver/Src/stm32l4xx_hal_firewall.c **** #ifdef HAL_FIREWALL_MODULE_ENABLED
  57:Drivers/STM32L4xx_HAL_Driver/Src/stm32l4xx_hal_firewall.c **** 
  58:Drivers/STM32L4xx_HAL_Driver/Src/stm32l4xx_hal_firewall.c **** /* Private typedef -----------------------------------------------------------*/
  59:Drivers/STM32L4xx_HAL_Driver/Src/stm32l4xx_hal_firewall.c **** /* Private define ------------------------------------------------------------*/
  60:Drivers/STM32L4xx_HAL_Driver/Src/stm32l4xx_hal_firewall.c **** /* Private macro -------------------------------------------------------------*/
  61:Drivers/STM32L4xx_HAL_Driver/Src/stm32l4xx_hal_firewall.c **** /* Private variables ---------------------------------------------------------*/
  62:Drivers/STM32L4xx_HAL_Driver/Src/stm32l4xx_hal_firewall.c **** /* Private function prototypes -----------------------------------------------*/
  63:Drivers/STM32L4xx_HAL_Driver/Src/stm32l4xx_hal_firewall.c **** /* Private functions ---------------------------------------------------------*/
  64:Drivers/STM32L4xx_HAL_Driver/Src/stm32l4xx_hal_firewall.c **** 
  65:Drivers/STM32L4xx_HAL_Driver/Src/stm32l4xx_hal_firewall.c **** 
  66:Drivers/STM32L4xx_HAL_Driver/Src/stm32l4xx_hal_firewall.c **** /** @defgroup FIREWALL_Exported_Functions FIREWALL Exported Functions
  67:Drivers/STM32L4xx_HAL_Driver/Src/stm32l4xx_hal_firewall.c ****   * @{
  68:Drivers/STM32L4xx_HAL_Driver/Src/stm32l4xx_hal_firewall.c ****   */
  69:Drivers/STM32L4xx_HAL_Driver/Src/stm32l4xx_hal_firewall.c **** 
  70:Drivers/STM32L4xx_HAL_Driver/Src/stm32l4xx_hal_firewall.c **** /** @defgroup FIREWALL_Exported_Functions_Group1 Initialization Functions
  71:Drivers/STM32L4xx_HAL_Driver/Src/stm32l4xx_hal_firewall.c ****   * @brief    Initialization and Configuration Functions
  72:Drivers/STM32L4xx_HAL_Driver/Src/stm32l4xx_hal_firewall.c ****   *
  73:Drivers/STM32L4xx_HAL_Driver/Src/stm32l4xx_hal_firewall.c **** @verbatim
  74:Drivers/STM32L4xx_HAL_Driver/Src/stm32l4xx_hal_firewall.c **** ===============================================================================
  75:Drivers/STM32L4xx_HAL_Driver/Src/stm32l4xx_hal_firewall.c ****             ##### Initialization and Configuration functions #####
  76:Drivers/STM32L4xx_HAL_Driver/Src/stm32l4xx_hal_firewall.c ****  ===============================================================================
  77:Drivers/STM32L4xx_HAL_Driver/Src/stm32l4xx_hal_firewall.c ****     [..]
  78:Drivers/STM32L4xx_HAL_Driver/Src/stm32l4xx_hal_firewall.c ****     This subsection provides the functions allowing to initialize the Firewall.
  79:Drivers/STM32L4xx_HAL_Driver/Src/stm32l4xx_hal_firewall.c ****     Initialization is done by HAL_FIREWALL_Config():
  80:Drivers/STM32L4xx_HAL_Driver/Src/stm32l4xx_hal_firewall.c **** 
  81:Drivers/STM32L4xx_HAL_Driver/Src/stm32l4xx_hal_firewall.c ****       (+) Enable the Firewall clock through __HAL_RCC_FIREWALL_CLK_ENABLE() macro.
  82:Drivers/STM32L4xx_HAL_Driver/Src/stm32l4xx_hal_firewall.c **** 
ARM GAS  /tmp/cchlXIps.s 			page 3


  83:Drivers/STM32L4xx_HAL_Driver/Src/stm32l4xx_hal_firewall.c ****       (+) Set the protected code segment address start and length.
  84:Drivers/STM32L4xx_HAL_Driver/Src/stm32l4xx_hal_firewall.c **** 
  85:Drivers/STM32L4xx_HAL_Driver/Src/stm32l4xx_hal_firewall.c ****       (+) Set the protected non-volatile and/or volatile data segments
  86:Drivers/STM32L4xx_HAL_Driver/Src/stm32l4xx_hal_firewall.c ****           address starts and lengths if applicable.
  87:Drivers/STM32L4xx_HAL_Driver/Src/stm32l4xx_hal_firewall.c **** 
  88:Drivers/STM32L4xx_HAL_Driver/Src/stm32l4xx_hal_firewall.c ****       (+) Set the volatile data segment execution and sharing status.
  89:Drivers/STM32L4xx_HAL_Driver/Src/stm32l4xx_hal_firewall.c **** 
  90:Drivers/STM32L4xx_HAL_Driver/Src/stm32l4xx_hal_firewall.c ****       (+) Length must be set to 0 for an unprotected segment.
  91:Drivers/STM32L4xx_HAL_Driver/Src/stm32l4xx_hal_firewall.c **** 
  92:Drivers/STM32L4xx_HAL_Driver/Src/stm32l4xx_hal_firewall.c **** @endverbatim
  93:Drivers/STM32L4xx_HAL_Driver/Src/stm32l4xx_hal_firewall.c ****   * @{
  94:Drivers/STM32L4xx_HAL_Driver/Src/stm32l4xx_hal_firewall.c ****   */
  95:Drivers/STM32L4xx_HAL_Driver/Src/stm32l4xx_hal_firewall.c **** 
  96:Drivers/STM32L4xx_HAL_Driver/Src/stm32l4xx_hal_firewall.c **** /**
  97:Drivers/STM32L4xx_HAL_Driver/Src/stm32l4xx_hal_firewall.c ****   * @brief Initialize the Firewall according to the FIREWALL_InitTypeDef structure parameters.
  98:Drivers/STM32L4xx_HAL_Driver/Src/stm32l4xx_hal_firewall.c ****   * @param fw_init: Firewall initialization structure
  99:Drivers/STM32L4xx_HAL_Driver/Src/stm32l4xx_hal_firewall.c ****   * @note  The API returns HAL_ERROR if the Firewall is already enabled.
 100:Drivers/STM32L4xx_HAL_Driver/Src/stm32l4xx_hal_firewall.c ****   * @retval HAL status
 101:Drivers/STM32L4xx_HAL_Driver/Src/stm32l4xx_hal_firewall.c ****   */
 102:Drivers/STM32L4xx_HAL_Driver/Src/stm32l4xx_hal_firewall.c **** HAL_StatusTypeDef HAL_FIREWALL_Config(FIREWALL_InitTypeDef * fw_init)
 103:Drivers/STM32L4xx_HAL_Driver/Src/stm32l4xx_hal_firewall.c **** {
  35              		.loc 1 103 1
  36              		.cfi_startproc
  37              		@ args = 0, pretend = 0, frame = 16
  38              		@ frame_needed = 1, uses_anonymous_args = 0
  39              		@ link register save eliminated.
  40 0000 80B4     		push	{r7}
  41              		.cfi_def_cfa_offset 4
  42              		.cfi_offset 7, -4
  43 0002 85B0     		sub	sp, sp, #20
  44              		.cfi_def_cfa_offset 24
  45 0004 00AF     		add	r7, sp, #0
  46              		.cfi_def_cfa_register 7
  47 0006 7860     		str	r0, [r7, #4]
 104:Drivers/STM32L4xx_HAL_Driver/Src/stm32l4xx_hal_firewall.c ****   /* Check the Firewall initialization structure allocation */
 105:Drivers/STM32L4xx_HAL_Driver/Src/stm32l4xx_hal_firewall.c ****   if(fw_init == NULL)
  48              		.loc 1 105 5
  49 0008 7B68     		ldr	r3, [r7, #4]
  50 000a 002B     		cmp	r3, #0
  51 000c 01D1     		bne	.L2
 106:Drivers/STM32L4xx_HAL_Driver/Src/stm32l4xx_hal_firewall.c ****   {
 107:Drivers/STM32L4xx_HAL_Driver/Src/stm32l4xx_hal_firewall.c ****     return HAL_ERROR;
  52              		.loc 1 107 12
  53 000e 0123     		movs	r3, #1
  54 0010 52E0     		b	.L3
  55              	.L2:
  56              	.LBB2:
 108:Drivers/STM32L4xx_HAL_Driver/Src/stm32l4xx_hal_firewall.c ****   }
 109:Drivers/STM32L4xx_HAL_Driver/Src/stm32l4xx_hal_firewall.c **** 
 110:Drivers/STM32L4xx_HAL_Driver/Src/stm32l4xx_hal_firewall.c ****   /* Enable Firewall clock */
 111:Drivers/STM32L4xx_HAL_Driver/Src/stm32l4xx_hal_firewall.c ****   __HAL_RCC_FIREWALL_CLK_ENABLE();
  57              		.loc 1 111 3
  58 0012 2C4B     		ldr	r3, .L6
  59 0014 1B6E     		ldr	r3, [r3, #96]
  60 0016 2B4A     		ldr	r2, .L6
  61 0018 43F08003 		orr	r3, r3, #128
  62 001c 1366     		str	r3, [r2, #96]
ARM GAS  /tmp/cchlXIps.s 			page 4


  63 001e 294B     		ldr	r3, .L6
  64 0020 1B6E     		ldr	r3, [r3, #96]
  65 0022 03F08003 		and	r3, r3, #128
  66 0026 FB60     		str	r3, [r7, #12]
  67 0028 FB68     		ldr	r3, [r7, #12]
  68              	.LBE2:
 112:Drivers/STM32L4xx_HAL_Driver/Src/stm32l4xx_hal_firewall.c **** 
 113:Drivers/STM32L4xx_HAL_Driver/Src/stm32l4xx_hal_firewall.c ****   /* Make sure that Firewall is not enabled already */
 114:Drivers/STM32L4xx_HAL_Driver/Src/stm32l4xx_hal_firewall.c ****   if (__HAL_FIREWALL_IS_ENABLED() != RESET)
  69              		.loc 1 114 7
  70 002a 274B     		ldr	r3, .L6+4
  71 002c 5B68     		ldr	r3, [r3, #4]
  72 002e 03F00103 		and	r3, r3, #1
  73              		.loc 1 114 6
  74 0032 002B     		cmp	r3, #0
  75 0034 01D1     		bne	.L4
 115:Drivers/STM32L4xx_HAL_Driver/Src/stm32l4xx_hal_firewall.c ****   {
 116:Drivers/STM32L4xx_HAL_Driver/Src/stm32l4xx_hal_firewall.c ****     return HAL_ERROR;
  76              		.loc 1 116 12
  77 0036 0123     		movs	r3, #1
  78 0038 3EE0     		b	.L3
  79              	.L4:
 117:Drivers/STM32L4xx_HAL_Driver/Src/stm32l4xx_hal_firewall.c ****   }
 118:Drivers/STM32L4xx_HAL_Driver/Src/stm32l4xx_hal_firewall.c **** 
 119:Drivers/STM32L4xx_HAL_Driver/Src/stm32l4xx_hal_firewall.c ****   /* Check Firewall configuration addresses and lengths when segment is protected */
 120:Drivers/STM32L4xx_HAL_Driver/Src/stm32l4xx_hal_firewall.c ****   /* Code segment */
 121:Drivers/STM32L4xx_HAL_Driver/Src/stm32l4xx_hal_firewall.c ****   if (fw_init->CodeSegmentLength != 0U)
  80              		.loc 1 121 14
  81 003a 7B68     		ldr	r3, [r7, #4]
  82 003c 5B68     		ldr	r3, [r3, #4]
  83              		.loc 1 121 6
  84 003e 002B     		cmp	r3, #0
  85 0040 05D0     		beq	.L5
 122:Drivers/STM32L4xx_HAL_Driver/Src/stm32l4xx_hal_firewall.c ****   {
 123:Drivers/STM32L4xx_HAL_Driver/Src/stm32l4xx_hal_firewall.c ****     assert_param(IS_FIREWALL_CODE_SEGMENT_ADDRESS(fw_init->CodeSegmentStartAddress));
 124:Drivers/STM32L4xx_HAL_Driver/Src/stm32l4xx_hal_firewall.c ****     assert_param(IS_FIREWALL_CODE_SEGMENT_LENGTH(fw_init->CodeSegmentStartAddress, fw_init->CodeSeg
 125:Drivers/STM32L4xx_HAL_Driver/Src/stm32l4xx_hal_firewall.c ****     /* Make sure that NonVDataSegmentLength is properly set to prevent code segment access */
 126:Drivers/STM32L4xx_HAL_Driver/Src/stm32l4xx_hal_firewall.c ****     if (fw_init->NonVDataSegmentLength < 0x100U)
  86              		.loc 1 126 16
  87 0042 7B68     		ldr	r3, [r7, #4]
  88 0044 DB68     		ldr	r3, [r3, #12]
  89              		.loc 1 126 8
  90 0046 FF2B     		cmp	r3, #255
  91 0048 01D8     		bhi	.L5
 127:Drivers/STM32L4xx_HAL_Driver/Src/stm32l4xx_hal_firewall.c ****     {
 128:Drivers/STM32L4xx_HAL_Driver/Src/stm32l4xx_hal_firewall.c ****       return HAL_ERROR;
  92              		.loc 1 128 14
  93 004a 0123     		movs	r3, #1
  94 004c 34E0     		b	.L3
  95              	.L5:
 129:Drivers/STM32L4xx_HAL_Driver/Src/stm32l4xx_hal_firewall.c ****     }
 130:Drivers/STM32L4xx_HAL_Driver/Src/stm32l4xx_hal_firewall.c ****   }
 131:Drivers/STM32L4xx_HAL_Driver/Src/stm32l4xx_hal_firewall.c ****   /* Non volatile data segment */
 132:Drivers/STM32L4xx_HAL_Driver/Src/stm32l4xx_hal_firewall.c ****   if (fw_init->NonVDataSegmentLength != 0U)
 133:Drivers/STM32L4xx_HAL_Driver/Src/stm32l4xx_hal_firewall.c ****   {
 134:Drivers/STM32L4xx_HAL_Driver/Src/stm32l4xx_hal_firewall.c ****     assert_param(IS_FIREWALL_NONVOLATILEDATA_SEGMENT_ADDRESS(fw_init->NonVDataSegmentStartAddress))
 135:Drivers/STM32L4xx_HAL_Driver/Src/stm32l4xx_hal_firewall.c ****     assert_param(IS_FIREWALL_NONVOLATILEDATA_SEGMENT_LENGTH(fw_init->NonVDataSegmentStartAddress, f
ARM GAS  /tmp/cchlXIps.s 			page 5


 136:Drivers/STM32L4xx_HAL_Driver/Src/stm32l4xx_hal_firewall.c ****   }
 137:Drivers/STM32L4xx_HAL_Driver/Src/stm32l4xx_hal_firewall.c ****   /* Volatile data segment */
 138:Drivers/STM32L4xx_HAL_Driver/Src/stm32l4xx_hal_firewall.c ****   if (fw_init->VDataSegmentLength != 0U)
 139:Drivers/STM32L4xx_HAL_Driver/Src/stm32l4xx_hal_firewall.c ****   {
 140:Drivers/STM32L4xx_HAL_Driver/Src/stm32l4xx_hal_firewall.c ****     assert_param(IS_FIREWALL_VOLATILEDATA_SEGMENT_ADDRESS(fw_init->VDataSegmentStartAddress));
 141:Drivers/STM32L4xx_HAL_Driver/Src/stm32l4xx_hal_firewall.c ****     assert_param(IS_FIREWALL_VOLATILEDATA_SEGMENT_LENGTH(fw_init->VDataSegmentStartAddress, fw_init
 142:Drivers/STM32L4xx_HAL_Driver/Src/stm32l4xx_hal_firewall.c ****   }
 143:Drivers/STM32L4xx_HAL_Driver/Src/stm32l4xx_hal_firewall.c **** 
 144:Drivers/STM32L4xx_HAL_Driver/Src/stm32l4xx_hal_firewall.c ****   /* Check Firewall Configuration Register parameters */
 145:Drivers/STM32L4xx_HAL_Driver/Src/stm32l4xx_hal_firewall.c ****   assert_param(IS_FIREWALL_VOLATILEDATA_EXECUTE(fw_init->VolatileDataExecution));
 146:Drivers/STM32L4xx_HAL_Driver/Src/stm32l4xx_hal_firewall.c ****   assert_param(IS_FIREWALL_VOLATILEDATA_SHARE(fw_init->VolatileDataShared));
 147:Drivers/STM32L4xx_HAL_Driver/Src/stm32l4xx_hal_firewall.c **** 
 148:Drivers/STM32L4xx_HAL_Driver/Src/stm32l4xx_hal_firewall.c **** 
 149:Drivers/STM32L4xx_HAL_Driver/Src/stm32l4xx_hal_firewall.c ****    /* Configuration */
 150:Drivers/STM32L4xx_HAL_Driver/Src/stm32l4xx_hal_firewall.c **** 
 151:Drivers/STM32L4xx_HAL_Driver/Src/stm32l4xx_hal_firewall.c ****   /* Protected code segment start address configuration */
 152:Drivers/STM32L4xx_HAL_Driver/Src/stm32l4xx_hal_firewall.c ****   WRITE_REG(FIREWALL->CSSA, (FW_CSSA_ADD & fw_init->CodeSegmentStartAddress));
  96              		.loc 1 152 3
  97 004e 7B68     		ldr	r3, [r7, #4]
  98 0050 1B68     		ldr	r3, [r3]
  99 0052 1E4A     		ldr	r2, .L6+8
 100 0054 23F07F43 		bic	r3, r3, #-16777216
 101 0058 23F0FF03 		bic	r3, r3, #255
 102 005c 1360     		str	r3, [r2]
 153:Drivers/STM32L4xx_HAL_Driver/Src/stm32l4xx_hal_firewall.c **** 	/* Protected code segment length configuration */
 154:Drivers/STM32L4xx_HAL_Driver/Src/stm32l4xx_hal_firewall.c ****   WRITE_REG(FIREWALL->CSL, (FW_CSL_LENG & fw_init->CodeSegmentLength));
 103              		.loc 1 154 3
 104 005e 7B68     		ldr	r3, [r7, #4]
 105 0060 5A68     		ldr	r2, [r3, #4]
 106 0062 1A49     		ldr	r1, .L6+8
 107 0064 1A4B     		ldr	r3, .L6+12
 108 0066 1340     		ands	r3, r3, r2
 109 0068 4B60     		str	r3, [r1, #4]
 155:Drivers/STM32L4xx_HAL_Driver/Src/stm32l4xx_hal_firewall.c **** 
 156:Drivers/STM32L4xx_HAL_Driver/Src/stm32l4xx_hal_firewall.c ****   /* Protected non volatile data segment start address configuration */
 157:Drivers/STM32L4xx_HAL_Driver/Src/stm32l4xx_hal_firewall.c ****   WRITE_REG(FIREWALL->NVDSSA, (FW_NVDSSA_ADD & fw_init->NonVDataSegmentStartAddress));
 110              		.loc 1 157 3
 111 006a 7B68     		ldr	r3, [r7, #4]
 112 006c 9B68     		ldr	r3, [r3, #8]
 113 006e 174A     		ldr	r2, .L6+8
 114 0070 23F07F43 		bic	r3, r3, #-16777216
 115 0074 23F0FF03 		bic	r3, r3, #255
 116 0078 9360     		str	r3, [r2, #8]
 158:Drivers/STM32L4xx_HAL_Driver/Src/stm32l4xx_hal_firewall.c **** 	/* Protected non volatile data segment length configuration */
 159:Drivers/STM32L4xx_HAL_Driver/Src/stm32l4xx_hal_firewall.c ****   WRITE_REG(FIREWALL->NVDSL, (FW_NVDSL_LENG & fw_init->NonVDataSegmentLength));
 117              		.loc 1 159 3
 118 007a 7B68     		ldr	r3, [r7, #4]
 119 007c DA68     		ldr	r2, [r3, #12]
 120 007e 1349     		ldr	r1, .L6+8
 121 0080 134B     		ldr	r3, .L6+12
 122 0082 1340     		ands	r3, r3, r2
 123 0084 CB60     		str	r3, [r1, #12]
 160:Drivers/STM32L4xx_HAL_Driver/Src/stm32l4xx_hal_firewall.c **** 
 161:Drivers/STM32L4xx_HAL_Driver/Src/stm32l4xx_hal_firewall.c ****   /* Protected volatile data segment start address configuration */
 162:Drivers/STM32L4xx_HAL_Driver/Src/stm32l4xx_hal_firewall.c ****   WRITE_REG(FIREWALL->VDSSA, (FW_VDSSA_ADD & fw_init->VDataSegmentStartAddress));
 124              		.loc 1 162 3
 125 0086 7B68     		ldr	r3, [r7, #4]
ARM GAS  /tmp/cchlXIps.s 			page 6


 126 0088 1A69     		ldr	r2, [r3, #16]
 127 008a 1049     		ldr	r1, .L6+8
 128 008c 114B     		ldr	r3, .L6+16
 129 008e 1340     		ands	r3, r3, r2
 130 0090 0B61     		str	r3, [r1, #16]
 163:Drivers/STM32L4xx_HAL_Driver/Src/stm32l4xx_hal_firewall.c **** 	/* Protected volatile data segment length configuration */
 164:Drivers/STM32L4xx_HAL_Driver/Src/stm32l4xx_hal_firewall.c ****   WRITE_REG(FIREWALL->VDSL, (FW_VDSL_LENG & fw_init->VDataSegmentLength));
 131              		.loc 1 164 3
 132 0092 7B68     		ldr	r3, [r7, #4]
 133 0094 5A69     		ldr	r2, [r3, #20]
 134 0096 0D49     		ldr	r1, .L6+8
 135 0098 0E4B     		ldr	r3, .L6+16
 136 009a 1340     		ands	r3, r3, r2
 137 009c 4B61     		str	r3, [r1, #20]
 165:Drivers/STM32L4xx_HAL_Driver/Src/stm32l4xx_hal_firewall.c **** 
 166:Drivers/STM32L4xx_HAL_Driver/Src/stm32l4xx_hal_firewall.c ****   /* Set Firewall Configuration Register VDE and VDS bits
 167:Drivers/STM32L4xx_HAL_Driver/Src/stm32l4xx_hal_firewall.c ****      (volatile data execution and shared configuration) */
 168:Drivers/STM32L4xx_HAL_Driver/Src/stm32l4xx_hal_firewall.c ****   MODIFY_REG(FIREWALL->CR, FW_CR_VDS|FW_CR_VDE, fw_init->VolatileDataExecution|fw_init->VolatileDat
 138              		.loc 1 168 3
 139 009e 0B4B     		ldr	r3, .L6+8
 140 00a0 1B6A     		ldr	r3, [r3, #32]
 141 00a2 23F00602 		bic	r2, r3, #6
 142 00a6 7B68     		ldr	r3, [r7, #4]
 143 00a8 9969     		ldr	r1, [r3, #24]
 144 00aa 7B68     		ldr	r3, [r7, #4]
 145 00ac DB69     		ldr	r3, [r3, #28]
 146 00ae 0B43     		orrs	r3, r3, r1
 147 00b0 0649     		ldr	r1, .L6+8
 148 00b2 1343     		orrs	r3, r3, r2
 149 00b4 0B62     		str	r3, [r1, #32]
 169:Drivers/STM32L4xx_HAL_Driver/Src/stm32l4xx_hal_firewall.c **** 
 170:Drivers/STM32L4xx_HAL_Driver/Src/stm32l4xx_hal_firewall.c ****   return HAL_OK;
 150              		.loc 1 170 10
 151 00b6 0023     		movs	r3, #0
 152              	.L3:
 171:Drivers/STM32L4xx_HAL_Driver/Src/stm32l4xx_hal_firewall.c **** }
 153              		.loc 1 171 1
 154 00b8 1846     		mov	r0, r3
 155 00ba 1437     		adds	r7, r7, #20
 156              		.cfi_def_cfa_offset 4
 157 00bc BD46     		mov	sp, r7
 158              		.cfi_def_cfa_register 13
 159              		@ sp needed
 160 00be 5DF8047B 		ldr	r7, [sp], #4
 161              		.cfi_restore 7
 162              		.cfi_def_cfa_offset 0
 163 00c2 7047     		bx	lr
 164              	.L7:
 165              		.align	2
 166              	.L6:
 167 00c4 00100240 		.word	1073876992
 168 00c8 00000140 		.word	1073807360
 169 00cc 001C0140 		.word	1073814528
 170 00d0 00FF3F00 		.word	4194048
 171 00d4 C0FF0100 		.word	131008
 172              		.cfi_endproc
 173              	.LFE445:
ARM GAS  /tmp/cchlXIps.s 			page 7


 175              		.section	.text.HAL_FIREWALL_GetConfig,"ax",%progbits
 176              		.align	1
 177              		.global	HAL_FIREWALL_GetConfig
 178              		.syntax unified
 179              		.thumb
 180              		.thumb_func
 182              	HAL_FIREWALL_GetConfig:
 183              	.LFB446:
 172:Drivers/STM32L4xx_HAL_Driver/Src/stm32l4xx_hal_firewall.c **** 
 173:Drivers/STM32L4xx_HAL_Driver/Src/stm32l4xx_hal_firewall.c **** /**
 174:Drivers/STM32L4xx_HAL_Driver/Src/stm32l4xx_hal_firewall.c ****   * @brief Retrieve the Firewall configuration.
 175:Drivers/STM32L4xx_HAL_Driver/Src/stm32l4xx_hal_firewall.c ****   * @param fw_config: Firewall configuration, type is same as initialization structure
 176:Drivers/STM32L4xx_HAL_Driver/Src/stm32l4xx_hal_firewall.c ****   * @note This API can't be executed inside a code area protected by the Firewall
 177:Drivers/STM32L4xx_HAL_Driver/Src/stm32l4xx_hal_firewall.c ****   *       when the Firewall is enabled
 178:Drivers/STM32L4xx_HAL_Driver/Src/stm32l4xx_hal_firewall.c ****   * @note If NVDSL register is different from 0, that is, if the non volatile data segment
 179:Drivers/STM32L4xx_HAL_Driver/Src/stm32l4xx_hal_firewall.c ****   *       is defined, this API can't be executed when the Firewall is enabled.
 180:Drivers/STM32L4xx_HAL_Driver/Src/stm32l4xx_hal_firewall.c ****   * @note User should resort to __HAL_FIREWALL_GET_PREARM() macro to retrieve FPA bit status
 181:Drivers/STM32L4xx_HAL_Driver/Src/stm32l4xx_hal_firewall.c ****   * @retval None
 182:Drivers/STM32L4xx_HAL_Driver/Src/stm32l4xx_hal_firewall.c ****   */
 183:Drivers/STM32L4xx_HAL_Driver/Src/stm32l4xx_hal_firewall.c **** void HAL_FIREWALL_GetConfig(FIREWALL_InitTypeDef * fw_config)
 184:Drivers/STM32L4xx_HAL_Driver/Src/stm32l4xx_hal_firewall.c **** {
 184              		.loc 1 184 1
 185              		.cfi_startproc
 186              		@ args = 0, pretend = 0, frame = 16
 187              		@ frame_needed = 1, uses_anonymous_args = 0
 188              		@ link register save eliminated.
 189 0000 80B4     		push	{r7}
 190              		.cfi_def_cfa_offset 4
 191              		.cfi_offset 7, -4
 192 0002 85B0     		sub	sp, sp, #20
 193              		.cfi_def_cfa_offset 24
 194 0004 00AF     		add	r7, sp, #0
 195              		.cfi_def_cfa_register 7
 196 0006 7860     		str	r0, [r7, #4]
 197              	.LBB3:
 185:Drivers/STM32L4xx_HAL_Driver/Src/stm32l4xx_hal_firewall.c **** 
 186:Drivers/STM32L4xx_HAL_Driver/Src/stm32l4xx_hal_firewall.c ****   /* Enable Firewall clock, in case no Firewall configuration has been carried
 187:Drivers/STM32L4xx_HAL_Driver/Src/stm32l4xx_hal_firewall.c ****      out up to this point */
 188:Drivers/STM32L4xx_HAL_Driver/Src/stm32l4xx_hal_firewall.c ****   __HAL_RCC_FIREWALL_CLK_ENABLE();
 198              		.loc 1 188 3
 199 0008 224B     		ldr	r3, .L10
 200 000a 1B6E     		ldr	r3, [r3, #96]
 201 000c 214A     		ldr	r2, .L10
 202 000e 43F08003 		orr	r3, r3, #128
 203 0012 1366     		str	r3, [r2, #96]
 204 0014 1F4B     		ldr	r3, .L10
 205 0016 1B6E     		ldr	r3, [r3, #96]
 206 0018 03F08003 		and	r3, r3, #128
 207 001c FB60     		str	r3, [r7, #12]
 208 001e FB68     		ldr	r3, [r7, #12]
 209              	.LBE3:
 189:Drivers/STM32L4xx_HAL_Driver/Src/stm32l4xx_hal_firewall.c **** 
 190:Drivers/STM32L4xx_HAL_Driver/Src/stm32l4xx_hal_firewall.c ****   /* Retrieve code segment protection setting */
 191:Drivers/STM32L4xx_HAL_Driver/Src/stm32l4xx_hal_firewall.c ****   fw_config->CodeSegmentStartAddress = (READ_REG(FIREWALL->CSSA) & FW_CSSA_ADD);
 210              		.loc 1 191 41
 211 0020 1D4B     		ldr	r3, .L10+4
 212 0022 1B68     		ldr	r3, [r3]
ARM GAS  /tmp/cchlXIps.s 			page 8


 213              		.loc 1 191 66
 214 0024 23F07F43 		bic	r3, r3, #-16777216
 215 0028 23F0FF03 		bic	r3, r3, #255
 216              		.loc 1 191 38
 217 002c 7A68     		ldr	r2, [r7, #4]
 218 002e 1360     		str	r3, [r2]
 192:Drivers/STM32L4xx_HAL_Driver/Src/stm32l4xx_hal_firewall.c ****   fw_config->CodeSegmentLength = (READ_REG(FIREWALL->CSL) & FW_CSL_LENG);
 219              		.loc 1 192 35
 220 0030 194B     		ldr	r3, .L10+4
 221 0032 5A68     		ldr	r2, [r3, #4]
 222              		.loc 1 192 59
 223 0034 194B     		ldr	r3, .L10+8
 224 0036 1340     		ands	r3, r3, r2
 225              		.loc 1 192 32
 226 0038 7A68     		ldr	r2, [r7, #4]
 227 003a 5360     		str	r3, [r2, #4]
 193:Drivers/STM32L4xx_HAL_Driver/Src/stm32l4xx_hal_firewall.c **** 
 194:Drivers/STM32L4xx_HAL_Driver/Src/stm32l4xx_hal_firewall.c ****   /* Retrieve non volatile data segment protection setting */
 195:Drivers/STM32L4xx_HAL_Driver/Src/stm32l4xx_hal_firewall.c ****   fw_config->NonVDataSegmentStartAddress = (READ_REG(FIREWALL->NVDSSA) & FW_NVDSSA_ADD);
 228              		.loc 1 195 45
 229 003c 164B     		ldr	r3, .L10+4
 230 003e 9B68     		ldr	r3, [r3, #8]
 231              		.loc 1 195 72
 232 0040 23F07F43 		bic	r3, r3, #-16777216
 233 0044 23F0FF03 		bic	r3, r3, #255
 234              		.loc 1 195 42
 235 0048 7A68     		ldr	r2, [r7, #4]
 236 004a 9360     		str	r3, [r2, #8]
 196:Drivers/STM32L4xx_HAL_Driver/Src/stm32l4xx_hal_firewall.c ****   fw_config->NonVDataSegmentLength = (READ_REG(FIREWALL->NVDSL) & FW_NVDSL_LENG);
 237              		.loc 1 196 39
 238 004c 124B     		ldr	r3, .L10+4
 239 004e DA68     		ldr	r2, [r3, #12]
 240              		.loc 1 196 65
 241 0050 124B     		ldr	r3, .L10+8
 242 0052 1340     		ands	r3, r3, r2
 243              		.loc 1 196 36
 244 0054 7A68     		ldr	r2, [r7, #4]
 245 0056 D360     		str	r3, [r2, #12]
 197:Drivers/STM32L4xx_HAL_Driver/Src/stm32l4xx_hal_firewall.c **** 
 198:Drivers/STM32L4xx_HAL_Driver/Src/stm32l4xx_hal_firewall.c ****   /* Retrieve volatile data segment protection setting */
 199:Drivers/STM32L4xx_HAL_Driver/Src/stm32l4xx_hal_firewall.c ****   fw_config->VDataSegmentStartAddress = (READ_REG(FIREWALL->VDSSA) & FW_VDSSA_ADD);
 246              		.loc 1 199 42
 247 0058 0F4B     		ldr	r3, .L10+4
 248 005a 1A69     		ldr	r2, [r3, #16]
 249              		.loc 1 199 68
 250 005c 104B     		ldr	r3, .L10+12
 251 005e 1340     		ands	r3, r3, r2
 252              		.loc 1 199 39
 253 0060 7A68     		ldr	r2, [r7, #4]
 254 0062 1361     		str	r3, [r2, #16]
 200:Drivers/STM32L4xx_HAL_Driver/Src/stm32l4xx_hal_firewall.c ****   fw_config->VDataSegmentLength = (READ_REG(FIREWALL->VDSL) & FW_VDSL_LENG);
 255              		.loc 1 200 36
 256 0064 0C4B     		ldr	r3, .L10+4
 257 0066 5A69     		ldr	r2, [r3, #20]
 258              		.loc 1 200 61
 259 0068 0D4B     		ldr	r3, .L10+12
 260 006a 1340     		ands	r3, r3, r2
ARM GAS  /tmp/cchlXIps.s 			page 9


 261              		.loc 1 200 33
 262 006c 7A68     		ldr	r2, [r7, #4]
 263 006e 5361     		str	r3, [r2, #20]
 201:Drivers/STM32L4xx_HAL_Driver/Src/stm32l4xx_hal_firewall.c **** 
 202:Drivers/STM32L4xx_HAL_Driver/Src/stm32l4xx_hal_firewall.c ****   /* Retrieve volatile data execution setting */
 203:Drivers/STM32L4xx_HAL_Driver/Src/stm32l4xx_hal_firewall.c ****   fw_config->VolatileDataExecution = (READ_REG(FIREWALL->CR) & FW_CR_VDE);
 264              		.loc 1 203 39
 265 0070 094B     		ldr	r3, .L10+4
 266 0072 1B6A     		ldr	r3, [r3, #32]
 267              		.loc 1 203 62
 268 0074 03F00402 		and	r2, r3, #4
 269              		.loc 1 203 36
 270 0078 7B68     		ldr	r3, [r7, #4]
 271 007a 9A61     		str	r2, [r3, #24]
 204:Drivers/STM32L4xx_HAL_Driver/Src/stm32l4xx_hal_firewall.c **** 
 205:Drivers/STM32L4xx_HAL_Driver/Src/stm32l4xx_hal_firewall.c ****   /* Retrieve volatile data shared setting */
 206:Drivers/STM32L4xx_HAL_Driver/Src/stm32l4xx_hal_firewall.c ****   fw_config->VolatileDataShared = (READ_REG(FIREWALL->CR) & FW_CR_VDS);
 272              		.loc 1 206 36
 273 007c 064B     		ldr	r3, .L10+4
 274 007e 1B6A     		ldr	r3, [r3, #32]
 275              		.loc 1 206 59
 276 0080 03F00202 		and	r2, r3, #2
 277              		.loc 1 206 33
 278 0084 7B68     		ldr	r3, [r7, #4]
 279 0086 DA61     		str	r2, [r3, #28]
 207:Drivers/STM32L4xx_HAL_Driver/Src/stm32l4xx_hal_firewall.c **** 
 208:Drivers/STM32L4xx_HAL_Driver/Src/stm32l4xx_hal_firewall.c ****   return;
 280              		.loc 1 208 3
 281 0088 00BF     		nop
 209:Drivers/STM32L4xx_HAL_Driver/Src/stm32l4xx_hal_firewall.c **** }
 282              		.loc 1 209 1
 283 008a 1437     		adds	r7, r7, #20
 284              		.cfi_def_cfa_offset 4
 285 008c BD46     		mov	sp, r7
 286              		.cfi_def_cfa_register 13
 287              		@ sp needed
 288 008e 5DF8047B 		ldr	r7, [sp], #4
 289              		.cfi_restore 7
 290              		.cfi_def_cfa_offset 0
 291 0092 7047     		bx	lr
 292              	.L11:
 293              		.align	2
 294              	.L10:
 295 0094 00100240 		.word	1073876992
 296 0098 001C0140 		.word	1073814528
 297 009c 00FF3F00 		.word	4194048
 298 00a0 C0FF0100 		.word	131008
 299              		.cfi_endproc
 300              	.LFE446:
 302              		.section	.text.HAL_FIREWALL_EnableFirewall,"ax",%progbits
 303              		.align	1
 304              		.global	HAL_FIREWALL_EnableFirewall
 305              		.syntax unified
 306              		.thumb
 307              		.thumb_func
 309              	HAL_FIREWALL_EnableFirewall:
 310              	.LFB447:
ARM GAS  /tmp/cchlXIps.s 			page 10


 210:Drivers/STM32L4xx_HAL_Driver/Src/stm32l4xx_hal_firewall.c **** 
 211:Drivers/STM32L4xx_HAL_Driver/Src/stm32l4xx_hal_firewall.c **** 
 212:Drivers/STM32L4xx_HAL_Driver/Src/stm32l4xx_hal_firewall.c **** 
 213:Drivers/STM32L4xx_HAL_Driver/Src/stm32l4xx_hal_firewall.c **** /**
 214:Drivers/STM32L4xx_HAL_Driver/Src/stm32l4xx_hal_firewall.c ****   * @brief Enable FIREWALL.
 215:Drivers/STM32L4xx_HAL_Driver/Src/stm32l4xx_hal_firewall.c ****   * @note Firewall is enabled in clearing FWDIS bit of SYSCFG CFGR1 register.
 216:Drivers/STM32L4xx_HAL_Driver/Src/stm32l4xx_hal_firewall.c ****   *       Once enabled, the Firewall cannot be disabled by software. Only a
 217:Drivers/STM32L4xx_HAL_Driver/Src/stm32l4xx_hal_firewall.c ****   *       system reset can set again FWDIS bit.
 218:Drivers/STM32L4xx_HAL_Driver/Src/stm32l4xx_hal_firewall.c ****   * @retval None
 219:Drivers/STM32L4xx_HAL_Driver/Src/stm32l4xx_hal_firewall.c ****   */
 220:Drivers/STM32L4xx_HAL_Driver/Src/stm32l4xx_hal_firewall.c **** void HAL_FIREWALL_EnableFirewall(void)
 221:Drivers/STM32L4xx_HAL_Driver/Src/stm32l4xx_hal_firewall.c **** {
 311              		.loc 1 221 1
 312              		.cfi_startproc
 313              		@ args = 0, pretend = 0, frame = 0
 314              		@ frame_needed = 1, uses_anonymous_args = 0
 315              		@ link register save eliminated.
 316 0000 80B4     		push	{r7}
 317              		.cfi_def_cfa_offset 4
 318              		.cfi_offset 7, -4
 319 0002 00AF     		add	r7, sp, #0
 320              		.cfi_def_cfa_register 7
 222:Drivers/STM32L4xx_HAL_Driver/Src/stm32l4xx_hal_firewall.c ****   /* Clears FWDIS bit of SYSCFG CFGR1 register */
 223:Drivers/STM32L4xx_HAL_Driver/Src/stm32l4xx_hal_firewall.c ****   CLEAR_BIT(SYSCFG->CFGR1, SYSCFG_CFGR1_FWDIS);
 321              		.loc 1 223 3
 322 0004 054B     		ldr	r3, .L13
 323 0006 5B68     		ldr	r3, [r3, #4]
 324 0008 044A     		ldr	r2, .L13
 325 000a 23F00103 		bic	r3, r3, #1
 326 000e 5360     		str	r3, [r2, #4]
 224:Drivers/STM32L4xx_HAL_Driver/Src/stm32l4xx_hal_firewall.c **** 
 225:Drivers/STM32L4xx_HAL_Driver/Src/stm32l4xx_hal_firewall.c **** }
 327              		.loc 1 225 1
 328 0010 00BF     		nop
 329 0012 BD46     		mov	sp, r7
 330              		.cfi_def_cfa_register 13
 331              		@ sp needed
 332 0014 5DF8047B 		ldr	r7, [sp], #4
 333              		.cfi_restore 7
 334              		.cfi_def_cfa_offset 0
 335 0018 7047     		bx	lr
 336              	.L14:
 337 001a 00BF     		.align	2
 338              	.L13:
 339 001c 00000140 		.word	1073807360
 340              		.cfi_endproc
 341              	.LFE447:
 343              		.section	.text.HAL_FIREWALL_EnablePreArmFlag,"ax",%progbits
 344              		.align	1
 345              		.global	HAL_FIREWALL_EnablePreArmFlag
 346              		.syntax unified
 347              		.thumb
 348              		.thumb_func
 350              	HAL_FIREWALL_EnablePreArmFlag:
 351              	.LFB448:
 226:Drivers/STM32L4xx_HAL_Driver/Src/stm32l4xx_hal_firewall.c **** 
 227:Drivers/STM32L4xx_HAL_Driver/Src/stm32l4xx_hal_firewall.c **** /**
ARM GAS  /tmp/cchlXIps.s 			page 11


 228:Drivers/STM32L4xx_HAL_Driver/Src/stm32l4xx_hal_firewall.c ****   * @brief Enable FIREWALL pre arm.
 229:Drivers/STM32L4xx_HAL_Driver/Src/stm32l4xx_hal_firewall.c ****   * @note When FPA bit is set, any code executed outside the protected segment
 230:Drivers/STM32L4xx_HAL_Driver/Src/stm32l4xx_hal_firewall.c ****   *       will close the Firewall.
 231:Drivers/STM32L4xx_HAL_Driver/Src/stm32l4xx_hal_firewall.c ****   * @note This API provides the same service as __HAL_FIREWALL_PREARM_ENABLE() macro
 232:Drivers/STM32L4xx_HAL_Driver/Src/stm32l4xx_hal_firewall.c ****   *       but can't be executed inside a code area protected by the Firewall.
 233:Drivers/STM32L4xx_HAL_Driver/Src/stm32l4xx_hal_firewall.c ****   * @note When the Firewall is disabled, user can resort to HAL_FIREWALL_EnablePreArmFlag() API any
 234:Drivers/STM32L4xx_HAL_Driver/Src/stm32l4xx_hal_firewall.c ****   * @note When the Firewall is enabled and NVDSL register is equal to 0 (that is,
 235:Drivers/STM32L4xx_HAL_Driver/Src/stm32l4xx_hal_firewall.c ****   *       when the non volatile data segment is not defined),
 236:Drivers/STM32L4xx_HAL_Driver/Src/stm32l4xx_hal_firewall.c ****   *        **  this API can be executed when the Firewall is closed
 237:Drivers/STM32L4xx_HAL_Driver/Src/stm32l4xx_hal_firewall.c ****   *        **  when the Firewall is opened, user should resort to
 238:Drivers/STM32L4xx_HAL_Driver/Src/stm32l4xx_hal_firewall.c ****   *            __HAL_FIREWALL_PREARM_ENABLE() macro instead
 239:Drivers/STM32L4xx_HAL_Driver/Src/stm32l4xx_hal_firewall.c ****   * @note When the Firewall is enabled and  NVDSL register is different from 0
 240:Drivers/STM32L4xx_HAL_Driver/Src/stm32l4xx_hal_firewall.c ****   *       (that is, when the non volatile data segment is defined)
 241:Drivers/STM32L4xx_HAL_Driver/Src/stm32l4xx_hal_firewall.c ****   *       **  FW_CR register can be accessed only when the Firewall is opened:
 242:Drivers/STM32L4xx_HAL_Driver/Src/stm32l4xx_hal_firewall.c ****   *           user should resort to  __HAL_FIREWALL_PREARM_ENABLE() macro instead.
 243:Drivers/STM32L4xx_HAL_Driver/Src/stm32l4xx_hal_firewall.c ****   * @retval None
 244:Drivers/STM32L4xx_HAL_Driver/Src/stm32l4xx_hal_firewall.c ****   */
 245:Drivers/STM32L4xx_HAL_Driver/Src/stm32l4xx_hal_firewall.c **** void HAL_FIREWALL_EnablePreArmFlag(void)
 246:Drivers/STM32L4xx_HAL_Driver/Src/stm32l4xx_hal_firewall.c **** {
 352              		.loc 1 246 1
 353              		.cfi_startproc
 354              		@ args = 0, pretend = 0, frame = 0
 355              		@ frame_needed = 1, uses_anonymous_args = 0
 356              		@ link register save eliminated.
 357 0000 80B4     		push	{r7}
 358              		.cfi_def_cfa_offset 4
 359              		.cfi_offset 7, -4
 360 0002 00AF     		add	r7, sp, #0
 361              		.cfi_def_cfa_register 7
 247:Drivers/STM32L4xx_HAL_Driver/Src/stm32l4xx_hal_firewall.c ****   /* Set FPA bit */
 248:Drivers/STM32L4xx_HAL_Driver/Src/stm32l4xx_hal_firewall.c ****   SET_BIT(FIREWALL->CR, FW_CR_FPA);
 362              		.loc 1 248 3
 363 0004 054B     		ldr	r3, .L16
 364 0006 1B6A     		ldr	r3, [r3, #32]
 365 0008 044A     		ldr	r2, .L16
 366 000a 43F00103 		orr	r3, r3, #1
 367 000e 1362     		str	r3, [r2, #32]
 249:Drivers/STM32L4xx_HAL_Driver/Src/stm32l4xx_hal_firewall.c **** }
 368              		.loc 1 249 1
 369 0010 00BF     		nop
 370 0012 BD46     		mov	sp, r7
 371              		.cfi_def_cfa_register 13
 372              		@ sp needed
 373 0014 5DF8047B 		ldr	r7, [sp], #4
 374              		.cfi_restore 7
 375              		.cfi_def_cfa_offset 0
 376 0018 7047     		bx	lr
 377              	.L17:
 378 001a 00BF     		.align	2
 379              	.L16:
 380 001c 001C0140 		.word	1073814528
 381              		.cfi_endproc
 382              	.LFE448:
 384              		.section	.text.HAL_FIREWALL_DisablePreArmFlag,"ax",%progbits
 385              		.align	1
 386              		.global	HAL_FIREWALL_DisablePreArmFlag
 387              		.syntax unified
ARM GAS  /tmp/cchlXIps.s 			page 12


 388              		.thumb
 389              		.thumb_func
 391              	HAL_FIREWALL_DisablePreArmFlag:
 392              	.LFB449:
 250:Drivers/STM32L4xx_HAL_Driver/Src/stm32l4xx_hal_firewall.c **** 
 251:Drivers/STM32L4xx_HAL_Driver/Src/stm32l4xx_hal_firewall.c **** 
 252:Drivers/STM32L4xx_HAL_Driver/Src/stm32l4xx_hal_firewall.c **** /**
 253:Drivers/STM32L4xx_HAL_Driver/Src/stm32l4xx_hal_firewall.c ****   * @brief Disable FIREWALL pre arm.
 254:Drivers/STM32L4xx_HAL_Driver/Src/stm32l4xx_hal_firewall.c ****   * @note When FPA bit is reset, any code executed outside the protected segment
 255:Drivers/STM32L4xx_HAL_Driver/Src/stm32l4xx_hal_firewall.c ****   *       when the Firewall is opened will generate a system reset.
 256:Drivers/STM32L4xx_HAL_Driver/Src/stm32l4xx_hal_firewall.c ****   * @note This API provides the same service as __HAL_FIREWALL_PREARM_DISABLE() macro
 257:Drivers/STM32L4xx_HAL_Driver/Src/stm32l4xx_hal_firewall.c ****   *       but can't be executed inside a code area protected by the Firewall.
 258:Drivers/STM32L4xx_HAL_Driver/Src/stm32l4xx_hal_firewall.c ****   * @note When the Firewall is disabled, user can resort to HAL_FIREWALL_EnablePreArmFlag() API any
 259:Drivers/STM32L4xx_HAL_Driver/Src/stm32l4xx_hal_firewall.c ****   * @note When the Firewall is enabled and NVDSL register is equal to 0 (that is,
 260:Drivers/STM32L4xx_HAL_Driver/Src/stm32l4xx_hal_firewall.c ****   *       when the non volatile data segment is not defined),
 261:Drivers/STM32L4xx_HAL_Driver/Src/stm32l4xx_hal_firewall.c ****   *        **  this API can be executed when the Firewall is closed
 262:Drivers/STM32L4xx_HAL_Driver/Src/stm32l4xx_hal_firewall.c ****   *        **  when the Firewall is opened, user should resort to
 263:Drivers/STM32L4xx_HAL_Driver/Src/stm32l4xx_hal_firewall.c ****   *            __HAL_FIREWALL_PREARM_DISABLE() macro instead
 264:Drivers/STM32L4xx_HAL_Driver/Src/stm32l4xx_hal_firewall.c ****   * @note When the Firewall is enabled and  NVDSL register is different from 0
 265:Drivers/STM32L4xx_HAL_Driver/Src/stm32l4xx_hal_firewall.c ****   *       (that is, when the non volatile data segment is defined)
 266:Drivers/STM32L4xx_HAL_Driver/Src/stm32l4xx_hal_firewall.c ****   *       **  FW_CR register can be accessed only when the Firewall is opened:
 267:Drivers/STM32L4xx_HAL_Driver/Src/stm32l4xx_hal_firewall.c ****   *           user should resort to  __HAL_FIREWALL_PREARM_DISABLE() macro instead.
 268:Drivers/STM32L4xx_HAL_Driver/Src/stm32l4xx_hal_firewall.c **** 
 269:Drivers/STM32L4xx_HAL_Driver/Src/stm32l4xx_hal_firewall.c ****   * @retval None
 270:Drivers/STM32L4xx_HAL_Driver/Src/stm32l4xx_hal_firewall.c ****   */
 271:Drivers/STM32L4xx_HAL_Driver/Src/stm32l4xx_hal_firewall.c **** void HAL_FIREWALL_DisablePreArmFlag(void)
 272:Drivers/STM32L4xx_HAL_Driver/Src/stm32l4xx_hal_firewall.c **** {
 393              		.loc 1 272 1
 394              		.cfi_startproc
 395              		@ args = 0, pretend = 0, frame = 0
 396              		@ frame_needed = 1, uses_anonymous_args = 0
 397              		@ link register save eliminated.
 398 0000 80B4     		push	{r7}
 399              		.cfi_def_cfa_offset 4
 400              		.cfi_offset 7, -4
 401 0002 00AF     		add	r7, sp, #0
 402              		.cfi_def_cfa_register 7
 273:Drivers/STM32L4xx_HAL_Driver/Src/stm32l4xx_hal_firewall.c ****   /* Clear FPA bit */
 274:Drivers/STM32L4xx_HAL_Driver/Src/stm32l4xx_hal_firewall.c ****   CLEAR_BIT(FIREWALL->CR, FW_CR_FPA);
 403              		.loc 1 274 3
 404 0004 054B     		ldr	r3, .L19
 405 0006 1B6A     		ldr	r3, [r3, #32]
 406 0008 044A     		ldr	r2, .L19
 407 000a 23F00103 		bic	r3, r3, #1
 408 000e 1362     		str	r3, [r2, #32]
 275:Drivers/STM32L4xx_HAL_Driver/Src/stm32l4xx_hal_firewall.c **** }
 409              		.loc 1 275 1
 410 0010 00BF     		nop
 411 0012 BD46     		mov	sp, r7
 412              		.cfi_def_cfa_register 13
 413              		@ sp needed
 414 0014 5DF8047B 		ldr	r7, [sp], #4
 415              		.cfi_restore 7
 416              		.cfi_def_cfa_offset 0
 417 0018 7047     		bx	lr
 418              	.L20:
 419 001a 00BF     		.align	2
ARM GAS  /tmp/cchlXIps.s 			page 13


 420              	.L19:
 421 001c 001C0140 		.word	1073814528
 422              		.cfi_endproc
 423              	.LFE449:
 425              		.text
 426              	.Letext0:
 427              		.file 2 "/usr/lib/gcc/arm-none-eabi/13.2.1/include/stdint.h"
 428              		.file 3 "Drivers/CMSIS/Device/ST/STM32L4xx/Include/stm32l475xx.h"
 429              		.file 4 "Drivers/CMSIS/Device/ST/STM32L4xx/Include/stm32l4xx.h"
 430              		.file 5 "Drivers/STM32L4xx_HAL_Driver/Inc/stm32l4xx_hal_def.h"
 431              		.file 6 "Drivers/STM32L4xx_HAL_Driver/Inc/stm32l4xx_hal_firewall.h"
 432              		.file 7 "Drivers/STM32L4xx_HAL_Driver/Inc/stm32l4xx_ll_dma.h"
ARM GAS  /tmp/cchlXIps.s 			page 14

