ARM GAS  /tmp/ccDAjxq4.s 			page 1


   1              		.cpu cortex-m4
   2              		.arch armv7e-m
   3              		.fpu fpv4-sp-d16
   4              		.eabi_attribute 27, 1
   5              		.eabi_attribute 28, 1
   6              		.eabi_attribute 20, 1
   7              		.eabi_attribute 21, 1
   8              		.eabi_attribute 23, 3
   9              		.eabi_attribute 24, 1
  10              		.eabi_attribute 25, 1
  11              		.eabi_attribute 26, 1
  12              		.eabi_attribute 30, 6
  13              		.eabi_attribute 34, 1
  14              		.eabi_attribute 18, 4
  15              		.file	"stm32l4xx_hal_smartcard.c"
  16              		.text
  17              	.Ltext0:
  18              		.cfi_sections	.debug_frame
  19              		.file 1 "Drivers/STM32L4xx_HAL_Driver/Src/stm32l4xx_hal_smartcard.c"
  20              		.section	.rodata.CHANNEL_OFFSET_TAB,"a"
  21              		.align	2
  24              	CHANNEL_OFFSET_TAB:
  25 0000 081C3044 		.ascii	"\010\0340DXl\200"
  25      586C80
  26              		.section	.text.HAL_SMARTCARD_Init,"ax",%progbits
  27              		.align	1
  28              		.global	HAL_SMARTCARD_Init
  29              		.syntax unified
  30              		.thumb
  31              		.thumb_func
  33              	HAL_SMARTCARD_Init:
  34              	.LFB445:
   1:Drivers/STM32L4xx_HAL_Driver/Src/stm32l4xx_hal_smartcard.c **** /**
   2:Drivers/STM32L4xx_HAL_Driver/Src/stm32l4xx_hal_smartcard.c ****   ******************************************************************************
   3:Drivers/STM32L4xx_HAL_Driver/Src/stm32l4xx_hal_smartcard.c ****   * @file    stm32l4xx_hal_smartcard.c
   4:Drivers/STM32L4xx_HAL_Driver/Src/stm32l4xx_hal_smartcard.c ****   * @author  MCD Application Team
   5:Drivers/STM32L4xx_HAL_Driver/Src/stm32l4xx_hal_smartcard.c ****   * @brief   SMARTCARD HAL module driver.
   6:Drivers/STM32L4xx_HAL_Driver/Src/stm32l4xx_hal_smartcard.c ****   *          This file provides firmware functions to manage the following
   7:Drivers/STM32L4xx_HAL_Driver/Src/stm32l4xx_hal_smartcard.c ****   *          functionalities of the SMARTCARD peripheral:
   8:Drivers/STM32L4xx_HAL_Driver/Src/stm32l4xx_hal_smartcard.c ****   *           + Initialization and de-initialization functions
   9:Drivers/STM32L4xx_HAL_Driver/Src/stm32l4xx_hal_smartcard.c ****   *           + IO operation functions
  10:Drivers/STM32L4xx_HAL_Driver/Src/stm32l4xx_hal_smartcard.c ****   *           + Peripheral Control functions
  11:Drivers/STM32L4xx_HAL_Driver/Src/stm32l4xx_hal_smartcard.c ****   *           + Peripheral State and Error functions
  12:Drivers/STM32L4xx_HAL_Driver/Src/stm32l4xx_hal_smartcard.c ****   *
  13:Drivers/STM32L4xx_HAL_Driver/Src/stm32l4xx_hal_smartcard.c ****   ******************************************************************************
  14:Drivers/STM32L4xx_HAL_Driver/Src/stm32l4xx_hal_smartcard.c ****   * @attention
  15:Drivers/STM32L4xx_HAL_Driver/Src/stm32l4xx_hal_smartcard.c ****   *
  16:Drivers/STM32L4xx_HAL_Driver/Src/stm32l4xx_hal_smartcard.c ****   * Copyright (c) 2017 STMicroelectronics.
  17:Drivers/STM32L4xx_HAL_Driver/Src/stm32l4xx_hal_smartcard.c ****   * All rights reserved.
  18:Drivers/STM32L4xx_HAL_Driver/Src/stm32l4xx_hal_smartcard.c ****   *
  19:Drivers/STM32L4xx_HAL_Driver/Src/stm32l4xx_hal_smartcard.c ****   * This software is licensed under terms that can be found in the LICENSE file
  20:Drivers/STM32L4xx_HAL_Driver/Src/stm32l4xx_hal_smartcard.c ****   * in the root directory of this software component.
  21:Drivers/STM32L4xx_HAL_Driver/Src/stm32l4xx_hal_smartcard.c ****   * If no LICENSE file comes with this software, it is provided AS-IS.
  22:Drivers/STM32L4xx_HAL_Driver/Src/stm32l4xx_hal_smartcard.c ****   *
  23:Drivers/STM32L4xx_HAL_Driver/Src/stm32l4xx_hal_smartcard.c ****   ******************************************************************************
  24:Drivers/STM32L4xx_HAL_Driver/Src/stm32l4xx_hal_smartcard.c ****   @verbatim
  25:Drivers/STM32L4xx_HAL_Driver/Src/stm32l4xx_hal_smartcard.c ****   ==============================================================================
ARM GAS  /tmp/ccDAjxq4.s 			page 2


  26:Drivers/STM32L4xx_HAL_Driver/Src/stm32l4xx_hal_smartcard.c ****                         ##### How to use this driver #####
  27:Drivers/STM32L4xx_HAL_Driver/Src/stm32l4xx_hal_smartcard.c ****   ==============================================================================
  28:Drivers/STM32L4xx_HAL_Driver/Src/stm32l4xx_hal_smartcard.c ****   [..]
  29:Drivers/STM32L4xx_HAL_Driver/Src/stm32l4xx_hal_smartcard.c ****     The SMARTCARD HAL driver can be used as follows:
  30:Drivers/STM32L4xx_HAL_Driver/Src/stm32l4xx_hal_smartcard.c **** 
  31:Drivers/STM32L4xx_HAL_Driver/Src/stm32l4xx_hal_smartcard.c ****     (#) Declare a SMARTCARD_HandleTypeDef handle structure (eg. SMARTCARD_HandleTypeDef hsmartcard)
  32:Drivers/STM32L4xx_HAL_Driver/Src/stm32l4xx_hal_smartcard.c ****     (#) Associate a USART to the SMARTCARD handle hsmartcard.
  33:Drivers/STM32L4xx_HAL_Driver/Src/stm32l4xx_hal_smartcard.c ****     (#) Initialize the SMARTCARD low level resources by implementing the HAL_SMARTCARD_MspInit() AP
  34:Drivers/STM32L4xx_HAL_Driver/Src/stm32l4xx_hal_smartcard.c ****         (++) Enable the USARTx interface clock.
  35:Drivers/STM32L4xx_HAL_Driver/Src/stm32l4xx_hal_smartcard.c ****         (++) USART pins configuration:
  36:Drivers/STM32L4xx_HAL_Driver/Src/stm32l4xx_hal_smartcard.c ****              (+++) Enable the clock for the USART GPIOs.
  37:Drivers/STM32L4xx_HAL_Driver/Src/stm32l4xx_hal_smartcard.c ****              (+++) Configure the USART pins (TX as alternate function pull-up, RX as alternate func
  38:Drivers/STM32L4xx_HAL_Driver/Src/stm32l4xx_hal_smartcard.c ****         (++) NVIC configuration if you need to use interrupt process (HAL_SMARTCARD_Transmit_IT()
  39:Drivers/STM32L4xx_HAL_Driver/Src/stm32l4xx_hal_smartcard.c ****              and HAL_SMARTCARD_Receive_IT() APIs):
  40:Drivers/STM32L4xx_HAL_Driver/Src/stm32l4xx_hal_smartcard.c ****              (+++) Configure the USARTx interrupt priority.
  41:Drivers/STM32L4xx_HAL_Driver/Src/stm32l4xx_hal_smartcard.c ****              (+++) Enable the NVIC USART IRQ handle.
  42:Drivers/STM32L4xx_HAL_Driver/Src/stm32l4xx_hal_smartcard.c ****         (++) DMA Configuration if you need to use DMA process (HAL_SMARTCARD_Transmit_DMA()
  43:Drivers/STM32L4xx_HAL_Driver/Src/stm32l4xx_hal_smartcard.c ****              and HAL_SMARTCARD_Receive_DMA() APIs):
  44:Drivers/STM32L4xx_HAL_Driver/Src/stm32l4xx_hal_smartcard.c ****              (+++) Declare a DMA handle structure for the Tx/Rx channel.
  45:Drivers/STM32L4xx_HAL_Driver/Src/stm32l4xx_hal_smartcard.c ****              (+++) Enable the DMAx interface clock.
  46:Drivers/STM32L4xx_HAL_Driver/Src/stm32l4xx_hal_smartcard.c ****              (+++) Configure the declared DMA handle structure with the required Tx/Rx parameters.
  47:Drivers/STM32L4xx_HAL_Driver/Src/stm32l4xx_hal_smartcard.c ****              (+++) Configure the DMA Tx/Rx channel.
  48:Drivers/STM32L4xx_HAL_Driver/Src/stm32l4xx_hal_smartcard.c ****              (+++) Associate the initialized DMA handle to the SMARTCARD DMA Tx/Rx handle.
  49:Drivers/STM32L4xx_HAL_Driver/Src/stm32l4xx_hal_smartcard.c ****              (+++) Configure the priority and enable the NVIC for the transfer complete
  50:Drivers/STM32L4xx_HAL_Driver/Src/stm32l4xx_hal_smartcard.c ****                    interrupt on the DMA Tx/Rx channel.
  51:Drivers/STM32L4xx_HAL_Driver/Src/stm32l4xx_hal_smartcard.c **** 
  52:Drivers/STM32L4xx_HAL_Driver/Src/stm32l4xx_hal_smartcard.c ****     (#) Program the Baud Rate, Parity, Mode(Receiver/Transmitter), clock enabling/disabling and acc
  53:Drivers/STM32L4xx_HAL_Driver/Src/stm32l4xx_hal_smartcard.c ****         the clock parameters (parity, phase, last bit), prescaler value, guard time and NACK on tra
  54:Drivers/STM32L4xx_HAL_Driver/Src/stm32l4xx_hal_smartcard.c ****         error enabling or disabling in the hsmartcard handle Init structure.
  55:Drivers/STM32L4xx_HAL_Driver/Src/stm32l4xx_hal_smartcard.c **** 
  56:Drivers/STM32L4xx_HAL_Driver/Src/stm32l4xx_hal_smartcard.c ****     (#) If required, program SMARTCARD advanced features (TX/RX pins swap, TimeOut, auto-retry coun
  57:Drivers/STM32L4xx_HAL_Driver/Src/stm32l4xx_hal_smartcard.c ****         in the hsmartcard handle AdvancedInit structure.
  58:Drivers/STM32L4xx_HAL_Driver/Src/stm32l4xx_hal_smartcard.c **** 
  59:Drivers/STM32L4xx_HAL_Driver/Src/stm32l4xx_hal_smartcard.c ****     (#) Initialize the SMARTCARD registers by calling the HAL_SMARTCARD_Init() API:
  60:Drivers/STM32L4xx_HAL_Driver/Src/stm32l4xx_hal_smartcard.c ****         (++) This API configures also the low level Hardware GPIO, CLOCK, CORTEX...etc)
  61:Drivers/STM32L4xx_HAL_Driver/Src/stm32l4xx_hal_smartcard.c ****              by calling the customized HAL_SMARTCARD_MspInit() API.
  62:Drivers/STM32L4xx_HAL_Driver/Src/stm32l4xx_hal_smartcard.c ****         [..]
  63:Drivers/STM32L4xx_HAL_Driver/Src/stm32l4xx_hal_smartcard.c ****         (@) The specific SMARTCARD interrupts (Transmission complete interrupt,
  64:Drivers/STM32L4xx_HAL_Driver/Src/stm32l4xx_hal_smartcard.c ****              RXNE interrupt and Error Interrupts) will be managed using the macros
  65:Drivers/STM32L4xx_HAL_Driver/Src/stm32l4xx_hal_smartcard.c ****              __HAL_SMARTCARD_ENABLE_IT() and __HAL_SMARTCARD_DISABLE_IT() inside the transmit and r
  66:Drivers/STM32L4xx_HAL_Driver/Src/stm32l4xx_hal_smartcard.c **** 
  67:Drivers/STM32L4xx_HAL_Driver/Src/stm32l4xx_hal_smartcard.c ****     [..]
  68:Drivers/STM32L4xx_HAL_Driver/Src/stm32l4xx_hal_smartcard.c ****     [..] Three operation modes are available within this driver :
  69:Drivers/STM32L4xx_HAL_Driver/Src/stm32l4xx_hal_smartcard.c **** 
  70:Drivers/STM32L4xx_HAL_Driver/Src/stm32l4xx_hal_smartcard.c ****      *** Polling mode IO operation ***
  71:Drivers/STM32L4xx_HAL_Driver/Src/stm32l4xx_hal_smartcard.c ****      =================================
  72:Drivers/STM32L4xx_HAL_Driver/Src/stm32l4xx_hal_smartcard.c ****      [..]
  73:Drivers/STM32L4xx_HAL_Driver/Src/stm32l4xx_hal_smartcard.c ****        (+) Send an amount of data in blocking mode using HAL_SMARTCARD_Transmit()
  74:Drivers/STM32L4xx_HAL_Driver/Src/stm32l4xx_hal_smartcard.c ****        (+) Receive an amount of data in blocking mode using HAL_SMARTCARD_Receive()
  75:Drivers/STM32L4xx_HAL_Driver/Src/stm32l4xx_hal_smartcard.c **** 
  76:Drivers/STM32L4xx_HAL_Driver/Src/stm32l4xx_hal_smartcard.c ****      *** Interrupt mode IO operation ***
  77:Drivers/STM32L4xx_HAL_Driver/Src/stm32l4xx_hal_smartcard.c ****      ===================================
  78:Drivers/STM32L4xx_HAL_Driver/Src/stm32l4xx_hal_smartcard.c ****      [..]
  79:Drivers/STM32L4xx_HAL_Driver/Src/stm32l4xx_hal_smartcard.c ****        (+) Send an amount of data in non-blocking mode using HAL_SMARTCARD_Transmit_IT()
  80:Drivers/STM32L4xx_HAL_Driver/Src/stm32l4xx_hal_smartcard.c ****        (+) At transmission end of transfer HAL_SMARTCARD_TxCpltCallback() is executed and user can
  81:Drivers/STM32L4xx_HAL_Driver/Src/stm32l4xx_hal_smartcard.c ****             add his own code by customization of function pointer HAL_SMARTCARD_TxCpltCallback()
  82:Drivers/STM32L4xx_HAL_Driver/Src/stm32l4xx_hal_smartcard.c ****        (+) Receive an amount of data in non-blocking mode using HAL_SMARTCARD_Receive_IT()
ARM GAS  /tmp/ccDAjxq4.s 			page 3


  83:Drivers/STM32L4xx_HAL_Driver/Src/stm32l4xx_hal_smartcard.c ****        (+) At reception end of transfer HAL_SMARTCARD_RxCpltCallback() is executed and user can
  84:Drivers/STM32L4xx_HAL_Driver/Src/stm32l4xx_hal_smartcard.c ****             add his own code by customization of function pointer HAL_SMARTCARD_RxCpltCallback()
  85:Drivers/STM32L4xx_HAL_Driver/Src/stm32l4xx_hal_smartcard.c ****        (+) In case of transfer Error, HAL_SMARTCARD_ErrorCallback() function is executed and user c
  86:Drivers/STM32L4xx_HAL_Driver/Src/stm32l4xx_hal_smartcard.c ****             add his own code by customization of function pointer HAL_SMARTCARD_ErrorCallback()
  87:Drivers/STM32L4xx_HAL_Driver/Src/stm32l4xx_hal_smartcard.c **** 
  88:Drivers/STM32L4xx_HAL_Driver/Src/stm32l4xx_hal_smartcard.c ****      *** DMA mode IO operation ***
  89:Drivers/STM32L4xx_HAL_Driver/Src/stm32l4xx_hal_smartcard.c ****      ==============================
  90:Drivers/STM32L4xx_HAL_Driver/Src/stm32l4xx_hal_smartcard.c ****      [..]
  91:Drivers/STM32L4xx_HAL_Driver/Src/stm32l4xx_hal_smartcard.c ****        (+) Send an amount of data in non-blocking mode (DMA) using HAL_SMARTCARD_Transmit_DMA()
  92:Drivers/STM32L4xx_HAL_Driver/Src/stm32l4xx_hal_smartcard.c ****        (+) At transmission end of transfer HAL_SMARTCARD_TxCpltCallback() is executed and user can
  93:Drivers/STM32L4xx_HAL_Driver/Src/stm32l4xx_hal_smartcard.c ****             add his own code by customization of function pointer HAL_SMARTCARD_TxCpltCallback()
  94:Drivers/STM32L4xx_HAL_Driver/Src/stm32l4xx_hal_smartcard.c ****        (+) Receive an amount of data in non-blocking mode (DMA) using HAL_SMARTCARD_Receive_DMA()
  95:Drivers/STM32L4xx_HAL_Driver/Src/stm32l4xx_hal_smartcard.c ****        (+) At reception end of transfer HAL_SMARTCARD_RxCpltCallback() is executed and user can
  96:Drivers/STM32L4xx_HAL_Driver/Src/stm32l4xx_hal_smartcard.c ****             add his own code by customization of function pointer HAL_SMARTCARD_RxCpltCallback()
  97:Drivers/STM32L4xx_HAL_Driver/Src/stm32l4xx_hal_smartcard.c ****        (+) In case of transfer Error, HAL_SMARTCARD_ErrorCallback() function is executed and user c
  98:Drivers/STM32L4xx_HAL_Driver/Src/stm32l4xx_hal_smartcard.c ****             add his own code by customization of function pointer HAL_SMARTCARD_ErrorCallback()
  99:Drivers/STM32L4xx_HAL_Driver/Src/stm32l4xx_hal_smartcard.c **** 
 100:Drivers/STM32L4xx_HAL_Driver/Src/stm32l4xx_hal_smartcard.c ****      *** SMARTCARD HAL driver macros list ***
 101:Drivers/STM32L4xx_HAL_Driver/Src/stm32l4xx_hal_smartcard.c ****      ========================================
 102:Drivers/STM32L4xx_HAL_Driver/Src/stm32l4xx_hal_smartcard.c ****      [..]
 103:Drivers/STM32L4xx_HAL_Driver/Src/stm32l4xx_hal_smartcard.c ****        Below the list of most used macros in SMARTCARD HAL driver.
 104:Drivers/STM32L4xx_HAL_Driver/Src/stm32l4xx_hal_smartcard.c **** 
 105:Drivers/STM32L4xx_HAL_Driver/Src/stm32l4xx_hal_smartcard.c ****        (+) __HAL_SMARTCARD_GET_FLAG : Check whether or not the specified SMARTCARD flag is set
 106:Drivers/STM32L4xx_HAL_Driver/Src/stm32l4xx_hal_smartcard.c ****        (+) __HAL_SMARTCARD_CLEAR_FLAG : Clear the specified SMARTCARD pending flag
 107:Drivers/STM32L4xx_HAL_Driver/Src/stm32l4xx_hal_smartcard.c ****        (+) __HAL_SMARTCARD_ENABLE_IT: Enable the specified SMARTCARD interrupt
 108:Drivers/STM32L4xx_HAL_Driver/Src/stm32l4xx_hal_smartcard.c ****        (+) __HAL_SMARTCARD_DISABLE_IT: Disable the specified SMARTCARD interrupt
 109:Drivers/STM32L4xx_HAL_Driver/Src/stm32l4xx_hal_smartcard.c ****        (+) __HAL_SMARTCARD_GET_IT_SOURCE: Check whether or not the specified SMARTCARD interrupt is
 110:Drivers/STM32L4xx_HAL_Driver/Src/stm32l4xx_hal_smartcard.c **** 
 111:Drivers/STM32L4xx_HAL_Driver/Src/stm32l4xx_hal_smartcard.c ****      [..]
 112:Drivers/STM32L4xx_HAL_Driver/Src/stm32l4xx_hal_smartcard.c ****        (@) You can refer to the SMARTCARD HAL driver header file for more useful macros
 113:Drivers/STM32L4xx_HAL_Driver/Src/stm32l4xx_hal_smartcard.c **** 
 114:Drivers/STM32L4xx_HAL_Driver/Src/stm32l4xx_hal_smartcard.c ****     ##### Callback registration #####
 115:Drivers/STM32L4xx_HAL_Driver/Src/stm32l4xx_hal_smartcard.c ****     ==================================
 116:Drivers/STM32L4xx_HAL_Driver/Src/stm32l4xx_hal_smartcard.c **** 
 117:Drivers/STM32L4xx_HAL_Driver/Src/stm32l4xx_hal_smartcard.c ****     [..]
 118:Drivers/STM32L4xx_HAL_Driver/Src/stm32l4xx_hal_smartcard.c ****     The compilation define USE_HAL_SMARTCARD_REGISTER_CALLBACKS when set to 1
 119:Drivers/STM32L4xx_HAL_Driver/Src/stm32l4xx_hal_smartcard.c ****     allows the user to configure dynamically the driver callbacks.
 120:Drivers/STM32L4xx_HAL_Driver/Src/stm32l4xx_hal_smartcard.c **** 
 121:Drivers/STM32L4xx_HAL_Driver/Src/stm32l4xx_hal_smartcard.c ****     [..]
 122:Drivers/STM32L4xx_HAL_Driver/Src/stm32l4xx_hal_smartcard.c ****     Use Function HAL_SMARTCARD_RegisterCallback() to register a user callback.
 123:Drivers/STM32L4xx_HAL_Driver/Src/stm32l4xx_hal_smartcard.c ****     Function HAL_SMARTCARD_RegisterCallback() allows to register following callbacks:
 124:Drivers/STM32L4xx_HAL_Driver/Src/stm32l4xx_hal_smartcard.c ****     (+) TxCpltCallback            : Tx Complete Callback.
 125:Drivers/STM32L4xx_HAL_Driver/Src/stm32l4xx_hal_smartcard.c ****     (+) RxCpltCallback            : Rx Complete Callback.
 126:Drivers/STM32L4xx_HAL_Driver/Src/stm32l4xx_hal_smartcard.c ****     (+) ErrorCallback             : Error Callback.
 127:Drivers/STM32L4xx_HAL_Driver/Src/stm32l4xx_hal_smartcard.c ****     (+) AbortCpltCallback         : Abort Complete Callback.
 128:Drivers/STM32L4xx_HAL_Driver/Src/stm32l4xx_hal_smartcard.c ****     (+) AbortTransmitCpltCallback : Abort Transmit Complete Callback.
 129:Drivers/STM32L4xx_HAL_Driver/Src/stm32l4xx_hal_smartcard.c ****     (+) AbortReceiveCpltCallback  : Abort Receive Complete Callback.
 130:Drivers/STM32L4xx_HAL_Driver/Src/stm32l4xx_hal_smartcard.c ****     (+) RxFifoFullCallback        : Rx Fifo Full Callback.
 131:Drivers/STM32L4xx_HAL_Driver/Src/stm32l4xx_hal_smartcard.c ****     (+) TxFifoEmptyCallback       : Tx Fifo Empty Callback.
 132:Drivers/STM32L4xx_HAL_Driver/Src/stm32l4xx_hal_smartcard.c ****     (+) MspInitCallback           : SMARTCARD MspInit.
 133:Drivers/STM32L4xx_HAL_Driver/Src/stm32l4xx_hal_smartcard.c ****     (+) MspDeInitCallback         : SMARTCARD MspDeInit.
 134:Drivers/STM32L4xx_HAL_Driver/Src/stm32l4xx_hal_smartcard.c ****     This function takes as parameters the HAL peripheral handle, the Callback ID
 135:Drivers/STM32L4xx_HAL_Driver/Src/stm32l4xx_hal_smartcard.c ****     and a pointer to the user callback function.
 136:Drivers/STM32L4xx_HAL_Driver/Src/stm32l4xx_hal_smartcard.c **** 
 137:Drivers/STM32L4xx_HAL_Driver/Src/stm32l4xx_hal_smartcard.c ****     [..]
 138:Drivers/STM32L4xx_HAL_Driver/Src/stm32l4xx_hal_smartcard.c ****     Use function HAL_SMARTCARD_UnRegisterCallback() to reset a callback to the default
 139:Drivers/STM32L4xx_HAL_Driver/Src/stm32l4xx_hal_smartcard.c ****     weak function.
ARM GAS  /tmp/ccDAjxq4.s 			page 4


 140:Drivers/STM32L4xx_HAL_Driver/Src/stm32l4xx_hal_smartcard.c ****     HAL_SMARTCARD_UnRegisterCallback() takes as parameters the HAL peripheral handle,
 141:Drivers/STM32L4xx_HAL_Driver/Src/stm32l4xx_hal_smartcard.c ****     and the Callback ID.
 142:Drivers/STM32L4xx_HAL_Driver/Src/stm32l4xx_hal_smartcard.c ****     This function allows to reset following callbacks:
 143:Drivers/STM32L4xx_HAL_Driver/Src/stm32l4xx_hal_smartcard.c ****     (+) TxCpltCallback            : Tx Complete Callback.
 144:Drivers/STM32L4xx_HAL_Driver/Src/stm32l4xx_hal_smartcard.c ****     (+) RxCpltCallback            : Rx Complete Callback.
 145:Drivers/STM32L4xx_HAL_Driver/Src/stm32l4xx_hal_smartcard.c ****     (+) ErrorCallback             : Error Callback.
 146:Drivers/STM32L4xx_HAL_Driver/Src/stm32l4xx_hal_smartcard.c ****     (+) AbortCpltCallback         : Abort Complete Callback.
 147:Drivers/STM32L4xx_HAL_Driver/Src/stm32l4xx_hal_smartcard.c ****     (+) AbortTransmitCpltCallback : Abort Transmit Complete Callback.
 148:Drivers/STM32L4xx_HAL_Driver/Src/stm32l4xx_hal_smartcard.c ****     (+) AbortReceiveCpltCallback  : Abort Receive Complete Callback.
 149:Drivers/STM32L4xx_HAL_Driver/Src/stm32l4xx_hal_smartcard.c ****     (+) RxFifoFullCallback        : Rx Fifo Full Callback.
 150:Drivers/STM32L4xx_HAL_Driver/Src/stm32l4xx_hal_smartcard.c ****     (+) TxFifoEmptyCallback       : Tx Fifo Empty Callback.
 151:Drivers/STM32L4xx_HAL_Driver/Src/stm32l4xx_hal_smartcard.c ****     (+) MspInitCallback           : SMARTCARD MspInit.
 152:Drivers/STM32L4xx_HAL_Driver/Src/stm32l4xx_hal_smartcard.c ****     (+) MspDeInitCallback         : SMARTCARD MspDeInit.
 153:Drivers/STM32L4xx_HAL_Driver/Src/stm32l4xx_hal_smartcard.c **** 
 154:Drivers/STM32L4xx_HAL_Driver/Src/stm32l4xx_hal_smartcard.c ****     [..]
 155:Drivers/STM32L4xx_HAL_Driver/Src/stm32l4xx_hal_smartcard.c ****     By default, after the HAL_SMARTCARD_Init() and when the state is HAL_SMARTCARD_STATE_RESET
 156:Drivers/STM32L4xx_HAL_Driver/Src/stm32l4xx_hal_smartcard.c ****     all callbacks are set to the corresponding weak functions:
 157:Drivers/STM32L4xx_HAL_Driver/Src/stm32l4xx_hal_smartcard.c ****     examples HAL_SMARTCARD_TxCpltCallback(), HAL_SMARTCARD_RxCpltCallback().
 158:Drivers/STM32L4xx_HAL_Driver/Src/stm32l4xx_hal_smartcard.c ****     Exception done for MspInit and MspDeInit functions that are respectively
 159:Drivers/STM32L4xx_HAL_Driver/Src/stm32l4xx_hal_smartcard.c ****     reset to the legacy weak functions in the HAL_SMARTCARD_Init()
 160:Drivers/STM32L4xx_HAL_Driver/Src/stm32l4xx_hal_smartcard.c ****     and HAL_SMARTCARD_DeInit() only when these callbacks are null (not registered beforehand).
 161:Drivers/STM32L4xx_HAL_Driver/Src/stm32l4xx_hal_smartcard.c ****     If not, MspInit or MspDeInit are not null, the HAL_SMARTCARD_Init() and HAL_SMARTCARD_DeInit()
 162:Drivers/STM32L4xx_HAL_Driver/Src/stm32l4xx_hal_smartcard.c ****     keep and use the user MspInit/MspDeInit callbacks (registered beforehand).
 163:Drivers/STM32L4xx_HAL_Driver/Src/stm32l4xx_hal_smartcard.c **** 
 164:Drivers/STM32L4xx_HAL_Driver/Src/stm32l4xx_hal_smartcard.c ****     [..]
 165:Drivers/STM32L4xx_HAL_Driver/Src/stm32l4xx_hal_smartcard.c ****     Callbacks can be registered/unregistered in HAL_SMARTCARD_STATE_READY state only.
 166:Drivers/STM32L4xx_HAL_Driver/Src/stm32l4xx_hal_smartcard.c ****     Exception done MspInit/MspDeInit that can be registered/unregistered
 167:Drivers/STM32L4xx_HAL_Driver/Src/stm32l4xx_hal_smartcard.c ****     in HAL_SMARTCARD_STATE_READY or HAL_SMARTCARD_STATE_RESET state, thus registered (user)
 168:Drivers/STM32L4xx_HAL_Driver/Src/stm32l4xx_hal_smartcard.c ****     MspInit/DeInit callbacks can be used during the Init/DeInit.
 169:Drivers/STM32L4xx_HAL_Driver/Src/stm32l4xx_hal_smartcard.c ****     In that case first register the MspInit/MspDeInit user callbacks
 170:Drivers/STM32L4xx_HAL_Driver/Src/stm32l4xx_hal_smartcard.c ****     using HAL_SMARTCARD_RegisterCallback() before calling HAL_SMARTCARD_DeInit()
 171:Drivers/STM32L4xx_HAL_Driver/Src/stm32l4xx_hal_smartcard.c ****     or HAL_SMARTCARD_Init() function.
 172:Drivers/STM32L4xx_HAL_Driver/Src/stm32l4xx_hal_smartcard.c **** 
 173:Drivers/STM32L4xx_HAL_Driver/Src/stm32l4xx_hal_smartcard.c ****     [..]
 174:Drivers/STM32L4xx_HAL_Driver/Src/stm32l4xx_hal_smartcard.c ****     When The compilation define USE_HAL_SMARTCARD_REGISTER_CALLBACKS is set to 0 or
 175:Drivers/STM32L4xx_HAL_Driver/Src/stm32l4xx_hal_smartcard.c ****     not defined, the callback registration feature is not available
 176:Drivers/STM32L4xx_HAL_Driver/Src/stm32l4xx_hal_smartcard.c ****     and weak callbacks are used.
 177:Drivers/STM32L4xx_HAL_Driver/Src/stm32l4xx_hal_smartcard.c **** 
 178:Drivers/STM32L4xx_HAL_Driver/Src/stm32l4xx_hal_smartcard.c **** 
 179:Drivers/STM32L4xx_HAL_Driver/Src/stm32l4xx_hal_smartcard.c ****   @endverbatim
 180:Drivers/STM32L4xx_HAL_Driver/Src/stm32l4xx_hal_smartcard.c ****   ******************************************************************************
 181:Drivers/STM32L4xx_HAL_Driver/Src/stm32l4xx_hal_smartcard.c ****   */
 182:Drivers/STM32L4xx_HAL_Driver/Src/stm32l4xx_hal_smartcard.c **** 
 183:Drivers/STM32L4xx_HAL_Driver/Src/stm32l4xx_hal_smartcard.c **** /* Includes ------------------------------------------------------------------*/
 184:Drivers/STM32L4xx_HAL_Driver/Src/stm32l4xx_hal_smartcard.c **** #include "stm32l4xx_hal.h"
 185:Drivers/STM32L4xx_HAL_Driver/Src/stm32l4xx_hal_smartcard.c **** 
 186:Drivers/STM32L4xx_HAL_Driver/Src/stm32l4xx_hal_smartcard.c **** /** @addtogroup STM32L4xx_HAL_Driver
 187:Drivers/STM32L4xx_HAL_Driver/Src/stm32l4xx_hal_smartcard.c ****   * @{
 188:Drivers/STM32L4xx_HAL_Driver/Src/stm32l4xx_hal_smartcard.c ****   */
 189:Drivers/STM32L4xx_HAL_Driver/Src/stm32l4xx_hal_smartcard.c **** 
 190:Drivers/STM32L4xx_HAL_Driver/Src/stm32l4xx_hal_smartcard.c **** /** @defgroup SMARTCARD SMARTCARD
 191:Drivers/STM32L4xx_HAL_Driver/Src/stm32l4xx_hal_smartcard.c ****   * @brief HAL SMARTCARD module driver
 192:Drivers/STM32L4xx_HAL_Driver/Src/stm32l4xx_hal_smartcard.c ****   * @{
 193:Drivers/STM32L4xx_HAL_Driver/Src/stm32l4xx_hal_smartcard.c ****   */
 194:Drivers/STM32L4xx_HAL_Driver/Src/stm32l4xx_hal_smartcard.c **** 
 195:Drivers/STM32L4xx_HAL_Driver/Src/stm32l4xx_hal_smartcard.c **** #ifdef HAL_SMARTCARD_MODULE_ENABLED
 196:Drivers/STM32L4xx_HAL_Driver/Src/stm32l4xx_hal_smartcard.c **** 
ARM GAS  /tmp/ccDAjxq4.s 			page 5


 197:Drivers/STM32L4xx_HAL_Driver/Src/stm32l4xx_hal_smartcard.c **** /* Private typedef -----------------------------------------------------------*/
 198:Drivers/STM32L4xx_HAL_Driver/Src/stm32l4xx_hal_smartcard.c **** /* Private define ------------------------------------------------------------*/
 199:Drivers/STM32L4xx_HAL_Driver/Src/stm32l4xx_hal_smartcard.c **** /** @defgroup SMARTCARD_Private_Constants SMARTCARD Private Constants
 200:Drivers/STM32L4xx_HAL_Driver/Src/stm32l4xx_hal_smartcard.c ****   * @{
 201:Drivers/STM32L4xx_HAL_Driver/Src/stm32l4xx_hal_smartcard.c ****   */
 202:Drivers/STM32L4xx_HAL_Driver/Src/stm32l4xx_hal_smartcard.c **** #define SMARTCARD_TEACK_REACK_TIMEOUT  1000U       /*!< SMARTCARD TX or RX enable acknowledge time-
 203:Drivers/STM32L4xx_HAL_Driver/Src/stm32l4xx_hal_smartcard.c **** 
 204:Drivers/STM32L4xx_HAL_Driver/Src/stm32l4xx_hal_smartcard.c **** #if defined(USART_CR1_FIFOEN)
 205:Drivers/STM32L4xx_HAL_Driver/Src/stm32l4xx_hal_smartcard.c **** #define USART_CR1_FIELDS  ((uint32_t)(USART_CR1_M | USART_CR1_PCE | USART_CR1_PS | USART_CR1_TE | \
 206:Drivers/STM32L4xx_HAL_Driver/Src/stm32l4xx_hal_smartcard.c ****                                       USART_CR1_RE | USART_CR1_OVER8| \
 207:Drivers/STM32L4xx_HAL_Driver/Src/stm32l4xx_hal_smartcard.c ****                                       USART_CR1_FIFOEN))  /*!< USART CR1 fields of parameters set b
 208:Drivers/STM32L4xx_HAL_Driver/Src/stm32l4xx_hal_smartcard.c **** #else
 209:Drivers/STM32L4xx_HAL_Driver/Src/stm32l4xx_hal_smartcard.c **** #define USART_CR1_FIELDS  ((uint32_t)(USART_CR1_M | USART_CR1_PCE | USART_CR1_PS | USART_CR1_TE | \
 210:Drivers/STM32L4xx_HAL_Driver/Src/stm32l4xx_hal_smartcard.c ****                                       USART_CR1_RE | USART_CR1_OVER8)) /*!< USART CR1 fields of par
 211:Drivers/STM32L4xx_HAL_Driver/Src/stm32l4xx_hal_smartcard.c **** #endif /* USART_CR1_FIFOEN */
 212:Drivers/STM32L4xx_HAL_Driver/Src/stm32l4xx_hal_smartcard.c **** 
 213:Drivers/STM32L4xx_HAL_Driver/Src/stm32l4xx_hal_smartcard.c **** #define USART_CR2_CLK_FIELDS  ((uint32_t)(USART_CR2_CLKEN | USART_CR2_CPOL | \
 214:Drivers/STM32L4xx_HAL_Driver/Src/stm32l4xx_hal_smartcard.c ****                                           USART_CR2_CPHA | USART_CR2_LBCL)) /*!< SMARTCARD clock-re
 215:Drivers/STM32L4xx_HAL_Driver/Src/stm32l4xx_hal_smartcard.c **** 
 216:Drivers/STM32L4xx_HAL_Driver/Src/stm32l4xx_hal_smartcard.c **** #define USART_CR2_FIELDS  ((uint32_t)(USART_CR2_RTOEN | USART_CR2_CLK_FIELDS | \
 217:Drivers/STM32L4xx_HAL_Driver/Src/stm32l4xx_hal_smartcard.c ****                                       USART_CR2_STOP)) /*!< USART CR2 fields of parameters set by S
 218:Drivers/STM32L4xx_HAL_Driver/Src/stm32l4xx_hal_smartcard.c **** 
 219:Drivers/STM32L4xx_HAL_Driver/Src/stm32l4xx_hal_smartcard.c **** #if defined(USART_CR1_FIFOEN)
 220:Drivers/STM32L4xx_HAL_Driver/Src/stm32l4xx_hal_smartcard.c **** #define USART_CR3_FIELDS  ((uint32_t)(USART_CR3_ONEBIT | USART_CR3_NACK | USART_CR3_SCARCNT | \
 221:Drivers/STM32L4xx_HAL_Driver/Src/stm32l4xx_hal_smartcard.c ****                                       USART_CR3_TXFTCFG | USART_CR3_RXFTCFG )) /*!< USART CR3 field
 222:Drivers/STM32L4xx_HAL_Driver/Src/stm32l4xx_hal_smartcard.c **** #else
 223:Drivers/STM32L4xx_HAL_Driver/Src/stm32l4xx_hal_smartcard.c **** #define USART_CR3_FIELDS  ((uint32_t)(USART_CR3_ONEBIT | USART_CR3_NACK | \
 224:Drivers/STM32L4xx_HAL_Driver/Src/stm32l4xx_hal_smartcard.c ****                                       USART_CR3_SCARCNT)) /*!< USART CR3 fields of parameters set b
 225:Drivers/STM32L4xx_HAL_Driver/Src/stm32l4xx_hal_smartcard.c **** #endif /* USART_CR1_FIFOEN */
 226:Drivers/STM32L4xx_HAL_Driver/Src/stm32l4xx_hal_smartcard.c **** 
 227:Drivers/STM32L4xx_HAL_Driver/Src/stm32l4xx_hal_smartcard.c **** #define USART_BRR_MIN  0x10U        /*!< USART BRR minimum authorized value */
 228:Drivers/STM32L4xx_HAL_Driver/Src/stm32l4xx_hal_smartcard.c **** 
 229:Drivers/STM32L4xx_HAL_Driver/Src/stm32l4xx_hal_smartcard.c **** #define USART_BRR_MAX  0x0000FFFFU  /*!< USART BRR maximum authorized value */
 230:Drivers/STM32L4xx_HAL_Driver/Src/stm32l4xx_hal_smartcard.c **** /**
 231:Drivers/STM32L4xx_HAL_Driver/Src/stm32l4xx_hal_smartcard.c ****   * @}
 232:Drivers/STM32L4xx_HAL_Driver/Src/stm32l4xx_hal_smartcard.c ****   */
 233:Drivers/STM32L4xx_HAL_Driver/Src/stm32l4xx_hal_smartcard.c **** 
 234:Drivers/STM32L4xx_HAL_Driver/Src/stm32l4xx_hal_smartcard.c **** /* Private macros ------------------------------------------------------------*/
 235:Drivers/STM32L4xx_HAL_Driver/Src/stm32l4xx_hal_smartcard.c **** /* Private variables ---------------------------------------------------------*/
 236:Drivers/STM32L4xx_HAL_Driver/Src/stm32l4xx_hal_smartcard.c **** /* Private function prototypes -----------------------------------------------*/
 237:Drivers/STM32L4xx_HAL_Driver/Src/stm32l4xx_hal_smartcard.c **** /** @addtogroup SMARTCARD_Private_Functions
 238:Drivers/STM32L4xx_HAL_Driver/Src/stm32l4xx_hal_smartcard.c ****   * @{
 239:Drivers/STM32L4xx_HAL_Driver/Src/stm32l4xx_hal_smartcard.c ****   */
 240:Drivers/STM32L4xx_HAL_Driver/Src/stm32l4xx_hal_smartcard.c **** #if (USE_HAL_SMARTCARD_REGISTER_CALLBACKS == 1)
 241:Drivers/STM32L4xx_HAL_Driver/Src/stm32l4xx_hal_smartcard.c **** void SMARTCARD_InitCallbacksToDefault(SMARTCARD_HandleTypeDef *hsmartcard);
 242:Drivers/STM32L4xx_HAL_Driver/Src/stm32l4xx_hal_smartcard.c **** #endif /* USE_HAL_SMARTCARD_REGISTER_CALLBACKS */
 243:Drivers/STM32L4xx_HAL_Driver/Src/stm32l4xx_hal_smartcard.c **** static HAL_StatusTypeDef SMARTCARD_SetConfig(SMARTCARD_HandleTypeDef *hsmartcard);
 244:Drivers/STM32L4xx_HAL_Driver/Src/stm32l4xx_hal_smartcard.c **** static void SMARTCARD_AdvFeatureConfig(SMARTCARD_HandleTypeDef *hsmartcard);
 245:Drivers/STM32L4xx_HAL_Driver/Src/stm32l4xx_hal_smartcard.c **** static HAL_StatusTypeDef SMARTCARD_CheckIdleState(SMARTCARD_HandleTypeDef *hsmartcard);
 246:Drivers/STM32L4xx_HAL_Driver/Src/stm32l4xx_hal_smartcard.c **** static HAL_StatusTypeDef SMARTCARD_WaitOnFlagUntilTimeout(SMARTCARD_HandleTypeDef *hsmartcard, uint
 247:Drivers/STM32L4xx_HAL_Driver/Src/stm32l4xx_hal_smartcard.c ****                                                           FlagStatus Status, uint32_t Tickstart, ui
 248:Drivers/STM32L4xx_HAL_Driver/Src/stm32l4xx_hal_smartcard.c **** static void SMARTCARD_EndTxTransfer(SMARTCARD_HandleTypeDef *hsmartcard);
 249:Drivers/STM32L4xx_HAL_Driver/Src/stm32l4xx_hal_smartcard.c **** static void SMARTCARD_EndRxTransfer(SMARTCARD_HandleTypeDef *hsmartcard);
 250:Drivers/STM32L4xx_HAL_Driver/Src/stm32l4xx_hal_smartcard.c **** static void SMARTCARD_DMATransmitCplt(DMA_HandleTypeDef *hdma);
 251:Drivers/STM32L4xx_HAL_Driver/Src/stm32l4xx_hal_smartcard.c **** static void SMARTCARD_DMAReceiveCplt(DMA_HandleTypeDef *hdma);
 252:Drivers/STM32L4xx_HAL_Driver/Src/stm32l4xx_hal_smartcard.c **** static void SMARTCARD_DMAError(DMA_HandleTypeDef *hdma);
 253:Drivers/STM32L4xx_HAL_Driver/Src/stm32l4xx_hal_smartcard.c **** static void SMARTCARD_DMAAbortOnError(DMA_HandleTypeDef *hdma);
ARM GAS  /tmp/ccDAjxq4.s 			page 6


 254:Drivers/STM32L4xx_HAL_Driver/Src/stm32l4xx_hal_smartcard.c **** static void SMARTCARD_DMATxAbortCallback(DMA_HandleTypeDef *hdma);
 255:Drivers/STM32L4xx_HAL_Driver/Src/stm32l4xx_hal_smartcard.c **** static void SMARTCARD_DMARxAbortCallback(DMA_HandleTypeDef *hdma);
 256:Drivers/STM32L4xx_HAL_Driver/Src/stm32l4xx_hal_smartcard.c **** static void SMARTCARD_DMATxOnlyAbortCallback(DMA_HandleTypeDef *hdma);
 257:Drivers/STM32L4xx_HAL_Driver/Src/stm32l4xx_hal_smartcard.c **** static void SMARTCARD_DMARxOnlyAbortCallback(DMA_HandleTypeDef *hdma);
 258:Drivers/STM32L4xx_HAL_Driver/Src/stm32l4xx_hal_smartcard.c **** static void SMARTCARD_TxISR(SMARTCARD_HandleTypeDef *hsmartcard);
 259:Drivers/STM32L4xx_HAL_Driver/Src/stm32l4xx_hal_smartcard.c **** #if defined(USART_CR1_FIFOEN)
 260:Drivers/STM32L4xx_HAL_Driver/Src/stm32l4xx_hal_smartcard.c **** static void SMARTCARD_TxISR_FIFOEN(SMARTCARD_HandleTypeDef *hsmartcard);
 261:Drivers/STM32L4xx_HAL_Driver/Src/stm32l4xx_hal_smartcard.c **** #endif /* USART_CR1_FIFOEN */
 262:Drivers/STM32L4xx_HAL_Driver/Src/stm32l4xx_hal_smartcard.c **** static void SMARTCARD_EndTransmit_IT(SMARTCARD_HandleTypeDef *hsmartcard);
 263:Drivers/STM32L4xx_HAL_Driver/Src/stm32l4xx_hal_smartcard.c **** static void SMARTCARD_RxISR(SMARTCARD_HandleTypeDef *hsmartcard);
 264:Drivers/STM32L4xx_HAL_Driver/Src/stm32l4xx_hal_smartcard.c **** #if defined(USART_CR1_FIFOEN)
 265:Drivers/STM32L4xx_HAL_Driver/Src/stm32l4xx_hal_smartcard.c **** static void SMARTCARD_RxISR_FIFOEN(SMARTCARD_HandleTypeDef *hsmartcard);
 266:Drivers/STM32L4xx_HAL_Driver/Src/stm32l4xx_hal_smartcard.c **** #endif /* USART_CR1_FIFOEN */
 267:Drivers/STM32L4xx_HAL_Driver/Src/stm32l4xx_hal_smartcard.c **** /**
 268:Drivers/STM32L4xx_HAL_Driver/Src/stm32l4xx_hal_smartcard.c ****   * @}
 269:Drivers/STM32L4xx_HAL_Driver/Src/stm32l4xx_hal_smartcard.c ****   */
 270:Drivers/STM32L4xx_HAL_Driver/Src/stm32l4xx_hal_smartcard.c **** 
 271:Drivers/STM32L4xx_HAL_Driver/Src/stm32l4xx_hal_smartcard.c **** /* Exported functions --------------------------------------------------------*/
 272:Drivers/STM32L4xx_HAL_Driver/Src/stm32l4xx_hal_smartcard.c **** 
 273:Drivers/STM32L4xx_HAL_Driver/Src/stm32l4xx_hal_smartcard.c **** /** @defgroup SMARTCARD_Exported_Functions SMARTCARD Exported Functions
 274:Drivers/STM32L4xx_HAL_Driver/Src/stm32l4xx_hal_smartcard.c ****   * @{
 275:Drivers/STM32L4xx_HAL_Driver/Src/stm32l4xx_hal_smartcard.c ****   */
 276:Drivers/STM32L4xx_HAL_Driver/Src/stm32l4xx_hal_smartcard.c **** 
 277:Drivers/STM32L4xx_HAL_Driver/Src/stm32l4xx_hal_smartcard.c **** /** @defgroup SMARTCARD_Exported_Functions_Group1 Initialization and de-initialization functions
 278:Drivers/STM32L4xx_HAL_Driver/Src/stm32l4xx_hal_smartcard.c ****   * @brief    Initialization and Configuration functions
 279:Drivers/STM32L4xx_HAL_Driver/Src/stm32l4xx_hal_smartcard.c ****   *
 280:Drivers/STM32L4xx_HAL_Driver/Src/stm32l4xx_hal_smartcard.c **** @verbatim
 281:Drivers/STM32L4xx_HAL_Driver/Src/stm32l4xx_hal_smartcard.c ****   ==============================================================================
 282:Drivers/STM32L4xx_HAL_Driver/Src/stm32l4xx_hal_smartcard.c ****               ##### Initialization and Configuration functions #####
 283:Drivers/STM32L4xx_HAL_Driver/Src/stm32l4xx_hal_smartcard.c ****   ==============================================================================
 284:Drivers/STM32L4xx_HAL_Driver/Src/stm32l4xx_hal_smartcard.c ****   [..]
 285:Drivers/STM32L4xx_HAL_Driver/Src/stm32l4xx_hal_smartcard.c ****   This subsection provides a set of functions allowing to initialize the USARTx
 286:Drivers/STM32L4xx_HAL_Driver/Src/stm32l4xx_hal_smartcard.c ****   associated to the SmartCard.
 287:Drivers/STM32L4xx_HAL_Driver/Src/stm32l4xx_hal_smartcard.c ****   (+) These parameters can be configured:
 288:Drivers/STM32L4xx_HAL_Driver/Src/stm32l4xx_hal_smartcard.c ****       (++) Baud Rate
 289:Drivers/STM32L4xx_HAL_Driver/Src/stm32l4xx_hal_smartcard.c ****       (++) Parity: parity should be enabled, frame Length is fixed to 8 bits plus parity
 290:Drivers/STM32L4xx_HAL_Driver/Src/stm32l4xx_hal_smartcard.c ****       (++) Receiver/transmitter modes
 291:Drivers/STM32L4xx_HAL_Driver/Src/stm32l4xx_hal_smartcard.c ****       (++) Synchronous mode (and if enabled, phase, polarity and last bit parameters)
 292:Drivers/STM32L4xx_HAL_Driver/Src/stm32l4xx_hal_smartcard.c ****       (++) Prescaler value
 293:Drivers/STM32L4xx_HAL_Driver/Src/stm32l4xx_hal_smartcard.c ****       (++) Guard bit time
 294:Drivers/STM32L4xx_HAL_Driver/Src/stm32l4xx_hal_smartcard.c ****       (++) NACK enabling or disabling on transmission error
 295:Drivers/STM32L4xx_HAL_Driver/Src/stm32l4xx_hal_smartcard.c **** 
 296:Drivers/STM32L4xx_HAL_Driver/Src/stm32l4xx_hal_smartcard.c ****   (+) The following advanced features can be configured as well:
 297:Drivers/STM32L4xx_HAL_Driver/Src/stm32l4xx_hal_smartcard.c ****       (++) TX and/or RX pin level inversion
 298:Drivers/STM32L4xx_HAL_Driver/Src/stm32l4xx_hal_smartcard.c ****       (++) data logical level inversion
 299:Drivers/STM32L4xx_HAL_Driver/Src/stm32l4xx_hal_smartcard.c ****       (++) RX and TX pins swap
 300:Drivers/STM32L4xx_HAL_Driver/Src/stm32l4xx_hal_smartcard.c ****       (++) RX overrun detection disabling
 301:Drivers/STM32L4xx_HAL_Driver/Src/stm32l4xx_hal_smartcard.c ****       (++) DMA disabling on RX error
 302:Drivers/STM32L4xx_HAL_Driver/Src/stm32l4xx_hal_smartcard.c ****       (++) MSB first on communication line
 303:Drivers/STM32L4xx_HAL_Driver/Src/stm32l4xx_hal_smartcard.c ****       (++) Time out enabling (and if activated, timeout value)
 304:Drivers/STM32L4xx_HAL_Driver/Src/stm32l4xx_hal_smartcard.c ****       (++) Block length
 305:Drivers/STM32L4xx_HAL_Driver/Src/stm32l4xx_hal_smartcard.c ****       (++) Auto-retry counter
 306:Drivers/STM32L4xx_HAL_Driver/Src/stm32l4xx_hal_smartcard.c ****   [..]
 307:Drivers/STM32L4xx_HAL_Driver/Src/stm32l4xx_hal_smartcard.c ****   The HAL_SMARTCARD_Init() API follows the USART synchronous configuration procedures
 308:Drivers/STM32L4xx_HAL_Driver/Src/stm32l4xx_hal_smartcard.c ****   (details for the procedures are available in reference manual).
 309:Drivers/STM32L4xx_HAL_Driver/Src/stm32l4xx_hal_smartcard.c **** 
 310:Drivers/STM32L4xx_HAL_Driver/Src/stm32l4xx_hal_smartcard.c **** @endverbatim
ARM GAS  /tmp/ccDAjxq4.s 			page 7


 311:Drivers/STM32L4xx_HAL_Driver/Src/stm32l4xx_hal_smartcard.c **** 
 312:Drivers/STM32L4xx_HAL_Driver/Src/stm32l4xx_hal_smartcard.c ****   The USART frame format is given in the following table:
 313:Drivers/STM32L4xx_HAL_Driver/Src/stm32l4xx_hal_smartcard.c **** 
 314:Drivers/STM32L4xx_HAL_Driver/Src/stm32l4xx_hal_smartcard.c ****     Table 1. USART frame format.
 315:Drivers/STM32L4xx_HAL_Driver/Src/stm32l4xx_hal_smartcard.c ****     +---------------------------------------------------------------+
 316:Drivers/STM32L4xx_HAL_Driver/Src/stm32l4xx_hal_smartcard.c ****     | M1M0 bits |  PCE bit  |            USART frame                |
 317:Drivers/STM32L4xx_HAL_Driver/Src/stm32l4xx_hal_smartcard.c ****     |-----------------------|---------------------------------------|
 318:Drivers/STM32L4xx_HAL_Driver/Src/stm32l4xx_hal_smartcard.c ****     |     01    |    1      |    | SB | 8 bit data | PB | STB |     |
 319:Drivers/STM32L4xx_HAL_Driver/Src/stm32l4xx_hal_smartcard.c ****     +---------------------------------------------------------------+
 320:Drivers/STM32L4xx_HAL_Driver/Src/stm32l4xx_hal_smartcard.c **** 
 321:Drivers/STM32L4xx_HAL_Driver/Src/stm32l4xx_hal_smartcard.c **** 
 322:Drivers/STM32L4xx_HAL_Driver/Src/stm32l4xx_hal_smartcard.c ****   * @{
 323:Drivers/STM32L4xx_HAL_Driver/Src/stm32l4xx_hal_smartcard.c ****   */
 324:Drivers/STM32L4xx_HAL_Driver/Src/stm32l4xx_hal_smartcard.c **** 
 325:Drivers/STM32L4xx_HAL_Driver/Src/stm32l4xx_hal_smartcard.c **** /**
 326:Drivers/STM32L4xx_HAL_Driver/Src/stm32l4xx_hal_smartcard.c ****   * @brief  Initialize the SMARTCARD mode according to the specified
 327:Drivers/STM32L4xx_HAL_Driver/Src/stm32l4xx_hal_smartcard.c ****   *         parameters in the SMARTCARD_HandleTypeDef and initialize the associated handle.
 328:Drivers/STM32L4xx_HAL_Driver/Src/stm32l4xx_hal_smartcard.c ****   * @param  hsmartcard Pointer to a SMARTCARD_HandleTypeDef structure that contains
 329:Drivers/STM32L4xx_HAL_Driver/Src/stm32l4xx_hal_smartcard.c ****   *                    the configuration information for the specified SMARTCARD module.
 330:Drivers/STM32L4xx_HAL_Driver/Src/stm32l4xx_hal_smartcard.c ****   * @retval HAL status
 331:Drivers/STM32L4xx_HAL_Driver/Src/stm32l4xx_hal_smartcard.c ****   */
 332:Drivers/STM32L4xx_HAL_Driver/Src/stm32l4xx_hal_smartcard.c **** HAL_StatusTypeDef HAL_SMARTCARD_Init(SMARTCARD_HandleTypeDef *hsmartcard)
 333:Drivers/STM32L4xx_HAL_Driver/Src/stm32l4xx_hal_smartcard.c **** {
  35              		.loc 1 333 1
  36              		.cfi_startproc
  37              		@ args = 0, pretend = 0, frame = 8
  38              		@ frame_needed = 1, uses_anonymous_args = 0
  39 0000 80B5     		push	{r7, lr}
  40              		.cfi_def_cfa_offset 8
  41              		.cfi_offset 7, -8
  42              		.cfi_offset 14, -4
  43 0002 82B0     		sub	sp, sp, #8
  44              		.cfi_def_cfa_offset 16
  45 0004 00AF     		add	r7, sp, #0
  46              		.cfi_def_cfa_register 7
  47 0006 7860     		str	r0, [r7, #4]
 334:Drivers/STM32L4xx_HAL_Driver/Src/stm32l4xx_hal_smartcard.c ****   /* Check the SMARTCARD handle allocation */
 335:Drivers/STM32L4xx_HAL_Driver/Src/stm32l4xx_hal_smartcard.c ****   if (hsmartcard == NULL)
  48              		.loc 1 335 6
  49 0008 7B68     		ldr	r3, [r7, #4]
  50 000a 002B     		cmp	r3, #0
  51 000c 01D1     		bne	.L2
 336:Drivers/STM32L4xx_HAL_Driver/Src/stm32l4xx_hal_smartcard.c ****   {
 337:Drivers/STM32L4xx_HAL_Driver/Src/stm32l4xx_hal_smartcard.c ****     return HAL_ERROR;
  52              		.loc 1 337 12
  53 000e 0123     		movs	r3, #1
  54 0010 4DE0     		b	.L3
  55              	.L2:
 338:Drivers/STM32L4xx_HAL_Driver/Src/stm32l4xx_hal_smartcard.c ****   }
 339:Drivers/STM32L4xx_HAL_Driver/Src/stm32l4xx_hal_smartcard.c **** 
 340:Drivers/STM32L4xx_HAL_Driver/Src/stm32l4xx_hal_smartcard.c ****   /* Check the USART associated to the SMARTCARD handle */
 341:Drivers/STM32L4xx_HAL_Driver/Src/stm32l4xx_hal_smartcard.c ****   assert_param(IS_SMARTCARD_INSTANCE(hsmartcard->Instance));
 342:Drivers/STM32L4xx_HAL_Driver/Src/stm32l4xx_hal_smartcard.c **** 
 343:Drivers/STM32L4xx_HAL_Driver/Src/stm32l4xx_hal_smartcard.c ****   if (hsmartcard->gState == HAL_SMARTCARD_STATE_RESET)
  56              		.loc 1 343 17
  57 0012 7B68     		ldr	r3, [r7, #4]
  58 0014 5B6F     		ldr	r3, [r3, #116]
ARM GAS  /tmp/ccDAjxq4.s 			page 8


  59              		.loc 1 343 6
  60 0016 002B     		cmp	r3, #0
  61 0018 06D1     		bne	.L4
 344:Drivers/STM32L4xx_HAL_Driver/Src/stm32l4xx_hal_smartcard.c ****   {
 345:Drivers/STM32L4xx_HAL_Driver/Src/stm32l4xx_hal_smartcard.c ****     /* Allocate lock resource and initialize it */
 346:Drivers/STM32L4xx_HAL_Driver/Src/stm32l4xx_hal_smartcard.c ****     hsmartcard->Lock = HAL_UNLOCKED;
  62              		.loc 1 346 22
  63 001a 7B68     		ldr	r3, [r7, #4]
  64 001c 0022     		movs	r2, #0
  65 001e 83F87020 		strb	r2, [r3, #112]
 347:Drivers/STM32L4xx_HAL_Driver/Src/stm32l4xx_hal_smartcard.c **** 
 348:Drivers/STM32L4xx_HAL_Driver/Src/stm32l4xx_hal_smartcard.c **** #if USE_HAL_SMARTCARD_REGISTER_CALLBACKS == 1
 349:Drivers/STM32L4xx_HAL_Driver/Src/stm32l4xx_hal_smartcard.c ****     SMARTCARD_InitCallbacksToDefault(hsmartcard);
 350:Drivers/STM32L4xx_HAL_Driver/Src/stm32l4xx_hal_smartcard.c **** 
 351:Drivers/STM32L4xx_HAL_Driver/Src/stm32l4xx_hal_smartcard.c ****     if (hsmartcard->MspInitCallback == NULL)
 352:Drivers/STM32L4xx_HAL_Driver/Src/stm32l4xx_hal_smartcard.c ****     {
 353:Drivers/STM32L4xx_HAL_Driver/Src/stm32l4xx_hal_smartcard.c ****       hsmartcard->MspInitCallback = HAL_SMARTCARD_MspInit;
 354:Drivers/STM32L4xx_HAL_Driver/Src/stm32l4xx_hal_smartcard.c ****     }
 355:Drivers/STM32L4xx_HAL_Driver/Src/stm32l4xx_hal_smartcard.c **** 
 356:Drivers/STM32L4xx_HAL_Driver/Src/stm32l4xx_hal_smartcard.c ****     /* Init the low level hardware */
 357:Drivers/STM32L4xx_HAL_Driver/Src/stm32l4xx_hal_smartcard.c ****     hsmartcard->MspInitCallback(hsmartcard);
 358:Drivers/STM32L4xx_HAL_Driver/Src/stm32l4xx_hal_smartcard.c **** #else
 359:Drivers/STM32L4xx_HAL_Driver/Src/stm32l4xx_hal_smartcard.c ****     /* Init the low level hardware : GPIO, CLOCK */
 360:Drivers/STM32L4xx_HAL_Driver/Src/stm32l4xx_hal_smartcard.c ****     HAL_SMARTCARD_MspInit(hsmartcard);
  66              		.loc 1 360 5
  67 0022 7868     		ldr	r0, [r7, #4]
  68 0024 FFF7FEFF 		bl	HAL_SMARTCARD_MspInit
  69              	.L4:
 361:Drivers/STM32L4xx_HAL_Driver/Src/stm32l4xx_hal_smartcard.c **** #endif /* USE_HAL_SMARTCARD_REGISTER_CALLBACKS */
 362:Drivers/STM32L4xx_HAL_Driver/Src/stm32l4xx_hal_smartcard.c ****   }
 363:Drivers/STM32L4xx_HAL_Driver/Src/stm32l4xx_hal_smartcard.c **** 
 364:Drivers/STM32L4xx_HAL_Driver/Src/stm32l4xx_hal_smartcard.c ****   hsmartcard->gState = HAL_SMARTCARD_STATE_BUSY;
  70              		.loc 1 364 22
  71 0028 7B68     		ldr	r3, [r7, #4]
  72 002a 2422     		movs	r2, #36
  73 002c 5A67     		str	r2, [r3, #116]
 365:Drivers/STM32L4xx_HAL_Driver/Src/stm32l4xx_hal_smartcard.c **** 
 366:Drivers/STM32L4xx_HAL_Driver/Src/stm32l4xx_hal_smartcard.c ****   /* Disable the Peripheral to set smartcard mode */
 367:Drivers/STM32L4xx_HAL_Driver/Src/stm32l4xx_hal_smartcard.c ****   CLEAR_BIT(hsmartcard->Instance->CR1, USART_CR1_UE);
  74              		.loc 1 367 3
  75 002e 7B68     		ldr	r3, [r7, #4]
  76 0030 1B68     		ldr	r3, [r3]
  77 0032 1A68     		ldr	r2, [r3]
  78 0034 7B68     		ldr	r3, [r7, #4]
  79 0036 1B68     		ldr	r3, [r3]
  80 0038 22F00102 		bic	r2, r2, #1
  81 003c 1A60     		str	r2, [r3]
 368:Drivers/STM32L4xx_HAL_Driver/Src/stm32l4xx_hal_smartcard.c **** 
 369:Drivers/STM32L4xx_HAL_Driver/Src/stm32l4xx_hal_smartcard.c ****   /* In SmartCard mode, the following bits must be kept cleared:
 370:Drivers/STM32L4xx_HAL_Driver/Src/stm32l4xx_hal_smartcard.c ****   - LINEN in the USART_CR2 register,
 371:Drivers/STM32L4xx_HAL_Driver/Src/stm32l4xx_hal_smartcard.c ****   - HDSEL and IREN  bits in the USART_CR3 register.*/
 372:Drivers/STM32L4xx_HAL_Driver/Src/stm32l4xx_hal_smartcard.c ****   CLEAR_BIT(hsmartcard->Instance->CR2, USART_CR2_LINEN);
  82              		.loc 1 372 3
  83 003e 7B68     		ldr	r3, [r7, #4]
  84 0040 1B68     		ldr	r3, [r3]
  85 0042 5A68     		ldr	r2, [r3, #4]
  86 0044 7B68     		ldr	r3, [r7, #4]
ARM GAS  /tmp/ccDAjxq4.s 			page 9


  87 0046 1B68     		ldr	r3, [r3]
  88 0048 22F48042 		bic	r2, r2, #16384
  89 004c 5A60     		str	r2, [r3, #4]
 373:Drivers/STM32L4xx_HAL_Driver/Src/stm32l4xx_hal_smartcard.c ****   CLEAR_BIT(hsmartcard->Instance->CR3, (USART_CR3_HDSEL | USART_CR3_IREN));
  90              		.loc 1 373 3
  91 004e 7B68     		ldr	r3, [r7, #4]
  92 0050 1B68     		ldr	r3, [r3]
  93 0052 9A68     		ldr	r2, [r3, #8]
  94 0054 7B68     		ldr	r3, [r7, #4]
  95 0056 1B68     		ldr	r3, [r3]
  96 0058 22F00A02 		bic	r2, r2, #10
  97 005c 9A60     		str	r2, [r3, #8]
 374:Drivers/STM32L4xx_HAL_Driver/Src/stm32l4xx_hal_smartcard.c **** 
 375:Drivers/STM32L4xx_HAL_Driver/Src/stm32l4xx_hal_smartcard.c ****   /* set the USART in SMARTCARD mode */
 376:Drivers/STM32L4xx_HAL_Driver/Src/stm32l4xx_hal_smartcard.c ****   SET_BIT(hsmartcard->Instance->CR3, USART_CR3_SCEN);
  98              		.loc 1 376 3
  99 005e 7B68     		ldr	r3, [r7, #4]
 100 0060 1B68     		ldr	r3, [r3]
 101 0062 9A68     		ldr	r2, [r3, #8]
 102 0064 7B68     		ldr	r3, [r7, #4]
 103 0066 1B68     		ldr	r3, [r3]
 104 0068 42F02002 		orr	r2, r2, #32
 105 006c 9A60     		str	r2, [r3, #8]
 377:Drivers/STM32L4xx_HAL_Driver/Src/stm32l4xx_hal_smartcard.c **** 
 378:Drivers/STM32L4xx_HAL_Driver/Src/stm32l4xx_hal_smartcard.c ****   /* Set the SMARTCARD Communication parameters */
 379:Drivers/STM32L4xx_HAL_Driver/Src/stm32l4xx_hal_smartcard.c ****   if (SMARTCARD_SetConfig(hsmartcard) == HAL_ERROR)
 106              		.loc 1 379 7
 107 006e 7868     		ldr	r0, [r7, #4]
 108 0070 FFF7FEFF 		bl	SMARTCARD_SetConfig
 109 0074 0346     		mov	r3, r0
 110              		.loc 1 379 6 discriminator 1
 111 0076 012B     		cmp	r3, #1
 112 0078 01D1     		bne	.L5
 380:Drivers/STM32L4xx_HAL_Driver/Src/stm32l4xx_hal_smartcard.c ****   {
 381:Drivers/STM32L4xx_HAL_Driver/Src/stm32l4xx_hal_smartcard.c ****     return HAL_ERROR;
 113              		.loc 1 381 12
 114 007a 0123     		movs	r3, #1
 115 007c 17E0     		b	.L3
 116              	.L5:
 382:Drivers/STM32L4xx_HAL_Driver/Src/stm32l4xx_hal_smartcard.c ****   }
 383:Drivers/STM32L4xx_HAL_Driver/Src/stm32l4xx_hal_smartcard.c **** 
 384:Drivers/STM32L4xx_HAL_Driver/Src/stm32l4xx_hal_smartcard.c ****   /* Set the SMARTCARD transmission completion indication */
 385:Drivers/STM32L4xx_HAL_Driver/Src/stm32l4xx_hal_smartcard.c ****   SMARTCARD_TRANSMISSION_COMPLETION_SETTING(hsmartcard);
 117              		.loc 1 385 3
 118 007e 7B68     		ldr	r3, [r7, #4]
 119 0080 40F22662 		movw	r2, #1574
 120 0084 A3F84C20 		strh	r2, [r3, #76]	@ movhi
 386:Drivers/STM32L4xx_HAL_Driver/Src/stm32l4xx_hal_smartcard.c **** 
 387:Drivers/STM32L4xx_HAL_Driver/Src/stm32l4xx_hal_smartcard.c ****   if (hsmartcard->AdvancedInit.AdvFeatureInit != SMARTCARD_ADVFEATURE_NO_INIT)
 121              		.loc 1 387 31
 122 0088 7B68     		ldr	r3, [r7, #4]
 123 008a DB6A     		ldr	r3, [r3, #44]
 124              		.loc 1 387 6
 125 008c 002B     		cmp	r3, #0
 126 008e 02D0     		beq	.L6
 388:Drivers/STM32L4xx_HAL_Driver/Src/stm32l4xx_hal_smartcard.c ****   {
 389:Drivers/STM32L4xx_HAL_Driver/Src/stm32l4xx_hal_smartcard.c ****     SMARTCARD_AdvFeatureConfig(hsmartcard);
ARM GAS  /tmp/ccDAjxq4.s 			page 10


 127              		.loc 1 389 5
 128 0090 7868     		ldr	r0, [r7, #4]
 129 0092 FFF7FEFF 		bl	SMARTCARD_AdvFeatureConfig
 130              	.L6:
 390:Drivers/STM32L4xx_HAL_Driver/Src/stm32l4xx_hal_smartcard.c ****   }
 391:Drivers/STM32L4xx_HAL_Driver/Src/stm32l4xx_hal_smartcard.c **** 
 392:Drivers/STM32L4xx_HAL_Driver/Src/stm32l4xx_hal_smartcard.c ****   /* Enable the Peripheral */
 393:Drivers/STM32L4xx_HAL_Driver/Src/stm32l4xx_hal_smartcard.c ****   SET_BIT(hsmartcard->Instance->CR1, USART_CR1_UE);
 131              		.loc 1 393 3
 132 0096 7B68     		ldr	r3, [r7, #4]
 133 0098 1B68     		ldr	r3, [r3]
 134 009a 1A68     		ldr	r2, [r3]
 135 009c 7B68     		ldr	r3, [r7, #4]
 136 009e 1B68     		ldr	r3, [r3]
 137 00a0 42F00102 		orr	r2, r2, #1
 138 00a4 1A60     		str	r2, [r3]
 394:Drivers/STM32L4xx_HAL_Driver/Src/stm32l4xx_hal_smartcard.c **** 
 395:Drivers/STM32L4xx_HAL_Driver/Src/stm32l4xx_hal_smartcard.c ****   /* TEACK and/or REACK to check before moving hsmartcard->gState and hsmartcard->RxState to Ready 
 396:Drivers/STM32L4xx_HAL_Driver/Src/stm32l4xx_hal_smartcard.c ****   return (SMARTCARD_CheckIdleState(hsmartcard));
 139              		.loc 1 396 11
 140 00a6 7868     		ldr	r0, [r7, #4]
 141 00a8 FFF7FEFF 		bl	SMARTCARD_CheckIdleState
 142 00ac 0346     		mov	r3, r0
 143              	.L3:
 397:Drivers/STM32L4xx_HAL_Driver/Src/stm32l4xx_hal_smartcard.c **** }
 144              		.loc 1 397 1
 145 00ae 1846     		mov	r0, r3
 146 00b0 0837     		adds	r7, r7, #8
 147              		.cfi_def_cfa_offset 8
 148 00b2 BD46     		mov	sp, r7
 149              		.cfi_def_cfa_register 13
 150              		@ sp needed
 151 00b4 80BD     		pop	{r7, pc}
 152              		.cfi_endproc
 153              	.LFE445:
 155              		.section	.text.HAL_SMARTCARD_DeInit,"ax",%progbits
 156              		.align	1
 157              		.global	HAL_SMARTCARD_DeInit
 158              		.syntax unified
 159              		.thumb
 160              		.thumb_func
 162              	HAL_SMARTCARD_DeInit:
 163              	.LFB446:
 398:Drivers/STM32L4xx_HAL_Driver/Src/stm32l4xx_hal_smartcard.c **** 
 399:Drivers/STM32L4xx_HAL_Driver/Src/stm32l4xx_hal_smartcard.c **** /**
 400:Drivers/STM32L4xx_HAL_Driver/Src/stm32l4xx_hal_smartcard.c ****   * @brief  DeInitialize the SMARTCARD peripheral.
 401:Drivers/STM32L4xx_HAL_Driver/Src/stm32l4xx_hal_smartcard.c ****   * @param  hsmartcard Pointer to a SMARTCARD_HandleTypeDef structure that contains
 402:Drivers/STM32L4xx_HAL_Driver/Src/stm32l4xx_hal_smartcard.c ****   *                    the configuration information for the specified SMARTCARD module.
 403:Drivers/STM32L4xx_HAL_Driver/Src/stm32l4xx_hal_smartcard.c ****   * @retval HAL status
 404:Drivers/STM32L4xx_HAL_Driver/Src/stm32l4xx_hal_smartcard.c ****   */
 405:Drivers/STM32L4xx_HAL_Driver/Src/stm32l4xx_hal_smartcard.c **** HAL_StatusTypeDef HAL_SMARTCARD_DeInit(SMARTCARD_HandleTypeDef *hsmartcard)
 406:Drivers/STM32L4xx_HAL_Driver/Src/stm32l4xx_hal_smartcard.c **** {
 164              		.loc 1 406 1
 165              		.cfi_startproc
 166              		@ args = 0, pretend = 0, frame = 8
 167              		@ frame_needed = 1, uses_anonymous_args = 0
 168 0000 80B5     		push	{r7, lr}
ARM GAS  /tmp/ccDAjxq4.s 			page 11


 169              		.cfi_def_cfa_offset 8
 170              		.cfi_offset 7, -8
 171              		.cfi_offset 14, -4
 172 0002 82B0     		sub	sp, sp, #8
 173              		.cfi_def_cfa_offset 16
 174 0004 00AF     		add	r7, sp, #0
 175              		.cfi_def_cfa_register 7
 176 0006 7860     		str	r0, [r7, #4]
 407:Drivers/STM32L4xx_HAL_Driver/Src/stm32l4xx_hal_smartcard.c ****   /* Check the SMARTCARD handle allocation */
 408:Drivers/STM32L4xx_HAL_Driver/Src/stm32l4xx_hal_smartcard.c ****   if (hsmartcard == NULL)
 177              		.loc 1 408 6
 178 0008 7B68     		ldr	r3, [r7, #4]
 179 000a 002B     		cmp	r3, #0
 180 000c 01D1     		bne	.L8
 409:Drivers/STM32L4xx_HAL_Driver/Src/stm32l4xx_hal_smartcard.c ****   {
 410:Drivers/STM32L4xx_HAL_Driver/Src/stm32l4xx_hal_smartcard.c ****     return HAL_ERROR;
 181              		.loc 1 410 12
 182 000e 0123     		movs	r3, #1
 183 0010 2FE0     		b	.L9
 184              	.L8:
 411:Drivers/STM32L4xx_HAL_Driver/Src/stm32l4xx_hal_smartcard.c ****   }
 412:Drivers/STM32L4xx_HAL_Driver/Src/stm32l4xx_hal_smartcard.c **** 
 413:Drivers/STM32L4xx_HAL_Driver/Src/stm32l4xx_hal_smartcard.c ****   /* Check the USART/UART associated to the SMARTCARD handle */
 414:Drivers/STM32L4xx_HAL_Driver/Src/stm32l4xx_hal_smartcard.c ****   assert_param(IS_SMARTCARD_INSTANCE(hsmartcard->Instance));
 415:Drivers/STM32L4xx_HAL_Driver/Src/stm32l4xx_hal_smartcard.c **** 
 416:Drivers/STM32L4xx_HAL_Driver/Src/stm32l4xx_hal_smartcard.c ****   hsmartcard->gState = HAL_SMARTCARD_STATE_BUSY;
 185              		.loc 1 416 22
 186 0012 7B68     		ldr	r3, [r7, #4]
 187 0014 2422     		movs	r2, #36
 188 0016 5A67     		str	r2, [r3, #116]
 417:Drivers/STM32L4xx_HAL_Driver/Src/stm32l4xx_hal_smartcard.c **** 
 418:Drivers/STM32L4xx_HAL_Driver/Src/stm32l4xx_hal_smartcard.c ****   /* Disable the Peripheral */
 419:Drivers/STM32L4xx_HAL_Driver/Src/stm32l4xx_hal_smartcard.c ****   CLEAR_BIT(hsmartcard->Instance->CR1, USART_CR1_UE);
 189              		.loc 1 419 3
 190 0018 7B68     		ldr	r3, [r7, #4]
 191 001a 1B68     		ldr	r3, [r3]
 192 001c 1A68     		ldr	r2, [r3]
 193 001e 7B68     		ldr	r3, [r7, #4]
 194 0020 1B68     		ldr	r3, [r3]
 195 0022 22F00102 		bic	r2, r2, #1
 196 0026 1A60     		str	r2, [r3]
 420:Drivers/STM32L4xx_HAL_Driver/Src/stm32l4xx_hal_smartcard.c **** 
 421:Drivers/STM32L4xx_HAL_Driver/Src/stm32l4xx_hal_smartcard.c ****   WRITE_REG(hsmartcard->Instance->CR1, 0x0U);
 197              		.loc 1 421 3
 198 0028 7B68     		ldr	r3, [r7, #4]
 199 002a 1B68     		ldr	r3, [r3]
 200 002c 0022     		movs	r2, #0
 201 002e 1A60     		str	r2, [r3]
 422:Drivers/STM32L4xx_HAL_Driver/Src/stm32l4xx_hal_smartcard.c ****   WRITE_REG(hsmartcard->Instance->CR2, 0x0U);
 202              		.loc 1 422 3
 203 0030 7B68     		ldr	r3, [r7, #4]
 204 0032 1B68     		ldr	r3, [r3]
 205 0034 0022     		movs	r2, #0
 206 0036 5A60     		str	r2, [r3, #4]
 423:Drivers/STM32L4xx_HAL_Driver/Src/stm32l4xx_hal_smartcard.c ****   WRITE_REG(hsmartcard->Instance->CR3, 0x0U);
 207              		.loc 1 423 3
 208 0038 7B68     		ldr	r3, [r7, #4]
ARM GAS  /tmp/ccDAjxq4.s 			page 12


 209 003a 1B68     		ldr	r3, [r3]
 210 003c 0022     		movs	r2, #0
 211 003e 9A60     		str	r2, [r3, #8]
 424:Drivers/STM32L4xx_HAL_Driver/Src/stm32l4xx_hal_smartcard.c ****   WRITE_REG(hsmartcard->Instance->RTOR, 0x0U);
 212              		.loc 1 424 3
 213 0040 7B68     		ldr	r3, [r7, #4]
 214 0042 1B68     		ldr	r3, [r3]
 215 0044 0022     		movs	r2, #0
 216 0046 5A61     		str	r2, [r3, #20]
 425:Drivers/STM32L4xx_HAL_Driver/Src/stm32l4xx_hal_smartcard.c ****   WRITE_REG(hsmartcard->Instance->GTPR, 0x0U);
 217              		.loc 1 425 3
 218 0048 7B68     		ldr	r3, [r7, #4]
 219 004a 1B68     		ldr	r3, [r3]
 220 004c 0022     		movs	r2, #0
 221 004e 1A61     		str	r2, [r3, #16]
 426:Drivers/STM32L4xx_HAL_Driver/Src/stm32l4xx_hal_smartcard.c **** 
 427:Drivers/STM32L4xx_HAL_Driver/Src/stm32l4xx_hal_smartcard.c ****   /* DeInit the low level hardware */
 428:Drivers/STM32L4xx_HAL_Driver/Src/stm32l4xx_hal_smartcard.c **** #if USE_HAL_SMARTCARD_REGISTER_CALLBACKS == 1
 429:Drivers/STM32L4xx_HAL_Driver/Src/stm32l4xx_hal_smartcard.c ****   if (hsmartcard->MspDeInitCallback == NULL)
 430:Drivers/STM32L4xx_HAL_Driver/Src/stm32l4xx_hal_smartcard.c ****   {
 431:Drivers/STM32L4xx_HAL_Driver/Src/stm32l4xx_hal_smartcard.c ****     hsmartcard->MspDeInitCallback = HAL_SMARTCARD_MspDeInit;
 432:Drivers/STM32L4xx_HAL_Driver/Src/stm32l4xx_hal_smartcard.c ****   }
 433:Drivers/STM32L4xx_HAL_Driver/Src/stm32l4xx_hal_smartcard.c ****   /* DeInit the low level hardware */
 434:Drivers/STM32L4xx_HAL_Driver/Src/stm32l4xx_hal_smartcard.c ****   hsmartcard->MspDeInitCallback(hsmartcard);
 435:Drivers/STM32L4xx_HAL_Driver/Src/stm32l4xx_hal_smartcard.c **** #else
 436:Drivers/STM32L4xx_HAL_Driver/Src/stm32l4xx_hal_smartcard.c ****   HAL_SMARTCARD_MspDeInit(hsmartcard);
 222              		.loc 1 436 3
 223 0050 7868     		ldr	r0, [r7, #4]
 224 0052 FFF7FEFF 		bl	HAL_SMARTCARD_MspDeInit
 437:Drivers/STM32L4xx_HAL_Driver/Src/stm32l4xx_hal_smartcard.c **** #endif /* USE_HAL_SMARTCARD_REGISTER_CALLBACKS */
 438:Drivers/STM32L4xx_HAL_Driver/Src/stm32l4xx_hal_smartcard.c **** 
 439:Drivers/STM32L4xx_HAL_Driver/Src/stm32l4xx_hal_smartcard.c ****   hsmartcard->ErrorCode = HAL_SMARTCARD_ERROR_NONE;
 225              		.loc 1 439 25
 226 0056 7B68     		ldr	r3, [r7, #4]
 227 0058 0022     		movs	r2, #0
 228 005a DA67     		str	r2, [r3, #124]
 440:Drivers/STM32L4xx_HAL_Driver/Src/stm32l4xx_hal_smartcard.c ****   hsmartcard->gState    = HAL_SMARTCARD_STATE_RESET;
 229              		.loc 1 440 25
 230 005c 7B68     		ldr	r3, [r7, #4]
 231 005e 0022     		movs	r2, #0
 232 0060 5A67     		str	r2, [r3, #116]
 441:Drivers/STM32L4xx_HAL_Driver/Src/stm32l4xx_hal_smartcard.c ****   hsmartcard->RxState   = HAL_SMARTCARD_STATE_RESET;
 233              		.loc 1 441 25
 234 0062 7B68     		ldr	r3, [r7, #4]
 235 0064 0022     		movs	r2, #0
 236 0066 9A67     		str	r2, [r3, #120]
 442:Drivers/STM32L4xx_HAL_Driver/Src/stm32l4xx_hal_smartcard.c **** 
 443:Drivers/STM32L4xx_HAL_Driver/Src/stm32l4xx_hal_smartcard.c ****   /* Process Unlock */
 444:Drivers/STM32L4xx_HAL_Driver/Src/stm32l4xx_hal_smartcard.c ****   __HAL_UNLOCK(hsmartcard);
 237              		.loc 1 444 3
 238 0068 7B68     		ldr	r3, [r7, #4]
 239 006a 0022     		movs	r2, #0
 240 006c 83F87020 		strb	r2, [r3, #112]
 445:Drivers/STM32L4xx_HAL_Driver/Src/stm32l4xx_hal_smartcard.c **** 
 446:Drivers/STM32L4xx_HAL_Driver/Src/stm32l4xx_hal_smartcard.c ****   return HAL_OK;
 241              		.loc 1 446 10
 242 0070 0023     		movs	r3, #0
ARM GAS  /tmp/ccDAjxq4.s 			page 13


 243              	.L9:
 447:Drivers/STM32L4xx_HAL_Driver/Src/stm32l4xx_hal_smartcard.c **** }
 244              		.loc 1 447 1
 245 0072 1846     		mov	r0, r3
 246 0074 0837     		adds	r7, r7, #8
 247              		.cfi_def_cfa_offset 8
 248 0076 BD46     		mov	sp, r7
 249              		.cfi_def_cfa_register 13
 250              		@ sp needed
 251 0078 80BD     		pop	{r7, pc}
 252              		.cfi_endproc
 253              	.LFE446:
 255              		.section	.text.HAL_SMARTCARD_MspInit,"ax",%progbits
 256              		.align	1
 257              		.weak	HAL_SMARTCARD_MspInit
 258              		.syntax unified
 259              		.thumb
 260              		.thumb_func
 262              	HAL_SMARTCARD_MspInit:
 263              	.LFB447:
 448:Drivers/STM32L4xx_HAL_Driver/Src/stm32l4xx_hal_smartcard.c **** 
 449:Drivers/STM32L4xx_HAL_Driver/Src/stm32l4xx_hal_smartcard.c **** /**
 450:Drivers/STM32L4xx_HAL_Driver/Src/stm32l4xx_hal_smartcard.c ****   * @brief  Initialize the SMARTCARD MSP.
 451:Drivers/STM32L4xx_HAL_Driver/Src/stm32l4xx_hal_smartcard.c ****   * @param  hsmartcard Pointer to a SMARTCARD_HandleTypeDef structure that contains
 452:Drivers/STM32L4xx_HAL_Driver/Src/stm32l4xx_hal_smartcard.c ****   *                    the configuration information for the specified SMARTCARD module.
 453:Drivers/STM32L4xx_HAL_Driver/Src/stm32l4xx_hal_smartcard.c ****   * @retval None
 454:Drivers/STM32L4xx_HAL_Driver/Src/stm32l4xx_hal_smartcard.c ****   */
 455:Drivers/STM32L4xx_HAL_Driver/Src/stm32l4xx_hal_smartcard.c **** __weak void HAL_SMARTCARD_MspInit(SMARTCARD_HandleTypeDef *hsmartcard)
 456:Drivers/STM32L4xx_HAL_Driver/Src/stm32l4xx_hal_smartcard.c **** {
 264              		.loc 1 456 1
 265              		.cfi_startproc
 266              		@ args = 0, pretend = 0, frame = 8
 267              		@ frame_needed = 1, uses_anonymous_args = 0
 268              		@ link register save eliminated.
 269 0000 80B4     		push	{r7}
 270              		.cfi_def_cfa_offset 4
 271              		.cfi_offset 7, -4
 272 0002 83B0     		sub	sp, sp, #12
 273              		.cfi_def_cfa_offset 16
 274 0004 00AF     		add	r7, sp, #0
 275              		.cfi_def_cfa_register 7
 276 0006 7860     		str	r0, [r7, #4]
 457:Drivers/STM32L4xx_HAL_Driver/Src/stm32l4xx_hal_smartcard.c ****   /* Prevent unused argument(s) compilation warning */
 458:Drivers/STM32L4xx_HAL_Driver/Src/stm32l4xx_hal_smartcard.c ****   UNUSED(hsmartcard);
 459:Drivers/STM32L4xx_HAL_Driver/Src/stm32l4xx_hal_smartcard.c **** 
 460:Drivers/STM32L4xx_HAL_Driver/Src/stm32l4xx_hal_smartcard.c ****   /* NOTE : This function should not be modified, when the callback is needed,
 461:Drivers/STM32L4xx_HAL_Driver/Src/stm32l4xx_hal_smartcard.c ****             the HAL_SMARTCARD_MspInit can be implemented in the user file
 462:Drivers/STM32L4xx_HAL_Driver/Src/stm32l4xx_hal_smartcard.c ****    */
 463:Drivers/STM32L4xx_HAL_Driver/Src/stm32l4xx_hal_smartcard.c **** }
 277              		.loc 1 463 1
 278 0008 00BF     		nop
 279 000a 0C37     		adds	r7, r7, #12
 280              		.cfi_def_cfa_offset 4
 281 000c BD46     		mov	sp, r7
 282              		.cfi_def_cfa_register 13
 283              		@ sp needed
 284 000e 5DF8047B 		ldr	r7, [sp], #4
ARM GAS  /tmp/ccDAjxq4.s 			page 14


 285              		.cfi_restore 7
 286              		.cfi_def_cfa_offset 0
 287 0012 7047     		bx	lr
 288              		.cfi_endproc
 289              	.LFE447:
 291              		.section	.text.HAL_SMARTCARD_MspDeInit,"ax",%progbits
 292              		.align	1
 293              		.weak	HAL_SMARTCARD_MspDeInit
 294              		.syntax unified
 295              		.thumb
 296              		.thumb_func
 298              	HAL_SMARTCARD_MspDeInit:
 299              	.LFB448:
 464:Drivers/STM32L4xx_HAL_Driver/Src/stm32l4xx_hal_smartcard.c **** 
 465:Drivers/STM32L4xx_HAL_Driver/Src/stm32l4xx_hal_smartcard.c **** /**
 466:Drivers/STM32L4xx_HAL_Driver/Src/stm32l4xx_hal_smartcard.c ****   * @brief  DeInitialize the SMARTCARD MSP.
 467:Drivers/STM32L4xx_HAL_Driver/Src/stm32l4xx_hal_smartcard.c ****   * @param  hsmartcard Pointer to a SMARTCARD_HandleTypeDef structure that contains
 468:Drivers/STM32L4xx_HAL_Driver/Src/stm32l4xx_hal_smartcard.c ****   *                    the configuration information for the specified SMARTCARD module.
 469:Drivers/STM32L4xx_HAL_Driver/Src/stm32l4xx_hal_smartcard.c ****   * @retval None
 470:Drivers/STM32L4xx_HAL_Driver/Src/stm32l4xx_hal_smartcard.c ****   */
 471:Drivers/STM32L4xx_HAL_Driver/Src/stm32l4xx_hal_smartcard.c **** __weak void HAL_SMARTCARD_MspDeInit(SMARTCARD_HandleTypeDef *hsmartcard)
 472:Drivers/STM32L4xx_HAL_Driver/Src/stm32l4xx_hal_smartcard.c **** {
 300              		.loc 1 472 1
 301              		.cfi_startproc
 302              		@ args = 0, pretend = 0, frame = 8
 303              		@ frame_needed = 1, uses_anonymous_args = 0
 304              		@ link register save eliminated.
 305 0000 80B4     		push	{r7}
 306              		.cfi_def_cfa_offset 4
 307              		.cfi_offset 7, -4
 308 0002 83B0     		sub	sp, sp, #12
 309              		.cfi_def_cfa_offset 16
 310 0004 00AF     		add	r7, sp, #0
 311              		.cfi_def_cfa_register 7
 312 0006 7860     		str	r0, [r7, #4]
 473:Drivers/STM32L4xx_HAL_Driver/Src/stm32l4xx_hal_smartcard.c ****   /* Prevent unused argument(s) compilation warning */
 474:Drivers/STM32L4xx_HAL_Driver/Src/stm32l4xx_hal_smartcard.c ****   UNUSED(hsmartcard);
 475:Drivers/STM32L4xx_HAL_Driver/Src/stm32l4xx_hal_smartcard.c **** 
 476:Drivers/STM32L4xx_HAL_Driver/Src/stm32l4xx_hal_smartcard.c ****   /* NOTE : This function should not be modified, when the callback is needed,
 477:Drivers/STM32L4xx_HAL_Driver/Src/stm32l4xx_hal_smartcard.c ****             the HAL_SMARTCARD_MspDeInit can be implemented in the user file
 478:Drivers/STM32L4xx_HAL_Driver/Src/stm32l4xx_hal_smartcard.c ****    */
 479:Drivers/STM32L4xx_HAL_Driver/Src/stm32l4xx_hal_smartcard.c **** }
 313              		.loc 1 479 1
 314 0008 00BF     		nop
 315 000a 0C37     		adds	r7, r7, #12
 316              		.cfi_def_cfa_offset 4
 317 000c BD46     		mov	sp, r7
 318              		.cfi_def_cfa_register 13
 319              		@ sp needed
 320 000e 5DF8047B 		ldr	r7, [sp], #4
 321              		.cfi_restore 7
 322              		.cfi_def_cfa_offset 0
 323 0012 7047     		bx	lr
 324              		.cfi_endproc
 325              	.LFE448:
 327              		.section	.text.HAL_SMARTCARD_Transmit,"ax",%progbits
 328              		.align	1
ARM GAS  /tmp/ccDAjxq4.s 			page 15


 329              		.global	HAL_SMARTCARD_Transmit
 330              		.syntax unified
 331              		.thumb
 332              		.thumb_func
 334              	HAL_SMARTCARD_Transmit:
 335              	.LFB449:
 480:Drivers/STM32L4xx_HAL_Driver/Src/stm32l4xx_hal_smartcard.c **** 
 481:Drivers/STM32L4xx_HAL_Driver/Src/stm32l4xx_hal_smartcard.c **** #if (USE_HAL_SMARTCARD_REGISTER_CALLBACKS == 1)
 482:Drivers/STM32L4xx_HAL_Driver/Src/stm32l4xx_hal_smartcard.c **** /**
 483:Drivers/STM32L4xx_HAL_Driver/Src/stm32l4xx_hal_smartcard.c ****   * @brief  Register a User SMARTCARD Callback
 484:Drivers/STM32L4xx_HAL_Driver/Src/stm32l4xx_hal_smartcard.c ****   *         To be used to override the weak predefined callback
 485:Drivers/STM32L4xx_HAL_Driver/Src/stm32l4xx_hal_smartcard.c ****   * @note   The HAL_SMARTCARD_RegisterCallback() may be called before HAL_SMARTCARD_Init()
 486:Drivers/STM32L4xx_HAL_Driver/Src/stm32l4xx_hal_smartcard.c ****   *         in HAL_SMARTCARD_STATE_RESET to register callbacks for HAL_SMARTCARD_MSPINIT_CB_ID
 487:Drivers/STM32L4xx_HAL_Driver/Src/stm32l4xx_hal_smartcard.c ****   *         and HAL_SMARTCARD_MSPDEINIT_CB_ID
 488:Drivers/STM32L4xx_HAL_Driver/Src/stm32l4xx_hal_smartcard.c ****   * @param  hsmartcard smartcard handle
 489:Drivers/STM32L4xx_HAL_Driver/Src/stm32l4xx_hal_smartcard.c ****   * @param  CallbackID ID of the callback to be registered
 490:Drivers/STM32L4xx_HAL_Driver/Src/stm32l4xx_hal_smartcard.c ****   *         This parameter can be one of the following values:
 491:Drivers/STM32L4xx_HAL_Driver/Src/stm32l4xx_hal_smartcard.c ****   *           @arg @ref HAL_SMARTCARD_TX_COMPLETE_CB_ID Tx Complete Callback ID
 492:Drivers/STM32L4xx_HAL_Driver/Src/stm32l4xx_hal_smartcard.c ****   *           @arg @ref HAL_SMARTCARD_RX_COMPLETE_CB_ID Rx Complete Callback ID
 493:Drivers/STM32L4xx_HAL_Driver/Src/stm32l4xx_hal_smartcard.c ****   *           @arg @ref HAL_SMARTCARD_ERROR_CB_ID Error Callback ID
 494:Drivers/STM32L4xx_HAL_Driver/Src/stm32l4xx_hal_smartcard.c ****   *           @arg @ref HAL_SMARTCARD_ABORT_COMPLETE_CB_ID Abort Complete Callback ID
 495:Drivers/STM32L4xx_HAL_Driver/Src/stm32l4xx_hal_smartcard.c ****   *           @arg @ref HAL_SMARTCARD_ABORT_TRANSMIT_COMPLETE_CB_ID Abort Transmit Complete Callbac
 496:Drivers/STM32L4xx_HAL_Driver/Src/stm32l4xx_hal_smartcard.c ****   *           @arg @ref HAL_SMARTCARD_ABORT_RECEIVE_COMPLETE_CB_ID Abort Receive Complete Callback 
 497:Drivers/STM32L4xx_HAL_Driver/Src/stm32l4xx_hal_smartcard.c ****   *           @arg @ref HAL_SMARTCARD_RX_FIFO_FULL_CB_ID Rx Fifo Full Callback ID
 498:Drivers/STM32L4xx_HAL_Driver/Src/stm32l4xx_hal_smartcard.c ****   *           @arg @ref HAL_SMARTCARD_TX_FIFO_EMPTY_CB_ID Tx Fifo Empty Callback ID
 499:Drivers/STM32L4xx_HAL_Driver/Src/stm32l4xx_hal_smartcard.c ****   *           @arg @ref HAL_SMARTCARD_MSPINIT_CB_ID MspInit Callback ID
 500:Drivers/STM32L4xx_HAL_Driver/Src/stm32l4xx_hal_smartcard.c ****   *           @arg @ref HAL_SMARTCARD_MSPDEINIT_CB_ID MspDeInit Callback ID
 501:Drivers/STM32L4xx_HAL_Driver/Src/stm32l4xx_hal_smartcard.c ****   * @param  pCallback pointer to the Callback function
 502:Drivers/STM32L4xx_HAL_Driver/Src/stm32l4xx_hal_smartcard.c ****   * @retval HAL status
 503:Drivers/STM32L4xx_HAL_Driver/Src/stm32l4xx_hal_smartcard.c ****   */
 504:Drivers/STM32L4xx_HAL_Driver/Src/stm32l4xx_hal_smartcard.c **** HAL_StatusTypeDef HAL_SMARTCARD_RegisterCallback(SMARTCARD_HandleTypeDef *hsmartcard,
 505:Drivers/STM32L4xx_HAL_Driver/Src/stm32l4xx_hal_smartcard.c ****                                                  HAL_SMARTCARD_CallbackIDTypeDef CallbackID,
 506:Drivers/STM32L4xx_HAL_Driver/Src/stm32l4xx_hal_smartcard.c ****                                                  pSMARTCARD_CallbackTypeDef pCallback)
 507:Drivers/STM32L4xx_HAL_Driver/Src/stm32l4xx_hal_smartcard.c **** {
 508:Drivers/STM32L4xx_HAL_Driver/Src/stm32l4xx_hal_smartcard.c ****   HAL_StatusTypeDef status = HAL_OK;
 509:Drivers/STM32L4xx_HAL_Driver/Src/stm32l4xx_hal_smartcard.c **** 
 510:Drivers/STM32L4xx_HAL_Driver/Src/stm32l4xx_hal_smartcard.c ****   if (pCallback == NULL)
 511:Drivers/STM32L4xx_HAL_Driver/Src/stm32l4xx_hal_smartcard.c ****   {
 512:Drivers/STM32L4xx_HAL_Driver/Src/stm32l4xx_hal_smartcard.c ****     /* Update the error code */
 513:Drivers/STM32L4xx_HAL_Driver/Src/stm32l4xx_hal_smartcard.c ****     hsmartcard->ErrorCode |= HAL_SMARTCARD_ERROR_INVALID_CALLBACK;
 514:Drivers/STM32L4xx_HAL_Driver/Src/stm32l4xx_hal_smartcard.c **** 
 515:Drivers/STM32L4xx_HAL_Driver/Src/stm32l4xx_hal_smartcard.c ****     return HAL_ERROR;
 516:Drivers/STM32L4xx_HAL_Driver/Src/stm32l4xx_hal_smartcard.c ****   }
 517:Drivers/STM32L4xx_HAL_Driver/Src/stm32l4xx_hal_smartcard.c **** 
 518:Drivers/STM32L4xx_HAL_Driver/Src/stm32l4xx_hal_smartcard.c ****   if (hsmartcard->gState == HAL_SMARTCARD_STATE_READY)
 519:Drivers/STM32L4xx_HAL_Driver/Src/stm32l4xx_hal_smartcard.c ****   {
 520:Drivers/STM32L4xx_HAL_Driver/Src/stm32l4xx_hal_smartcard.c ****     switch (CallbackID)
 521:Drivers/STM32L4xx_HAL_Driver/Src/stm32l4xx_hal_smartcard.c ****     {
 522:Drivers/STM32L4xx_HAL_Driver/Src/stm32l4xx_hal_smartcard.c **** 
 523:Drivers/STM32L4xx_HAL_Driver/Src/stm32l4xx_hal_smartcard.c ****       case HAL_SMARTCARD_TX_COMPLETE_CB_ID :
 524:Drivers/STM32L4xx_HAL_Driver/Src/stm32l4xx_hal_smartcard.c ****         hsmartcard->TxCpltCallback = pCallback;
 525:Drivers/STM32L4xx_HAL_Driver/Src/stm32l4xx_hal_smartcard.c ****         break;
 526:Drivers/STM32L4xx_HAL_Driver/Src/stm32l4xx_hal_smartcard.c **** 
 527:Drivers/STM32L4xx_HAL_Driver/Src/stm32l4xx_hal_smartcard.c ****       case HAL_SMARTCARD_RX_COMPLETE_CB_ID :
 528:Drivers/STM32L4xx_HAL_Driver/Src/stm32l4xx_hal_smartcard.c ****         hsmartcard->RxCpltCallback = pCallback;
 529:Drivers/STM32L4xx_HAL_Driver/Src/stm32l4xx_hal_smartcard.c ****         break;
 530:Drivers/STM32L4xx_HAL_Driver/Src/stm32l4xx_hal_smartcard.c **** 
ARM GAS  /tmp/ccDAjxq4.s 			page 16


 531:Drivers/STM32L4xx_HAL_Driver/Src/stm32l4xx_hal_smartcard.c ****       case HAL_SMARTCARD_ERROR_CB_ID :
 532:Drivers/STM32L4xx_HAL_Driver/Src/stm32l4xx_hal_smartcard.c ****         hsmartcard->ErrorCallback = pCallback;
 533:Drivers/STM32L4xx_HAL_Driver/Src/stm32l4xx_hal_smartcard.c ****         break;
 534:Drivers/STM32L4xx_HAL_Driver/Src/stm32l4xx_hal_smartcard.c **** 
 535:Drivers/STM32L4xx_HAL_Driver/Src/stm32l4xx_hal_smartcard.c ****       case HAL_SMARTCARD_ABORT_COMPLETE_CB_ID :
 536:Drivers/STM32L4xx_HAL_Driver/Src/stm32l4xx_hal_smartcard.c ****         hsmartcard->AbortCpltCallback = pCallback;
 537:Drivers/STM32L4xx_HAL_Driver/Src/stm32l4xx_hal_smartcard.c ****         break;
 538:Drivers/STM32L4xx_HAL_Driver/Src/stm32l4xx_hal_smartcard.c **** 
 539:Drivers/STM32L4xx_HAL_Driver/Src/stm32l4xx_hal_smartcard.c ****       case HAL_SMARTCARD_ABORT_TRANSMIT_COMPLETE_CB_ID :
 540:Drivers/STM32L4xx_HAL_Driver/Src/stm32l4xx_hal_smartcard.c ****         hsmartcard->AbortTransmitCpltCallback = pCallback;
 541:Drivers/STM32L4xx_HAL_Driver/Src/stm32l4xx_hal_smartcard.c ****         break;
 542:Drivers/STM32L4xx_HAL_Driver/Src/stm32l4xx_hal_smartcard.c **** 
 543:Drivers/STM32L4xx_HAL_Driver/Src/stm32l4xx_hal_smartcard.c ****       case HAL_SMARTCARD_ABORT_RECEIVE_COMPLETE_CB_ID :
 544:Drivers/STM32L4xx_HAL_Driver/Src/stm32l4xx_hal_smartcard.c ****         hsmartcard->AbortReceiveCpltCallback = pCallback;
 545:Drivers/STM32L4xx_HAL_Driver/Src/stm32l4xx_hal_smartcard.c ****         break;
 546:Drivers/STM32L4xx_HAL_Driver/Src/stm32l4xx_hal_smartcard.c **** 
 547:Drivers/STM32L4xx_HAL_Driver/Src/stm32l4xx_hal_smartcard.c **** #if defined(USART_CR1_FIFOEN)
 548:Drivers/STM32L4xx_HAL_Driver/Src/stm32l4xx_hal_smartcard.c ****       case HAL_SMARTCARD_RX_FIFO_FULL_CB_ID :
 549:Drivers/STM32L4xx_HAL_Driver/Src/stm32l4xx_hal_smartcard.c ****         hsmartcard->RxFifoFullCallback = pCallback;
 550:Drivers/STM32L4xx_HAL_Driver/Src/stm32l4xx_hal_smartcard.c ****         break;
 551:Drivers/STM32L4xx_HAL_Driver/Src/stm32l4xx_hal_smartcard.c **** 
 552:Drivers/STM32L4xx_HAL_Driver/Src/stm32l4xx_hal_smartcard.c ****       case HAL_SMARTCARD_TX_FIFO_EMPTY_CB_ID :
 553:Drivers/STM32L4xx_HAL_Driver/Src/stm32l4xx_hal_smartcard.c ****         hsmartcard->TxFifoEmptyCallback = pCallback;
 554:Drivers/STM32L4xx_HAL_Driver/Src/stm32l4xx_hal_smartcard.c ****         break;
 555:Drivers/STM32L4xx_HAL_Driver/Src/stm32l4xx_hal_smartcard.c **** #endif /* USART_CR1_FIFOEN */
 556:Drivers/STM32L4xx_HAL_Driver/Src/stm32l4xx_hal_smartcard.c **** 
 557:Drivers/STM32L4xx_HAL_Driver/Src/stm32l4xx_hal_smartcard.c ****       case HAL_SMARTCARD_MSPINIT_CB_ID :
 558:Drivers/STM32L4xx_HAL_Driver/Src/stm32l4xx_hal_smartcard.c ****         hsmartcard->MspInitCallback = pCallback;
 559:Drivers/STM32L4xx_HAL_Driver/Src/stm32l4xx_hal_smartcard.c ****         break;
 560:Drivers/STM32L4xx_HAL_Driver/Src/stm32l4xx_hal_smartcard.c **** 
 561:Drivers/STM32L4xx_HAL_Driver/Src/stm32l4xx_hal_smartcard.c ****       case HAL_SMARTCARD_MSPDEINIT_CB_ID :
 562:Drivers/STM32L4xx_HAL_Driver/Src/stm32l4xx_hal_smartcard.c ****         hsmartcard->MspDeInitCallback = pCallback;
 563:Drivers/STM32L4xx_HAL_Driver/Src/stm32l4xx_hal_smartcard.c ****         break;
 564:Drivers/STM32L4xx_HAL_Driver/Src/stm32l4xx_hal_smartcard.c **** 
 565:Drivers/STM32L4xx_HAL_Driver/Src/stm32l4xx_hal_smartcard.c ****       default :
 566:Drivers/STM32L4xx_HAL_Driver/Src/stm32l4xx_hal_smartcard.c ****         /* Update the error code */
 567:Drivers/STM32L4xx_HAL_Driver/Src/stm32l4xx_hal_smartcard.c ****         hsmartcard->ErrorCode |= HAL_SMARTCARD_ERROR_INVALID_CALLBACK;
 568:Drivers/STM32L4xx_HAL_Driver/Src/stm32l4xx_hal_smartcard.c **** 
 569:Drivers/STM32L4xx_HAL_Driver/Src/stm32l4xx_hal_smartcard.c ****         /* Return error status */
 570:Drivers/STM32L4xx_HAL_Driver/Src/stm32l4xx_hal_smartcard.c ****         status =  HAL_ERROR;
 571:Drivers/STM32L4xx_HAL_Driver/Src/stm32l4xx_hal_smartcard.c ****         break;
 572:Drivers/STM32L4xx_HAL_Driver/Src/stm32l4xx_hal_smartcard.c ****     }
 573:Drivers/STM32L4xx_HAL_Driver/Src/stm32l4xx_hal_smartcard.c ****   }
 574:Drivers/STM32L4xx_HAL_Driver/Src/stm32l4xx_hal_smartcard.c ****   else if (hsmartcard->gState == HAL_SMARTCARD_STATE_RESET)
 575:Drivers/STM32L4xx_HAL_Driver/Src/stm32l4xx_hal_smartcard.c ****   {
 576:Drivers/STM32L4xx_HAL_Driver/Src/stm32l4xx_hal_smartcard.c ****     switch (CallbackID)
 577:Drivers/STM32L4xx_HAL_Driver/Src/stm32l4xx_hal_smartcard.c ****     {
 578:Drivers/STM32L4xx_HAL_Driver/Src/stm32l4xx_hal_smartcard.c ****       case HAL_SMARTCARD_MSPINIT_CB_ID :
 579:Drivers/STM32L4xx_HAL_Driver/Src/stm32l4xx_hal_smartcard.c ****         hsmartcard->MspInitCallback = pCallback;
 580:Drivers/STM32L4xx_HAL_Driver/Src/stm32l4xx_hal_smartcard.c ****         break;
 581:Drivers/STM32L4xx_HAL_Driver/Src/stm32l4xx_hal_smartcard.c **** 
 582:Drivers/STM32L4xx_HAL_Driver/Src/stm32l4xx_hal_smartcard.c ****       case HAL_SMARTCARD_MSPDEINIT_CB_ID :
 583:Drivers/STM32L4xx_HAL_Driver/Src/stm32l4xx_hal_smartcard.c ****         hsmartcard->MspDeInitCallback = pCallback;
 584:Drivers/STM32L4xx_HAL_Driver/Src/stm32l4xx_hal_smartcard.c ****         break;
 585:Drivers/STM32L4xx_HAL_Driver/Src/stm32l4xx_hal_smartcard.c **** 
 586:Drivers/STM32L4xx_HAL_Driver/Src/stm32l4xx_hal_smartcard.c ****       default :
 587:Drivers/STM32L4xx_HAL_Driver/Src/stm32l4xx_hal_smartcard.c ****         /* Update the error code */
ARM GAS  /tmp/ccDAjxq4.s 			page 17


 588:Drivers/STM32L4xx_HAL_Driver/Src/stm32l4xx_hal_smartcard.c ****         hsmartcard->ErrorCode |= HAL_SMARTCARD_ERROR_INVALID_CALLBACK;
 589:Drivers/STM32L4xx_HAL_Driver/Src/stm32l4xx_hal_smartcard.c **** 
 590:Drivers/STM32L4xx_HAL_Driver/Src/stm32l4xx_hal_smartcard.c ****         /* Return error status */
 591:Drivers/STM32L4xx_HAL_Driver/Src/stm32l4xx_hal_smartcard.c ****         status =  HAL_ERROR;
 592:Drivers/STM32L4xx_HAL_Driver/Src/stm32l4xx_hal_smartcard.c ****         break;
 593:Drivers/STM32L4xx_HAL_Driver/Src/stm32l4xx_hal_smartcard.c ****     }
 594:Drivers/STM32L4xx_HAL_Driver/Src/stm32l4xx_hal_smartcard.c ****   }
 595:Drivers/STM32L4xx_HAL_Driver/Src/stm32l4xx_hal_smartcard.c ****   else
 596:Drivers/STM32L4xx_HAL_Driver/Src/stm32l4xx_hal_smartcard.c ****   {
 597:Drivers/STM32L4xx_HAL_Driver/Src/stm32l4xx_hal_smartcard.c ****     /* Update the error code */
 598:Drivers/STM32L4xx_HAL_Driver/Src/stm32l4xx_hal_smartcard.c ****     hsmartcard->ErrorCode |= HAL_SMARTCARD_ERROR_INVALID_CALLBACK;
 599:Drivers/STM32L4xx_HAL_Driver/Src/stm32l4xx_hal_smartcard.c **** 
 600:Drivers/STM32L4xx_HAL_Driver/Src/stm32l4xx_hal_smartcard.c ****     /* Return error status */
 601:Drivers/STM32L4xx_HAL_Driver/Src/stm32l4xx_hal_smartcard.c ****     status =  HAL_ERROR;
 602:Drivers/STM32L4xx_HAL_Driver/Src/stm32l4xx_hal_smartcard.c ****   }
 603:Drivers/STM32L4xx_HAL_Driver/Src/stm32l4xx_hal_smartcard.c **** 
 604:Drivers/STM32L4xx_HAL_Driver/Src/stm32l4xx_hal_smartcard.c ****   return status;
 605:Drivers/STM32L4xx_HAL_Driver/Src/stm32l4xx_hal_smartcard.c **** }
 606:Drivers/STM32L4xx_HAL_Driver/Src/stm32l4xx_hal_smartcard.c **** 
 607:Drivers/STM32L4xx_HAL_Driver/Src/stm32l4xx_hal_smartcard.c **** /**
 608:Drivers/STM32L4xx_HAL_Driver/Src/stm32l4xx_hal_smartcard.c ****   * @brief  Unregister an SMARTCARD callback
 609:Drivers/STM32L4xx_HAL_Driver/Src/stm32l4xx_hal_smartcard.c ****   *         SMARTCARD callback is redirected to the weak predefined callback
 610:Drivers/STM32L4xx_HAL_Driver/Src/stm32l4xx_hal_smartcard.c ****   * @note   The HAL_SMARTCARD_UnRegisterCallback() may be called before HAL_SMARTCARD_Init()
 611:Drivers/STM32L4xx_HAL_Driver/Src/stm32l4xx_hal_smartcard.c ****   *         in HAL_SMARTCARD_STATE_RESET to un-register callbacks for HAL_SMARTCARD_MSPINIT_CB_ID
 612:Drivers/STM32L4xx_HAL_Driver/Src/stm32l4xx_hal_smartcard.c ****   *         and HAL_SMARTCARD_MSPDEINIT_CB_ID
 613:Drivers/STM32L4xx_HAL_Driver/Src/stm32l4xx_hal_smartcard.c ****   * @param  hsmartcard smartcard handle
 614:Drivers/STM32L4xx_HAL_Driver/Src/stm32l4xx_hal_smartcard.c ****   * @param  CallbackID ID of the callback to be unregistered
 615:Drivers/STM32L4xx_HAL_Driver/Src/stm32l4xx_hal_smartcard.c ****   *         This parameter can be one of the following values:
 616:Drivers/STM32L4xx_HAL_Driver/Src/stm32l4xx_hal_smartcard.c ****   *           @arg @ref HAL_SMARTCARD_TX_COMPLETE_CB_ID Tx Complete Callback ID
 617:Drivers/STM32L4xx_HAL_Driver/Src/stm32l4xx_hal_smartcard.c ****   *           @arg @ref HAL_SMARTCARD_RX_COMPLETE_CB_ID Rx Complete Callback ID
 618:Drivers/STM32L4xx_HAL_Driver/Src/stm32l4xx_hal_smartcard.c ****   *           @arg @ref HAL_SMARTCARD_ERROR_CB_ID Error Callback ID
 619:Drivers/STM32L4xx_HAL_Driver/Src/stm32l4xx_hal_smartcard.c ****   *           @arg @ref HAL_SMARTCARD_ABORT_COMPLETE_CB_ID Abort Complete Callback ID
 620:Drivers/STM32L4xx_HAL_Driver/Src/stm32l4xx_hal_smartcard.c ****   *           @arg @ref HAL_SMARTCARD_ABORT_TRANSMIT_COMPLETE_CB_ID Abort Transmit Complete Callbac
 621:Drivers/STM32L4xx_HAL_Driver/Src/stm32l4xx_hal_smartcard.c ****   *           @arg @ref HAL_SMARTCARD_ABORT_RECEIVE_COMPLETE_CB_ID Abort Receive Complete Callback 
 622:Drivers/STM32L4xx_HAL_Driver/Src/stm32l4xx_hal_smartcard.c ****   *           @arg @ref HAL_SMARTCARD_RX_FIFO_FULL_CB_ID Rx Fifo Full Callback ID
 623:Drivers/STM32L4xx_HAL_Driver/Src/stm32l4xx_hal_smartcard.c ****   *           @arg @ref HAL_SMARTCARD_TX_FIFO_EMPTY_CB_ID Tx Fifo Empty Callback ID
 624:Drivers/STM32L4xx_HAL_Driver/Src/stm32l4xx_hal_smartcard.c ****   *           @arg @ref HAL_SMARTCARD_MSPINIT_CB_ID MspInit Callback ID
 625:Drivers/STM32L4xx_HAL_Driver/Src/stm32l4xx_hal_smartcard.c ****   *           @arg @ref HAL_SMARTCARD_MSPDEINIT_CB_ID MspDeInit Callback ID
 626:Drivers/STM32L4xx_HAL_Driver/Src/stm32l4xx_hal_smartcard.c ****   * @retval HAL status
 627:Drivers/STM32L4xx_HAL_Driver/Src/stm32l4xx_hal_smartcard.c ****   */
 628:Drivers/STM32L4xx_HAL_Driver/Src/stm32l4xx_hal_smartcard.c **** HAL_StatusTypeDef HAL_SMARTCARD_UnRegisterCallback(SMARTCARD_HandleTypeDef *hsmartcard,
 629:Drivers/STM32L4xx_HAL_Driver/Src/stm32l4xx_hal_smartcard.c ****                                                    HAL_SMARTCARD_CallbackIDTypeDef CallbackID)
 630:Drivers/STM32L4xx_HAL_Driver/Src/stm32l4xx_hal_smartcard.c **** {
 631:Drivers/STM32L4xx_HAL_Driver/Src/stm32l4xx_hal_smartcard.c ****   HAL_StatusTypeDef status = HAL_OK;
 632:Drivers/STM32L4xx_HAL_Driver/Src/stm32l4xx_hal_smartcard.c **** 
 633:Drivers/STM32L4xx_HAL_Driver/Src/stm32l4xx_hal_smartcard.c ****   if (HAL_SMARTCARD_STATE_READY == hsmartcard->gState)
 634:Drivers/STM32L4xx_HAL_Driver/Src/stm32l4xx_hal_smartcard.c ****   {
 635:Drivers/STM32L4xx_HAL_Driver/Src/stm32l4xx_hal_smartcard.c ****     switch (CallbackID)
 636:Drivers/STM32L4xx_HAL_Driver/Src/stm32l4xx_hal_smartcard.c ****     {
 637:Drivers/STM32L4xx_HAL_Driver/Src/stm32l4xx_hal_smartcard.c ****       case HAL_SMARTCARD_TX_COMPLETE_CB_ID :
 638:Drivers/STM32L4xx_HAL_Driver/Src/stm32l4xx_hal_smartcard.c ****         hsmartcard->TxCpltCallback = HAL_SMARTCARD_TxCpltCallback;                 /* Legacy weak T
 639:Drivers/STM32L4xx_HAL_Driver/Src/stm32l4xx_hal_smartcard.c ****         break;
 640:Drivers/STM32L4xx_HAL_Driver/Src/stm32l4xx_hal_smartcard.c **** 
 641:Drivers/STM32L4xx_HAL_Driver/Src/stm32l4xx_hal_smartcard.c ****       case HAL_SMARTCARD_RX_COMPLETE_CB_ID :
 642:Drivers/STM32L4xx_HAL_Driver/Src/stm32l4xx_hal_smartcard.c ****         hsmartcard->RxCpltCallback = HAL_SMARTCARD_RxCpltCallback;                 /* Legacy weak R
 643:Drivers/STM32L4xx_HAL_Driver/Src/stm32l4xx_hal_smartcard.c ****         break;
 644:Drivers/STM32L4xx_HAL_Driver/Src/stm32l4xx_hal_smartcard.c **** 
ARM GAS  /tmp/ccDAjxq4.s 			page 18


 645:Drivers/STM32L4xx_HAL_Driver/Src/stm32l4xx_hal_smartcard.c ****       case HAL_SMARTCARD_ERROR_CB_ID :
 646:Drivers/STM32L4xx_HAL_Driver/Src/stm32l4xx_hal_smartcard.c ****         hsmartcard->ErrorCallback = HAL_SMARTCARD_ErrorCallback;                   /* Legacy weak E
 647:Drivers/STM32L4xx_HAL_Driver/Src/stm32l4xx_hal_smartcard.c ****         break;
 648:Drivers/STM32L4xx_HAL_Driver/Src/stm32l4xx_hal_smartcard.c **** 
 649:Drivers/STM32L4xx_HAL_Driver/Src/stm32l4xx_hal_smartcard.c ****       case HAL_SMARTCARD_ABORT_COMPLETE_CB_ID :
 650:Drivers/STM32L4xx_HAL_Driver/Src/stm32l4xx_hal_smartcard.c ****         hsmartcard->AbortCpltCallback = HAL_SMARTCARD_AbortCpltCallback;           /* Legacy weak A
 651:Drivers/STM32L4xx_HAL_Driver/Src/stm32l4xx_hal_smartcard.c ****         break;
 652:Drivers/STM32L4xx_HAL_Driver/Src/stm32l4xx_hal_smartcard.c **** 
 653:Drivers/STM32L4xx_HAL_Driver/Src/stm32l4xx_hal_smartcard.c ****       case HAL_SMARTCARD_ABORT_TRANSMIT_COMPLETE_CB_ID :
 654:Drivers/STM32L4xx_HAL_Driver/Src/stm32l4xx_hal_smartcard.c ****         hsmartcard->AbortTransmitCpltCallback = HAL_SMARTCARD_AbortTransmitCpltCallback; /* Legacy 
 655:Drivers/STM32L4xx_HAL_Driver/Src/stm32l4xx_hal_smartcard.c ****                                                                                             AbortTr
 656:Drivers/STM32L4xx_HAL_Driver/Src/stm32l4xx_hal_smartcard.c ****         break;
 657:Drivers/STM32L4xx_HAL_Driver/Src/stm32l4xx_hal_smartcard.c **** 
 658:Drivers/STM32L4xx_HAL_Driver/Src/stm32l4xx_hal_smartcard.c ****       case HAL_SMARTCARD_ABORT_RECEIVE_COMPLETE_CB_ID :
 659:Drivers/STM32L4xx_HAL_Driver/Src/stm32l4xx_hal_smartcard.c ****         hsmartcard->AbortReceiveCpltCallback = HAL_SMARTCARD_AbortReceiveCpltCallback;  /* Legacy w
 660:Drivers/STM32L4xx_HAL_Driver/Src/stm32l4xx_hal_smartcard.c ****                                                                                            AbortRec
 661:Drivers/STM32L4xx_HAL_Driver/Src/stm32l4xx_hal_smartcard.c ****         break;
 662:Drivers/STM32L4xx_HAL_Driver/Src/stm32l4xx_hal_smartcard.c **** 
 663:Drivers/STM32L4xx_HAL_Driver/Src/stm32l4xx_hal_smartcard.c **** #if defined(USART_CR1_FIFOEN)
 664:Drivers/STM32L4xx_HAL_Driver/Src/stm32l4xx_hal_smartcard.c ****       case HAL_SMARTCARD_RX_FIFO_FULL_CB_ID :
 665:Drivers/STM32L4xx_HAL_Driver/Src/stm32l4xx_hal_smartcard.c ****         hsmartcard->RxFifoFullCallback = HAL_SMARTCARDEx_RxFifoFullCallback;      /* Legacy weak Rx
 666:Drivers/STM32L4xx_HAL_Driver/Src/stm32l4xx_hal_smartcard.c ****         break;
 667:Drivers/STM32L4xx_HAL_Driver/Src/stm32l4xx_hal_smartcard.c **** 
 668:Drivers/STM32L4xx_HAL_Driver/Src/stm32l4xx_hal_smartcard.c ****       case HAL_SMARTCARD_TX_FIFO_EMPTY_CB_ID :
 669:Drivers/STM32L4xx_HAL_Driver/Src/stm32l4xx_hal_smartcard.c ****         hsmartcard->TxFifoEmptyCallback = HAL_SMARTCARDEx_TxFifoEmptyCallback;    /* Legacy weak Tx
 670:Drivers/STM32L4xx_HAL_Driver/Src/stm32l4xx_hal_smartcard.c ****         break;
 671:Drivers/STM32L4xx_HAL_Driver/Src/stm32l4xx_hal_smartcard.c **** #endif /* USART_CR1_FIFOEN */
 672:Drivers/STM32L4xx_HAL_Driver/Src/stm32l4xx_hal_smartcard.c **** 
 673:Drivers/STM32L4xx_HAL_Driver/Src/stm32l4xx_hal_smartcard.c ****       case HAL_SMARTCARD_MSPINIT_CB_ID :
 674:Drivers/STM32L4xx_HAL_Driver/Src/stm32l4xx_hal_smartcard.c ****         hsmartcard->MspInitCallback = HAL_SMARTCARD_MspInit;                       /* Legacy weak M
 675:Drivers/STM32L4xx_HAL_Driver/Src/stm32l4xx_hal_smartcard.c ****         break;
 676:Drivers/STM32L4xx_HAL_Driver/Src/stm32l4xx_hal_smartcard.c **** 
 677:Drivers/STM32L4xx_HAL_Driver/Src/stm32l4xx_hal_smartcard.c ****       case HAL_SMARTCARD_MSPDEINIT_CB_ID :
 678:Drivers/STM32L4xx_HAL_Driver/Src/stm32l4xx_hal_smartcard.c ****         hsmartcard->MspDeInitCallback = HAL_SMARTCARD_MspDeInit;                   /* Legacy weak M
 679:Drivers/STM32L4xx_HAL_Driver/Src/stm32l4xx_hal_smartcard.c ****         break;
 680:Drivers/STM32L4xx_HAL_Driver/Src/stm32l4xx_hal_smartcard.c **** 
 681:Drivers/STM32L4xx_HAL_Driver/Src/stm32l4xx_hal_smartcard.c ****       default :
 682:Drivers/STM32L4xx_HAL_Driver/Src/stm32l4xx_hal_smartcard.c ****         /* Update the error code */
 683:Drivers/STM32L4xx_HAL_Driver/Src/stm32l4xx_hal_smartcard.c ****         hsmartcard->ErrorCode |= HAL_SMARTCARD_ERROR_INVALID_CALLBACK;
 684:Drivers/STM32L4xx_HAL_Driver/Src/stm32l4xx_hal_smartcard.c **** 
 685:Drivers/STM32L4xx_HAL_Driver/Src/stm32l4xx_hal_smartcard.c ****         /* Return error status */
 686:Drivers/STM32L4xx_HAL_Driver/Src/stm32l4xx_hal_smartcard.c ****         status =  HAL_ERROR;
 687:Drivers/STM32L4xx_HAL_Driver/Src/stm32l4xx_hal_smartcard.c ****         break;
 688:Drivers/STM32L4xx_HAL_Driver/Src/stm32l4xx_hal_smartcard.c ****     }
 689:Drivers/STM32L4xx_HAL_Driver/Src/stm32l4xx_hal_smartcard.c ****   }
 690:Drivers/STM32L4xx_HAL_Driver/Src/stm32l4xx_hal_smartcard.c ****   else if (HAL_SMARTCARD_STATE_RESET == hsmartcard->gState)
 691:Drivers/STM32L4xx_HAL_Driver/Src/stm32l4xx_hal_smartcard.c ****   {
 692:Drivers/STM32L4xx_HAL_Driver/Src/stm32l4xx_hal_smartcard.c ****     switch (CallbackID)
 693:Drivers/STM32L4xx_HAL_Driver/Src/stm32l4xx_hal_smartcard.c ****     {
 694:Drivers/STM32L4xx_HAL_Driver/Src/stm32l4xx_hal_smartcard.c ****       case HAL_SMARTCARD_MSPINIT_CB_ID :
 695:Drivers/STM32L4xx_HAL_Driver/Src/stm32l4xx_hal_smartcard.c ****         hsmartcard->MspInitCallback = HAL_SMARTCARD_MspInit;
 696:Drivers/STM32L4xx_HAL_Driver/Src/stm32l4xx_hal_smartcard.c ****         break;
 697:Drivers/STM32L4xx_HAL_Driver/Src/stm32l4xx_hal_smartcard.c **** 
 698:Drivers/STM32L4xx_HAL_Driver/Src/stm32l4xx_hal_smartcard.c ****       case HAL_SMARTCARD_MSPDEINIT_CB_ID :
 699:Drivers/STM32L4xx_HAL_Driver/Src/stm32l4xx_hal_smartcard.c ****         hsmartcard->MspDeInitCallback = HAL_SMARTCARD_MspDeInit;
 700:Drivers/STM32L4xx_HAL_Driver/Src/stm32l4xx_hal_smartcard.c ****         break;
 701:Drivers/STM32L4xx_HAL_Driver/Src/stm32l4xx_hal_smartcard.c **** 
ARM GAS  /tmp/ccDAjxq4.s 			page 19


 702:Drivers/STM32L4xx_HAL_Driver/Src/stm32l4xx_hal_smartcard.c ****       default :
 703:Drivers/STM32L4xx_HAL_Driver/Src/stm32l4xx_hal_smartcard.c ****         /* Update the error code */
 704:Drivers/STM32L4xx_HAL_Driver/Src/stm32l4xx_hal_smartcard.c ****         hsmartcard->ErrorCode |= HAL_SMARTCARD_ERROR_INVALID_CALLBACK;
 705:Drivers/STM32L4xx_HAL_Driver/Src/stm32l4xx_hal_smartcard.c **** 
 706:Drivers/STM32L4xx_HAL_Driver/Src/stm32l4xx_hal_smartcard.c ****         /* Return error status */
 707:Drivers/STM32L4xx_HAL_Driver/Src/stm32l4xx_hal_smartcard.c ****         status =  HAL_ERROR;
 708:Drivers/STM32L4xx_HAL_Driver/Src/stm32l4xx_hal_smartcard.c ****         break;
 709:Drivers/STM32L4xx_HAL_Driver/Src/stm32l4xx_hal_smartcard.c ****     }
 710:Drivers/STM32L4xx_HAL_Driver/Src/stm32l4xx_hal_smartcard.c ****   }
 711:Drivers/STM32L4xx_HAL_Driver/Src/stm32l4xx_hal_smartcard.c ****   else
 712:Drivers/STM32L4xx_HAL_Driver/Src/stm32l4xx_hal_smartcard.c ****   {
 713:Drivers/STM32L4xx_HAL_Driver/Src/stm32l4xx_hal_smartcard.c ****     /* Update the error code */
 714:Drivers/STM32L4xx_HAL_Driver/Src/stm32l4xx_hal_smartcard.c ****     hsmartcard->ErrorCode |= HAL_SMARTCARD_ERROR_INVALID_CALLBACK;
 715:Drivers/STM32L4xx_HAL_Driver/Src/stm32l4xx_hal_smartcard.c **** 
 716:Drivers/STM32L4xx_HAL_Driver/Src/stm32l4xx_hal_smartcard.c ****     /* Return error status */
 717:Drivers/STM32L4xx_HAL_Driver/Src/stm32l4xx_hal_smartcard.c ****     status =  HAL_ERROR;
 718:Drivers/STM32L4xx_HAL_Driver/Src/stm32l4xx_hal_smartcard.c ****   }
 719:Drivers/STM32L4xx_HAL_Driver/Src/stm32l4xx_hal_smartcard.c **** 
 720:Drivers/STM32L4xx_HAL_Driver/Src/stm32l4xx_hal_smartcard.c ****   return status;
 721:Drivers/STM32L4xx_HAL_Driver/Src/stm32l4xx_hal_smartcard.c **** }
 722:Drivers/STM32L4xx_HAL_Driver/Src/stm32l4xx_hal_smartcard.c **** #endif /* USE_HAL_SMARTCARD_REGISTER_CALLBACKS */
 723:Drivers/STM32L4xx_HAL_Driver/Src/stm32l4xx_hal_smartcard.c **** 
 724:Drivers/STM32L4xx_HAL_Driver/Src/stm32l4xx_hal_smartcard.c **** /**
 725:Drivers/STM32L4xx_HAL_Driver/Src/stm32l4xx_hal_smartcard.c ****   * @}
 726:Drivers/STM32L4xx_HAL_Driver/Src/stm32l4xx_hal_smartcard.c ****   */
 727:Drivers/STM32L4xx_HAL_Driver/Src/stm32l4xx_hal_smartcard.c **** 
 728:Drivers/STM32L4xx_HAL_Driver/Src/stm32l4xx_hal_smartcard.c **** /** @defgroup SMARTCARD_Exported_Functions_Group2 IO operation functions
 729:Drivers/STM32L4xx_HAL_Driver/Src/stm32l4xx_hal_smartcard.c ****   * @brief    SMARTCARD Transmit and Receive functions
 730:Drivers/STM32L4xx_HAL_Driver/Src/stm32l4xx_hal_smartcard.c ****   *
 731:Drivers/STM32L4xx_HAL_Driver/Src/stm32l4xx_hal_smartcard.c **** @verbatim
 732:Drivers/STM32L4xx_HAL_Driver/Src/stm32l4xx_hal_smartcard.c ****   ==============================================================================
 733:Drivers/STM32L4xx_HAL_Driver/Src/stm32l4xx_hal_smartcard.c ****                          ##### IO operation functions #####
 734:Drivers/STM32L4xx_HAL_Driver/Src/stm32l4xx_hal_smartcard.c ****   ==============================================================================
 735:Drivers/STM32L4xx_HAL_Driver/Src/stm32l4xx_hal_smartcard.c ****   [..]
 736:Drivers/STM32L4xx_HAL_Driver/Src/stm32l4xx_hal_smartcard.c ****     This subsection provides a set of functions allowing to manage the SMARTCARD data transfers.
 737:Drivers/STM32L4xx_HAL_Driver/Src/stm32l4xx_hal_smartcard.c **** 
 738:Drivers/STM32L4xx_HAL_Driver/Src/stm32l4xx_hal_smartcard.c ****   [..]
 739:Drivers/STM32L4xx_HAL_Driver/Src/stm32l4xx_hal_smartcard.c ****     Smartcard is a single wire half duplex communication protocol.
 740:Drivers/STM32L4xx_HAL_Driver/Src/stm32l4xx_hal_smartcard.c ****     The Smartcard interface is designed to support asynchronous protocol Smartcards as
 741:Drivers/STM32L4xx_HAL_Driver/Src/stm32l4xx_hal_smartcard.c ****     defined in the ISO 7816-3 standard. The USART should be configured as:
 742:Drivers/STM32L4xx_HAL_Driver/Src/stm32l4xx_hal_smartcard.c ****     (+) 8 bits plus parity: where M=1 and PCE=1 in the USART_CR1 register
 743:Drivers/STM32L4xx_HAL_Driver/Src/stm32l4xx_hal_smartcard.c ****     (+) 1.5 stop bits when transmitting and receiving: where STOP=11 in the USART_CR2 register.
 744:Drivers/STM32L4xx_HAL_Driver/Src/stm32l4xx_hal_smartcard.c **** 
 745:Drivers/STM32L4xx_HAL_Driver/Src/stm32l4xx_hal_smartcard.c ****   [..]
 746:Drivers/STM32L4xx_HAL_Driver/Src/stm32l4xx_hal_smartcard.c ****     (#) There are two modes of transfer:
 747:Drivers/STM32L4xx_HAL_Driver/Src/stm32l4xx_hal_smartcard.c ****         (##) Blocking mode: The communication is performed in polling mode.
 748:Drivers/STM32L4xx_HAL_Driver/Src/stm32l4xx_hal_smartcard.c ****              The HAL status of all data processing is returned by the same function
 749:Drivers/STM32L4xx_HAL_Driver/Src/stm32l4xx_hal_smartcard.c ****              after finishing transfer.
 750:Drivers/STM32L4xx_HAL_Driver/Src/stm32l4xx_hal_smartcard.c ****         (##) Non-Blocking mode: The communication is performed using Interrupts
 751:Drivers/STM32L4xx_HAL_Driver/Src/stm32l4xx_hal_smartcard.c ****              or DMA, the relevant API's return the HAL status.
 752:Drivers/STM32L4xx_HAL_Driver/Src/stm32l4xx_hal_smartcard.c ****              The end of the data processing will be indicated through the
 753:Drivers/STM32L4xx_HAL_Driver/Src/stm32l4xx_hal_smartcard.c ****              dedicated SMARTCARD IRQ when using Interrupt mode or the DMA IRQ when
 754:Drivers/STM32L4xx_HAL_Driver/Src/stm32l4xx_hal_smartcard.c ****              using DMA mode.
 755:Drivers/STM32L4xx_HAL_Driver/Src/stm32l4xx_hal_smartcard.c ****         (##) The HAL_SMARTCARD_TxCpltCallback(), HAL_SMARTCARD_RxCpltCallback() user callbacks
 756:Drivers/STM32L4xx_HAL_Driver/Src/stm32l4xx_hal_smartcard.c ****              will be executed respectively at the end of the Transmit or Receive process
 757:Drivers/STM32L4xx_HAL_Driver/Src/stm32l4xx_hal_smartcard.c ****              The HAL_SMARTCARD_ErrorCallback() user callback will be executed when a communication
 758:Drivers/STM32L4xx_HAL_Driver/Src/stm32l4xx_hal_smartcard.c ****              error is detected.
ARM GAS  /tmp/ccDAjxq4.s 			page 20


 759:Drivers/STM32L4xx_HAL_Driver/Src/stm32l4xx_hal_smartcard.c **** 
 760:Drivers/STM32L4xx_HAL_Driver/Src/stm32l4xx_hal_smartcard.c ****     (#) Blocking mode APIs are :
 761:Drivers/STM32L4xx_HAL_Driver/Src/stm32l4xx_hal_smartcard.c ****         (##) HAL_SMARTCARD_Transmit()
 762:Drivers/STM32L4xx_HAL_Driver/Src/stm32l4xx_hal_smartcard.c ****         (##) HAL_SMARTCARD_Receive()
 763:Drivers/STM32L4xx_HAL_Driver/Src/stm32l4xx_hal_smartcard.c **** 
 764:Drivers/STM32L4xx_HAL_Driver/Src/stm32l4xx_hal_smartcard.c ****     (#) Non Blocking mode APIs with Interrupt are :
 765:Drivers/STM32L4xx_HAL_Driver/Src/stm32l4xx_hal_smartcard.c ****         (##) HAL_SMARTCARD_Transmit_IT()
 766:Drivers/STM32L4xx_HAL_Driver/Src/stm32l4xx_hal_smartcard.c ****         (##) HAL_SMARTCARD_Receive_IT()
 767:Drivers/STM32L4xx_HAL_Driver/Src/stm32l4xx_hal_smartcard.c ****         (##) HAL_SMARTCARD_IRQHandler()
 768:Drivers/STM32L4xx_HAL_Driver/Src/stm32l4xx_hal_smartcard.c **** 
 769:Drivers/STM32L4xx_HAL_Driver/Src/stm32l4xx_hal_smartcard.c ****     (#) Non Blocking mode functions with DMA are :
 770:Drivers/STM32L4xx_HAL_Driver/Src/stm32l4xx_hal_smartcard.c ****         (##) HAL_SMARTCARD_Transmit_DMA()
 771:Drivers/STM32L4xx_HAL_Driver/Src/stm32l4xx_hal_smartcard.c ****         (##) HAL_SMARTCARD_Receive_DMA()
 772:Drivers/STM32L4xx_HAL_Driver/Src/stm32l4xx_hal_smartcard.c **** 
 773:Drivers/STM32L4xx_HAL_Driver/Src/stm32l4xx_hal_smartcard.c ****     (#) A set of Transfer Complete Callbacks are provided in non Blocking mode:
 774:Drivers/STM32L4xx_HAL_Driver/Src/stm32l4xx_hal_smartcard.c ****         (##) HAL_SMARTCARD_TxCpltCallback()
 775:Drivers/STM32L4xx_HAL_Driver/Src/stm32l4xx_hal_smartcard.c ****         (##) HAL_SMARTCARD_RxCpltCallback()
 776:Drivers/STM32L4xx_HAL_Driver/Src/stm32l4xx_hal_smartcard.c ****         (##) HAL_SMARTCARD_ErrorCallback()
 777:Drivers/STM32L4xx_HAL_Driver/Src/stm32l4xx_hal_smartcard.c **** 
 778:Drivers/STM32L4xx_HAL_Driver/Src/stm32l4xx_hal_smartcard.c ****   [..]
 779:Drivers/STM32L4xx_HAL_Driver/Src/stm32l4xx_hal_smartcard.c ****     (#) Non-Blocking mode transfers could be aborted using Abort API's :
 780:Drivers/STM32L4xx_HAL_Driver/Src/stm32l4xx_hal_smartcard.c ****         (##) HAL_SMARTCARD_Abort()
 781:Drivers/STM32L4xx_HAL_Driver/Src/stm32l4xx_hal_smartcard.c ****         (##) HAL_SMARTCARD_AbortTransmit()
 782:Drivers/STM32L4xx_HAL_Driver/Src/stm32l4xx_hal_smartcard.c ****         (##) HAL_SMARTCARD_AbortReceive()
 783:Drivers/STM32L4xx_HAL_Driver/Src/stm32l4xx_hal_smartcard.c ****         (##) HAL_SMARTCARD_Abort_IT()
 784:Drivers/STM32L4xx_HAL_Driver/Src/stm32l4xx_hal_smartcard.c ****         (##) HAL_SMARTCARD_AbortTransmit_IT()
 785:Drivers/STM32L4xx_HAL_Driver/Src/stm32l4xx_hal_smartcard.c ****         (##) HAL_SMARTCARD_AbortReceive_IT()
 786:Drivers/STM32L4xx_HAL_Driver/Src/stm32l4xx_hal_smartcard.c **** 
 787:Drivers/STM32L4xx_HAL_Driver/Src/stm32l4xx_hal_smartcard.c ****     (#) For Abort services based on interrupts (HAL_SMARTCARD_Abortxxx_IT),
 788:Drivers/STM32L4xx_HAL_Driver/Src/stm32l4xx_hal_smartcard.c ****         a set of Abort Complete Callbacks are provided:
 789:Drivers/STM32L4xx_HAL_Driver/Src/stm32l4xx_hal_smartcard.c ****         (##) HAL_SMARTCARD_AbortCpltCallback()
 790:Drivers/STM32L4xx_HAL_Driver/Src/stm32l4xx_hal_smartcard.c ****         (##) HAL_SMARTCARD_AbortTransmitCpltCallback()
 791:Drivers/STM32L4xx_HAL_Driver/Src/stm32l4xx_hal_smartcard.c ****         (##) HAL_SMARTCARD_AbortReceiveCpltCallback()
 792:Drivers/STM32L4xx_HAL_Driver/Src/stm32l4xx_hal_smartcard.c **** 
 793:Drivers/STM32L4xx_HAL_Driver/Src/stm32l4xx_hal_smartcard.c ****     (#) In Non-Blocking mode transfers, possible errors are split into 2 categories.
 794:Drivers/STM32L4xx_HAL_Driver/Src/stm32l4xx_hal_smartcard.c ****         Errors are handled as follows :
 795:Drivers/STM32L4xx_HAL_Driver/Src/stm32l4xx_hal_smartcard.c ****        (##) Error is considered as Recoverable and non blocking : Transfer could go till end, but e
 796:Drivers/STM32L4xx_HAL_Driver/Src/stm32l4xx_hal_smartcard.c ****            to be evaluated by user : this concerns Frame Error,
 797:Drivers/STM32L4xx_HAL_Driver/Src/stm32l4xx_hal_smartcard.c ****            Parity Error or Noise Error in Interrupt mode reception .
 798:Drivers/STM32L4xx_HAL_Driver/Src/stm32l4xx_hal_smartcard.c ****            Received character is then retrieved and stored in Rx buffer,
 799:Drivers/STM32L4xx_HAL_Driver/Src/stm32l4xx_hal_smartcard.c ****            Error code is set to allow user to identify error type,
 800:Drivers/STM32L4xx_HAL_Driver/Src/stm32l4xx_hal_smartcard.c ****            and HAL_SMARTCARD_ErrorCallback() user callback is executed. Transfer is kept ongoing on
 801:Drivers/STM32L4xx_HAL_Driver/Src/stm32l4xx_hal_smartcard.c ****            If user wants to abort it, Abort services should be called by user.
 802:Drivers/STM32L4xx_HAL_Driver/Src/stm32l4xx_hal_smartcard.c ****        (##) Error is considered as Blocking : Transfer could not be completed properly and is abort
 803:Drivers/STM32L4xx_HAL_Driver/Src/stm32l4xx_hal_smartcard.c ****            This concerns Frame Error in Interrupt mode transmission, Overrun Error in Interrupt
 804:Drivers/STM32L4xx_HAL_Driver/Src/stm32l4xx_hal_smartcard.c ****            mode reception and all errors in DMA mode.
 805:Drivers/STM32L4xx_HAL_Driver/Src/stm32l4xx_hal_smartcard.c ****            Error code is set to allow user to identify error type,
 806:Drivers/STM32L4xx_HAL_Driver/Src/stm32l4xx_hal_smartcard.c ****            and HAL_SMARTCARD_ErrorCallback() user callback is executed.
 807:Drivers/STM32L4xx_HAL_Driver/Src/stm32l4xx_hal_smartcard.c **** 
 808:Drivers/STM32L4xx_HAL_Driver/Src/stm32l4xx_hal_smartcard.c **** @endverbatim
 809:Drivers/STM32L4xx_HAL_Driver/Src/stm32l4xx_hal_smartcard.c ****   * @{
 810:Drivers/STM32L4xx_HAL_Driver/Src/stm32l4xx_hal_smartcard.c ****   */
 811:Drivers/STM32L4xx_HAL_Driver/Src/stm32l4xx_hal_smartcard.c **** 
 812:Drivers/STM32L4xx_HAL_Driver/Src/stm32l4xx_hal_smartcard.c **** /**
 813:Drivers/STM32L4xx_HAL_Driver/Src/stm32l4xx_hal_smartcard.c ****   * @brief  Send an amount of data in blocking mode.
 814:Drivers/STM32L4xx_HAL_Driver/Src/stm32l4xx_hal_smartcard.c ****   * @note   When FIFO mode is enabled, writing a data in the TDR register adds one
 815:Drivers/STM32L4xx_HAL_Driver/Src/stm32l4xx_hal_smartcard.c ****   *         data to the TXFIFO. Write operations to the TDR register are performed
ARM GAS  /tmp/ccDAjxq4.s 			page 21


 816:Drivers/STM32L4xx_HAL_Driver/Src/stm32l4xx_hal_smartcard.c ****   *         when TXFNF flag is set. From hardware perspective, TXFNF flag and
 817:Drivers/STM32L4xx_HAL_Driver/Src/stm32l4xx_hal_smartcard.c ****   *         TXE are mapped on the same bit-field.
 818:Drivers/STM32L4xx_HAL_Driver/Src/stm32l4xx_hal_smartcard.c ****   * @param  hsmartcard Pointer to a SMARTCARD_HandleTypeDef structure that contains
 819:Drivers/STM32L4xx_HAL_Driver/Src/stm32l4xx_hal_smartcard.c ****   *                    the configuration information for the specified SMARTCARD module.
 820:Drivers/STM32L4xx_HAL_Driver/Src/stm32l4xx_hal_smartcard.c ****   * @param  pData pointer to data buffer.
 821:Drivers/STM32L4xx_HAL_Driver/Src/stm32l4xx_hal_smartcard.c ****   * @param  Size amount of data to be sent.
 822:Drivers/STM32L4xx_HAL_Driver/Src/stm32l4xx_hal_smartcard.c ****   * @param  Timeout  Timeout duration.
 823:Drivers/STM32L4xx_HAL_Driver/Src/stm32l4xx_hal_smartcard.c ****   * @retval HAL status
 824:Drivers/STM32L4xx_HAL_Driver/Src/stm32l4xx_hal_smartcard.c ****   */
 825:Drivers/STM32L4xx_HAL_Driver/Src/stm32l4xx_hal_smartcard.c **** HAL_StatusTypeDef HAL_SMARTCARD_Transmit(SMARTCARD_HandleTypeDef *hsmartcard, const uint8_t *pData,
 826:Drivers/STM32L4xx_HAL_Driver/Src/stm32l4xx_hal_smartcard.c ****                                          uint32_t Timeout)
 827:Drivers/STM32L4xx_HAL_Driver/Src/stm32l4xx_hal_smartcard.c **** {
 336              		.loc 1 827 1
 337              		.cfi_startproc
 338              		@ args = 0, pretend = 0, frame = 24
 339              		@ frame_needed = 1, uses_anonymous_args = 0
 340 0000 80B5     		push	{r7, lr}
 341              		.cfi_def_cfa_offset 8
 342              		.cfi_offset 7, -8
 343              		.cfi_offset 14, -4
 344 0002 88B0     		sub	sp, sp, #32
 345              		.cfi_def_cfa_offset 40
 346 0004 02AF     		add	r7, sp, #8
 347              		.cfi_def_cfa 7, 32
 348 0006 F860     		str	r0, [r7, #12]
 349 0008 B960     		str	r1, [r7, #8]
 350 000a 3B60     		str	r3, [r7]
 351 000c 1346     		mov	r3, r2	@ movhi
 352 000e FB80     		strh	r3, [r7, #6]	@ movhi
 828:Drivers/STM32L4xx_HAL_Driver/Src/stm32l4xx_hal_smartcard.c ****   uint32_t tickstart;
 829:Drivers/STM32L4xx_HAL_Driver/Src/stm32l4xx_hal_smartcard.c ****   const uint8_t  *ptmpdata = pData;
 353              		.loc 1 829 19
 354 0010 BB68     		ldr	r3, [r7, #8]
 355 0012 7B61     		str	r3, [r7, #20]
 830:Drivers/STM32L4xx_HAL_Driver/Src/stm32l4xx_hal_smartcard.c **** 
 831:Drivers/STM32L4xx_HAL_Driver/Src/stm32l4xx_hal_smartcard.c ****   /* Check that a Tx process is not already ongoing */
 832:Drivers/STM32L4xx_HAL_Driver/Src/stm32l4xx_hal_smartcard.c ****   if (hsmartcard->gState == HAL_SMARTCARD_STATE_READY)
 356              		.loc 1 832 17
 357 0014 FB68     		ldr	r3, [r7, #12]
 358 0016 5B6F     		ldr	r3, [r3, #116]
 359              		.loc 1 832 6
 360 0018 202B     		cmp	r3, #32
 361 001a 40F0CF80 		bne	.L13
 833:Drivers/STM32L4xx_HAL_Driver/Src/stm32l4xx_hal_smartcard.c ****   {
 834:Drivers/STM32L4xx_HAL_Driver/Src/stm32l4xx_hal_smartcard.c ****     if ((ptmpdata == NULL) || (Size == 0U))
 362              		.loc 1 834 8
 363 001e 7B69     		ldr	r3, [r7, #20]
 364 0020 002B     		cmp	r3, #0
 365 0022 02D0     		beq	.L14
 366              		.loc 1 834 28 discriminator 1
 367 0024 FB88     		ldrh	r3, [r7, #6]
 368 0026 002B     		cmp	r3, #0
 369 0028 01D1     		bne	.L15
 370              	.L14:
 835:Drivers/STM32L4xx_HAL_Driver/Src/stm32l4xx_hal_smartcard.c ****     {
 836:Drivers/STM32L4xx_HAL_Driver/Src/stm32l4xx_hal_smartcard.c ****       return  HAL_ERROR;
 371              		.loc 1 836 15
ARM GAS  /tmp/ccDAjxq4.s 			page 22


 372 002a 0123     		movs	r3, #1
 373 002c C7E0     		b	.L16
 374              	.L15:
 837:Drivers/STM32L4xx_HAL_Driver/Src/stm32l4xx_hal_smartcard.c ****     }
 838:Drivers/STM32L4xx_HAL_Driver/Src/stm32l4xx_hal_smartcard.c **** 
 839:Drivers/STM32L4xx_HAL_Driver/Src/stm32l4xx_hal_smartcard.c ****     /* Process Locked */
 840:Drivers/STM32L4xx_HAL_Driver/Src/stm32l4xx_hal_smartcard.c ****     __HAL_LOCK(hsmartcard);
 375              		.loc 1 840 5
 376 002e FB68     		ldr	r3, [r7, #12]
 377 0030 93F87030 		ldrb	r3, [r3, #112]	@ zero_extendqisi2
 378 0034 012B     		cmp	r3, #1
 379 0036 01D1     		bne	.L17
 380              		.loc 1 840 5 is_stmt 0 discriminator 1
 381 0038 0223     		movs	r3, #2
 382              		.loc 1 840 5
 383 003a C0E0     		b	.L16
 384              	.L17:
 385              		.loc 1 840 5 discriminator 2
 386 003c FB68     		ldr	r3, [r7, #12]
 387 003e 0122     		movs	r2, #1
 388 0040 83F87020 		strb	r2, [r3, #112]
 841:Drivers/STM32L4xx_HAL_Driver/Src/stm32l4xx_hal_smartcard.c **** 
 842:Drivers/STM32L4xx_HAL_Driver/Src/stm32l4xx_hal_smartcard.c ****     hsmartcard->gState = HAL_SMARTCARD_STATE_BUSY_TX;
 389              		.loc 1 842 24 is_stmt 1
 390 0044 FB68     		ldr	r3, [r7, #12]
 391 0046 2122     		movs	r2, #33
 392 0048 5A67     		str	r2, [r3, #116]
 843:Drivers/STM32L4xx_HAL_Driver/Src/stm32l4xx_hal_smartcard.c **** 
 844:Drivers/STM32L4xx_HAL_Driver/Src/stm32l4xx_hal_smartcard.c ****     /* Init tickstart for timeout management */
 845:Drivers/STM32L4xx_HAL_Driver/Src/stm32l4xx_hal_smartcard.c ****     tickstart = HAL_GetTick();
 393              		.loc 1 845 17
 394 004a FFF7FEFF 		bl	HAL_GetTick
 395 004e 3861     		str	r0, [r7, #16]
 846:Drivers/STM32L4xx_HAL_Driver/Src/stm32l4xx_hal_smartcard.c **** 
 847:Drivers/STM32L4xx_HAL_Driver/Src/stm32l4xx_hal_smartcard.c ****     /* Disable the Peripheral first to update mode for TX master */
 848:Drivers/STM32L4xx_HAL_Driver/Src/stm32l4xx_hal_smartcard.c ****     CLEAR_BIT(hsmartcard->Instance->CR1, USART_CR1_UE);
 396              		.loc 1 848 5
 397 0050 FB68     		ldr	r3, [r7, #12]
 398 0052 1B68     		ldr	r3, [r3]
 399 0054 1A68     		ldr	r2, [r3]
 400 0056 FB68     		ldr	r3, [r7, #12]
 401 0058 1B68     		ldr	r3, [r3]
 402 005a 22F00102 		bic	r2, r2, #1
 403 005e 1A60     		str	r2, [r3]
 849:Drivers/STM32L4xx_HAL_Driver/Src/stm32l4xx_hal_smartcard.c **** 
 850:Drivers/STM32L4xx_HAL_Driver/Src/stm32l4xx_hal_smartcard.c ****     /* In case of TX only mode, if NACK is enabled, the USART must be able to monitor
 851:Drivers/STM32L4xx_HAL_Driver/Src/stm32l4xx_hal_smartcard.c ****        the bidirectional line to detect a NACK signal in case of parity error.
 852:Drivers/STM32L4xx_HAL_Driver/Src/stm32l4xx_hal_smartcard.c ****        Therefore, the receiver block must be enabled as well (RE bit must be set). */
 853:Drivers/STM32L4xx_HAL_Driver/Src/stm32l4xx_hal_smartcard.c ****     if ((hsmartcard->Init.Mode == SMARTCARD_MODE_TX)
 404              		.loc 1 853 26
 405 0060 FB68     		ldr	r3, [r7, #12]
 406 0062 5B8A     		ldrh	r3, [r3, #18]
 407              		.loc 1 853 8
 408 0064 082B     		cmp	r3, #8
 409 0066 0BD1     		bne	.L18
 854:Drivers/STM32L4xx_HAL_Driver/Src/stm32l4xx_hal_smartcard.c ****         && (hsmartcard->Init.NACKEnable == SMARTCARD_NACK_ENABLE))
 410              		.loc 1 854 29
ARM GAS  /tmp/ccDAjxq4.s 			page 23


 411 0068 FB68     		ldr	r3, [r7, #12]
 412 006a DB8B     		ldrh	r3, [r3, #30]
 413              		.loc 1 854 9
 414 006c 102B     		cmp	r3, #16
 415 006e 07D1     		bne	.L18
 855:Drivers/STM32L4xx_HAL_Driver/Src/stm32l4xx_hal_smartcard.c ****     {
 856:Drivers/STM32L4xx_HAL_Driver/Src/stm32l4xx_hal_smartcard.c ****       SET_BIT(hsmartcard->Instance->CR1, USART_CR1_RE);
 416              		.loc 1 856 7
 417 0070 FB68     		ldr	r3, [r7, #12]
 418 0072 1B68     		ldr	r3, [r3]
 419 0074 1A68     		ldr	r2, [r3]
 420 0076 FB68     		ldr	r3, [r7, #12]
 421 0078 1B68     		ldr	r3, [r3]
 422 007a 42F00402 		orr	r2, r2, #4
 423 007e 1A60     		str	r2, [r3]
 424              	.L18:
 857:Drivers/STM32L4xx_HAL_Driver/Src/stm32l4xx_hal_smartcard.c ****     }
 858:Drivers/STM32L4xx_HAL_Driver/Src/stm32l4xx_hal_smartcard.c ****     /* Enable Tx */
 859:Drivers/STM32L4xx_HAL_Driver/Src/stm32l4xx_hal_smartcard.c ****     SET_BIT(hsmartcard->Instance->CR1, USART_CR1_TE);
 425              		.loc 1 859 5
 426 0080 FB68     		ldr	r3, [r7, #12]
 427 0082 1B68     		ldr	r3, [r3]
 428 0084 1A68     		ldr	r2, [r3]
 429 0086 FB68     		ldr	r3, [r7, #12]
 430 0088 1B68     		ldr	r3, [r3]
 431 008a 42F00802 		orr	r2, r2, #8
 432 008e 1A60     		str	r2, [r3]
 860:Drivers/STM32L4xx_HAL_Driver/Src/stm32l4xx_hal_smartcard.c **** 
 861:Drivers/STM32L4xx_HAL_Driver/Src/stm32l4xx_hal_smartcard.c ****     /* Enable the Peripheral */
 862:Drivers/STM32L4xx_HAL_Driver/Src/stm32l4xx_hal_smartcard.c ****     SET_BIT(hsmartcard->Instance->CR1, USART_CR1_UE);
 433              		.loc 1 862 5
 434 0090 FB68     		ldr	r3, [r7, #12]
 435 0092 1B68     		ldr	r3, [r3]
 436 0094 1A68     		ldr	r2, [r3]
 437 0096 FB68     		ldr	r3, [r7, #12]
 438 0098 1B68     		ldr	r3, [r3]
 439 009a 42F00102 		orr	r2, r2, #1
 440 009e 1A60     		str	r2, [r3]
 863:Drivers/STM32L4xx_HAL_Driver/Src/stm32l4xx_hal_smartcard.c **** 
 864:Drivers/STM32L4xx_HAL_Driver/Src/stm32l4xx_hal_smartcard.c ****     /* Perform a TX/RX FIFO Flush */
 865:Drivers/STM32L4xx_HAL_Driver/Src/stm32l4xx_hal_smartcard.c ****     __HAL_SMARTCARD_FLUSH_DRREGISTER(hsmartcard);
 441              		.loc 1 865 5
 442 00a0 FB68     		ldr	r3, [r7, #12]
 443 00a2 1B68     		ldr	r3, [r3]
 444 00a4 9A69     		ldr	r2, [r3, #24]
 445 00a6 FB68     		ldr	r3, [r7, #12]
 446 00a8 1B68     		ldr	r3, [r3]
 447 00aa 42F00802 		orr	r2, r2, #8
 448 00ae 9A61     		str	r2, [r3, #24]
 449 00b0 FB68     		ldr	r3, [r7, #12]
 450 00b2 1B68     		ldr	r3, [r3]
 451 00b4 9A69     		ldr	r2, [r3, #24]
 452 00b6 FB68     		ldr	r3, [r7, #12]
 453 00b8 1B68     		ldr	r3, [r3]
 454 00ba 42F01002 		orr	r2, r2, #16
 455 00be 9A61     		str	r2, [r3, #24]
 866:Drivers/STM32L4xx_HAL_Driver/Src/stm32l4xx_hal_smartcard.c **** 
ARM GAS  /tmp/ccDAjxq4.s 			page 24


 867:Drivers/STM32L4xx_HAL_Driver/Src/stm32l4xx_hal_smartcard.c ****     hsmartcard->ErrorCode = HAL_SMARTCARD_ERROR_NONE;
 456              		.loc 1 867 27
 457 00c0 FB68     		ldr	r3, [r7, #12]
 458 00c2 0022     		movs	r2, #0
 459 00c4 DA67     		str	r2, [r3, #124]
 868:Drivers/STM32L4xx_HAL_Driver/Src/stm32l4xx_hal_smartcard.c ****     hsmartcard->TxXferSize = Size;
 460              		.loc 1 868 28
 461 00c6 FB68     		ldr	r3, [r7, #12]
 462 00c8 FA88     		ldrh	r2, [r7, #6]	@ movhi
 463 00ca A3F85420 		strh	r2, [r3, #84]	@ movhi
 869:Drivers/STM32L4xx_HAL_Driver/Src/stm32l4xx_hal_smartcard.c ****     hsmartcard->TxXferCount = Size;
 464              		.loc 1 869 29
 465 00ce FB68     		ldr	r3, [r7, #12]
 466 00d0 FA88     		ldrh	r2, [r7, #6]	@ movhi
 467 00d2 A3F85620 		strh	r2, [r3, #86]	@ movhi
 870:Drivers/STM32L4xx_HAL_Driver/Src/stm32l4xx_hal_smartcard.c **** 
 871:Drivers/STM32L4xx_HAL_Driver/Src/stm32l4xx_hal_smartcard.c ****     while (hsmartcard->TxXferCount > 0U)
 468              		.loc 1 871 11
 469 00d6 1DE0     		b	.L19
 470              	.L21:
 872:Drivers/STM32L4xx_HAL_Driver/Src/stm32l4xx_hal_smartcard.c ****     {
 873:Drivers/STM32L4xx_HAL_Driver/Src/stm32l4xx_hal_smartcard.c ****       hsmartcard->TxXferCount--;
 471              		.loc 1 873 17
 472 00d8 FB68     		ldr	r3, [r7, #12]
 473 00da B3F85630 		ldrh	r3, [r3, #86]	@ movhi
 474 00de 9BB2     		uxth	r3, r3
 475              		.loc 1 873 30
 476 00e0 013B     		subs	r3, r3, #1
 477 00e2 9AB2     		uxth	r2, r3
 478 00e4 FB68     		ldr	r3, [r7, #12]
 479 00e6 A3F85620 		strh	r2, [r3, #86]	@ movhi
 874:Drivers/STM32L4xx_HAL_Driver/Src/stm32l4xx_hal_smartcard.c ****       if (SMARTCARD_WaitOnFlagUntilTimeout(hsmartcard, SMARTCARD_FLAG_TXE, RESET, tickstart, Timeou
 480              		.loc 1 874 11
 481 00ea 3B68     		ldr	r3, [r7]
 482 00ec 0093     		str	r3, [sp]
 483 00ee 3B69     		ldr	r3, [r7, #16]
 484 00f0 0022     		movs	r2, #0
 485 00f2 8021     		movs	r1, #128
 486 00f4 F868     		ldr	r0, [r7, #12]
 487 00f6 FFF7FEFF 		bl	SMARTCARD_WaitOnFlagUntilTimeout
 488 00fa 0346     		mov	r3, r0
 489              		.loc 1 874 10 discriminator 1
 490 00fc 002B     		cmp	r3, #0
 491 00fe 01D0     		beq	.L20
 875:Drivers/STM32L4xx_HAL_Driver/Src/stm32l4xx_hal_smartcard.c ****       {
 876:Drivers/STM32L4xx_HAL_Driver/Src/stm32l4xx_hal_smartcard.c ****         return HAL_TIMEOUT;
 492              		.loc 1 876 16
 493 0100 0323     		movs	r3, #3
 494 0102 5CE0     		b	.L16
 495              	.L20:
 877:Drivers/STM32L4xx_HAL_Driver/Src/stm32l4xx_hal_smartcard.c ****       }
 878:Drivers/STM32L4xx_HAL_Driver/Src/stm32l4xx_hal_smartcard.c ****       hsmartcard->Instance->TDR = (uint8_t)(*ptmpdata & 0xFFU);
 496              		.loc 1 878 45
 497 0104 7B69     		ldr	r3, [r7, #20]
 498 0106 1A78     		ldrb	r2, [r3]	@ zero_extendqisi2
 499              		.loc 1 878 17
 500 0108 FB68     		ldr	r3, [r7, #12]
ARM GAS  /tmp/ccDAjxq4.s 			page 25


 501 010a 1B68     		ldr	r3, [r3]
 502              		.loc 1 878 33
 503 010c 9A62     		str	r2, [r3, #40]
 879:Drivers/STM32L4xx_HAL_Driver/Src/stm32l4xx_hal_smartcard.c ****       ptmpdata++;
 504              		.loc 1 879 15
 505 010e 7B69     		ldr	r3, [r7, #20]
 506 0110 0133     		adds	r3, r3, #1
 507 0112 7B61     		str	r3, [r7, #20]
 508              	.L19:
 871:Drivers/STM32L4xx_HAL_Driver/Src/stm32l4xx_hal_smartcard.c ****     {
 509              		.loc 1 871 22
 510 0114 FB68     		ldr	r3, [r7, #12]
 511 0116 B3F85630 		ldrh	r3, [r3, #86]	@ movhi
 512 011a 9BB2     		uxth	r3, r3
 871:Drivers/STM32L4xx_HAL_Driver/Src/stm32l4xx_hal_smartcard.c ****     {
 513              		.loc 1 871 36
 514 011c 002B     		cmp	r3, #0
 515 011e DBD1     		bne	.L21
 880:Drivers/STM32L4xx_HAL_Driver/Src/stm32l4xx_hal_smartcard.c ****     }
 881:Drivers/STM32L4xx_HAL_Driver/Src/stm32l4xx_hal_smartcard.c ****     if (SMARTCARD_WaitOnFlagUntilTimeout(hsmartcard, SMARTCARD_TRANSMISSION_COMPLETION_FLAG(hsmartc
 516              		.loc 1 881 9
 517 0120 3B68     		ldr	r3, [r7]
 518 0122 0093     		str	r3, [sp]
 519 0124 3B69     		ldr	r3, [r7, #16]
 520 0126 0022     		movs	r2, #0
 521 0128 4021     		movs	r1, #64
 522 012a F868     		ldr	r0, [r7, #12]
 523 012c FFF7FEFF 		bl	SMARTCARD_WaitOnFlagUntilTimeout
 524 0130 0346     		mov	r3, r0
 525              		.loc 1 881 8 discriminator 1
 526 0132 002B     		cmp	r3, #0
 527 0134 01D0     		beq	.L22
 882:Drivers/STM32L4xx_HAL_Driver/Src/stm32l4xx_hal_smartcard.c ****                                          tickstart, Timeout) != HAL_OK)
 883:Drivers/STM32L4xx_HAL_Driver/Src/stm32l4xx_hal_smartcard.c ****     {
 884:Drivers/STM32L4xx_HAL_Driver/Src/stm32l4xx_hal_smartcard.c ****       return HAL_TIMEOUT;
 528              		.loc 1 884 14
 529 0136 0323     		movs	r3, #3
 530 0138 41E0     		b	.L16
 531              	.L22:
 885:Drivers/STM32L4xx_HAL_Driver/Src/stm32l4xx_hal_smartcard.c ****     }
 886:Drivers/STM32L4xx_HAL_Driver/Src/stm32l4xx_hal_smartcard.c **** 
 887:Drivers/STM32L4xx_HAL_Driver/Src/stm32l4xx_hal_smartcard.c ****     /* Disable the Peripheral first to update mode */
 888:Drivers/STM32L4xx_HAL_Driver/Src/stm32l4xx_hal_smartcard.c ****     CLEAR_BIT(hsmartcard->Instance->CR1, USART_CR1_UE);
 532              		.loc 1 888 5
 533 013a FB68     		ldr	r3, [r7, #12]
 534 013c 1B68     		ldr	r3, [r3]
 535 013e 1A68     		ldr	r2, [r3]
 536 0140 FB68     		ldr	r3, [r7, #12]
 537 0142 1B68     		ldr	r3, [r3]
 538 0144 22F00102 		bic	r2, r2, #1
 539 0148 1A60     		str	r2, [r3]
 889:Drivers/STM32L4xx_HAL_Driver/Src/stm32l4xx_hal_smartcard.c ****     if ((hsmartcard->Init.Mode == SMARTCARD_MODE_TX)
 540              		.loc 1 889 26
 541 014a FB68     		ldr	r3, [r7, #12]
 542 014c 5B8A     		ldrh	r3, [r3, #18]
 543              		.loc 1 889 8
 544 014e 082B     		cmp	r3, #8
ARM GAS  /tmp/ccDAjxq4.s 			page 26


 545 0150 0BD1     		bne	.L23
 890:Drivers/STM32L4xx_HAL_Driver/Src/stm32l4xx_hal_smartcard.c ****         && (hsmartcard->Init.NACKEnable == SMARTCARD_NACK_ENABLE))
 546              		.loc 1 890 29
 547 0152 FB68     		ldr	r3, [r7, #12]
 548 0154 DB8B     		ldrh	r3, [r3, #30]
 549              		.loc 1 890 9
 550 0156 102B     		cmp	r3, #16
 551 0158 07D1     		bne	.L23
 891:Drivers/STM32L4xx_HAL_Driver/Src/stm32l4xx_hal_smartcard.c ****     {
 892:Drivers/STM32L4xx_HAL_Driver/Src/stm32l4xx_hal_smartcard.c ****       /* In case of TX only mode, if NACK is enabled, receiver block has been enabled
 893:Drivers/STM32L4xx_HAL_Driver/Src/stm32l4xx_hal_smartcard.c ****          for Transmit phase. Disable this receiver block. */
 894:Drivers/STM32L4xx_HAL_Driver/Src/stm32l4xx_hal_smartcard.c ****       CLEAR_BIT(hsmartcard->Instance->CR1, USART_CR1_RE);
 552              		.loc 1 894 7
 553 015a FB68     		ldr	r3, [r7, #12]
 554 015c 1B68     		ldr	r3, [r3]
 555 015e 1A68     		ldr	r2, [r3]
 556 0160 FB68     		ldr	r3, [r7, #12]
 557 0162 1B68     		ldr	r3, [r3]
 558 0164 22F00402 		bic	r2, r2, #4
 559 0168 1A60     		str	r2, [r3]
 560              	.L23:
 895:Drivers/STM32L4xx_HAL_Driver/Src/stm32l4xx_hal_smartcard.c ****     }
 896:Drivers/STM32L4xx_HAL_Driver/Src/stm32l4xx_hal_smartcard.c ****     if ((hsmartcard->Init.Mode == SMARTCARD_MODE_TX_RX)
 561              		.loc 1 896 26
 562 016a FB68     		ldr	r3, [r7, #12]
 563 016c 5B8A     		ldrh	r3, [r3, #18]
 564              		.loc 1 896 8
 565 016e 0C2B     		cmp	r3, #12
 566 0170 03D0     		beq	.L24
 897:Drivers/STM32L4xx_HAL_Driver/Src/stm32l4xx_hal_smartcard.c ****         || (hsmartcard->Init.NACKEnable == SMARTCARD_NACK_ENABLE))
 567              		.loc 1 897 29
 568 0172 FB68     		ldr	r3, [r7, #12]
 569 0174 DB8B     		ldrh	r3, [r3, #30]
 570              		.loc 1 897 9
 571 0176 102B     		cmp	r3, #16
 572 0178 0FD1     		bne	.L25
 573              	.L24:
 898:Drivers/STM32L4xx_HAL_Driver/Src/stm32l4xx_hal_smartcard.c ****     {
 899:Drivers/STM32L4xx_HAL_Driver/Src/stm32l4xx_hal_smartcard.c ****       /* Perform a TX FIFO Flush at end of Tx phase, as all sent bytes are appearing in Rx Data reg
 900:Drivers/STM32L4xx_HAL_Driver/Src/stm32l4xx_hal_smartcard.c ****       __HAL_SMARTCARD_FLUSH_DRREGISTER(hsmartcard);
 574              		.loc 1 900 7
 575 017a FB68     		ldr	r3, [r7, #12]
 576 017c 1B68     		ldr	r3, [r3]
 577 017e 9A69     		ldr	r2, [r3, #24]
 578 0180 FB68     		ldr	r3, [r7, #12]
 579 0182 1B68     		ldr	r3, [r3]
 580 0184 42F00802 		orr	r2, r2, #8
 581 0188 9A61     		str	r2, [r3, #24]
 582 018a FB68     		ldr	r3, [r7, #12]
 583 018c 1B68     		ldr	r3, [r3]
 584 018e 9A69     		ldr	r2, [r3, #24]
 585 0190 FB68     		ldr	r3, [r7, #12]
 586 0192 1B68     		ldr	r3, [r3]
 587 0194 42F01002 		orr	r2, r2, #16
 588 0198 9A61     		str	r2, [r3, #24]
 589              	.L25:
 901:Drivers/STM32L4xx_HAL_Driver/Src/stm32l4xx_hal_smartcard.c ****     }
ARM GAS  /tmp/ccDAjxq4.s 			page 27


 902:Drivers/STM32L4xx_HAL_Driver/Src/stm32l4xx_hal_smartcard.c ****     SET_BIT(hsmartcard->Instance->CR1, USART_CR1_UE);
 590              		.loc 1 902 5
 591 019a FB68     		ldr	r3, [r7, #12]
 592 019c 1B68     		ldr	r3, [r3]
 593 019e 1A68     		ldr	r2, [r3]
 594 01a0 FB68     		ldr	r3, [r7, #12]
 595 01a2 1B68     		ldr	r3, [r3]
 596 01a4 42F00102 		orr	r2, r2, #1
 597 01a8 1A60     		str	r2, [r3]
 903:Drivers/STM32L4xx_HAL_Driver/Src/stm32l4xx_hal_smartcard.c **** 
 904:Drivers/STM32L4xx_HAL_Driver/Src/stm32l4xx_hal_smartcard.c ****     /* At end of Tx process, restore hsmartcard->gState to Ready */
 905:Drivers/STM32L4xx_HAL_Driver/Src/stm32l4xx_hal_smartcard.c ****     hsmartcard->gState = HAL_SMARTCARD_STATE_READY;
 598              		.loc 1 905 24
 599 01aa FB68     		ldr	r3, [r7, #12]
 600 01ac 2022     		movs	r2, #32
 601 01ae 5A67     		str	r2, [r3, #116]
 906:Drivers/STM32L4xx_HAL_Driver/Src/stm32l4xx_hal_smartcard.c **** 
 907:Drivers/STM32L4xx_HAL_Driver/Src/stm32l4xx_hal_smartcard.c ****     /* Process Unlocked */
 908:Drivers/STM32L4xx_HAL_Driver/Src/stm32l4xx_hal_smartcard.c ****     __HAL_UNLOCK(hsmartcard);
 602              		.loc 1 908 5
 603 01b0 FB68     		ldr	r3, [r7, #12]
 604 01b2 0022     		movs	r2, #0
 605 01b4 83F87020 		strb	r2, [r3, #112]
 909:Drivers/STM32L4xx_HAL_Driver/Src/stm32l4xx_hal_smartcard.c **** 
 910:Drivers/STM32L4xx_HAL_Driver/Src/stm32l4xx_hal_smartcard.c ****     return HAL_OK;
 606              		.loc 1 910 12
 607 01b8 0023     		movs	r3, #0
 608 01ba 00E0     		b	.L16
 609              	.L13:
 911:Drivers/STM32L4xx_HAL_Driver/Src/stm32l4xx_hal_smartcard.c ****   }
 912:Drivers/STM32L4xx_HAL_Driver/Src/stm32l4xx_hal_smartcard.c ****   else
 913:Drivers/STM32L4xx_HAL_Driver/Src/stm32l4xx_hal_smartcard.c ****   {
 914:Drivers/STM32L4xx_HAL_Driver/Src/stm32l4xx_hal_smartcard.c ****     return HAL_BUSY;
 610              		.loc 1 914 12
 611 01bc 0223     		movs	r3, #2
 612              	.L16:
 915:Drivers/STM32L4xx_HAL_Driver/Src/stm32l4xx_hal_smartcard.c ****   }
 916:Drivers/STM32L4xx_HAL_Driver/Src/stm32l4xx_hal_smartcard.c **** }
 613              		.loc 1 916 1
 614 01be 1846     		mov	r0, r3
 615 01c0 1837     		adds	r7, r7, #24
 616              		.cfi_def_cfa_offset 8
 617 01c2 BD46     		mov	sp, r7
 618              		.cfi_def_cfa_register 13
 619              		@ sp needed
 620 01c4 80BD     		pop	{r7, pc}
 621              		.cfi_endproc
 622              	.LFE449:
 624              		.section	.text.HAL_SMARTCARD_Receive,"ax",%progbits
 625              		.align	1
 626              		.global	HAL_SMARTCARD_Receive
 627              		.syntax unified
 628              		.thumb
 629              		.thumb_func
 631              	HAL_SMARTCARD_Receive:
 632              	.LFB450:
 917:Drivers/STM32L4xx_HAL_Driver/Src/stm32l4xx_hal_smartcard.c **** 
ARM GAS  /tmp/ccDAjxq4.s 			page 28


 918:Drivers/STM32L4xx_HAL_Driver/Src/stm32l4xx_hal_smartcard.c **** /**
 919:Drivers/STM32L4xx_HAL_Driver/Src/stm32l4xx_hal_smartcard.c ****   * @brief  Receive an amount of data in blocking mode.
 920:Drivers/STM32L4xx_HAL_Driver/Src/stm32l4xx_hal_smartcard.c ****   * @note   When FIFO mode is enabled, the RXFNE flag is set as long as the RXFIFO
 921:Drivers/STM32L4xx_HAL_Driver/Src/stm32l4xx_hal_smartcard.c ****   *         is not empty. Read operations from the RDR register are performed when
 922:Drivers/STM32L4xx_HAL_Driver/Src/stm32l4xx_hal_smartcard.c ****   *         RXFNE flag is set. From hardware perspective, RXFNE flag and
 923:Drivers/STM32L4xx_HAL_Driver/Src/stm32l4xx_hal_smartcard.c ****   *         RXNE are mapped on the same bit-field.
 924:Drivers/STM32L4xx_HAL_Driver/Src/stm32l4xx_hal_smartcard.c ****   * @param  hsmartcard Pointer to a SMARTCARD_HandleTypeDef structure that contains
 925:Drivers/STM32L4xx_HAL_Driver/Src/stm32l4xx_hal_smartcard.c ****   *                    the configuration information for the specified SMARTCARD module.
 926:Drivers/STM32L4xx_HAL_Driver/Src/stm32l4xx_hal_smartcard.c ****   * @param  pData pointer to data buffer.
 927:Drivers/STM32L4xx_HAL_Driver/Src/stm32l4xx_hal_smartcard.c ****   * @param  Size amount of data to be received.
 928:Drivers/STM32L4xx_HAL_Driver/Src/stm32l4xx_hal_smartcard.c ****   * @param  Timeout Timeout duration.
 929:Drivers/STM32L4xx_HAL_Driver/Src/stm32l4xx_hal_smartcard.c ****   * @retval HAL status
 930:Drivers/STM32L4xx_HAL_Driver/Src/stm32l4xx_hal_smartcard.c ****   */
 931:Drivers/STM32L4xx_HAL_Driver/Src/stm32l4xx_hal_smartcard.c **** HAL_StatusTypeDef HAL_SMARTCARD_Receive(SMARTCARD_HandleTypeDef *hsmartcard, uint8_t *pData, uint16
 932:Drivers/STM32L4xx_HAL_Driver/Src/stm32l4xx_hal_smartcard.c ****                                         uint32_t Timeout)
 933:Drivers/STM32L4xx_HAL_Driver/Src/stm32l4xx_hal_smartcard.c **** {
 633              		.loc 1 933 1
 634              		.cfi_startproc
 635              		@ args = 0, pretend = 0, frame = 24
 636              		@ frame_needed = 1, uses_anonymous_args = 0
 637 0000 80B5     		push	{r7, lr}
 638              		.cfi_def_cfa_offset 8
 639              		.cfi_offset 7, -8
 640              		.cfi_offset 14, -4
 641 0002 88B0     		sub	sp, sp, #32
 642              		.cfi_def_cfa_offset 40
 643 0004 02AF     		add	r7, sp, #8
 644              		.cfi_def_cfa 7, 32
 645 0006 F860     		str	r0, [r7, #12]
 646 0008 B960     		str	r1, [r7, #8]
 647 000a 3B60     		str	r3, [r7]
 648 000c 1346     		mov	r3, r2	@ movhi
 649 000e FB80     		strh	r3, [r7, #6]	@ movhi
 934:Drivers/STM32L4xx_HAL_Driver/Src/stm32l4xx_hal_smartcard.c ****   uint32_t tickstart;
 935:Drivers/STM32L4xx_HAL_Driver/Src/stm32l4xx_hal_smartcard.c ****   uint8_t  *ptmpdata = pData;
 650              		.loc 1 935 13
 651 0010 BB68     		ldr	r3, [r7, #8]
 652 0012 7B61     		str	r3, [r7, #20]
 936:Drivers/STM32L4xx_HAL_Driver/Src/stm32l4xx_hal_smartcard.c **** 
 937:Drivers/STM32L4xx_HAL_Driver/Src/stm32l4xx_hal_smartcard.c ****   /* Check that a Rx process is not already ongoing */
 938:Drivers/STM32L4xx_HAL_Driver/Src/stm32l4xx_hal_smartcard.c ****   if (hsmartcard->RxState == HAL_SMARTCARD_STATE_READY)
 653              		.loc 1 938 17
 654 0014 FB68     		ldr	r3, [r7, #12]
 655 0016 9B6F     		ldr	r3, [r3, #120]
 656              		.loc 1 938 6
 657 0018 202B     		cmp	r3, #32
 658 001a 52D1     		bne	.L27
 939:Drivers/STM32L4xx_HAL_Driver/Src/stm32l4xx_hal_smartcard.c ****   {
 940:Drivers/STM32L4xx_HAL_Driver/Src/stm32l4xx_hal_smartcard.c ****     if ((ptmpdata == NULL) || (Size == 0U))
 659              		.loc 1 940 8
 660 001c 7B69     		ldr	r3, [r7, #20]
 661 001e 002B     		cmp	r3, #0
 662 0020 02D0     		beq	.L28
 663              		.loc 1 940 28 discriminator 1
 664 0022 FB88     		ldrh	r3, [r7, #6]
 665 0024 002B     		cmp	r3, #0
 666 0026 01D1     		bne	.L29
ARM GAS  /tmp/ccDAjxq4.s 			page 29


 667              	.L28:
 941:Drivers/STM32L4xx_HAL_Driver/Src/stm32l4xx_hal_smartcard.c ****     {
 942:Drivers/STM32L4xx_HAL_Driver/Src/stm32l4xx_hal_smartcard.c ****       return  HAL_ERROR;
 668              		.loc 1 942 15
 669 0028 0123     		movs	r3, #1
 670 002a 4BE0     		b	.L30
 671              	.L29:
 943:Drivers/STM32L4xx_HAL_Driver/Src/stm32l4xx_hal_smartcard.c ****     }
 944:Drivers/STM32L4xx_HAL_Driver/Src/stm32l4xx_hal_smartcard.c **** 
 945:Drivers/STM32L4xx_HAL_Driver/Src/stm32l4xx_hal_smartcard.c ****     /* Process Locked */
 946:Drivers/STM32L4xx_HAL_Driver/Src/stm32l4xx_hal_smartcard.c ****     __HAL_LOCK(hsmartcard);
 672              		.loc 1 946 5
 673 002c FB68     		ldr	r3, [r7, #12]
 674 002e 93F87030 		ldrb	r3, [r3, #112]	@ zero_extendqisi2
 675 0032 012B     		cmp	r3, #1
 676 0034 01D1     		bne	.L31
 677              		.loc 1 946 5 is_stmt 0 discriminator 1
 678 0036 0223     		movs	r3, #2
 679              		.loc 1 946 5
 680 0038 44E0     		b	.L30
 681              	.L31:
 682              		.loc 1 946 5 discriminator 2
 683 003a FB68     		ldr	r3, [r7, #12]
 684 003c 0122     		movs	r2, #1
 685 003e 83F87020 		strb	r2, [r3, #112]
 947:Drivers/STM32L4xx_HAL_Driver/Src/stm32l4xx_hal_smartcard.c **** 
 948:Drivers/STM32L4xx_HAL_Driver/Src/stm32l4xx_hal_smartcard.c ****     hsmartcard->ErrorCode = HAL_SMARTCARD_ERROR_NONE;
 686              		.loc 1 948 27 is_stmt 1
 687 0042 FB68     		ldr	r3, [r7, #12]
 688 0044 0022     		movs	r2, #0
 689 0046 DA67     		str	r2, [r3, #124]
 949:Drivers/STM32L4xx_HAL_Driver/Src/stm32l4xx_hal_smartcard.c ****     hsmartcard->RxState   = HAL_SMARTCARD_STATE_BUSY_RX;
 690              		.loc 1 949 27
 691 0048 FB68     		ldr	r3, [r7, #12]
 692 004a 2222     		movs	r2, #34
 693 004c 9A67     		str	r2, [r3, #120]
 950:Drivers/STM32L4xx_HAL_Driver/Src/stm32l4xx_hal_smartcard.c **** 
 951:Drivers/STM32L4xx_HAL_Driver/Src/stm32l4xx_hal_smartcard.c ****     /* Init tickstart for timeout management */
 952:Drivers/STM32L4xx_HAL_Driver/Src/stm32l4xx_hal_smartcard.c ****     tickstart = HAL_GetTick();
 694              		.loc 1 952 17
 695 004e FFF7FEFF 		bl	HAL_GetTick
 696 0052 3861     		str	r0, [r7, #16]
 953:Drivers/STM32L4xx_HAL_Driver/Src/stm32l4xx_hal_smartcard.c **** 
 954:Drivers/STM32L4xx_HAL_Driver/Src/stm32l4xx_hal_smartcard.c ****     hsmartcard->RxXferSize = Size;
 697              		.loc 1 954 28
 698 0054 FB68     		ldr	r3, [r7, #12]
 699 0056 FA88     		ldrh	r2, [r7, #6]	@ movhi
 700 0058 A3F85C20 		strh	r2, [r3, #92]	@ movhi
 955:Drivers/STM32L4xx_HAL_Driver/Src/stm32l4xx_hal_smartcard.c ****     hsmartcard->RxXferCount = Size;
 701              		.loc 1 955 29
 702 005c FB68     		ldr	r3, [r7, #12]
 703 005e FA88     		ldrh	r2, [r7, #6]	@ movhi
 704 0060 A3F85E20 		strh	r2, [r3, #94]	@ movhi
 956:Drivers/STM32L4xx_HAL_Driver/Src/stm32l4xx_hal_smartcard.c **** 
 957:Drivers/STM32L4xx_HAL_Driver/Src/stm32l4xx_hal_smartcard.c ****     /* Check the remain data to be received */
 958:Drivers/STM32L4xx_HAL_Driver/Src/stm32l4xx_hal_smartcard.c ****     while (hsmartcard->RxXferCount > 0U)
 705              		.loc 1 958 11
ARM GAS  /tmp/ccDAjxq4.s 			page 30


 706 0064 1EE0     		b	.L32
 707              	.L34:
 959:Drivers/STM32L4xx_HAL_Driver/Src/stm32l4xx_hal_smartcard.c ****     {
 960:Drivers/STM32L4xx_HAL_Driver/Src/stm32l4xx_hal_smartcard.c ****       hsmartcard->RxXferCount--;
 708              		.loc 1 960 17
 709 0066 FB68     		ldr	r3, [r7, #12]
 710 0068 B3F85E30 		ldrh	r3, [r3, #94]	@ movhi
 711 006c 9BB2     		uxth	r3, r3
 712              		.loc 1 960 30
 713 006e 013B     		subs	r3, r3, #1
 714 0070 9AB2     		uxth	r2, r3
 715 0072 FB68     		ldr	r3, [r7, #12]
 716 0074 A3F85E20 		strh	r2, [r3, #94]	@ movhi
 961:Drivers/STM32L4xx_HAL_Driver/Src/stm32l4xx_hal_smartcard.c **** 
 962:Drivers/STM32L4xx_HAL_Driver/Src/stm32l4xx_hal_smartcard.c ****       if (SMARTCARD_WaitOnFlagUntilTimeout(hsmartcard, SMARTCARD_FLAG_RXNE, RESET, tickstart, Timeo
 717              		.loc 1 962 11
 718 0078 3B68     		ldr	r3, [r7]
 719 007a 0093     		str	r3, [sp]
 720 007c 3B69     		ldr	r3, [r7, #16]
 721 007e 0022     		movs	r2, #0
 722 0080 2021     		movs	r1, #32
 723 0082 F868     		ldr	r0, [r7, #12]
 724 0084 FFF7FEFF 		bl	SMARTCARD_WaitOnFlagUntilTimeout
 725 0088 0346     		mov	r3, r0
 726              		.loc 1 962 10 discriminator 1
 727 008a 002B     		cmp	r3, #0
 728 008c 01D0     		beq	.L33
 963:Drivers/STM32L4xx_HAL_Driver/Src/stm32l4xx_hal_smartcard.c ****       {
 964:Drivers/STM32L4xx_HAL_Driver/Src/stm32l4xx_hal_smartcard.c ****         return HAL_TIMEOUT;
 729              		.loc 1 964 16
 730 008e 0323     		movs	r3, #3
 731 0090 18E0     		b	.L30
 732              	.L33:
 965:Drivers/STM32L4xx_HAL_Driver/Src/stm32l4xx_hal_smartcard.c ****       }
 966:Drivers/STM32L4xx_HAL_Driver/Src/stm32l4xx_hal_smartcard.c ****       *ptmpdata = (uint8_t)(hsmartcard->Instance->RDR & (uint8_t)0x00FF);
 733              		.loc 1 966 39
 734 0092 FB68     		ldr	r3, [r7, #12]
 735 0094 1B68     		ldr	r3, [r3]
 736              		.loc 1 966 49
 737 0096 5B6A     		ldr	r3, [r3, #36]
 738              		.loc 1 966 19
 739 0098 DAB2     		uxtb	r2, r3
 740              		.loc 1 966 17
 741 009a 7B69     		ldr	r3, [r7, #20]
 742 009c 1A70     		strb	r2, [r3]
 967:Drivers/STM32L4xx_HAL_Driver/Src/stm32l4xx_hal_smartcard.c ****       ptmpdata++;
 743              		.loc 1 967 15
 744 009e 7B69     		ldr	r3, [r7, #20]
 745 00a0 0133     		adds	r3, r3, #1
 746 00a2 7B61     		str	r3, [r7, #20]
 747              	.L32:
 958:Drivers/STM32L4xx_HAL_Driver/Src/stm32l4xx_hal_smartcard.c ****     {
 748              		.loc 1 958 22
 749 00a4 FB68     		ldr	r3, [r7, #12]
 750 00a6 B3F85E30 		ldrh	r3, [r3, #94]	@ movhi
 751 00aa 9BB2     		uxth	r3, r3
 958:Drivers/STM32L4xx_HAL_Driver/Src/stm32l4xx_hal_smartcard.c ****     {
ARM GAS  /tmp/ccDAjxq4.s 			page 31


 752              		.loc 1 958 36
 753 00ac 002B     		cmp	r3, #0
 754 00ae DAD1     		bne	.L34
 968:Drivers/STM32L4xx_HAL_Driver/Src/stm32l4xx_hal_smartcard.c ****     }
 969:Drivers/STM32L4xx_HAL_Driver/Src/stm32l4xx_hal_smartcard.c **** 
 970:Drivers/STM32L4xx_HAL_Driver/Src/stm32l4xx_hal_smartcard.c ****     /* At end of Rx process, restore hsmartcard->RxState to Ready */
 971:Drivers/STM32L4xx_HAL_Driver/Src/stm32l4xx_hal_smartcard.c ****     hsmartcard->RxState = HAL_SMARTCARD_STATE_READY;
 755              		.loc 1 971 25
 756 00b0 FB68     		ldr	r3, [r7, #12]
 757 00b2 2022     		movs	r2, #32
 758 00b4 9A67     		str	r2, [r3, #120]
 972:Drivers/STM32L4xx_HAL_Driver/Src/stm32l4xx_hal_smartcard.c **** 
 973:Drivers/STM32L4xx_HAL_Driver/Src/stm32l4xx_hal_smartcard.c ****     /* Process Unlocked */
 974:Drivers/STM32L4xx_HAL_Driver/Src/stm32l4xx_hal_smartcard.c ****     __HAL_UNLOCK(hsmartcard);
 759              		.loc 1 974 5
 760 00b6 FB68     		ldr	r3, [r7, #12]
 761 00b8 0022     		movs	r2, #0
 762 00ba 83F87020 		strb	r2, [r3, #112]
 975:Drivers/STM32L4xx_HAL_Driver/Src/stm32l4xx_hal_smartcard.c **** 
 976:Drivers/STM32L4xx_HAL_Driver/Src/stm32l4xx_hal_smartcard.c ****     return HAL_OK;
 763              		.loc 1 976 12
 764 00be 0023     		movs	r3, #0
 765 00c0 00E0     		b	.L30
 766              	.L27:
 977:Drivers/STM32L4xx_HAL_Driver/Src/stm32l4xx_hal_smartcard.c ****   }
 978:Drivers/STM32L4xx_HAL_Driver/Src/stm32l4xx_hal_smartcard.c ****   else
 979:Drivers/STM32L4xx_HAL_Driver/Src/stm32l4xx_hal_smartcard.c ****   {
 980:Drivers/STM32L4xx_HAL_Driver/Src/stm32l4xx_hal_smartcard.c ****     return HAL_BUSY;
 767              		.loc 1 980 12
 768 00c2 0223     		movs	r3, #2
 769              	.L30:
 981:Drivers/STM32L4xx_HAL_Driver/Src/stm32l4xx_hal_smartcard.c ****   }
 982:Drivers/STM32L4xx_HAL_Driver/Src/stm32l4xx_hal_smartcard.c **** }
 770              		.loc 1 982 1
 771 00c4 1846     		mov	r0, r3
 772 00c6 1837     		adds	r7, r7, #24
 773              		.cfi_def_cfa_offset 8
 774 00c8 BD46     		mov	sp, r7
 775              		.cfi_def_cfa_register 13
 776              		@ sp needed
 777 00ca 80BD     		pop	{r7, pc}
 778              		.cfi_endproc
 779              	.LFE450:
 781              		.section	.text.HAL_SMARTCARD_Transmit_IT,"ax",%progbits
 782              		.align	1
 783              		.global	HAL_SMARTCARD_Transmit_IT
 784              		.syntax unified
 785              		.thumb
 786              		.thumb_func
 788              	HAL_SMARTCARD_Transmit_IT:
 789              	.LFB451:
 983:Drivers/STM32L4xx_HAL_Driver/Src/stm32l4xx_hal_smartcard.c **** 
 984:Drivers/STM32L4xx_HAL_Driver/Src/stm32l4xx_hal_smartcard.c **** /**
 985:Drivers/STM32L4xx_HAL_Driver/Src/stm32l4xx_hal_smartcard.c ****   * @brief  Send an amount of data in interrupt mode.
 986:Drivers/STM32L4xx_HAL_Driver/Src/stm32l4xx_hal_smartcard.c ****   * @note   When FIFO mode is disabled, USART interrupt is generated whenever
 987:Drivers/STM32L4xx_HAL_Driver/Src/stm32l4xx_hal_smartcard.c ****   *         USART_TDR register is empty, i.e one interrupt per data to transmit.
 988:Drivers/STM32L4xx_HAL_Driver/Src/stm32l4xx_hal_smartcard.c ****   * @note   When FIFO mode is enabled, USART interrupt is generated whenever
ARM GAS  /tmp/ccDAjxq4.s 			page 32


 989:Drivers/STM32L4xx_HAL_Driver/Src/stm32l4xx_hal_smartcard.c ****   *         TXFIFO threshold reached. In that case the interrupt rate depends on
 990:Drivers/STM32L4xx_HAL_Driver/Src/stm32l4xx_hal_smartcard.c ****   *         TXFIFO threshold configuration.
 991:Drivers/STM32L4xx_HAL_Driver/Src/stm32l4xx_hal_smartcard.c ****   * @note   This function sets the hsmartcard->TxIsr function pointer according to
 992:Drivers/STM32L4xx_HAL_Driver/Src/stm32l4xx_hal_smartcard.c ****   *         the FIFO mode (data transmission processing depends on FIFO mode).
 993:Drivers/STM32L4xx_HAL_Driver/Src/stm32l4xx_hal_smartcard.c ****   * @param  hsmartcard Pointer to a SMARTCARD_HandleTypeDef structure that contains
 994:Drivers/STM32L4xx_HAL_Driver/Src/stm32l4xx_hal_smartcard.c ****   *                    the configuration information for the specified SMARTCARD module.
 995:Drivers/STM32L4xx_HAL_Driver/Src/stm32l4xx_hal_smartcard.c ****   * @param  pData pointer to data buffer.
 996:Drivers/STM32L4xx_HAL_Driver/Src/stm32l4xx_hal_smartcard.c ****   * @param  Size amount of data to be sent.
 997:Drivers/STM32L4xx_HAL_Driver/Src/stm32l4xx_hal_smartcard.c ****   * @retval HAL status
 998:Drivers/STM32L4xx_HAL_Driver/Src/stm32l4xx_hal_smartcard.c ****   */
 999:Drivers/STM32L4xx_HAL_Driver/Src/stm32l4xx_hal_smartcard.c **** HAL_StatusTypeDef HAL_SMARTCARD_Transmit_IT(SMARTCARD_HandleTypeDef *hsmartcard, const uint8_t *pDa
1000:Drivers/STM32L4xx_HAL_Driver/Src/stm32l4xx_hal_smartcard.c **** {
 790              		.loc 1 1000 1
 791              		.cfi_startproc
 792              		@ args = 0, pretend = 0, frame = 16
 793              		@ frame_needed = 1, uses_anonymous_args = 0
 794              		@ link register save eliminated.
 795 0000 80B4     		push	{r7}
 796              		.cfi_def_cfa_offset 4
 797              		.cfi_offset 7, -4
 798 0002 85B0     		sub	sp, sp, #20
 799              		.cfi_def_cfa_offset 24
 800 0004 00AF     		add	r7, sp, #0
 801              		.cfi_def_cfa_register 7
 802 0006 F860     		str	r0, [r7, #12]
 803 0008 B960     		str	r1, [r7, #8]
 804 000a 1346     		mov	r3, r2
 805 000c FB80     		strh	r3, [r7, #6]	@ movhi
1001:Drivers/STM32L4xx_HAL_Driver/Src/stm32l4xx_hal_smartcard.c ****   /* Check that a Tx process is not already ongoing */
1002:Drivers/STM32L4xx_HAL_Driver/Src/stm32l4xx_hal_smartcard.c ****   if (hsmartcard->gState == HAL_SMARTCARD_STATE_READY)
 806              		.loc 1 1002 17
 807 000e FB68     		ldr	r3, [r7, #12]
 808 0010 5B6F     		ldr	r3, [r3, #116]
 809              		.loc 1 1002 6
 810 0012 202B     		cmp	r3, #32
 811 0014 77D1     		bne	.L36
1003:Drivers/STM32L4xx_HAL_Driver/Src/stm32l4xx_hal_smartcard.c ****   {
1004:Drivers/STM32L4xx_HAL_Driver/Src/stm32l4xx_hal_smartcard.c ****     if ((pData == NULL) || (Size == 0U))
 812              		.loc 1 1004 8
 813 0016 BB68     		ldr	r3, [r7, #8]
 814 0018 002B     		cmp	r3, #0
 815 001a 02D0     		beq	.L37
 816              		.loc 1 1004 25 discriminator 1
 817 001c FB88     		ldrh	r3, [r7, #6]
 818 001e 002B     		cmp	r3, #0
 819 0020 01D1     		bne	.L38
 820              	.L37:
1005:Drivers/STM32L4xx_HAL_Driver/Src/stm32l4xx_hal_smartcard.c ****     {
1006:Drivers/STM32L4xx_HAL_Driver/Src/stm32l4xx_hal_smartcard.c ****       return HAL_ERROR;
 821              		.loc 1 1006 14
 822 0022 0123     		movs	r3, #1
 823 0024 70E0     		b	.L39
 824              	.L38:
1007:Drivers/STM32L4xx_HAL_Driver/Src/stm32l4xx_hal_smartcard.c ****     }
1008:Drivers/STM32L4xx_HAL_Driver/Src/stm32l4xx_hal_smartcard.c **** 
1009:Drivers/STM32L4xx_HAL_Driver/Src/stm32l4xx_hal_smartcard.c ****     /* Process Locked */
1010:Drivers/STM32L4xx_HAL_Driver/Src/stm32l4xx_hal_smartcard.c ****     __HAL_LOCK(hsmartcard);
ARM GAS  /tmp/ccDAjxq4.s 			page 33


 825              		.loc 1 1010 5
 826 0026 FB68     		ldr	r3, [r7, #12]
 827 0028 93F87030 		ldrb	r3, [r3, #112]	@ zero_extendqisi2
 828 002c 012B     		cmp	r3, #1
 829 002e 01D1     		bne	.L40
 830              		.loc 1 1010 5 is_stmt 0 discriminator 1
 831 0030 0223     		movs	r3, #2
 832              		.loc 1 1010 5
 833 0032 69E0     		b	.L39
 834              	.L40:
 835              		.loc 1 1010 5 discriminator 2
 836 0034 FB68     		ldr	r3, [r7, #12]
 837 0036 0122     		movs	r2, #1
 838 0038 83F87020 		strb	r2, [r3, #112]
1011:Drivers/STM32L4xx_HAL_Driver/Src/stm32l4xx_hal_smartcard.c **** 
1012:Drivers/STM32L4xx_HAL_Driver/Src/stm32l4xx_hal_smartcard.c ****     hsmartcard->ErrorCode = HAL_SMARTCARD_ERROR_NONE;
 839              		.loc 1 1012 27 is_stmt 1
 840 003c FB68     		ldr	r3, [r7, #12]
 841 003e 0022     		movs	r2, #0
 842 0040 DA67     		str	r2, [r3, #124]
1013:Drivers/STM32L4xx_HAL_Driver/Src/stm32l4xx_hal_smartcard.c ****     hsmartcard->gState = HAL_SMARTCARD_STATE_BUSY_TX;
 843              		.loc 1 1013 24
 844 0042 FB68     		ldr	r3, [r7, #12]
 845 0044 2122     		movs	r2, #33
 846 0046 5A67     		str	r2, [r3, #116]
1014:Drivers/STM32L4xx_HAL_Driver/Src/stm32l4xx_hal_smartcard.c **** 
1015:Drivers/STM32L4xx_HAL_Driver/Src/stm32l4xx_hal_smartcard.c ****     hsmartcard->pTxBuffPtr  = pData;
 847              		.loc 1 1015 29
 848 0048 FB68     		ldr	r3, [r7, #12]
 849 004a BA68     		ldr	r2, [r7, #8]
 850 004c 1A65     		str	r2, [r3, #80]
1016:Drivers/STM32L4xx_HAL_Driver/Src/stm32l4xx_hal_smartcard.c ****     hsmartcard->TxXferSize  = Size;
 851              		.loc 1 1016 29
 852 004e FB68     		ldr	r3, [r7, #12]
 853 0050 FA88     		ldrh	r2, [r7, #6]	@ movhi
 854 0052 A3F85420 		strh	r2, [r3, #84]	@ movhi
1017:Drivers/STM32L4xx_HAL_Driver/Src/stm32l4xx_hal_smartcard.c ****     hsmartcard->TxXferCount = Size;
 855              		.loc 1 1017 29
 856 0056 FB68     		ldr	r3, [r7, #12]
 857 0058 FA88     		ldrh	r2, [r7, #6]	@ movhi
 858 005a A3F85620 		strh	r2, [r3, #86]	@ movhi
1018:Drivers/STM32L4xx_HAL_Driver/Src/stm32l4xx_hal_smartcard.c ****     hsmartcard->TxISR       = NULL;
 859              		.loc 1 1018 29
 860 005e FB68     		ldr	r3, [r7, #12]
 861 0060 0022     		movs	r2, #0
 862 0062 5A66     		str	r2, [r3, #100]
1019:Drivers/STM32L4xx_HAL_Driver/Src/stm32l4xx_hal_smartcard.c **** 
1020:Drivers/STM32L4xx_HAL_Driver/Src/stm32l4xx_hal_smartcard.c ****     /* Disable the Peripheral first to update mode for TX master */
1021:Drivers/STM32L4xx_HAL_Driver/Src/stm32l4xx_hal_smartcard.c ****     CLEAR_BIT(hsmartcard->Instance->CR1, USART_CR1_UE);
 863              		.loc 1 1021 5
 864 0064 FB68     		ldr	r3, [r7, #12]
 865 0066 1B68     		ldr	r3, [r3]
 866 0068 1A68     		ldr	r2, [r3]
 867 006a FB68     		ldr	r3, [r7, #12]
 868 006c 1B68     		ldr	r3, [r3]
 869 006e 22F00102 		bic	r2, r2, #1
 870 0072 1A60     		str	r2, [r3]
ARM GAS  /tmp/ccDAjxq4.s 			page 34


1022:Drivers/STM32L4xx_HAL_Driver/Src/stm32l4xx_hal_smartcard.c **** 
1023:Drivers/STM32L4xx_HAL_Driver/Src/stm32l4xx_hal_smartcard.c ****     /* In case of TX only mode, if NACK is enabled, the USART must be able to monitor
1024:Drivers/STM32L4xx_HAL_Driver/Src/stm32l4xx_hal_smartcard.c ****        the bidirectional line to detect a NACK signal in case of parity error.
1025:Drivers/STM32L4xx_HAL_Driver/Src/stm32l4xx_hal_smartcard.c ****        Therefore, the receiver block must be enabled as well (RE bit must be set). */
1026:Drivers/STM32L4xx_HAL_Driver/Src/stm32l4xx_hal_smartcard.c ****     if ((hsmartcard->Init.Mode == SMARTCARD_MODE_TX)
 871              		.loc 1 1026 26
 872 0074 FB68     		ldr	r3, [r7, #12]
 873 0076 5B8A     		ldrh	r3, [r3, #18]
 874              		.loc 1 1026 8
 875 0078 082B     		cmp	r3, #8
 876 007a 0BD1     		bne	.L41
1027:Drivers/STM32L4xx_HAL_Driver/Src/stm32l4xx_hal_smartcard.c ****         && (hsmartcard->Init.NACKEnable == SMARTCARD_NACK_ENABLE))
 877              		.loc 1 1027 29
 878 007c FB68     		ldr	r3, [r7, #12]
 879 007e DB8B     		ldrh	r3, [r3, #30]
 880              		.loc 1 1027 9
 881 0080 102B     		cmp	r3, #16
 882 0082 07D1     		bne	.L41
1028:Drivers/STM32L4xx_HAL_Driver/Src/stm32l4xx_hal_smartcard.c ****     {
1029:Drivers/STM32L4xx_HAL_Driver/Src/stm32l4xx_hal_smartcard.c ****       SET_BIT(hsmartcard->Instance->CR1, USART_CR1_RE);
 883              		.loc 1 1029 7
 884 0084 FB68     		ldr	r3, [r7, #12]
 885 0086 1B68     		ldr	r3, [r3]
 886 0088 1A68     		ldr	r2, [r3]
 887 008a FB68     		ldr	r3, [r7, #12]
 888 008c 1B68     		ldr	r3, [r3]
 889 008e 42F00402 		orr	r2, r2, #4
 890 0092 1A60     		str	r2, [r3]
 891              	.L41:
1030:Drivers/STM32L4xx_HAL_Driver/Src/stm32l4xx_hal_smartcard.c ****     }
1031:Drivers/STM32L4xx_HAL_Driver/Src/stm32l4xx_hal_smartcard.c ****     /* Enable Tx */
1032:Drivers/STM32L4xx_HAL_Driver/Src/stm32l4xx_hal_smartcard.c ****     SET_BIT(hsmartcard->Instance->CR1, USART_CR1_TE);
 892              		.loc 1 1032 5
 893 0094 FB68     		ldr	r3, [r7, #12]
 894 0096 1B68     		ldr	r3, [r3]
 895 0098 1A68     		ldr	r2, [r3]
 896 009a FB68     		ldr	r3, [r7, #12]
 897 009c 1B68     		ldr	r3, [r3]
 898 009e 42F00802 		orr	r2, r2, #8
 899 00a2 1A60     		str	r2, [r3]
1033:Drivers/STM32L4xx_HAL_Driver/Src/stm32l4xx_hal_smartcard.c **** 
1034:Drivers/STM32L4xx_HAL_Driver/Src/stm32l4xx_hal_smartcard.c ****     /* Enable the Peripheral */
1035:Drivers/STM32L4xx_HAL_Driver/Src/stm32l4xx_hal_smartcard.c ****     SET_BIT(hsmartcard->Instance->CR1, USART_CR1_UE);
 900              		.loc 1 1035 5
 901 00a4 FB68     		ldr	r3, [r7, #12]
 902 00a6 1B68     		ldr	r3, [r3]
 903 00a8 1A68     		ldr	r2, [r3]
 904 00aa FB68     		ldr	r3, [r7, #12]
 905 00ac 1B68     		ldr	r3, [r3]
 906 00ae 42F00102 		orr	r2, r2, #1
 907 00b2 1A60     		str	r2, [r3]
1036:Drivers/STM32L4xx_HAL_Driver/Src/stm32l4xx_hal_smartcard.c **** 
1037:Drivers/STM32L4xx_HAL_Driver/Src/stm32l4xx_hal_smartcard.c ****     /* Perform a TX/RX FIFO Flush */
1038:Drivers/STM32L4xx_HAL_Driver/Src/stm32l4xx_hal_smartcard.c ****     __HAL_SMARTCARD_FLUSH_DRREGISTER(hsmartcard);
 908              		.loc 1 1038 5
 909 00b4 FB68     		ldr	r3, [r7, #12]
 910 00b6 1B68     		ldr	r3, [r3]
ARM GAS  /tmp/ccDAjxq4.s 			page 35


 911 00b8 9A69     		ldr	r2, [r3, #24]
 912 00ba FB68     		ldr	r3, [r7, #12]
 913 00bc 1B68     		ldr	r3, [r3]
 914 00be 42F00802 		orr	r2, r2, #8
 915 00c2 9A61     		str	r2, [r3, #24]
 916 00c4 FB68     		ldr	r3, [r7, #12]
 917 00c6 1B68     		ldr	r3, [r3]
 918 00c8 9A69     		ldr	r2, [r3, #24]
 919 00ca FB68     		ldr	r3, [r7, #12]
 920 00cc 1B68     		ldr	r3, [r3]
 921 00ce 42F01002 		orr	r2, r2, #16
 922 00d2 9A61     		str	r2, [r3, #24]
1039:Drivers/STM32L4xx_HAL_Driver/Src/stm32l4xx_hal_smartcard.c **** 
1040:Drivers/STM32L4xx_HAL_Driver/Src/stm32l4xx_hal_smartcard.c ****     /* Configure Tx interrupt processing */
1041:Drivers/STM32L4xx_HAL_Driver/Src/stm32l4xx_hal_smartcard.c **** #if defined(USART_CR1_FIFOEN)
1042:Drivers/STM32L4xx_HAL_Driver/Src/stm32l4xx_hal_smartcard.c ****     if (hsmartcard->FifoMode == SMARTCARD_FIFOMODE_ENABLE)
1043:Drivers/STM32L4xx_HAL_Driver/Src/stm32l4xx_hal_smartcard.c ****     {
1044:Drivers/STM32L4xx_HAL_Driver/Src/stm32l4xx_hal_smartcard.c ****       /* Set the Tx ISR function pointer */
1045:Drivers/STM32L4xx_HAL_Driver/Src/stm32l4xx_hal_smartcard.c ****       hsmartcard->TxISR = SMARTCARD_TxISR_FIFOEN;
1046:Drivers/STM32L4xx_HAL_Driver/Src/stm32l4xx_hal_smartcard.c **** 
1047:Drivers/STM32L4xx_HAL_Driver/Src/stm32l4xx_hal_smartcard.c ****       /* Process Unlocked */
1048:Drivers/STM32L4xx_HAL_Driver/Src/stm32l4xx_hal_smartcard.c ****       __HAL_UNLOCK(hsmartcard);
1049:Drivers/STM32L4xx_HAL_Driver/Src/stm32l4xx_hal_smartcard.c **** 
1050:Drivers/STM32L4xx_HAL_Driver/Src/stm32l4xx_hal_smartcard.c ****       /* Enable the SMARTCARD Error Interrupt: (Frame error) */
1051:Drivers/STM32L4xx_HAL_Driver/Src/stm32l4xx_hal_smartcard.c ****       SET_BIT(hsmartcard->Instance->CR3, USART_CR3_EIE);
1052:Drivers/STM32L4xx_HAL_Driver/Src/stm32l4xx_hal_smartcard.c **** 
1053:Drivers/STM32L4xx_HAL_Driver/Src/stm32l4xx_hal_smartcard.c ****       /* Enable the TX FIFO threshold interrupt */
1054:Drivers/STM32L4xx_HAL_Driver/Src/stm32l4xx_hal_smartcard.c ****       SET_BIT(hsmartcard->Instance->CR3, USART_CR3_TXFTIE);
1055:Drivers/STM32L4xx_HAL_Driver/Src/stm32l4xx_hal_smartcard.c ****     }
1056:Drivers/STM32L4xx_HAL_Driver/Src/stm32l4xx_hal_smartcard.c ****     else
1057:Drivers/STM32L4xx_HAL_Driver/Src/stm32l4xx_hal_smartcard.c ****     {
1058:Drivers/STM32L4xx_HAL_Driver/Src/stm32l4xx_hal_smartcard.c ****       /* Set the Tx ISR function pointer */
1059:Drivers/STM32L4xx_HAL_Driver/Src/stm32l4xx_hal_smartcard.c ****       hsmartcard->TxISR = SMARTCARD_TxISR;
1060:Drivers/STM32L4xx_HAL_Driver/Src/stm32l4xx_hal_smartcard.c **** 
1061:Drivers/STM32L4xx_HAL_Driver/Src/stm32l4xx_hal_smartcard.c ****       /* Process Unlocked */
1062:Drivers/STM32L4xx_HAL_Driver/Src/stm32l4xx_hal_smartcard.c ****       __HAL_UNLOCK(hsmartcard);
1063:Drivers/STM32L4xx_HAL_Driver/Src/stm32l4xx_hal_smartcard.c **** 
1064:Drivers/STM32L4xx_HAL_Driver/Src/stm32l4xx_hal_smartcard.c ****       /* Enable the SMARTCARD Error Interrupt: (Frame error) */
1065:Drivers/STM32L4xx_HAL_Driver/Src/stm32l4xx_hal_smartcard.c ****       SET_BIT(hsmartcard->Instance->CR3, USART_CR3_EIE);
1066:Drivers/STM32L4xx_HAL_Driver/Src/stm32l4xx_hal_smartcard.c **** 
1067:Drivers/STM32L4xx_HAL_Driver/Src/stm32l4xx_hal_smartcard.c ****       /* Enable the SMARTCARD Transmit Data Register Empty Interrupt */
1068:Drivers/STM32L4xx_HAL_Driver/Src/stm32l4xx_hal_smartcard.c ****       SET_BIT(hsmartcard->Instance->CR1, USART_CR1_TXEIE_TXFNFIE);
1069:Drivers/STM32L4xx_HAL_Driver/Src/stm32l4xx_hal_smartcard.c ****     }
1070:Drivers/STM32L4xx_HAL_Driver/Src/stm32l4xx_hal_smartcard.c **** #else
1071:Drivers/STM32L4xx_HAL_Driver/Src/stm32l4xx_hal_smartcard.c ****     /* Set the Tx ISR function pointer */
1072:Drivers/STM32L4xx_HAL_Driver/Src/stm32l4xx_hal_smartcard.c ****     hsmartcard->TxISR = SMARTCARD_TxISR;
 923              		.loc 1 1072 23
 924 00d4 FB68     		ldr	r3, [r7, #12]
 925 00d6 0F4A     		ldr	r2, .L42
 926 00d8 5A66     		str	r2, [r3, #100]
1073:Drivers/STM32L4xx_HAL_Driver/Src/stm32l4xx_hal_smartcard.c **** 
1074:Drivers/STM32L4xx_HAL_Driver/Src/stm32l4xx_hal_smartcard.c ****     /* Process Unlocked */
1075:Drivers/STM32L4xx_HAL_Driver/Src/stm32l4xx_hal_smartcard.c ****     __HAL_UNLOCK(hsmartcard);
 927              		.loc 1 1075 5
 928 00da FB68     		ldr	r3, [r7, #12]
 929 00dc 0022     		movs	r2, #0
 930 00de 83F87020 		strb	r2, [r3, #112]
ARM GAS  /tmp/ccDAjxq4.s 			page 36


1076:Drivers/STM32L4xx_HAL_Driver/Src/stm32l4xx_hal_smartcard.c **** 
1077:Drivers/STM32L4xx_HAL_Driver/Src/stm32l4xx_hal_smartcard.c ****     /* Enable the SMARTCARD Error Interrupt: (Frame error) */
1078:Drivers/STM32L4xx_HAL_Driver/Src/stm32l4xx_hal_smartcard.c ****     SET_BIT(hsmartcard->Instance->CR3, USART_CR3_EIE);
 931              		.loc 1 1078 5
 932 00e2 FB68     		ldr	r3, [r7, #12]
 933 00e4 1B68     		ldr	r3, [r3]
 934 00e6 9A68     		ldr	r2, [r3, #8]
 935 00e8 FB68     		ldr	r3, [r7, #12]
 936 00ea 1B68     		ldr	r3, [r3]
 937 00ec 42F00102 		orr	r2, r2, #1
 938 00f0 9A60     		str	r2, [r3, #8]
1079:Drivers/STM32L4xx_HAL_Driver/Src/stm32l4xx_hal_smartcard.c **** 
1080:Drivers/STM32L4xx_HAL_Driver/Src/stm32l4xx_hal_smartcard.c ****     /* Enable the SMARTCARD Transmit Data Register Empty Interrupt */
1081:Drivers/STM32L4xx_HAL_Driver/Src/stm32l4xx_hal_smartcard.c ****     SET_BIT(hsmartcard->Instance->CR1, USART_CR1_TXEIE);
 939              		.loc 1 1081 5
 940 00f2 FB68     		ldr	r3, [r7, #12]
 941 00f4 1B68     		ldr	r3, [r3]
 942 00f6 1A68     		ldr	r2, [r3]
 943 00f8 FB68     		ldr	r3, [r7, #12]
 944 00fa 1B68     		ldr	r3, [r3]
 945 00fc 42F08002 		orr	r2, r2, #128
 946 0100 1A60     		str	r2, [r3]
1082:Drivers/STM32L4xx_HAL_Driver/Src/stm32l4xx_hal_smartcard.c **** #endif /* USART_CR1_FIFOEN */
1083:Drivers/STM32L4xx_HAL_Driver/Src/stm32l4xx_hal_smartcard.c **** 
1084:Drivers/STM32L4xx_HAL_Driver/Src/stm32l4xx_hal_smartcard.c ****     return HAL_OK;
 947              		.loc 1 1084 12
 948 0102 0023     		movs	r3, #0
 949 0104 00E0     		b	.L39
 950              	.L36:
1085:Drivers/STM32L4xx_HAL_Driver/Src/stm32l4xx_hal_smartcard.c ****   }
1086:Drivers/STM32L4xx_HAL_Driver/Src/stm32l4xx_hal_smartcard.c ****   else
1087:Drivers/STM32L4xx_HAL_Driver/Src/stm32l4xx_hal_smartcard.c ****   {
1088:Drivers/STM32L4xx_HAL_Driver/Src/stm32l4xx_hal_smartcard.c ****     return HAL_BUSY;
 951              		.loc 1 1088 12
 952 0106 0223     		movs	r3, #2
 953              	.L39:
1089:Drivers/STM32L4xx_HAL_Driver/Src/stm32l4xx_hal_smartcard.c ****   }
1090:Drivers/STM32L4xx_HAL_Driver/Src/stm32l4xx_hal_smartcard.c **** }
 954              		.loc 1 1090 1
 955 0108 1846     		mov	r0, r3
 956 010a 1437     		adds	r7, r7, #20
 957              		.cfi_def_cfa_offset 4
 958 010c BD46     		mov	sp, r7
 959              		.cfi_def_cfa_register 13
 960              		@ sp needed
 961 010e 5DF8047B 		ldr	r7, [sp], #4
 962              		.cfi_restore 7
 963              		.cfi_def_cfa_offset 0
 964 0112 7047     		bx	lr
 965              	.L43:
 966              		.align	2
 967              	.L42:
 968 0114 00000000 		.word	SMARTCARD_TxISR
 969              		.cfi_endproc
 970              	.LFE451:
 972              		.section	.text.HAL_SMARTCARD_Receive_IT,"ax",%progbits
 973              		.align	1
ARM GAS  /tmp/ccDAjxq4.s 			page 37


 974              		.global	HAL_SMARTCARD_Receive_IT
 975              		.syntax unified
 976              		.thumb
 977              		.thumb_func
 979              	HAL_SMARTCARD_Receive_IT:
 980              	.LFB452:
1091:Drivers/STM32L4xx_HAL_Driver/Src/stm32l4xx_hal_smartcard.c **** 
1092:Drivers/STM32L4xx_HAL_Driver/Src/stm32l4xx_hal_smartcard.c **** /**
1093:Drivers/STM32L4xx_HAL_Driver/Src/stm32l4xx_hal_smartcard.c ****   * @brief  Receive an amount of data in interrupt mode.
1094:Drivers/STM32L4xx_HAL_Driver/Src/stm32l4xx_hal_smartcard.c ****   * @note   When FIFO mode is disabled, USART interrupt is generated whenever
1095:Drivers/STM32L4xx_HAL_Driver/Src/stm32l4xx_hal_smartcard.c ****   *         USART_RDR register can be read, i.e one interrupt per data to receive.
1096:Drivers/STM32L4xx_HAL_Driver/Src/stm32l4xx_hal_smartcard.c ****   * @note   When FIFO mode is enabled, USART interrupt is generated whenever
1097:Drivers/STM32L4xx_HAL_Driver/Src/stm32l4xx_hal_smartcard.c ****   *         RXFIFO threshold reached. In that case the interrupt rate depends on
1098:Drivers/STM32L4xx_HAL_Driver/Src/stm32l4xx_hal_smartcard.c ****   *         RXFIFO threshold configuration.
1099:Drivers/STM32L4xx_HAL_Driver/Src/stm32l4xx_hal_smartcard.c ****   * @note   This function sets the hsmartcard->RxIsr function pointer according to
1100:Drivers/STM32L4xx_HAL_Driver/Src/stm32l4xx_hal_smartcard.c ****   *         the FIFO mode (data reception processing depends on FIFO mode).
1101:Drivers/STM32L4xx_HAL_Driver/Src/stm32l4xx_hal_smartcard.c ****   * @param  hsmartcard Pointer to a SMARTCARD_HandleTypeDef structure that contains
1102:Drivers/STM32L4xx_HAL_Driver/Src/stm32l4xx_hal_smartcard.c ****   *                    the configuration information for the specified SMARTCARD module.
1103:Drivers/STM32L4xx_HAL_Driver/Src/stm32l4xx_hal_smartcard.c ****   * @param  pData pointer to data buffer.
1104:Drivers/STM32L4xx_HAL_Driver/Src/stm32l4xx_hal_smartcard.c ****   * @param  Size amount of data to be received.
1105:Drivers/STM32L4xx_HAL_Driver/Src/stm32l4xx_hal_smartcard.c ****   * @retval HAL status
1106:Drivers/STM32L4xx_HAL_Driver/Src/stm32l4xx_hal_smartcard.c ****   */
1107:Drivers/STM32L4xx_HAL_Driver/Src/stm32l4xx_hal_smartcard.c **** HAL_StatusTypeDef HAL_SMARTCARD_Receive_IT(SMARTCARD_HandleTypeDef *hsmartcard, uint8_t *pData, uin
1108:Drivers/STM32L4xx_HAL_Driver/Src/stm32l4xx_hal_smartcard.c **** {
 981              		.loc 1 1108 1
 982              		.cfi_startproc
 983              		@ args = 0, pretend = 0, frame = 16
 984              		@ frame_needed = 1, uses_anonymous_args = 0
 985              		@ link register save eliminated.
 986 0000 80B4     		push	{r7}
 987              		.cfi_def_cfa_offset 4
 988              		.cfi_offset 7, -4
 989 0002 85B0     		sub	sp, sp, #20
 990              		.cfi_def_cfa_offset 24
 991 0004 00AF     		add	r7, sp, #0
 992              		.cfi_def_cfa_register 7
 993 0006 F860     		str	r0, [r7, #12]
 994 0008 B960     		str	r1, [r7, #8]
 995 000a 1346     		mov	r3, r2
 996 000c FB80     		strh	r3, [r7, #6]	@ movhi
1109:Drivers/STM32L4xx_HAL_Driver/Src/stm32l4xx_hal_smartcard.c ****   /* Check that a Rx process is not already ongoing */
1110:Drivers/STM32L4xx_HAL_Driver/Src/stm32l4xx_hal_smartcard.c ****   if (hsmartcard->RxState == HAL_SMARTCARD_STATE_READY)
 997              		.loc 1 1110 17
 998 000e FB68     		ldr	r3, [r7, #12]
 999 0010 9B6F     		ldr	r3, [r3, #120]
 1000              		.loc 1 1110 6
 1001 0012 202B     		cmp	r3, #32
 1002 0014 3CD1     		bne	.L45
1111:Drivers/STM32L4xx_HAL_Driver/Src/stm32l4xx_hal_smartcard.c ****   {
1112:Drivers/STM32L4xx_HAL_Driver/Src/stm32l4xx_hal_smartcard.c ****     if ((pData == NULL) || (Size == 0U))
 1003              		.loc 1 1112 8
 1004 0016 BB68     		ldr	r3, [r7, #8]
 1005 0018 002B     		cmp	r3, #0
 1006 001a 02D0     		beq	.L46
 1007              		.loc 1 1112 25 discriminator 1
 1008 001c FB88     		ldrh	r3, [r7, #6]
 1009 001e 002B     		cmp	r3, #0
ARM GAS  /tmp/ccDAjxq4.s 			page 38


 1010 0020 01D1     		bne	.L47
 1011              	.L46:
1113:Drivers/STM32L4xx_HAL_Driver/Src/stm32l4xx_hal_smartcard.c ****     {
1114:Drivers/STM32L4xx_HAL_Driver/Src/stm32l4xx_hal_smartcard.c ****       return HAL_ERROR;
 1012              		.loc 1 1114 14
 1013 0022 0123     		movs	r3, #1
 1014 0024 35E0     		b	.L48
 1015              	.L47:
1115:Drivers/STM32L4xx_HAL_Driver/Src/stm32l4xx_hal_smartcard.c ****     }
1116:Drivers/STM32L4xx_HAL_Driver/Src/stm32l4xx_hal_smartcard.c **** 
1117:Drivers/STM32L4xx_HAL_Driver/Src/stm32l4xx_hal_smartcard.c ****     /* Process Locked */
1118:Drivers/STM32L4xx_HAL_Driver/Src/stm32l4xx_hal_smartcard.c ****     __HAL_LOCK(hsmartcard);
 1016              		.loc 1 1118 5
 1017 0026 FB68     		ldr	r3, [r7, #12]
 1018 0028 93F87030 		ldrb	r3, [r3, #112]	@ zero_extendqisi2
 1019 002c 012B     		cmp	r3, #1
 1020 002e 01D1     		bne	.L49
 1021              		.loc 1 1118 5 is_stmt 0 discriminator 1
 1022 0030 0223     		movs	r3, #2
 1023              		.loc 1 1118 5
 1024 0032 2EE0     		b	.L48
 1025              	.L49:
 1026              		.loc 1 1118 5 discriminator 2
 1027 0034 FB68     		ldr	r3, [r7, #12]
 1028 0036 0122     		movs	r2, #1
 1029 0038 83F87020 		strb	r2, [r3, #112]
1119:Drivers/STM32L4xx_HAL_Driver/Src/stm32l4xx_hal_smartcard.c **** 
1120:Drivers/STM32L4xx_HAL_Driver/Src/stm32l4xx_hal_smartcard.c ****     hsmartcard->ErrorCode = HAL_SMARTCARD_ERROR_NONE;
 1030              		.loc 1 1120 27 is_stmt 1
 1031 003c FB68     		ldr	r3, [r7, #12]
 1032 003e 0022     		movs	r2, #0
 1033 0040 DA67     		str	r2, [r3, #124]
1121:Drivers/STM32L4xx_HAL_Driver/Src/stm32l4xx_hal_smartcard.c ****     hsmartcard->RxState   = HAL_SMARTCARD_STATE_BUSY_RX;
 1034              		.loc 1 1121 27
 1035 0042 FB68     		ldr	r3, [r7, #12]
 1036 0044 2222     		movs	r2, #34
 1037 0046 9A67     		str	r2, [r3, #120]
1122:Drivers/STM32L4xx_HAL_Driver/Src/stm32l4xx_hal_smartcard.c **** 
1123:Drivers/STM32L4xx_HAL_Driver/Src/stm32l4xx_hal_smartcard.c ****     hsmartcard->pRxBuffPtr = pData;
 1038              		.loc 1 1123 28
 1039 0048 FB68     		ldr	r3, [r7, #12]
 1040 004a BA68     		ldr	r2, [r7, #8]
 1041 004c 9A65     		str	r2, [r3, #88]
1124:Drivers/STM32L4xx_HAL_Driver/Src/stm32l4xx_hal_smartcard.c ****     hsmartcard->RxXferSize = Size;
 1042              		.loc 1 1124 28
 1043 004e FB68     		ldr	r3, [r7, #12]
 1044 0050 FA88     		ldrh	r2, [r7, #6]	@ movhi
 1045 0052 A3F85C20 		strh	r2, [r3, #92]	@ movhi
1125:Drivers/STM32L4xx_HAL_Driver/Src/stm32l4xx_hal_smartcard.c ****     hsmartcard->RxXferCount = Size;
 1046              		.loc 1 1125 29
 1047 0056 FB68     		ldr	r3, [r7, #12]
 1048 0058 FA88     		ldrh	r2, [r7, #6]	@ movhi
 1049 005a A3F85E20 		strh	r2, [r3, #94]	@ movhi
1126:Drivers/STM32L4xx_HAL_Driver/Src/stm32l4xx_hal_smartcard.c **** 
1127:Drivers/STM32L4xx_HAL_Driver/Src/stm32l4xx_hal_smartcard.c ****     /* Configure Rx interrupt processing */
1128:Drivers/STM32L4xx_HAL_Driver/Src/stm32l4xx_hal_smartcard.c **** #if defined(USART_CR1_FIFOEN)
1129:Drivers/STM32L4xx_HAL_Driver/Src/stm32l4xx_hal_smartcard.c ****     if ((hsmartcard->FifoMode == SMARTCARD_FIFOMODE_ENABLE) && (Size >= hsmartcard->NbRxDataToProce
ARM GAS  /tmp/ccDAjxq4.s 			page 39


1130:Drivers/STM32L4xx_HAL_Driver/Src/stm32l4xx_hal_smartcard.c ****     {
1131:Drivers/STM32L4xx_HAL_Driver/Src/stm32l4xx_hal_smartcard.c ****       /* Set the Rx ISR function pointer */
1132:Drivers/STM32L4xx_HAL_Driver/Src/stm32l4xx_hal_smartcard.c ****       hsmartcard->RxISR = SMARTCARD_RxISR_FIFOEN;
1133:Drivers/STM32L4xx_HAL_Driver/Src/stm32l4xx_hal_smartcard.c **** 
1134:Drivers/STM32L4xx_HAL_Driver/Src/stm32l4xx_hal_smartcard.c ****       /* Process Unlocked */
1135:Drivers/STM32L4xx_HAL_Driver/Src/stm32l4xx_hal_smartcard.c ****       __HAL_UNLOCK(hsmartcard);
1136:Drivers/STM32L4xx_HAL_Driver/Src/stm32l4xx_hal_smartcard.c **** 
1137:Drivers/STM32L4xx_HAL_Driver/Src/stm32l4xx_hal_smartcard.c ****       /* Enable the SMARTCART Parity Error interrupt and RX FIFO Threshold interrupt */
1138:Drivers/STM32L4xx_HAL_Driver/Src/stm32l4xx_hal_smartcard.c ****       SET_BIT(hsmartcard->Instance->CR1, USART_CR1_PEIE);
1139:Drivers/STM32L4xx_HAL_Driver/Src/stm32l4xx_hal_smartcard.c ****       SET_BIT(hsmartcard->Instance->CR3, USART_CR3_RXFTIE);
1140:Drivers/STM32L4xx_HAL_Driver/Src/stm32l4xx_hal_smartcard.c ****     }
1141:Drivers/STM32L4xx_HAL_Driver/Src/stm32l4xx_hal_smartcard.c ****     else
1142:Drivers/STM32L4xx_HAL_Driver/Src/stm32l4xx_hal_smartcard.c ****     {
1143:Drivers/STM32L4xx_HAL_Driver/Src/stm32l4xx_hal_smartcard.c ****       /* Set the Rx ISR function pointer */
1144:Drivers/STM32L4xx_HAL_Driver/Src/stm32l4xx_hal_smartcard.c ****       hsmartcard->RxISR = SMARTCARD_RxISR;
1145:Drivers/STM32L4xx_HAL_Driver/Src/stm32l4xx_hal_smartcard.c **** 
1146:Drivers/STM32L4xx_HAL_Driver/Src/stm32l4xx_hal_smartcard.c ****       /* Process Unlocked */
1147:Drivers/STM32L4xx_HAL_Driver/Src/stm32l4xx_hal_smartcard.c ****       __HAL_UNLOCK(hsmartcard);
1148:Drivers/STM32L4xx_HAL_Driver/Src/stm32l4xx_hal_smartcard.c **** 
1149:Drivers/STM32L4xx_HAL_Driver/Src/stm32l4xx_hal_smartcard.c ****       /* Enable the SMARTCARD Parity Error and Data Register not empty Interrupts */
1150:Drivers/STM32L4xx_HAL_Driver/Src/stm32l4xx_hal_smartcard.c ****       SET_BIT(hsmartcard->Instance->CR1, USART_CR1_PEIE | USART_CR1_RXNEIE_RXFNEIE);
1151:Drivers/STM32L4xx_HAL_Driver/Src/stm32l4xx_hal_smartcard.c ****     }
1152:Drivers/STM32L4xx_HAL_Driver/Src/stm32l4xx_hal_smartcard.c **** #else
1153:Drivers/STM32L4xx_HAL_Driver/Src/stm32l4xx_hal_smartcard.c ****     /* Set the Rx ISR function pointer */
1154:Drivers/STM32L4xx_HAL_Driver/Src/stm32l4xx_hal_smartcard.c ****     hsmartcard->RxISR = SMARTCARD_RxISR;
 1050              		.loc 1 1154 23
 1051 005e FB68     		ldr	r3, [r7, #12]
 1052 0060 0F4A     		ldr	r2, .L50
 1053 0062 1A66     		str	r2, [r3, #96]
1155:Drivers/STM32L4xx_HAL_Driver/Src/stm32l4xx_hal_smartcard.c **** 
1156:Drivers/STM32L4xx_HAL_Driver/Src/stm32l4xx_hal_smartcard.c ****     /* Process Unlocked */
1157:Drivers/STM32L4xx_HAL_Driver/Src/stm32l4xx_hal_smartcard.c ****     __HAL_UNLOCK(hsmartcard);
 1054              		.loc 1 1157 5
 1055 0064 FB68     		ldr	r3, [r7, #12]
 1056 0066 0022     		movs	r2, #0
 1057 0068 83F87020 		strb	r2, [r3, #112]
1158:Drivers/STM32L4xx_HAL_Driver/Src/stm32l4xx_hal_smartcard.c **** 
1159:Drivers/STM32L4xx_HAL_Driver/Src/stm32l4xx_hal_smartcard.c ****     /* Enable the SMARTCARD Parity Error and Data Register not empty Interrupts */
1160:Drivers/STM32L4xx_HAL_Driver/Src/stm32l4xx_hal_smartcard.c ****     SET_BIT(hsmartcard->Instance->CR1, USART_CR1_PEIE | USART_CR1_RXNEIE);
 1058              		.loc 1 1160 5
 1059 006c FB68     		ldr	r3, [r7, #12]
 1060 006e 1B68     		ldr	r3, [r3]
 1061 0070 1A68     		ldr	r2, [r3]
 1062 0072 FB68     		ldr	r3, [r7, #12]
 1063 0074 1B68     		ldr	r3, [r3]
 1064 0076 42F49072 		orr	r2, r2, #288
 1065 007a 1A60     		str	r2, [r3]
1161:Drivers/STM32L4xx_HAL_Driver/Src/stm32l4xx_hal_smartcard.c **** #endif /* USART_CR1_FIFOEN */
1162:Drivers/STM32L4xx_HAL_Driver/Src/stm32l4xx_hal_smartcard.c **** 
1163:Drivers/STM32L4xx_HAL_Driver/Src/stm32l4xx_hal_smartcard.c ****     /* Enable the SMARTCARD Error Interrupt: (Frame error, noise error, overrun error) */
1164:Drivers/STM32L4xx_HAL_Driver/Src/stm32l4xx_hal_smartcard.c ****     SET_BIT(hsmartcard->Instance->CR3, USART_CR3_EIE);
 1066              		.loc 1 1164 5
 1067 007c FB68     		ldr	r3, [r7, #12]
 1068 007e 1B68     		ldr	r3, [r3]
 1069 0080 9A68     		ldr	r2, [r3, #8]
 1070 0082 FB68     		ldr	r3, [r7, #12]
 1071 0084 1B68     		ldr	r3, [r3]
ARM GAS  /tmp/ccDAjxq4.s 			page 40


 1072 0086 42F00102 		orr	r2, r2, #1
 1073 008a 9A60     		str	r2, [r3, #8]
1165:Drivers/STM32L4xx_HAL_Driver/Src/stm32l4xx_hal_smartcard.c **** 
1166:Drivers/STM32L4xx_HAL_Driver/Src/stm32l4xx_hal_smartcard.c ****     return HAL_OK;
 1074              		.loc 1 1166 12
 1075 008c 0023     		movs	r3, #0
 1076 008e 00E0     		b	.L48
 1077              	.L45:
1167:Drivers/STM32L4xx_HAL_Driver/Src/stm32l4xx_hal_smartcard.c ****   }
1168:Drivers/STM32L4xx_HAL_Driver/Src/stm32l4xx_hal_smartcard.c ****   else
1169:Drivers/STM32L4xx_HAL_Driver/Src/stm32l4xx_hal_smartcard.c ****   {
1170:Drivers/STM32L4xx_HAL_Driver/Src/stm32l4xx_hal_smartcard.c ****     return HAL_BUSY;
 1078              		.loc 1 1170 12
 1079 0090 0223     		movs	r3, #2
 1080              	.L48:
1171:Drivers/STM32L4xx_HAL_Driver/Src/stm32l4xx_hal_smartcard.c ****   }
1172:Drivers/STM32L4xx_HAL_Driver/Src/stm32l4xx_hal_smartcard.c **** }
 1081              		.loc 1 1172 1
 1082 0092 1846     		mov	r0, r3
 1083 0094 1437     		adds	r7, r7, #20
 1084              		.cfi_def_cfa_offset 4
 1085 0096 BD46     		mov	sp, r7
 1086              		.cfi_def_cfa_register 13
 1087              		@ sp needed
 1088 0098 5DF8047B 		ldr	r7, [sp], #4
 1089              		.cfi_restore 7
 1090              		.cfi_def_cfa_offset 0
 1091 009c 7047     		bx	lr
 1092              	.L51:
 1093 009e 00BF     		.align	2
 1094              	.L50:
 1095 00a0 00000000 		.word	SMARTCARD_RxISR
 1096              		.cfi_endproc
 1097              	.LFE452:
 1099              		.section	.text.HAL_SMARTCARD_Transmit_DMA,"ax",%progbits
 1100              		.align	1
 1101              		.global	HAL_SMARTCARD_Transmit_DMA
 1102              		.syntax unified
 1103              		.thumb
 1104              		.thumb_func
 1106              	HAL_SMARTCARD_Transmit_DMA:
 1107              	.LFB453:
1173:Drivers/STM32L4xx_HAL_Driver/Src/stm32l4xx_hal_smartcard.c **** 
1174:Drivers/STM32L4xx_HAL_Driver/Src/stm32l4xx_hal_smartcard.c **** /**
1175:Drivers/STM32L4xx_HAL_Driver/Src/stm32l4xx_hal_smartcard.c ****   * @brief  Send an amount of data in DMA mode.
1176:Drivers/STM32L4xx_HAL_Driver/Src/stm32l4xx_hal_smartcard.c ****   * @param  hsmartcard Pointer to a SMARTCARD_HandleTypeDef structure that contains
1177:Drivers/STM32L4xx_HAL_Driver/Src/stm32l4xx_hal_smartcard.c ****   *                    the configuration information for the specified SMARTCARD module.
1178:Drivers/STM32L4xx_HAL_Driver/Src/stm32l4xx_hal_smartcard.c ****   * @param  pData pointer to data buffer.
1179:Drivers/STM32L4xx_HAL_Driver/Src/stm32l4xx_hal_smartcard.c ****   * @param  Size amount of data to be sent.
1180:Drivers/STM32L4xx_HAL_Driver/Src/stm32l4xx_hal_smartcard.c ****   * @retval HAL status
1181:Drivers/STM32L4xx_HAL_Driver/Src/stm32l4xx_hal_smartcard.c ****   */
1182:Drivers/STM32L4xx_HAL_Driver/Src/stm32l4xx_hal_smartcard.c **** HAL_StatusTypeDef HAL_SMARTCARD_Transmit_DMA(SMARTCARD_HandleTypeDef *hsmartcard, const uint8_t *pD
1183:Drivers/STM32L4xx_HAL_Driver/Src/stm32l4xx_hal_smartcard.c **** {
 1108              		.loc 1 1183 1
 1109              		.cfi_startproc
 1110              		@ args = 0, pretend = 0, frame = 16
 1111              		@ frame_needed = 1, uses_anonymous_args = 0
ARM GAS  /tmp/ccDAjxq4.s 			page 41


 1112 0000 80B5     		push	{r7, lr}
 1113              		.cfi_def_cfa_offset 8
 1114              		.cfi_offset 7, -8
 1115              		.cfi_offset 14, -4
 1116 0002 84B0     		sub	sp, sp, #16
 1117              		.cfi_def_cfa_offset 24
 1118 0004 00AF     		add	r7, sp, #0
 1119              		.cfi_def_cfa_register 7
 1120 0006 F860     		str	r0, [r7, #12]
 1121 0008 B960     		str	r1, [r7, #8]
 1122 000a 1346     		mov	r3, r2
 1123 000c FB80     		strh	r3, [r7, #6]	@ movhi
1184:Drivers/STM32L4xx_HAL_Driver/Src/stm32l4xx_hal_smartcard.c ****   /* Check that a Tx process is not already ongoing */
1185:Drivers/STM32L4xx_HAL_Driver/Src/stm32l4xx_hal_smartcard.c ****   if (hsmartcard->gState == HAL_SMARTCARD_STATE_READY)
 1124              		.loc 1 1185 17
 1125 000e FB68     		ldr	r3, [r7, #12]
 1126 0010 5B6F     		ldr	r3, [r3, #116]
 1127              		.loc 1 1185 6
 1128 0012 202B     		cmp	r3, #32
 1129 0014 40F0A180 		bne	.L53
1186:Drivers/STM32L4xx_HAL_Driver/Src/stm32l4xx_hal_smartcard.c ****   {
1187:Drivers/STM32L4xx_HAL_Driver/Src/stm32l4xx_hal_smartcard.c ****     if ((pData == NULL) || (Size == 0U))
 1130              		.loc 1 1187 8
 1131 0018 BB68     		ldr	r3, [r7, #8]
 1132 001a 002B     		cmp	r3, #0
 1133 001c 02D0     		beq	.L54
 1134              		.loc 1 1187 25 discriminator 1
 1135 001e FB88     		ldrh	r3, [r7, #6]
 1136 0020 002B     		cmp	r3, #0
 1137 0022 01D1     		bne	.L55
 1138              	.L54:
1188:Drivers/STM32L4xx_HAL_Driver/Src/stm32l4xx_hal_smartcard.c ****     {
1189:Drivers/STM32L4xx_HAL_Driver/Src/stm32l4xx_hal_smartcard.c ****       return HAL_ERROR;
 1139              		.loc 1 1189 14
 1140 0024 0123     		movs	r3, #1
 1141 0026 99E0     		b	.L56
 1142              	.L55:
1190:Drivers/STM32L4xx_HAL_Driver/Src/stm32l4xx_hal_smartcard.c ****     }
1191:Drivers/STM32L4xx_HAL_Driver/Src/stm32l4xx_hal_smartcard.c **** 
1192:Drivers/STM32L4xx_HAL_Driver/Src/stm32l4xx_hal_smartcard.c ****     /* Process Locked */
1193:Drivers/STM32L4xx_HAL_Driver/Src/stm32l4xx_hal_smartcard.c ****     __HAL_LOCK(hsmartcard);
 1143              		.loc 1 1193 5
 1144 0028 FB68     		ldr	r3, [r7, #12]
 1145 002a 93F87030 		ldrb	r3, [r3, #112]	@ zero_extendqisi2
 1146 002e 012B     		cmp	r3, #1
 1147 0030 01D1     		bne	.L57
 1148              		.loc 1 1193 5 is_stmt 0 discriminator 1
 1149 0032 0223     		movs	r3, #2
 1150              		.loc 1 1193 5
 1151 0034 92E0     		b	.L56
 1152              	.L57:
 1153              		.loc 1 1193 5 discriminator 2
 1154 0036 FB68     		ldr	r3, [r7, #12]
 1155 0038 0122     		movs	r2, #1
 1156 003a 83F87020 		strb	r2, [r3, #112]
1194:Drivers/STM32L4xx_HAL_Driver/Src/stm32l4xx_hal_smartcard.c **** 
1195:Drivers/STM32L4xx_HAL_Driver/Src/stm32l4xx_hal_smartcard.c ****     hsmartcard->gState = HAL_SMARTCARD_STATE_BUSY_TX;
ARM GAS  /tmp/ccDAjxq4.s 			page 42


 1157              		.loc 1 1195 24 is_stmt 1
 1158 003e FB68     		ldr	r3, [r7, #12]
 1159 0040 2122     		movs	r2, #33
 1160 0042 5A67     		str	r2, [r3, #116]
1196:Drivers/STM32L4xx_HAL_Driver/Src/stm32l4xx_hal_smartcard.c **** 
1197:Drivers/STM32L4xx_HAL_Driver/Src/stm32l4xx_hal_smartcard.c ****     hsmartcard->ErrorCode = HAL_SMARTCARD_ERROR_NONE;
 1161              		.loc 1 1197 27
 1162 0044 FB68     		ldr	r3, [r7, #12]
 1163 0046 0022     		movs	r2, #0
 1164 0048 DA67     		str	r2, [r3, #124]
1198:Drivers/STM32L4xx_HAL_Driver/Src/stm32l4xx_hal_smartcard.c ****     hsmartcard->pTxBuffPtr = pData;
 1165              		.loc 1 1198 28
 1166 004a FB68     		ldr	r3, [r7, #12]
 1167 004c BA68     		ldr	r2, [r7, #8]
 1168 004e 1A65     		str	r2, [r3, #80]
1199:Drivers/STM32L4xx_HAL_Driver/Src/stm32l4xx_hal_smartcard.c ****     hsmartcard->TxXferSize = Size;
 1169              		.loc 1 1199 28
 1170 0050 FB68     		ldr	r3, [r7, #12]
 1171 0052 FA88     		ldrh	r2, [r7, #6]	@ movhi
 1172 0054 A3F85420 		strh	r2, [r3, #84]	@ movhi
1200:Drivers/STM32L4xx_HAL_Driver/Src/stm32l4xx_hal_smartcard.c ****     hsmartcard->TxXferCount = Size;
 1173              		.loc 1 1200 29
 1174 0058 FB68     		ldr	r3, [r7, #12]
 1175 005a FA88     		ldrh	r2, [r7, #6]	@ movhi
 1176 005c A3F85620 		strh	r2, [r3, #86]	@ movhi
1201:Drivers/STM32L4xx_HAL_Driver/Src/stm32l4xx_hal_smartcard.c **** 
1202:Drivers/STM32L4xx_HAL_Driver/Src/stm32l4xx_hal_smartcard.c ****     /* Disable the Peripheral first to update mode for TX master */
1203:Drivers/STM32L4xx_HAL_Driver/Src/stm32l4xx_hal_smartcard.c ****     CLEAR_BIT(hsmartcard->Instance->CR1, USART_CR1_UE);
 1177              		.loc 1 1203 5
 1178 0060 FB68     		ldr	r3, [r7, #12]
 1179 0062 1B68     		ldr	r3, [r3]
 1180 0064 1A68     		ldr	r2, [r3]
 1181 0066 FB68     		ldr	r3, [r7, #12]
 1182 0068 1B68     		ldr	r3, [r3]
 1183 006a 22F00102 		bic	r2, r2, #1
 1184 006e 1A60     		str	r2, [r3]
1204:Drivers/STM32L4xx_HAL_Driver/Src/stm32l4xx_hal_smartcard.c **** 
1205:Drivers/STM32L4xx_HAL_Driver/Src/stm32l4xx_hal_smartcard.c ****     /* In case of TX only mode, if NACK is enabled, the USART must be able to monitor
1206:Drivers/STM32L4xx_HAL_Driver/Src/stm32l4xx_hal_smartcard.c ****        the bidirectional line to detect a NACK signal in case of parity error.
1207:Drivers/STM32L4xx_HAL_Driver/Src/stm32l4xx_hal_smartcard.c ****        Therefore, the receiver block must be enabled as well (RE bit must be set). */
1208:Drivers/STM32L4xx_HAL_Driver/Src/stm32l4xx_hal_smartcard.c ****     if ((hsmartcard->Init.Mode == SMARTCARD_MODE_TX)
 1185              		.loc 1 1208 26
 1186 0070 FB68     		ldr	r3, [r7, #12]
 1187 0072 5B8A     		ldrh	r3, [r3, #18]
 1188              		.loc 1 1208 8
 1189 0074 082B     		cmp	r3, #8
 1190 0076 0BD1     		bne	.L58
1209:Drivers/STM32L4xx_HAL_Driver/Src/stm32l4xx_hal_smartcard.c ****         && (hsmartcard->Init.NACKEnable == SMARTCARD_NACK_ENABLE))
 1191              		.loc 1 1209 29
 1192 0078 FB68     		ldr	r3, [r7, #12]
 1193 007a DB8B     		ldrh	r3, [r3, #30]
 1194              		.loc 1 1209 9
 1195 007c 102B     		cmp	r3, #16
 1196 007e 07D1     		bne	.L58
1210:Drivers/STM32L4xx_HAL_Driver/Src/stm32l4xx_hal_smartcard.c ****     {
1211:Drivers/STM32L4xx_HAL_Driver/Src/stm32l4xx_hal_smartcard.c ****       SET_BIT(hsmartcard->Instance->CR1, USART_CR1_RE);
 1197              		.loc 1 1211 7
ARM GAS  /tmp/ccDAjxq4.s 			page 43


 1198 0080 FB68     		ldr	r3, [r7, #12]
 1199 0082 1B68     		ldr	r3, [r3]
 1200 0084 1A68     		ldr	r2, [r3]
 1201 0086 FB68     		ldr	r3, [r7, #12]
 1202 0088 1B68     		ldr	r3, [r3]
 1203 008a 42F00402 		orr	r2, r2, #4
 1204 008e 1A60     		str	r2, [r3]
 1205              	.L58:
1212:Drivers/STM32L4xx_HAL_Driver/Src/stm32l4xx_hal_smartcard.c ****     }
1213:Drivers/STM32L4xx_HAL_Driver/Src/stm32l4xx_hal_smartcard.c ****     /* Enable Tx */
1214:Drivers/STM32L4xx_HAL_Driver/Src/stm32l4xx_hal_smartcard.c ****     SET_BIT(hsmartcard->Instance->CR1, USART_CR1_TE);
 1206              		.loc 1 1214 5
 1207 0090 FB68     		ldr	r3, [r7, #12]
 1208 0092 1B68     		ldr	r3, [r3]
 1209 0094 1A68     		ldr	r2, [r3]
 1210 0096 FB68     		ldr	r3, [r7, #12]
 1211 0098 1B68     		ldr	r3, [r3]
 1212 009a 42F00802 		orr	r2, r2, #8
 1213 009e 1A60     		str	r2, [r3]
1215:Drivers/STM32L4xx_HAL_Driver/Src/stm32l4xx_hal_smartcard.c **** 
1216:Drivers/STM32L4xx_HAL_Driver/Src/stm32l4xx_hal_smartcard.c ****     /* Enable the Peripheral */
1217:Drivers/STM32L4xx_HAL_Driver/Src/stm32l4xx_hal_smartcard.c ****     SET_BIT(hsmartcard->Instance->CR1, USART_CR1_UE);
 1214              		.loc 1 1217 5
 1215 00a0 FB68     		ldr	r3, [r7, #12]
 1216 00a2 1B68     		ldr	r3, [r3]
 1217 00a4 1A68     		ldr	r2, [r3]
 1218 00a6 FB68     		ldr	r3, [r7, #12]
 1219 00a8 1B68     		ldr	r3, [r3]
 1220 00aa 42F00102 		orr	r2, r2, #1
 1221 00ae 1A60     		str	r2, [r3]
1218:Drivers/STM32L4xx_HAL_Driver/Src/stm32l4xx_hal_smartcard.c **** 
1219:Drivers/STM32L4xx_HAL_Driver/Src/stm32l4xx_hal_smartcard.c ****     /* Perform a TX/RX FIFO Flush */
1220:Drivers/STM32L4xx_HAL_Driver/Src/stm32l4xx_hal_smartcard.c ****     __HAL_SMARTCARD_FLUSH_DRREGISTER(hsmartcard);
 1222              		.loc 1 1220 5
 1223 00b0 FB68     		ldr	r3, [r7, #12]
 1224 00b2 1B68     		ldr	r3, [r3]
 1225 00b4 9A69     		ldr	r2, [r3, #24]
 1226 00b6 FB68     		ldr	r3, [r7, #12]
 1227 00b8 1B68     		ldr	r3, [r3]
 1228 00ba 42F00802 		orr	r2, r2, #8
 1229 00be 9A61     		str	r2, [r3, #24]
 1230 00c0 FB68     		ldr	r3, [r7, #12]
 1231 00c2 1B68     		ldr	r3, [r3]
 1232 00c4 9A69     		ldr	r2, [r3, #24]
 1233 00c6 FB68     		ldr	r3, [r7, #12]
 1234 00c8 1B68     		ldr	r3, [r3]
 1235 00ca 42F01002 		orr	r2, r2, #16
 1236 00ce 9A61     		str	r2, [r3, #24]
1221:Drivers/STM32L4xx_HAL_Driver/Src/stm32l4xx_hal_smartcard.c **** 
1222:Drivers/STM32L4xx_HAL_Driver/Src/stm32l4xx_hal_smartcard.c ****     /* Set the SMARTCARD DMA transfer complete callback */
1223:Drivers/STM32L4xx_HAL_Driver/Src/stm32l4xx_hal_smartcard.c ****     hsmartcard->hdmatx->XferCpltCallback = SMARTCARD_DMATransmitCplt;
 1237              		.loc 1 1223 15
 1238 00d0 FB68     		ldr	r3, [r7, #12]
 1239 00d2 9B6E     		ldr	r3, [r3, #104]
 1240              		.loc 1 1223 42
 1241 00d4 234A     		ldr	r2, .L60
 1242 00d6 DA62     		str	r2, [r3, #44]
ARM GAS  /tmp/ccDAjxq4.s 			page 44


1224:Drivers/STM32L4xx_HAL_Driver/Src/stm32l4xx_hal_smartcard.c **** 
1225:Drivers/STM32L4xx_HAL_Driver/Src/stm32l4xx_hal_smartcard.c ****     /* Set the SMARTCARD error callback */
1226:Drivers/STM32L4xx_HAL_Driver/Src/stm32l4xx_hal_smartcard.c ****     hsmartcard->hdmatx->XferErrorCallback = SMARTCARD_DMAError;
 1243              		.loc 1 1226 15
 1244 00d8 FB68     		ldr	r3, [r7, #12]
 1245 00da 9B6E     		ldr	r3, [r3, #104]
 1246              		.loc 1 1226 43
 1247 00dc 224A     		ldr	r2, .L60+4
 1248 00de 5A63     		str	r2, [r3, #52]
1227:Drivers/STM32L4xx_HAL_Driver/Src/stm32l4xx_hal_smartcard.c **** 
1228:Drivers/STM32L4xx_HAL_Driver/Src/stm32l4xx_hal_smartcard.c ****     /* Set the DMA abort callback */
1229:Drivers/STM32L4xx_HAL_Driver/Src/stm32l4xx_hal_smartcard.c ****     hsmartcard->hdmatx->XferAbortCallback = NULL;
 1249              		.loc 1 1229 15
 1250 00e0 FB68     		ldr	r3, [r7, #12]
 1251 00e2 9B6E     		ldr	r3, [r3, #104]
 1252              		.loc 1 1229 43
 1253 00e4 0022     		movs	r2, #0
 1254 00e6 9A63     		str	r2, [r3, #56]
1230:Drivers/STM32L4xx_HAL_Driver/Src/stm32l4xx_hal_smartcard.c **** 
1231:Drivers/STM32L4xx_HAL_Driver/Src/stm32l4xx_hal_smartcard.c ****     /* Enable the SMARTCARD transmit DMA channel */
1232:Drivers/STM32L4xx_HAL_Driver/Src/stm32l4xx_hal_smartcard.c ****     if (HAL_DMA_Start_IT(hsmartcard->hdmatx, (uint32_t)hsmartcard->pTxBuffPtr, (uint32_t)&hsmartcar
 1255              		.loc 1 1232 9
 1256 00e8 FB68     		ldr	r3, [r7, #12]
 1257 00ea 986E     		ldr	r0, [r3, #104]
 1258              		.loc 1 1232 66
 1259 00ec FB68     		ldr	r3, [r7, #12]
 1260 00ee 1B6D     		ldr	r3, [r3, #80]
 1261              		.loc 1 1232 9
 1262 00f0 1946     		mov	r1, r3
 1263              		.loc 1 1232 101
 1264 00f2 FB68     		ldr	r3, [r7, #12]
 1265 00f4 1B68     		ldr	r3, [r3]
 1266              		.loc 1 1232 90
 1267 00f6 2833     		adds	r3, r3, #40
 1268              		.loc 1 1232 9
 1269 00f8 1A46     		mov	r2, r3
 1270 00fa FB88     		ldrh	r3, [r7, #6]
 1271 00fc FFF7FEFF 		bl	HAL_DMA_Start_IT
 1272 0100 0346     		mov	r3, r0
 1273              		.loc 1 1232 8 discriminator 1
 1274 0102 002B     		cmp	r3, #0
 1275 0104 1DD1     		bne	.L59
1233:Drivers/STM32L4xx_HAL_Driver/Src/stm32l4xx_hal_smartcard.c ****                          Size) == HAL_OK)
1234:Drivers/STM32L4xx_HAL_Driver/Src/stm32l4xx_hal_smartcard.c ****     {
1235:Drivers/STM32L4xx_HAL_Driver/Src/stm32l4xx_hal_smartcard.c ****       /* Clear the TC flag in the ICR register */
1236:Drivers/STM32L4xx_HAL_Driver/Src/stm32l4xx_hal_smartcard.c ****       CLEAR_BIT(hsmartcard->Instance->ICR, USART_ICR_TCCF);
 1276              		.loc 1 1236 7
 1277 0106 FB68     		ldr	r3, [r7, #12]
 1278 0108 1B68     		ldr	r3, [r3]
 1279 010a 1A6A     		ldr	r2, [r3, #32]
 1280 010c FB68     		ldr	r3, [r7, #12]
 1281 010e 1B68     		ldr	r3, [r3]
 1282 0110 22F04002 		bic	r2, r2, #64
 1283 0114 1A62     		str	r2, [r3, #32]
1237:Drivers/STM32L4xx_HAL_Driver/Src/stm32l4xx_hal_smartcard.c **** 
1238:Drivers/STM32L4xx_HAL_Driver/Src/stm32l4xx_hal_smartcard.c ****       /* Process Unlocked */
1239:Drivers/STM32L4xx_HAL_Driver/Src/stm32l4xx_hal_smartcard.c ****       __HAL_UNLOCK(hsmartcard);
ARM GAS  /tmp/ccDAjxq4.s 			page 45


 1284              		.loc 1 1239 7
 1285 0116 FB68     		ldr	r3, [r7, #12]
 1286 0118 0022     		movs	r2, #0
 1287 011a 83F87020 		strb	r2, [r3, #112]
1240:Drivers/STM32L4xx_HAL_Driver/Src/stm32l4xx_hal_smartcard.c **** 
1241:Drivers/STM32L4xx_HAL_Driver/Src/stm32l4xx_hal_smartcard.c ****       /* Enable the UART Error Interrupt: (Frame error) */
1242:Drivers/STM32L4xx_HAL_Driver/Src/stm32l4xx_hal_smartcard.c ****       SET_BIT(hsmartcard->Instance->CR3, USART_CR3_EIE);
 1288              		.loc 1 1242 7
 1289 011e FB68     		ldr	r3, [r7, #12]
 1290 0120 1B68     		ldr	r3, [r3]
 1291 0122 9A68     		ldr	r2, [r3, #8]
 1292 0124 FB68     		ldr	r3, [r7, #12]
 1293 0126 1B68     		ldr	r3, [r3]
 1294 0128 42F00102 		orr	r2, r2, #1
 1295 012c 9A60     		str	r2, [r3, #8]
1243:Drivers/STM32L4xx_HAL_Driver/Src/stm32l4xx_hal_smartcard.c **** 
1244:Drivers/STM32L4xx_HAL_Driver/Src/stm32l4xx_hal_smartcard.c ****       /* Enable the DMA transfer for transmit request by setting the DMAT bit
1245:Drivers/STM32L4xx_HAL_Driver/Src/stm32l4xx_hal_smartcard.c ****          in the SMARTCARD associated USART CR3 register */
1246:Drivers/STM32L4xx_HAL_Driver/Src/stm32l4xx_hal_smartcard.c ****       SET_BIT(hsmartcard->Instance->CR3, USART_CR3_DMAT);
 1296              		.loc 1 1246 7
 1297 012e FB68     		ldr	r3, [r7, #12]
 1298 0130 1B68     		ldr	r3, [r3]
 1299 0132 9A68     		ldr	r2, [r3, #8]
 1300 0134 FB68     		ldr	r3, [r7, #12]
 1301 0136 1B68     		ldr	r3, [r3]
 1302 0138 42F08002 		orr	r2, r2, #128
 1303 013c 9A60     		str	r2, [r3, #8]
1247:Drivers/STM32L4xx_HAL_Driver/Src/stm32l4xx_hal_smartcard.c **** 
1248:Drivers/STM32L4xx_HAL_Driver/Src/stm32l4xx_hal_smartcard.c ****       return HAL_OK;
 1304              		.loc 1 1248 14
 1305 013e 0023     		movs	r3, #0
 1306 0140 0CE0     		b	.L56
 1307              	.L59:
1249:Drivers/STM32L4xx_HAL_Driver/Src/stm32l4xx_hal_smartcard.c ****     }
1250:Drivers/STM32L4xx_HAL_Driver/Src/stm32l4xx_hal_smartcard.c ****     else
1251:Drivers/STM32L4xx_HAL_Driver/Src/stm32l4xx_hal_smartcard.c ****     {
1252:Drivers/STM32L4xx_HAL_Driver/Src/stm32l4xx_hal_smartcard.c ****       /* Set error code to DMA */
1253:Drivers/STM32L4xx_HAL_Driver/Src/stm32l4xx_hal_smartcard.c ****       hsmartcard->ErrorCode = HAL_SMARTCARD_ERROR_DMA;
 1308              		.loc 1 1253 29
 1309 0142 FB68     		ldr	r3, [r7, #12]
 1310 0144 1022     		movs	r2, #16
 1311 0146 DA67     		str	r2, [r3, #124]
1254:Drivers/STM32L4xx_HAL_Driver/Src/stm32l4xx_hal_smartcard.c **** 
1255:Drivers/STM32L4xx_HAL_Driver/Src/stm32l4xx_hal_smartcard.c ****       /* Process Unlocked */
1256:Drivers/STM32L4xx_HAL_Driver/Src/stm32l4xx_hal_smartcard.c ****       __HAL_UNLOCK(hsmartcard);
 1312              		.loc 1 1256 7
 1313 0148 FB68     		ldr	r3, [r7, #12]
 1314 014a 0022     		movs	r2, #0
 1315 014c 83F87020 		strb	r2, [r3, #112]
1257:Drivers/STM32L4xx_HAL_Driver/Src/stm32l4xx_hal_smartcard.c **** 
1258:Drivers/STM32L4xx_HAL_Driver/Src/stm32l4xx_hal_smartcard.c ****       /* Restore hsmartcard->State to ready */
1259:Drivers/STM32L4xx_HAL_Driver/Src/stm32l4xx_hal_smartcard.c ****       hsmartcard->gState = HAL_SMARTCARD_STATE_READY;
 1316              		.loc 1 1259 26
 1317 0150 FB68     		ldr	r3, [r7, #12]
 1318 0152 2022     		movs	r2, #32
 1319 0154 5A67     		str	r2, [r3, #116]
1260:Drivers/STM32L4xx_HAL_Driver/Src/stm32l4xx_hal_smartcard.c **** 
ARM GAS  /tmp/ccDAjxq4.s 			page 46


1261:Drivers/STM32L4xx_HAL_Driver/Src/stm32l4xx_hal_smartcard.c ****       return HAL_ERROR;
 1320              		.loc 1 1261 14
 1321 0156 0123     		movs	r3, #1
 1322 0158 00E0     		b	.L56
 1323              	.L53:
1262:Drivers/STM32L4xx_HAL_Driver/Src/stm32l4xx_hal_smartcard.c ****     }
1263:Drivers/STM32L4xx_HAL_Driver/Src/stm32l4xx_hal_smartcard.c ****   }
1264:Drivers/STM32L4xx_HAL_Driver/Src/stm32l4xx_hal_smartcard.c ****   else
1265:Drivers/STM32L4xx_HAL_Driver/Src/stm32l4xx_hal_smartcard.c ****   {
1266:Drivers/STM32L4xx_HAL_Driver/Src/stm32l4xx_hal_smartcard.c ****     return HAL_BUSY;
 1324              		.loc 1 1266 12
 1325 015a 0223     		movs	r3, #2
 1326              	.L56:
1267:Drivers/STM32L4xx_HAL_Driver/Src/stm32l4xx_hal_smartcard.c ****   }
1268:Drivers/STM32L4xx_HAL_Driver/Src/stm32l4xx_hal_smartcard.c **** }
 1327              		.loc 1 1268 1
 1328 015c 1846     		mov	r0, r3
 1329 015e 1037     		adds	r7, r7, #16
 1330              		.cfi_def_cfa_offset 8
 1331 0160 BD46     		mov	sp, r7
 1332              		.cfi_def_cfa_register 13
 1333              		@ sp needed
 1334 0162 80BD     		pop	{r7, pc}
 1335              	.L61:
 1336              		.align	2
 1337              	.L60:
 1338 0164 00000000 		.word	SMARTCARD_DMATransmitCplt
 1339 0168 00000000 		.word	SMARTCARD_DMAError
 1340              		.cfi_endproc
 1341              	.LFE453:
 1343              		.section	.text.HAL_SMARTCARD_Receive_DMA,"ax",%progbits
 1344              		.align	1
 1345              		.global	HAL_SMARTCARD_Receive_DMA
 1346              		.syntax unified
 1347              		.thumb
 1348              		.thumb_func
 1350              	HAL_SMARTCARD_Receive_DMA:
 1351              	.LFB454:
1269:Drivers/STM32L4xx_HAL_Driver/Src/stm32l4xx_hal_smartcard.c **** 
1270:Drivers/STM32L4xx_HAL_Driver/Src/stm32l4xx_hal_smartcard.c **** /**
1271:Drivers/STM32L4xx_HAL_Driver/Src/stm32l4xx_hal_smartcard.c ****   * @brief  Receive an amount of data in DMA mode.
1272:Drivers/STM32L4xx_HAL_Driver/Src/stm32l4xx_hal_smartcard.c ****   * @param  hsmartcard Pointer to a SMARTCARD_HandleTypeDef structure that contains
1273:Drivers/STM32L4xx_HAL_Driver/Src/stm32l4xx_hal_smartcard.c ****   *                    the configuration information for the specified SMARTCARD module.
1274:Drivers/STM32L4xx_HAL_Driver/Src/stm32l4xx_hal_smartcard.c ****   * @param  pData pointer to data buffer.
1275:Drivers/STM32L4xx_HAL_Driver/Src/stm32l4xx_hal_smartcard.c ****   * @param  Size amount of data to be received.
1276:Drivers/STM32L4xx_HAL_Driver/Src/stm32l4xx_hal_smartcard.c ****   * @note   The SMARTCARD-associated USART parity is enabled (PCE = 1),
1277:Drivers/STM32L4xx_HAL_Driver/Src/stm32l4xx_hal_smartcard.c ****   *         the received data contain the parity bit (MSB position).
1278:Drivers/STM32L4xx_HAL_Driver/Src/stm32l4xx_hal_smartcard.c ****   * @retval HAL status
1279:Drivers/STM32L4xx_HAL_Driver/Src/stm32l4xx_hal_smartcard.c ****   */
1280:Drivers/STM32L4xx_HAL_Driver/Src/stm32l4xx_hal_smartcard.c **** HAL_StatusTypeDef HAL_SMARTCARD_Receive_DMA(SMARTCARD_HandleTypeDef *hsmartcard, uint8_t *pData, ui
1281:Drivers/STM32L4xx_HAL_Driver/Src/stm32l4xx_hal_smartcard.c **** {
 1352              		.loc 1 1281 1
 1353              		.cfi_startproc
 1354              		@ args = 0, pretend = 0, frame = 16
 1355              		@ frame_needed = 1, uses_anonymous_args = 0
 1356 0000 80B5     		push	{r7, lr}
 1357              		.cfi_def_cfa_offset 8
ARM GAS  /tmp/ccDAjxq4.s 			page 47


 1358              		.cfi_offset 7, -8
 1359              		.cfi_offset 14, -4
 1360 0002 84B0     		sub	sp, sp, #16
 1361              		.cfi_def_cfa_offset 24
 1362 0004 00AF     		add	r7, sp, #0
 1363              		.cfi_def_cfa_register 7
 1364 0006 F860     		str	r0, [r7, #12]
 1365 0008 B960     		str	r1, [r7, #8]
 1366 000a 1346     		mov	r3, r2
 1367 000c FB80     		strh	r3, [r7, #6]	@ movhi
1282:Drivers/STM32L4xx_HAL_Driver/Src/stm32l4xx_hal_smartcard.c ****   /* Check that a Rx process is not already ongoing */
1283:Drivers/STM32L4xx_HAL_Driver/Src/stm32l4xx_hal_smartcard.c ****   if (hsmartcard->RxState == HAL_SMARTCARD_STATE_READY)
 1368              		.loc 1 1283 17
 1369 000e FB68     		ldr	r3, [r7, #12]
 1370 0010 9B6F     		ldr	r3, [r3, #120]
 1371              		.loc 1 1283 6
 1372 0012 202B     		cmp	r3, #32
 1373 0014 64D1     		bne	.L63
1284:Drivers/STM32L4xx_HAL_Driver/Src/stm32l4xx_hal_smartcard.c ****   {
1285:Drivers/STM32L4xx_HAL_Driver/Src/stm32l4xx_hal_smartcard.c ****     if ((pData == NULL) || (Size == 0U))
 1374              		.loc 1 1285 8
 1375 0016 BB68     		ldr	r3, [r7, #8]
 1376 0018 002B     		cmp	r3, #0
 1377 001a 02D0     		beq	.L64
 1378              		.loc 1 1285 25 discriminator 1
 1379 001c FB88     		ldrh	r3, [r7, #6]
 1380 001e 002B     		cmp	r3, #0
 1381 0020 01D1     		bne	.L65
 1382              	.L64:
1286:Drivers/STM32L4xx_HAL_Driver/Src/stm32l4xx_hal_smartcard.c ****     {
1287:Drivers/STM32L4xx_HAL_Driver/Src/stm32l4xx_hal_smartcard.c ****       return HAL_ERROR;
 1383              		.loc 1 1287 14
 1384 0022 0123     		movs	r3, #1
 1385 0024 5DE0     		b	.L66
 1386              	.L65:
1288:Drivers/STM32L4xx_HAL_Driver/Src/stm32l4xx_hal_smartcard.c ****     }
1289:Drivers/STM32L4xx_HAL_Driver/Src/stm32l4xx_hal_smartcard.c **** 
1290:Drivers/STM32L4xx_HAL_Driver/Src/stm32l4xx_hal_smartcard.c ****     /* Process Locked */
1291:Drivers/STM32L4xx_HAL_Driver/Src/stm32l4xx_hal_smartcard.c ****     __HAL_LOCK(hsmartcard);
 1387              		.loc 1 1291 5
 1388 0026 FB68     		ldr	r3, [r7, #12]
 1389 0028 93F87030 		ldrb	r3, [r3, #112]	@ zero_extendqisi2
 1390 002c 012B     		cmp	r3, #1
 1391 002e 01D1     		bne	.L67
 1392              		.loc 1 1291 5 is_stmt 0 discriminator 1
 1393 0030 0223     		movs	r3, #2
 1394              		.loc 1 1291 5
 1395 0032 56E0     		b	.L66
 1396              	.L67:
 1397              		.loc 1 1291 5 discriminator 2
 1398 0034 FB68     		ldr	r3, [r7, #12]
 1399 0036 0122     		movs	r2, #1
 1400 0038 83F87020 		strb	r2, [r3, #112]
1292:Drivers/STM32L4xx_HAL_Driver/Src/stm32l4xx_hal_smartcard.c **** 
1293:Drivers/STM32L4xx_HAL_Driver/Src/stm32l4xx_hal_smartcard.c ****     hsmartcard->ErrorCode = HAL_SMARTCARD_ERROR_NONE;
 1401              		.loc 1 1293 27 is_stmt 1
 1402 003c FB68     		ldr	r3, [r7, #12]
ARM GAS  /tmp/ccDAjxq4.s 			page 48


 1403 003e 0022     		movs	r2, #0
 1404 0040 DA67     		str	r2, [r3, #124]
1294:Drivers/STM32L4xx_HAL_Driver/Src/stm32l4xx_hal_smartcard.c ****     hsmartcard->RxState   = HAL_SMARTCARD_STATE_BUSY_RX;
 1405              		.loc 1 1294 27
 1406 0042 FB68     		ldr	r3, [r7, #12]
 1407 0044 2222     		movs	r2, #34
 1408 0046 9A67     		str	r2, [r3, #120]
1295:Drivers/STM32L4xx_HAL_Driver/Src/stm32l4xx_hal_smartcard.c **** 
1296:Drivers/STM32L4xx_HAL_Driver/Src/stm32l4xx_hal_smartcard.c ****     hsmartcard->pRxBuffPtr = pData;
 1409              		.loc 1 1296 28
 1410 0048 FB68     		ldr	r3, [r7, #12]
 1411 004a BA68     		ldr	r2, [r7, #8]
 1412 004c 9A65     		str	r2, [r3, #88]
1297:Drivers/STM32L4xx_HAL_Driver/Src/stm32l4xx_hal_smartcard.c ****     hsmartcard->RxXferSize = Size;
 1413              		.loc 1 1297 28
 1414 004e FB68     		ldr	r3, [r7, #12]
 1415 0050 FA88     		ldrh	r2, [r7, #6]	@ movhi
 1416 0052 A3F85C20 		strh	r2, [r3, #92]	@ movhi
1298:Drivers/STM32L4xx_HAL_Driver/Src/stm32l4xx_hal_smartcard.c **** 
1299:Drivers/STM32L4xx_HAL_Driver/Src/stm32l4xx_hal_smartcard.c ****     /* Set the SMARTCARD DMA transfer complete callback */
1300:Drivers/STM32L4xx_HAL_Driver/Src/stm32l4xx_hal_smartcard.c ****     hsmartcard->hdmarx->XferCpltCallback = SMARTCARD_DMAReceiveCplt;
 1417              		.loc 1 1300 15
 1418 0056 FB68     		ldr	r3, [r7, #12]
 1419 0058 DB6E     		ldr	r3, [r3, #108]
 1420              		.loc 1 1300 42
 1421 005a 244A     		ldr	r2, .L69
 1422 005c DA62     		str	r2, [r3, #44]
1301:Drivers/STM32L4xx_HAL_Driver/Src/stm32l4xx_hal_smartcard.c **** 
1302:Drivers/STM32L4xx_HAL_Driver/Src/stm32l4xx_hal_smartcard.c ****     /* Set the SMARTCARD DMA error callback */
1303:Drivers/STM32L4xx_HAL_Driver/Src/stm32l4xx_hal_smartcard.c ****     hsmartcard->hdmarx->XferErrorCallback = SMARTCARD_DMAError;
 1423              		.loc 1 1303 15
 1424 005e FB68     		ldr	r3, [r7, #12]
 1425 0060 DB6E     		ldr	r3, [r3, #108]
 1426              		.loc 1 1303 43
 1427 0062 234A     		ldr	r2, .L69+4
 1428 0064 5A63     		str	r2, [r3, #52]
1304:Drivers/STM32L4xx_HAL_Driver/Src/stm32l4xx_hal_smartcard.c **** 
1305:Drivers/STM32L4xx_HAL_Driver/Src/stm32l4xx_hal_smartcard.c ****     /* Set the DMA abort callback */
1306:Drivers/STM32L4xx_HAL_Driver/Src/stm32l4xx_hal_smartcard.c ****     hsmartcard->hdmarx->XferAbortCallback = NULL;
 1429              		.loc 1 1306 15
 1430 0066 FB68     		ldr	r3, [r7, #12]
 1431 0068 DB6E     		ldr	r3, [r3, #108]
 1432              		.loc 1 1306 43
 1433 006a 0022     		movs	r2, #0
 1434 006c 9A63     		str	r2, [r3, #56]
1307:Drivers/STM32L4xx_HAL_Driver/Src/stm32l4xx_hal_smartcard.c **** 
1308:Drivers/STM32L4xx_HAL_Driver/Src/stm32l4xx_hal_smartcard.c ****     /* Enable the DMA channel */
1309:Drivers/STM32L4xx_HAL_Driver/Src/stm32l4xx_hal_smartcard.c ****     if (HAL_DMA_Start_IT(hsmartcard->hdmarx, (uint32_t)&hsmartcard->Instance->RDR, (uint32_t)hsmart
 1435              		.loc 1 1309 9
 1436 006e FB68     		ldr	r3, [r7, #12]
 1437 0070 D86E     		ldr	r0, [r3, #108]
 1438              		.loc 1 1309 67
 1439 0072 FB68     		ldr	r3, [r7, #12]
 1440 0074 1B68     		ldr	r3, [r3]
 1441              		.loc 1 1309 56
 1442 0076 2433     		adds	r3, r3, #36
 1443              		.loc 1 1309 9
ARM GAS  /tmp/ccDAjxq4.s 			page 49


 1444 0078 1946     		mov	r1, r3
 1445              		.loc 1 1309 104
 1446 007a FB68     		ldr	r3, [r7, #12]
 1447 007c 9B6D     		ldr	r3, [r3, #88]
 1448              		.loc 1 1309 9
 1449 007e 1A46     		mov	r2, r3
 1450 0080 FB88     		ldrh	r3, [r7, #6]
 1451 0082 FFF7FEFF 		bl	HAL_DMA_Start_IT
 1452 0086 0346     		mov	r3, r0
 1453              		.loc 1 1309 8 discriminator 1
 1454 0088 002B     		cmp	r3, #0
 1455 008a 1DD1     		bne	.L68
1310:Drivers/STM32L4xx_HAL_Driver/Src/stm32l4xx_hal_smartcard.c ****                          Size) == HAL_OK)
1311:Drivers/STM32L4xx_HAL_Driver/Src/stm32l4xx_hal_smartcard.c ****     {
1312:Drivers/STM32L4xx_HAL_Driver/Src/stm32l4xx_hal_smartcard.c ****       /* Process Unlocked */
1313:Drivers/STM32L4xx_HAL_Driver/Src/stm32l4xx_hal_smartcard.c ****       __HAL_UNLOCK(hsmartcard);
 1456              		.loc 1 1313 7
 1457 008c FB68     		ldr	r3, [r7, #12]
 1458 008e 0022     		movs	r2, #0
 1459 0090 83F87020 		strb	r2, [r3, #112]
1314:Drivers/STM32L4xx_HAL_Driver/Src/stm32l4xx_hal_smartcard.c **** 
1315:Drivers/STM32L4xx_HAL_Driver/Src/stm32l4xx_hal_smartcard.c ****       /* Enable the SMARTCARD Parity Error Interrupt */
1316:Drivers/STM32L4xx_HAL_Driver/Src/stm32l4xx_hal_smartcard.c ****       SET_BIT(hsmartcard->Instance->CR1, USART_CR1_PEIE);
 1460              		.loc 1 1316 7
 1461 0094 FB68     		ldr	r3, [r7, #12]
 1462 0096 1B68     		ldr	r3, [r3]
 1463 0098 1A68     		ldr	r2, [r3]
 1464 009a FB68     		ldr	r3, [r7, #12]
 1465 009c 1B68     		ldr	r3, [r3]
 1466 009e 42F48072 		orr	r2, r2, #256
 1467 00a2 1A60     		str	r2, [r3]
1317:Drivers/STM32L4xx_HAL_Driver/Src/stm32l4xx_hal_smartcard.c **** 
1318:Drivers/STM32L4xx_HAL_Driver/Src/stm32l4xx_hal_smartcard.c ****       /* Enable the SMARTCARD Error Interrupt: (Frame error, noise error, overrun error) */
1319:Drivers/STM32L4xx_HAL_Driver/Src/stm32l4xx_hal_smartcard.c ****       SET_BIT(hsmartcard->Instance->CR3, USART_CR3_EIE);
 1468              		.loc 1 1319 7
 1469 00a4 FB68     		ldr	r3, [r7, #12]
 1470 00a6 1B68     		ldr	r3, [r3]
 1471 00a8 9A68     		ldr	r2, [r3, #8]
 1472 00aa FB68     		ldr	r3, [r7, #12]
 1473 00ac 1B68     		ldr	r3, [r3]
 1474 00ae 42F00102 		orr	r2, r2, #1
 1475 00b2 9A60     		str	r2, [r3, #8]
1320:Drivers/STM32L4xx_HAL_Driver/Src/stm32l4xx_hal_smartcard.c **** 
1321:Drivers/STM32L4xx_HAL_Driver/Src/stm32l4xx_hal_smartcard.c ****       /* Enable the DMA transfer for the receiver request by setting the DMAR bit
1322:Drivers/STM32L4xx_HAL_Driver/Src/stm32l4xx_hal_smartcard.c ****          in the SMARTCARD associated USART CR3 register */
1323:Drivers/STM32L4xx_HAL_Driver/Src/stm32l4xx_hal_smartcard.c ****       SET_BIT(hsmartcard->Instance->CR3, USART_CR3_DMAR);
 1476              		.loc 1 1323 7
 1477 00b4 FB68     		ldr	r3, [r7, #12]
 1478 00b6 1B68     		ldr	r3, [r3]
 1479 00b8 9A68     		ldr	r2, [r3, #8]
 1480 00ba FB68     		ldr	r3, [r7, #12]
 1481 00bc 1B68     		ldr	r3, [r3]
 1482 00be 42F04002 		orr	r2, r2, #64
 1483 00c2 9A60     		str	r2, [r3, #8]
1324:Drivers/STM32L4xx_HAL_Driver/Src/stm32l4xx_hal_smartcard.c **** 
1325:Drivers/STM32L4xx_HAL_Driver/Src/stm32l4xx_hal_smartcard.c ****       return HAL_OK;
 1484              		.loc 1 1325 14
ARM GAS  /tmp/ccDAjxq4.s 			page 50


 1485 00c4 0023     		movs	r3, #0
 1486 00c6 0CE0     		b	.L66
 1487              	.L68:
1326:Drivers/STM32L4xx_HAL_Driver/Src/stm32l4xx_hal_smartcard.c ****     }
1327:Drivers/STM32L4xx_HAL_Driver/Src/stm32l4xx_hal_smartcard.c ****     else
1328:Drivers/STM32L4xx_HAL_Driver/Src/stm32l4xx_hal_smartcard.c ****     {
1329:Drivers/STM32L4xx_HAL_Driver/Src/stm32l4xx_hal_smartcard.c ****       /* Set error code to DMA */
1330:Drivers/STM32L4xx_HAL_Driver/Src/stm32l4xx_hal_smartcard.c ****       hsmartcard->ErrorCode = HAL_SMARTCARD_ERROR_DMA;
 1488              		.loc 1 1330 29
 1489 00c8 FB68     		ldr	r3, [r7, #12]
 1490 00ca 1022     		movs	r2, #16
 1491 00cc DA67     		str	r2, [r3, #124]
1331:Drivers/STM32L4xx_HAL_Driver/Src/stm32l4xx_hal_smartcard.c **** 
1332:Drivers/STM32L4xx_HAL_Driver/Src/stm32l4xx_hal_smartcard.c ****       /* Process Unlocked */
1333:Drivers/STM32L4xx_HAL_Driver/Src/stm32l4xx_hal_smartcard.c ****       __HAL_UNLOCK(hsmartcard);
 1492              		.loc 1 1333 7
 1493 00ce FB68     		ldr	r3, [r7, #12]
 1494 00d0 0022     		movs	r2, #0
 1495 00d2 83F87020 		strb	r2, [r3, #112]
1334:Drivers/STM32L4xx_HAL_Driver/Src/stm32l4xx_hal_smartcard.c **** 
1335:Drivers/STM32L4xx_HAL_Driver/Src/stm32l4xx_hal_smartcard.c ****       /* Restore hsmartcard->State to ready */
1336:Drivers/STM32L4xx_HAL_Driver/Src/stm32l4xx_hal_smartcard.c ****       hsmartcard->RxState = HAL_SMARTCARD_STATE_READY;
 1496              		.loc 1 1336 27
 1497 00d6 FB68     		ldr	r3, [r7, #12]
 1498 00d8 2022     		movs	r2, #32
 1499 00da 9A67     		str	r2, [r3, #120]
1337:Drivers/STM32L4xx_HAL_Driver/Src/stm32l4xx_hal_smartcard.c **** 
1338:Drivers/STM32L4xx_HAL_Driver/Src/stm32l4xx_hal_smartcard.c ****       return HAL_ERROR;
 1500              		.loc 1 1338 14
 1501 00dc 0123     		movs	r3, #1
 1502 00de 00E0     		b	.L66
 1503              	.L63:
1339:Drivers/STM32L4xx_HAL_Driver/Src/stm32l4xx_hal_smartcard.c ****     }
1340:Drivers/STM32L4xx_HAL_Driver/Src/stm32l4xx_hal_smartcard.c ****   }
1341:Drivers/STM32L4xx_HAL_Driver/Src/stm32l4xx_hal_smartcard.c ****   else
1342:Drivers/STM32L4xx_HAL_Driver/Src/stm32l4xx_hal_smartcard.c ****   {
1343:Drivers/STM32L4xx_HAL_Driver/Src/stm32l4xx_hal_smartcard.c ****     return HAL_BUSY;
 1504              		.loc 1 1343 12
 1505 00e0 0223     		movs	r3, #2
 1506              	.L66:
1344:Drivers/STM32L4xx_HAL_Driver/Src/stm32l4xx_hal_smartcard.c ****   }
1345:Drivers/STM32L4xx_HAL_Driver/Src/stm32l4xx_hal_smartcard.c **** }
 1507              		.loc 1 1345 1
 1508 00e2 1846     		mov	r0, r3
 1509 00e4 1037     		adds	r7, r7, #16
 1510              		.cfi_def_cfa_offset 8
 1511 00e6 BD46     		mov	sp, r7
 1512              		.cfi_def_cfa_register 13
 1513              		@ sp needed
 1514 00e8 80BD     		pop	{r7, pc}
 1515              	.L70:
 1516 00ea 00BF     		.align	2
 1517              	.L69:
 1518 00ec 00000000 		.word	SMARTCARD_DMAReceiveCplt
 1519 00f0 00000000 		.word	SMARTCARD_DMAError
 1520              		.cfi_endproc
 1521              	.LFE454:
ARM GAS  /tmp/ccDAjxq4.s 			page 51


 1523              		.section	.text.HAL_SMARTCARD_Abort,"ax",%progbits
 1524              		.align	1
 1525              		.global	HAL_SMARTCARD_Abort
 1526              		.syntax unified
 1527              		.thumb
 1528              		.thumb_func
 1530              	HAL_SMARTCARD_Abort:
 1531              	.LFB455:
1346:Drivers/STM32L4xx_HAL_Driver/Src/stm32l4xx_hal_smartcard.c **** 
1347:Drivers/STM32L4xx_HAL_Driver/Src/stm32l4xx_hal_smartcard.c **** /**
1348:Drivers/STM32L4xx_HAL_Driver/Src/stm32l4xx_hal_smartcard.c ****   * @brief  Abort ongoing transfers (blocking mode).
1349:Drivers/STM32L4xx_HAL_Driver/Src/stm32l4xx_hal_smartcard.c ****   * @param  hsmartcard Pointer to a SMARTCARD_HandleTypeDef structure that contains
1350:Drivers/STM32L4xx_HAL_Driver/Src/stm32l4xx_hal_smartcard.c ****   *                    the configuration information for the specified SMARTCARD module.
1351:Drivers/STM32L4xx_HAL_Driver/Src/stm32l4xx_hal_smartcard.c ****   * @note   This procedure could be used for aborting any ongoing transfer started in Interrupt or 
1352:Drivers/STM32L4xx_HAL_Driver/Src/stm32l4xx_hal_smartcard.c ****   *         This procedure performs following operations :
1353:Drivers/STM32L4xx_HAL_Driver/Src/stm32l4xx_hal_smartcard.c ****   *           - Disable SMARTCARD Interrupts (Tx and Rx)
1354:Drivers/STM32L4xx_HAL_Driver/Src/stm32l4xx_hal_smartcard.c ****   *           - Disable the DMA transfer in the peripheral register (if enabled)
1355:Drivers/STM32L4xx_HAL_Driver/Src/stm32l4xx_hal_smartcard.c ****   *           - Abort DMA transfer by calling HAL_DMA_Abort (in case of transfer in DMA mode)
1356:Drivers/STM32L4xx_HAL_Driver/Src/stm32l4xx_hal_smartcard.c ****   *           - Set handle State to READY
1357:Drivers/STM32L4xx_HAL_Driver/Src/stm32l4xx_hal_smartcard.c ****   * @note   This procedure is executed in blocking mode : when exiting function, Abort is considere
1358:Drivers/STM32L4xx_HAL_Driver/Src/stm32l4xx_hal_smartcard.c ****   * @retval HAL status
1359:Drivers/STM32L4xx_HAL_Driver/Src/stm32l4xx_hal_smartcard.c ****   */
1360:Drivers/STM32L4xx_HAL_Driver/Src/stm32l4xx_hal_smartcard.c **** HAL_StatusTypeDef HAL_SMARTCARD_Abort(SMARTCARD_HandleTypeDef *hsmartcard)
1361:Drivers/STM32L4xx_HAL_Driver/Src/stm32l4xx_hal_smartcard.c **** {
 1532              		.loc 1 1361 1
 1533              		.cfi_startproc
 1534              		@ args = 0, pretend = 0, frame = 8
 1535              		@ frame_needed = 1, uses_anonymous_args = 0
 1536 0000 80B5     		push	{r7, lr}
 1537              		.cfi_def_cfa_offset 8
 1538              		.cfi_offset 7, -8
 1539              		.cfi_offset 14, -4
 1540 0002 82B0     		sub	sp, sp, #8
 1541              		.cfi_def_cfa_offset 16
 1542 0004 00AF     		add	r7, sp, #0
 1543              		.cfi_def_cfa_register 7
 1544 0006 7860     		str	r0, [r7, #4]
1362:Drivers/STM32L4xx_HAL_Driver/Src/stm32l4xx_hal_smartcard.c **** #if defined(USART_CR1_FIFOEN)
1363:Drivers/STM32L4xx_HAL_Driver/Src/stm32l4xx_hal_smartcard.c ****   /* Disable RTOIE, EOBIE, TXEIE, TCIE, RXNE, PE, RXFT, TXFT and
1364:Drivers/STM32L4xx_HAL_Driver/Src/stm32l4xx_hal_smartcard.c ****      ERR (Frame error, noise error, overrun error) interrupts */
1365:Drivers/STM32L4xx_HAL_Driver/Src/stm32l4xx_hal_smartcard.c ****   CLEAR_BIT(hsmartcard->Instance->CR1,
1366:Drivers/STM32L4xx_HAL_Driver/Src/stm32l4xx_hal_smartcard.c ****             (USART_CR1_RXNEIE_RXFNEIE | USART_CR1_PEIE | USART_CR1_TXEIE_TXFNFIE | USART_CR1_TCIE |
1367:Drivers/STM32L4xx_HAL_Driver/Src/stm32l4xx_hal_smartcard.c ****              USART_CR1_EOBIE));
1368:Drivers/STM32L4xx_HAL_Driver/Src/stm32l4xx_hal_smartcard.c ****   CLEAR_BIT(hsmartcard->Instance->CR3, (USART_CR3_EIE | USART_CR3_RXFTIE | USART_CR3_TXFTIE));
1369:Drivers/STM32L4xx_HAL_Driver/Src/stm32l4xx_hal_smartcard.c **** #else
1370:Drivers/STM32L4xx_HAL_Driver/Src/stm32l4xx_hal_smartcard.c ****   /* Disable RTOIE, EOBIE, TXEIE, TCIE, RXNE, PE and ERR (Frame error, noise error, overrun error) 
1371:Drivers/STM32L4xx_HAL_Driver/Src/stm32l4xx_hal_smartcard.c ****   CLEAR_BIT(hsmartcard->Instance->CR1,
 1545              		.loc 1 1371 3
 1546 0008 7B68     		ldr	r3, [r7, #4]
 1547 000a 1B68     		ldr	r3, [r3]
 1548 000c 1B68     		ldr	r3, [r3]
 1549 000e 7A68     		ldr	r2, [r7, #4]
 1550 0010 1268     		ldr	r2, [r2]
 1551 0012 23F04063 		bic	r3, r3, #201326592
 1552 0016 23F4F073 		bic	r3, r3, #480
 1553 001a 1360     		str	r3, [r2]
1372:Drivers/STM32L4xx_HAL_Driver/Src/stm32l4xx_hal_smartcard.c ****             (USART_CR1_RXNEIE | USART_CR1_PEIE | USART_CR1_TXEIE | USART_CR1_TCIE | USART_CR1_RTOIE
ARM GAS  /tmp/ccDAjxq4.s 			page 52


1373:Drivers/STM32L4xx_HAL_Driver/Src/stm32l4xx_hal_smartcard.c ****              USART_CR1_EOBIE));
1374:Drivers/STM32L4xx_HAL_Driver/Src/stm32l4xx_hal_smartcard.c ****   CLEAR_BIT(hsmartcard->Instance->CR3, USART_CR3_EIE);
 1554              		.loc 1 1374 3
 1555 001c 7B68     		ldr	r3, [r7, #4]
 1556 001e 1B68     		ldr	r3, [r3]
 1557 0020 9A68     		ldr	r2, [r3, #8]
 1558 0022 7B68     		ldr	r3, [r7, #4]
 1559 0024 1B68     		ldr	r3, [r3]
 1560 0026 22F00102 		bic	r2, r2, #1
 1561 002a 9A60     		str	r2, [r3, #8]
1375:Drivers/STM32L4xx_HAL_Driver/Src/stm32l4xx_hal_smartcard.c **** #endif /* USART_CR1_FIFOEN */
1376:Drivers/STM32L4xx_HAL_Driver/Src/stm32l4xx_hal_smartcard.c **** 
1377:Drivers/STM32L4xx_HAL_Driver/Src/stm32l4xx_hal_smartcard.c ****   /* Disable the SMARTCARD DMA Tx request if enabled */
1378:Drivers/STM32L4xx_HAL_Driver/Src/stm32l4xx_hal_smartcard.c ****   if (HAL_IS_BIT_SET(hsmartcard->Instance->CR3, USART_CR3_DMAT))
 1562              		.loc 1 1378 7
 1563 002c 7B68     		ldr	r3, [r7, #4]
 1564 002e 1B68     		ldr	r3, [r3]
 1565 0030 9B68     		ldr	r3, [r3, #8]
 1566 0032 03F08003 		and	r3, r3, #128
 1567              		.loc 1 1378 6
 1568 0036 802B     		cmp	r3, #128
 1569 0038 24D1     		bne	.L72
1379:Drivers/STM32L4xx_HAL_Driver/Src/stm32l4xx_hal_smartcard.c ****   {
1380:Drivers/STM32L4xx_HAL_Driver/Src/stm32l4xx_hal_smartcard.c ****     CLEAR_BIT(hsmartcard->Instance->CR3, USART_CR3_DMAT);
 1570              		.loc 1 1380 5
 1571 003a 7B68     		ldr	r3, [r7, #4]
 1572 003c 1B68     		ldr	r3, [r3]
 1573 003e 9A68     		ldr	r2, [r3, #8]
 1574 0040 7B68     		ldr	r3, [r7, #4]
 1575 0042 1B68     		ldr	r3, [r3]
 1576 0044 22F08002 		bic	r2, r2, #128
 1577 0048 9A60     		str	r2, [r3, #8]
1381:Drivers/STM32L4xx_HAL_Driver/Src/stm32l4xx_hal_smartcard.c **** 
1382:Drivers/STM32L4xx_HAL_Driver/Src/stm32l4xx_hal_smartcard.c ****     /* Abort the SMARTCARD DMA Tx channel : use blocking DMA Abort API (no callback) */
1383:Drivers/STM32L4xx_HAL_Driver/Src/stm32l4xx_hal_smartcard.c ****     if (hsmartcard->hdmatx != NULL)
 1578              		.loc 1 1383 19
 1579 004a 7B68     		ldr	r3, [r7, #4]
 1580 004c 9B6E     		ldr	r3, [r3, #104]
 1581              		.loc 1 1383 8
 1582 004e 002B     		cmp	r3, #0
 1583 0050 18D0     		beq	.L72
1384:Drivers/STM32L4xx_HAL_Driver/Src/stm32l4xx_hal_smartcard.c ****     {
1385:Drivers/STM32L4xx_HAL_Driver/Src/stm32l4xx_hal_smartcard.c ****       /* Set the SMARTCARD DMA Abort callback to Null.
1386:Drivers/STM32L4xx_HAL_Driver/Src/stm32l4xx_hal_smartcard.c ****          No call back execution at end of DMA abort procedure */
1387:Drivers/STM32L4xx_HAL_Driver/Src/stm32l4xx_hal_smartcard.c ****       hsmartcard->hdmatx->XferAbortCallback = NULL;
 1584              		.loc 1 1387 17
 1585 0052 7B68     		ldr	r3, [r7, #4]
 1586 0054 9B6E     		ldr	r3, [r3, #104]
 1587              		.loc 1 1387 45
 1588 0056 0022     		movs	r2, #0
 1589 0058 9A63     		str	r2, [r3, #56]
1388:Drivers/STM32L4xx_HAL_Driver/Src/stm32l4xx_hal_smartcard.c **** 
1389:Drivers/STM32L4xx_HAL_Driver/Src/stm32l4xx_hal_smartcard.c ****       if (HAL_DMA_Abort(hsmartcard->hdmatx) != HAL_OK)
 1590              		.loc 1 1389 11
 1591 005a 7B68     		ldr	r3, [r7, #4]
 1592 005c 9B6E     		ldr	r3, [r3, #104]
 1593 005e 1846     		mov	r0, r3
ARM GAS  /tmp/ccDAjxq4.s 			page 53


 1594 0060 FFF7FEFF 		bl	HAL_DMA_Abort
 1595 0064 0346     		mov	r3, r0
 1596              		.loc 1 1389 10 discriminator 1
 1597 0066 002B     		cmp	r3, #0
 1598 0068 0CD0     		beq	.L72
1390:Drivers/STM32L4xx_HAL_Driver/Src/stm32l4xx_hal_smartcard.c ****       {
1391:Drivers/STM32L4xx_HAL_Driver/Src/stm32l4xx_hal_smartcard.c ****         if (HAL_DMA_GetError(hsmartcard->hdmatx) == HAL_DMA_ERROR_TIMEOUT)
 1599              		.loc 1 1391 13
 1600 006a 7B68     		ldr	r3, [r7, #4]
 1601 006c 9B6E     		ldr	r3, [r3, #104]
 1602 006e 1846     		mov	r0, r3
 1603 0070 FFF7FEFF 		bl	HAL_DMA_GetError
 1604 0074 0346     		mov	r3, r0
 1605              		.loc 1 1391 12 discriminator 1
 1606 0076 202B     		cmp	r3, #32
 1607 0078 04D1     		bne	.L72
1392:Drivers/STM32L4xx_HAL_Driver/Src/stm32l4xx_hal_smartcard.c ****         {
1393:Drivers/STM32L4xx_HAL_Driver/Src/stm32l4xx_hal_smartcard.c ****           /* Set error code to DMA */
1394:Drivers/STM32L4xx_HAL_Driver/Src/stm32l4xx_hal_smartcard.c ****           hsmartcard->ErrorCode = HAL_SMARTCARD_ERROR_DMA;
 1608              		.loc 1 1394 33
 1609 007a 7B68     		ldr	r3, [r7, #4]
 1610 007c 1022     		movs	r2, #16
 1611 007e DA67     		str	r2, [r3, #124]
1395:Drivers/STM32L4xx_HAL_Driver/Src/stm32l4xx_hal_smartcard.c **** 
1396:Drivers/STM32L4xx_HAL_Driver/Src/stm32l4xx_hal_smartcard.c ****           return HAL_TIMEOUT;
 1612              		.loc 1 1396 18
 1613 0080 0323     		movs	r3, #3
 1614 0082 42E0     		b	.L73
 1615              	.L72:
1397:Drivers/STM32L4xx_HAL_Driver/Src/stm32l4xx_hal_smartcard.c ****         }
1398:Drivers/STM32L4xx_HAL_Driver/Src/stm32l4xx_hal_smartcard.c ****       }
1399:Drivers/STM32L4xx_HAL_Driver/Src/stm32l4xx_hal_smartcard.c ****     }
1400:Drivers/STM32L4xx_HAL_Driver/Src/stm32l4xx_hal_smartcard.c ****   }
1401:Drivers/STM32L4xx_HAL_Driver/Src/stm32l4xx_hal_smartcard.c **** 
1402:Drivers/STM32L4xx_HAL_Driver/Src/stm32l4xx_hal_smartcard.c ****   /* Disable the SMARTCARD DMA Rx request if enabled */
1403:Drivers/STM32L4xx_HAL_Driver/Src/stm32l4xx_hal_smartcard.c ****   if (HAL_IS_BIT_SET(hsmartcard->Instance->CR3, USART_CR3_DMAR))
 1616              		.loc 1 1403 7
 1617 0084 7B68     		ldr	r3, [r7, #4]
 1618 0086 1B68     		ldr	r3, [r3]
 1619 0088 9B68     		ldr	r3, [r3, #8]
 1620 008a 03F04003 		and	r3, r3, #64
 1621              		.loc 1 1403 6
 1622 008e 402B     		cmp	r3, #64
 1623 0090 24D1     		bne	.L74
1404:Drivers/STM32L4xx_HAL_Driver/Src/stm32l4xx_hal_smartcard.c ****   {
1405:Drivers/STM32L4xx_HAL_Driver/Src/stm32l4xx_hal_smartcard.c ****     CLEAR_BIT(hsmartcard->Instance->CR3, USART_CR3_DMAR);
 1624              		.loc 1 1405 5
 1625 0092 7B68     		ldr	r3, [r7, #4]
 1626 0094 1B68     		ldr	r3, [r3]
 1627 0096 9A68     		ldr	r2, [r3, #8]
 1628 0098 7B68     		ldr	r3, [r7, #4]
 1629 009a 1B68     		ldr	r3, [r3]
 1630 009c 22F04002 		bic	r2, r2, #64
 1631 00a0 9A60     		str	r2, [r3, #8]
1406:Drivers/STM32L4xx_HAL_Driver/Src/stm32l4xx_hal_smartcard.c **** 
1407:Drivers/STM32L4xx_HAL_Driver/Src/stm32l4xx_hal_smartcard.c ****     /* Abort the SMARTCARD DMA Rx channel : use blocking DMA Abort API (no callback) */
1408:Drivers/STM32L4xx_HAL_Driver/Src/stm32l4xx_hal_smartcard.c ****     if (hsmartcard->hdmarx != NULL)
ARM GAS  /tmp/ccDAjxq4.s 			page 54


 1632              		.loc 1 1408 19
 1633 00a2 7B68     		ldr	r3, [r7, #4]
 1634 00a4 DB6E     		ldr	r3, [r3, #108]
 1635              		.loc 1 1408 8
 1636 00a6 002B     		cmp	r3, #0
 1637 00a8 18D0     		beq	.L74
1409:Drivers/STM32L4xx_HAL_Driver/Src/stm32l4xx_hal_smartcard.c ****     {
1410:Drivers/STM32L4xx_HAL_Driver/Src/stm32l4xx_hal_smartcard.c ****       /* Set the SMARTCARD DMA Abort callback to Null.
1411:Drivers/STM32L4xx_HAL_Driver/Src/stm32l4xx_hal_smartcard.c ****          No call back execution at end of DMA abort procedure */
1412:Drivers/STM32L4xx_HAL_Driver/Src/stm32l4xx_hal_smartcard.c ****       hsmartcard->hdmarx->XferAbortCallback = NULL;
 1638              		.loc 1 1412 17
 1639 00aa 7B68     		ldr	r3, [r7, #4]
 1640 00ac DB6E     		ldr	r3, [r3, #108]
 1641              		.loc 1 1412 45
 1642 00ae 0022     		movs	r2, #0
 1643 00b0 9A63     		str	r2, [r3, #56]
1413:Drivers/STM32L4xx_HAL_Driver/Src/stm32l4xx_hal_smartcard.c **** 
1414:Drivers/STM32L4xx_HAL_Driver/Src/stm32l4xx_hal_smartcard.c ****       if (HAL_DMA_Abort(hsmartcard->hdmarx) != HAL_OK)
 1644              		.loc 1 1414 11
 1645 00b2 7B68     		ldr	r3, [r7, #4]
 1646 00b4 DB6E     		ldr	r3, [r3, #108]
 1647 00b6 1846     		mov	r0, r3
 1648 00b8 FFF7FEFF 		bl	HAL_DMA_Abort
 1649 00bc 0346     		mov	r3, r0
 1650              		.loc 1 1414 10 discriminator 1
 1651 00be 002B     		cmp	r3, #0
 1652 00c0 0CD0     		beq	.L74
1415:Drivers/STM32L4xx_HAL_Driver/Src/stm32l4xx_hal_smartcard.c ****       {
1416:Drivers/STM32L4xx_HAL_Driver/Src/stm32l4xx_hal_smartcard.c ****         if (HAL_DMA_GetError(hsmartcard->hdmarx) == HAL_DMA_ERROR_TIMEOUT)
 1653              		.loc 1 1416 13
 1654 00c2 7B68     		ldr	r3, [r7, #4]
 1655 00c4 DB6E     		ldr	r3, [r3, #108]
 1656 00c6 1846     		mov	r0, r3
 1657 00c8 FFF7FEFF 		bl	HAL_DMA_GetError
 1658 00cc 0346     		mov	r3, r0
 1659              		.loc 1 1416 12 discriminator 1
 1660 00ce 202B     		cmp	r3, #32
 1661 00d0 04D1     		bne	.L74
1417:Drivers/STM32L4xx_HAL_Driver/Src/stm32l4xx_hal_smartcard.c ****         {
1418:Drivers/STM32L4xx_HAL_Driver/Src/stm32l4xx_hal_smartcard.c ****           /* Set error code to DMA */
1419:Drivers/STM32L4xx_HAL_Driver/Src/stm32l4xx_hal_smartcard.c ****           hsmartcard->ErrorCode = HAL_SMARTCARD_ERROR_DMA;
 1662              		.loc 1 1419 33
 1663 00d2 7B68     		ldr	r3, [r7, #4]
 1664 00d4 1022     		movs	r2, #16
 1665 00d6 DA67     		str	r2, [r3, #124]
1420:Drivers/STM32L4xx_HAL_Driver/Src/stm32l4xx_hal_smartcard.c **** 
1421:Drivers/STM32L4xx_HAL_Driver/Src/stm32l4xx_hal_smartcard.c ****           return HAL_TIMEOUT;
 1666              		.loc 1 1421 18
 1667 00d8 0323     		movs	r3, #3
 1668 00da 16E0     		b	.L73
 1669              	.L74:
1422:Drivers/STM32L4xx_HAL_Driver/Src/stm32l4xx_hal_smartcard.c ****         }
1423:Drivers/STM32L4xx_HAL_Driver/Src/stm32l4xx_hal_smartcard.c ****       }
1424:Drivers/STM32L4xx_HAL_Driver/Src/stm32l4xx_hal_smartcard.c ****     }
1425:Drivers/STM32L4xx_HAL_Driver/Src/stm32l4xx_hal_smartcard.c ****   }
1426:Drivers/STM32L4xx_HAL_Driver/Src/stm32l4xx_hal_smartcard.c **** 
1427:Drivers/STM32L4xx_HAL_Driver/Src/stm32l4xx_hal_smartcard.c ****   /* Reset Tx and Rx transfer counters */
ARM GAS  /tmp/ccDAjxq4.s 			page 55


1428:Drivers/STM32L4xx_HAL_Driver/Src/stm32l4xx_hal_smartcard.c ****   hsmartcard->TxXferCount = 0U;
 1670              		.loc 1 1428 27
 1671 00dc 7B68     		ldr	r3, [r7, #4]
 1672 00de 0022     		movs	r2, #0
 1673 00e0 A3F85620 		strh	r2, [r3, #86]	@ movhi
1429:Drivers/STM32L4xx_HAL_Driver/Src/stm32l4xx_hal_smartcard.c ****   hsmartcard->RxXferCount = 0U;
 1674              		.loc 1 1429 27
 1675 00e4 7B68     		ldr	r3, [r7, #4]
 1676 00e6 0022     		movs	r2, #0
 1677 00e8 A3F85E20 		strh	r2, [r3, #94]	@ movhi
1430:Drivers/STM32L4xx_HAL_Driver/Src/stm32l4xx_hal_smartcard.c **** 
1431:Drivers/STM32L4xx_HAL_Driver/Src/stm32l4xx_hal_smartcard.c ****   /* Clear the Error flags in the ICR register */
1432:Drivers/STM32L4xx_HAL_Driver/Src/stm32l4xx_hal_smartcard.c ****   __HAL_SMARTCARD_CLEAR_FLAG(hsmartcard,
 1678              		.loc 1 1432 3
 1679 00ec 7B68     		ldr	r3, [r7, #4]
 1680 00ee 1B68     		ldr	r3, [r3]
 1681 00f0 41F60F02 		movw	r2, #6159
 1682 00f4 1A62     		str	r2, [r3, #32]
1433:Drivers/STM32L4xx_HAL_Driver/Src/stm32l4xx_hal_smartcard.c ****                              SMARTCARD_CLEAR_OREF | SMARTCARD_CLEAR_NEF | SMARTCARD_CLEAR_PEF | SMA
1434:Drivers/STM32L4xx_HAL_Driver/Src/stm32l4xx_hal_smartcard.c ****                              SMARTCARD_CLEAR_RTOF | SMARTCARD_CLEAR_EOBF);
1435:Drivers/STM32L4xx_HAL_Driver/Src/stm32l4xx_hal_smartcard.c **** 
1436:Drivers/STM32L4xx_HAL_Driver/Src/stm32l4xx_hal_smartcard.c ****   /* Restore hsmartcard->gState and hsmartcard->RxState to Ready */
1437:Drivers/STM32L4xx_HAL_Driver/Src/stm32l4xx_hal_smartcard.c ****   hsmartcard->gState  = HAL_SMARTCARD_STATE_READY;
 1683              		.loc 1 1437 23
 1684 00f6 7B68     		ldr	r3, [r7, #4]
 1685 00f8 2022     		movs	r2, #32
 1686 00fa 5A67     		str	r2, [r3, #116]
1438:Drivers/STM32L4xx_HAL_Driver/Src/stm32l4xx_hal_smartcard.c ****   hsmartcard->RxState = HAL_SMARTCARD_STATE_READY;
 1687              		.loc 1 1438 23
 1688 00fc 7B68     		ldr	r3, [r7, #4]
 1689 00fe 2022     		movs	r2, #32
 1690 0100 9A67     		str	r2, [r3, #120]
1439:Drivers/STM32L4xx_HAL_Driver/Src/stm32l4xx_hal_smartcard.c **** 
1440:Drivers/STM32L4xx_HAL_Driver/Src/stm32l4xx_hal_smartcard.c ****   /* Reset Handle ErrorCode to No Error */
1441:Drivers/STM32L4xx_HAL_Driver/Src/stm32l4xx_hal_smartcard.c ****   hsmartcard->ErrorCode = HAL_SMARTCARD_ERROR_NONE;
 1691              		.loc 1 1441 25
 1692 0102 7B68     		ldr	r3, [r7, #4]
 1693 0104 0022     		movs	r2, #0
 1694 0106 DA67     		str	r2, [r3, #124]
1442:Drivers/STM32L4xx_HAL_Driver/Src/stm32l4xx_hal_smartcard.c **** 
1443:Drivers/STM32L4xx_HAL_Driver/Src/stm32l4xx_hal_smartcard.c ****   return HAL_OK;
 1695              		.loc 1 1443 10
 1696 0108 0023     		movs	r3, #0
 1697              	.L73:
1444:Drivers/STM32L4xx_HAL_Driver/Src/stm32l4xx_hal_smartcard.c **** }
 1698              		.loc 1 1444 1
 1699 010a 1846     		mov	r0, r3
 1700 010c 0837     		adds	r7, r7, #8
 1701              		.cfi_def_cfa_offset 8
 1702 010e BD46     		mov	sp, r7
 1703              		.cfi_def_cfa_register 13
 1704              		@ sp needed
 1705 0110 80BD     		pop	{r7, pc}
 1706              		.cfi_endproc
 1707              	.LFE455:
 1709              		.section	.text.HAL_SMARTCARD_AbortTransmit,"ax",%progbits
 1710              		.align	1
ARM GAS  /tmp/ccDAjxq4.s 			page 56


 1711              		.global	HAL_SMARTCARD_AbortTransmit
 1712              		.syntax unified
 1713              		.thumb
 1714              		.thumb_func
 1716              	HAL_SMARTCARD_AbortTransmit:
 1717              	.LFB456:
1445:Drivers/STM32L4xx_HAL_Driver/Src/stm32l4xx_hal_smartcard.c **** 
1446:Drivers/STM32L4xx_HAL_Driver/Src/stm32l4xx_hal_smartcard.c **** /**
1447:Drivers/STM32L4xx_HAL_Driver/Src/stm32l4xx_hal_smartcard.c ****   * @brief  Abort ongoing Transmit transfer (blocking mode).
1448:Drivers/STM32L4xx_HAL_Driver/Src/stm32l4xx_hal_smartcard.c ****   * @param  hsmartcard Pointer to a SMARTCARD_HandleTypeDef structure that contains
1449:Drivers/STM32L4xx_HAL_Driver/Src/stm32l4xx_hal_smartcard.c ****   *                    the configuration information for the specified SMARTCARD module.
1450:Drivers/STM32L4xx_HAL_Driver/Src/stm32l4xx_hal_smartcard.c ****   * @note   This procedure could be used for aborting any ongoing Tx transfer started in Interrupt 
1451:Drivers/STM32L4xx_HAL_Driver/Src/stm32l4xx_hal_smartcard.c ****   *         This procedure performs following operations :
1452:Drivers/STM32L4xx_HAL_Driver/Src/stm32l4xx_hal_smartcard.c ****   *           - Disable SMARTCARD Interrupts (Tx)
1453:Drivers/STM32L4xx_HAL_Driver/Src/stm32l4xx_hal_smartcard.c ****   *           - Disable the DMA transfer in the peripheral register (if enabled)
1454:Drivers/STM32L4xx_HAL_Driver/Src/stm32l4xx_hal_smartcard.c ****   *           - Abort DMA transfer by calling HAL_DMA_Abort (in case of transfer in DMA mode)
1455:Drivers/STM32L4xx_HAL_Driver/Src/stm32l4xx_hal_smartcard.c ****   *           - Set handle State to READY
1456:Drivers/STM32L4xx_HAL_Driver/Src/stm32l4xx_hal_smartcard.c ****   * @note   This procedure is executed in blocking mode : when exiting function, Abort is considere
1457:Drivers/STM32L4xx_HAL_Driver/Src/stm32l4xx_hal_smartcard.c ****   * @retval HAL status
1458:Drivers/STM32L4xx_HAL_Driver/Src/stm32l4xx_hal_smartcard.c ****   */
1459:Drivers/STM32L4xx_HAL_Driver/Src/stm32l4xx_hal_smartcard.c **** HAL_StatusTypeDef HAL_SMARTCARD_AbortTransmit(SMARTCARD_HandleTypeDef *hsmartcard)
1460:Drivers/STM32L4xx_HAL_Driver/Src/stm32l4xx_hal_smartcard.c **** {
 1718              		.loc 1 1460 1
 1719              		.cfi_startproc
 1720              		@ args = 0, pretend = 0, frame = 8
 1721              		@ frame_needed = 1, uses_anonymous_args = 0
 1722 0000 80B5     		push	{r7, lr}
 1723              		.cfi_def_cfa_offset 8
 1724              		.cfi_offset 7, -8
 1725              		.cfi_offset 14, -4
 1726 0002 82B0     		sub	sp, sp, #8
 1727              		.cfi_def_cfa_offset 16
 1728 0004 00AF     		add	r7, sp, #0
 1729              		.cfi_def_cfa_register 7
 1730 0006 7860     		str	r0, [r7, #4]
1461:Drivers/STM32L4xx_HAL_Driver/Src/stm32l4xx_hal_smartcard.c **** #if defined(USART_CR1_FIFOEN)
1462:Drivers/STM32L4xx_HAL_Driver/Src/stm32l4xx_hal_smartcard.c ****   /* Disable TCIE, TXEIE and TXFTIE interrupts */
1463:Drivers/STM32L4xx_HAL_Driver/Src/stm32l4xx_hal_smartcard.c ****   CLEAR_BIT(hsmartcard->Instance->CR1, (USART_CR1_TXEIE_TXFNFIE | USART_CR1_TCIE));
1464:Drivers/STM32L4xx_HAL_Driver/Src/stm32l4xx_hal_smartcard.c ****   CLEAR_BIT(hsmartcard->Instance->CR3, USART_CR3_TXFTIE);
1465:Drivers/STM32L4xx_HAL_Driver/Src/stm32l4xx_hal_smartcard.c **** #else
1466:Drivers/STM32L4xx_HAL_Driver/Src/stm32l4xx_hal_smartcard.c ****   /* Disable TXEIE and TCIE interrupts */
1467:Drivers/STM32L4xx_HAL_Driver/Src/stm32l4xx_hal_smartcard.c ****   CLEAR_BIT(hsmartcard->Instance->CR1, (USART_CR1_TXEIE | USART_CR1_TCIE));
 1731              		.loc 1 1467 3
 1732 0008 7B68     		ldr	r3, [r7, #4]
 1733 000a 1B68     		ldr	r3, [r3]
 1734 000c 1A68     		ldr	r2, [r3]
 1735 000e 7B68     		ldr	r3, [r7, #4]
 1736 0010 1B68     		ldr	r3, [r3]
 1737 0012 22F0C002 		bic	r2, r2, #192
 1738 0016 1A60     		str	r2, [r3]
1468:Drivers/STM32L4xx_HAL_Driver/Src/stm32l4xx_hal_smartcard.c **** #endif /* USART_CR1_FIFOEN */
1469:Drivers/STM32L4xx_HAL_Driver/Src/stm32l4xx_hal_smartcard.c **** 
1470:Drivers/STM32L4xx_HAL_Driver/Src/stm32l4xx_hal_smartcard.c ****   /* Check if a receive process is ongoing or not. If not disable ERR IT */
1471:Drivers/STM32L4xx_HAL_Driver/Src/stm32l4xx_hal_smartcard.c ****   if (hsmartcard->RxState == HAL_SMARTCARD_STATE_READY)
 1739              		.loc 1 1471 17
 1740 0018 7B68     		ldr	r3, [r7, #4]
 1741 001a 9B6F     		ldr	r3, [r3, #120]
ARM GAS  /tmp/ccDAjxq4.s 			page 57


 1742              		.loc 1 1471 6
 1743 001c 202B     		cmp	r3, #32
 1744 001e 07D1     		bne	.L76
1472:Drivers/STM32L4xx_HAL_Driver/Src/stm32l4xx_hal_smartcard.c ****   {
1473:Drivers/STM32L4xx_HAL_Driver/Src/stm32l4xx_hal_smartcard.c ****     /* Disable the SMARTCARD Error Interrupt: (Frame error) */
1474:Drivers/STM32L4xx_HAL_Driver/Src/stm32l4xx_hal_smartcard.c ****     CLEAR_BIT(hsmartcard->Instance->CR3, USART_CR3_EIE);
 1745              		.loc 1 1474 5
 1746 0020 7B68     		ldr	r3, [r7, #4]
 1747 0022 1B68     		ldr	r3, [r3]
 1748 0024 9A68     		ldr	r2, [r3, #8]
 1749 0026 7B68     		ldr	r3, [r7, #4]
 1750 0028 1B68     		ldr	r3, [r3]
 1751 002a 22F00102 		bic	r2, r2, #1
 1752 002e 9A60     		str	r2, [r3, #8]
 1753              	.L76:
1475:Drivers/STM32L4xx_HAL_Driver/Src/stm32l4xx_hal_smartcard.c ****   }
1476:Drivers/STM32L4xx_HAL_Driver/Src/stm32l4xx_hal_smartcard.c **** 
1477:Drivers/STM32L4xx_HAL_Driver/Src/stm32l4xx_hal_smartcard.c ****   /* Disable the SMARTCARD DMA Tx request if enabled */
1478:Drivers/STM32L4xx_HAL_Driver/Src/stm32l4xx_hal_smartcard.c ****   if (HAL_IS_BIT_SET(hsmartcard->Instance->CR3, USART_CR3_DMAT))
 1754              		.loc 1 1478 7
 1755 0030 7B68     		ldr	r3, [r7, #4]
 1756 0032 1B68     		ldr	r3, [r3]
 1757 0034 9B68     		ldr	r3, [r3, #8]
 1758 0036 03F08003 		and	r3, r3, #128
 1759              		.loc 1 1478 6
 1760 003a 802B     		cmp	r3, #128
 1761 003c 24D1     		bne	.L77
1479:Drivers/STM32L4xx_HAL_Driver/Src/stm32l4xx_hal_smartcard.c ****   {
1480:Drivers/STM32L4xx_HAL_Driver/Src/stm32l4xx_hal_smartcard.c ****     CLEAR_BIT(hsmartcard->Instance->CR3, USART_CR3_DMAT);
 1762              		.loc 1 1480 5
 1763 003e 7B68     		ldr	r3, [r7, #4]
 1764 0040 1B68     		ldr	r3, [r3]
 1765 0042 9A68     		ldr	r2, [r3, #8]
 1766 0044 7B68     		ldr	r3, [r7, #4]
 1767 0046 1B68     		ldr	r3, [r3]
 1768 0048 22F08002 		bic	r2, r2, #128
 1769 004c 9A60     		str	r2, [r3, #8]
1481:Drivers/STM32L4xx_HAL_Driver/Src/stm32l4xx_hal_smartcard.c **** 
1482:Drivers/STM32L4xx_HAL_Driver/Src/stm32l4xx_hal_smartcard.c ****     /* Abort the SMARTCARD DMA Tx channel : use blocking DMA Abort API (no callback) */
1483:Drivers/STM32L4xx_HAL_Driver/Src/stm32l4xx_hal_smartcard.c ****     if (hsmartcard->hdmatx != NULL)
 1770              		.loc 1 1483 19
 1771 004e 7B68     		ldr	r3, [r7, #4]
 1772 0050 9B6E     		ldr	r3, [r3, #104]
 1773              		.loc 1 1483 8
 1774 0052 002B     		cmp	r3, #0
 1775 0054 18D0     		beq	.L77
1484:Drivers/STM32L4xx_HAL_Driver/Src/stm32l4xx_hal_smartcard.c ****     {
1485:Drivers/STM32L4xx_HAL_Driver/Src/stm32l4xx_hal_smartcard.c ****       /* Set the SMARTCARD DMA Abort callback to Null.
1486:Drivers/STM32L4xx_HAL_Driver/Src/stm32l4xx_hal_smartcard.c ****          No call back execution at end of DMA abort procedure */
1487:Drivers/STM32L4xx_HAL_Driver/Src/stm32l4xx_hal_smartcard.c ****       hsmartcard->hdmatx->XferAbortCallback = NULL;
 1776              		.loc 1 1487 17
 1777 0056 7B68     		ldr	r3, [r7, #4]
 1778 0058 9B6E     		ldr	r3, [r3, #104]
 1779              		.loc 1 1487 45
 1780 005a 0022     		movs	r2, #0
 1781 005c 9A63     		str	r2, [r3, #56]
1488:Drivers/STM32L4xx_HAL_Driver/Src/stm32l4xx_hal_smartcard.c **** 
ARM GAS  /tmp/ccDAjxq4.s 			page 58


1489:Drivers/STM32L4xx_HAL_Driver/Src/stm32l4xx_hal_smartcard.c ****       if (HAL_DMA_Abort(hsmartcard->hdmatx) != HAL_OK)
 1782              		.loc 1 1489 11
 1783 005e 7B68     		ldr	r3, [r7, #4]
 1784 0060 9B6E     		ldr	r3, [r3, #104]
 1785 0062 1846     		mov	r0, r3
 1786 0064 FFF7FEFF 		bl	HAL_DMA_Abort
 1787 0068 0346     		mov	r3, r0
 1788              		.loc 1 1489 10 discriminator 1
 1789 006a 002B     		cmp	r3, #0
 1790 006c 0CD0     		beq	.L77
1490:Drivers/STM32L4xx_HAL_Driver/Src/stm32l4xx_hal_smartcard.c ****       {
1491:Drivers/STM32L4xx_HAL_Driver/Src/stm32l4xx_hal_smartcard.c ****         if (HAL_DMA_GetError(hsmartcard->hdmatx) == HAL_DMA_ERROR_TIMEOUT)
 1791              		.loc 1 1491 13
 1792 006e 7B68     		ldr	r3, [r7, #4]
 1793 0070 9B6E     		ldr	r3, [r3, #104]
 1794 0072 1846     		mov	r0, r3
 1795 0074 FFF7FEFF 		bl	HAL_DMA_GetError
 1796 0078 0346     		mov	r3, r0
 1797              		.loc 1 1491 12 discriminator 1
 1798 007a 202B     		cmp	r3, #32
 1799 007c 04D1     		bne	.L77
1492:Drivers/STM32L4xx_HAL_Driver/Src/stm32l4xx_hal_smartcard.c ****         {
1493:Drivers/STM32L4xx_HAL_Driver/Src/stm32l4xx_hal_smartcard.c ****           /* Set error code to DMA */
1494:Drivers/STM32L4xx_HAL_Driver/Src/stm32l4xx_hal_smartcard.c ****           hsmartcard->ErrorCode = HAL_SMARTCARD_ERROR_DMA;
 1800              		.loc 1 1494 33
 1801 007e 7B68     		ldr	r3, [r7, #4]
 1802 0080 1022     		movs	r2, #16
 1803 0082 DA67     		str	r2, [r3, #124]
1495:Drivers/STM32L4xx_HAL_Driver/Src/stm32l4xx_hal_smartcard.c **** 
1496:Drivers/STM32L4xx_HAL_Driver/Src/stm32l4xx_hal_smartcard.c ****           return HAL_TIMEOUT;
 1804              		.loc 1 1496 18
 1805 0084 0323     		movs	r3, #3
 1806 0086 0BE0     		b	.L78
 1807              	.L77:
1497:Drivers/STM32L4xx_HAL_Driver/Src/stm32l4xx_hal_smartcard.c ****         }
1498:Drivers/STM32L4xx_HAL_Driver/Src/stm32l4xx_hal_smartcard.c ****       }
1499:Drivers/STM32L4xx_HAL_Driver/Src/stm32l4xx_hal_smartcard.c ****     }
1500:Drivers/STM32L4xx_HAL_Driver/Src/stm32l4xx_hal_smartcard.c ****   }
1501:Drivers/STM32L4xx_HAL_Driver/Src/stm32l4xx_hal_smartcard.c **** 
1502:Drivers/STM32L4xx_HAL_Driver/Src/stm32l4xx_hal_smartcard.c ****   /* Reset Tx transfer counter */
1503:Drivers/STM32L4xx_HAL_Driver/Src/stm32l4xx_hal_smartcard.c ****   hsmartcard->TxXferCount = 0U;
 1808              		.loc 1 1503 27
 1809 0088 7B68     		ldr	r3, [r7, #4]
 1810 008a 0022     		movs	r2, #0
 1811 008c A3F85620 		strh	r2, [r3, #86]	@ movhi
1504:Drivers/STM32L4xx_HAL_Driver/Src/stm32l4xx_hal_smartcard.c **** 
1505:Drivers/STM32L4xx_HAL_Driver/Src/stm32l4xx_hal_smartcard.c ****   /* Clear the Error flags in the ICR register */
1506:Drivers/STM32L4xx_HAL_Driver/Src/stm32l4xx_hal_smartcard.c ****   __HAL_SMARTCARD_CLEAR_FLAG(hsmartcard, SMARTCARD_CLEAR_FEF);
 1812              		.loc 1 1506 3
 1813 0090 7B68     		ldr	r3, [r7, #4]
 1814 0092 1B68     		ldr	r3, [r3]
 1815 0094 0222     		movs	r2, #2
 1816 0096 1A62     		str	r2, [r3, #32]
1507:Drivers/STM32L4xx_HAL_Driver/Src/stm32l4xx_hal_smartcard.c **** 
1508:Drivers/STM32L4xx_HAL_Driver/Src/stm32l4xx_hal_smartcard.c ****   /* Restore hsmartcard->gState to Ready */
1509:Drivers/STM32L4xx_HAL_Driver/Src/stm32l4xx_hal_smartcard.c ****   hsmartcard->gState = HAL_SMARTCARD_STATE_READY;
 1817              		.loc 1 1509 22
ARM GAS  /tmp/ccDAjxq4.s 			page 59


 1818 0098 7B68     		ldr	r3, [r7, #4]
 1819 009a 2022     		movs	r2, #32
 1820 009c 5A67     		str	r2, [r3, #116]
1510:Drivers/STM32L4xx_HAL_Driver/Src/stm32l4xx_hal_smartcard.c **** 
1511:Drivers/STM32L4xx_HAL_Driver/Src/stm32l4xx_hal_smartcard.c ****   return HAL_OK;
 1821              		.loc 1 1511 10
 1822 009e 0023     		movs	r3, #0
 1823              	.L78:
1512:Drivers/STM32L4xx_HAL_Driver/Src/stm32l4xx_hal_smartcard.c **** }
 1824              		.loc 1 1512 1
 1825 00a0 1846     		mov	r0, r3
 1826 00a2 0837     		adds	r7, r7, #8
 1827              		.cfi_def_cfa_offset 8
 1828 00a4 BD46     		mov	sp, r7
 1829              		.cfi_def_cfa_register 13
 1830              		@ sp needed
 1831 00a6 80BD     		pop	{r7, pc}
 1832              		.cfi_endproc
 1833              	.LFE456:
 1835              		.section	.text.HAL_SMARTCARD_AbortReceive,"ax",%progbits
 1836              		.align	1
 1837              		.global	HAL_SMARTCARD_AbortReceive
 1838              		.syntax unified
 1839              		.thumb
 1840              		.thumb_func
 1842              	HAL_SMARTCARD_AbortReceive:
 1843              	.LFB457:
1513:Drivers/STM32L4xx_HAL_Driver/Src/stm32l4xx_hal_smartcard.c **** 
1514:Drivers/STM32L4xx_HAL_Driver/Src/stm32l4xx_hal_smartcard.c **** /**
1515:Drivers/STM32L4xx_HAL_Driver/Src/stm32l4xx_hal_smartcard.c ****   * @brief  Abort ongoing Receive transfer (blocking mode).
1516:Drivers/STM32L4xx_HAL_Driver/Src/stm32l4xx_hal_smartcard.c ****   * @param  hsmartcard Pointer to a SMARTCARD_HandleTypeDef structure that contains
1517:Drivers/STM32L4xx_HAL_Driver/Src/stm32l4xx_hal_smartcard.c ****   *                    the configuration information for the specified SMARTCARD module.
1518:Drivers/STM32L4xx_HAL_Driver/Src/stm32l4xx_hal_smartcard.c ****   * @note   This procedure could be used for aborting any ongoing Rx transfer started in Interrupt 
1519:Drivers/STM32L4xx_HAL_Driver/Src/stm32l4xx_hal_smartcard.c ****   *         This procedure performs following operations :
1520:Drivers/STM32L4xx_HAL_Driver/Src/stm32l4xx_hal_smartcard.c ****   *           - Disable SMARTCARD Interrupts (Rx)
1521:Drivers/STM32L4xx_HAL_Driver/Src/stm32l4xx_hal_smartcard.c ****   *           - Disable the DMA transfer in the peripheral register (if enabled)
1522:Drivers/STM32L4xx_HAL_Driver/Src/stm32l4xx_hal_smartcard.c ****   *           - Abort DMA transfer by calling HAL_DMA_Abort (in case of transfer in DMA mode)
1523:Drivers/STM32L4xx_HAL_Driver/Src/stm32l4xx_hal_smartcard.c ****   *           - Set handle State to READY
1524:Drivers/STM32L4xx_HAL_Driver/Src/stm32l4xx_hal_smartcard.c ****   * @note   This procedure is executed in blocking mode : when exiting function, Abort is considere
1525:Drivers/STM32L4xx_HAL_Driver/Src/stm32l4xx_hal_smartcard.c ****   * @retval HAL status
1526:Drivers/STM32L4xx_HAL_Driver/Src/stm32l4xx_hal_smartcard.c ****   */
1527:Drivers/STM32L4xx_HAL_Driver/Src/stm32l4xx_hal_smartcard.c **** HAL_StatusTypeDef HAL_SMARTCARD_AbortReceive(SMARTCARD_HandleTypeDef *hsmartcard)
1528:Drivers/STM32L4xx_HAL_Driver/Src/stm32l4xx_hal_smartcard.c **** {
 1844              		.loc 1 1528 1
 1845              		.cfi_startproc
 1846              		@ args = 0, pretend = 0, frame = 8
 1847              		@ frame_needed = 1, uses_anonymous_args = 0
 1848 0000 80B5     		push	{r7, lr}
 1849              		.cfi_def_cfa_offset 8
 1850              		.cfi_offset 7, -8
 1851              		.cfi_offset 14, -4
 1852 0002 82B0     		sub	sp, sp, #8
 1853              		.cfi_def_cfa_offset 16
 1854 0004 00AF     		add	r7, sp, #0
 1855              		.cfi_def_cfa_register 7
 1856 0006 7860     		str	r0, [r7, #4]
1529:Drivers/STM32L4xx_HAL_Driver/Src/stm32l4xx_hal_smartcard.c **** #if defined(USART_CR1_FIFOEN)
ARM GAS  /tmp/ccDAjxq4.s 			page 60


1530:Drivers/STM32L4xx_HAL_Driver/Src/stm32l4xx_hal_smartcard.c ****   /* Disable RTOIE, EOBIE, RXNE, PE, RXFT, TXFT and  ERR (Frame error, noise error, overrun error) 
1531:Drivers/STM32L4xx_HAL_Driver/Src/stm32l4xx_hal_smartcard.c ****   CLEAR_BIT(hsmartcard->Instance->CR1, (USART_CR1_RXNEIE_RXFNEIE | USART_CR1_PEIE | USART_CR1_RTOIE
1532:Drivers/STM32L4xx_HAL_Driver/Src/stm32l4xx_hal_smartcard.c ****                                         USART_CR1_EOBIE));
1533:Drivers/STM32L4xx_HAL_Driver/Src/stm32l4xx_hal_smartcard.c ****   CLEAR_BIT(hsmartcard->Instance->CR3, (USART_CR3_EIE | USART_CR3_RXFTIE));
1534:Drivers/STM32L4xx_HAL_Driver/Src/stm32l4xx_hal_smartcard.c **** #else
1535:Drivers/STM32L4xx_HAL_Driver/Src/stm32l4xx_hal_smartcard.c ****   /* Disable RTOIE, EOBIE, RXNE, PE and ERR (Frame error, noise error, overrun error) interrupts */
1536:Drivers/STM32L4xx_HAL_Driver/Src/stm32l4xx_hal_smartcard.c ****   CLEAR_BIT(hsmartcard->Instance->CR1, (USART_CR1_RXNEIE | USART_CR1_PEIE | USART_CR1_RTOIE | USART
 1857              		.loc 1 1536 3
 1858 0008 7B68     		ldr	r3, [r7, #4]
 1859 000a 1B68     		ldr	r3, [r3]
 1860 000c 1B68     		ldr	r3, [r3]
 1861 000e 7A68     		ldr	r2, [r7, #4]
 1862 0010 1268     		ldr	r2, [r2]
 1863 0012 23F04063 		bic	r3, r3, #201326592
 1864 0016 23F49073 		bic	r3, r3, #288
 1865 001a 1360     		str	r3, [r2]
1537:Drivers/STM32L4xx_HAL_Driver/Src/stm32l4xx_hal_smartcard.c ****   CLEAR_BIT(hsmartcard->Instance->CR3, USART_CR3_EIE);
 1866              		.loc 1 1537 3
 1867 001c 7B68     		ldr	r3, [r7, #4]
 1868 001e 1B68     		ldr	r3, [r3]
 1869 0020 9A68     		ldr	r2, [r3, #8]
 1870 0022 7B68     		ldr	r3, [r7, #4]
 1871 0024 1B68     		ldr	r3, [r3]
 1872 0026 22F00102 		bic	r2, r2, #1
 1873 002a 9A60     		str	r2, [r3, #8]
1538:Drivers/STM32L4xx_HAL_Driver/Src/stm32l4xx_hal_smartcard.c **** #endif /* USART_CR1_FIFOEN */
1539:Drivers/STM32L4xx_HAL_Driver/Src/stm32l4xx_hal_smartcard.c **** 
1540:Drivers/STM32L4xx_HAL_Driver/Src/stm32l4xx_hal_smartcard.c ****   /* Check if a Transmit process is ongoing or not. If not disable ERR IT */
1541:Drivers/STM32L4xx_HAL_Driver/Src/stm32l4xx_hal_smartcard.c ****   if (hsmartcard->gState == HAL_SMARTCARD_STATE_READY)
 1874              		.loc 1 1541 17
 1875 002c 7B68     		ldr	r3, [r7, #4]
 1876 002e 5B6F     		ldr	r3, [r3, #116]
 1877              		.loc 1 1541 6
 1878 0030 202B     		cmp	r3, #32
 1879 0032 07D1     		bne	.L80
1542:Drivers/STM32L4xx_HAL_Driver/Src/stm32l4xx_hal_smartcard.c ****   {
1543:Drivers/STM32L4xx_HAL_Driver/Src/stm32l4xx_hal_smartcard.c ****     /* Disable the SMARTCARD Error Interrupt: (Frame error) */
1544:Drivers/STM32L4xx_HAL_Driver/Src/stm32l4xx_hal_smartcard.c ****     CLEAR_BIT(hsmartcard->Instance->CR3, USART_CR3_EIE);
 1880              		.loc 1 1544 5
 1881 0034 7B68     		ldr	r3, [r7, #4]
 1882 0036 1B68     		ldr	r3, [r3]
 1883 0038 9A68     		ldr	r2, [r3, #8]
 1884 003a 7B68     		ldr	r3, [r7, #4]
 1885 003c 1B68     		ldr	r3, [r3]
 1886 003e 22F00102 		bic	r2, r2, #1
 1887 0042 9A60     		str	r2, [r3, #8]
 1888              	.L80:
1545:Drivers/STM32L4xx_HAL_Driver/Src/stm32l4xx_hal_smartcard.c ****   }
1546:Drivers/STM32L4xx_HAL_Driver/Src/stm32l4xx_hal_smartcard.c **** 
1547:Drivers/STM32L4xx_HAL_Driver/Src/stm32l4xx_hal_smartcard.c ****   /* Disable the SMARTCARD DMA Rx request if enabled */
1548:Drivers/STM32L4xx_HAL_Driver/Src/stm32l4xx_hal_smartcard.c ****   if (HAL_IS_BIT_SET(hsmartcard->Instance->CR3, USART_CR3_DMAR))
 1889              		.loc 1 1548 7
 1890 0044 7B68     		ldr	r3, [r7, #4]
 1891 0046 1B68     		ldr	r3, [r3]
 1892 0048 9B68     		ldr	r3, [r3, #8]
 1893 004a 03F04003 		and	r3, r3, #64
 1894              		.loc 1 1548 6
ARM GAS  /tmp/ccDAjxq4.s 			page 61


 1895 004e 402B     		cmp	r3, #64
 1896 0050 24D1     		bne	.L81
1549:Drivers/STM32L4xx_HAL_Driver/Src/stm32l4xx_hal_smartcard.c ****   {
1550:Drivers/STM32L4xx_HAL_Driver/Src/stm32l4xx_hal_smartcard.c ****     CLEAR_BIT(hsmartcard->Instance->CR3, USART_CR3_DMAR);
 1897              		.loc 1 1550 5
 1898 0052 7B68     		ldr	r3, [r7, #4]
 1899 0054 1B68     		ldr	r3, [r3]
 1900 0056 9A68     		ldr	r2, [r3, #8]
 1901 0058 7B68     		ldr	r3, [r7, #4]
 1902 005a 1B68     		ldr	r3, [r3]
 1903 005c 22F04002 		bic	r2, r2, #64
 1904 0060 9A60     		str	r2, [r3, #8]
1551:Drivers/STM32L4xx_HAL_Driver/Src/stm32l4xx_hal_smartcard.c **** 
1552:Drivers/STM32L4xx_HAL_Driver/Src/stm32l4xx_hal_smartcard.c ****     /* Abort the SMARTCARD DMA Rx channel : use blocking DMA Abort API (no callback) */
1553:Drivers/STM32L4xx_HAL_Driver/Src/stm32l4xx_hal_smartcard.c ****     if (hsmartcard->hdmarx != NULL)
 1905              		.loc 1 1553 19
 1906 0062 7B68     		ldr	r3, [r7, #4]
 1907 0064 DB6E     		ldr	r3, [r3, #108]
 1908              		.loc 1 1553 8
 1909 0066 002B     		cmp	r3, #0
 1910 0068 18D0     		beq	.L81
1554:Drivers/STM32L4xx_HAL_Driver/Src/stm32l4xx_hal_smartcard.c ****     {
1555:Drivers/STM32L4xx_HAL_Driver/Src/stm32l4xx_hal_smartcard.c ****       /* Set the SMARTCARD DMA Abort callback to Null.
1556:Drivers/STM32L4xx_HAL_Driver/Src/stm32l4xx_hal_smartcard.c ****          No call back execution at end of DMA abort procedure */
1557:Drivers/STM32L4xx_HAL_Driver/Src/stm32l4xx_hal_smartcard.c ****       hsmartcard->hdmarx->XferAbortCallback = NULL;
 1911              		.loc 1 1557 17
 1912 006a 7B68     		ldr	r3, [r7, #4]
 1913 006c DB6E     		ldr	r3, [r3, #108]
 1914              		.loc 1 1557 45
 1915 006e 0022     		movs	r2, #0
 1916 0070 9A63     		str	r2, [r3, #56]
1558:Drivers/STM32L4xx_HAL_Driver/Src/stm32l4xx_hal_smartcard.c **** 
1559:Drivers/STM32L4xx_HAL_Driver/Src/stm32l4xx_hal_smartcard.c ****       if (HAL_DMA_Abort(hsmartcard->hdmarx) != HAL_OK)
 1917              		.loc 1 1559 11
 1918 0072 7B68     		ldr	r3, [r7, #4]
 1919 0074 DB6E     		ldr	r3, [r3, #108]
 1920 0076 1846     		mov	r0, r3
 1921 0078 FFF7FEFF 		bl	HAL_DMA_Abort
 1922 007c 0346     		mov	r3, r0
 1923              		.loc 1 1559 10 discriminator 1
 1924 007e 002B     		cmp	r3, #0
 1925 0080 0CD0     		beq	.L81
1560:Drivers/STM32L4xx_HAL_Driver/Src/stm32l4xx_hal_smartcard.c ****       {
1561:Drivers/STM32L4xx_HAL_Driver/Src/stm32l4xx_hal_smartcard.c ****         if (HAL_DMA_GetError(hsmartcard->hdmarx) == HAL_DMA_ERROR_TIMEOUT)
 1926              		.loc 1 1561 13
 1927 0082 7B68     		ldr	r3, [r7, #4]
 1928 0084 DB6E     		ldr	r3, [r3, #108]
 1929 0086 1846     		mov	r0, r3
 1930 0088 FFF7FEFF 		bl	HAL_DMA_GetError
 1931 008c 0346     		mov	r3, r0
 1932              		.loc 1 1561 12 discriminator 1
 1933 008e 202B     		cmp	r3, #32
 1934 0090 04D1     		bne	.L81
1562:Drivers/STM32L4xx_HAL_Driver/Src/stm32l4xx_hal_smartcard.c ****         {
1563:Drivers/STM32L4xx_HAL_Driver/Src/stm32l4xx_hal_smartcard.c ****           /* Set error code to DMA */
1564:Drivers/STM32L4xx_HAL_Driver/Src/stm32l4xx_hal_smartcard.c ****           hsmartcard->ErrorCode = HAL_SMARTCARD_ERROR_DMA;
 1935              		.loc 1 1564 33
ARM GAS  /tmp/ccDAjxq4.s 			page 62


 1936 0092 7B68     		ldr	r3, [r7, #4]
 1937 0094 1022     		movs	r2, #16
 1938 0096 DA67     		str	r2, [r3, #124]
1565:Drivers/STM32L4xx_HAL_Driver/Src/stm32l4xx_hal_smartcard.c **** 
1566:Drivers/STM32L4xx_HAL_Driver/Src/stm32l4xx_hal_smartcard.c ****           return HAL_TIMEOUT;
 1939              		.loc 1 1566 18
 1940 0098 0323     		movs	r3, #3
 1941 009a 0CE0     		b	.L82
 1942              	.L81:
1567:Drivers/STM32L4xx_HAL_Driver/Src/stm32l4xx_hal_smartcard.c ****         }
1568:Drivers/STM32L4xx_HAL_Driver/Src/stm32l4xx_hal_smartcard.c ****       }
1569:Drivers/STM32L4xx_HAL_Driver/Src/stm32l4xx_hal_smartcard.c ****     }
1570:Drivers/STM32L4xx_HAL_Driver/Src/stm32l4xx_hal_smartcard.c ****   }
1571:Drivers/STM32L4xx_HAL_Driver/Src/stm32l4xx_hal_smartcard.c **** 
1572:Drivers/STM32L4xx_HAL_Driver/Src/stm32l4xx_hal_smartcard.c ****   /* Reset Rx transfer counter */
1573:Drivers/STM32L4xx_HAL_Driver/Src/stm32l4xx_hal_smartcard.c ****   hsmartcard->RxXferCount = 0U;
 1943              		.loc 1 1573 27
 1944 009c 7B68     		ldr	r3, [r7, #4]
 1945 009e 0022     		movs	r2, #0
 1946 00a0 A3F85E20 		strh	r2, [r3, #94]	@ movhi
1574:Drivers/STM32L4xx_HAL_Driver/Src/stm32l4xx_hal_smartcard.c **** 
1575:Drivers/STM32L4xx_HAL_Driver/Src/stm32l4xx_hal_smartcard.c ****   /* Clear the Error flags in the ICR register */
1576:Drivers/STM32L4xx_HAL_Driver/Src/stm32l4xx_hal_smartcard.c ****   __HAL_SMARTCARD_CLEAR_FLAG(hsmartcard,
 1947              		.loc 1 1576 3
 1948 00a4 7B68     		ldr	r3, [r7, #4]
 1949 00a6 1B68     		ldr	r3, [r3]
 1950 00a8 41F60F02 		movw	r2, #6159
 1951 00ac 1A62     		str	r2, [r3, #32]
1577:Drivers/STM32L4xx_HAL_Driver/Src/stm32l4xx_hal_smartcard.c ****                              SMARTCARD_CLEAR_OREF | SMARTCARD_CLEAR_NEF | SMARTCARD_CLEAR_PEF | SMA
1578:Drivers/STM32L4xx_HAL_Driver/Src/stm32l4xx_hal_smartcard.c ****                              SMARTCARD_CLEAR_RTOF | SMARTCARD_CLEAR_EOBF);
1579:Drivers/STM32L4xx_HAL_Driver/Src/stm32l4xx_hal_smartcard.c **** 
1580:Drivers/STM32L4xx_HAL_Driver/Src/stm32l4xx_hal_smartcard.c ****   /* Restore hsmartcard->RxState to Ready */
1581:Drivers/STM32L4xx_HAL_Driver/Src/stm32l4xx_hal_smartcard.c ****   hsmartcard->RxState = HAL_SMARTCARD_STATE_READY;
 1952              		.loc 1 1581 23
 1953 00ae 7B68     		ldr	r3, [r7, #4]
 1954 00b0 2022     		movs	r2, #32
 1955 00b2 9A67     		str	r2, [r3, #120]
1582:Drivers/STM32L4xx_HAL_Driver/Src/stm32l4xx_hal_smartcard.c **** 
1583:Drivers/STM32L4xx_HAL_Driver/Src/stm32l4xx_hal_smartcard.c ****   return HAL_OK;
 1956              		.loc 1 1583 10
 1957 00b4 0023     		movs	r3, #0
 1958              	.L82:
1584:Drivers/STM32L4xx_HAL_Driver/Src/stm32l4xx_hal_smartcard.c **** }
 1959              		.loc 1 1584 1
 1960 00b6 1846     		mov	r0, r3
 1961 00b8 0837     		adds	r7, r7, #8
 1962              		.cfi_def_cfa_offset 8
 1963 00ba BD46     		mov	sp, r7
 1964              		.cfi_def_cfa_register 13
 1965              		@ sp needed
 1966 00bc 80BD     		pop	{r7, pc}
 1967              		.cfi_endproc
 1968              	.LFE457:
 1970              		.section	.text.HAL_SMARTCARD_Abort_IT,"ax",%progbits
 1971              		.align	1
 1972              		.global	HAL_SMARTCARD_Abort_IT
 1973              		.syntax unified
ARM GAS  /tmp/ccDAjxq4.s 			page 63


 1974              		.thumb
 1975              		.thumb_func
 1977              	HAL_SMARTCARD_Abort_IT:
 1978              	.LFB458:
1585:Drivers/STM32L4xx_HAL_Driver/Src/stm32l4xx_hal_smartcard.c **** 
1586:Drivers/STM32L4xx_HAL_Driver/Src/stm32l4xx_hal_smartcard.c **** /**
1587:Drivers/STM32L4xx_HAL_Driver/Src/stm32l4xx_hal_smartcard.c ****   * @brief  Abort ongoing transfers (Interrupt mode).
1588:Drivers/STM32L4xx_HAL_Driver/Src/stm32l4xx_hal_smartcard.c ****   * @param  hsmartcard Pointer to a SMARTCARD_HandleTypeDef structure that contains
1589:Drivers/STM32L4xx_HAL_Driver/Src/stm32l4xx_hal_smartcard.c ****   *                    the configuration information for the specified SMARTCARD module.
1590:Drivers/STM32L4xx_HAL_Driver/Src/stm32l4xx_hal_smartcard.c ****   * @note   This procedure could be used for aborting any ongoing transfer started in Interrupt or 
1591:Drivers/STM32L4xx_HAL_Driver/Src/stm32l4xx_hal_smartcard.c ****   *         This procedure performs following operations :
1592:Drivers/STM32L4xx_HAL_Driver/Src/stm32l4xx_hal_smartcard.c ****   *           - Disable SMARTCARD Interrupts (Tx and Rx)
1593:Drivers/STM32L4xx_HAL_Driver/Src/stm32l4xx_hal_smartcard.c ****   *           - Disable the DMA transfer in the peripheral register (if enabled)
1594:Drivers/STM32L4xx_HAL_Driver/Src/stm32l4xx_hal_smartcard.c ****   *           - Abort DMA transfer by calling HAL_DMA_Abort_IT (in case of transfer in DMA mode)
1595:Drivers/STM32L4xx_HAL_Driver/Src/stm32l4xx_hal_smartcard.c ****   *           - Set handle State to READY
1596:Drivers/STM32L4xx_HAL_Driver/Src/stm32l4xx_hal_smartcard.c ****   *           - At abort completion, call user abort complete callback
1597:Drivers/STM32L4xx_HAL_Driver/Src/stm32l4xx_hal_smartcard.c ****   * @note   This procedure is executed in Interrupt mode, meaning that abort procedure could be
1598:Drivers/STM32L4xx_HAL_Driver/Src/stm32l4xx_hal_smartcard.c ****   *         considered as completed only when user abort complete callback is executed (not when ex
1599:Drivers/STM32L4xx_HAL_Driver/Src/stm32l4xx_hal_smartcard.c ****   * @retval HAL status
1600:Drivers/STM32L4xx_HAL_Driver/Src/stm32l4xx_hal_smartcard.c ****   */
1601:Drivers/STM32L4xx_HAL_Driver/Src/stm32l4xx_hal_smartcard.c **** HAL_StatusTypeDef HAL_SMARTCARD_Abort_IT(SMARTCARD_HandleTypeDef *hsmartcard)
1602:Drivers/STM32L4xx_HAL_Driver/Src/stm32l4xx_hal_smartcard.c **** {
 1979              		.loc 1 1602 1
 1980              		.cfi_startproc
 1981              		@ args = 0, pretend = 0, frame = 16
 1982              		@ frame_needed = 1, uses_anonymous_args = 0
 1983 0000 80B5     		push	{r7, lr}
 1984              		.cfi_def_cfa_offset 8
 1985              		.cfi_offset 7, -8
 1986              		.cfi_offset 14, -4
 1987 0002 84B0     		sub	sp, sp, #16
 1988              		.cfi_def_cfa_offset 24
 1989 0004 00AF     		add	r7, sp, #0
 1990              		.cfi_def_cfa_register 7
 1991 0006 7860     		str	r0, [r7, #4]
1603:Drivers/STM32L4xx_HAL_Driver/Src/stm32l4xx_hal_smartcard.c ****   uint32_t abortcplt = 1U;
 1992              		.loc 1 1603 12
 1993 0008 0123     		movs	r3, #1
 1994 000a FB60     		str	r3, [r7, #12]
1604:Drivers/STM32L4xx_HAL_Driver/Src/stm32l4xx_hal_smartcard.c **** 
1605:Drivers/STM32L4xx_HAL_Driver/Src/stm32l4xx_hal_smartcard.c **** #if defined(USART_CR1_FIFOEN)
1606:Drivers/STM32L4xx_HAL_Driver/Src/stm32l4xx_hal_smartcard.c ****   /* Disable RTOIE, EOBIE, TXEIE, TCIE, RXNE, PE, RXFT, TXFT and
1607:Drivers/STM32L4xx_HAL_Driver/Src/stm32l4xx_hal_smartcard.c ****      ERR (Frame error, noise error, overrun error) interrupts */
1608:Drivers/STM32L4xx_HAL_Driver/Src/stm32l4xx_hal_smartcard.c ****   CLEAR_BIT(hsmartcard->Instance->CR1,
1609:Drivers/STM32L4xx_HAL_Driver/Src/stm32l4xx_hal_smartcard.c ****             (USART_CR1_RXNEIE_RXFNEIE | USART_CR1_PEIE | USART_CR1_TXEIE_TXFNFIE | USART_CR1_TCIE |
