ARM GAS  /tmp/ccrDNuCE.s 			page 1


   1              		.cpu cortex-m4
   2              		.arch armv7e-m
   3              		.fpu fpv4-sp-d16
   4              		.eabi_attribute 27, 1
   5              		.eabi_attribute 28, 1
   6              		.eabi_attribute 20, 1
   7              		.eabi_attribute 21, 1
   8              		.eabi_attribute 23, 3
   9              		.eabi_attribute 24, 1
  10              		.eabi_attribute 25, 1
  11              		.eabi_attribute 26, 1
  12              		.eabi_attribute 30, 6
  13              		.eabi_attribute 34, 1
  14              		.eabi_attribute 18, 4
  15              		.file	"stm32l4xx_hal_dfsdm.c"
  16              		.text
  17              	.Ltext0:
  18              		.cfi_sections	.debug_frame
  19              		.file 1 "Drivers/STM32L4xx_HAL_Driver/Src/stm32l4xx_hal_dfsdm.c"
  20              		.section	.rodata.CHANNEL_OFFSET_TAB,"a"
  21              		.align	2
  24              	CHANNEL_OFFSET_TAB:
  25 0000 081C3044 		.ascii	"\010\0340DXl\200"
  25      586C80
  26              		.section	.bss.v_dfsdm1ChannelCounter,"aw",%nobits
  27              		.align	2
  30              	v_dfsdm1ChannelCounter:
  31 0000 00000000 		.space	4
  32              		.section	.bss.a_dfsdm1ChannelHandle,"aw",%nobits
  33              		.align	2
  36              	a_dfsdm1ChannelHandle:
  37 0000 00000000 		.space	32
  37      00000000 
  37      00000000 
  37      00000000 
  37      00000000 
  38              		.section	.text.HAL_DFSDM_ChannelInit,"ax",%progbits
  39              		.align	1
  40              		.global	HAL_DFSDM_ChannelInit
  41              		.syntax unified
  42              		.thumb
  43              		.thumb_func
  45              	HAL_DFSDM_ChannelInit:
  46              	.LFB445:
   1:Drivers/STM32L4xx_HAL_Driver/Src/stm32l4xx_hal_dfsdm.c **** /**
   2:Drivers/STM32L4xx_HAL_Driver/Src/stm32l4xx_hal_dfsdm.c ****   ******************************************************************************
   3:Drivers/STM32L4xx_HAL_Driver/Src/stm32l4xx_hal_dfsdm.c ****   * @file    stm32l4xx_hal_dfsdm.c
   4:Drivers/STM32L4xx_HAL_Driver/Src/stm32l4xx_hal_dfsdm.c ****   * @author  MCD Application Team
   5:Drivers/STM32L4xx_HAL_Driver/Src/stm32l4xx_hal_dfsdm.c ****   * @brief   This file provides firmware functions to manage the following
   6:Drivers/STM32L4xx_HAL_Driver/Src/stm32l4xx_hal_dfsdm.c ****   *          functionalities of the Digital Filter for Sigma-Delta Modulators
   7:Drivers/STM32L4xx_HAL_Driver/Src/stm32l4xx_hal_dfsdm.c ****   *          (DFSDM) peripherals:
   8:Drivers/STM32L4xx_HAL_Driver/Src/stm32l4xx_hal_dfsdm.c ****   *           + Initialization and configuration of channels and filters
   9:Drivers/STM32L4xx_HAL_Driver/Src/stm32l4xx_hal_dfsdm.c ****   *           + Regular channels configuration
  10:Drivers/STM32L4xx_HAL_Driver/Src/stm32l4xx_hal_dfsdm.c ****   *           + Injected channels configuration
  11:Drivers/STM32L4xx_HAL_Driver/Src/stm32l4xx_hal_dfsdm.c ****   *           + Regular/Injected Channels DMA Configuration
  12:Drivers/STM32L4xx_HAL_Driver/Src/stm32l4xx_hal_dfsdm.c ****   *           + Interrupts and flags management
  13:Drivers/STM32L4xx_HAL_Driver/Src/stm32l4xx_hal_dfsdm.c ****   *           + Analog watchdog feature
ARM GAS  /tmp/ccrDNuCE.s 			page 2


  14:Drivers/STM32L4xx_HAL_Driver/Src/stm32l4xx_hal_dfsdm.c ****   *           + Short-circuit detector feature
  15:Drivers/STM32L4xx_HAL_Driver/Src/stm32l4xx_hal_dfsdm.c ****   *           + Extremes detector feature
  16:Drivers/STM32L4xx_HAL_Driver/Src/stm32l4xx_hal_dfsdm.c ****   *           + Clock absence detector feature
  17:Drivers/STM32L4xx_HAL_Driver/Src/stm32l4xx_hal_dfsdm.c ****   *           + Break generation on analog watchdog or short-circuit event
  18:Drivers/STM32L4xx_HAL_Driver/Src/stm32l4xx_hal_dfsdm.c ****   *
  19:Drivers/STM32L4xx_HAL_Driver/Src/stm32l4xx_hal_dfsdm.c ****   ******************************************************************************
  20:Drivers/STM32L4xx_HAL_Driver/Src/stm32l4xx_hal_dfsdm.c ****   * @attention
  21:Drivers/STM32L4xx_HAL_Driver/Src/stm32l4xx_hal_dfsdm.c ****   *
  22:Drivers/STM32L4xx_HAL_Driver/Src/stm32l4xx_hal_dfsdm.c ****   * Copyright (c) 2017 STMicroelectronics.
  23:Drivers/STM32L4xx_HAL_Driver/Src/stm32l4xx_hal_dfsdm.c ****   * All rights reserved.
  24:Drivers/STM32L4xx_HAL_Driver/Src/stm32l4xx_hal_dfsdm.c ****   *
  25:Drivers/STM32L4xx_HAL_Driver/Src/stm32l4xx_hal_dfsdm.c ****   * This software is licensed under terms that can be found in the LICENSE file
  26:Drivers/STM32L4xx_HAL_Driver/Src/stm32l4xx_hal_dfsdm.c ****   * in the root directory of this software component.
  27:Drivers/STM32L4xx_HAL_Driver/Src/stm32l4xx_hal_dfsdm.c ****   * If no LICENSE file comes with this software, it is provided AS-IS.
  28:Drivers/STM32L4xx_HAL_Driver/Src/stm32l4xx_hal_dfsdm.c ****   *
  29:Drivers/STM32L4xx_HAL_Driver/Src/stm32l4xx_hal_dfsdm.c ****   ******************************************************************************
  30:Drivers/STM32L4xx_HAL_Driver/Src/stm32l4xx_hal_dfsdm.c ****   @verbatim
  31:Drivers/STM32L4xx_HAL_Driver/Src/stm32l4xx_hal_dfsdm.c ****   ==============================================================================
  32:Drivers/STM32L4xx_HAL_Driver/Src/stm32l4xx_hal_dfsdm.c ****                      ##### How to use this driver #####
  33:Drivers/STM32L4xx_HAL_Driver/Src/stm32l4xx_hal_dfsdm.c ****   ==============================================================================
  34:Drivers/STM32L4xx_HAL_Driver/Src/stm32l4xx_hal_dfsdm.c ****   [..]
  35:Drivers/STM32L4xx_HAL_Driver/Src/stm32l4xx_hal_dfsdm.c ****     *** Channel initialization ***
  36:Drivers/STM32L4xx_HAL_Driver/Src/stm32l4xx_hal_dfsdm.c ****     ==============================
  37:Drivers/STM32L4xx_HAL_Driver/Src/stm32l4xx_hal_dfsdm.c ****     [..]
  38:Drivers/STM32L4xx_HAL_Driver/Src/stm32l4xx_hal_dfsdm.c ****       (#) User has first to initialize channels (before filters initialization).
  39:Drivers/STM32L4xx_HAL_Driver/Src/stm32l4xx_hal_dfsdm.c ****       (#) As prerequisite, fill in the HAL_DFSDM_ChannelMspInit() :
  40:Drivers/STM32L4xx_HAL_Driver/Src/stm32l4xx_hal_dfsdm.c ****         (++) Enable DFSDMz clock interface with __HAL_RCC_DFSDMz_CLK_ENABLE().
  41:Drivers/STM32L4xx_HAL_Driver/Src/stm32l4xx_hal_dfsdm.c ****         (++) Enable the clocks for the DFSDMz GPIOS with __HAL_RCC_GPIOx_CLK_ENABLE().
  42:Drivers/STM32L4xx_HAL_Driver/Src/stm32l4xx_hal_dfsdm.c ****         (++) Configure these DFSDMz pins in alternate mode using HAL_GPIO_Init().
  43:Drivers/STM32L4xx_HAL_Driver/Src/stm32l4xx_hal_dfsdm.c ****         (++) If interrupt mode is used, enable and configure DFSDMz_FLT0 global
  44:Drivers/STM32L4xx_HAL_Driver/Src/stm32l4xx_hal_dfsdm.c ****             interrupt with HAL_NVIC_SetPriority() and HAL_NVIC_EnableIRQ().
  45:Drivers/STM32L4xx_HAL_Driver/Src/stm32l4xx_hal_dfsdm.c ****       (#) Configure the output clock, input, serial interface, analog watchdog,
  46:Drivers/STM32L4xx_HAL_Driver/Src/stm32l4xx_hal_dfsdm.c ****           offset and data right bit shift parameters for this channel using the
  47:Drivers/STM32L4xx_HAL_Driver/Src/stm32l4xx_hal_dfsdm.c ****           HAL_DFSDM_ChannelInit() function.
  48:Drivers/STM32L4xx_HAL_Driver/Src/stm32l4xx_hal_dfsdm.c **** 
  49:Drivers/STM32L4xx_HAL_Driver/Src/stm32l4xx_hal_dfsdm.c ****     *** Channel clock absence detector ***
  50:Drivers/STM32L4xx_HAL_Driver/Src/stm32l4xx_hal_dfsdm.c ****     ======================================
  51:Drivers/STM32L4xx_HAL_Driver/Src/stm32l4xx_hal_dfsdm.c ****     [..]
  52:Drivers/STM32L4xx_HAL_Driver/Src/stm32l4xx_hal_dfsdm.c ****       (#) Start clock absence detector using HAL_DFSDM_ChannelCkabStart() or
  53:Drivers/STM32L4xx_HAL_Driver/Src/stm32l4xx_hal_dfsdm.c ****           HAL_DFSDM_ChannelCkabStart_IT().
  54:Drivers/STM32L4xx_HAL_Driver/Src/stm32l4xx_hal_dfsdm.c ****       (#) In polling mode, use HAL_DFSDM_ChannelPollForCkab() to detect the clock
  55:Drivers/STM32L4xx_HAL_Driver/Src/stm32l4xx_hal_dfsdm.c ****           absence.
  56:Drivers/STM32L4xx_HAL_Driver/Src/stm32l4xx_hal_dfsdm.c ****       (#) In interrupt mode, HAL_DFSDM_ChannelCkabCallback() will be called if
  57:Drivers/STM32L4xx_HAL_Driver/Src/stm32l4xx_hal_dfsdm.c ****           clock absence is detected.
  58:Drivers/STM32L4xx_HAL_Driver/Src/stm32l4xx_hal_dfsdm.c ****       (#) Stop clock absence detector using HAL_DFSDM_ChannelCkabStop() or
  59:Drivers/STM32L4xx_HAL_Driver/Src/stm32l4xx_hal_dfsdm.c ****           HAL_DFSDM_ChannelCkabStop_IT().
  60:Drivers/STM32L4xx_HAL_Driver/Src/stm32l4xx_hal_dfsdm.c ****       (#) Please note that the same mode (polling or interrupt) has to be used
  61:Drivers/STM32L4xx_HAL_Driver/Src/stm32l4xx_hal_dfsdm.c ****           for all channels because the channels are sharing the same interrupt.
  62:Drivers/STM32L4xx_HAL_Driver/Src/stm32l4xx_hal_dfsdm.c ****       (#) Please note also that in interrupt mode, if clock absence detector is
  63:Drivers/STM32L4xx_HAL_Driver/Src/stm32l4xx_hal_dfsdm.c ****           stopped for one channel, interrupt will be disabled for all channels.
  64:Drivers/STM32L4xx_HAL_Driver/Src/stm32l4xx_hal_dfsdm.c **** 
  65:Drivers/STM32L4xx_HAL_Driver/Src/stm32l4xx_hal_dfsdm.c ****     *** Channel short circuit detector ***
  66:Drivers/STM32L4xx_HAL_Driver/Src/stm32l4xx_hal_dfsdm.c ****     ======================================
  67:Drivers/STM32L4xx_HAL_Driver/Src/stm32l4xx_hal_dfsdm.c ****     [..]
  68:Drivers/STM32L4xx_HAL_Driver/Src/stm32l4xx_hal_dfsdm.c ****       (#) Start short circuit detector using HAL_DFSDM_ChannelScdStart() or
  69:Drivers/STM32L4xx_HAL_Driver/Src/stm32l4xx_hal_dfsdm.c ****           or HAL_DFSDM_ChannelScdStart_IT().
  70:Drivers/STM32L4xx_HAL_Driver/Src/stm32l4xx_hal_dfsdm.c ****       (#) In polling mode, use HAL_DFSDM_ChannelPollForScd() to detect short
ARM GAS  /tmp/ccrDNuCE.s 			page 3


  71:Drivers/STM32L4xx_HAL_Driver/Src/stm32l4xx_hal_dfsdm.c ****           circuit.
  72:Drivers/STM32L4xx_HAL_Driver/Src/stm32l4xx_hal_dfsdm.c ****       (#) In interrupt mode, HAL_DFSDM_ChannelScdCallback() will be called if
  73:Drivers/STM32L4xx_HAL_Driver/Src/stm32l4xx_hal_dfsdm.c ****           short circuit is detected.
  74:Drivers/STM32L4xx_HAL_Driver/Src/stm32l4xx_hal_dfsdm.c ****       (#) Stop short circuit detector using HAL_DFSDM_ChannelScdStop() or
  75:Drivers/STM32L4xx_HAL_Driver/Src/stm32l4xx_hal_dfsdm.c ****           or HAL_DFSDM_ChannelScdStop_IT().
  76:Drivers/STM32L4xx_HAL_Driver/Src/stm32l4xx_hal_dfsdm.c ****       (#) Please note that the same mode (polling or interrupt) has to be used
  77:Drivers/STM32L4xx_HAL_Driver/Src/stm32l4xx_hal_dfsdm.c ****           for all channels because the channels are sharing the same interrupt.
  78:Drivers/STM32L4xx_HAL_Driver/Src/stm32l4xx_hal_dfsdm.c ****       (#) Please note also that in interrupt mode, if short circuit detector is
  79:Drivers/STM32L4xx_HAL_Driver/Src/stm32l4xx_hal_dfsdm.c ****           stopped for one channel, interrupt will be disabled for all channels.
  80:Drivers/STM32L4xx_HAL_Driver/Src/stm32l4xx_hal_dfsdm.c **** 
  81:Drivers/STM32L4xx_HAL_Driver/Src/stm32l4xx_hal_dfsdm.c ****     *** Channel analog watchdog value ***
  82:Drivers/STM32L4xx_HAL_Driver/Src/stm32l4xx_hal_dfsdm.c ****     =====================================
  83:Drivers/STM32L4xx_HAL_Driver/Src/stm32l4xx_hal_dfsdm.c ****     [..]
  84:Drivers/STM32L4xx_HAL_Driver/Src/stm32l4xx_hal_dfsdm.c ****       (#) Get analog watchdog filter value of a channel using
  85:Drivers/STM32L4xx_HAL_Driver/Src/stm32l4xx_hal_dfsdm.c ****           HAL_DFSDM_ChannelGetAwdValue().
  86:Drivers/STM32L4xx_HAL_Driver/Src/stm32l4xx_hal_dfsdm.c **** 
  87:Drivers/STM32L4xx_HAL_Driver/Src/stm32l4xx_hal_dfsdm.c ****     *** Channel offset value ***
  88:Drivers/STM32L4xx_HAL_Driver/Src/stm32l4xx_hal_dfsdm.c ****     =====================================
  89:Drivers/STM32L4xx_HAL_Driver/Src/stm32l4xx_hal_dfsdm.c ****     [..]
  90:Drivers/STM32L4xx_HAL_Driver/Src/stm32l4xx_hal_dfsdm.c ****       (#) Modify offset value of a channel using HAL_DFSDM_ChannelModifyOffset().
  91:Drivers/STM32L4xx_HAL_Driver/Src/stm32l4xx_hal_dfsdm.c **** 
  92:Drivers/STM32L4xx_HAL_Driver/Src/stm32l4xx_hal_dfsdm.c ****     *** Filter initialization ***
  93:Drivers/STM32L4xx_HAL_Driver/Src/stm32l4xx_hal_dfsdm.c ****     =============================
  94:Drivers/STM32L4xx_HAL_Driver/Src/stm32l4xx_hal_dfsdm.c ****     [..]
  95:Drivers/STM32L4xx_HAL_Driver/Src/stm32l4xx_hal_dfsdm.c ****       (#) After channel initialization, user has to init filters.
  96:Drivers/STM32L4xx_HAL_Driver/Src/stm32l4xx_hal_dfsdm.c ****       (#) As prerequisite, fill in the HAL_DFSDM_FilterMspInit() :
  97:Drivers/STM32L4xx_HAL_Driver/Src/stm32l4xx_hal_dfsdm.c ****         (++) If interrupt mode is used , enable and configure DFSDMz_FLTx global
  98:Drivers/STM32L4xx_HAL_Driver/Src/stm32l4xx_hal_dfsdm.c ****             interrupt with HAL_NVIC_SetPriority() and HAL_NVIC_EnableIRQ().
  99:Drivers/STM32L4xx_HAL_Driver/Src/stm32l4xx_hal_dfsdm.c ****             Please note that DFSDMz_FLT0 global interrupt could be already
 100:Drivers/STM32L4xx_HAL_Driver/Src/stm32l4xx_hal_dfsdm.c ****             enabled if interrupt is used for channel.
 101:Drivers/STM32L4xx_HAL_Driver/Src/stm32l4xx_hal_dfsdm.c ****         (++) If DMA mode is used, configure DMA with HAL_DMA_Init() and link it
 102:Drivers/STM32L4xx_HAL_Driver/Src/stm32l4xx_hal_dfsdm.c ****             with DFSDMz filter handle using __HAL_LINKDMA().
 103:Drivers/STM32L4xx_HAL_Driver/Src/stm32l4xx_hal_dfsdm.c ****       (#) Configure the regular conversion, injected conversion and filter
 104:Drivers/STM32L4xx_HAL_Driver/Src/stm32l4xx_hal_dfsdm.c ****           parameters for this filter using the HAL_DFSDM_FilterInit() function.
 105:Drivers/STM32L4xx_HAL_Driver/Src/stm32l4xx_hal_dfsdm.c **** 
 106:Drivers/STM32L4xx_HAL_Driver/Src/stm32l4xx_hal_dfsdm.c ****     *** Filter regular channel conversion ***
 107:Drivers/STM32L4xx_HAL_Driver/Src/stm32l4xx_hal_dfsdm.c ****     =========================================
 108:Drivers/STM32L4xx_HAL_Driver/Src/stm32l4xx_hal_dfsdm.c ****     [..]
 109:Drivers/STM32L4xx_HAL_Driver/Src/stm32l4xx_hal_dfsdm.c ****       (#) Select regular channel and enable/disable continuous mode using
 110:Drivers/STM32L4xx_HAL_Driver/Src/stm32l4xx_hal_dfsdm.c ****           HAL_DFSDM_FilterConfigRegChannel().
 111:Drivers/STM32L4xx_HAL_Driver/Src/stm32l4xx_hal_dfsdm.c ****       (#) Start regular conversion using HAL_DFSDM_FilterRegularStart(),
 112:Drivers/STM32L4xx_HAL_Driver/Src/stm32l4xx_hal_dfsdm.c ****           HAL_DFSDM_FilterRegularStart_IT(), HAL_DFSDM_FilterRegularStart_DMA() or
 113:Drivers/STM32L4xx_HAL_Driver/Src/stm32l4xx_hal_dfsdm.c ****           HAL_DFSDM_FilterRegularMsbStart_DMA().
 114:Drivers/STM32L4xx_HAL_Driver/Src/stm32l4xx_hal_dfsdm.c ****       (#) In polling mode, use HAL_DFSDM_FilterPollForRegConversion() to detect
 115:Drivers/STM32L4xx_HAL_Driver/Src/stm32l4xx_hal_dfsdm.c ****           the end of regular conversion.
 116:Drivers/STM32L4xx_HAL_Driver/Src/stm32l4xx_hal_dfsdm.c ****       (#) In interrupt mode, HAL_DFSDM_FilterRegConvCpltCallback() will be called
 117:Drivers/STM32L4xx_HAL_Driver/Src/stm32l4xx_hal_dfsdm.c ****           at the end of regular conversion.
 118:Drivers/STM32L4xx_HAL_Driver/Src/stm32l4xx_hal_dfsdm.c ****       (#) Get value of regular conversion and corresponding channel using
 119:Drivers/STM32L4xx_HAL_Driver/Src/stm32l4xx_hal_dfsdm.c ****           HAL_DFSDM_FilterGetRegularValue().
 120:Drivers/STM32L4xx_HAL_Driver/Src/stm32l4xx_hal_dfsdm.c ****       (#) In DMA mode, HAL_DFSDM_FilterRegConvHalfCpltCallback() and
 121:Drivers/STM32L4xx_HAL_Driver/Src/stm32l4xx_hal_dfsdm.c ****           HAL_DFSDM_FilterRegConvCpltCallback() will be called respectively at the
 122:Drivers/STM32L4xx_HAL_Driver/Src/stm32l4xx_hal_dfsdm.c ****           half transfer and at the transfer complete. Please note that
 123:Drivers/STM32L4xx_HAL_Driver/Src/stm32l4xx_hal_dfsdm.c ****           HAL_DFSDM_FilterRegConvHalfCpltCallback() will be called only in DMA
 124:Drivers/STM32L4xx_HAL_Driver/Src/stm32l4xx_hal_dfsdm.c ****           circular mode.
 125:Drivers/STM32L4xx_HAL_Driver/Src/stm32l4xx_hal_dfsdm.c ****       (#) Stop regular conversion using HAL_DFSDM_FilterRegularStop(),
 126:Drivers/STM32L4xx_HAL_Driver/Src/stm32l4xx_hal_dfsdm.c ****           HAL_DFSDM_FilterRegularStop_IT() or HAL_DFSDM_FilterRegularStop_DMA().
 127:Drivers/STM32L4xx_HAL_Driver/Src/stm32l4xx_hal_dfsdm.c **** 
ARM GAS  /tmp/ccrDNuCE.s 			page 4


 128:Drivers/STM32L4xx_HAL_Driver/Src/stm32l4xx_hal_dfsdm.c ****     *** Filter injected channels conversion ***
 129:Drivers/STM32L4xx_HAL_Driver/Src/stm32l4xx_hal_dfsdm.c ****     ===========================================
 130:Drivers/STM32L4xx_HAL_Driver/Src/stm32l4xx_hal_dfsdm.c ****     [..]
 131:Drivers/STM32L4xx_HAL_Driver/Src/stm32l4xx_hal_dfsdm.c ****       (#) Select injected channels using HAL_DFSDM_FilterConfigInjChannel().
 132:Drivers/STM32L4xx_HAL_Driver/Src/stm32l4xx_hal_dfsdm.c ****       (#) Start injected conversion using HAL_DFSDM_FilterInjectedStart(),
 133:Drivers/STM32L4xx_HAL_Driver/Src/stm32l4xx_hal_dfsdm.c ****           HAL_DFSDM_FilterInjectedStart_IT(), HAL_DFSDM_FilterInjectedStart_DMA() or
 134:Drivers/STM32L4xx_HAL_Driver/Src/stm32l4xx_hal_dfsdm.c ****           HAL_DFSDM_FilterInjectedMsbStart_DMA().
 135:Drivers/STM32L4xx_HAL_Driver/Src/stm32l4xx_hal_dfsdm.c ****       (#) In polling mode, use HAL_DFSDM_FilterPollForInjConversion() to detect
 136:Drivers/STM32L4xx_HAL_Driver/Src/stm32l4xx_hal_dfsdm.c ****           the end of injected conversion.
 137:Drivers/STM32L4xx_HAL_Driver/Src/stm32l4xx_hal_dfsdm.c ****       (#) In interrupt mode, HAL_DFSDM_FilterInjConvCpltCallback() will be called
 138:Drivers/STM32L4xx_HAL_Driver/Src/stm32l4xx_hal_dfsdm.c ****           at the end of injected conversion.
 139:Drivers/STM32L4xx_HAL_Driver/Src/stm32l4xx_hal_dfsdm.c ****       (#) Get value of injected conversion and corresponding channel using
 140:Drivers/STM32L4xx_HAL_Driver/Src/stm32l4xx_hal_dfsdm.c ****           HAL_DFSDM_FilterGetInjectedValue().
 141:Drivers/STM32L4xx_HAL_Driver/Src/stm32l4xx_hal_dfsdm.c ****       (#) In DMA mode, HAL_DFSDM_FilterInjConvHalfCpltCallback() and
 142:Drivers/STM32L4xx_HAL_Driver/Src/stm32l4xx_hal_dfsdm.c ****           HAL_DFSDM_FilterInjConvCpltCallback() will be called respectively at the
 143:Drivers/STM32L4xx_HAL_Driver/Src/stm32l4xx_hal_dfsdm.c ****           half transfer and at the transfer complete. Please note that
 144:Drivers/STM32L4xx_HAL_Driver/Src/stm32l4xx_hal_dfsdm.c ****           HAL_DFSDM_FilterInjConvCpltCallback() will be called only in DMA
 145:Drivers/STM32L4xx_HAL_Driver/Src/stm32l4xx_hal_dfsdm.c ****           circular mode.
 146:Drivers/STM32L4xx_HAL_Driver/Src/stm32l4xx_hal_dfsdm.c ****       (#) Stop injected conversion using HAL_DFSDM_FilterInjectedStop(),
 147:Drivers/STM32L4xx_HAL_Driver/Src/stm32l4xx_hal_dfsdm.c ****           HAL_DFSDM_FilterInjectedStop_IT() or HAL_DFSDM_FilterInjectedStop_DMA().
 148:Drivers/STM32L4xx_HAL_Driver/Src/stm32l4xx_hal_dfsdm.c **** 
 149:Drivers/STM32L4xx_HAL_Driver/Src/stm32l4xx_hal_dfsdm.c ****     *** Filter analog watchdog ***
 150:Drivers/STM32L4xx_HAL_Driver/Src/stm32l4xx_hal_dfsdm.c ****     ==============================
 151:Drivers/STM32L4xx_HAL_Driver/Src/stm32l4xx_hal_dfsdm.c ****     [..]
 152:Drivers/STM32L4xx_HAL_Driver/Src/stm32l4xx_hal_dfsdm.c ****       (#) Start filter analog watchdog using HAL_DFSDM_FilterAwdStart_IT().
 153:Drivers/STM32L4xx_HAL_Driver/Src/stm32l4xx_hal_dfsdm.c ****       (#) HAL_DFSDM_FilterAwdCallback() will be called if analog watchdog occurs.
 154:Drivers/STM32L4xx_HAL_Driver/Src/stm32l4xx_hal_dfsdm.c ****       (#) Stop filter analog watchdog using HAL_DFSDM_FilterAwdStop_IT().
 155:Drivers/STM32L4xx_HAL_Driver/Src/stm32l4xx_hal_dfsdm.c **** 
 156:Drivers/STM32L4xx_HAL_Driver/Src/stm32l4xx_hal_dfsdm.c ****     *** Filter extreme detector ***
 157:Drivers/STM32L4xx_HAL_Driver/Src/stm32l4xx_hal_dfsdm.c ****     ===============================
 158:Drivers/STM32L4xx_HAL_Driver/Src/stm32l4xx_hal_dfsdm.c ****     [..]
 159:Drivers/STM32L4xx_HAL_Driver/Src/stm32l4xx_hal_dfsdm.c ****       (#) Start filter extreme detector using HAL_DFSDM_FilterExdStart().
 160:Drivers/STM32L4xx_HAL_Driver/Src/stm32l4xx_hal_dfsdm.c ****       (#) Get extreme detector maximum value using HAL_DFSDM_FilterGetExdMaxValue().
 161:Drivers/STM32L4xx_HAL_Driver/Src/stm32l4xx_hal_dfsdm.c ****       (#) Get extreme detector minimum value using HAL_DFSDM_FilterGetExdMinValue().
 162:Drivers/STM32L4xx_HAL_Driver/Src/stm32l4xx_hal_dfsdm.c ****       (#) Start filter extreme detector using HAL_DFSDM_FilterExdStop().
 163:Drivers/STM32L4xx_HAL_Driver/Src/stm32l4xx_hal_dfsdm.c **** 
 164:Drivers/STM32L4xx_HAL_Driver/Src/stm32l4xx_hal_dfsdm.c ****     *** Filter conversion time ***
 165:Drivers/STM32L4xx_HAL_Driver/Src/stm32l4xx_hal_dfsdm.c ****     ==============================
 166:Drivers/STM32L4xx_HAL_Driver/Src/stm32l4xx_hal_dfsdm.c ****     [..]
 167:Drivers/STM32L4xx_HAL_Driver/Src/stm32l4xx_hal_dfsdm.c ****       (#) Get conversion time value using HAL_DFSDM_FilterGetConvTimeValue().
 168:Drivers/STM32L4xx_HAL_Driver/Src/stm32l4xx_hal_dfsdm.c **** 
 169:Drivers/STM32L4xx_HAL_Driver/Src/stm32l4xx_hal_dfsdm.c ****     *** Callback registration ***
 170:Drivers/STM32L4xx_HAL_Driver/Src/stm32l4xx_hal_dfsdm.c ****     =============================
 171:Drivers/STM32L4xx_HAL_Driver/Src/stm32l4xx_hal_dfsdm.c ****     [..]
 172:Drivers/STM32L4xx_HAL_Driver/Src/stm32l4xx_hal_dfsdm.c ****     The compilation define USE_HAL_DFSDM_REGISTER_CALLBACKS when set to 1
 173:Drivers/STM32L4xx_HAL_Driver/Src/stm32l4xx_hal_dfsdm.c ****     allows the user to configure dynamically the driver callbacks.
 174:Drivers/STM32L4xx_HAL_Driver/Src/stm32l4xx_hal_dfsdm.c ****     Use functions HAL_DFSDM_Channel_RegisterCallback(),
 175:Drivers/STM32L4xx_HAL_Driver/Src/stm32l4xx_hal_dfsdm.c ****     HAL_DFSDM_Filter_RegisterCallback() or
 176:Drivers/STM32L4xx_HAL_Driver/Src/stm32l4xx_hal_dfsdm.c ****     HAL_DFSDM_Filter_RegisterAwdCallback() to register a user callback.
 177:Drivers/STM32L4xx_HAL_Driver/Src/stm32l4xx_hal_dfsdm.c **** 
 178:Drivers/STM32L4xx_HAL_Driver/Src/stm32l4xx_hal_dfsdm.c ****     [..]
 179:Drivers/STM32L4xx_HAL_Driver/Src/stm32l4xx_hal_dfsdm.c ****     Function HAL_DFSDM_Channel_RegisterCallback() allows to register
 180:Drivers/STM32L4xx_HAL_Driver/Src/stm32l4xx_hal_dfsdm.c ****     following callbacks:
 181:Drivers/STM32L4xx_HAL_Driver/Src/stm32l4xx_hal_dfsdm.c ****       (+) CkabCallback      : DFSDM channel clock absence detection callback.
 182:Drivers/STM32L4xx_HAL_Driver/Src/stm32l4xx_hal_dfsdm.c ****       (+) ScdCallback       : DFSDM channel short circuit detection callback.
 183:Drivers/STM32L4xx_HAL_Driver/Src/stm32l4xx_hal_dfsdm.c ****       (+) MspInitCallback   : DFSDM channel MSP init callback.
 184:Drivers/STM32L4xx_HAL_Driver/Src/stm32l4xx_hal_dfsdm.c ****       (+) MspDeInitCallback : DFSDM channel MSP de-init callback.
ARM GAS  /tmp/ccrDNuCE.s 			page 5


 185:Drivers/STM32L4xx_HAL_Driver/Src/stm32l4xx_hal_dfsdm.c ****     [..]
 186:Drivers/STM32L4xx_HAL_Driver/Src/stm32l4xx_hal_dfsdm.c ****     This function takes as parameters the HAL peripheral handle, the Callback ID
 187:Drivers/STM32L4xx_HAL_Driver/Src/stm32l4xx_hal_dfsdm.c ****     and a pointer to the user callback function.
 188:Drivers/STM32L4xx_HAL_Driver/Src/stm32l4xx_hal_dfsdm.c **** 
 189:Drivers/STM32L4xx_HAL_Driver/Src/stm32l4xx_hal_dfsdm.c ****     [..]
 190:Drivers/STM32L4xx_HAL_Driver/Src/stm32l4xx_hal_dfsdm.c ****     Function HAL_DFSDM_Filter_RegisterCallback() allows to register
 191:Drivers/STM32L4xx_HAL_Driver/Src/stm32l4xx_hal_dfsdm.c ****     following callbacks:
 192:Drivers/STM32L4xx_HAL_Driver/Src/stm32l4xx_hal_dfsdm.c ****       (+) RegConvCpltCallback     : DFSDM filter regular conversion complete callback.
 193:Drivers/STM32L4xx_HAL_Driver/Src/stm32l4xx_hal_dfsdm.c ****       (+) RegConvHalfCpltCallback : DFSDM filter half regular conversion complete callback.
 194:Drivers/STM32L4xx_HAL_Driver/Src/stm32l4xx_hal_dfsdm.c ****       (+) InjConvCpltCallback     : DFSDM filter injected conversion complete callback.
 195:Drivers/STM32L4xx_HAL_Driver/Src/stm32l4xx_hal_dfsdm.c ****       (+) InjConvHalfCpltCallback : DFSDM filter half injected conversion complete callback.
 196:Drivers/STM32L4xx_HAL_Driver/Src/stm32l4xx_hal_dfsdm.c ****       (+) ErrorCallback           : DFSDM filter error callback.
 197:Drivers/STM32L4xx_HAL_Driver/Src/stm32l4xx_hal_dfsdm.c ****       (+) MspInitCallback         : DFSDM filter MSP init callback.
 198:Drivers/STM32L4xx_HAL_Driver/Src/stm32l4xx_hal_dfsdm.c ****       (+) MspDeInitCallback       : DFSDM filter MSP de-init callback.
 199:Drivers/STM32L4xx_HAL_Driver/Src/stm32l4xx_hal_dfsdm.c ****     [..]
 200:Drivers/STM32L4xx_HAL_Driver/Src/stm32l4xx_hal_dfsdm.c ****     This function takes as parameters the HAL peripheral handle, the Callback ID
 201:Drivers/STM32L4xx_HAL_Driver/Src/stm32l4xx_hal_dfsdm.c ****     and a pointer to the user callback function.
 202:Drivers/STM32L4xx_HAL_Driver/Src/stm32l4xx_hal_dfsdm.c **** 
 203:Drivers/STM32L4xx_HAL_Driver/Src/stm32l4xx_hal_dfsdm.c ****     [..]
 204:Drivers/STM32L4xx_HAL_Driver/Src/stm32l4xx_hal_dfsdm.c ****     For specific DFSDM filter analog watchdog callback use dedicated register callback:
 205:Drivers/STM32L4xx_HAL_Driver/Src/stm32l4xx_hal_dfsdm.c ****     HAL_DFSDM_Filter_RegisterAwdCallback().
 206:Drivers/STM32L4xx_HAL_Driver/Src/stm32l4xx_hal_dfsdm.c **** 
 207:Drivers/STM32L4xx_HAL_Driver/Src/stm32l4xx_hal_dfsdm.c ****     [..]
 208:Drivers/STM32L4xx_HAL_Driver/Src/stm32l4xx_hal_dfsdm.c ****     Use functions HAL_DFSDM_Channel_UnRegisterCallback() or
 209:Drivers/STM32L4xx_HAL_Driver/Src/stm32l4xx_hal_dfsdm.c ****     HAL_DFSDM_Filter_UnRegisterCallback() to reset a callback to the default
 210:Drivers/STM32L4xx_HAL_Driver/Src/stm32l4xx_hal_dfsdm.c ****     weak function.
 211:Drivers/STM32L4xx_HAL_Driver/Src/stm32l4xx_hal_dfsdm.c **** 
 212:Drivers/STM32L4xx_HAL_Driver/Src/stm32l4xx_hal_dfsdm.c ****     [..]
 213:Drivers/STM32L4xx_HAL_Driver/Src/stm32l4xx_hal_dfsdm.c ****     HAL_DFSDM_Channel_UnRegisterCallback() takes as parameters the HAL peripheral handle,
 214:Drivers/STM32L4xx_HAL_Driver/Src/stm32l4xx_hal_dfsdm.c ****     and the Callback ID.
 215:Drivers/STM32L4xx_HAL_Driver/Src/stm32l4xx_hal_dfsdm.c ****     [..]
 216:Drivers/STM32L4xx_HAL_Driver/Src/stm32l4xx_hal_dfsdm.c ****     This function allows to reset following callbacks:
 217:Drivers/STM32L4xx_HAL_Driver/Src/stm32l4xx_hal_dfsdm.c ****       (+) CkabCallback      : DFSDM channel clock absence detection callback.
 218:Drivers/STM32L4xx_HAL_Driver/Src/stm32l4xx_hal_dfsdm.c ****       (+) ScdCallback       : DFSDM channel short circuit detection callback.
 219:Drivers/STM32L4xx_HAL_Driver/Src/stm32l4xx_hal_dfsdm.c ****       (+) MspInitCallback   : DFSDM channel MSP init callback.
 220:Drivers/STM32L4xx_HAL_Driver/Src/stm32l4xx_hal_dfsdm.c ****       (+) MspDeInitCallback : DFSDM channel MSP de-init callback.
 221:Drivers/STM32L4xx_HAL_Driver/Src/stm32l4xx_hal_dfsdm.c **** 
 222:Drivers/STM32L4xx_HAL_Driver/Src/stm32l4xx_hal_dfsdm.c ****     [..]
 223:Drivers/STM32L4xx_HAL_Driver/Src/stm32l4xx_hal_dfsdm.c ****     HAL_DFSDM_Filter_UnRegisterCallback() takes as parameters the HAL peripheral handle,
 224:Drivers/STM32L4xx_HAL_Driver/Src/stm32l4xx_hal_dfsdm.c ****     and the Callback ID.
 225:Drivers/STM32L4xx_HAL_Driver/Src/stm32l4xx_hal_dfsdm.c ****     [..]
 226:Drivers/STM32L4xx_HAL_Driver/Src/stm32l4xx_hal_dfsdm.c ****     This function allows to reset following callbacks:
 227:Drivers/STM32L4xx_HAL_Driver/Src/stm32l4xx_hal_dfsdm.c ****       (+) RegConvCpltCallback     : DFSDM filter regular conversion complete callback.
 228:Drivers/STM32L4xx_HAL_Driver/Src/stm32l4xx_hal_dfsdm.c ****       (+) RegConvHalfCpltCallback : DFSDM filter half regular conversion complete callback.
 229:Drivers/STM32L4xx_HAL_Driver/Src/stm32l4xx_hal_dfsdm.c ****       (+) InjConvCpltCallback     : DFSDM filter injected conversion complete callback.
 230:Drivers/STM32L4xx_HAL_Driver/Src/stm32l4xx_hal_dfsdm.c ****       (+) InjConvHalfCpltCallback : DFSDM filter half injected conversion complete callback.
 231:Drivers/STM32L4xx_HAL_Driver/Src/stm32l4xx_hal_dfsdm.c ****       (+) ErrorCallback           : DFSDM filter error callback.
 232:Drivers/STM32L4xx_HAL_Driver/Src/stm32l4xx_hal_dfsdm.c ****       (+) MspInitCallback         : DFSDM filter MSP init callback.
 233:Drivers/STM32L4xx_HAL_Driver/Src/stm32l4xx_hal_dfsdm.c ****       (+) MspDeInitCallback       : DFSDM filter MSP de-init callback.
 234:Drivers/STM32L4xx_HAL_Driver/Src/stm32l4xx_hal_dfsdm.c **** 
 235:Drivers/STM32L4xx_HAL_Driver/Src/stm32l4xx_hal_dfsdm.c ****     [..]
 236:Drivers/STM32L4xx_HAL_Driver/Src/stm32l4xx_hal_dfsdm.c ****     For specific DFSDM filter analog watchdog callback use dedicated unregister callback:
 237:Drivers/STM32L4xx_HAL_Driver/Src/stm32l4xx_hal_dfsdm.c ****     HAL_DFSDM_Filter_UnRegisterAwdCallback().
 238:Drivers/STM32L4xx_HAL_Driver/Src/stm32l4xx_hal_dfsdm.c **** 
 239:Drivers/STM32L4xx_HAL_Driver/Src/stm32l4xx_hal_dfsdm.c ****     [..]
 240:Drivers/STM32L4xx_HAL_Driver/Src/stm32l4xx_hal_dfsdm.c ****     By default, after the call of init function and if the state is RESET
 241:Drivers/STM32L4xx_HAL_Driver/Src/stm32l4xx_hal_dfsdm.c ****     all callbacks are reset to the corresponding legacy weak functions:
ARM GAS  /tmp/ccrDNuCE.s 			page 6


 242:Drivers/STM32L4xx_HAL_Driver/Src/stm32l4xx_hal_dfsdm.c ****     examples HAL_DFSDM_ChannelScdCallback(), HAL_DFSDM_FilterErrorCallback().
 243:Drivers/STM32L4xx_HAL_Driver/Src/stm32l4xx_hal_dfsdm.c ****     Exception done for MspInit and MspDeInit callbacks that are respectively
 244:Drivers/STM32L4xx_HAL_Driver/Src/stm32l4xx_hal_dfsdm.c ****     reset to the legacy weak functions in the init and de-init only when these
 245:Drivers/STM32L4xx_HAL_Driver/Src/stm32l4xx_hal_dfsdm.c ****     callbacks are null (not registered beforehand).
 246:Drivers/STM32L4xx_HAL_Driver/Src/stm32l4xx_hal_dfsdm.c ****     If not, MspInit or MspDeInit are not null, the init and de-init keep and use
 247:Drivers/STM32L4xx_HAL_Driver/Src/stm32l4xx_hal_dfsdm.c ****     the user MspInit/MspDeInit callbacks (registered beforehand)
 248:Drivers/STM32L4xx_HAL_Driver/Src/stm32l4xx_hal_dfsdm.c **** 
 249:Drivers/STM32L4xx_HAL_Driver/Src/stm32l4xx_hal_dfsdm.c ****     [..]
 250:Drivers/STM32L4xx_HAL_Driver/Src/stm32l4xx_hal_dfsdm.c ****     Callbacks can be registered/unregistered in READY state only.
 251:Drivers/STM32L4xx_HAL_Driver/Src/stm32l4xx_hal_dfsdm.c ****     Exception done for MspInit/MspDeInit callbacks that can be registered/unregistered
 252:Drivers/STM32L4xx_HAL_Driver/Src/stm32l4xx_hal_dfsdm.c ****     in READY or RESET state, thus registered (user) MspInit/DeInit callbacks can be used
 253:Drivers/STM32L4xx_HAL_Driver/Src/stm32l4xx_hal_dfsdm.c ****     during the init/de-init.
 254:Drivers/STM32L4xx_HAL_Driver/Src/stm32l4xx_hal_dfsdm.c ****     In that case first register the MspInit/MspDeInit user callbacks using
 255:Drivers/STM32L4xx_HAL_Driver/Src/stm32l4xx_hal_dfsdm.c ****     HAL_DFSDM_Channel_RegisterCallback() or
 256:Drivers/STM32L4xx_HAL_Driver/Src/stm32l4xx_hal_dfsdm.c ****     HAL_DFSDM_Filter_RegisterCallback() before calling init or de-init function.
 257:Drivers/STM32L4xx_HAL_Driver/Src/stm32l4xx_hal_dfsdm.c **** 
 258:Drivers/STM32L4xx_HAL_Driver/Src/stm32l4xx_hal_dfsdm.c ****     [..]
 259:Drivers/STM32L4xx_HAL_Driver/Src/stm32l4xx_hal_dfsdm.c ****     When The compilation define USE_HAL_DFSDM_REGISTER_CALLBACKS is set to 0 or
 260:Drivers/STM32L4xx_HAL_Driver/Src/stm32l4xx_hal_dfsdm.c ****     not defined, the callback registering feature is not available
 261:Drivers/STM32L4xx_HAL_Driver/Src/stm32l4xx_hal_dfsdm.c ****     and weak callbacks are used.
 262:Drivers/STM32L4xx_HAL_Driver/Src/stm32l4xx_hal_dfsdm.c **** 
 263:Drivers/STM32L4xx_HAL_Driver/Src/stm32l4xx_hal_dfsdm.c ****     @endverbatim
 264:Drivers/STM32L4xx_HAL_Driver/Src/stm32l4xx_hal_dfsdm.c ****   ******************************************************************************
 265:Drivers/STM32L4xx_HAL_Driver/Src/stm32l4xx_hal_dfsdm.c ****   */
 266:Drivers/STM32L4xx_HAL_Driver/Src/stm32l4xx_hal_dfsdm.c **** 
 267:Drivers/STM32L4xx_HAL_Driver/Src/stm32l4xx_hal_dfsdm.c **** /* Includes ------------------------------------------------------------------*/
 268:Drivers/STM32L4xx_HAL_Driver/Src/stm32l4xx_hal_dfsdm.c **** #include "stm32l4xx_hal.h"
 269:Drivers/STM32L4xx_HAL_Driver/Src/stm32l4xx_hal_dfsdm.c **** 
 270:Drivers/STM32L4xx_HAL_Driver/Src/stm32l4xx_hal_dfsdm.c **** /** @addtogroup STM32L4xx_HAL_Driver
 271:Drivers/STM32L4xx_HAL_Driver/Src/stm32l4xx_hal_dfsdm.c ****   * @{
 272:Drivers/STM32L4xx_HAL_Driver/Src/stm32l4xx_hal_dfsdm.c ****   */
 273:Drivers/STM32L4xx_HAL_Driver/Src/stm32l4xx_hal_dfsdm.c **** #ifdef HAL_DFSDM_MODULE_ENABLED
 274:Drivers/STM32L4xx_HAL_Driver/Src/stm32l4xx_hal_dfsdm.c **** 
 275:Drivers/STM32L4xx_HAL_Driver/Src/stm32l4xx_hal_dfsdm.c **** #if defined(STM32L451xx) || defined(STM32L452xx) || defined(STM32L462xx) || \
 276:Drivers/STM32L4xx_HAL_Driver/Src/stm32l4xx_hal_dfsdm.c ****     defined(STM32L471xx) || defined(STM32L475xx) || defined(STM32L476xx) || defined(STM32L485xx) ||
 277:Drivers/STM32L4xx_HAL_Driver/Src/stm32l4xx_hal_dfsdm.c ****     defined(STM32L496xx) || defined(STM32L4A6xx) || \
 278:Drivers/STM32L4xx_HAL_Driver/Src/stm32l4xx_hal_dfsdm.c ****     defined(STM32L4R5xx) || defined(STM32L4R7xx) || defined(STM32L4R9xx) || defined(STM32L4S5xx) ||
 279:Drivers/STM32L4xx_HAL_Driver/Src/stm32l4xx_hal_dfsdm.c ****     defined(STM32L4P5xx) || defined(STM32L4Q5xx)
 280:Drivers/STM32L4xx_HAL_Driver/Src/stm32l4xx_hal_dfsdm.c **** 
 281:Drivers/STM32L4xx_HAL_Driver/Src/stm32l4xx_hal_dfsdm.c **** /** @defgroup DFSDM DFSDM
 282:Drivers/STM32L4xx_HAL_Driver/Src/stm32l4xx_hal_dfsdm.c ****   * @brief DFSDM HAL driver module
 283:Drivers/STM32L4xx_HAL_Driver/Src/stm32l4xx_hal_dfsdm.c ****   * @{
 284:Drivers/STM32L4xx_HAL_Driver/Src/stm32l4xx_hal_dfsdm.c ****   */
 285:Drivers/STM32L4xx_HAL_Driver/Src/stm32l4xx_hal_dfsdm.c **** 
 286:Drivers/STM32L4xx_HAL_Driver/Src/stm32l4xx_hal_dfsdm.c **** /* Private typedef -----------------------------------------------------------*/
 287:Drivers/STM32L4xx_HAL_Driver/Src/stm32l4xx_hal_dfsdm.c **** /* Private define ------------------------------------------------------------*/
 288:Drivers/STM32L4xx_HAL_Driver/Src/stm32l4xx_hal_dfsdm.c **** /** @defgroup DFSDM_Private_Define DFSDM Private Define
 289:Drivers/STM32L4xx_HAL_Driver/Src/stm32l4xx_hal_dfsdm.c ****  * @{
 290:Drivers/STM32L4xx_HAL_Driver/Src/stm32l4xx_hal_dfsdm.c ****  */
 291:Drivers/STM32L4xx_HAL_Driver/Src/stm32l4xx_hal_dfsdm.c **** #define DFSDM_FLTCR1_MSB_RCH_OFFSET     8
 292:Drivers/STM32L4xx_HAL_Driver/Src/stm32l4xx_hal_dfsdm.c **** #define DFSDM_MSB_MASK                  0xFFFF0000U
 293:Drivers/STM32L4xx_HAL_Driver/Src/stm32l4xx_hal_dfsdm.c **** #define DFSDM_LSB_MASK                  0x0000FFFFU
 294:Drivers/STM32L4xx_HAL_Driver/Src/stm32l4xx_hal_dfsdm.c **** #define DFSDM_CKAB_TIMEOUT              5000U
 295:Drivers/STM32L4xx_HAL_Driver/Src/stm32l4xx_hal_dfsdm.c **** #if defined(STM32L451xx) || defined(STM32L452xx) || defined(STM32L462xx) || \
 296:Drivers/STM32L4xx_HAL_Driver/Src/stm32l4xx_hal_dfsdm.c ****     defined(STM32L4P5xx) || defined(STM32L4Q5xx)
 297:Drivers/STM32L4xx_HAL_Driver/Src/stm32l4xx_hal_dfsdm.c **** #define DFSDM1_CHANNEL_NUMBER           4U
 298:Drivers/STM32L4xx_HAL_Driver/Src/stm32l4xx_hal_dfsdm.c **** #else /* STM32L451xx || STM32L452xx || STM32L462xx || STM32L4P5xx || STM32L4Q5xx */
ARM GAS  /tmp/ccrDNuCE.s 			page 7


 299:Drivers/STM32L4xx_HAL_Driver/Src/stm32l4xx_hal_dfsdm.c **** #define DFSDM1_CHANNEL_NUMBER           8U
 300:Drivers/STM32L4xx_HAL_Driver/Src/stm32l4xx_hal_dfsdm.c **** #endif /* STM32L451xx || STM32L452xx || STM32L462xx || STM32L4P5xx || STM32L4Q5xx */
 301:Drivers/STM32L4xx_HAL_Driver/Src/stm32l4xx_hal_dfsdm.c **** /**
 302:Drivers/STM32L4xx_HAL_Driver/Src/stm32l4xx_hal_dfsdm.c ****   * @}
 303:Drivers/STM32L4xx_HAL_Driver/Src/stm32l4xx_hal_dfsdm.c ****   */
 304:Drivers/STM32L4xx_HAL_Driver/Src/stm32l4xx_hal_dfsdm.c **** 
 305:Drivers/STM32L4xx_HAL_Driver/Src/stm32l4xx_hal_dfsdm.c **** /* Private macro -------------------------------------------------------------*/
 306:Drivers/STM32L4xx_HAL_Driver/Src/stm32l4xx_hal_dfsdm.c **** /* Private variables ---------------------------------------------------------*/
 307:Drivers/STM32L4xx_HAL_Driver/Src/stm32l4xx_hal_dfsdm.c **** /** @defgroup DFSDM_Private_Variables DFSDM Private Variables
 308:Drivers/STM32L4xx_HAL_Driver/Src/stm32l4xx_hal_dfsdm.c ****   * @{
 309:Drivers/STM32L4xx_HAL_Driver/Src/stm32l4xx_hal_dfsdm.c ****   */
 310:Drivers/STM32L4xx_HAL_Driver/Src/stm32l4xx_hal_dfsdm.c **** static __IO uint32_t                v_dfsdm1ChannelCounter = 0;
 311:Drivers/STM32L4xx_HAL_Driver/Src/stm32l4xx_hal_dfsdm.c **** static DFSDM_Channel_HandleTypeDef *a_dfsdm1ChannelHandle[DFSDM1_CHANNEL_NUMBER] = {NULL};
 312:Drivers/STM32L4xx_HAL_Driver/Src/stm32l4xx_hal_dfsdm.c **** /**
 313:Drivers/STM32L4xx_HAL_Driver/Src/stm32l4xx_hal_dfsdm.c ****   * @}
 314:Drivers/STM32L4xx_HAL_Driver/Src/stm32l4xx_hal_dfsdm.c ****   */
 315:Drivers/STM32L4xx_HAL_Driver/Src/stm32l4xx_hal_dfsdm.c **** 
 316:Drivers/STM32L4xx_HAL_Driver/Src/stm32l4xx_hal_dfsdm.c **** /* Private function prototypes -----------------------------------------------*/
 317:Drivers/STM32L4xx_HAL_Driver/Src/stm32l4xx_hal_dfsdm.c **** /** @defgroup DFSDM_Private_Functions DFSDM Private Functions
 318:Drivers/STM32L4xx_HAL_Driver/Src/stm32l4xx_hal_dfsdm.c ****   * @{
 319:Drivers/STM32L4xx_HAL_Driver/Src/stm32l4xx_hal_dfsdm.c ****   */
 320:Drivers/STM32L4xx_HAL_Driver/Src/stm32l4xx_hal_dfsdm.c **** static uint32_t DFSDM_GetInjChannelsNbr(uint32_t Channels);
 321:Drivers/STM32L4xx_HAL_Driver/Src/stm32l4xx_hal_dfsdm.c **** static uint32_t DFSDM_GetChannelFromInstance(const DFSDM_Channel_TypeDef *Instance);
 322:Drivers/STM32L4xx_HAL_Driver/Src/stm32l4xx_hal_dfsdm.c **** static void     DFSDM_RegConvStart(DFSDM_Filter_HandleTypeDef *hdfsdm_filter);
 323:Drivers/STM32L4xx_HAL_Driver/Src/stm32l4xx_hal_dfsdm.c **** static void     DFSDM_RegConvStop(DFSDM_Filter_HandleTypeDef *hdfsdm_filter);
 324:Drivers/STM32L4xx_HAL_Driver/Src/stm32l4xx_hal_dfsdm.c **** static void     DFSDM_InjConvStart(DFSDM_Filter_HandleTypeDef *hdfsdm_filter);
 325:Drivers/STM32L4xx_HAL_Driver/Src/stm32l4xx_hal_dfsdm.c **** static void     DFSDM_InjConvStop(DFSDM_Filter_HandleTypeDef *hdfsdm_filter);
 326:Drivers/STM32L4xx_HAL_Driver/Src/stm32l4xx_hal_dfsdm.c **** static void     DFSDM_DMARegularHalfConvCplt(DMA_HandleTypeDef *hdma);
 327:Drivers/STM32L4xx_HAL_Driver/Src/stm32l4xx_hal_dfsdm.c **** static void     DFSDM_DMARegularConvCplt(DMA_HandleTypeDef *hdma);
 328:Drivers/STM32L4xx_HAL_Driver/Src/stm32l4xx_hal_dfsdm.c **** static void     DFSDM_DMAInjectedHalfConvCplt(DMA_HandleTypeDef *hdma);
 329:Drivers/STM32L4xx_HAL_Driver/Src/stm32l4xx_hal_dfsdm.c **** static void     DFSDM_DMAInjectedConvCplt(DMA_HandleTypeDef *hdma);
 330:Drivers/STM32L4xx_HAL_Driver/Src/stm32l4xx_hal_dfsdm.c **** static void     DFSDM_DMAError(DMA_HandleTypeDef *hdma);
 331:Drivers/STM32L4xx_HAL_Driver/Src/stm32l4xx_hal_dfsdm.c **** /**
 332:Drivers/STM32L4xx_HAL_Driver/Src/stm32l4xx_hal_dfsdm.c ****   * @}
 333:Drivers/STM32L4xx_HAL_Driver/Src/stm32l4xx_hal_dfsdm.c ****   */
 334:Drivers/STM32L4xx_HAL_Driver/Src/stm32l4xx_hal_dfsdm.c **** 
 335:Drivers/STM32L4xx_HAL_Driver/Src/stm32l4xx_hal_dfsdm.c **** /* Exported functions --------------------------------------------------------*/
 336:Drivers/STM32L4xx_HAL_Driver/Src/stm32l4xx_hal_dfsdm.c **** /** @defgroup DFSDM_Exported_Functions DFSDM Exported Functions
 337:Drivers/STM32L4xx_HAL_Driver/Src/stm32l4xx_hal_dfsdm.c ****   * @{
 338:Drivers/STM32L4xx_HAL_Driver/Src/stm32l4xx_hal_dfsdm.c ****   */
 339:Drivers/STM32L4xx_HAL_Driver/Src/stm32l4xx_hal_dfsdm.c **** 
 340:Drivers/STM32L4xx_HAL_Driver/Src/stm32l4xx_hal_dfsdm.c **** /** @defgroup DFSDM_Exported_Functions_Group1_Channel Channel initialization and de-initialization 
 341:Drivers/STM32L4xx_HAL_Driver/Src/stm32l4xx_hal_dfsdm.c ****  *  @brief    Channel initialization and de-initialization functions
 342:Drivers/STM32L4xx_HAL_Driver/Src/stm32l4xx_hal_dfsdm.c ****  *
 343:Drivers/STM32L4xx_HAL_Driver/Src/stm32l4xx_hal_dfsdm.c **** @verbatim
 344:Drivers/STM32L4xx_HAL_Driver/Src/stm32l4xx_hal_dfsdm.c ****   ==============================================================================
 345:Drivers/STM32L4xx_HAL_Driver/Src/stm32l4xx_hal_dfsdm.c ****         ##### Channel initialization and de-initialization functions #####
 346:Drivers/STM32L4xx_HAL_Driver/Src/stm32l4xx_hal_dfsdm.c ****   ==============================================================================
 347:Drivers/STM32L4xx_HAL_Driver/Src/stm32l4xx_hal_dfsdm.c ****     [..]  This section provides functions allowing to:
 348:Drivers/STM32L4xx_HAL_Driver/Src/stm32l4xx_hal_dfsdm.c ****       (+) Initialize the DFSDM channel.
 349:Drivers/STM32L4xx_HAL_Driver/Src/stm32l4xx_hal_dfsdm.c ****       (+) De-initialize the DFSDM channel.
 350:Drivers/STM32L4xx_HAL_Driver/Src/stm32l4xx_hal_dfsdm.c **** @endverbatim
 351:Drivers/STM32L4xx_HAL_Driver/Src/stm32l4xx_hal_dfsdm.c ****   * @{
 352:Drivers/STM32L4xx_HAL_Driver/Src/stm32l4xx_hal_dfsdm.c ****   */
 353:Drivers/STM32L4xx_HAL_Driver/Src/stm32l4xx_hal_dfsdm.c **** 
 354:Drivers/STM32L4xx_HAL_Driver/Src/stm32l4xx_hal_dfsdm.c **** /**
 355:Drivers/STM32L4xx_HAL_Driver/Src/stm32l4xx_hal_dfsdm.c ****   * @brief  Initialize the DFSDM channel according to the specified parameters
ARM GAS  /tmp/ccrDNuCE.s 			page 8


 356:Drivers/STM32L4xx_HAL_Driver/Src/stm32l4xx_hal_dfsdm.c ****   *         in the DFSDM_ChannelInitTypeDef structure and initialize the associated handle.
 357:Drivers/STM32L4xx_HAL_Driver/Src/stm32l4xx_hal_dfsdm.c ****   * @param  hdfsdm_channel DFSDM channel handle.
 358:Drivers/STM32L4xx_HAL_Driver/Src/stm32l4xx_hal_dfsdm.c ****   * @retval HAL status.
 359:Drivers/STM32L4xx_HAL_Driver/Src/stm32l4xx_hal_dfsdm.c ****   */
 360:Drivers/STM32L4xx_HAL_Driver/Src/stm32l4xx_hal_dfsdm.c **** HAL_StatusTypeDef HAL_DFSDM_ChannelInit(DFSDM_Channel_HandleTypeDef *hdfsdm_channel)
 361:Drivers/STM32L4xx_HAL_Driver/Src/stm32l4xx_hal_dfsdm.c **** {
  47              		.loc 1 361 1
  48              		.cfi_startproc
  49              		@ args = 0, pretend = 0, frame = 8
  50              		@ frame_needed = 1, uses_anonymous_args = 0
  51 0000 80B5     		push	{r7, lr}
  52              		.cfi_def_cfa_offset 8
  53              		.cfi_offset 7, -8
  54              		.cfi_offset 14, -4
  55 0002 82B0     		sub	sp, sp, #8
  56              		.cfi_def_cfa_offset 16
  57 0004 00AF     		add	r7, sp, #0
  58              		.cfi_def_cfa_register 7
  59 0006 7860     		str	r0, [r7, #4]
 362:Drivers/STM32L4xx_HAL_Driver/Src/stm32l4xx_hal_dfsdm.c ****   /* Check DFSDM Channel handle */
 363:Drivers/STM32L4xx_HAL_Driver/Src/stm32l4xx_hal_dfsdm.c ****   if (hdfsdm_channel == NULL)
  60              		.loc 1 363 6
  61 0008 7B68     		ldr	r3, [r7, #4]
  62 000a 002B     		cmp	r3, #0
  63 000c 01D1     		bne	.L2
 364:Drivers/STM32L4xx_HAL_Driver/Src/stm32l4xx_hal_dfsdm.c ****   {
 365:Drivers/STM32L4xx_HAL_Driver/Src/stm32l4xx_hal_dfsdm.c ****     return HAL_ERROR;
  64              		.loc 1 365 12
  65 000e 0123     		movs	r3, #1
  66 0010 ACE0     		b	.L3
  67              	.L2:
 366:Drivers/STM32L4xx_HAL_Driver/Src/stm32l4xx_hal_dfsdm.c ****   }
 367:Drivers/STM32L4xx_HAL_Driver/Src/stm32l4xx_hal_dfsdm.c **** 
 368:Drivers/STM32L4xx_HAL_Driver/Src/stm32l4xx_hal_dfsdm.c ****   /* Check parameters */
 369:Drivers/STM32L4xx_HAL_Driver/Src/stm32l4xx_hal_dfsdm.c ****   assert_param(IS_DFSDM_CHANNEL_ALL_INSTANCE(hdfsdm_channel->Instance));
 370:Drivers/STM32L4xx_HAL_Driver/Src/stm32l4xx_hal_dfsdm.c ****   assert_param(IS_FUNCTIONAL_STATE(hdfsdm_channel->Init.OutputClock.Activation));
 371:Drivers/STM32L4xx_HAL_Driver/Src/stm32l4xx_hal_dfsdm.c ****   assert_param(IS_DFSDM_CHANNEL_INPUT(hdfsdm_channel->Init.Input.Multiplexer));
 372:Drivers/STM32L4xx_HAL_Driver/Src/stm32l4xx_hal_dfsdm.c ****   assert_param(IS_DFSDM_CHANNEL_DATA_PACKING(hdfsdm_channel->Init.Input.DataPacking));
 373:Drivers/STM32L4xx_HAL_Driver/Src/stm32l4xx_hal_dfsdm.c ****   assert_param(IS_DFSDM_CHANNEL_INPUT_PINS(hdfsdm_channel->Init.Input.Pins));
 374:Drivers/STM32L4xx_HAL_Driver/Src/stm32l4xx_hal_dfsdm.c ****   assert_param(IS_DFSDM_CHANNEL_SERIAL_INTERFACE_TYPE(hdfsdm_channel->Init.SerialInterface.Type));
 375:Drivers/STM32L4xx_HAL_Driver/Src/stm32l4xx_hal_dfsdm.c ****   assert_param(IS_DFSDM_CHANNEL_SPI_CLOCK(hdfsdm_channel->Init.SerialInterface.SpiClock));
 376:Drivers/STM32L4xx_HAL_Driver/Src/stm32l4xx_hal_dfsdm.c ****   assert_param(IS_DFSDM_CHANNEL_FILTER_ORDER(hdfsdm_channel->Init.Awd.FilterOrder));
 377:Drivers/STM32L4xx_HAL_Driver/Src/stm32l4xx_hal_dfsdm.c ****   assert_param(IS_DFSDM_CHANNEL_FILTER_OVS_RATIO(hdfsdm_channel->Init.Awd.Oversampling));
 378:Drivers/STM32L4xx_HAL_Driver/Src/stm32l4xx_hal_dfsdm.c ****   assert_param(IS_DFSDM_CHANNEL_OFFSET(hdfsdm_channel->Init.Offset));
 379:Drivers/STM32L4xx_HAL_Driver/Src/stm32l4xx_hal_dfsdm.c ****   assert_param(IS_DFSDM_CHANNEL_RIGHT_BIT_SHIFT(hdfsdm_channel->Init.RightBitShift));
 380:Drivers/STM32L4xx_HAL_Driver/Src/stm32l4xx_hal_dfsdm.c **** 
 381:Drivers/STM32L4xx_HAL_Driver/Src/stm32l4xx_hal_dfsdm.c ****   /* Check that channel has not been already initialized */
 382:Drivers/STM32L4xx_HAL_Driver/Src/stm32l4xx_hal_dfsdm.c ****   if (a_dfsdm1ChannelHandle[DFSDM_GetChannelFromInstance(hdfsdm_channel->Instance)] != NULL)
  68              		.loc 1 382 72
  69 0012 7B68     		ldr	r3, [r7, #4]
  70 0014 1B68     		ldr	r3, [r3]
  71              		.loc 1 382 29
  72 0016 1846     		mov	r0, r3
  73 0018 FFF7FEFF 		bl	DFSDM_GetChannelFromInstance
  74 001c 0346     		mov	r3, r0
  75              		.loc 1 382 28 discriminator 1
  76 001e 554A     		ldr	r2, .L7
ARM GAS  /tmp/ccrDNuCE.s 			page 9


  77 0020 52F82330 		ldr	r3, [r2, r3, lsl #2]
  78              		.loc 1 382 6 discriminator 1
  79 0024 002B     		cmp	r3, #0
  80 0026 01D0     		beq	.L4
 383:Drivers/STM32L4xx_HAL_Driver/Src/stm32l4xx_hal_dfsdm.c ****   {
 384:Drivers/STM32L4xx_HAL_Driver/Src/stm32l4xx_hal_dfsdm.c ****     return HAL_ERROR;
  81              		.loc 1 384 12
  82 0028 0123     		movs	r3, #1
  83 002a 9FE0     		b	.L3
  84              	.L4:
 385:Drivers/STM32L4xx_HAL_Driver/Src/stm32l4xx_hal_dfsdm.c ****   }
 386:Drivers/STM32L4xx_HAL_Driver/Src/stm32l4xx_hal_dfsdm.c **** 
 387:Drivers/STM32L4xx_HAL_Driver/Src/stm32l4xx_hal_dfsdm.c **** #if (USE_HAL_DFSDM_REGISTER_CALLBACKS == 1)
 388:Drivers/STM32L4xx_HAL_Driver/Src/stm32l4xx_hal_dfsdm.c ****   /* Reset callback pointers to the weak predefined callbacks */
 389:Drivers/STM32L4xx_HAL_Driver/Src/stm32l4xx_hal_dfsdm.c ****   hdfsdm_channel->CkabCallback = HAL_DFSDM_ChannelCkabCallback;
 390:Drivers/STM32L4xx_HAL_Driver/Src/stm32l4xx_hal_dfsdm.c ****   hdfsdm_channel->ScdCallback  = HAL_DFSDM_ChannelScdCallback;
 391:Drivers/STM32L4xx_HAL_Driver/Src/stm32l4xx_hal_dfsdm.c **** 
 392:Drivers/STM32L4xx_HAL_Driver/Src/stm32l4xx_hal_dfsdm.c ****   /* Call MSP init function */
 393:Drivers/STM32L4xx_HAL_Driver/Src/stm32l4xx_hal_dfsdm.c ****   if (hdfsdm_channel->MspInitCallback == NULL)
 394:Drivers/STM32L4xx_HAL_Driver/Src/stm32l4xx_hal_dfsdm.c ****   {
 395:Drivers/STM32L4xx_HAL_Driver/Src/stm32l4xx_hal_dfsdm.c ****     hdfsdm_channel->MspInitCallback = HAL_DFSDM_ChannelMspInit;
 396:Drivers/STM32L4xx_HAL_Driver/Src/stm32l4xx_hal_dfsdm.c ****   }
 397:Drivers/STM32L4xx_HAL_Driver/Src/stm32l4xx_hal_dfsdm.c ****   hdfsdm_channel->MspInitCallback(hdfsdm_channel);
 398:Drivers/STM32L4xx_HAL_Driver/Src/stm32l4xx_hal_dfsdm.c **** #else
 399:Drivers/STM32L4xx_HAL_Driver/Src/stm32l4xx_hal_dfsdm.c ****   /* Call MSP init function */
 400:Drivers/STM32L4xx_HAL_Driver/Src/stm32l4xx_hal_dfsdm.c ****   HAL_DFSDM_ChannelMspInit(hdfsdm_channel);
  85              		.loc 1 400 3
  86 002c 7868     		ldr	r0, [r7, #4]
  87 002e FFF7FEFF 		bl	HAL_DFSDM_ChannelMspInit
 401:Drivers/STM32L4xx_HAL_Driver/Src/stm32l4xx_hal_dfsdm.c **** #endif
 402:Drivers/STM32L4xx_HAL_Driver/Src/stm32l4xx_hal_dfsdm.c **** 
 403:Drivers/STM32L4xx_HAL_Driver/Src/stm32l4xx_hal_dfsdm.c ****   /* Update the channel counter */
 404:Drivers/STM32L4xx_HAL_Driver/Src/stm32l4xx_hal_dfsdm.c ****   v_dfsdm1ChannelCounter++;
  88              		.loc 1 404 25
  89 0032 514B     		ldr	r3, .L7+4
  90 0034 1B68     		ldr	r3, [r3]
  91 0036 0133     		adds	r3, r3, #1
  92 0038 4F4A     		ldr	r2, .L7+4
  93 003a 1360     		str	r3, [r2]
 405:Drivers/STM32L4xx_HAL_Driver/Src/stm32l4xx_hal_dfsdm.c **** 
 406:Drivers/STM32L4xx_HAL_Driver/Src/stm32l4xx_hal_dfsdm.c ****   /* Configure output serial clock and enable global DFSDM interface only for first channel */
 407:Drivers/STM32L4xx_HAL_Driver/Src/stm32l4xx_hal_dfsdm.c ****   if (v_dfsdm1ChannelCounter == 1U)
  94              		.loc 1 407 30
  95 003c 4E4B     		ldr	r3, .L7+4
  96 003e 1B68     		ldr	r3, [r3]
  97              		.loc 1 407 6
  98 0040 012B     		cmp	r3, #1
  99 0042 25D1     		bne	.L5
 408:Drivers/STM32L4xx_HAL_Driver/Src/stm32l4xx_hal_dfsdm.c ****   {
 409:Drivers/STM32L4xx_HAL_Driver/Src/stm32l4xx_hal_dfsdm.c ****     assert_param(IS_DFSDM_CHANNEL_OUTPUT_CLOCK(hdfsdm_channel->Init.OutputClock.Selection));
 410:Drivers/STM32L4xx_HAL_Driver/Src/stm32l4xx_hal_dfsdm.c ****     /* Set the output serial clock source */
 411:Drivers/STM32L4xx_HAL_Driver/Src/stm32l4xx_hal_dfsdm.c ****     DFSDM1_Channel0->CHCFGR1 &= ~(DFSDM_CHCFGR1_CKOUTSRC);
 100              		.loc 1 411 20
 101 0044 4D4B     		ldr	r3, .L7+8
 102 0046 1B68     		ldr	r3, [r3]
 103 0048 4C4A     		ldr	r2, .L7+8
 104              		.loc 1 411 30
ARM GAS  /tmp/ccrDNuCE.s 			page 10


 105 004a 23F08043 		bic	r3, r3, #1073741824
 106 004e 1360     		str	r3, [r2]
 412:Drivers/STM32L4xx_HAL_Driver/Src/stm32l4xx_hal_dfsdm.c ****     DFSDM1_Channel0->CHCFGR1 |= hdfsdm_channel->Init.OutputClock.Selection;
 107              		.loc 1 412 20
 108 0050 4A4B     		ldr	r3, .L7+8
 109 0052 1A68     		ldr	r2, [r3]
 110              		.loc 1 412 65
 111 0054 7B68     		ldr	r3, [r7, #4]
 112 0056 9B68     		ldr	r3, [r3, #8]
 113              		.loc 1 412 20
 114 0058 4849     		ldr	r1, .L7+8
 115              		.loc 1 412 30
 116 005a 1343     		orrs	r3, r3, r2
 117 005c 0B60     		str	r3, [r1]
 413:Drivers/STM32L4xx_HAL_Driver/Src/stm32l4xx_hal_dfsdm.c **** 
 414:Drivers/STM32L4xx_HAL_Driver/Src/stm32l4xx_hal_dfsdm.c ****     /* Reset clock divider */
 415:Drivers/STM32L4xx_HAL_Driver/Src/stm32l4xx_hal_dfsdm.c ****     DFSDM1_Channel0->CHCFGR1 &= ~(DFSDM_CHCFGR1_CKOUTDIV);
 118              		.loc 1 415 20
 119 005e 474B     		ldr	r3, .L7+8
 120 0060 1B68     		ldr	r3, [r3]
 121 0062 464A     		ldr	r2, .L7+8
 122              		.loc 1 415 30
 123 0064 23F47F03 		bic	r3, r3, #16711680
 124 0068 1360     		str	r3, [r2]
 416:Drivers/STM32L4xx_HAL_Driver/Src/stm32l4xx_hal_dfsdm.c ****     if (hdfsdm_channel->Init.OutputClock.Activation == ENABLE)
 125              		.loc 1 416 41
 126 006a 7B68     		ldr	r3, [r7, #4]
 127 006c 1B79     		ldrb	r3, [r3, #4]	@ zero_extendqisi2
 128              		.loc 1 416 8
 129 006e 012B     		cmp	r3, #1
 130 0070 08D1     		bne	.L6
 417:Drivers/STM32L4xx_HAL_Driver/Src/stm32l4xx_hal_dfsdm.c ****     {
 418:Drivers/STM32L4xx_HAL_Driver/Src/stm32l4xx_hal_dfsdm.c ****       assert_param(IS_DFSDM_CHANNEL_OUTPUT_CLOCK_DIVIDER(hdfsdm_channel->Init.OutputClock.Divider))
 419:Drivers/STM32L4xx_HAL_Driver/Src/stm32l4xx_hal_dfsdm.c ****       /* Set the output clock divider */
 420:Drivers/STM32L4xx_HAL_Driver/Src/stm32l4xx_hal_dfsdm.c ****       DFSDM1_Channel0->CHCFGR1 |= (uint32_t)((hdfsdm_channel->Init.OutputClock.Divider - 1U) <<
 131              		.loc 1 420 22
 132 0072 424B     		ldr	r3, .L7+8
 133 0074 1A68     		ldr	r2, [r3]
 134              		.loc 1 420 79
 135 0076 7B68     		ldr	r3, [r7, #4]
 136 0078 DB68     		ldr	r3, [r3, #12]
 137              		.loc 1 420 88
 138 007a 013B     		subs	r3, r3, #1
 139              		.loc 1 420 35
 140 007c 1B04     		lsls	r3, r3, #16
 141              		.loc 1 420 22
 142 007e 3F49     		ldr	r1, .L7+8
 143              		.loc 1 420 32
 144 0080 1343     		orrs	r3, r3, r2
 145 0082 0B60     		str	r3, [r1]
 146              	.L6:
 421:Drivers/STM32L4xx_HAL_Driver/Src/stm32l4xx_hal_dfsdm.c ****                                              DFSDM_CHCFGR1_CKOUTDIV_Pos);
 422:Drivers/STM32L4xx_HAL_Driver/Src/stm32l4xx_hal_dfsdm.c ****     }
 423:Drivers/STM32L4xx_HAL_Driver/Src/stm32l4xx_hal_dfsdm.c **** 
 424:Drivers/STM32L4xx_HAL_Driver/Src/stm32l4xx_hal_dfsdm.c ****     /* enable the DFSDM global interface */
 425:Drivers/STM32L4xx_HAL_Driver/Src/stm32l4xx_hal_dfsdm.c ****     DFSDM1_Channel0->CHCFGR1 |= DFSDM_CHCFGR1_DFSDMEN;
 147              		.loc 1 425 20
ARM GAS  /tmp/ccrDNuCE.s 			page 11


 148 0084 3D4B     		ldr	r3, .L7+8
 149 0086 1B68     		ldr	r3, [r3]
 150 0088 3C4A     		ldr	r2, .L7+8
 151              		.loc 1 425 30
 152 008a 43F00043 		orr	r3, r3, #-2147483648
 153 008e 1360     		str	r3, [r2]
 154              	.L5:
 426:Drivers/STM32L4xx_HAL_Driver/Src/stm32l4xx_hal_dfsdm.c ****   }
 427:Drivers/STM32L4xx_HAL_Driver/Src/stm32l4xx_hal_dfsdm.c **** 
 428:Drivers/STM32L4xx_HAL_Driver/Src/stm32l4xx_hal_dfsdm.c ****   /* Set channel input parameters */
 429:Drivers/STM32L4xx_HAL_Driver/Src/stm32l4xx_hal_dfsdm.c ****   hdfsdm_channel->Instance->CHCFGR1 &= ~(DFSDM_CHCFGR1_DATPACK | DFSDM_CHCFGR1_DATMPX |
 155              		.loc 1 429 17
 156 0090 7B68     		ldr	r3, [r7, #4]
 157 0092 1B68     		ldr	r3, [r3]
 158              		.loc 1 429 27
 159 0094 1A68     		ldr	r2, [r3]
 160              		.loc 1 429 17
 161 0096 7B68     		ldr	r3, [r7, #4]
 162 0098 1B68     		ldr	r3, [r3]
 163              		.loc 1 429 37
 164 009a 22F47142 		bic	r2, r2, #61696
 165 009e 1A60     		str	r2, [r3]
 430:Drivers/STM32L4xx_HAL_Driver/Src/stm32l4xx_hal_dfsdm.c ****                                          DFSDM_CHCFGR1_CHINSEL);
 431:Drivers/STM32L4xx_HAL_Driver/Src/stm32l4xx_hal_dfsdm.c ****   hdfsdm_channel->Instance->CHCFGR1 |= (hdfsdm_channel->Init.Input.Multiplexer |
 166              		.loc 1 431 17
 167 00a0 7B68     		ldr	r3, [r7, #4]
 168 00a2 1B68     		ldr	r3, [r3]
 169              		.loc 1 431 27
 170 00a4 1968     		ldr	r1, [r3]
 171              		.loc 1 431 67
 172 00a6 7B68     		ldr	r3, [r7, #4]
 173 00a8 1A69     		ldr	r2, [r3, #16]
 432:Drivers/STM32L4xx_HAL_Driver/Src/stm32l4xx_hal_dfsdm.c ****                                         hdfsdm_channel->Init.Input.DataPacking |
 174              		.loc 1 432 67
 175 00aa 7B68     		ldr	r3, [r7, #4]
 176 00ac 5B69     		ldr	r3, [r3, #20]
 431:Drivers/STM32L4xx_HAL_Driver/Src/stm32l4xx_hal_dfsdm.c ****                                         hdfsdm_channel->Init.Input.DataPacking |
 177              		.loc 1 431 80
 178 00ae 1A43     		orrs	r2, r2, r3
 433:Drivers/STM32L4xx_HAL_Driver/Src/stm32l4xx_hal_dfsdm.c ****                                         hdfsdm_channel->Init.Input.Pins);
 179              		.loc 1 433 67
 180 00b0 7B68     		ldr	r3, [r7, #4]
 181 00b2 9B69     		ldr	r3, [r3, #24]
 432:Drivers/STM32L4xx_HAL_Driver/Src/stm32l4xx_hal_dfsdm.c ****                                         hdfsdm_channel->Init.Input.DataPacking |
 182              		.loc 1 432 80
 183 00b4 1A43     		orrs	r2, r2, r3
 431:Drivers/STM32L4xx_HAL_Driver/Src/stm32l4xx_hal_dfsdm.c ****                                         hdfsdm_channel->Init.Input.DataPacking |
 184              		.loc 1 431 17
 185 00b6 7B68     		ldr	r3, [r7, #4]
 186 00b8 1B68     		ldr	r3, [r3]
 431:Drivers/STM32L4xx_HAL_Driver/Src/stm32l4xx_hal_dfsdm.c ****                                         hdfsdm_channel->Init.Input.DataPacking |
 187              		.loc 1 431 37
 188 00ba 0A43     		orrs	r2, r2, r1
 189 00bc 1A60     		str	r2, [r3]
 434:Drivers/STM32L4xx_HAL_Driver/Src/stm32l4xx_hal_dfsdm.c **** 
 435:Drivers/STM32L4xx_HAL_Driver/Src/stm32l4xx_hal_dfsdm.c ****   /* Set serial interface parameters */
 436:Drivers/STM32L4xx_HAL_Driver/Src/stm32l4xx_hal_dfsdm.c ****   hdfsdm_channel->Instance->CHCFGR1 &= ~(DFSDM_CHCFGR1_SITP | DFSDM_CHCFGR1_SPICKSEL);
ARM GAS  /tmp/ccrDNuCE.s 			page 12


 190              		.loc 1 436 17
 191 00be 7B68     		ldr	r3, [r7, #4]
 192 00c0 1B68     		ldr	r3, [r3]
 193              		.loc 1 436 27
 194 00c2 1A68     		ldr	r2, [r3]
 195              		.loc 1 436 17
 196 00c4 7B68     		ldr	r3, [r7, #4]
 197 00c6 1B68     		ldr	r3, [r3]
 198              		.loc 1 436 37
 199 00c8 22F00F02 		bic	r2, r2, #15
 200 00cc 1A60     		str	r2, [r3]
 437:Drivers/STM32L4xx_HAL_Driver/Src/stm32l4xx_hal_dfsdm.c ****   hdfsdm_channel->Instance->CHCFGR1 |= (hdfsdm_channel->Init.SerialInterface.Type |
 201              		.loc 1 437 17
 202 00ce 7B68     		ldr	r3, [r7, #4]
 203 00d0 1B68     		ldr	r3, [r3]
 204              		.loc 1 437 27
 205 00d2 1968     		ldr	r1, [r3]
 206              		.loc 1 437 77
 207 00d4 7B68     		ldr	r3, [r7, #4]
 208 00d6 DA69     		ldr	r2, [r3, #28]
 438:Drivers/STM32L4xx_HAL_Driver/Src/stm32l4xx_hal_dfsdm.c ****                                         hdfsdm_channel->Init.SerialInterface.SpiClock);
 209              		.loc 1 438 77
 210 00d8 7B68     		ldr	r3, [r7, #4]
 211 00da 1B6A     		ldr	r3, [r3, #32]
 437:Drivers/STM32L4xx_HAL_Driver/Src/stm32l4xx_hal_dfsdm.c ****   hdfsdm_channel->Instance->CHCFGR1 |= (hdfsdm_channel->Init.SerialInterface.Type |
 212              		.loc 1 437 83
 213 00dc 1A43     		orrs	r2, r2, r3
 437:Drivers/STM32L4xx_HAL_Driver/Src/stm32l4xx_hal_dfsdm.c ****   hdfsdm_channel->Instance->CHCFGR1 |= (hdfsdm_channel->Init.SerialInterface.Type |
 214              		.loc 1 437 17
 215 00de 7B68     		ldr	r3, [r7, #4]
 216 00e0 1B68     		ldr	r3, [r3]
 437:Drivers/STM32L4xx_HAL_Driver/Src/stm32l4xx_hal_dfsdm.c ****   hdfsdm_channel->Instance->CHCFGR1 |= (hdfsdm_channel->Init.SerialInterface.Type |
 217              		.loc 1 437 37
 218 00e2 0A43     		orrs	r2, r2, r1
 219 00e4 1A60     		str	r2, [r3]
 439:Drivers/STM32L4xx_HAL_Driver/Src/stm32l4xx_hal_dfsdm.c **** 
 440:Drivers/STM32L4xx_HAL_Driver/Src/stm32l4xx_hal_dfsdm.c ****   /* Set analog watchdog parameters */
 441:Drivers/STM32L4xx_HAL_Driver/Src/stm32l4xx_hal_dfsdm.c ****   hdfsdm_channel->Instance->CHAWSCDR &= ~(DFSDM_CHAWSCDR_AWFORD | DFSDM_CHAWSCDR_AWFOSR);
 220              		.loc 1 441 17
 221 00e6 7B68     		ldr	r3, [r7, #4]
 222 00e8 1B68     		ldr	r3, [r3]
 223              		.loc 1 441 27
 224 00ea 9A68     		ldr	r2, [r3, #8]
 225              		.loc 1 441 17
 226 00ec 7B68     		ldr	r3, [r7, #4]
 227 00ee 1B68     		ldr	r3, [r3]
 228              		.loc 1 441 38
 229 00f0 22F45F02 		bic	r2, r2, #14614528
 230 00f4 9A60     		str	r2, [r3, #8]
 442:Drivers/STM32L4xx_HAL_Driver/Src/stm32l4xx_hal_dfsdm.c ****   hdfsdm_channel->Instance->CHAWSCDR |= (hdfsdm_channel->Init.Awd.FilterOrder |
 231              		.loc 1 442 17
 232 00f6 7B68     		ldr	r3, [r7, #4]
 233 00f8 1B68     		ldr	r3, [r3]
 234              		.loc 1 442 27
 235 00fa 9968     		ldr	r1, [r3, #8]
 236              		.loc 1 442 66
 237 00fc 7B68     		ldr	r3, [r7, #4]
ARM GAS  /tmp/ccrDNuCE.s 			page 13


 238 00fe 5A6A     		ldr	r2, [r3, #36]
 443:Drivers/STM32L4xx_HAL_Driver/Src/stm32l4xx_hal_dfsdm.c ****                                          ((hdfsdm_channel->Init.Awd.Oversampling - 1U) << DFSDM_CHA
 239              		.loc 1 443 68
 240 0100 7B68     		ldr	r3, [r7, #4]
 241 0102 9B6A     		ldr	r3, [r3, #40]
 242              		.loc 1 443 82
 243 0104 013B     		subs	r3, r3, #1
 244              		.loc 1 443 88
 245 0106 1B04     		lsls	r3, r3, #16
 442:Drivers/STM32L4xx_HAL_Driver/Src/stm32l4xx_hal_dfsdm.c ****   hdfsdm_channel->Instance->CHAWSCDR |= (hdfsdm_channel->Init.Awd.FilterOrder |
 246              		.loc 1 442 79
 247 0108 1A43     		orrs	r2, r2, r3
 442:Drivers/STM32L4xx_HAL_Driver/Src/stm32l4xx_hal_dfsdm.c ****   hdfsdm_channel->Instance->CHAWSCDR |= (hdfsdm_channel->Init.Awd.FilterOrder |
 248              		.loc 1 442 17
 249 010a 7B68     		ldr	r3, [r7, #4]
 250 010c 1B68     		ldr	r3, [r3]
 442:Drivers/STM32L4xx_HAL_Driver/Src/stm32l4xx_hal_dfsdm.c ****   hdfsdm_channel->Instance->CHAWSCDR |= (hdfsdm_channel->Init.Awd.FilterOrder |
 251              		.loc 1 442 38
 252 010e 0A43     		orrs	r2, r2, r1
 253 0110 9A60     		str	r2, [r3, #8]
 444:Drivers/STM32L4xx_HAL_Driver/Src/stm32l4xx_hal_dfsdm.c **** 
 445:Drivers/STM32L4xx_HAL_Driver/Src/stm32l4xx_hal_dfsdm.c ****   /* Set channel offset and right bit shift */
 446:Drivers/STM32L4xx_HAL_Driver/Src/stm32l4xx_hal_dfsdm.c ****   hdfsdm_channel->Instance->CHCFGR2 &= ~(DFSDM_CHCFGR2_OFFSET | DFSDM_CHCFGR2_DTRBS);
 254              		.loc 1 446 17
 255 0112 7B68     		ldr	r3, [r7, #4]
 256 0114 1B68     		ldr	r3, [r3]
 257              		.loc 1 446 27
 258 0116 5A68     		ldr	r2, [r3, #4]
 259              		.loc 1 446 17
 260 0118 7B68     		ldr	r3, [r7, #4]
 261 011a 1B68     		ldr	r3, [r3]
 262              		.loc 1 446 37
 263 011c 02F00702 		and	r2, r2, #7
 264 0120 5A60     		str	r2, [r3, #4]
 447:Drivers/STM32L4xx_HAL_Driver/Src/stm32l4xx_hal_dfsdm.c ****   hdfsdm_channel->Instance->CHCFGR2 |= (((uint32_t) hdfsdm_channel->Init.Offset << DFSDM_CHCFGR2_OF
 265              		.loc 1 447 17
 266 0122 7B68     		ldr	r3, [r7, #4]
 267 0124 1B68     		ldr	r3, [r3]
 268              		.loc 1 447 27
 269 0126 5968     		ldr	r1, [r3, #4]
 270              		.loc 1 447 73
 271 0128 7B68     		ldr	r3, [r7, #4]
 272 012a DB6A     		ldr	r3, [r3, #44]
 273              		.loc 1 447 81
 274 012c 1A02     		lsls	r2, r3, #8
 448:Drivers/STM32L4xx_HAL_Driver/Src/stm32l4xx_hal_dfsdm.c ****                                         (hdfsdm_channel->Init.RightBitShift << DFSDM_CHCFGR2_DTRBS_
 275              		.loc 1 448 62
 276 012e 7B68     		ldr	r3, [r7, #4]
 277 0130 1B6B     		ldr	r3, [r3, #48]
 278              		.loc 1 448 77
 279 0132 DB00     		lsls	r3, r3, #3
 447:Drivers/STM32L4xx_HAL_Driver/Src/stm32l4xx_hal_dfsdm.c ****   hdfsdm_channel->Instance->CHCFGR2 |= (((uint32_t) hdfsdm_channel->Init.Offset << DFSDM_CHCFGR2_OF
 280              		.loc 1 447 110
 281 0134 1A43     		orrs	r2, r2, r3
 447:Drivers/STM32L4xx_HAL_Driver/Src/stm32l4xx_hal_dfsdm.c ****   hdfsdm_channel->Instance->CHCFGR2 |= (((uint32_t) hdfsdm_channel->Init.Offset << DFSDM_CHCFGR2_OF
 282              		.loc 1 447 17
 283 0136 7B68     		ldr	r3, [r7, #4]
ARM GAS  /tmp/ccrDNuCE.s 			page 14


 284 0138 1B68     		ldr	r3, [r3]
 447:Drivers/STM32L4xx_HAL_Driver/Src/stm32l4xx_hal_dfsdm.c ****   hdfsdm_channel->Instance->CHCFGR2 |= (((uint32_t) hdfsdm_channel->Init.Offset << DFSDM_CHCFGR2_OF
 285              		.loc 1 447 37
 286 013a 0A43     		orrs	r2, r2, r1
 287 013c 5A60     		str	r2, [r3, #4]
 449:Drivers/STM32L4xx_HAL_Driver/Src/stm32l4xx_hal_dfsdm.c **** 
 450:Drivers/STM32L4xx_HAL_Driver/Src/stm32l4xx_hal_dfsdm.c ****   /* Enable DFSDM channel */
 451:Drivers/STM32L4xx_HAL_Driver/Src/stm32l4xx_hal_dfsdm.c ****   hdfsdm_channel->Instance->CHCFGR1 |= DFSDM_CHCFGR1_CHEN;
 288              		.loc 1 451 17
 289 013e 7B68     		ldr	r3, [r7, #4]
 290 0140 1B68     		ldr	r3, [r3]
 291              		.loc 1 451 27
 292 0142 1A68     		ldr	r2, [r3]
 293              		.loc 1 451 17
 294 0144 7B68     		ldr	r3, [r7, #4]
 295 0146 1B68     		ldr	r3, [r3]
 296              		.loc 1 451 37
 297 0148 42F08002 		orr	r2, r2, #128
 298 014c 1A60     		str	r2, [r3]
 452:Drivers/STM32L4xx_HAL_Driver/Src/stm32l4xx_hal_dfsdm.c **** 
 453:Drivers/STM32L4xx_HAL_Driver/Src/stm32l4xx_hal_dfsdm.c ****   /* Set DFSDM Channel to ready state */
 454:Drivers/STM32L4xx_HAL_Driver/Src/stm32l4xx_hal_dfsdm.c ****   hdfsdm_channel->State = HAL_DFSDM_CHANNEL_STATE_READY;
 299              		.loc 1 454 25
 300 014e 7B68     		ldr	r3, [r7, #4]
 301 0150 0122     		movs	r2, #1
 302 0152 83F83420 		strb	r2, [r3, #52]
 455:Drivers/STM32L4xx_HAL_Driver/Src/stm32l4xx_hal_dfsdm.c **** 
 456:Drivers/STM32L4xx_HAL_Driver/Src/stm32l4xx_hal_dfsdm.c ****   /* Store channel handle in DFSDM channel handle table */
 457:Drivers/STM32L4xx_HAL_Driver/Src/stm32l4xx_hal_dfsdm.c ****   a_dfsdm1ChannelHandle[DFSDM_GetChannelFromInstance(hdfsdm_channel->Instance)] = hdfsdm_channel;
 303              		.loc 1 457 68
 304 0156 7B68     		ldr	r3, [r7, #4]
 305 0158 1B68     		ldr	r3, [r3]
 306              		.loc 1 457 25
 307 015a 1846     		mov	r0, r3
 308 015c FFF7FEFF 		bl	DFSDM_GetChannelFromInstance
 309 0160 0246     		mov	r2, r0
 310              		.loc 1 457 81 discriminator 1
 311 0162 0449     		ldr	r1, .L7
 312 0164 7B68     		ldr	r3, [r7, #4]
 313 0166 41F82230 		str	r3, [r1, r2, lsl #2]
 458:Drivers/STM32L4xx_HAL_Driver/Src/stm32l4xx_hal_dfsdm.c **** 
 459:Drivers/STM32L4xx_HAL_Driver/Src/stm32l4xx_hal_dfsdm.c ****   return HAL_OK;
 314              		.loc 1 459 10
 315 016a 0023     		movs	r3, #0
 316              	.L3:
 460:Drivers/STM32L4xx_HAL_Driver/Src/stm32l4xx_hal_dfsdm.c **** }
 317              		.loc 1 460 1
 318 016c 1846     		mov	r0, r3
 319 016e 0837     		adds	r7, r7, #8
 320              		.cfi_def_cfa_offset 8
 321 0170 BD46     		mov	sp, r7
 322              		.cfi_def_cfa_register 13
 323              		@ sp needed
 324 0172 80BD     		pop	{r7, pc}
 325              	.L8:
 326              		.align	2
 327              	.L7:
ARM GAS  /tmp/ccrDNuCE.s 			page 15


 328 0174 00000000 		.word	a_dfsdm1ChannelHandle
 329 0178 00000000 		.word	v_dfsdm1ChannelCounter
 330 017c 00600140 		.word	1073831936
 331              		.cfi_endproc
 332              	.LFE445:
 334              		.section	.text.HAL_DFSDM_ChannelDeInit,"ax",%progbits
 335              		.align	1
 336              		.global	HAL_DFSDM_ChannelDeInit
 337              		.syntax unified
 338              		.thumb
 339              		.thumb_func
 341              	HAL_DFSDM_ChannelDeInit:
 342              	.LFB446:
 461:Drivers/STM32L4xx_HAL_Driver/Src/stm32l4xx_hal_dfsdm.c **** 
 462:Drivers/STM32L4xx_HAL_Driver/Src/stm32l4xx_hal_dfsdm.c **** /**
 463:Drivers/STM32L4xx_HAL_Driver/Src/stm32l4xx_hal_dfsdm.c ****   * @brief  De-initialize the DFSDM channel.
 464:Drivers/STM32L4xx_HAL_Driver/Src/stm32l4xx_hal_dfsdm.c ****   * @param  hdfsdm_channel DFSDM channel handle.
 465:Drivers/STM32L4xx_HAL_Driver/Src/stm32l4xx_hal_dfsdm.c ****   * @retval HAL status.
 466:Drivers/STM32L4xx_HAL_Driver/Src/stm32l4xx_hal_dfsdm.c ****   */
 467:Drivers/STM32L4xx_HAL_Driver/Src/stm32l4xx_hal_dfsdm.c **** HAL_StatusTypeDef HAL_DFSDM_ChannelDeInit(DFSDM_Channel_HandleTypeDef *hdfsdm_channel)
 468:Drivers/STM32L4xx_HAL_Driver/Src/stm32l4xx_hal_dfsdm.c **** {
 343              		.loc 1 468 1
 344              		.cfi_startproc
 345              		@ args = 0, pretend = 0, frame = 8
 346              		@ frame_needed = 1, uses_anonymous_args = 0
 347 0000 80B5     		push	{r7, lr}
 348              		.cfi_def_cfa_offset 8
 349              		.cfi_offset 7, -8
 350              		.cfi_offset 14, -4
 351 0002 82B0     		sub	sp, sp, #8
 352              		.cfi_def_cfa_offset 16
 353 0004 00AF     		add	r7, sp, #0
 354              		.cfi_def_cfa_register 7
 355 0006 7860     		str	r0, [r7, #4]
 469:Drivers/STM32L4xx_HAL_Driver/Src/stm32l4xx_hal_dfsdm.c ****   /* Check DFSDM Channel handle */
 470:Drivers/STM32L4xx_HAL_Driver/Src/stm32l4xx_hal_dfsdm.c ****   if (hdfsdm_channel == NULL)
 356              		.loc 1 470 6
 357 0008 7B68     		ldr	r3, [r7, #4]
 358 000a 002B     		cmp	r3, #0
 359 000c 01D1     		bne	.L10
 471:Drivers/STM32L4xx_HAL_Driver/Src/stm32l4xx_hal_dfsdm.c ****   {
 472:Drivers/STM32L4xx_HAL_Driver/Src/stm32l4xx_hal_dfsdm.c ****     return HAL_ERROR;
 360              		.loc 1 472 12
 361 000e 0123     		movs	r3, #1
 362 0010 35E0     		b	.L11
 363              	.L10:
 473:Drivers/STM32L4xx_HAL_Driver/Src/stm32l4xx_hal_dfsdm.c ****   }
 474:Drivers/STM32L4xx_HAL_Driver/Src/stm32l4xx_hal_dfsdm.c **** 
 475:Drivers/STM32L4xx_HAL_Driver/Src/stm32l4xx_hal_dfsdm.c ****   /* Check parameters */
 476:Drivers/STM32L4xx_HAL_Driver/Src/stm32l4xx_hal_dfsdm.c ****   assert_param(IS_DFSDM_CHANNEL_ALL_INSTANCE(hdfsdm_channel->Instance));
 477:Drivers/STM32L4xx_HAL_Driver/Src/stm32l4xx_hal_dfsdm.c **** 
 478:Drivers/STM32L4xx_HAL_Driver/Src/stm32l4xx_hal_dfsdm.c ****   /* Check that channel has not been already deinitialized */
 479:Drivers/STM32L4xx_HAL_Driver/Src/stm32l4xx_hal_dfsdm.c ****   if (a_dfsdm1ChannelHandle[DFSDM_GetChannelFromInstance(hdfsdm_channel->Instance)] == NULL)
 364              		.loc 1 479 72
 365 0012 7B68     		ldr	r3, [r7, #4]
 366 0014 1B68     		ldr	r3, [r3]
 367              		.loc 1 479 29
ARM GAS  /tmp/ccrDNuCE.s 			page 16


 368 0016 1846     		mov	r0, r3
 369 0018 FFF7FEFF 		bl	DFSDM_GetChannelFromInstance
 370 001c 0346     		mov	r3, r0
 371              		.loc 1 479 28 discriminator 1
 372 001e 1A4A     		ldr	r2, .L14
 373 0020 52F82330 		ldr	r3, [r2, r3, lsl #2]
 374              		.loc 1 479 6 discriminator 1
 375 0024 002B     		cmp	r3, #0
 376 0026 01D1     		bne	.L12
 480:Drivers/STM32L4xx_HAL_Driver/Src/stm32l4xx_hal_dfsdm.c ****   {
 481:Drivers/STM32L4xx_HAL_Driver/Src/stm32l4xx_hal_dfsdm.c ****     return HAL_ERROR;
 377              		.loc 1 481 12
 378 0028 0123     		movs	r3, #1
 379 002a 28E0     		b	.L11
 380              	.L12:
 482:Drivers/STM32L4xx_HAL_Driver/Src/stm32l4xx_hal_dfsdm.c ****   }
 483:Drivers/STM32L4xx_HAL_Driver/Src/stm32l4xx_hal_dfsdm.c **** 
 484:Drivers/STM32L4xx_HAL_Driver/Src/stm32l4xx_hal_dfsdm.c ****   /* Disable the DFSDM channel */
 485:Drivers/STM32L4xx_HAL_Driver/Src/stm32l4xx_hal_dfsdm.c ****   hdfsdm_channel->Instance->CHCFGR1 &= ~(DFSDM_CHCFGR1_CHEN);
 381              		.loc 1 485 17
 382 002c 7B68     		ldr	r3, [r7, #4]
 383 002e 1B68     		ldr	r3, [r3]
 384              		.loc 1 485 27
 385 0030 1A68     		ldr	r2, [r3]
 386              		.loc 1 485 17
 387 0032 7B68     		ldr	r3, [r7, #4]
 388 0034 1B68     		ldr	r3, [r3]
 389              		.loc 1 485 37
 390 0036 22F08002 		bic	r2, r2, #128
 391 003a 1A60     		str	r2, [r3]
 486:Drivers/STM32L4xx_HAL_Driver/Src/stm32l4xx_hal_dfsdm.c **** 
 487:Drivers/STM32L4xx_HAL_Driver/Src/stm32l4xx_hal_dfsdm.c ****   /* Update the channel counter */
 488:Drivers/STM32L4xx_HAL_Driver/Src/stm32l4xx_hal_dfsdm.c ****   v_dfsdm1ChannelCounter--;
 392              		.loc 1 488 25
 393 003c 134B     		ldr	r3, .L14+4
 394 003e 1B68     		ldr	r3, [r3]
 395 0040 013B     		subs	r3, r3, #1
 396 0042 124A     		ldr	r2, .L14+4
 397 0044 1360     		str	r3, [r2]
 489:Drivers/STM32L4xx_HAL_Driver/Src/stm32l4xx_hal_dfsdm.c **** 
 490:Drivers/STM32L4xx_HAL_Driver/Src/stm32l4xx_hal_dfsdm.c ****   /* Disable global DFSDM at deinit of last channel */
 491:Drivers/STM32L4xx_HAL_Driver/Src/stm32l4xx_hal_dfsdm.c ****   if (v_dfsdm1ChannelCounter == 0U)
 398              		.loc 1 491 30
 399 0046 114B     		ldr	r3, .L14+4
 400 0048 1B68     		ldr	r3, [r3]
 401              		.loc 1 491 6
 402 004a 002B     		cmp	r3, #0
 403 004c 05D1     		bne	.L13
 492:Drivers/STM32L4xx_HAL_Driver/Src/stm32l4xx_hal_dfsdm.c ****   {
 493:Drivers/STM32L4xx_HAL_Driver/Src/stm32l4xx_hal_dfsdm.c ****     DFSDM1_Channel0->CHCFGR1 &= ~(DFSDM_CHCFGR1_DFSDMEN);
 404              		.loc 1 493 20
 405 004e 104B     		ldr	r3, .L14+8
 406 0050 1B68     		ldr	r3, [r3]
 407 0052 0F4A     		ldr	r2, .L14+8
 408              		.loc 1 493 30
 409 0054 23F00043 		bic	r3, r3, #-2147483648
 410 0058 1360     		str	r3, [r2]
ARM GAS  /tmp/ccrDNuCE.s 			page 17


 411              	.L13:
 494:Drivers/STM32L4xx_HAL_Driver/Src/stm32l4xx_hal_dfsdm.c ****   }
 495:Drivers/STM32L4xx_HAL_Driver/Src/stm32l4xx_hal_dfsdm.c **** 
 496:Drivers/STM32L4xx_HAL_Driver/Src/stm32l4xx_hal_dfsdm.c ****   /* Call MSP deinit function */
 497:Drivers/STM32L4xx_HAL_Driver/Src/stm32l4xx_hal_dfsdm.c **** #if (USE_HAL_DFSDM_REGISTER_CALLBACKS == 1)
 498:Drivers/STM32L4xx_HAL_Driver/Src/stm32l4xx_hal_dfsdm.c ****   if (hdfsdm_channel->MspDeInitCallback == NULL)
 499:Drivers/STM32L4xx_HAL_Driver/Src/stm32l4xx_hal_dfsdm.c ****   {
 500:Drivers/STM32L4xx_HAL_Driver/Src/stm32l4xx_hal_dfsdm.c ****     hdfsdm_channel->MspDeInitCallback = HAL_DFSDM_ChannelMspDeInit;
 501:Drivers/STM32L4xx_HAL_Driver/Src/stm32l4xx_hal_dfsdm.c ****   }
 502:Drivers/STM32L4xx_HAL_Driver/Src/stm32l4xx_hal_dfsdm.c ****   hdfsdm_channel->MspDeInitCallback(hdfsdm_channel);
 503:Drivers/STM32L4xx_HAL_Driver/Src/stm32l4xx_hal_dfsdm.c **** #else
 504:Drivers/STM32L4xx_HAL_Driver/Src/stm32l4xx_hal_dfsdm.c ****   HAL_DFSDM_ChannelMspDeInit(hdfsdm_channel);
 412              		.loc 1 504 3
 413 005a 7868     		ldr	r0, [r7, #4]
 414 005c FFF7FEFF 		bl	HAL_DFSDM_ChannelMspDeInit
 505:Drivers/STM32L4xx_HAL_Driver/Src/stm32l4xx_hal_dfsdm.c **** #endif
 506:Drivers/STM32L4xx_HAL_Driver/Src/stm32l4xx_hal_dfsdm.c **** 
 507:Drivers/STM32L4xx_HAL_Driver/Src/stm32l4xx_hal_dfsdm.c ****   /* Set DFSDM Channel in reset state */
 508:Drivers/STM32L4xx_HAL_Driver/Src/stm32l4xx_hal_dfsdm.c ****   hdfsdm_channel->State = HAL_DFSDM_CHANNEL_STATE_RESET;
 415              		.loc 1 508 25
 416 0060 7B68     		ldr	r3, [r7, #4]
 417 0062 0022     		movs	r2, #0
 418 0064 83F83420 		strb	r2, [r3, #52]
 509:Drivers/STM32L4xx_HAL_Driver/Src/stm32l4xx_hal_dfsdm.c **** 
 510:Drivers/STM32L4xx_HAL_Driver/Src/stm32l4xx_hal_dfsdm.c ****   /* Reset channel handle in DFSDM channel handle table */
 511:Drivers/STM32L4xx_HAL_Driver/Src/stm32l4xx_hal_dfsdm.c ****   a_dfsdm1ChannelHandle[DFSDM_GetChannelFromInstance(hdfsdm_channel->Instance)] = (DFSDM_Channel_Ha
 419              		.loc 1 511 68
 420 0068 7B68     		ldr	r3, [r7, #4]
 421 006a 1B68     		ldr	r3, [r3]
 422              		.loc 1 511 25
 423 006c 1846     		mov	r0, r3
 424 006e FFF7FEFF 		bl	DFSDM_GetChannelFromInstance
 425 0072 0346     		mov	r3, r0
 426              		.loc 1 511 81 discriminator 1
 427 0074 044A     		ldr	r2, .L14
 428 0076 0021     		movs	r1, #0
 429 0078 42F82310 		str	r1, [r2, r3, lsl #2]
 512:Drivers/STM32L4xx_HAL_Driver/Src/stm32l4xx_hal_dfsdm.c **** 
 513:Drivers/STM32L4xx_HAL_Driver/Src/stm32l4xx_hal_dfsdm.c ****   return HAL_OK;
 430              		.loc 1 513 10
 431 007c 0023     		movs	r3, #0
 432              	.L11:
 514:Drivers/STM32L4xx_HAL_Driver/Src/stm32l4xx_hal_dfsdm.c **** }
 433              		.loc 1 514 1
 434 007e 1846     		mov	r0, r3
 435 0080 0837     		adds	r7, r7, #8
 436              		.cfi_def_cfa_offset 8
 437 0082 BD46     		mov	sp, r7
 438              		.cfi_def_cfa_register 13
 439              		@ sp needed
 440 0084 80BD     		pop	{r7, pc}
 441              	.L15:
 442 0086 00BF     		.align	2
 443              	.L14:
 444 0088 00000000 		.word	a_dfsdm1ChannelHandle
 445 008c 00000000 		.word	v_dfsdm1ChannelCounter
 446 0090 00600140 		.word	1073831936
ARM GAS  /tmp/ccrDNuCE.s 			page 18


 447              		.cfi_endproc
 448              	.LFE446:
 450              		.section	.text.HAL_DFSDM_ChannelMspInit,"ax",%progbits
 451              		.align	1
 452              		.weak	HAL_DFSDM_ChannelMspInit
 453              		.syntax unified
 454              		.thumb
 455              		.thumb_func
 457              	HAL_DFSDM_ChannelMspInit:
 458              	.LFB447:
 515:Drivers/STM32L4xx_HAL_Driver/Src/stm32l4xx_hal_dfsdm.c **** 
 516:Drivers/STM32L4xx_HAL_Driver/Src/stm32l4xx_hal_dfsdm.c **** /**
 517:Drivers/STM32L4xx_HAL_Driver/Src/stm32l4xx_hal_dfsdm.c ****   * @brief  Initialize the DFSDM channel MSP.
 518:Drivers/STM32L4xx_HAL_Driver/Src/stm32l4xx_hal_dfsdm.c ****   * @param  hdfsdm_channel DFSDM channel handle.
 519:Drivers/STM32L4xx_HAL_Driver/Src/stm32l4xx_hal_dfsdm.c ****   * @retval None
 520:Drivers/STM32L4xx_HAL_Driver/Src/stm32l4xx_hal_dfsdm.c ****   */
 521:Drivers/STM32L4xx_HAL_Driver/Src/stm32l4xx_hal_dfsdm.c **** __weak void HAL_DFSDM_ChannelMspInit(DFSDM_Channel_HandleTypeDef *hdfsdm_channel)
 522:Drivers/STM32L4xx_HAL_Driver/Src/stm32l4xx_hal_dfsdm.c **** {
 459              		.loc 1 522 1
 460              		.cfi_startproc
 461              		@ args = 0, pretend = 0, frame = 8
 462              		@ frame_needed = 1, uses_anonymous_args = 0
 463              		@ link register save eliminated.
 464 0000 80B4     		push	{r7}
 465              		.cfi_def_cfa_offset 4
 466              		.cfi_offset 7, -4
 467 0002 83B0     		sub	sp, sp, #12
 468              		.cfi_def_cfa_offset 16
 469 0004 00AF     		add	r7, sp, #0
 470              		.cfi_def_cfa_register 7
 471 0006 7860     		str	r0, [r7, #4]
 523:Drivers/STM32L4xx_HAL_Driver/Src/stm32l4xx_hal_dfsdm.c ****   /* Prevent unused argument(s) compilation warning */
 524:Drivers/STM32L4xx_HAL_Driver/Src/stm32l4xx_hal_dfsdm.c ****   UNUSED(hdfsdm_channel);
 525:Drivers/STM32L4xx_HAL_Driver/Src/stm32l4xx_hal_dfsdm.c **** 
 526:Drivers/STM32L4xx_HAL_Driver/Src/stm32l4xx_hal_dfsdm.c ****   /* NOTE : This function should not be modified, when the function is needed,
 527:Drivers/STM32L4xx_HAL_Driver/Src/stm32l4xx_hal_dfsdm.c ****             the HAL_DFSDM_ChannelMspInit could be implemented in the user file.
 528:Drivers/STM32L4xx_HAL_Driver/Src/stm32l4xx_hal_dfsdm.c ****    */
 529:Drivers/STM32L4xx_HAL_Driver/Src/stm32l4xx_hal_dfsdm.c **** }
 472              		.loc 1 529 1
 473 0008 00BF     		nop
 474 000a 0C37     		adds	r7, r7, #12
 475              		.cfi_def_cfa_offset 4
 476 000c BD46     		mov	sp, r7
 477              		.cfi_def_cfa_register 13
 478              		@ sp needed
 479 000e 5DF8047B 		ldr	r7, [sp], #4
 480              		.cfi_restore 7
 481              		.cfi_def_cfa_offset 0
 482 0012 7047     		bx	lr
 483              		.cfi_endproc
 484              	.LFE447:
 486              		.section	.text.HAL_DFSDM_ChannelMspDeInit,"ax",%progbits
 487              		.align	1
 488              		.weak	HAL_DFSDM_ChannelMspDeInit
 489              		.syntax unified
 490              		.thumb
 491              		.thumb_func
ARM GAS  /tmp/ccrDNuCE.s 			page 19


 493              	HAL_DFSDM_ChannelMspDeInit:
 494              	.LFB448:
 530:Drivers/STM32L4xx_HAL_Driver/Src/stm32l4xx_hal_dfsdm.c **** 
 531:Drivers/STM32L4xx_HAL_Driver/Src/stm32l4xx_hal_dfsdm.c **** /**
 532:Drivers/STM32L4xx_HAL_Driver/Src/stm32l4xx_hal_dfsdm.c ****   * @brief  De-initialize the DFSDM channel MSP.
 533:Drivers/STM32L4xx_HAL_Driver/Src/stm32l4xx_hal_dfsdm.c ****   * @param  hdfsdm_channel DFSDM channel handle.
 534:Drivers/STM32L4xx_HAL_Driver/Src/stm32l4xx_hal_dfsdm.c ****   * @retval None
 535:Drivers/STM32L4xx_HAL_Driver/Src/stm32l4xx_hal_dfsdm.c ****   */
 536:Drivers/STM32L4xx_HAL_Driver/Src/stm32l4xx_hal_dfsdm.c **** __weak void HAL_DFSDM_ChannelMspDeInit(DFSDM_Channel_HandleTypeDef *hdfsdm_channel)
 537:Drivers/STM32L4xx_HAL_Driver/Src/stm32l4xx_hal_dfsdm.c **** {
 495              		.loc 1 537 1
 496              		.cfi_startproc
 497              		@ args = 0, pretend = 0, frame = 8
 498              		@ frame_needed = 1, uses_anonymous_args = 0
 499              		@ link register save eliminated.
 500 0000 80B4     		push	{r7}
 501              		.cfi_def_cfa_offset 4
 502              		.cfi_offset 7, -4
 503 0002 83B0     		sub	sp, sp, #12
 504              		.cfi_def_cfa_offset 16
 505 0004 00AF     		add	r7, sp, #0
 506              		.cfi_def_cfa_register 7
 507 0006 7860     		str	r0, [r7, #4]
 538:Drivers/STM32L4xx_HAL_Driver/Src/stm32l4xx_hal_dfsdm.c ****   /* Prevent unused argument(s) compilation warning */
 539:Drivers/STM32L4xx_HAL_Driver/Src/stm32l4xx_hal_dfsdm.c ****   UNUSED(hdfsdm_channel);
 540:Drivers/STM32L4xx_HAL_Driver/Src/stm32l4xx_hal_dfsdm.c **** 
 541:Drivers/STM32L4xx_HAL_Driver/Src/stm32l4xx_hal_dfsdm.c ****   /* NOTE : This function should not be modified, when the function is needed,
 542:Drivers/STM32L4xx_HAL_Driver/Src/stm32l4xx_hal_dfsdm.c ****             the HAL_DFSDM_ChannelMspDeInit could be implemented in the user file.
 543:Drivers/STM32L4xx_HAL_Driver/Src/stm32l4xx_hal_dfsdm.c ****    */
 544:Drivers/STM32L4xx_HAL_Driver/Src/stm32l4xx_hal_dfsdm.c **** }
 508              		.loc 1 544 1
 509 0008 00BF     		nop
 510 000a 0C37     		adds	r7, r7, #12
 511              		.cfi_def_cfa_offset 4
 512 000c BD46     		mov	sp, r7
 513              		.cfi_def_cfa_register 13
 514              		@ sp needed
 515 000e 5DF8047B 		ldr	r7, [sp], #4
 516              		.cfi_restore 7
 517              		.cfi_def_cfa_offset 0
 518 0012 7047     		bx	lr
 519              		.cfi_endproc
 520              	.LFE448:
 522              		.section	.text.HAL_DFSDM_ChannelCkabStart,"ax",%progbits
 523              		.align	1
 524              		.global	HAL_DFSDM_ChannelCkabStart
 525              		.syntax unified
 526              		.thumb
 527              		.thumb_func
 529              	HAL_DFSDM_ChannelCkabStart:
 530              	.LFB449:
 545:Drivers/STM32L4xx_HAL_Driver/Src/stm32l4xx_hal_dfsdm.c **** 
 546:Drivers/STM32L4xx_HAL_Driver/Src/stm32l4xx_hal_dfsdm.c **** #if (USE_HAL_DFSDM_REGISTER_CALLBACKS == 1)
 547:Drivers/STM32L4xx_HAL_Driver/Src/stm32l4xx_hal_dfsdm.c **** /**
 548:Drivers/STM32L4xx_HAL_Driver/Src/stm32l4xx_hal_dfsdm.c ****   * @brief  Register a user DFSDM channel callback
 549:Drivers/STM32L4xx_HAL_Driver/Src/stm32l4xx_hal_dfsdm.c ****   *         to be used instead of the weak predefined callback.
 550:Drivers/STM32L4xx_HAL_Driver/Src/stm32l4xx_hal_dfsdm.c ****   * @param  hdfsdm_channel DFSDM channel handle.
ARM GAS  /tmp/ccrDNuCE.s 			page 20


 551:Drivers/STM32L4xx_HAL_Driver/Src/stm32l4xx_hal_dfsdm.c ****   * @param  CallbackID ID of the callback to be registered.
 552:Drivers/STM32L4xx_HAL_Driver/Src/stm32l4xx_hal_dfsdm.c ****   *         This parameter can be one of the following values:
 553:Drivers/STM32L4xx_HAL_Driver/Src/stm32l4xx_hal_dfsdm.c ****   *           @arg @ref HAL_DFSDM_CHANNEL_CKAB_CB_ID clock absence detection callback ID.
 554:Drivers/STM32L4xx_HAL_Driver/Src/stm32l4xx_hal_dfsdm.c ****   *           @arg @ref HAL_DFSDM_CHANNEL_SCD_CB_ID short circuit detection callback ID.
 555:Drivers/STM32L4xx_HAL_Driver/Src/stm32l4xx_hal_dfsdm.c ****   *           @arg @ref HAL_DFSDM_CHANNEL_MSPINIT_CB_ID MSP init callback ID.
 556:Drivers/STM32L4xx_HAL_Driver/Src/stm32l4xx_hal_dfsdm.c ****   *           @arg @ref HAL_DFSDM_CHANNEL_MSPDEINIT_CB_ID MSP de-init callback ID.
 557:Drivers/STM32L4xx_HAL_Driver/Src/stm32l4xx_hal_dfsdm.c ****   * @param  pCallback pointer to the callback function.
 558:Drivers/STM32L4xx_HAL_Driver/Src/stm32l4xx_hal_dfsdm.c ****   * @retval HAL status.
 559:Drivers/STM32L4xx_HAL_Driver/Src/stm32l4xx_hal_dfsdm.c ****   */
 560:Drivers/STM32L4xx_HAL_Driver/Src/stm32l4xx_hal_dfsdm.c **** HAL_StatusTypeDef HAL_DFSDM_Channel_RegisterCallback(DFSDM_Channel_HandleTypeDef        *hdfsdm_cha
 561:Drivers/STM32L4xx_HAL_Driver/Src/stm32l4xx_hal_dfsdm.c ****                                                      HAL_DFSDM_Channel_CallbackIDTypeDef CallbackID
 562:Drivers/STM32L4xx_HAL_Driver/Src/stm32l4xx_hal_dfsdm.c ****                                                      pDFSDM_Channel_CallbackTypeDef      pCallback)
 563:Drivers/STM32L4xx_HAL_Driver/Src/stm32l4xx_hal_dfsdm.c **** {
 564:Drivers/STM32L4xx_HAL_Driver/Src/stm32l4xx_hal_dfsdm.c ****   HAL_StatusTypeDef status = HAL_OK;
 565:Drivers/STM32L4xx_HAL_Driver/Src/stm32l4xx_hal_dfsdm.c **** 
 566:Drivers/STM32L4xx_HAL_Driver/Src/stm32l4xx_hal_dfsdm.c ****   if (pCallback == NULL)
 567:Drivers/STM32L4xx_HAL_Driver/Src/stm32l4xx_hal_dfsdm.c ****   {
 568:Drivers/STM32L4xx_HAL_Driver/Src/stm32l4xx_hal_dfsdm.c ****     /* update return status */
 569:Drivers/STM32L4xx_HAL_Driver/Src/stm32l4xx_hal_dfsdm.c ****     status = HAL_ERROR;
 570:Drivers/STM32L4xx_HAL_Driver/Src/stm32l4xx_hal_dfsdm.c ****   }
 571:Drivers/STM32L4xx_HAL_Driver/Src/stm32l4xx_hal_dfsdm.c ****   else
 572:Drivers/STM32L4xx_HAL_Driver/Src/stm32l4xx_hal_dfsdm.c ****   {
 573:Drivers/STM32L4xx_HAL_Driver/Src/stm32l4xx_hal_dfsdm.c ****     if (HAL_DFSDM_CHANNEL_STATE_READY == hdfsdm_channel->State)
 574:Drivers/STM32L4xx_HAL_Driver/Src/stm32l4xx_hal_dfsdm.c ****     {
 575:Drivers/STM32L4xx_HAL_Driver/Src/stm32l4xx_hal_dfsdm.c ****       switch (CallbackID)
 576:Drivers/STM32L4xx_HAL_Driver/Src/stm32l4xx_hal_dfsdm.c ****       {
 577:Drivers/STM32L4xx_HAL_Driver/Src/stm32l4xx_hal_dfsdm.c ****         case HAL_DFSDM_CHANNEL_CKAB_CB_ID :
 578:Drivers/STM32L4xx_HAL_Driver/Src/stm32l4xx_hal_dfsdm.c ****           hdfsdm_channel->CkabCallback = pCallback;
 579:Drivers/STM32L4xx_HAL_Driver/Src/stm32l4xx_hal_dfsdm.c ****           break;
 580:Drivers/STM32L4xx_HAL_Driver/Src/stm32l4xx_hal_dfsdm.c ****         case HAL_DFSDM_CHANNEL_SCD_CB_ID :
 581:Drivers/STM32L4xx_HAL_Driver/Src/stm32l4xx_hal_dfsdm.c ****           hdfsdm_channel->ScdCallback = pCallback;
 582:Drivers/STM32L4xx_HAL_Driver/Src/stm32l4xx_hal_dfsdm.c ****           break;
 583:Drivers/STM32L4xx_HAL_Driver/Src/stm32l4xx_hal_dfsdm.c ****         case HAL_DFSDM_CHANNEL_MSPINIT_CB_ID :
 584:Drivers/STM32L4xx_HAL_Driver/Src/stm32l4xx_hal_dfsdm.c ****           hdfsdm_channel->MspInitCallback = pCallback;
 585:Drivers/STM32L4xx_HAL_Driver/Src/stm32l4xx_hal_dfsdm.c ****           break;
 586:Drivers/STM32L4xx_HAL_Driver/Src/stm32l4xx_hal_dfsdm.c ****         case HAL_DFSDM_CHANNEL_MSPDEINIT_CB_ID :
 587:Drivers/STM32L4xx_HAL_Driver/Src/stm32l4xx_hal_dfsdm.c ****           hdfsdm_channel->MspDeInitCallback = pCallback;
 588:Drivers/STM32L4xx_HAL_Driver/Src/stm32l4xx_hal_dfsdm.c ****           break;
 589:Drivers/STM32L4xx_HAL_Driver/Src/stm32l4xx_hal_dfsdm.c ****         default :
 590:Drivers/STM32L4xx_HAL_Driver/Src/stm32l4xx_hal_dfsdm.c ****           /* update return status */
 591:Drivers/STM32L4xx_HAL_Driver/Src/stm32l4xx_hal_dfsdm.c ****           status = HAL_ERROR;
 592:Drivers/STM32L4xx_HAL_Driver/Src/stm32l4xx_hal_dfsdm.c ****           break;
 593:Drivers/STM32L4xx_HAL_Driver/Src/stm32l4xx_hal_dfsdm.c ****       }
 594:Drivers/STM32L4xx_HAL_Driver/Src/stm32l4xx_hal_dfsdm.c ****     }
 595:Drivers/STM32L4xx_HAL_Driver/Src/stm32l4xx_hal_dfsdm.c ****     else if (HAL_DFSDM_CHANNEL_STATE_RESET == hdfsdm_channel->State)
 596:Drivers/STM32L4xx_HAL_Driver/Src/stm32l4xx_hal_dfsdm.c ****     {
 597:Drivers/STM32L4xx_HAL_Driver/Src/stm32l4xx_hal_dfsdm.c ****       switch (CallbackID)
 598:Drivers/STM32L4xx_HAL_Driver/Src/stm32l4xx_hal_dfsdm.c ****       {
 599:Drivers/STM32L4xx_HAL_Driver/Src/stm32l4xx_hal_dfsdm.c ****         case HAL_DFSDM_CHANNEL_MSPINIT_CB_ID :
 600:Drivers/STM32L4xx_HAL_Driver/Src/stm32l4xx_hal_dfsdm.c ****           hdfsdm_channel->MspInitCallback = pCallback;
 601:Drivers/STM32L4xx_HAL_Driver/Src/stm32l4xx_hal_dfsdm.c ****           break;
 602:Drivers/STM32L4xx_HAL_Driver/Src/stm32l4xx_hal_dfsdm.c ****         case HAL_DFSDM_CHANNEL_MSPDEINIT_CB_ID :
 603:Drivers/STM32L4xx_HAL_Driver/Src/stm32l4xx_hal_dfsdm.c ****           hdfsdm_channel->MspDeInitCallback = pCallback;
 604:Drivers/STM32L4xx_HAL_Driver/Src/stm32l4xx_hal_dfsdm.c ****           break;
 605:Drivers/STM32L4xx_HAL_Driver/Src/stm32l4xx_hal_dfsdm.c ****         default :
 606:Drivers/STM32L4xx_HAL_Driver/Src/stm32l4xx_hal_dfsdm.c ****           /* update return status */
 607:Drivers/STM32L4xx_HAL_Driver/Src/stm32l4xx_hal_dfsdm.c ****           status = HAL_ERROR;
ARM GAS  /tmp/ccrDNuCE.s 			page 21


 608:Drivers/STM32L4xx_HAL_Driver/Src/stm32l4xx_hal_dfsdm.c ****           break;
 609:Drivers/STM32L4xx_HAL_Driver/Src/stm32l4xx_hal_dfsdm.c ****       }
 610:Drivers/STM32L4xx_HAL_Driver/Src/stm32l4xx_hal_dfsdm.c ****     }
 611:Drivers/STM32L4xx_HAL_Driver/Src/stm32l4xx_hal_dfsdm.c ****     else
 612:Drivers/STM32L4xx_HAL_Driver/Src/stm32l4xx_hal_dfsdm.c ****     {
 613:Drivers/STM32L4xx_HAL_Driver/Src/stm32l4xx_hal_dfsdm.c ****       /* update return status */
 614:Drivers/STM32L4xx_HAL_Driver/Src/stm32l4xx_hal_dfsdm.c ****       status = HAL_ERROR;
 615:Drivers/STM32L4xx_HAL_Driver/Src/stm32l4xx_hal_dfsdm.c ****     }
 616:Drivers/STM32L4xx_HAL_Driver/Src/stm32l4xx_hal_dfsdm.c ****   }
 617:Drivers/STM32L4xx_HAL_Driver/Src/stm32l4xx_hal_dfsdm.c ****   return status;
 618:Drivers/STM32L4xx_HAL_Driver/Src/stm32l4xx_hal_dfsdm.c **** }
 619:Drivers/STM32L4xx_HAL_Driver/Src/stm32l4xx_hal_dfsdm.c **** 
 620:Drivers/STM32L4xx_HAL_Driver/Src/stm32l4xx_hal_dfsdm.c **** /**
 621:Drivers/STM32L4xx_HAL_Driver/Src/stm32l4xx_hal_dfsdm.c ****   * @brief  Unregister a user DFSDM channel callback.
 622:Drivers/STM32L4xx_HAL_Driver/Src/stm32l4xx_hal_dfsdm.c ****   *         DFSDM channel callback is redirected to the weak predefined callback.
 623:Drivers/STM32L4xx_HAL_Driver/Src/stm32l4xx_hal_dfsdm.c ****   * @param  hdfsdm_channel DFSDM channel handle.
 624:Drivers/STM32L4xx_HAL_Driver/Src/stm32l4xx_hal_dfsdm.c ****   * @param  CallbackID ID of the callback to be unregistered.
 625:Drivers/STM32L4xx_HAL_Driver/Src/stm32l4xx_hal_dfsdm.c ****   *         This parameter can be one of the following values:
 626:Drivers/STM32L4xx_HAL_Driver/Src/stm32l4xx_hal_dfsdm.c ****   *           @arg @ref HAL_DFSDM_CHANNEL_CKAB_CB_ID clock absence detection callback ID.
 627:Drivers/STM32L4xx_HAL_Driver/Src/stm32l4xx_hal_dfsdm.c ****   *           @arg @ref HAL_DFSDM_CHANNEL_SCD_CB_ID short circuit detection callback ID.
 628:Drivers/STM32L4xx_HAL_Driver/Src/stm32l4xx_hal_dfsdm.c ****   *           @arg @ref HAL_DFSDM_CHANNEL_MSPINIT_CB_ID MSP init callback ID.
 629:Drivers/STM32L4xx_HAL_Driver/Src/stm32l4xx_hal_dfsdm.c ****   *           @arg @ref HAL_DFSDM_CHANNEL_MSPDEINIT_CB_ID MSP de-init callback ID.
 630:Drivers/STM32L4xx_HAL_Driver/Src/stm32l4xx_hal_dfsdm.c ****   * @retval HAL status.
 631:Drivers/STM32L4xx_HAL_Driver/Src/stm32l4xx_hal_dfsdm.c ****   */
 632:Drivers/STM32L4xx_HAL_Driver/Src/stm32l4xx_hal_dfsdm.c **** HAL_StatusTypeDef HAL_DFSDM_Channel_UnRegisterCallback(DFSDM_Channel_HandleTypeDef        *hdfsdm_c
 633:Drivers/STM32L4xx_HAL_Driver/Src/stm32l4xx_hal_dfsdm.c ****                                                        HAL_DFSDM_Channel_CallbackIDTypeDef Callback
 634:Drivers/STM32L4xx_HAL_Driver/Src/stm32l4xx_hal_dfsdm.c **** {
 635:Drivers/STM32L4xx_HAL_Driver/Src/stm32l4xx_hal_dfsdm.c ****   HAL_StatusTypeDef status = HAL_OK;
 636:Drivers/STM32L4xx_HAL_Driver/Src/stm32l4xx_hal_dfsdm.c **** 
 637:Drivers/STM32L4xx_HAL_Driver/Src/stm32l4xx_hal_dfsdm.c ****   if (HAL_DFSDM_CHANNEL_STATE_READY == hdfsdm_channel->State)
 638:Drivers/STM32L4xx_HAL_Driver/Src/stm32l4xx_hal_dfsdm.c ****   {
 639:Drivers/STM32L4xx_HAL_Driver/Src/stm32l4xx_hal_dfsdm.c ****     switch (CallbackID)
 640:Drivers/STM32L4xx_HAL_Driver/Src/stm32l4xx_hal_dfsdm.c ****     {
 641:Drivers/STM32L4xx_HAL_Driver/Src/stm32l4xx_hal_dfsdm.c ****       case HAL_DFSDM_CHANNEL_CKAB_CB_ID :
 642:Drivers/STM32L4xx_HAL_Driver/Src/stm32l4xx_hal_dfsdm.c ****         hdfsdm_channel->CkabCallback = HAL_DFSDM_ChannelCkabCallback;
 643:Drivers/STM32L4xx_HAL_Driver/Src/stm32l4xx_hal_dfsdm.c ****         break;
 644:Drivers/STM32L4xx_HAL_Driver/Src/stm32l4xx_hal_dfsdm.c ****       case HAL_DFSDM_CHANNEL_SCD_CB_ID :
 645:Drivers/STM32L4xx_HAL_Driver/Src/stm32l4xx_hal_dfsdm.c ****         hdfsdm_channel->ScdCallback = HAL_DFSDM_ChannelScdCallback;
 646:Drivers/STM32L4xx_HAL_Driver/Src/stm32l4xx_hal_dfsdm.c ****         break;
 647:Drivers/STM32L4xx_HAL_Driver/Src/stm32l4xx_hal_dfsdm.c ****       case HAL_DFSDM_CHANNEL_MSPINIT_CB_ID :
 648:Drivers/STM32L4xx_HAL_Driver/Src/stm32l4xx_hal_dfsdm.c ****         hdfsdm_channel->MspInitCallback = HAL_DFSDM_ChannelMspInit;
 649:Drivers/STM32L4xx_HAL_Driver/Src/stm32l4xx_hal_dfsdm.c ****         break;
 650:Drivers/STM32L4xx_HAL_Driver/Src/stm32l4xx_hal_dfsdm.c ****       case HAL_DFSDM_CHANNEL_MSPDEINIT_CB_ID :
 651:Drivers/STM32L4xx_HAL_Driver/Src/stm32l4xx_hal_dfsdm.c ****         hdfsdm_channel->MspDeInitCallback = HAL_DFSDM_ChannelMspDeInit;
 652:Drivers/STM32L4xx_HAL_Driver/Src/stm32l4xx_hal_dfsdm.c ****         break;
 653:Drivers/STM32L4xx_HAL_Driver/Src/stm32l4xx_hal_dfsdm.c ****       default :
 654:Drivers/STM32L4xx_HAL_Driver/Src/stm32l4xx_hal_dfsdm.c ****         /* update return status */
 655:Drivers/STM32L4xx_HAL_Driver/Src/stm32l4xx_hal_dfsdm.c ****         status = HAL_ERROR;
 656:Drivers/STM32L4xx_HAL_Driver/Src/stm32l4xx_hal_dfsdm.c ****         break;
 657:Drivers/STM32L4xx_HAL_Driver/Src/stm32l4xx_hal_dfsdm.c ****     }
 658:Drivers/STM32L4xx_HAL_Driver/Src/stm32l4xx_hal_dfsdm.c ****   }
 659:Drivers/STM32L4xx_HAL_Driver/Src/stm32l4xx_hal_dfsdm.c ****   else if (HAL_DFSDM_CHANNEL_STATE_RESET == hdfsdm_channel->State)
 660:Drivers/STM32L4xx_HAL_Driver/Src/stm32l4xx_hal_dfsdm.c ****   {
 661:Drivers/STM32L4xx_HAL_Driver/Src/stm32l4xx_hal_dfsdm.c ****     switch (CallbackID)
 662:Drivers/STM32L4xx_HAL_Driver/Src/stm32l4xx_hal_dfsdm.c ****     {
 663:Drivers/STM32L4xx_HAL_Driver/Src/stm32l4xx_hal_dfsdm.c ****       case HAL_DFSDM_CHANNEL_MSPINIT_CB_ID :
 664:Drivers/STM32L4xx_HAL_Driver/Src/stm32l4xx_hal_dfsdm.c ****         hdfsdm_channel->MspInitCallback = HAL_DFSDM_ChannelMspInit;
ARM GAS  /tmp/ccrDNuCE.s 			page 22


 665:Drivers/STM32L4xx_HAL_Driver/Src/stm32l4xx_hal_dfsdm.c ****         break;
 666:Drivers/STM32L4xx_HAL_Driver/Src/stm32l4xx_hal_dfsdm.c ****       case HAL_DFSDM_CHANNEL_MSPDEINIT_CB_ID :
 667:Drivers/STM32L4xx_HAL_Driver/Src/stm32l4xx_hal_dfsdm.c ****         hdfsdm_channel->MspDeInitCallback = HAL_DFSDM_ChannelMspDeInit;
 668:Drivers/STM32L4xx_HAL_Driver/Src/stm32l4xx_hal_dfsdm.c ****         break;
 669:Drivers/STM32L4xx_HAL_Driver/Src/stm32l4xx_hal_dfsdm.c ****       default :
 670:Drivers/STM32L4xx_HAL_Driver/Src/stm32l4xx_hal_dfsdm.c ****         /* update return status */
 671:Drivers/STM32L4xx_HAL_Driver/Src/stm32l4xx_hal_dfsdm.c ****         status = HAL_ERROR;
 672:Drivers/STM32L4xx_HAL_Driver/Src/stm32l4xx_hal_dfsdm.c ****         break;
 673:Drivers/STM32L4xx_HAL_Driver/Src/stm32l4xx_hal_dfsdm.c ****     }
 674:Drivers/STM32L4xx_HAL_Driver/Src/stm32l4xx_hal_dfsdm.c ****   }
 675:Drivers/STM32L4xx_HAL_Driver/Src/stm32l4xx_hal_dfsdm.c ****   else
 676:Drivers/STM32L4xx_HAL_Driver/Src/stm32l4xx_hal_dfsdm.c ****   {
 677:Drivers/STM32L4xx_HAL_Driver/Src/stm32l4xx_hal_dfsdm.c ****     /* update return status */
 678:Drivers/STM32L4xx_HAL_Driver/Src/stm32l4xx_hal_dfsdm.c ****     status = HAL_ERROR;
 679:Drivers/STM32L4xx_HAL_Driver/Src/stm32l4xx_hal_dfsdm.c ****   }
 680:Drivers/STM32L4xx_HAL_Driver/Src/stm32l4xx_hal_dfsdm.c ****   return status;
 681:Drivers/STM32L4xx_HAL_Driver/Src/stm32l4xx_hal_dfsdm.c **** }
 682:Drivers/STM32L4xx_HAL_Driver/Src/stm32l4xx_hal_dfsdm.c **** #endif /* USE_HAL_DFSDM_REGISTER_CALLBACKS */
 683:Drivers/STM32L4xx_HAL_Driver/Src/stm32l4xx_hal_dfsdm.c **** 
 684:Drivers/STM32L4xx_HAL_Driver/Src/stm32l4xx_hal_dfsdm.c **** /**
 685:Drivers/STM32L4xx_HAL_Driver/Src/stm32l4xx_hal_dfsdm.c ****   * @}
 686:Drivers/STM32L4xx_HAL_Driver/Src/stm32l4xx_hal_dfsdm.c ****   */
 687:Drivers/STM32L4xx_HAL_Driver/Src/stm32l4xx_hal_dfsdm.c **** 
 688:Drivers/STM32L4xx_HAL_Driver/Src/stm32l4xx_hal_dfsdm.c **** /** @defgroup DFSDM_Exported_Functions_Group2_Channel Channel operation functions
 689:Drivers/STM32L4xx_HAL_Driver/Src/stm32l4xx_hal_dfsdm.c ****  *  @brief    Channel operation functions
 690:Drivers/STM32L4xx_HAL_Driver/Src/stm32l4xx_hal_dfsdm.c ****  *
 691:Drivers/STM32L4xx_HAL_Driver/Src/stm32l4xx_hal_dfsdm.c **** @verbatim
 692:Drivers/STM32L4xx_HAL_Driver/Src/stm32l4xx_hal_dfsdm.c ****   ==============================================================================
 693:Drivers/STM32L4xx_HAL_Driver/Src/stm32l4xx_hal_dfsdm.c ****                    ##### Channel operation functions #####
 694:Drivers/STM32L4xx_HAL_Driver/Src/stm32l4xx_hal_dfsdm.c ****   ==============================================================================
 695:Drivers/STM32L4xx_HAL_Driver/Src/stm32l4xx_hal_dfsdm.c ****     [..]  This section provides functions allowing to:
 696:Drivers/STM32L4xx_HAL_Driver/Src/stm32l4xx_hal_dfsdm.c ****       (+) Manage clock absence detector feature.
 697:Drivers/STM32L4xx_HAL_Driver/Src/stm32l4xx_hal_dfsdm.c ****       (+) Manage short circuit detector feature.
 698:Drivers/STM32L4xx_HAL_Driver/Src/stm32l4xx_hal_dfsdm.c ****       (+) Get analog watchdog value.
 699:Drivers/STM32L4xx_HAL_Driver/Src/stm32l4xx_hal_dfsdm.c ****       (+) Modify offset value.
 700:Drivers/STM32L4xx_HAL_Driver/Src/stm32l4xx_hal_dfsdm.c **** @endverbatim
 701:Drivers/STM32L4xx_HAL_Driver/Src/stm32l4xx_hal_dfsdm.c ****   * @{
 702:Drivers/STM32L4xx_HAL_Driver/Src/stm32l4xx_hal_dfsdm.c ****   */
 703:Drivers/STM32L4xx_HAL_Driver/Src/stm32l4xx_hal_dfsdm.c **** 
 704:Drivers/STM32L4xx_HAL_Driver/Src/stm32l4xx_hal_dfsdm.c **** /**
 705:Drivers/STM32L4xx_HAL_Driver/Src/stm32l4xx_hal_dfsdm.c ****   * @brief  This function allows to start clock absence detection in polling mode.
 706:Drivers/STM32L4xx_HAL_Driver/Src/stm32l4xx_hal_dfsdm.c ****   * @note   Same mode has to be used for all channels.
 707:Drivers/STM32L4xx_HAL_Driver/Src/stm32l4xx_hal_dfsdm.c ****   * @note   If clock is not available on this channel during 5 seconds,
 708:Drivers/STM32L4xx_HAL_Driver/Src/stm32l4xx_hal_dfsdm.c ****   *         clock absence detection will not be activated and function
 709:Drivers/STM32L4xx_HAL_Driver/Src/stm32l4xx_hal_dfsdm.c ****   *         will return HAL_TIMEOUT error.
 710:Drivers/STM32L4xx_HAL_Driver/Src/stm32l4xx_hal_dfsdm.c ****   * @param  hdfsdm_channel DFSDM channel handle.
 711:Drivers/STM32L4xx_HAL_Driver/Src/stm32l4xx_hal_dfsdm.c ****   * @retval HAL status
 712:Drivers/STM32L4xx_HAL_Driver/Src/stm32l4xx_hal_dfsdm.c ****   */
 713:Drivers/STM32L4xx_HAL_Driver/Src/stm32l4xx_hal_dfsdm.c **** HAL_StatusTypeDef HAL_DFSDM_ChannelCkabStart(DFSDM_Channel_HandleTypeDef *hdfsdm_channel)
 714:Drivers/STM32L4xx_HAL_Driver/Src/stm32l4xx_hal_dfsdm.c **** {
 531              		.loc 1 714 1
 532              		.cfi_startproc
 533              		@ args = 0, pretend = 0, frame = 24
 534              		@ frame_needed = 1, uses_anonymous_args = 0
 535 0000 80B5     		push	{r7, lr}
 536              		.cfi_def_cfa_offset 8
 537              		.cfi_offset 7, -8
ARM GAS  /tmp/ccrDNuCE.s 			page 23


 538              		.cfi_offset 14, -4
 539 0002 86B0     		sub	sp, sp, #24
 540              		.cfi_def_cfa_offset 32
 541 0004 00AF     		add	r7, sp, #0
 542              		.cfi_def_cfa_register 7
 543 0006 7860     		str	r0, [r7, #4]
 715:Drivers/STM32L4xx_HAL_Driver/Src/stm32l4xx_hal_dfsdm.c ****   HAL_StatusTypeDef status = HAL_OK;
 544              		.loc 1 715 21
 545 0008 0023     		movs	r3, #0
 546 000a FB75     		strb	r3, [r7, #23]
 716:Drivers/STM32L4xx_HAL_Driver/Src/stm32l4xx_hal_dfsdm.c ****   uint32_t channel;
 717:Drivers/STM32L4xx_HAL_Driver/Src/stm32l4xx_hal_dfsdm.c ****   uint32_t tickstart;
 718:Drivers/STM32L4xx_HAL_Driver/Src/stm32l4xx_hal_dfsdm.c **** 
 719:Drivers/STM32L4xx_HAL_Driver/Src/stm32l4xx_hal_dfsdm.c ****   /* Check parameters */
 720:Drivers/STM32L4xx_HAL_Driver/Src/stm32l4xx_hal_dfsdm.c ****   assert_param(IS_DFSDM_CHANNEL_ALL_INSTANCE(hdfsdm_channel->Instance));
 721:Drivers/STM32L4xx_HAL_Driver/Src/stm32l4xx_hal_dfsdm.c **** 
 722:Drivers/STM32L4xx_HAL_Driver/Src/stm32l4xx_hal_dfsdm.c ****   /* Check DFSDM channel state */
 723:Drivers/STM32L4xx_HAL_Driver/Src/stm32l4xx_hal_dfsdm.c ****   if (hdfsdm_channel->State != HAL_DFSDM_CHANNEL_STATE_READY)
 547              		.loc 1 723 21
 548 000c 7B68     		ldr	r3, [r7, #4]
 549 000e 93F83430 		ldrb	r3, [r3, #52]	@ zero_extendqisi2
 550              		.loc 1 723 6
 551 0012 012B     		cmp	r3, #1
 552 0014 02D0     		beq	.L19
 724:Drivers/STM32L4xx_HAL_Driver/Src/stm32l4xx_hal_dfsdm.c ****   {
 725:Drivers/STM32L4xx_HAL_Driver/Src/stm32l4xx_hal_dfsdm.c ****     /* Return error status */
 726:Drivers/STM32L4xx_HAL_Driver/Src/stm32l4xx_hal_dfsdm.c ****     status = HAL_ERROR;
 553              		.loc 1 726 12
 554 0016 0123     		movs	r3, #1
 555 0018 FB75     		strb	r3, [r7, #23]
 556 001a 33E0     		b	.L20
 557              	.L19:
 727:Drivers/STM32L4xx_HAL_Driver/Src/stm32l4xx_hal_dfsdm.c ****   }
 728:Drivers/STM32L4xx_HAL_Driver/Src/stm32l4xx_hal_dfsdm.c ****   else
 729:Drivers/STM32L4xx_HAL_Driver/Src/stm32l4xx_hal_dfsdm.c ****   {
 730:Drivers/STM32L4xx_HAL_Driver/Src/stm32l4xx_hal_dfsdm.c ****     /* Get channel number from channel instance */
 731:Drivers/STM32L4xx_HAL_Driver/Src/stm32l4xx_hal_dfsdm.c ****     channel = DFSDM_GetChannelFromInstance(hdfsdm_channel->Instance);
 558              		.loc 1 731 58
 559 001c 7B68     		ldr	r3, [r7, #4]
 560 001e 1B68     		ldr	r3, [r3]
 561              		.loc 1 731 15
 562 0020 1846     		mov	r0, r3
 563 0022 FFF7FEFF 		bl	DFSDM_GetChannelFromInstance
 564 0026 3861     		str	r0, [r7, #16]
 732:Drivers/STM32L4xx_HAL_Driver/Src/stm32l4xx_hal_dfsdm.c **** 
 733:Drivers/STM32L4xx_HAL_Driver/Src/stm32l4xx_hal_dfsdm.c ****     /* Get timeout */
 734:Drivers/STM32L4xx_HAL_Driver/Src/stm32l4xx_hal_dfsdm.c ****     tickstart = HAL_GetTick();
 565              		.loc 1 734 17
 566 0028 FFF7FEFF 		bl	HAL_GetTick
 567 002c F860     		str	r0, [r7, #12]
 735:Drivers/STM32L4xx_HAL_Driver/Src/stm32l4xx_hal_dfsdm.c **** 
 736:Drivers/STM32L4xx_HAL_Driver/Src/stm32l4xx_hal_dfsdm.c ****     /* Clear clock absence flag */
 737:Drivers/STM32L4xx_HAL_Driver/Src/stm32l4xx_hal_dfsdm.c ****     while ((((DFSDM1_Filter0->FLTISR & DFSDM_FLTISR_CKABF) >> (DFSDM_FLTISR_CKABF_Pos + channel)) &
 568              		.loc 1 737 11
 569 002e 12E0     		b	.L21
 570              	.L23:
 738:Drivers/STM32L4xx_HAL_Driver/Src/stm32l4xx_hal_dfsdm.c ****     {
ARM GAS  /tmp/ccrDNuCE.s 			page 24


 739:Drivers/STM32L4xx_HAL_Driver/Src/stm32l4xx_hal_dfsdm.c ****       DFSDM1_Filter0->FLTICR = (1UL << (DFSDM_FLTICR_CLRCKABF_Pos + channel));
 571              		.loc 1 739 67
 572 0030 3B69     		ldr	r3, [r7, #16]
 573 0032 1033     		adds	r3, r3, #16
 574              		.loc 1 739 21
 575 0034 164A     		ldr	r2, .L25
 576              		.loc 1 739 37
 577 0036 0121     		movs	r1, #1
 578 0038 01FA03F3 		lsl	r3, r1, r3
 579              		.loc 1 739 30
 580 003c D360     		str	r3, [r2, #12]
 740:Drivers/STM32L4xx_HAL_Driver/Src/stm32l4xx_hal_dfsdm.c **** 
 741:Drivers/STM32L4xx_HAL_Driver/Src/stm32l4xx_hal_dfsdm.c ****       /* Check the Timeout */
 742:Drivers/STM32L4xx_HAL_Driver/Src/stm32l4xx_hal_dfsdm.c ****       if ((HAL_GetTick() - tickstart) > DFSDM_CKAB_TIMEOUT)
 581              		.loc 1 742 12
 582 003e FFF7FEFF 		bl	HAL_GetTick
 583 0042 0246     		mov	r2, r0
 584              		.loc 1 742 26 discriminator 1
 585 0044 FB68     		ldr	r3, [r7, #12]
 586 0046 D31A     		subs	r3, r2, r3
 587              		.loc 1 742 10 discriminator 1
 588 0048 41F28832 		movw	r2, #5000
 589 004c 9342     		cmp	r3, r2
 590 004e 02D9     		bls	.L21
 743:Drivers/STM32L4xx_HAL_Driver/Src/stm32l4xx_hal_dfsdm.c ****       {
 744:Drivers/STM32L4xx_HAL_Driver/Src/stm32l4xx_hal_dfsdm.c ****         /* Set timeout status */
 745:Drivers/STM32L4xx_HAL_Driver/Src/stm32l4xx_hal_dfsdm.c ****         status = HAL_TIMEOUT;
 591              		.loc 1 745 16
 592 0050 0323     		movs	r3, #3
 593 0052 FB75     		strb	r3, [r7, #23]
 746:Drivers/STM32L4xx_HAL_Driver/Src/stm32l4xx_hal_dfsdm.c ****         break;
 594              		.loc 1 746 9
 595 0054 0BE0     		b	.L22
 596              	.L21:
 737:Drivers/STM32L4xx_HAL_Driver/Src/stm32l4xx_hal_dfsdm.c ****     {
 597              		.loc 1 737 29
 598 0056 0E4B     		ldr	r3, .L25
 599 0058 9B68     		ldr	r3, [r3, #8]
 737:Drivers/STM32L4xx_HAL_Driver/Src/stm32l4xx_hal_dfsdm.c ****     {
 600              		.loc 1 737 38
 601 005a 03F47F02 		and	r2, r3, #16711680
 737:Drivers/STM32L4xx_HAL_Driver/Src/stm32l4xx_hal_dfsdm.c ****     {
 602              		.loc 1 737 87
 603 005e 3B69     		ldr	r3, [r7, #16]
 604 0060 1033     		adds	r3, r3, #16
 737:Drivers/STM32L4xx_HAL_Driver/Src/stm32l4xx_hal_dfsdm.c ****     {
 605              		.loc 1 737 60
 606 0062 22FA03F3 		lsr	r3, r2, r3
 737:Drivers/STM32L4xx_HAL_Driver/Src/stm32l4xx_hal_dfsdm.c ****     {
 607              		.loc 1 737 99
 608 0066 03F00103 		and	r3, r3, #1
 737:Drivers/STM32L4xx_HAL_Driver/Src/stm32l4xx_hal_dfsdm.c ****     {
 609              		.loc 1 737 105
 610 006a 002B     		cmp	r3, #0
 611 006c E0D1     		bne	.L23
 612              	.L22:
 747:Drivers/STM32L4xx_HAL_Driver/Src/stm32l4xx_hal_dfsdm.c ****       }
ARM GAS  /tmp/ccrDNuCE.s 			page 25


 748:Drivers/STM32L4xx_HAL_Driver/Src/stm32l4xx_hal_dfsdm.c ****     }
 749:Drivers/STM32L4xx_HAL_Driver/Src/stm32l4xx_hal_dfsdm.c **** 
 750:Drivers/STM32L4xx_HAL_Driver/Src/stm32l4xx_hal_dfsdm.c ****     if (status == HAL_OK)
 613              		.loc 1 750 8
 614 006e FB7D     		ldrb	r3, [r7, #23]	@ zero_extendqisi2
 615 0070 002B     		cmp	r3, #0
 616 0072 07D1     		bne	.L20
 751:Drivers/STM32L4xx_HAL_Driver/Src/stm32l4xx_hal_dfsdm.c ****     {
 752:Drivers/STM32L4xx_HAL_Driver/Src/stm32l4xx_hal_dfsdm.c ****       /* Start clock absence detection */
 753:Drivers/STM32L4xx_HAL_Driver/Src/stm32l4xx_hal_dfsdm.c ****       hdfsdm_channel->Instance->CHCFGR1 |= DFSDM_CHCFGR1_CKABEN;
 617              		.loc 1 753 21
 618 0074 7B68     		ldr	r3, [r7, #4]
 619 0076 1B68     		ldr	r3, [r3]
 620              		.loc 1 753 31
 621 0078 1A68     		ldr	r2, [r3]
 622              		.loc 1 753 21
 623 007a 7B68     		ldr	r3, [r7, #4]
 624 007c 1B68     		ldr	r3, [r3]
 625              		.loc 1 753 41
 626 007e 42F04002 		orr	r2, r2, #64
 627 0082 1A60     		str	r2, [r3]
 628              	.L20:
 754:Drivers/STM32L4xx_HAL_Driver/Src/stm32l4xx_hal_dfsdm.c ****     }
 755:Drivers/STM32L4xx_HAL_Driver/Src/stm32l4xx_hal_dfsdm.c ****   }
 756:Drivers/STM32L4xx_HAL_Driver/Src/stm32l4xx_hal_dfsdm.c ****   /* Return function status */
 757:Drivers/STM32L4xx_HAL_Driver/Src/stm32l4xx_hal_dfsdm.c ****   return status;
 629              		.loc 1 757 10
 630 0084 FB7D     		ldrb	r3, [r7, #23]	@ zero_extendqisi2
 758:Drivers/STM32L4xx_HAL_Driver/Src/stm32l4xx_hal_dfsdm.c **** }
 631              		.loc 1 758 1
 632 0086 1846     		mov	r0, r3
 633 0088 1837     		adds	r7, r7, #24
 634              		.cfi_def_cfa_offset 8
 635 008a BD46     		mov	sp, r7
 636              		.cfi_def_cfa_register 13
 637              		@ sp needed
 638 008c 80BD     		pop	{r7, pc}
 639              	.L26:
 640 008e 00BF     		.align	2
 641              	.L25:
 642 0090 00610140 		.word	1073832192
 643              		.cfi_endproc
 644              	.LFE449:
 646              		.section	.text.HAL_DFSDM_ChannelPollForCkab,"ax",%progbits
 647              		.align	1
 648              		.global	HAL_DFSDM_ChannelPollForCkab
 649              		.syntax unified
 650              		.thumb
 651              		.thumb_func
 653              	HAL_DFSDM_ChannelPollForCkab:
 654              	.LFB450:
 759:Drivers/STM32L4xx_HAL_Driver/Src/stm32l4xx_hal_dfsdm.c **** 
 760:Drivers/STM32L4xx_HAL_Driver/Src/stm32l4xx_hal_dfsdm.c **** /**
 761:Drivers/STM32L4xx_HAL_Driver/Src/stm32l4xx_hal_dfsdm.c ****   * @brief  This function allows to poll for the clock absence detection.
 762:Drivers/STM32L4xx_HAL_Driver/Src/stm32l4xx_hal_dfsdm.c ****   * @param  hdfsdm_channel DFSDM channel handle.
 763:Drivers/STM32L4xx_HAL_Driver/Src/stm32l4xx_hal_dfsdm.c ****   * @param  Timeout Timeout value in milliseconds.
 764:Drivers/STM32L4xx_HAL_Driver/Src/stm32l4xx_hal_dfsdm.c ****   * @retval HAL status
ARM GAS  /tmp/ccrDNuCE.s 			page 26


 765:Drivers/STM32L4xx_HAL_Driver/Src/stm32l4xx_hal_dfsdm.c ****   */
 766:Drivers/STM32L4xx_HAL_Driver/Src/stm32l4xx_hal_dfsdm.c **** HAL_StatusTypeDef HAL_DFSDM_ChannelPollForCkab(const DFSDM_Channel_HandleTypeDef *hdfsdm_channel,
 767:Drivers/STM32L4xx_HAL_Driver/Src/stm32l4xx_hal_dfsdm.c ****                                                uint32_t Timeout)
 768:Drivers/STM32L4xx_HAL_Driver/Src/stm32l4xx_hal_dfsdm.c **** {
 655              		.loc 1 768 1
 656              		.cfi_startproc
 657              		@ args = 0, pretend = 0, frame = 16
 658              		@ frame_needed = 1, uses_anonymous_args = 0
 659 0000 80B5     		push	{r7, lr}
 660              		.cfi_def_cfa_offset 8
 661              		.cfi_offset 7, -8
 662              		.cfi_offset 14, -4
 663 0002 84B0     		sub	sp, sp, #16
 664              		.cfi_def_cfa_offset 24
 665 0004 00AF     		add	r7, sp, #0
 666              		.cfi_def_cfa_register 7
 667 0006 7860     		str	r0, [r7, #4]
 668 0008 3960     		str	r1, [r7]
 769:Drivers/STM32L4xx_HAL_Driver/Src/stm32l4xx_hal_dfsdm.c ****   uint32_t tickstart;
 770:Drivers/STM32L4xx_HAL_Driver/Src/stm32l4xx_hal_dfsdm.c ****   uint32_t channel;
 771:Drivers/STM32L4xx_HAL_Driver/Src/stm32l4xx_hal_dfsdm.c **** 
 772:Drivers/STM32L4xx_HAL_Driver/Src/stm32l4xx_hal_dfsdm.c ****   /* Check parameters */
 773:Drivers/STM32L4xx_HAL_Driver/Src/stm32l4xx_hal_dfsdm.c ****   assert_param(IS_DFSDM_CHANNEL_ALL_INSTANCE(hdfsdm_channel->Instance));
 774:Drivers/STM32L4xx_HAL_Driver/Src/stm32l4xx_hal_dfsdm.c **** 
 775:Drivers/STM32L4xx_HAL_Driver/Src/stm32l4xx_hal_dfsdm.c ****   /* Check DFSDM channel state */
 776:Drivers/STM32L4xx_HAL_Driver/Src/stm32l4xx_hal_dfsdm.c ****   if (hdfsdm_channel->State != HAL_DFSDM_CHANNEL_STATE_READY)
 669              		.loc 1 776 21
 670 000a 7B68     		ldr	r3, [r7, #4]
 671 000c 93F83430 		ldrb	r3, [r3, #52]	@ zero_extendqisi2
 672              		.loc 1 776 6
 673 0010 012B     		cmp	r3, #1
 674 0012 01D0     		beq	.L28
 777:Drivers/STM32L4xx_HAL_Driver/Src/stm32l4xx_hal_dfsdm.c ****   {
 778:Drivers/STM32L4xx_HAL_Driver/Src/stm32l4xx_hal_dfsdm.c ****     /* Return error status */
 779:Drivers/STM32L4xx_HAL_Driver/Src/stm32l4xx_hal_dfsdm.c ****     return HAL_ERROR;
 675              		.loc 1 779 12
 676 0014 0123     		movs	r3, #1
 677 0016 2EE0     		b	.L29
 678              	.L28:
 780:Drivers/STM32L4xx_HAL_Driver/Src/stm32l4xx_hal_dfsdm.c ****   }
 781:Drivers/STM32L4xx_HAL_Driver/Src/stm32l4xx_hal_dfsdm.c ****   else
 782:Drivers/STM32L4xx_HAL_Driver/Src/stm32l4xx_hal_dfsdm.c ****   {
 783:Drivers/STM32L4xx_HAL_Driver/Src/stm32l4xx_hal_dfsdm.c ****     /* Get channel number from channel instance */
 784:Drivers/STM32L4xx_HAL_Driver/Src/stm32l4xx_hal_dfsdm.c ****     channel = DFSDM_GetChannelFromInstance(hdfsdm_channel->Instance);
 679              		.loc 1 784 58
 680 0018 7B68     		ldr	r3, [r7, #4]
 681 001a 1B68     		ldr	r3, [r3]
 682              		.loc 1 784 15
 683 001c 1846     		mov	r0, r3
 684 001e FFF7FEFF 		bl	DFSDM_GetChannelFromInstance
 685 0022 F860     		str	r0, [r7, #12]
 785:Drivers/STM32L4xx_HAL_Driver/Src/stm32l4xx_hal_dfsdm.c **** 
 786:Drivers/STM32L4xx_HAL_Driver/Src/stm32l4xx_hal_dfsdm.c ****     /* Get timeout */
 787:Drivers/STM32L4xx_HAL_Driver/Src/stm32l4xx_hal_dfsdm.c ****     tickstart = HAL_GetTick();
 686              		.loc 1 787 17
 687 0024 FFF7FEFF 		bl	HAL_GetTick
 688 0028 B860     		str	r0, [r7, #8]
ARM GAS  /tmp/ccrDNuCE.s 			page 27


 788:Drivers/STM32L4xx_HAL_Driver/Src/stm32l4xx_hal_dfsdm.c **** 
 789:Drivers/STM32L4xx_HAL_Driver/Src/stm32l4xx_hal_dfsdm.c ****     /* Wait clock absence detection */
 790:Drivers/STM32L4xx_HAL_Driver/Src/stm32l4xx_hal_dfsdm.c ****     while ((((DFSDM1_Filter0->FLTISR & DFSDM_FLTISR_CKABF) >> (DFSDM_FLTISR_CKABF_Pos + channel)) &
 689              		.loc 1 790 11
 690 002a 10E0     		b	.L31
 691              	.L33:
 791:Drivers/STM32L4xx_HAL_Driver/Src/stm32l4xx_hal_dfsdm.c ****     {
 792:Drivers/STM32L4xx_HAL_Driver/Src/stm32l4xx_hal_dfsdm.c ****       /* Check the Timeout */
 793:Drivers/STM32L4xx_HAL_Driver/Src/stm32l4xx_hal_dfsdm.c ****       if (Timeout != HAL_MAX_DELAY)
 692              		.loc 1 793 10
 693 002c 3B68     		ldr	r3, [r7]
 694 002e B3F1FF3F 		cmp	r3, #-1
 695 0032 0CD0     		beq	.L31
 794:Drivers/STM32L4xx_HAL_Driver/Src/stm32l4xx_hal_dfsdm.c ****       {
 795:Drivers/STM32L4xx_HAL_Driver/Src/stm32l4xx_hal_dfsdm.c ****         if (((HAL_GetTick() - tickstart) > Timeout) || (Timeout == 0U))
 696              		.loc 1 795 15
 697 0034 FFF7FEFF 		bl	HAL_GetTick
 698 0038 0246     		mov	r2, r0
 699              		.loc 1 795 29 discriminator 1
 700 003a BB68     		ldr	r3, [r7, #8]
 701 003c D31A     		subs	r3, r2, r3
 702              		.loc 1 795 12 discriminator 1
 703 003e 3A68     		ldr	r2, [r7]
 704 0040 9A42     		cmp	r2, r3
 705 0042 02D3     		bcc	.L32
 706              		.loc 1 795 53 discriminator 1
 707 0044 3B68     		ldr	r3, [r7]
 708 0046 002B     		cmp	r3, #0
 709 0048 01D1     		bne	.L31
 710              	.L32:
 796:Drivers/STM32L4xx_HAL_Driver/Src/stm32l4xx_hal_dfsdm.c ****         {
 797:Drivers/STM32L4xx_HAL_Driver/Src/stm32l4xx_hal_dfsdm.c ****           /* Return timeout status */
 798:Drivers/STM32L4xx_HAL_Driver/Src/stm32l4xx_hal_dfsdm.c ****           return HAL_TIMEOUT;
 711              		.loc 1 798 18
 712 004a 0323     		movs	r3, #3
 713 004c 13E0     		b	.L29
 714              	.L31:
 790:Drivers/STM32L4xx_HAL_Driver/Src/stm32l4xx_hal_dfsdm.c ****     {
 715              		.loc 1 790 29
 716 004e 0C4B     		ldr	r3, .L34
 717 0050 9B68     		ldr	r3, [r3, #8]
 790:Drivers/STM32L4xx_HAL_Driver/Src/stm32l4xx_hal_dfsdm.c ****     {
 718              		.loc 1 790 38
 719 0052 03F47F02 		and	r2, r3, #16711680
 790:Drivers/STM32L4xx_HAL_Driver/Src/stm32l4xx_hal_dfsdm.c ****     {
 720              		.loc 1 790 87
 721 0056 FB68     		ldr	r3, [r7, #12]
 722 0058 1033     		adds	r3, r3, #16
 790:Drivers/STM32L4xx_HAL_Driver/Src/stm32l4xx_hal_dfsdm.c ****     {
 723              		.loc 1 790 60
 724 005a 22FA03F3 		lsr	r3, r2, r3
 790:Drivers/STM32L4xx_HAL_Driver/Src/stm32l4xx_hal_dfsdm.c ****     {
 725              		.loc 1 790 99
 726 005e 03F00103 		and	r3, r3, #1
 790:Drivers/STM32L4xx_HAL_Driver/Src/stm32l4xx_hal_dfsdm.c ****     {
 727              		.loc 1 790 105
 728 0062 002B     		cmp	r3, #0
ARM GAS  /tmp/ccrDNuCE.s 			page 28


 729 0064 E2D0     		beq	.L33
 799:Drivers/STM32L4xx_HAL_Driver/Src/stm32l4xx_hal_dfsdm.c ****         }
 800:Drivers/STM32L4xx_HAL_Driver/Src/stm32l4xx_hal_dfsdm.c ****       }
 801:Drivers/STM32L4xx_HAL_Driver/Src/stm32l4xx_hal_dfsdm.c ****     }
 802:Drivers/STM32L4xx_HAL_Driver/Src/stm32l4xx_hal_dfsdm.c **** 
 803:Drivers/STM32L4xx_HAL_Driver/Src/stm32l4xx_hal_dfsdm.c ****     /* Clear clock absence detection flag */
 804:Drivers/STM32L4xx_HAL_Driver/Src/stm32l4xx_hal_dfsdm.c ****     DFSDM1_Filter0->FLTICR = (1UL << (DFSDM_FLTICR_CLRCKABF_Pos + channel));
 730              		.loc 1 804 65
 731 0066 FB68     		ldr	r3, [r7, #12]
 732 0068 1033     		adds	r3, r3, #16
 733              		.loc 1 804 19
 734 006a 054A     		ldr	r2, .L34
 735              		.loc 1 804 35
 736 006c 0121     		movs	r1, #1
 737 006e 01FA03F3 		lsl	r3, r1, r3
 738              		.loc 1 804 28
 739 0072 D360     		str	r3, [r2, #12]
 805:Drivers/STM32L4xx_HAL_Driver/Src/stm32l4xx_hal_dfsdm.c **** 
 806:Drivers/STM32L4xx_HAL_Driver/Src/stm32l4xx_hal_dfsdm.c ****     /* Return function status */
 807:Drivers/STM32L4xx_HAL_Driver/Src/stm32l4xx_hal_dfsdm.c ****     return HAL_OK;
 740              		.loc 1 807 12
 741 0074 0023     		movs	r3, #0
 742              	.L29:
 808:Drivers/STM32L4xx_HAL_Driver/Src/stm32l4xx_hal_dfsdm.c ****   }
 809:Drivers/STM32L4xx_HAL_Driver/Src/stm32l4xx_hal_dfsdm.c **** }
 743              		.loc 1 809 1
 744 0076 1846     		mov	r0, r3
 745 0078 1037     		adds	r7, r7, #16
 746              		.cfi_def_cfa_offset 8
 747 007a BD46     		mov	sp, r7
 748              		.cfi_def_cfa_register 13
 749              		@ sp needed
 750 007c 80BD     		pop	{r7, pc}
 751              	.L35:
 752 007e 00BF     		.align	2
 753              	.L34:
 754 0080 00610140 		.word	1073832192
 755              		.cfi_endproc
 756              	.LFE450:
 758              		.section	.text.HAL_DFSDM_ChannelCkabStop,"ax",%progbits
 759              		.align	1
 760              		.global	HAL_DFSDM_ChannelCkabStop
 761              		.syntax unified
 762              		.thumb
 763              		.thumb_func
 765              	HAL_DFSDM_ChannelCkabStop:
 766              	.LFB451:
 810:Drivers/STM32L4xx_HAL_Driver/Src/stm32l4xx_hal_dfsdm.c **** 
 811:Drivers/STM32L4xx_HAL_Driver/Src/stm32l4xx_hal_dfsdm.c **** /**
 812:Drivers/STM32L4xx_HAL_Driver/Src/stm32l4xx_hal_dfsdm.c ****   * @brief  This function allows to stop clock absence detection in polling mode.
 813:Drivers/STM32L4xx_HAL_Driver/Src/stm32l4xx_hal_dfsdm.c ****   * @param  hdfsdm_channel DFSDM channel handle.
 814:Drivers/STM32L4xx_HAL_Driver/Src/stm32l4xx_hal_dfsdm.c ****   * @retval HAL status
 815:Drivers/STM32L4xx_HAL_Driver/Src/stm32l4xx_hal_dfsdm.c ****   */
 816:Drivers/STM32L4xx_HAL_Driver/Src/stm32l4xx_hal_dfsdm.c **** HAL_StatusTypeDef HAL_DFSDM_ChannelCkabStop(DFSDM_Channel_HandleTypeDef *hdfsdm_channel)
 817:Drivers/STM32L4xx_HAL_Driver/Src/stm32l4xx_hal_dfsdm.c **** {
 767              		.loc 1 817 1
 768              		.cfi_startproc
ARM GAS  /tmp/ccrDNuCE.s 			page 29


 769              		@ args = 0, pretend = 0, frame = 16
 770              		@ frame_needed = 1, uses_anonymous_args = 0
 771 0000 80B5     		push	{r7, lr}
 772              		.cfi_def_cfa_offset 8
 773              		.cfi_offset 7, -8
 774              		.cfi_offset 14, -4
 775 0002 84B0     		sub	sp, sp, #16
 776              		.cfi_def_cfa_offset 24
 777 0004 00AF     		add	r7, sp, #0
 778              		.cfi_def_cfa_register 7
 779 0006 7860     		str	r0, [r7, #4]
 818:Drivers/STM32L4xx_HAL_Driver/Src/stm32l4xx_hal_dfsdm.c ****   HAL_StatusTypeDef status = HAL_OK;
 780              		.loc 1 818 21
 781 0008 0023     		movs	r3, #0
 782 000a FB73     		strb	r3, [r7, #15]
 819:Drivers/STM32L4xx_HAL_Driver/Src/stm32l4xx_hal_dfsdm.c ****   uint32_t channel;
 820:Drivers/STM32L4xx_HAL_Driver/Src/stm32l4xx_hal_dfsdm.c **** 
 821:Drivers/STM32L4xx_HAL_Driver/Src/stm32l4xx_hal_dfsdm.c ****   /* Check parameters */
 822:Drivers/STM32L4xx_HAL_Driver/Src/stm32l4xx_hal_dfsdm.c ****   assert_param(IS_DFSDM_CHANNEL_ALL_INSTANCE(hdfsdm_channel->Instance));
 823:Drivers/STM32L4xx_HAL_Driver/Src/stm32l4xx_hal_dfsdm.c **** 
 824:Drivers/STM32L4xx_HAL_Driver/Src/stm32l4xx_hal_dfsdm.c ****   /* Check DFSDM channel state */
 825:Drivers/STM32L4xx_HAL_Driver/Src/stm32l4xx_hal_dfsdm.c ****   if (hdfsdm_channel->State != HAL_DFSDM_CHANNEL_STATE_READY)
 783              		.loc 1 825 21
 784 000c 7B68     		ldr	r3, [r7, #4]
 785 000e 93F83430 		ldrb	r3, [r3, #52]	@ zero_extendqisi2
 786              		.loc 1 825 6
 787 0012 012B     		cmp	r3, #1
 788 0014 02D0     		beq	.L37
 826:Drivers/STM32L4xx_HAL_Driver/Src/stm32l4xx_hal_dfsdm.c ****   {
 827:Drivers/STM32L4xx_HAL_Driver/Src/stm32l4xx_hal_dfsdm.c ****     /* Return error status */
 828:Drivers/STM32L4xx_HAL_Driver/Src/stm32l4xx_hal_dfsdm.c ****     status = HAL_ERROR;
 789              		.loc 1 828 12
 790 0016 0123     		movs	r3, #1
 791 0018 FB73     		strb	r3, [r7, #15]
 792 001a 14E0     		b	.L38
 793              	.L37:
 829:Drivers/STM32L4xx_HAL_Driver/Src/stm32l4xx_hal_dfsdm.c ****   }
 830:Drivers/STM32L4xx_HAL_Driver/Src/stm32l4xx_hal_dfsdm.c ****   else
 831:Drivers/STM32L4xx_HAL_Driver/Src/stm32l4xx_hal_dfsdm.c ****   {
 832:Drivers/STM32L4xx_HAL_Driver/Src/stm32l4xx_hal_dfsdm.c ****     /* Stop clock absence detection */
 833:Drivers/STM32L4xx_HAL_Driver/Src/stm32l4xx_hal_dfsdm.c ****     hdfsdm_channel->Instance->CHCFGR1 &= ~(DFSDM_CHCFGR1_CKABEN);
 794              		.loc 1 833 19
 795 001c 7B68     		ldr	r3, [r7, #4]
 796 001e 1B68     		ldr	r3, [r3]
 797              		.loc 1 833 29
 798 0020 1A68     		ldr	r2, [r3]
 799              		.loc 1 833 19
 800 0022 7B68     		ldr	r3, [r7, #4]
 801 0024 1B68     		ldr	r3, [r3]
 802              		.loc 1 833 39
 803 0026 22F04002 		bic	r2, r2, #64
 804 002a 1A60     		str	r2, [r3]
 834:Drivers/STM32L4xx_HAL_Driver/Src/stm32l4xx_hal_dfsdm.c **** 
 835:Drivers/STM32L4xx_HAL_Driver/Src/stm32l4xx_hal_dfsdm.c ****     /* Clear clock absence flag */
 836:Drivers/STM32L4xx_HAL_Driver/Src/stm32l4xx_hal_dfsdm.c ****     channel = DFSDM_GetChannelFromInstance(hdfsdm_channel->Instance);
 805              		.loc 1 836 58
 806 002c 7B68     		ldr	r3, [r7, #4]
ARM GAS  /tmp/ccrDNuCE.s 			page 30


 807 002e 1B68     		ldr	r3, [r3]
 808              		.loc 1 836 15
 809 0030 1846     		mov	r0, r3
 810 0032 FFF7FEFF 		bl	DFSDM_GetChannelFromInstance
 811 0036 B860     		str	r0, [r7, #8]
 837:Drivers/STM32L4xx_HAL_Driver/Src/stm32l4xx_hal_dfsdm.c ****     DFSDM1_Filter0->FLTICR = (1UL << (DFSDM_FLTICR_CLRCKABF_Pos + channel));
 812              		.loc 1 837 65
 813 0038 BB68     		ldr	r3, [r7, #8]
 814 003a 1033     		adds	r3, r3, #16
 815              		.loc 1 837 19
 816 003c 044A     		ldr	r2, .L40
 817              		.loc 1 837 35
 818 003e 0121     		movs	r1, #1
 819 0040 01FA03F3 		lsl	r3, r1, r3
 820              		.loc 1 837 28
 821 0044 D360     		str	r3, [r2, #12]
 822              	.L38:
 838:Drivers/STM32L4xx_HAL_Driver/Src/stm32l4xx_hal_dfsdm.c ****   }
 839:Drivers/STM32L4xx_HAL_Driver/Src/stm32l4xx_hal_dfsdm.c ****   /* Return function status */
 840:Drivers/STM32L4xx_HAL_Driver/Src/stm32l4xx_hal_dfsdm.c ****   return status;
 823              		.loc 1 840 10
 824 0046 FB7B     		ldrb	r3, [r7, #15]	@ zero_extendqisi2
 841:Drivers/STM32L4xx_HAL_Driver/Src/stm32l4xx_hal_dfsdm.c **** }
 825              		.loc 1 841 1
 826 0048 1846     		mov	r0, r3
 827 004a 1037     		adds	r7, r7, #16
 828              		.cfi_def_cfa_offset 8
 829 004c BD46     		mov	sp, r7
 830              		.cfi_def_cfa_register 13
 831              		@ sp needed
 832 004e 80BD     		pop	{r7, pc}
 833              	.L41:
 834              		.align	2
 835              	.L40:
 836 0050 00610140 		.word	1073832192
 837              		.cfi_endproc
 838              	.LFE451:
 840              		.section	.text.HAL_DFSDM_ChannelCkabStart_IT,"ax",%progbits
 841              		.align	1
 842              		.global	HAL_DFSDM_ChannelCkabStart_IT
 843              		.syntax unified
 844              		.thumb
 845              		.thumb_func
 847              	HAL_DFSDM_ChannelCkabStart_IT:
 848              	.LFB452:
 842:Drivers/STM32L4xx_HAL_Driver/Src/stm32l4xx_hal_dfsdm.c **** 
 843:Drivers/STM32L4xx_HAL_Driver/Src/stm32l4xx_hal_dfsdm.c **** /**
 844:Drivers/STM32L4xx_HAL_Driver/Src/stm32l4xx_hal_dfsdm.c ****   * @brief  This function allows to start clock absence detection in interrupt mode.
 845:Drivers/STM32L4xx_HAL_Driver/Src/stm32l4xx_hal_dfsdm.c ****   * @note   Same mode has to be used for all channels.
 846:Drivers/STM32L4xx_HAL_Driver/Src/stm32l4xx_hal_dfsdm.c ****   * @note   If clock is not available on this channel during 5 seconds,
 847:Drivers/STM32L4xx_HAL_Driver/Src/stm32l4xx_hal_dfsdm.c ****   *         clock absence detection will not be activated and function
 848:Drivers/STM32L4xx_HAL_Driver/Src/stm32l4xx_hal_dfsdm.c ****   *         will return HAL_TIMEOUT error.
 849:Drivers/STM32L4xx_HAL_Driver/Src/stm32l4xx_hal_dfsdm.c ****   * @param  hdfsdm_channel DFSDM channel handle.
 850:Drivers/STM32L4xx_HAL_Driver/Src/stm32l4xx_hal_dfsdm.c ****   * @retval HAL status
 851:Drivers/STM32L4xx_HAL_Driver/Src/stm32l4xx_hal_dfsdm.c ****   */
 852:Drivers/STM32L4xx_HAL_Driver/Src/stm32l4xx_hal_dfsdm.c **** HAL_StatusTypeDef HAL_DFSDM_ChannelCkabStart_IT(DFSDM_Channel_HandleTypeDef *hdfsdm_channel)
 853:Drivers/STM32L4xx_HAL_Driver/Src/stm32l4xx_hal_dfsdm.c **** {
ARM GAS  /tmp/ccrDNuCE.s 			page 31


 849              		.loc 1 853 1
 850              		.cfi_startproc
 851              		@ args = 0, pretend = 0, frame = 24
 852              		@ frame_needed = 1, uses_anonymous_args = 0
 853 0000 80B5     		push	{r7, lr}
 854              		.cfi_def_cfa_offset 8
 855              		.cfi_offset 7, -8
 856              		.cfi_offset 14, -4
 857 0002 86B0     		sub	sp, sp, #24
 858              		.cfi_def_cfa_offset 32
 859 0004 00AF     		add	r7, sp, #0
 860              		.cfi_def_cfa_register 7
 861 0006 7860     		str	r0, [r7, #4]
 854:Drivers/STM32L4xx_HAL_Driver/Src/stm32l4xx_hal_dfsdm.c ****   HAL_StatusTypeDef status = HAL_OK;
 862              		.loc 1 854 21
 863 0008 0023     		movs	r3, #0
 864 000a FB75     		strb	r3, [r7, #23]
 855:Drivers/STM32L4xx_HAL_Driver/Src/stm32l4xx_hal_dfsdm.c ****   uint32_t channel;
 856:Drivers/STM32L4xx_HAL_Driver/Src/stm32l4xx_hal_dfsdm.c ****   uint32_t tickstart;
 857:Drivers/STM32L4xx_HAL_Driver/Src/stm32l4xx_hal_dfsdm.c **** 
 858:Drivers/STM32L4xx_HAL_Driver/Src/stm32l4xx_hal_dfsdm.c ****   /* Check parameters */
 859:Drivers/STM32L4xx_HAL_Driver/Src/stm32l4xx_hal_dfsdm.c ****   assert_param(IS_DFSDM_CHANNEL_ALL_INSTANCE(hdfsdm_channel->Instance));
 860:Drivers/STM32L4xx_HAL_Driver/Src/stm32l4xx_hal_dfsdm.c **** 
 861:Drivers/STM32L4xx_HAL_Driver/Src/stm32l4xx_hal_dfsdm.c ****   /* Check DFSDM channel state */
 862:Drivers/STM32L4xx_HAL_Driver/Src/stm32l4xx_hal_dfsdm.c ****   if (hdfsdm_channel->State != HAL_DFSDM_CHANNEL_STATE_READY)
 865              		.loc 1 862 21
 866 000c 7B68     		ldr	r3, [r7, #4]
 867 000e 93F83430 		ldrb	r3, [r3, #52]	@ zero_extendqisi2
 868              		.loc 1 862 6
 869 0012 012B     		cmp	r3, #1
 870 0014 02D0     		beq	.L43
 863:Drivers/STM32L4xx_HAL_Driver/Src/stm32l4xx_hal_dfsdm.c ****   {
 864:Drivers/STM32L4xx_HAL_Driver/Src/stm32l4xx_hal_dfsdm.c ****     /* Return error status */
 865:Drivers/STM32L4xx_HAL_Driver/Src/stm32l4xx_hal_dfsdm.c ****     status = HAL_ERROR;
 871              		.loc 1 865 12
 872 0016 0123     		movs	r3, #1
 873 0018 FB75     		strb	r3, [r7, #23]
 874 001a 39E0     		b	.L44
 875              	.L43:
 866:Drivers/STM32L4xx_HAL_Driver/Src/stm32l4xx_hal_dfsdm.c ****   }
 867:Drivers/STM32L4xx_HAL_Driver/Src/stm32l4xx_hal_dfsdm.c ****   else
 868:Drivers/STM32L4xx_HAL_Driver/Src/stm32l4xx_hal_dfsdm.c ****   {
 869:Drivers/STM32L4xx_HAL_Driver/Src/stm32l4xx_hal_dfsdm.c ****     /* Get channel number from channel instance */
 870:Drivers/STM32L4xx_HAL_Driver/Src/stm32l4xx_hal_dfsdm.c ****     channel = DFSDM_GetChannelFromInstance(hdfsdm_channel->Instance);
 876              		.loc 1 870 58
 877 001c 7B68     		ldr	r3, [r7, #4]
 878 001e 1B68     		ldr	r3, [r3]
 879              		.loc 1 870 15
 880 0020 1846     		mov	r0, r3
 881 0022 FFF7FEFF 		bl	DFSDM_GetChannelFromInstance
 882 0026 3861     		str	r0, [r7, #16]
 871:Drivers/STM32L4xx_HAL_Driver/Src/stm32l4xx_hal_dfsdm.c **** 
 872:Drivers/STM32L4xx_HAL_Driver/Src/stm32l4xx_hal_dfsdm.c ****     /* Get timeout */
 873:Drivers/STM32L4xx_HAL_Driver/Src/stm32l4xx_hal_dfsdm.c ****     tickstart = HAL_GetTick();
 883              		.loc 1 873 17
 884 0028 FFF7FEFF 		bl	HAL_GetTick
 885 002c F860     		str	r0, [r7, #12]
ARM GAS  /tmp/ccrDNuCE.s 			page 32


 874:Drivers/STM32L4xx_HAL_Driver/Src/stm32l4xx_hal_dfsdm.c **** 
 875:Drivers/STM32L4xx_HAL_Driver/Src/stm32l4xx_hal_dfsdm.c ****     /* Clear clock absence flag */
 876:Drivers/STM32L4xx_HAL_Driver/Src/stm32l4xx_hal_dfsdm.c ****     while ((((DFSDM1_Filter0->FLTISR & DFSDM_FLTISR_CKABF) >> (DFSDM_FLTISR_CKABF_Pos + channel)) &
 886              		.loc 1 876 11
 887 002e 12E0     		b	.L45
 888              	.L47:
 877:Drivers/STM32L4xx_HAL_Driver/Src/stm32l4xx_hal_dfsdm.c ****     {
 878:Drivers/STM32L4xx_HAL_Driver/Src/stm32l4xx_hal_dfsdm.c ****       DFSDM1_Filter0->FLTICR = (1UL << (DFSDM_FLTICR_CLRCKABF_Pos + channel));
 889              		.loc 1 878 67
 890 0030 3B69     		ldr	r3, [r7, #16]
 891 0032 1033     		adds	r3, r3, #16
 892              		.loc 1 878 21
 893 0034 194A     		ldr	r2, .L49
 894              		.loc 1 878 37
 895 0036 0121     		movs	r1, #1
 896 0038 01FA03F3 		lsl	r3, r1, r3
 897              		.loc 1 878 30
 898 003c D360     		str	r3, [r2, #12]
 879:Drivers/STM32L4xx_HAL_Driver/Src/stm32l4xx_hal_dfsdm.c **** 
 880:Drivers/STM32L4xx_HAL_Driver/Src/stm32l4xx_hal_dfsdm.c ****       /* Check the Timeout */
 881:Drivers/STM32L4xx_HAL_Driver/Src/stm32l4xx_hal_dfsdm.c ****       if ((HAL_GetTick() - tickstart) > DFSDM_CKAB_TIMEOUT)
 899              		.loc 1 881 12
 900 003e FFF7FEFF 		bl	HAL_GetTick
 901 0042 0246     		mov	r2, r0
 902              		.loc 1 881 26 discriminator 1
 903 0044 FB68     		ldr	r3, [r7, #12]
 904 0046 D31A     		subs	r3, r2, r3
 905              		.loc 1 881 10 discriminator 1
 906 0048 41F28832 		movw	r2, #5000
 907 004c 9342     		cmp	r3, r2
 908 004e 02D9     		bls	.L45
 882:Drivers/STM32L4xx_HAL_Driver/Src/stm32l4xx_hal_dfsdm.c ****       {
 883:Drivers/STM32L4xx_HAL_Driver/Src/stm32l4xx_hal_dfsdm.c ****         /* Set timeout status */
 884:Drivers/STM32L4xx_HAL_Driver/Src/stm32l4xx_hal_dfsdm.c ****         status = HAL_TIMEOUT;
 909              		.loc 1 884 16
 910 0050 0323     		movs	r3, #3
 911 0052 FB75     		strb	r3, [r7, #23]
 885:Drivers/STM32L4xx_HAL_Driver/Src/stm32l4xx_hal_dfsdm.c ****         break;
 912              		.loc 1 885 9
 913 0054 0BE0     		b	.L46
 914              	.L45:
 876:Drivers/STM32L4xx_HAL_Driver/Src/stm32l4xx_hal_dfsdm.c ****     {
 915              		.loc 1 876 29
 916 0056 114B     		ldr	r3, .L49
 917 0058 9B68     		ldr	r3, [r3, #8]
 876:Drivers/STM32L4xx_HAL_Driver/Src/stm32l4xx_hal_dfsdm.c ****     {
 918              		.loc 1 876 38
 919 005a 03F47F02 		and	r2, r3, #16711680
 876:Drivers/STM32L4xx_HAL_Driver/Src/stm32l4xx_hal_dfsdm.c ****     {
 920              		.loc 1 876 87
 921 005e 3B69     		ldr	r3, [r7, #16]
 922 0060 1033     		adds	r3, r3, #16
 876:Drivers/STM32L4xx_HAL_Driver/Src/stm32l4xx_hal_dfsdm.c ****     {
 923              		.loc 1 876 60
 924 0062 22FA03F3 		lsr	r3, r2, r3
 876:Drivers/STM32L4xx_HAL_Driver/Src/stm32l4xx_hal_dfsdm.c ****     {
 925              		.loc 1 876 99
ARM GAS  /tmp/ccrDNuCE.s 			page 33


 926 0066 03F00103 		and	r3, r3, #1
 876:Drivers/STM32L4xx_HAL_Driver/Src/stm32l4xx_hal_dfsdm.c ****     {
 927              		.loc 1 876 105
 928 006a 002B     		cmp	r3, #0
 929 006c E0D1     		bne	.L47
 930              	.L46:
 886:Drivers/STM32L4xx_HAL_Driver/Src/stm32l4xx_hal_dfsdm.c ****       }
 887:Drivers/STM32L4xx_HAL_Driver/Src/stm32l4xx_hal_dfsdm.c ****     }
 888:Drivers/STM32L4xx_HAL_Driver/Src/stm32l4xx_hal_dfsdm.c **** 
 889:Drivers/STM32L4xx_HAL_Driver/Src/stm32l4xx_hal_dfsdm.c ****     if (status == HAL_OK)
 931              		.loc 1 889 8
 932 006e FB7D     		ldrb	r3, [r7, #23]	@ zero_extendqisi2
 933 0070 002B     		cmp	r3, #0
 934 0072 0DD1     		bne	.L44
 890:Drivers/STM32L4xx_HAL_Driver/Src/stm32l4xx_hal_dfsdm.c ****     {
 891:Drivers/STM32L4xx_HAL_Driver/Src/stm32l4xx_hal_dfsdm.c ****       /* Activate clock absence detection interrupt */
 892:Drivers/STM32L4xx_HAL_Driver/Src/stm32l4xx_hal_dfsdm.c ****       DFSDM1_Filter0->FLTCR2 |= DFSDM_FLTCR2_CKABIE;
 935              		.loc 1 892 21
 936 0074 094B     		ldr	r3, .L49
 937 0076 5B68     		ldr	r3, [r3, #4]
 938 0078 084A     		ldr	r2, .L49
 939              		.loc 1 892 30
 940 007a 43F04003 		orr	r3, r3, #64
 941 007e 5360     		str	r3, [r2, #4]
 893:Drivers/STM32L4xx_HAL_Driver/Src/stm32l4xx_hal_dfsdm.c **** 
 894:Drivers/STM32L4xx_HAL_Driver/Src/stm32l4xx_hal_dfsdm.c ****       /* Start clock absence detection */
 895:Drivers/STM32L4xx_HAL_Driver/Src/stm32l4xx_hal_dfsdm.c ****       hdfsdm_channel->Instance->CHCFGR1 |= DFSDM_CHCFGR1_CKABEN;
 942              		.loc 1 895 21
 943 0080 7B68     		ldr	r3, [r7, #4]
 944 0082 1B68     		ldr	r3, [r3]
 945              		.loc 1 895 31
 946 0084 1A68     		ldr	r2, [r3]
 947              		.loc 1 895 21
 948 0086 7B68     		ldr	r3, [r7, #4]
 949 0088 1B68     		ldr	r3, [r3]
 950              		.loc 1 895 41
 951 008a 42F04002 		orr	r2, r2, #64
 952 008e 1A60     		str	r2, [r3]
 953              	.L44:
 896:Drivers/STM32L4xx_HAL_Driver/Src/stm32l4xx_hal_dfsdm.c ****     }
 897:Drivers/STM32L4xx_HAL_Driver/Src/stm32l4xx_hal_dfsdm.c ****   }
 898:Drivers/STM32L4xx_HAL_Driver/Src/stm32l4xx_hal_dfsdm.c ****   /* Return function status */
 899:Drivers/STM32L4xx_HAL_Driver/Src/stm32l4xx_hal_dfsdm.c ****   return status;
 954              		.loc 1 899 10
 955 0090 FB7D     		ldrb	r3, [r7, #23]	@ zero_extendqisi2
 900:Drivers/STM32L4xx_HAL_Driver/Src/stm32l4xx_hal_dfsdm.c **** }
 956              		.loc 1 900 1
 957 0092 1846     		mov	r0, r3
 958 0094 1837     		adds	r7, r7, #24
 959              		.cfi_def_cfa_offset 8
 960 0096 BD46     		mov	sp, r7
 961              		.cfi_def_cfa_register 13
 962              		@ sp needed
 963 0098 80BD     		pop	{r7, pc}
 964              	.L50:
 965 009a 00BF     		.align	2
 966              	.L49:
ARM GAS  /tmp/ccrDNuCE.s 			page 34


 967 009c 00610140 		.word	1073832192
 968              		.cfi_endproc
 969              	.LFE452:
 971              		.section	.text.HAL_DFSDM_ChannelCkabCallback,"ax",%progbits
 972              		.align	1
 973              		.weak	HAL_DFSDM_ChannelCkabCallback
 974              		.syntax unified
 975              		.thumb
 976              		.thumb_func
 978              	HAL_DFSDM_ChannelCkabCallback:
 979              	.LFB453:
 901:Drivers/STM32L4xx_HAL_Driver/Src/stm32l4xx_hal_dfsdm.c **** 
 902:Drivers/STM32L4xx_HAL_Driver/Src/stm32l4xx_hal_dfsdm.c **** /**
 903:Drivers/STM32L4xx_HAL_Driver/Src/stm32l4xx_hal_dfsdm.c ****   * @brief  Clock absence detection callback.
 904:Drivers/STM32L4xx_HAL_Driver/Src/stm32l4xx_hal_dfsdm.c ****   * @param  hdfsdm_channel DFSDM channel handle.
 905:Drivers/STM32L4xx_HAL_Driver/Src/stm32l4xx_hal_dfsdm.c ****   * @retval None
 906:Drivers/STM32L4xx_HAL_Driver/Src/stm32l4xx_hal_dfsdm.c ****   */
 907:Drivers/STM32L4xx_HAL_Driver/Src/stm32l4xx_hal_dfsdm.c **** __weak void HAL_DFSDM_ChannelCkabCallback(DFSDM_Channel_HandleTypeDef *hdfsdm_channel)
 908:Drivers/STM32L4xx_HAL_Driver/Src/stm32l4xx_hal_dfsdm.c **** {
 980              		.loc 1 908 1
 981              		.cfi_startproc
 982              		@ args = 0, pretend = 0, frame = 8
 983              		@ frame_needed = 1, uses_anonymous_args = 0
 984              		@ link register save eliminated.
 985 0000 80B4     		push	{r7}
 986              		.cfi_def_cfa_offset 4
 987              		.cfi_offset 7, -4
 988 0002 83B0     		sub	sp, sp, #12
 989              		.cfi_def_cfa_offset 16
 990 0004 00AF     		add	r7, sp, #0
 991              		.cfi_def_cfa_register 7
 992 0006 7860     		str	r0, [r7, #4]
 909:Drivers/STM32L4xx_HAL_Driver/Src/stm32l4xx_hal_dfsdm.c ****   /* Prevent unused argument(s) compilation warning */
 910:Drivers/STM32L4xx_HAL_Driver/Src/stm32l4xx_hal_dfsdm.c ****   UNUSED(hdfsdm_channel);
 911:Drivers/STM32L4xx_HAL_Driver/Src/stm32l4xx_hal_dfsdm.c **** 
 912:Drivers/STM32L4xx_HAL_Driver/Src/stm32l4xx_hal_dfsdm.c ****   /* NOTE : This function should not be modified, when the callback is needed,
 913:Drivers/STM32L4xx_HAL_Driver/Src/stm32l4xx_hal_dfsdm.c ****             the HAL_DFSDM_ChannelCkabCallback could be implemented in the user file
 914:Drivers/STM32L4xx_HAL_Driver/Src/stm32l4xx_hal_dfsdm.c ****    */
 915:Drivers/STM32L4xx_HAL_Driver/Src/stm32l4xx_hal_dfsdm.c **** }
 993              		.loc 1 915 1
 994 0008 00BF     		nop
 995 000a 0C37     		adds	r7, r7, #12
 996              		.cfi_def_cfa_offset 4
 997 000c BD46     		mov	sp, r7
 998              		.cfi_def_cfa_register 13
 999              		@ sp needed
 1000 000e 5DF8047B 		ldr	r7, [sp], #4
 1001              		.cfi_restore 7
 1002              		.cfi_def_cfa_offset 0
 1003 0012 7047     		bx	lr
 1004              		.cfi_endproc
 1005              	.LFE453:
 1007              		.section	.text.HAL_DFSDM_ChannelCkabStop_IT,"ax",%progbits
 1008              		.align	1
 1009              		.global	HAL_DFSDM_ChannelCkabStop_IT
 1010              		.syntax unified
 1011              		.thumb
ARM GAS  /tmp/ccrDNuCE.s 			page 35


 1012              		.thumb_func
 1014              	HAL_DFSDM_ChannelCkabStop_IT:
 1015              	.LFB454:
 916:Drivers/STM32L4xx_HAL_Driver/Src/stm32l4xx_hal_dfsdm.c **** 
 917:Drivers/STM32L4xx_HAL_Driver/Src/stm32l4xx_hal_dfsdm.c **** /**
 918:Drivers/STM32L4xx_HAL_Driver/Src/stm32l4xx_hal_dfsdm.c ****   * @brief  This function allows to stop clock absence detection in interrupt mode.
 919:Drivers/STM32L4xx_HAL_Driver/Src/stm32l4xx_hal_dfsdm.c ****   * @note   Interrupt will be disabled for all channels
 920:Drivers/STM32L4xx_HAL_Driver/Src/stm32l4xx_hal_dfsdm.c ****   * @param  hdfsdm_channel DFSDM channel handle.
 921:Drivers/STM32L4xx_HAL_Driver/Src/stm32l4xx_hal_dfsdm.c ****   * @retval HAL status
 922:Drivers/STM32L4xx_HAL_Driver/Src/stm32l4xx_hal_dfsdm.c ****   */
 923:Drivers/STM32L4xx_HAL_Driver/Src/stm32l4xx_hal_dfsdm.c **** HAL_StatusTypeDef HAL_DFSDM_ChannelCkabStop_IT(DFSDM_Channel_HandleTypeDef *hdfsdm_channel)
 924:Drivers/STM32L4xx_HAL_Driver/Src/stm32l4xx_hal_dfsdm.c **** {
 1016              		.loc 1 924 1
 1017              		.cfi_startproc
 1018              		@ args = 0, pretend = 0, frame = 16
 1019              		@ frame_needed = 1, uses_anonymous_args = 0
 1020 0000 80B5     		push	{r7, lr}
 1021              		.cfi_def_cfa_offset 8
 1022              		.cfi_offset 7, -8
 1023              		.cfi_offset 14, -4
 1024 0002 84B0     		sub	sp, sp, #16
 1025              		.cfi_def_cfa_offset 24
 1026 0004 00AF     		add	r7, sp, #0
 1027              		.cfi_def_cfa_register 7
 1028 0006 7860     		str	r0, [r7, #4]
 925:Drivers/STM32L4xx_HAL_Driver/Src/stm32l4xx_hal_dfsdm.c ****   HAL_StatusTypeDef status = HAL_OK;
 1029              		.loc 1 925 21
 1030 0008 0023     		movs	r3, #0
 1031 000a FB73     		strb	r3, [r7, #15]
 926:Drivers/STM32L4xx_HAL_Driver/Src/stm32l4xx_hal_dfsdm.c ****   uint32_t channel;
 927:Drivers/STM32L4xx_HAL_Driver/Src/stm32l4xx_hal_dfsdm.c **** 
 928:Drivers/STM32L4xx_HAL_Driver/Src/stm32l4xx_hal_dfsdm.c ****   /* Check parameters */
 929:Drivers/STM32L4xx_HAL_Driver/Src/stm32l4xx_hal_dfsdm.c ****   assert_param(IS_DFSDM_CHANNEL_ALL_INSTANCE(hdfsdm_channel->Instance));
 930:Drivers/STM32L4xx_HAL_Driver/Src/stm32l4xx_hal_dfsdm.c **** 
 931:Drivers/STM32L4xx_HAL_Driver/Src/stm32l4xx_hal_dfsdm.c ****   /* Check DFSDM channel state */
 932:Drivers/STM32L4xx_HAL_Driver/Src/stm32l4xx_hal_dfsdm.c ****   if (hdfsdm_channel->State != HAL_DFSDM_CHANNEL_STATE_READY)
 1032              		.loc 1 932 21
 1033 000c 7B68     		ldr	r3, [r7, #4]
 1034 000e 93F83430 		ldrb	r3, [r3, #52]	@ zero_extendqisi2
 1035              		.loc 1 932 6
 1036 0012 012B     		cmp	r3, #1
 1037 0014 02D0     		beq	.L53
 933:Drivers/STM32L4xx_HAL_Driver/Src/stm32l4xx_hal_dfsdm.c ****   {
 934:Drivers/STM32L4xx_HAL_Driver/Src/stm32l4xx_hal_dfsdm.c ****     /* Return error status */
 935:Drivers/STM32L4xx_HAL_Driver/Src/stm32l4xx_hal_dfsdm.c ****     status = HAL_ERROR;
 1038              		.loc 1 935 12
 1039 0016 0123     		movs	r3, #1
 1040 0018 FB73     		strb	r3, [r7, #15]
 1041 001a 1AE0     		b	.L54
 1042              	.L53:
 936:Drivers/STM32L4xx_HAL_Driver/Src/stm32l4xx_hal_dfsdm.c ****   }
 937:Drivers/STM32L4xx_HAL_Driver/Src/stm32l4xx_hal_dfsdm.c ****   else
 938:Drivers/STM32L4xx_HAL_Driver/Src/stm32l4xx_hal_dfsdm.c ****   {
 939:Drivers/STM32L4xx_HAL_Driver/Src/stm32l4xx_hal_dfsdm.c ****     /* Stop clock absence detection */
 940:Drivers/STM32L4xx_HAL_Driver/Src/stm32l4xx_hal_dfsdm.c ****     hdfsdm_channel->Instance->CHCFGR1 &= ~(DFSDM_CHCFGR1_CKABEN);
 1043              		.loc 1 940 19
 1044 001c 7B68     		ldr	r3, [r7, #4]
ARM GAS  /tmp/ccrDNuCE.s 			page 36


 1045 001e 1B68     		ldr	r3, [r3]
 1046              		.loc 1 940 29
 1047 0020 1A68     		ldr	r2, [r3]
 1048              		.loc 1 940 19
 1049 0022 7B68     		ldr	r3, [r7, #4]
 1050 0024 1B68     		ldr	r3, [r3]
 1051              		.loc 1 940 39
 1052 0026 22F04002 		bic	r2, r2, #64
 1053 002a 1A60     		str	r2, [r3]
 941:Drivers/STM32L4xx_HAL_Driver/Src/stm32l4xx_hal_dfsdm.c **** 
 942:Drivers/STM32L4xx_HAL_Driver/Src/stm32l4xx_hal_dfsdm.c ****     /* Clear clock absence flag */
 943:Drivers/STM32L4xx_HAL_Driver/Src/stm32l4xx_hal_dfsdm.c ****     channel = DFSDM_GetChannelFromInstance(hdfsdm_channel->Instance);
 1054              		.loc 1 943 58
 1055 002c 7B68     		ldr	r3, [r7, #4]
 1056 002e 1B68     		ldr	r3, [r3]
 1057              		.loc 1 943 15
 1058 0030 1846     		mov	r0, r3
 1059 0032 FFF7FEFF 		bl	DFSDM_GetChannelFromInstance
 1060 0036 B860     		str	r0, [r7, #8]
 944:Drivers/STM32L4xx_HAL_Driver/Src/stm32l4xx_hal_dfsdm.c ****     DFSDM1_Filter0->FLTICR = (1UL << (DFSDM_FLTICR_CLRCKABF_Pos + channel));
 1061              		.loc 1 944 65
 1062 0038 BB68     		ldr	r3, [r7, #8]
 1063 003a 1033     		adds	r3, r3, #16
 1064              		.loc 1 944 19
 1065 003c 074A     		ldr	r2, .L56
 1066              		.loc 1 944 35
 1067 003e 0121     		movs	r1, #1
 1068 0040 01FA03F3 		lsl	r3, r1, r3
 1069              		.loc 1 944 28
 1070 0044 D360     		str	r3, [r2, #12]
 945:Drivers/STM32L4xx_HAL_Driver/Src/stm32l4xx_hal_dfsdm.c **** 
 946:Drivers/STM32L4xx_HAL_Driver/Src/stm32l4xx_hal_dfsdm.c ****     /* Disable clock absence detection interrupt */
 947:Drivers/STM32L4xx_HAL_Driver/Src/stm32l4xx_hal_dfsdm.c ****     DFSDM1_Filter0->FLTCR2 &= ~(DFSDM_FLTCR2_CKABIE);
 1071              		.loc 1 947 19
 1072 0046 054B     		ldr	r3, .L56
 1073 0048 5B68     		ldr	r3, [r3, #4]
 1074 004a 044A     		ldr	r2, .L56
 1075              		.loc 1 947 28
 1076 004c 23F04003 		bic	r3, r3, #64
 1077 0050 5360     		str	r3, [r2, #4]
 1078              	.L54:
 948:Drivers/STM32L4xx_HAL_Driver/Src/stm32l4xx_hal_dfsdm.c ****   }
 949:Drivers/STM32L4xx_HAL_Driver/Src/stm32l4xx_hal_dfsdm.c ****   /* Return function status */
 950:Drivers/STM32L4xx_HAL_Driver/Src/stm32l4xx_hal_dfsdm.c ****   return status;
 1079              		.loc 1 950 10
 1080 0052 FB7B     		ldrb	r3, [r7, #15]	@ zero_extendqisi2
 951:Drivers/STM32L4xx_HAL_Driver/Src/stm32l4xx_hal_dfsdm.c **** }
 1081              		.loc 1 951 1
 1082 0054 1846     		mov	r0, r3
 1083 0056 1037     		adds	r7, r7, #16
 1084              		.cfi_def_cfa_offset 8
 1085 0058 BD46     		mov	sp, r7
 1086              		.cfi_def_cfa_register 13
 1087              		@ sp needed
 1088 005a 80BD     		pop	{r7, pc}
 1089              	.L57:
 1090              		.align	2
ARM GAS  /tmp/ccrDNuCE.s 			page 37


 1091              	.L56:
 1092 005c 00610140 		.word	1073832192
 1093              		.cfi_endproc
 1094              	.LFE454:
 1096              		.section	.text.HAL_DFSDM_ChannelScdStart,"ax",%progbits
 1097              		.align	1
 1098              		.global	HAL_DFSDM_ChannelScdStart
 1099              		.syntax unified
 1100              		.thumb
 1101              		.thumb_func
 1103              	HAL_DFSDM_ChannelScdStart:
 1104              	.LFB455:
 952:Drivers/STM32L4xx_HAL_Driver/Src/stm32l4xx_hal_dfsdm.c **** 
 953:Drivers/STM32L4xx_HAL_Driver/Src/stm32l4xx_hal_dfsdm.c **** /**
 954:Drivers/STM32L4xx_HAL_Driver/Src/stm32l4xx_hal_dfsdm.c ****   * @brief  This function allows to start short circuit detection in polling mode.
 955:Drivers/STM32L4xx_HAL_Driver/Src/stm32l4xx_hal_dfsdm.c ****   * @note   Same mode has to be used for all channels
 956:Drivers/STM32L4xx_HAL_Driver/Src/stm32l4xx_hal_dfsdm.c ****   * @param  hdfsdm_channel DFSDM channel handle.
 957:Drivers/STM32L4xx_HAL_Driver/Src/stm32l4xx_hal_dfsdm.c ****   * @param  Threshold Short circuit detector threshold.
 958:Drivers/STM32L4xx_HAL_Driver/Src/stm32l4xx_hal_dfsdm.c ****   *         This parameter must be a number between Min_Data = 0 and Max_Data = 255.
 959:Drivers/STM32L4xx_HAL_Driver/Src/stm32l4xx_hal_dfsdm.c ****   * @param  BreakSignal Break signals assigned to short circuit event.
 960:Drivers/STM32L4xx_HAL_Driver/Src/stm32l4xx_hal_dfsdm.c ****   *         This parameter can be a values combination of @ref DFSDM_BreakSignals.
 961:Drivers/STM32L4xx_HAL_Driver/Src/stm32l4xx_hal_dfsdm.c ****   * @retval HAL status
 962:Drivers/STM32L4xx_HAL_Driver/Src/stm32l4xx_hal_dfsdm.c ****   */
 963:Drivers/STM32L4xx_HAL_Driver/Src/stm32l4xx_hal_dfsdm.c **** HAL_StatusTypeDef HAL_DFSDM_ChannelScdStart(DFSDM_Channel_HandleTypeDef *hdfsdm_channel,
 964:Drivers/STM32L4xx_HAL_Driver/Src/stm32l4xx_hal_dfsdm.c ****                                             uint32_t Threshold,
 965:Drivers/STM32L4xx_HAL_Driver/Src/stm32l4xx_hal_dfsdm.c ****                                             uint32_t BreakSignal)
 966:Drivers/STM32L4xx_HAL_Driver/Src/stm32l4xx_hal_dfsdm.c **** {
 1105              		.loc 1 966 1
 1106              		.cfi_startproc
 1107              		@ args = 0, pretend = 0, frame = 24
 1108              		@ frame_needed = 1, uses_anonymous_args = 0
 1109              		@ link register save eliminated.
 1110 0000 80B4     		push	{r7}
 1111              		.cfi_def_cfa_offset 4
 1112              		.cfi_offset 7, -4
 1113 0002 87B0     		sub	sp, sp, #28
 1114              		.cfi_def_cfa_offset 32
 1115 0004 00AF     		add	r7, sp, #0
 1116              		.cfi_def_cfa_register 7
 1117 0006 F860     		str	r0, [r7, #12]
 1118 0008 B960     		str	r1, [r7, #8]
 1119 000a 7A60     		str	r2, [r7, #4]
 967:Drivers/STM32L4xx_HAL_Driver/Src/stm32l4xx_hal_dfsdm.c ****   HAL_StatusTypeDef status = HAL_OK;
 1120              		.loc 1 967 21
 1121 000c 0023     		movs	r3, #0
 1122 000e FB75     		strb	r3, [r7, #23]
 968:Drivers/STM32L4xx_HAL_Driver/Src/stm32l4xx_hal_dfsdm.c **** 
 969:Drivers/STM32L4xx_HAL_Driver/Src/stm32l4xx_hal_dfsdm.c ****   /* Check parameters */
 970:Drivers/STM32L4xx_HAL_Driver/Src/stm32l4xx_hal_dfsdm.c ****   assert_param(IS_DFSDM_CHANNEL_ALL_INSTANCE(hdfsdm_channel->Instance));
 971:Drivers/STM32L4xx_HAL_Driver/Src/stm32l4xx_hal_dfsdm.c ****   assert_param(IS_DFSDM_CHANNEL_SCD_THRESHOLD(Threshold));
 972:Drivers/STM32L4xx_HAL_Driver/Src/stm32l4xx_hal_dfsdm.c ****   assert_param(IS_DFSDM_BREAK_SIGNALS(BreakSignal));
 973:Drivers/STM32L4xx_HAL_Driver/Src/stm32l4xx_hal_dfsdm.c **** 
 974:Drivers/STM32L4xx_HAL_Driver/Src/stm32l4xx_hal_dfsdm.c ****   /* Check DFSDM channel state */
 975:Drivers/STM32L4xx_HAL_Driver/Src/stm32l4xx_hal_dfsdm.c ****   if (hdfsdm_channel->State != HAL_DFSDM_CHANNEL_STATE_READY)
 1123              		.loc 1 975 21
 1124 0010 FB68     		ldr	r3, [r7, #12]
 1125 0012 93F83430 		ldrb	r3, [r3, #52]	@ zero_extendqisi2
ARM GAS  /tmp/ccrDNuCE.s 			page 38


 1126              		.loc 1 975 6
 1127 0016 012B     		cmp	r3, #1
 1128 0018 02D0     		beq	.L59
 976:Drivers/STM32L4xx_HAL_Driver/Src/stm32l4xx_hal_dfsdm.c ****   {
 977:Drivers/STM32L4xx_HAL_Driver/Src/stm32l4xx_hal_dfsdm.c ****     /* Return error status */
 978:Drivers/STM32L4xx_HAL_Driver/Src/stm32l4xx_hal_dfsdm.c ****     status = HAL_ERROR;
 1129              		.loc 1 978 12
 1130 001a 0123     		movs	r3, #1
 1131 001c FB75     		strb	r3, [r7, #23]
 1132 001e 1CE0     		b	.L60
 1133              	.L59:
 979:Drivers/STM32L4xx_HAL_Driver/Src/stm32l4xx_hal_dfsdm.c ****   }
 980:Drivers/STM32L4xx_HAL_Driver/Src/stm32l4xx_hal_dfsdm.c ****   else
 981:Drivers/STM32L4xx_HAL_Driver/Src/stm32l4xx_hal_dfsdm.c ****   {
 982:Drivers/STM32L4xx_HAL_Driver/Src/stm32l4xx_hal_dfsdm.c ****     /* Configure threshold and break signals */
 983:Drivers/STM32L4xx_HAL_Driver/Src/stm32l4xx_hal_dfsdm.c ****     hdfsdm_channel->Instance->CHAWSCDR &= ~(DFSDM_CHAWSCDR_BKSCD | DFSDM_CHAWSCDR_SCDT);
 1134              		.loc 1 983 19
 1135 0020 FB68     		ldr	r3, [r7, #12]
 1136 0022 1B68     		ldr	r3, [r3]
 1137              		.loc 1 983 29
 1138 0024 9B68     		ldr	r3, [r3, #8]
 1139              		.loc 1 983 19
 1140 0026 FA68     		ldr	r2, [r7, #12]
 1141 0028 1268     		ldr	r2, [r2]
 1142              		.loc 1 983 40
 1143 002a 23F47043 		bic	r3, r3, #61440
 1144 002e 23F0FF03 		bic	r3, r3, #255
 1145 0032 9360     		str	r3, [r2, #8]
 984:Drivers/STM32L4xx_HAL_Driver/Src/stm32l4xx_hal_dfsdm.c ****     hdfsdm_channel->Instance->CHAWSCDR |= ((BreakSignal << DFSDM_CHAWSCDR_BKSCD_Pos) | \
 1146              		.loc 1 984 19
 1147 0034 FB68     		ldr	r3, [r7, #12]
 1148 0036 1B68     		ldr	r3, [r3]
 1149              		.loc 1 984 29
 1150 0038 9968     		ldr	r1, [r3, #8]
 1151              		.loc 1 984 57
 1152 003a 7B68     		ldr	r3, [r7, #4]
 1153 003c 1A03     		lsls	r2, r3, #12
 1154              		.loc 1 984 86
 1155 003e BB68     		ldr	r3, [r7, #8]
 1156 0040 1A43     		orrs	r2, r2, r3
 1157              		.loc 1 984 19
 1158 0042 FB68     		ldr	r3, [r7, #12]
 1159 0044 1B68     		ldr	r3, [r3]
 1160              		.loc 1 984 40
 1161 0046 0A43     		orrs	r2, r2, r1
 1162 0048 9A60     		str	r2, [r3, #8]
 985:Drivers/STM32L4xx_HAL_Driver/Src/stm32l4xx_hal_dfsdm.c ****                                            Threshold);
 986:Drivers/STM32L4xx_HAL_Driver/Src/stm32l4xx_hal_dfsdm.c **** 
 987:Drivers/STM32L4xx_HAL_Driver/Src/stm32l4xx_hal_dfsdm.c ****     /* Start short circuit detection */
 988:Drivers/STM32L4xx_HAL_Driver/Src/stm32l4xx_hal_dfsdm.c ****     hdfsdm_channel->Instance->CHCFGR1 |= DFSDM_CHCFGR1_SCDEN;
 1163              		.loc 1 988 19
 1164 004a FB68     		ldr	r3, [r7, #12]
 1165 004c 1B68     		ldr	r3, [r3]
 1166              		.loc 1 988 29
 1167 004e 1A68     		ldr	r2, [r3]
 1168              		.loc 1 988 19
 1169 0050 FB68     		ldr	r3, [r7, #12]
ARM GAS  /tmp/ccrDNuCE.s 			page 39


 1170 0052 1B68     		ldr	r3, [r3]
 1171              		.loc 1 988 39
 1172 0054 42F02002 		orr	r2, r2, #32
 1173 0058 1A60     		str	r2, [r3]
 1174              	.L60:
 989:Drivers/STM32L4xx_HAL_Driver/Src/stm32l4xx_hal_dfsdm.c ****   }
 990:Drivers/STM32L4xx_HAL_Driver/Src/stm32l4xx_hal_dfsdm.c ****   /* Return function status */
 991:Drivers/STM32L4xx_HAL_Driver/Src/stm32l4xx_hal_dfsdm.c ****   return status;
 1175              		.loc 1 991 10
 1176 005a FB7D     		ldrb	r3, [r7, #23]	@ zero_extendqisi2
 992:Drivers/STM32L4xx_HAL_Driver/Src/stm32l4xx_hal_dfsdm.c **** }
 1177              		.loc 1 992 1
 1178 005c 1846     		mov	r0, r3
 1179 005e 1C37     		adds	r7, r7, #28
 1180              		.cfi_def_cfa_offset 4
 1181 0060 BD46     		mov	sp, r7
 1182              		.cfi_def_cfa_register 13
 1183              		@ sp needed
 1184 0062 5DF8047B 		ldr	r7, [sp], #4
 1185              		.cfi_restore 7
 1186              		.cfi_def_cfa_offset 0
 1187 0066 7047     		bx	lr
 1188              		.cfi_endproc
 1189              	.LFE455:
 1191              		.section	.text.HAL_DFSDM_ChannelPollForScd,"ax",%progbits
 1192              		.align	1
 1193              		.global	HAL_DFSDM_ChannelPollForScd
 1194              		.syntax unified
 1195              		.thumb
 1196              		.thumb_func
 1198              	HAL_DFSDM_ChannelPollForScd:
 1199              	.LFB456:
 993:Drivers/STM32L4xx_HAL_Driver/Src/stm32l4xx_hal_dfsdm.c **** 
 994:Drivers/STM32L4xx_HAL_Driver/Src/stm32l4xx_hal_dfsdm.c **** /**
 995:Drivers/STM32L4xx_HAL_Driver/Src/stm32l4xx_hal_dfsdm.c ****   * @brief  This function allows to poll for the short circuit detection.
 996:Drivers/STM32L4xx_HAL_Driver/Src/stm32l4xx_hal_dfsdm.c ****   * @param  hdfsdm_channel DFSDM channel handle.
 997:Drivers/STM32L4xx_HAL_Driver/Src/stm32l4xx_hal_dfsdm.c ****   * @param  Timeout Timeout value in milliseconds.
 998:Drivers/STM32L4xx_HAL_Driver/Src/stm32l4xx_hal_dfsdm.c ****   * @retval HAL status
 999:Drivers/STM32L4xx_HAL_Driver/Src/stm32l4xx_hal_dfsdm.c ****   */
1000:Drivers/STM32L4xx_HAL_Driver/Src/stm32l4xx_hal_dfsdm.c **** HAL_StatusTypeDef HAL_DFSDM_ChannelPollForScd(const DFSDM_Channel_HandleTypeDef *hdfsdm_channel,
1001:Drivers/STM32L4xx_HAL_Driver/Src/stm32l4xx_hal_dfsdm.c ****                                               uint32_t Timeout)
1002:Drivers/STM32L4xx_HAL_Driver/Src/stm32l4xx_hal_dfsdm.c **** {
 1200              		.loc 1 1002 1
 1201              		.cfi_startproc
 1202              		@ args = 0, pretend = 0, frame = 16
 1203              		@ frame_needed = 1, uses_anonymous_args = 0
 1204 0000 80B5     		push	{r7, lr}
 1205              		.cfi_def_cfa_offset 8
 1206              		.cfi_offset 7, -8
 1207              		.cfi_offset 14, -4
 1208 0002 84B0     		sub	sp, sp, #16
 1209              		.cfi_def_cfa_offset 24
 1210 0004 00AF     		add	r7, sp, #0
 1211              		.cfi_def_cfa_register 7
 1212 0006 7860     		str	r0, [r7, #4]
 1213 0008 3960     		str	r1, [r7]
1003:Drivers/STM32L4xx_HAL_Driver/Src/stm32l4xx_hal_dfsdm.c ****   uint32_t tickstart;
ARM GAS  /tmp/ccrDNuCE.s 			page 40


1004:Drivers/STM32L4xx_HAL_Driver/Src/stm32l4xx_hal_dfsdm.c ****   uint32_t channel;
1005:Drivers/STM32L4xx_HAL_Driver/Src/stm32l4xx_hal_dfsdm.c **** 
1006:Drivers/STM32L4xx_HAL_Driver/Src/stm32l4xx_hal_dfsdm.c ****   /* Check parameters */
1007:Drivers/STM32L4xx_HAL_Driver/Src/stm32l4xx_hal_dfsdm.c ****   assert_param(IS_DFSDM_CHANNEL_ALL_INSTANCE(hdfsdm_channel->Instance));
1008:Drivers/STM32L4xx_HAL_Driver/Src/stm32l4xx_hal_dfsdm.c **** 
1009:Drivers/STM32L4xx_HAL_Driver/Src/stm32l4xx_hal_dfsdm.c ****   /* Check DFSDM channel state */
1010:Drivers/STM32L4xx_HAL_Driver/Src/stm32l4xx_hal_dfsdm.c ****   if (hdfsdm_channel->State != HAL_DFSDM_CHANNEL_STATE_READY)
 1214              		.loc 1 1010 21
 1215 000a 7B68     		ldr	r3, [r7, #4]
 1216 000c 93F83430 		ldrb	r3, [r3, #52]	@ zero_extendqisi2
 1217              		.loc 1 1010 6
 1218 0010 012B     		cmp	r3, #1
 1219 0012 01D0     		beq	.L63
1011:Drivers/STM32L4xx_HAL_Driver/Src/stm32l4xx_hal_dfsdm.c ****   {
1012:Drivers/STM32L4xx_HAL_Driver/Src/stm32l4xx_hal_dfsdm.c ****     /* Return error status */
1013:Drivers/STM32L4xx_HAL_Driver/Src/stm32l4xx_hal_dfsdm.c ****     return HAL_ERROR;
 1220              		.loc 1 1013 12
 1221 0014 0123     		movs	r3, #1
 1222 0016 2CE0     		b	.L64
 1223              	.L63:
1014:Drivers/STM32L4xx_HAL_Driver/Src/stm32l4xx_hal_dfsdm.c ****   }
1015:Drivers/STM32L4xx_HAL_Driver/Src/stm32l4xx_hal_dfsdm.c ****   else
1016:Drivers/STM32L4xx_HAL_Driver/Src/stm32l4xx_hal_dfsdm.c ****   {
1017:Drivers/STM32L4xx_HAL_Driver/Src/stm32l4xx_hal_dfsdm.c ****     /* Get channel number from channel instance */
1018:Drivers/STM32L4xx_HAL_Driver/Src/stm32l4xx_hal_dfsdm.c ****     channel = DFSDM_GetChannelFromInstance(hdfsdm_channel->Instance);
 1224              		.loc 1 1018 58
 1225 0018 7B68     		ldr	r3, [r7, #4]
 1226 001a 1B68     		ldr	r3, [r3]
 1227              		.loc 1 1018 15
 1228 001c 1846     		mov	r0, r3
 1229 001e FFF7FEFF 		bl	DFSDM_GetChannelFromInstance
 1230 0022 F860     		str	r0, [r7, #12]
1019:Drivers/STM32L4xx_HAL_Driver/Src/stm32l4xx_hal_dfsdm.c **** 
1020:Drivers/STM32L4xx_HAL_Driver/Src/stm32l4xx_hal_dfsdm.c ****     /* Get timeout */
1021:Drivers/STM32L4xx_HAL_Driver/Src/stm32l4xx_hal_dfsdm.c ****     tickstart = HAL_GetTick();
 1231              		.loc 1 1021 17
 1232 0024 FFF7FEFF 		bl	HAL_GetTick
 1233 0028 B860     		str	r0, [r7, #8]
1022:Drivers/STM32L4xx_HAL_Driver/Src/stm32l4xx_hal_dfsdm.c **** 
1023:Drivers/STM32L4xx_HAL_Driver/Src/stm32l4xx_hal_dfsdm.c ****     /* Wait short circuit detection */
1024:Drivers/STM32L4xx_HAL_Driver/Src/stm32l4xx_hal_dfsdm.c ****     while (((DFSDM1_Filter0->FLTISR & DFSDM_FLTISR_SCDF) >> (DFSDM_FLTISR_SCDF_Pos + channel)) == 0
 1234              		.loc 1 1024 11
 1235 002a 10E0     		b	.L66
 1236              	.L68:
1025:Drivers/STM32L4xx_HAL_Driver/Src/stm32l4xx_hal_dfsdm.c ****     {
1026:Drivers/STM32L4xx_HAL_Driver/Src/stm32l4xx_hal_dfsdm.c ****       /* Check the Timeout */
1027:Drivers/STM32L4xx_HAL_Driver/Src/stm32l4xx_hal_dfsdm.c ****       if (Timeout != HAL_MAX_DELAY)
 1237              		.loc 1 1027 10
 1238 002c 3B68     		ldr	r3, [r7]
 1239 002e B3F1FF3F 		cmp	r3, #-1
 1240 0032 0CD0     		beq	.L66
1028:Drivers/STM32L4xx_HAL_Driver/Src/stm32l4xx_hal_dfsdm.c ****       {
1029:Drivers/STM32L4xx_HAL_Driver/Src/stm32l4xx_hal_dfsdm.c ****         if (((HAL_GetTick() - tickstart) > Timeout) || (Timeout == 0U))
 1241              		.loc 1 1029 15
 1242 0034 FFF7FEFF 		bl	HAL_GetTick
 1243 0038 0246     		mov	r2, r0
 1244              		.loc 1 1029 29 discriminator 1
ARM GAS  /tmp/ccrDNuCE.s 			page 41


 1245 003a BB68     		ldr	r3, [r7, #8]
 1246 003c D31A     		subs	r3, r2, r3
 1247              		.loc 1 1029 12 discriminator 1
 1248 003e 3A68     		ldr	r2, [r7]
 1249 0040 9A42     		cmp	r2, r3
 1250 0042 02D3     		bcc	.L67
 1251              		.loc 1 1029 53 discriminator 1
 1252 0044 3B68     		ldr	r3, [r7]
 1253 0046 002B     		cmp	r3, #0
 1254 0048 01D1     		bne	.L66
 1255              	.L67:
1030:Drivers/STM32L4xx_HAL_Driver/Src/stm32l4xx_hal_dfsdm.c ****         {
1031:Drivers/STM32L4xx_HAL_Driver/Src/stm32l4xx_hal_dfsdm.c ****           /* Return timeout status */
1032:Drivers/STM32L4xx_HAL_Driver/Src/stm32l4xx_hal_dfsdm.c ****           return HAL_TIMEOUT;
 1256              		.loc 1 1032 18
 1257 004a 0323     		movs	r3, #3
 1258 004c 11E0     		b	.L64
 1259              	.L66:
1024:Drivers/STM32L4xx_HAL_Driver/Src/stm32l4xx_hal_dfsdm.c ****     {
 1260              		.loc 1 1024 28
 1261 004e 0B4B     		ldr	r3, .L69
 1262 0050 9B68     		ldr	r3, [r3, #8]
1024:Drivers/STM32L4xx_HAL_Driver/Src/stm32l4xx_hal_dfsdm.c ****     {
 1263              		.loc 1 1024 37
 1264 0052 03F07F42 		and	r2, r3, #-16777216
1024:Drivers/STM32L4xx_HAL_Driver/Src/stm32l4xx_hal_dfsdm.c ****     {
 1265              		.loc 1 1024 84
 1266 0056 FB68     		ldr	r3, [r7, #12]
 1267 0058 1833     		adds	r3, r3, #24
1024:Drivers/STM32L4xx_HAL_Driver/Src/stm32l4xx_hal_dfsdm.c ****     {
 1268              		.loc 1 1024 58
 1269 005a 22FA03F3 		lsr	r3, r2, r3
1024:Drivers/STM32L4xx_HAL_Driver/Src/stm32l4xx_hal_dfsdm.c ****     {
 1270              		.loc 1 1024 96
 1271 005e 002B     		cmp	r3, #0
 1272 0060 E4D0     		beq	.L68
1033:Drivers/STM32L4xx_HAL_Driver/Src/stm32l4xx_hal_dfsdm.c ****         }
1034:Drivers/STM32L4xx_HAL_Driver/Src/stm32l4xx_hal_dfsdm.c ****       }
1035:Drivers/STM32L4xx_HAL_Driver/Src/stm32l4xx_hal_dfsdm.c ****     }
1036:Drivers/STM32L4xx_HAL_Driver/Src/stm32l4xx_hal_dfsdm.c **** 
1037:Drivers/STM32L4xx_HAL_Driver/Src/stm32l4xx_hal_dfsdm.c ****     /* Clear short circuit detection flag */
1038:Drivers/STM32L4xx_HAL_Driver/Src/stm32l4xx_hal_dfsdm.c ****     DFSDM1_Filter0->FLTICR = (1UL << (DFSDM_FLTICR_CLRSCDF_Pos + channel));
 1273              		.loc 1 1038 64
 1274 0062 FB68     		ldr	r3, [r7, #12]
 1275 0064 1833     		adds	r3, r3, #24
 1276              		.loc 1 1038 19
 1277 0066 054A     		ldr	r2, .L69
 1278              		.loc 1 1038 35
 1279 0068 0121     		movs	r1, #1
 1280 006a 01FA03F3 		lsl	r3, r1, r3
 1281              		.loc 1 1038 28
 1282 006e D360     		str	r3, [r2, #12]
1039:Drivers/STM32L4xx_HAL_Driver/Src/stm32l4xx_hal_dfsdm.c **** 
1040:Drivers/STM32L4xx_HAL_Driver/Src/stm32l4xx_hal_dfsdm.c ****     /* Return function status */
1041:Drivers/STM32L4xx_HAL_Driver/Src/stm32l4xx_hal_dfsdm.c ****     return HAL_OK;
 1283              		.loc 1 1041 12
 1284 0070 0023     		movs	r3, #0
ARM GAS  /tmp/ccrDNuCE.s 			page 42


 1285              	.L64:
1042:Drivers/STM32L4xx_HAL_Driver/Src/stm32l4xx_hal_dfsdm.c ****   }
1043:Drivers/STM32L4xx_HAL_Driver/Src/stm32l4xx_hal_dfsdm.c **** }
 1286              		.loc 1 1043 1
 1287 0072 1846     		mov	r0, r3
 1288 0074 1037     		adds	r7, r7, #16
 1289              		.cfi_def_cfa_offset 8
 1290 0076 BD46     		mov	sp, r7
 1291              		.cfi_def_cfa_register 13
 1292              		@ sp needed
 1293 0078 80BD     		pop	{r7, pc}
 1294              	.L70:
 1295 007a 00BF     		.align	2
 1296              	.L69:
 1297 007c 00610140 		.word	1073832192
 1298              		.cfi_endproc
 1299              	.LFE456:
 1301              		.section	.text.HAL_DFSDM_ChannelScdStop,"ax",%progbits
 1302              		.align	1
 1303              		.global	HAL_DFSDM_ChannelScdStop
 1304              		.syntax unified
 1305              		.thumb
 1306              		.thumb_func
 1308              	HAL_DFSDM_ChannelScdStop:
 1309              	.LFB457:
1044:Drivers/STM32L4xx_HAL_Driver/Src/stm32l4xx_hal_dfsdm.c **** 
1045:Drivers/STM32L4xx_HAL_Driver/Src/stm32l4xx_hal_dfsdm.c **** /**
1046:Drivers/STM32L4xx_HAL_Driver/Src/stm32l4xx_hal_dfsdm.c ****   * @brief  This function allows to stop short circuit detection in polling mode.
1047:Drivers/STM32L4xx_HAL_Driver/Src/stm32l4xx_hal_dfsdm.c ****   * @param  hdfsdm_channel DFSDM channel handle.
1048:Drivers/STM32L4xx_HAL_Driver/Src/stm32l4xx_hal_dfsdm.c ****   * @retval HAL status
1049:Drivers/STM32L4xx_HAL_Driver/Src/stm32l4xx_hal_dfsdm.c ****   */
1050:Drivers/STM32L4xx_HAL_Driver/Src/stm32l4xx_hal_dfsdm.c **** HAL_StatusTypeDef HAL_DFSDM_ChannelScdStop(DFSDM_Channel_HandleTypeDef *hdfsdm_channel)
1051:Drivers/STM32L4xx_HAL_Driver/Src/stm32l4xx_hal_dfsdm.c **** {
 1310              		.loc 1 1051 1
 1311              		.cfi_startproc
 1312              		@ args = 0, pretend = 0, frame = 16
 1313              		@ frame_needed = 1, uses_anonymous_args = 0
 1314 0000 80B5     		push	{r7, lr}
 1315              		.cfi_def_cfa_offset 8
 1316              		.cfi_offset 7, -8
 1317              		.cfi_offset 14, -4
 1318 0002 84B0     		sub	sp, sp, #16
 1319              		.cfi_def_cfa_offset 24
 1320 0004 00AF     		add	r7, sp, #0
 1321              		.cfi_def_cfa_register 7
 1322 0006 7860     		str	r0, [r7, #4]
1052:Drivers/STM32L4xx_HAL_Driver/Src/stm32l4xx_hal_dfsdm.c ****   HAL_StatusTypeDef status = HAL_OK;
 1323              		.loc 1 1052 21
 1324 0008 0023     		movs	r3, #0
 1325 000a FB73     		strb	r3, [r7, #15]
1053:Drivers/STM32L4xx_HAL_Driver/Src/stm32l4xx_hal_dfsdm.c ****   uint32_t channel;
1054:Drivers/STM32L4xx_HAL_Driver/Src/stm32l4xx_hal_dfsdm.c **** 
1055:Drivers/STM32L4xx_HAL_Driver/Src/stm32l4xx_hal_dfsdm.c ****   /* Check parameters */
1056:Drivers/STM32L4xx_HAL_Driver/Src/stm32l4xx_hal_dfsdm.c ****   assert_param(IS_DFSDM_CHANNEL_ALL_INSTANCE(hdfsdm_channel->Instance));
1057:Drivers/STM32L4xx_HAL_Driver/Src/stm32l4xx_hal_dfsdm.c **** 
1058:Drivers/STM32L4xx_HAL_Driver/Src/stm32l4xx_hal_dfsdm.c ****   /* Check DFSDM channel state */
1059:Drivers/STM32L4xx_HAL_Driver/Src/stm32l4xx_hal_dfsdm.c ****   if (hdfsdm_channel->State != HAL_DFSDM_CHANNEL_STATE_READY)
ARM GAS  /tmp/ccrDNuCE.s 			page 43


 1326              		.loc 1 1059 21
 1327 000c 7B68     		ldr	r3, [r7, #4]
 1328 000e 93F83430 		ldrb	r3, [r3, #52]	@ zero_extendqisi2
 1329              		.loc 1 1059 6
 1330 0012 012B     		cmp	r3, #1
 1331 0014 02D0     		beq	.L72
1060:Drivers/STM32L4xx_HAL_Driver/Src/stm32l4xx_hal_dfsdm.c ****   {
1061:Drivers/STM32L4xx_HAL_Driver/Src/stm32l4xx_hal_dfsdm.c ****     /* Return error status */
1062:Drivers/STM32L4xx_HAL_Driver/Src/stm32l4xx_hal_dfsdm.c ****     status = HAL_ERROR;
 1332              		.loc 1 1062 12
 1333 0016 0123     		movs	r3, #1
 1334 0018 FB73     		strb	r3, [r7, #15]
 1335 001a 14E0     		b	.L73
 1336              	.L72:
1063:Drivers/STM32L4xx_HAL_Driver/Src/stm32l4xx_hal_dfsdm.c ****   }
1064:Drivers/STM32L4xx_HAL_Driver/Src/stm32l4xx_hal_dfsdm.c ****   else
1065:Drivers/STM32L4xx_HAL_Driver/Src/stm32l4xx_hal_dfsdm.c ****   {
1066:Drivers/STM32L4xx_HAL_Driver/Src/stm32l4xx_hal_dfsdm.c ****     /* Stop short circuit detection */
1067:Drivers/STM32L4xx_HAL_Driver/Src/stm32l4xx_hal_dfsdm.c ****     hdfsdm_channel->Instance->CHCFGR1 &= ~(DFSDM_CHCFGR1_SCDEN);
 1337              		.loc 1 1067 19
 1338 001c 7B68     		ldr	r3, [r7, #4]
 1339 001e 1B68     		ldr	r3, [r3]
 1340              		.loc 1 1067 29
 1341 0020 1A68     		ldr	r2, [r3]
 1342              		.loc 1 1067 19
 1343 0022 7B68     		ldr	r3, [r7, #4]
 1344 0024 1B68     		ldr	r3, [r3]
 1345              		.loc 1 1067 39
 1346 0026 22F02002 		bic	r2, r2, #32
 1347 002a 1A60     		str	r2, [r3]
1068:Drivers/STM32L4xx_HAL_Driver/Src/stm32l4xx_hal_dfsdm.c **** 
1069:Drivers/STM32L4xx_HAL_Driver/Src/stm32l4xx_hal_dfsdm.c ****     /* Clear short circuit detection flag */
1070:Drivers/STM32L4xx_HAL_Driver/Src/stm32l4xx_hal_dfsdm.c ****     channel = DFSDM_GetChannelFromInstance(hdfsdm_channel->Instance);
 1348              		.loc 1 1070 58
 1349 002c 7B68     		ldr	r3, [r7, #4]
 1350 002e 1B68     		ldr	r3, [r3]
 1351              		.loc 1 1070 15
 1352 0030 1846     		mov	r0, r3
 1353 0032 FFF7FEFF 		bl	DFSDM_GetChannelFromInstance
 1354 0036 B860     		str	r0, [r7, #8]
1071:Drivers/STM32L4xx_HAL_Driver/Src/stm32l4xx_hal_dfsdm.c ****     DFSDM1_Filter0->FLTICR = (1UL << (DFSDM_FLTICR_CLRSCDF_Pos + channel));
 1355              		.loc 1 1071 64
 1356 0038 BB68     		ldr	r3, [r7, #8]
 1357 003a 1833     		adds	r3, r3, #24
 1358              		.loc 1 1071 19
 1359 003c 044A     		ldr	r2, .L75
 1360              		.loc 1 1071 35
 1361 003e 0121     		movs	r1, #1
 1362 0040 01FA03F3 		lsl	r3, r1, r3
 1363              		.loc 1 1071 28
 1364 0044 D360     		str	r3, [r2, #12]
 1365              	.L73:
1072:Drivers/STM32L4xx_HAL_Driver/Src/stm32l4xx_hal_dfsdm.c ****   }
1073:Drivers/STM32L4xx_HAL_Driver/Src/stm32l4xx_hal_dfsdm.c ****   /* Return function status */
1074:Drivers/STM32L4xx_HAL_Driver/Src/stm32l4xx_hal_dfsdm.c ****   return status;
 1366              		.loc 1 1074 10
 1367 0046 FB7B     		ldrb	r3, [r7, #15]	@ zero_extendqisi2
ARM GAS  /tmp/ccrDNuCE.s 			page 44


1075:Drivers/STM32L4xx_HAL_Driver/Src/stm32l4xx_hal_dfsdm.c **** }
 1368              		.loc 1 1075 1
 1369 0048 1846     		mov	r0, r3
 1370 004a 1037     		adds	r7, r7, #16
 1371              		.cfi_def_cfa_offset 8
 1372 004c BD46     		mov	sp, r7
 1373              		.cfi_def_cfa_register 13
 1374              		@ sp needed
 1375 004e 80BD     		pop	{r7, pc}
 1376              	.L76:
 1377              		.align	2
 1378              	.L75:
 1379 0050 00610140 		.word	1073832192
 1380              		.cfi_endproc
 1381              	.LFE457:
 1383              		.section	.text.HAL_DFSDM_ChannelScdStart_IT,"ax",%progbits
 1384              		.align	1
 1385              		.global	HAL_DFSDM_ChannelScdStart_IT
 1386              		.syntax unified
 1387              		.thumb
 1388              		.thumb_func
 1390              	HAL_DFSDM_ChannelScdStart_IT:
 1391              	.LFB458:
1076:Drivers/STM32L4xx_HAL_Driver/Src/stm32l4xx_hal_dfsdm.c **** 
1077:Drivers/STM32L4xx_HAL_Driver/Src/stm32l4xx_hal_dfsdm.c **** /**
1078:Drivers/STM32L4xx_HAL_Driver/Src/stm32l4xx_hal_dfsdm.c ****   * @brief  This function allows to start short circuit detection in interrupt mode.
1079:Drivers/STM32L4xx_HAL_Driver/Src/stm32l4xx_hal_dfsdm.c ****   * @note   Same mode has to be used for all channels
1080:Drivers/STM32L4xx_HAL_Driver/Src/stm32l4xx_hal_dfsdm.c ****   * @param  hdfsdm_channel DFSDM channel handle.
1081:Drivers/STM32L4xx_HAL_Driver/Src/stm32l4xx_hal_dfsdm.c ****   * @param  Threshold Short circuit detector threshold.
1082:Drivers/STM32L4xx_HAL_Driver/Src/stm32l4xx_hal_dfsdm.c ****   *         This parameter must be a number between Min_Data = 0 and Max_Data = 255.
1083:Drivers/STM32L4xx_HAL_Driver/Src/stm32l4xx_hal_dfsdm.c ****   * @param  BreakSignal Break signals assigned to short circuit event.
1084:Drivers/STM32L4xx_HAL_Driver/Src/stm32l4xx_hal_dfsdm.c ****   *         This parameter can be a values combination of @ref DFSDM_BreakSignals.
1085:Drivers/STM32L4xx_HAL_Driver/Src/stm32l4xx_hal_dfsdm.c ****   * @retval HAL status
1086:Drivers/STM32L4xx_HAL_Driver/Src/stm32l4xx_hal_dfsdm.c ****   */
1087:Drivers/STM32L4xx_HAL_Driver/Src/stm32l4xx_hal_dfsdm.c **** HAL_StatusTypeDef HAL_DFSDM_ChannelScdStart_IT(DFSDM_Channel_HandleTypeDef *hdfsdm_channel,
1088:Drivers/STM32L4xx_HAL_Driver/Src/stm32l4xx_hal_dfsdm.c ****                                                uint32_t Threshold,
1089:Drivers/STM32L4xx_HAL_Driver/Src/stm32l4xx_hal_dfsdm.c ****                                                uint32_t BreakSignal)
1090:Drivers/STM32L4xx_HAL_Driver/Src/stm32l4xx_hal_dfsdm.c **** {
 1392              		.loc 1 1090 1
 1393              		.cfi_startproc
 1394              		@ args = 0, pretend = 0, frame = 24
 1395              		@ frame_needed = 1, uses_anonymous_args = 0
 1396              		@ link register save eliminated.
 1397 0000 80B4     		push	{r7}
 1398              		.cfi_def_cfa_offset 4
 1399              		.cfi_offset 7, -4
 1400 0002 87B0     		sub	sp, sp, #28
 1401              		.cfi_def_cfa_offset 32
 1402 0004 00AF     		add	r7, sp, #0
 1403              		.cfi_def_cfa_register 7
 1404 0006 F860     		str	r0, [r7, #12]
 1405 0008 B960     		str	r1, [r7, #8]
 1406 000a 7A60     		str	r2, [r7, #4]
1091:Drivers/STM32L4xx_HAL_Driver/Src/stm32l4xx_hal_dfsdm.c ****   HAL_StatusTypeDef status = HAL_OK;
 1407              		.loc 1 1091 21
 1408 000c 0023     		movs	r3, #0
 1409 000e FB75     		strb	r3, [r7, #23]
ARM GAS  /tmp/ccrDNuCE.s 			page 45


1092:Drivers/STM32L4xx_HAL_Driver/Src/stm32l4xx_hal_dfsdm.c **** 
1093:Drivers/STM32L4xx_HAL_Driver/Src/stm32l4xx_hal_dfsdm.c ****   /* Check parameters */
1094:Drivers/STM32L4xx_HAL_Driver/Src/stm32l4xx_hal_dfsdm.c ****   assert_param(IS_DFSDM_CHANNEL_ALL_INSTANCE(hdfsdm_channel->Instance));
1095:Drivers/STM32L4xx_HAL_Driver/Src/stm32l4xx_hal_dfsdm.c ****   assert_param(IS_DFSDM_CHANNEL_SCD_THRESHOLD(Threshold));
1096:Drivers/STM32L4xx_HAL_Driver/Src/stm32l4xx_hal_dfsdm.c ****   assert_param(IS_DFSDM_BREAK_SIGNALS(BreakSignal));
1097:Drivers/STM32L4xx_HAL_Driver/Src/stm32l4xx_hal_dfsdm.c **** 
1098:Drivers/STM32L4xx_HAL_Driver/Src/stm32l4xx_hal_dfsdm.c ****   /* Check DFSDM channel state */
1099:Drivers/STM32L4xx_HAL_Driver/Src/stm32l4xx_hal_dfsdm.c ****   if (hdfsdm_channel->State != HAL_DFSDM_CHANNEL_STATE_READY)
 1410              		.loc 1 1099 21
 1411 0010 FB68     		ldr	r3, [r7, #12]
 1412 0012 93F83430 		ldrb	r3, [r3, #52]	@ zero_extendqisi2
 1413              		.loc 1 1099 6
 1414 0016 012B     		cmp	r3, #1
 1415 0018 02D0     		beq	.L78
1100:Drivers/STM32L4xx_HAL_Driver/Src/stm32l4xx_hal_dfsdm.c ****   {
1101:Drivers/STM32L4xx_HAL_Driver/Src/stm32l4xx_hal_dfsdm.c ****     /* Return error status */
1102:Drivers/STM32L4xx_HAL_Driver/Src/stm32l4xx_hal_dfsdm.c ****     status = HAL_ERROR;
 1416              		.loc 1 1102 12
 1417 001a 0123     		movs	r3, #1
 1418 001c FB75     		strb	r3, [r7, #23]
 1419 001e 22E0     		b	.L79
 1420              	.L78:
1103:Drivers/STM32L4xx_HAL_Driver/Src/stm32l4xx_hal_dfsdm.c ****   }
1104:Drivers/STM32L4xx_HAL_Driver/Src/stm32l4xx_hal_dfsdm.c ****   else
1105:Drivers/STM32L4xx_HAL_Driver/Src/stm32l4xx_hal_dfsdm.c ****   {
1106:Drivers/STM32L4xx_HAL_Driver/Src/stm32l4xx_hal_dfsdm.c ****     /* Activate short circuit detection interrupt */
1107:Drivers/STM32L4xx_HAL_Driver/Src/stm32l4xx_hal_dfsdm.c ****     DFSDM1_Filter0->FLTCR2 |= DFSDM_FLTCR2_SCDIE;
 1421              		.loc 1 1107 19
 1422 0020 144B     		ldr	r3, .L81
 1423 0022 5B68     		ldr	r3, [r3, #4]
 1424 0024 134A     		ldr	r2, .L81
 1425              		.loc 1 1107 28
 1426 0026 43F02003 		orr	r3, r3, #32
 1427 002a 5360     		str	r3, [r2, #4]
1108:Drivers/STM32L4xx_HAL_Driver/Src/stm32l4xx_hal_dfsdm.c **** 
1109:Drivers/STM32L4xx_HAL_Driver/Src/stm32l4xx_hal_dfsdm.c ****     /* Configure threshold and break signals */
1110:Drivers/STM32L4xx_HAL_Driver/Src/stm32l4xx_hal_dfsdm.c ****     hdfsdm_channel->Instance->CHAWSCDR &= ~(DFSDM_CHAWSCDR_BKSCD | DFSDM_CHAWSCDR_SCDT);
 1428              		.loc 1 1110 19
 1429 002c FB68     		ldr	r3, [r7, #12]
 1430 002e 1B68     		ldr	r3, [r3]
 1431              		.loc 1 1110 29
 1432 0030 9B68     		ldr	r3, [r3, #8]
 1433              		.loc 1 1110 19
 1434 0032 FA68     		ldr	r2, [r7, #12]
 1435 0034 1268     		ldr	r2, [r2]
 1436              		.loc 1 1110 40
 1437 0036 23F47043 		bic	r3, r3, #61440
 1438 003a 23F0FF03 		bic	r3, r3, #255
 1439 003e 9360     		str	r3, [r2, #8]
1111:Drivers/STM32L4xx_HAL_Driver/Src/stm32l4xx_hal_dfsdm.c ****     hdfsdm_channel->Instance->CHAWSCDR |= ((BreakSignal << DFSDM_CHAWSCDR_BKSCD_Pos) | \
 1440              		.loc 1 1111 19
 1441 0040 FB68     		ldr	r3, [r7, #12]
 1442 0042 1B68     		ldr	r3, [r3]
 1443              		.loc 1 1111 29
 1444 0044 9968     		ldr	r1, [r3, #8]
 1445              		.loc 1 1111 57
 1446 0046 7B68     		ldr	r3, [r7, #4]
ARM GAS  /tmp/ccrDNuCE.s 			page 46


 1447 0048 1A03     		lsls	r2, r3, #12
 1448              		.loc 1 1111 86
 1449 004a BB68     		ldr	r3, [r7, #8]
 1450 004c 1A43     		orrs	r2, r2, r3
 1451              		.loc 1 1111 19
 1452 004e FB68     		ldr	r3, [r7, #12]
 1453 0050 1B68     		ldr	r3, [r3]
 1454              		.loc 1 1111 40
 1455 0052 0A43     		orrs	r2, r2, r1
 1456 0054 9A60     		str	r2, [r3, #8]
1112:Drivers/STM32L4xx_HAL_Driver/Src/stm32l4xx_hal_dfsdm.c ****                                            Threshold);
1113:Drivers/STM32L4xx_HAL_Driver/Src/stm32l4xx_hal_dfsdm.c **** 
1114:Drivers/STM32L4xx_HAL_Driver/Src/stm32l4xx_hal_dfsdm.c ****     /* Start short circuit detection */
1115:Drivers/STM32L4xx_HAL_Driver/Src/stm32l4xx_hal_dfsdm.c ****     hdfsdm_channel->Instance->CHCFGR1 |= DFSDM_CHCFGR1_SCDEN;
 1457              		.loc 1 1115 19
 1458 0056 FB68     		ldr	r3, [r7, #12]
 1459 0058 1B68     		ldr	r3, [r3]
 1460              		.loc 1 1115 29
 1461 005a 1A68     		ldr	r2, [r3]
 1462              		.loc 1 1115 19
 1463 005c FB68     		ldr	r3, [r7, #12]
 1464 005e 1B68     		ldr	r3, [r3]
 1465              		.loc 1 1115 39
 1466 0060 42F02002 		orr	r2, r2, #32
 1467 0064 1A60     		str	r2, [r3]
 1468              	.L79:
1116:Drivers/STM32L4xx_HAL_Driver/Src/stm32l4xx_hal_dfsdm.c ****   }
1117:Drivers/STM32L4xx_HAL_Driver/Src/stm32l4xx_hal_dfsdm.c ****   /* Return function status */
1118:Drivers/STM32L4xx_HAL_Driver/Src/stm32l4xx_hal_dfsdm.c ****   return status;
 1469              		.loc 1 1118 10
 1470 0066 FB7D     		ldrb	r3, [r7, #23]	@ zero_extendqisi2
1119:Drivers/STM32L4xx_HAL_Driver/Src/stm32l4xx_hal_dfsdm.c **** }
 1471              		.loc 1 1119 1
 1472 0068 1846     		mov	r0, r3
 1473 006a 1C37     		adds	r7, r7, #28
 1474              		.cfi_def_cfa_offset 4
 1475 006c BD46     		mov	sp, r7
 1476              		.cfi_def_cfa_register 13
 1477              		@ sp needed
 1478 006e 5DF8047B 		ldr	r7, [sp], #4
 1479              		.cfi_restore 7
 1480              		.cfi_def_cfa_offset 0
 1481 0072 7047     		bx	lr
 1482              	.L82:
 1483              		.align	2
 1484              	.L81:
 1485 0074 00610140 		.word	1073832192
 1486              		.cfi_endproc
 1487              	.LFE458:
 1489              		.section	.text.HAL_DFSDM_ChannelScdCallback,"ax",%progbits
 1490              		.align	1
 1491              		.weak	HAL_DFSDM_ChannelScdCallback
 1492              		.syntax unified
 1493              		.thumb
 1494              		.thumb_func
 1496              	HAL_DFSDM_ChannelScdCallback:
 1497              	.LFB459:
ARM GAS  /tmp/ccrDNuCE.s 			page 47


1120:Drivers/STM32L4xx_HAL_Driver/Src/stm32l4xx_hal_dfsdm.c **** 
1121:Drivers/STM32L4xx_HAL_Driver/Src/stm32l4xx_hal_dfsdm.c **** /**
1122:Drivers/STM32L4xx_HAL_Driver/Src/stm32l4xx_hal_dfsdm.c ****   * @brief  Short circuit detection callback.
1123:Drivers/STM32L4xx_HAL_Driver/Src/stm32l4xx_hal_dfsdm.c ****   * @param  hdfsdm_channel DFSDM channel handle.
1124:Drivers/STM32L4xx_HAL_Driver/Src/stm32l4xx_hal_dfsdm.c ****   * @retval None
1125:Drivers/STM32L4xx_HAL_Driver/Src/stm32l4xx_hal_dfsdm.c ****   */
1126:Drivers/STM32L4xx_HAL_Driver/Src/stm32l4xx_hal_dfsdm.c **** __weak void HAL_DFSDM_ChannelScdCallback(DFSDM_Channel_HandleTypeDef *hdfsdm_channel)
1127:Drivers/STM32L4xx_HAL_Driver/Src/stm32l4xx_hal_dfsdm.c **** {
 1498              		.loc 1 1127 1
 1499              		.cfi_startproc
 1500              		@ args = 0, pretend = 0, frame = 8
 1501              		@ frame_needed = 1, uses_anonymous_args = 0
 1502              		@ link register save eliminated.
 1503 0000 80B4     		push	{r7}
 1504              		.cfi_def_cfa_offset 4
 1505              		.cfi_offset 7, -4
 1506 0002 83B0     		sub	sp, sp, #12
 1507              		.cfi_def_cfa_offset 16
 1508 0004 00AF     		add	r7, sp, #0
 1509              		.cfi_def_cfa_register 7
 1510 0006 7860     		str	r0, [r7, #4]
1128:Drivers/STM32L4xx_HAL_Driver/Src/stm32l4xx_hal_dfsdm.c ****   /* Prevent unused argument(s) compilation warning */
1129:Drivers/STM32L4xx_HAL_Driver/Src/stm32l4xx_hal_dfsdm.c ****   UNUSED(hdfsdm_channel);
1130:Drivers/STM32L4xx_HAL_Driver/Src/stm32l4xx_hal_dfsdm.c **** 
1131:Drivers/STM32L4xx_HAL_Driver/Src/stm32l4xx_hal_dfsdm.c ****   /* NOTE : This function should not be modified, when the callback is needed,
1132:Drivers/STM32L4xx_HAL_Driver/Src/stm32l4xx_hal_dfsdm.c ****             the HAL_DFSDM_ChannelScdCallback could be implemented in the user file
1133:Drivers/STM32L4xx_HAL_Driver/Src/stm32l4xx_hal_dfsdm.c ****    */
1134:Drivers/STM32L4xx_HAL_Driver/Src/stm32l4xx_hal_dfsdm.c **** }
 1511              		.loc 1 1134 1
 1512 0008 00BF     		nop
 1513 000a 0C37     		adds	r7, r7, #12
 1514              		.cfi_def_cfa_offset 4
 1515 000c BD46     		mov	sp, r7
 1516              		.cfi_def_cfa_register 13
 1517              		@ sp needed
 1518 000e 5DF8047B 		ldr	r7, [sp], #4
 1519              		.cfi_restore 7
 1520              		.cfi_def_cfa_offset 0
 1521 0012 7047     		bx	lr
 1522              		.cfi_endproc
 1523              	.LFE459:
 1525              		.section	.text.HAL_DFSDM_ChannelScdStop_IT,"ax",%progbits
 1526              		.align	1
 1527              		.global	HAL_DFSDM_ChannelScdStop_IT
 1528              		.syntax unified
 1529              		.thumb
 1530              		.thumb_func
 1532              	HAL_DFSDM_ChannelScdStop_IT:
 1533              	.LFB460:
1135:Drivers/STM32L4xx_HAL_Driver/Src/stm32l4xx_hal_dfsdm.c **** 
1136:Drivers/STM32L4xx_HAL_Driver/Src/stm32l4xx_hal_dfsdm.c **** /**
1137:Drivers/STM32L4xx_HAL_Driver/Src/stm32l4xx_hal_dfsdm.c ****   * @brief  This function allows to stop short circuit detection in interrupt mode.
1138:Drivers/STM32L4xx_HAL_Driver/Src/stm32l4xx_hal_dfsdm.c ****   * @note   Interrupt will be disabled for all channels
1139:Drivers/STM32L4xx_HAL_Driver/Src/stm32l4xx_hal_dfsdm.c ****   * @param  hdfsdm_channel DFSDM channel handle.
1140:Drivers/STM32L4xx_HAL_Driver/Src/stm32l4xx_hal_dfsdm.c ****   * @retval HAL status
1141:Drivers/STM32L4xx_HAL_Driver/Src/stm32l4xx_hal_dfsdm.c ****   */
1142:Drivers/STM32L4xx_HAL_Driver/Src/stm32l4xx_hal_dfsdm.c **** HAL_StatusTypeDef HAL_DFSDM_ChannelScdStop_IT(DFSDM_Channel_HandleTypeDef *hdfsdm_channel)
ARM GAS  /tmp/ccrDNuCE.s 			page 48


1143:Drivers/STM32L4xx_HAL_Driver/Src/stm32l4xx_hal_dfsdm.c **** {
 1534              		.loc 1 1143 1
 1535              		.cfi_startproc
 1536              		@ args = 0, pretend = 0, frame = 16
 1537              		@ frame_needed = 1, uses_anonymous_args = 0
 1538 0000 80B5     		push	{r7, lr}
 1539              		.cfi_def_cfa_offset 8
 1540              		.cfi_offset 7, -8
 1541              		.cfi_offset 14, -4
 1542 0002 84B0     		sub	sp, sp, #16
 1543              		.cfi_def_cfa_offset 24
 1544 0004 00AF     		add	r7, sp, #0
 1545              		.cfi_def_cfa_register 7
 1546 0006 7860     		str	r0, [r7, #4]
1144:Drivers/STM32L4xx_HAL_Driver/Src/stm32l4xx_hal_dfsdm.c ****   HAL_StatusTypeDef status = HAL_OK;
 1547              		.loc 1 1144 21
 1548 0008 0023     		movs	r3, #0
 1549 000a FB73     		strb	r3, [r7, #15]
1145:Drivers/STM32L4xx_HAL_Driver/Src/stm32l4xx_hal_dfsdm.c ****   uint32_t channel;
1146:Drivers/STM32L4xx_HAL_Driver/Src/stm32l4xx_hal_dfsdm.c **** 
1147:Drivers/STM32L4xx_HAL_Driver/Src/stm32l4xx_hal_dfsdm.c ****   /* Check parameters */
1148:Drivers/STM32L4xx_HAL_Driver/Src/stm32l4xx_hal_dfsdm.c ****   assert_param(IS_DFSDM_CHANNEL_ALL_INSTANCE(hdfsdm_channel->Instance));
1149:Drivers/STM32L4xx_HAL_Driver/Src/stm32l4xx_hal_dfsdm.c **** 
1150:Drivers/STM32L4xx_HAL_Driver/Src/stm32l4xx_hal_dfsdm.c ****   /* Check DFSDM channel state */
1151:Drivers/STM32L4xx_HAL_Driver/Src/stm32l4xx_hal_dfsdm.c ****   if (hdfsdm_channel->State != HAL_DFSDM_CHANNEL_STATE_READY)
 1550              		.loc 1 1151 21
 1551 000c 7B68     		ldr	r3, [r7, #4]
 1552 000e 93F83430 		ldrb	r3, [r3, #52]	@ zero_extendqisi2
 1553              		.loc 1 1151 6
 1554 0012 012B     		cmp	r3, #1
 1555 0014 02D0     		beq	.L85
1152:Drivers/STM32L4xx_HAL_Driver/Src/stm32l4xx_hal_dfsdm.c ****   {
1153:Drivers/STM32L4xx_HAL_Driver/Src/stm32l4xx_hal_dfsdm.c ****     /* Return error status */
1154:Drivers/STM32L4xx_HAL_Driver/Src/stm32l4xx_hal_dfsdm.c ****     status = HAL_ERROR;
 1556              		.loc 1 1154 12
 1557 0016 0123     		movs	r3, #1
 1558 0018 FB73     		strb	r3, [r7, #15]
 1559 001a 1AE0     		b	.L86
 1560              	.L85:
1155:Drivers/STM32L4xx_HAL_Driver/Src/stm32l4xx_hal_dfsdm.c ****   }
1156:Drivers/STM32L4xx_HAL_Driver/Src/stm32l4xx_hal_dfsdm.c ****   else
1157:Drivers/STM32L4xx_HAL_Driver/Src/stm32l4xx_hal_dfsdm.c ****   {
1158:Drivers/STM32L4xx_HAL_Driver/Src/stm32l4xx_hal_dfsdm.c ****     /* Stop short circuit detection */
1159:Drivers/STM32L4xx_HAL_Driver/Src/stm32l4xx_hal_dfsdm.c ****     hdfsdm_channel->Instance->CHCFGR1 &= ~(DFSDM_CHCFGR1_SCDEN);
 1561              		.loc 1 1159 19
 1562 001c 7B68     		ldr	r3, [r7, #4]
 1563 001e 1B68     		ldr	r3, [r3]
 1564              		.loc 1 1159 29
 1565 0020 1A68     		ldr	r2, [r3]
 1566              		.loc 1 1159 19
 1567 0022 7B68     		ldr	r3, [r7, #4]
 1568 0024 1B68     		ldr	r3, [r3]
 1569              		.loc 1 1159 39
 1570 0026 22F02002 		bic	r2, r2, #32
 1571 002a 1A60     		str	r2, [r3]
1160:Drivers/STM32L4xx_HAL_Driver/Src/stm32l4xx_hal_dfsdm.c **** 
1161:Drivers/STM32L4xx_HAL_Driver/Src/stm32l4xx_hal_dfsdm.c ****     /* Clear short circuit detection flag */
ARM GAS  /tmp/ccrDNuCE.s 			page 49


1162:Drivers/STM32L4xx_HAL_Driver/Src/stm32l4xx_hal_dfsdm.c ****     channel = DFSDM_GetChannelFromInstance(hdfsdm_channel->Instance);
 1572              		.loc 1 1162 58
 1573 002c 7B68     		ldr	r3, [r7, #4]
 1574 002e 1B68     		ldr	r3, [r3]
 1575              		.loc 1 1162 15
 1576 0030 1846     		mov	r0, r3
 1577 0032 FFF7FEFF 		bl	DFSDM_GetChannelFromInstance
 1578 0036 B860     		str	r0, [r7, #8]
1163:Drivers/STM32L4xx_HAL_Driver/Src/stm32l4xx_hal_dfsdm.c ****     DFSDM1_Filter0->FLTICR = (1UL << (DFSDM_FLTICR_CLRSCDF_Pos + channel));
 1579              		.loc 1 1163 64
 1580 0038 BB68     		ldr	r3, [r7, #8]
 1581 003a 1833     		adds	r3, r3, #24
 1582              		.loc 1 1163 19
 1583 003c 074A     		ldr	r2, .L88
 1584              		.loc 1 1163 35
 1585 003e 0121     		movs	r1, #1
 1586 0040 01FA03F3 		lsl	r3, r1, r3
 1587              		.loc 1 1163 28
 1588 0044 D360     		str	r3, [r2, #12]
1164:Drivers/STM32L4xx_HAL_Driver/Src/stm32l4xx_hal_dfsdm.c **** 
1165:Drivers/STM32L4xx_HAL_Driver/Src/stm32l4xx_hal_dfsdm.c ****     /* Disable short circuit detection interrupt */
1166:Drivers/STM32L4xx_HAL_Driver/Src/stm32l4xx_hal_dfsdm.c ****     DFSDM1_Filter0->FLTCR2 &= ~(DFSDM_FLTCR2_SCDIE);
 1589              		.loc 1 1166 19
 1590 0046 054B     		ldr	r3, .L88
 1591 0048 5B68     		ldr	r3, [r3, #4]
 1592 004a 044A     		ldr	r2, .L88
 1593              		.loc 1 1166 28
 1594 004c 23F02003 		bic	r3, r3, #32
 1595 0050 5360     		str	r3, [r2, #4]
 1596              	.L86:
1167:Drivers/STM32L4xx_HAL_Driver/Src/stm32l4xx_hal_dfsdm.c ****   }
1168:Drivers/STM32L4xx_HAL_Driver/Src/stm32l4xx_hal_dfsdm.c ****   /* Return function status */
1169:Drivers/STM32L4xx_HAL_Driver/Src/stm32l4xx_hal_dfsdm.c ****   return status;
 1597              		.loc 1 1169 10
 1598 0052 FB7B     		ldrb	r3, [r7, #15]	@ zero_extendqisi2
1170:Drivers/STM32L4xx_HAL_Driver/Src/stm32l4xx_hal_dfsdm.c **** }
 1599              		.loc 1 1170 1
 1600 0054 1846     		mov	r0, r3
 1601 0056 1037     		adds	r7, r7, #16
 1602              		.cfi_def_cfa_offset 8
 1603 0058 BD46     		mov	sp, r7
 1604              		.cfi_def_cfa_register 13
 1605              		@ sp needed
 1606 005a 80BD     		pop	{r7, pc}
 1607              	.L89:
 1608              		.align	2
 1609              	.L88:
 1610 005c 00610140 		.word	1073832192
 1611              		.cfi_endproc
 1612              	.LFE460:
 1614              		.section	.text.HAL_DFSDM_ChannelGetAwdValue,"ax",%progbits
 1615              		.align	1
 1616              		.global	HAL_DFSDM_ChannelGetAwdValue
 1617              		.syntax unified
 1618              		.thumb
 1619              		.thumb_func
 1621              	HAL_DFSDM_ChannelGetAwdValue:
ARM GAS  /tmp/ccrDNuCE.s 			page 50


 1622              	.LFB461:
1171:Drivers/STM32L4xx_HAL_Driver/Src/stm32l4xx_hal_dfsdm.c **** 
1172:Drivers/STM32L4xx_HAL_Driver/Src/stm32l4xx_hal_dfsdm.c **** /**
1173:Drivers/STM32L4xx_HAL_Driver/Src/stm32l4xx_hal_dfsdm.c ****   * @brief  This function allows to get channel analog watchdog value.
1174:Drivers/STM32L4xx_HAL_Driver/Src/stm32l4xx_hal_dfsdm.c ****   * @param  hdfsdm_channel DFSDM channel handle.
1175:Drivers/STM32L4xx_HAL_Driver/Src/stm32l4xx_hal_dfsdm.c ****   * @retval Channel analog watchdog value.
1176:Drivers/STM32L4xx_HAL_Driver/Src/stm32l4xx_hal_dfsdm.c ****   */
1177:Drivers/STM32L4xx_HAL_Driver/Src/stm32l4xx_hal_dfsdm.c **** int16_t HAL_DFSDM_ChannelGetAwdValue(const DFSDM_Channel_HandleTypeDef *hdfsdm_channel)
1178:Drivers/STM32L4xx_HAL_Driver/Src/stm32l4xx_hal_dfsdm.c **** {
 1623              		.loc 1 1178 1
 1624              		.cfi_startproc
 1625              		@ args = 0, pretend = 0, frame = 8
 1626              		@ frame_needed = 1, uses_anonymous_args = 0
 1627              		@ link register save eliminated.
 1628 0000 80B4     		push	{r7}
 1629              		.cfi_def_cfa_offset 4
 1630              		.cfi_offset 7, -4
 1631 0002 83B0     		sub	sp, sp, #12
 1632              		.cfi_def_cfa_offset 16
 1633 0004 00AF     		add	r7, sp, #0
 1634              		.cfi_def_cfa_register 7
 1635 0006 7860     		str	r0, [r7, #4]
1179:Drivers/STM32L4xx_HAL_Driver/Src/stm32l4xx_hal_dfsdm.c ****   return (int16_t) hdfsdm_channel->Instance->CHWDATAR;
 1636              		.loc 1 1179 34
 1637 0008 7B68     		ldr	r3, [r7, #4]
 1638 000a 1B68     		ldr	r3, [r3]
 1639              		.loc 1 1179 44
 1640 000c DB68     		ldr	r3, [r3, #12]
 1641              		.loc 1 1179 10
 1642 000e 1BB2     		sxth	r3, r3
1180:Drivers/STM32L4xx_HAL_Driver/Src/stm32l4xx_hal_dfsdm.c **** }
 1643              		.loc 1 1180 1
 1644 0010 1846     		mov	r0, r3
 1645 0012 0C37     		adds	r7, r7, #12
 1646              		.cfi_def_cfa_offset 4
 1647 0014 BD46     		mov	sp, r7
 1648              		.cfi_def_cfa_register 13
 1649              		@ sp needed
 1650 0016 5DF8047B 		ldr	r7, [sp], #4
 1651              		.cfi_restore 7
 1652              		.cfi_def_cfa_offset 0
 1653 001a 7047     		bx	lr
 1654              		.cfi_endproc
 1655              	.LFE461:
 1657              		.section	.text.HAL_DFSDM_ChannelModifyOffset,"ax",%progbits
 1658              		.align	1
 1659              		.global	HAL_DFSDM_ChannelModifyOffset
 1660              		.syntax unified
 1661              		.thumb
 1662              		.thumb_func
 1664              	HAL_DFSDM_ChannelModifyOffset:
 1665              	.LFB462:
1181:Drivers/STM32L4xx_HAL_Driver/Src/stm32l4xx_hal_dfsdm.c **** 
1182:Drivers/STM32L4xx_HAL_Driver/Src/stm32l4xx_hal_dfsdm.c **** /**
1183:Drivers/STM32L4xx_HAL_Driver/Src/stm32l4xx_hal_dfsdm.c ****   * @brief  This function allows to modify channel offset value.
1184:Drivers/STM32L4xx_HAL_Driver/Src/stm32l4xx_hal_dfsdm.c ****   * @param  hdfsdm_channel DFSDM channel handle.
1185:Drivers/STM32L4xx_HAL_Driver/Src/stm32l4xx_hal_dfsdm.c ****   * @param  Offset DFSDM channel offset.
ARM GAS  /tmp/ccrDNuCE.s 			page 51


1186:Drivers/STM32L4xx_HAL_Driver/Src/stm32l4xx_hal_dfsdm.c ****   *         This parameter must be a number between Min_Data = -8388608 and Max_Data = 8388607.
1187:Drivers/STM32L4xx_HAL_Driver/Src/stm32l4xx_hal_dfsdm.c ****   * @retval HAL status.
1188:Drivers/STM32L4xx_HAL_Driver/Src/stm32l4xx_hal_dfsdm.c ****   */
1189:Drivers/STM32L4xx_HAL_Driver/Src/stm32l4xx_hal_dfsdm.c **** HAL_StatusTypeDef HAL_DFSDM_ChannelModifyOffset(DFSDM_Channel_HandleTypeDef *hdfsdm_channel,
1190:Drivers/STM32L4xx_HAL_Driver/Src/stm32l4xx_hal_dfsdm.c ****                                                 int32_t Offset)
1191:Drivers/STM32L4xx_HAL_Driver/Src/stm32l4xx_hal_dfsdm.c **** {
 1666              		.loc 1 1191 1
 1667              		.cfi_startproc
 1668              		@ args = 0, pretend = 0, frame = 16
 1669              		@ frame_needed = 1, uses_anonymous_args = 0
 1670              		@ link register save eliminated.
 1671 0000 80B4     		push	{r7}
 1672              		.cfi_def_cfa_offset 4
 1673              		.cfi_offset 7, -4
 1674 0002 85B0     		sub	sp, sp, #20
 1675              		.cfi_def_cfa_offset 24
 1676 0004 00AF     		add	r7, sp, #0
 1677              		.cfi_def_cfa_register 7
 1678 0006 7860     		str	r0, [r7, #4]
 1679 0008 3960     		str	r1, [r7]
1192:Drivers/STM32L4xx_HAL_Driver/Src/stm32l4xx_hal_dfsdm.c ****   HAL_StatusTypeDef status = HAL_OK;
 1680              		.loc 1 1192 21
 1681 000a 0023     		movs	r3, #0
 1682 000c FB73     		strb	r3, [r7, #15]
1193:Drivers/STM32L4xx_HAL_Driver/Src/stm32l4xx_hal_dfsdm.c **** 
1194:Drivers/STM32L4xx_HAL_Driver/Src/stm32l4xx_hal_dfsdm.c ****   /* Check parameters */
1195:Drivers/STM32L4xx_HAL_Driver/Src/stm32l4xx_hal_dfsdm.c ****   assert_param(IS_DFSDM_CHANNEL_ALL_INSTANCE(hdfsdm_channel->Instance));
1196:Drivers/STM32L4xx_HAL_Driver/Src/stm32l4xx_hal_dfsdm.c ****   assert_param(IS_DFSDM_CHANNEL_OFFSET(Offset));
1197:Drivers/STM32L4xx_HAL_Driver/Src/stm32l4xx_hal_dfsdm.c **** 
1198:Drivers/STM32L4xx_HAL_Driver/Src/stm32l4xx_hal_dfsdm.c ****   /* Check DFSDM channel state */
1199:Drivers/STM32L4xx_HAL_Driver/Src/stm32l4xx_hal_dfsdm.c ****   if (hdfsdm_channel->State != HAL_DFSDM_CHANNEL_STATE_READY)
 1683              		.loc 1 1199 21
 1684 000e 7B68     		ldr	r3, [r7, #4]
 1685 0010 93F83430 		ldrb	r3, [r3, #52]	@ zero_extendqisi2
 1686              		.loc 1 1199 6
 1687 0014 012B     		cmp	r3, #1
 1688 0016 02D0     		beq	.L93
1200:Drivers/STM32L4xx_HAL_Driver/Src/stm32l4xx_hal_dfsdm.c ****   {
1201:Drivers/STM32L4xx_HAL_Driver/Src/stm32l4xx_hal_dfsdm.c ****     /* Return error status */
1202:Drivers/STM32L4xx_HAL_Driver/Src/stm32l4xx_hal_dfsdm.c ****     status = HAL_ERROR;
 1689              		.loc 1 1202 12
 1690 0018 0123     		movs	r3, #1
 1691 001a FB73     		strb	r3, [r7, #15]
 1692 001c 0FE0     		b	.L94
 1693              	.L93:
1203:Drivers/STM32L4xx_HAL_Driver/Src/stm32l4xx_hal_dfsdm.c ****   }
1204:Drivers/STM32L4xx_HAL_Driver/Src/stm32l4xx_hal_dfsdm.c ****   else
1205:Drivers/STM32L4xx_HAL_Driver/Src/stm32l4xx_hal_dfsdm.c ****   {
1206:Drivers/STM32L4xx_HAL_Driver/Src/stm32l4xx_hal_dfsdm.c ****     /* Modify channel offset */
1207:Drivers/STM32L4xx_HAL_Driver/Src/stm32l4xx_hal_dfsdm.c ****     hdfsdm_channel->Instance->CHCFGR2 &= ~(DFSDM_CHCFGR2_OFFSET);
 1694              		.loc 1 1207 19
 1695 001e 7B68     		ldr	r3, [r7, #4]
 1696 0020 1B68     		ldr	r3, [r3]
 1697              		.loc 1 1207 29
 1698 0022 5A68     		ldr	r2, [r3, #4]
 1699              		.loc 1 1207 19
 1700 0024 7B68     		ldr	r3, [r7, #4]
ARM GAS  /tmp/ccrDNuCE.s 			page 52


 1701 0026 1B68     		ldr	r3, [r3]
 1702              		.loc 1 1207 39
 1703 0028 D2B2     		uxtb	r2, r2
 1704 002a 5A60     		str	r2, [r3, #4]
1208:Drivers/STM32L4xx_HAL_Driver/Src/stm32l4xx_hal_dfsdm.c ****     hdfsdm_channel->Instance->CHCFGR2 |= ((uint32_t) Offset << DFSDM_CHCFGR2_OFFSET_Pos);
 1705              		.loc 1 1208 19
 1706 002c 7B68     		ldr	r3, [r7, #4]
 1707 002e 1B68     		ldr	r3, [r3]
 1708              		.loc 1 1208 29
 1709 0030 5968     		ldr	r1, [r3, #4]
 1710              		.loc 1 1208 43
 1711 0032 3B68     		ldr	r3, [r7]
 1712              		.loc 1 1208 61
 1713 0034 1A02     		lsls	r2, r3, #8
 1714              		.loc 1 1208 19
 1715 0036 7B68     		ldr	r3, [r7, #4]
 1716 0038 1B68     		ldr	r3, [r3]
 1717              		.loc 1 1208 39
 1718 003a 0A43     		orrs	r2, r2, r1
 1719 003c 5A60     		str	r2, [r3, #4]
 1720              	.L94:
1209:Drivers/STM32L4xx_HAL_Driver/Src/stm32l4xx_hal_dfsdm.c ****   }
1210:Drivers/STM32L4xx_HAL_Driver/Src/stm32l4xx_hal_dfsdm.c ****   /* Return function status */
1211:Drivers/STM32L4xx_HAL_Driver/Src/stm32l4xx_hal_dfsdm.c ****   return status;
 1721              		.loc 1 1211 10
 1722 003e FB7B     		ldrb	r3, [r7, #15]	@ zero_extendqisi2
1212:Drivers/STM32L4xx_HAL_Driver/Src/stm32l4xx_hal_dfsdm.c **** }
 1723              		.loc 1 1212 1
 1724 0040 1846     		mov	r0, r3
 1725 0042 1437     		adds	r7, r7, #20
 1726              		.cfi_def_cfa_offset 4
 1727 0044 BD46     		mov	sp, r7
 1728              		.cfi_def_cfa_register 13
 1729              		@ sp needed
 1730 0046 5DF8047B 		ldr	r7, [sp], #4
 1731              		.cfi_restore 7
 1732              		.cfi_def_cfa_offset 0
 1733 004a 7047     		bx	lr
 1734              		.cfi_endproc
 1735              	.LFE462:
 1737              		.section	.text.HAL_DFSDM_ChannelGetState,"ax",%progbits
 1738              		.align	1
 1739              		.global	HAL_DFSDM_ChannelGetState
 1740              		.syntax unified
 1741              		.thumb
 1742              		.thumb_func
 1744              	HAL_DFSDM_ChannelGetState:
 1745              	.LFB463:
1213:Drivers/STM32L4xx_HAL_Driver/Src/stm32l4xx_hal_dfsdm.c **** 
1214:Drivers/STM32L4xx_HAL_Driver/Src/stm32l4xx_hal_dfsdm.c **** /**
1215:Drivers/STM32L4xx_HAL_Driver/Src/stm32l4xx_hal_dfsdm.c ****   * @}
1216:Drivers/STM32L4xx_HAL_Driver/Src/stm32l4xx_hal_dfsdm.c ****   */
1217:Drivers/STM32L4xx_HAL_Driver/Src/stm32l4xx_hal_dfsdm.c **** 
1218:Drivers/STM32L4xx_HAL_Driver/Src/stm32l4xx_hal_dfsdm.c **** /** @defgroup DFSDM_Exported_Functions_Group3_Channel Channel state function
1219:Drivers/STM32L4xx_HAL_Driver/Src/stm32l4xx_hal_dfsdm.c ****  *  @brief    Channel state function
1220:Drivers/STM32L4xx_HAL_Driver/Src/stm32l4xx_hal_dfsdm.c ****  *
1221:Drivers/STM32L4xx_HAL_Driver/Src/stm32l4xx_hal_dfsdm.c **** @verbatim
ARM GAS  /tmp/ccrDNuCE.s 			page 53


1222:Drivers/STM32L4xx_HAL_Driver/Src/stm32l4xx_hal_dfsdm.c ****   ==============================================================================
1223:Drivers/STM32L4xx_HAL_Driver/Src/stm32l4xx_hal_dfsdm.c ****                    ##### Channel state function #####
1224:Drivers/STM32L4xx_HAL_Driver/Src/stm32l4xx_hal_dfsdm.c ****   ==============================================================================
1225:Drivers/STM32L4xx_HAL_Driver/Src/stm32l4xx_hal_dfsdm.c ****     [..]  This section provides function allowing to:
1226:Drivers/STM32L4xx_HAL_Driver/Src/stm32l4xx_hal_dfsdm.c ****       (+) Get channel handle state.
1227:Drivers/STM32L4xx_HAL_Driver/Src/stm32l4xx_hal_dfsdm.c **** @endverbatim
1228:Drivers/STM32L4xx_HAL_Driver/Src/stm32l4xx_hal_dfsdm.c ****   * @{
1229:Drivers/STM32L4xx_HAL_Driver/Src/stm32l4xx_hal_dfsdm.c ****   */
1230:Drivers/STM32L4xx_HAL_Driver/Src/stm32l4xx_hal_dfsdm.c **** 
1231:Drivers/STM32L4xx_HAL_Driver/Src/stm32l4xx_hal_dfsdm.c **** /**
1232:Drivers/STM32L4xx_HAL_Driver/Src/stm32l4xx_hal_dfsdm.c ****   * @brief  This function allows to get the current DFSDM channel handle state.
1233:Drivers/STM32L4xx_HAL_Driver/Src/stm32l4xx_hal_dfsdm.c ****   * @param  hdfsdm_channel DFSDM channel handle.
1234:Drivers/STM32L4xx_HAL_Driver/Src/stm32l4xx_hal_dfsdm.c ****   * @retval DFSDM channel state.
1235:Drivers/STM32L4xx_HAL_Driver/Src/stm32l4xx_hal_dfsdm.c ****   */
1236:Drivers/STM32L4xx_HAL_Driver/Src/stm32l4xx_hal_dfsdm.c **** HAL_DFSDM_Channel_StateTypeDef HAL_DFSDM_ChannelGetState(const DFSDM_Channel_HandleTypeDef *hdfsdm_
1237:Drivers/STM32L4xx_HAL_Driver/Src/stm32l4xx_hal_dfsdm.c **** {
 1746              		.loc 1 1237 1
 1747              		.cfi_startproc
 1748              		@ args = 0, pretend = 0, frame = 8
 1749              		@ frame_needed = 1, uses_anonymous_args = 0
 1750              		@ link register save eliminated.
 1751 0000 80B4     		push	{r7}
 1752              		.cfi_def_cfa_offset 4
 1753              		.cfi_offset 7, -4
 1754 0002 83B0     		sub	sp, sp, #12
 1755              		.cfi_def_cfa_offset 16
 1756 0004 00AF     		add	r7, sp, #0
 1757              		.cfi_def_cfa_register 7
 1758 0006 7860     		str	r0, [r7, #4]
1238:Drivers/STM32L4xx_HAL_Driver/Src/stm32l4xx_hal_dfsdm.c ****   /* Return DFSDM channel handle state */
1239:Drivers/STM32L4xx_HAL_Driver/Src/stm32l4xx_hal_dfsdm.c ****   return hdfsdm_channel->State;
 1759              		.loc 1 1239 24
 1760 0008 7B68     		ldr	r3, [r7, #4]
 1761 000a 93F83430 		ldrb	r3, [r3, #52]	@ zero_extendqisi2
1240:Drivers/STM32L4xx_HAL_Driver/Src/stm32l4xx_hal_dfsdm.c **** }
 1762              		.loc 1 1240 1
 1763 000e 1846     		mov	r0, r3
 1764 0010 0C37     		adds	r7, r7, #12
 1765              		.cfi_def_cfa_offset 4
 1766 0012 BD46     		mov	sp, r7
 1767              		.cfi_def_cfa_register 13
 1768              		@ sp needed
 1769 0014 5DF8047B 		ldr	r7, [sp], #4
 1770              		.cfi_restore 7
 1771              		.cfi_def_cfa_offset 0
 1772 0018 7047     		bx	lr
 1773              		.cfi_endproc
 1774              	.LFE463:
 1776              		.section	.text.HAL_DFSDM_FilterInit,"ax",%progbits
 1777              		.align	1
 1778              		.global	HAL_DFSDM_FilterInit
 1779              		.syntax unified
 1780              		.thumb
 1781              		.thumb_func
 1783              	HAL_DFSDM_FilterInit:
 1784              	.LFB464:
1241:Drivers/STM32L4xx_HAL_Driver/Src/stm32l4xx_hal_dfsdm.c **** 
ARM GAS  /tmp/ccrDNuCE.s 			page 54


1242:Drivers/STM32L4xx_HAL_Driver/Src/stm32l4xx_hal_dfsdm.c **** /**
1243:Drivers/STM32L4xx_HAL_Driver/Src/stm32l4xx_hal_dfsdm.c ****   * @}
1244:Drivers/STM32L4xx_HAL_Driver/Src/stm32l4xx_hal_dfsdm.c ****   */
1245:Drivers/STM32L4xx_HAL_Driver/Src/stm32l4xx_hal_dfsdm.c **** 
1246:Drivers/STM32L4xx_HAL_Driver/Src/stm32l4xx_hal_dfsdm.c **** /** @defgroup DFSDM_Exported_Functions_Group1_Filter Filter initialization and de-initialization fu
1247:Drivers/STM32L4xx_HAL_Driver/Src/stm32l4xx_hal_dfsdm.c ****  *  @brief    Filter initialization and de-initialization functions
1248:Drivers/STM32L4xx_HAL_Driver/Src/stm32l4xx_hal_dfsdm.c ****  *
1249:Drivers/STM32L4xx_HAL_Driver/Src/stm32l4xx_hal_dfsdm.c **** @verbatim
1250:Drivers/STM32L4xx_HAL_Driver/Src/stm32l4xx_hal_dfsdm.c ****   ==============================================================================
1251:Drivers/STM32L4xx_HAL_Driver/Src/stm32l4xx_hal_dfsdm.c ****         ##### Filter initialization and de-initialization functions #####
1252:Drivers/STM32L4xx_HAL_Driver/Src/stm32l4xx_hal_dfsdm.c ****   ==============================================================================
1253:Drivers/STM32L4xx_HAL_Driver/Src/stm32l4xx_hal_dfsdm.c ****     [..]  This section provides functions allowing to:
1254:Drivers/STM32L4xx_HAL_Driver/Src/stm32l4xx_hal_dfsdm.c ****       (+) Initialize the DFSDM filter.
1255:Drivers/STM32L4xx_HAL_Driver/Src/stm32l4xx_hal_dfsdm.c ****       (+) De-initialize the DFSDM filter.
1256:Drivers/STM32L4xx_HAL_Driver/Src/stm32l4xx_hal_dfsdm.c **** @endverbatim
1257:Drivers/STM32L4xx_HAL_Driver/Src/stm32l4xx_hal_dfsdm.c ****   * @{
1258:Drivers/STM32L4xx_HAL_Driver/Src/stm32l4xx_hal_dfsdm.c ****   */
1259:Drivers/STM32L4xx_HAL_Driver/Src/stm32l4xx_hal_dfsdm.c **** 
1260:Drivers/STM32L4xx_HAL_Driver/Src/stm32l4xx_hal_dfsdm.c **** /**
1261:Drivers/STM32L4xx_HAL_Driver/Src/stm32l4xx_hal_dfsdm.c ****   * @brief  Initialize the DFSDM filter according to the specified parameters
1262:Drivers/STM32L4xx_HAL_Driver/Src/stm32l4xx_hal_dfsdm.c ****   *         in the DFSDM_FilterInitTypeDef structure and initialize the associated handle.
1263:Drivers/STM32L4xx_HAL_Driver/Src/stm32l4xx_hal_dfsdm.c ****   * @param  hdfsdm_filter DFSDM filter handle.
1264:Drivers/STM32L4xx_HAL_Driver/Src/stm32l4xx_hal_dfsdm.c ****   * @retval HAL status.
1265:Drivers/STM32L4xx_HAL_Driver/Src/stm32l4xx_hal_dfsdm.c ****   */
1266:Drivers/STM32L4xx_HAL_Driver/Src/stm32l4xx_hal_dfsdm.c **** HAL_StatusTypeDef HAL_DFSDM_FilterInit(DFSDM_Filter_HandleTypeDef *hdfsdm_filter)
1267:Drivers/STM32L4xx_HAL_Driver/Src/stm32l4xx_hal_dfsdm.c **** {
 1785              		.loc 1 1267 1
 1786              		.cfi_startproc
 1787              		@ args = 0, pretend = 0, frame = 8
 1788              		@ frame_needed = 1, uses_anonymous_args = 0
 1789 0000 80B5     		push	{r7, lr}
 1790              		.cfi_def_cfa_offset 8
 1791              		.cfi_offset 7, -8
 1792              		.cfi_offset 14, -4
 1793 0002 82B0     		sub	sp, sp, #8
 1794              		.cfi_def_cfa_offset 16
 1795 0004 00AF     		add	r7, sp, #0
 1796              		.cfi_def_cfa_register 7
 1797 0006 7860     		str	r0, [r7, #4]
1268:Drivers/STM32L4xx_HAL_Driver/Src/stm32l4xx_hal_dfsdm.c ****   /* Check DFSDM Channel handle */
1269:Drivers/STM32L4xx_HAL_Driver/Src/stm32l4xx_hal_dfsdm.c ****   if (hdfsdm_filter == NULL)
 1798              		.loc 1 1269 6
 1799 0008 7B68     		ldr	r3, [r7, #4]
 1800 000a 002B     		cmp	r3, #0
 1801 000c 01D1     		bne	.L99
1270:Drivers/STM32L4xx_HAL_Driver/Src/stm32l4xx_hal_dfsdm.c ****   {
1271:Drivers/STM32L4xx_HAL_Driver/Src/stm32l4xx_hal_dfsdm.c ****     return HAL_ERROR;
 1802              		.loc 1 1271 12
 1803 000e 0123     		movs	r3, #1
 1804 0010 CAE0     		b	.L100
 1805              	.L99:
1272:Drivers/STM32L4xx_HAL_Driver/Src/stm32l4xx_hal_dfsdm.c ****   }
1273:Drivers/STM32L4xx_HAL_Driver/Src/stm32l4xx_hal_dfsdm.c **** 
1274:Drivers/STM32L4xx_HAL_Driver/Src/stm32l4xx_hal_dfsdm.c ****   /* Check parameters */
1275:Drivers/STM32L4xx_HAL_Driver/Src/stm32l4xx_hal_dfsdm.c ****   assert_param(IS_DFSDM_FILTER_ALL_INSTANCE(hdfsdm_filter->Instance));
1276:Drivers/STM32L4xx_HAL_Driver/Src/stm32l4xx_hal_dfsdm.c ****   assert_param(IS_DFSDM_FILTER_REG_TRIGGER(hdfsdm_filter->Init.RegularParam.Trigger));
1277:Drivers/STM32L4xx_HAL_Driver/Src/stm32l4xx_hal_dfsdm.c ****   assert_param(IS_FUNCTIONAL_STATE(hdfsdm_filter->Init.RegularParam.FastMode));
ARM GAS  /tmp/ccrDNuCE.s 			page 55


1278:Drivers/STM32L4xx_HAL_Driver/Src/stm32l4xx_hal_dfsdm.c ****   assert_param(IS_FUNCTIONAL_STATE(hdfsdm_filter->Init.RegularParam.DmaMode));
1279:Drivers/STM32L4xx_HAL_Driver/Src/stm32l4xx_hal_dfsdm.c ****   assert_param(IS_DFSDM_FILTER_INJ_TRIGGER(hdfsdm_filter->Init.InjectedParam.Trigger));
1280:Drivers/STM32L4xx_HAL_Driver/Src/stm32l4xx_hal_dfsdm.c ****   assert_param(IS_FUNCTIONAL_STATE(hdfsdm_filter->Init.InjectedParam.ScanMode));
1281:Drivers/STM32L4xx_HAL_Driver/Src/stm32l4xx_hal_dfsdm.c ****   assert_param(IS_FUNCTIONAL_STATE(hdfsdm_filter->Init.InjectedParam.DmaMode));
1282:Drivers/STM32L4xx_HAL_Driver/Src/stm32l4xx_hal_dfsdm.c ****   assert_param(IS_DFSDM_FILTER_SINC_ORDER(hdfsdm_filter->Init.FilterParam.SincOrder));
1283:Drivers/STM32L4xx_HAL_Driver/Src/stm32l4xx_hal_dfsdm.c ****   assert_param(IS_DFSDM_FILTER_OVS_RATIO(hdfsdm_filter->Init.FilterParam.Oversampling));
1284:Drivers/STM32L4xx_HAL_Driver/Src/stm32l4xx_hal_dfsdm.c ****   assert_param(IS_DFSDM_FILTER_INTEGRATOR_OVS_RATIO(hdfsdm_filter->Init.FilterParam.IntOversampling
1285:Drivers/STM32L4xx_HAL_Driver/Src/stm32l4xx_hal_dfsdm.c **** 
1286:Drivers/STM32L4xx_HAL_Driver/Src/stm32l4xx_hal_dfsdm.c ****   /* Check parameters compatibility */
1287:Drivers/STM32L4xx_HAL_Driver/Src/stm32l4xx_hal_dfsdm.c ****   if ((hdfsdm_filter->Instance == DFSDM1_Filter0) &&
 1806              		.loc 1 1287 21
 1807 0012 7B68     		ldr	r3, [r7, #4]
 1808 0014 1B68     		ldr	r3, [r3]
 1809              		.loc 1 1287 6
 1810 0016 664A     		ldr	r2, .L112
 1811 0018 9342     		cmp	r3, r2
 1812 001a 09D1     		bne	.L101
1288:Drivers/STM32L4xx_HAL_Driver/Src/stm32l4xx_hal_dfsdm.c ****       ((hdfsdm_filter->Init.RegularParam.Trigger  == DFSDM_FILTER_SYNC_TRIGGER) ||
 1813              		.loc 1 1288 41
 1814 001c 7B68     		ldr	r3, [r7, #4]
 1815 001e 5B68     		ldr	r3, [r3, #4]
1287:Drivers/STM32L4xx_HAL_Driver/Src/stm32l4xx_hal_dfsdm.c ****       ((hdfsdm_filter->Init.RegularParam.Trigger  == DFSDM_FILTER_SYNC_TRIGGER) ||
 1816              		.loc 1 1287 51 discriminator 1
 1817 0020 012B     		cmp	r3, #1
 1818 0022 03D0     		beq	.L102
1289:Drivers/STM32L4xx_HAL_Driver/Src/stm32l4xx_hal_dfsdm.c ****        (hdfsdm_filter->Init.InjectedParam.Trigger == DFSDM_FILTER_SYNC_TRIGGER)))
 1819              		.loc 1 1289 42
 1820 0024 7B68     		ldr	r3, [r7, #4]
 1821 0026 DB68     		ldr	r3, [r3, #12]
1288:Drivers/STM32L4xx_HAL_Driver/Src/stm32l4xx_hal_dfsdm.c ****       ((hdfsdm_filter->Init.RegularParam.Trigger  == DFSDM_FILTER_SYNC_TRIGGER) ||
 1822              		.loc 1 1288 81
 1823 0028 012B     		cmp	r3, #1
 1824 002a 01D1     		bne	.L101
 1825              	.L102:
1290:Drivers/STM32L4xx_HAL_Driver/Src/stm32l4xx_hal_dfsdm.c ****   {
1291:Drivers/STM32L4xx_HAL_Driver/Src/stm32l4xx_hal_dfsdm.c ****     return HAL_ERROR;
 1826              		.loc 1 1291 12
 1827 002c 0123     		movs	r3, #1
 1828 002e BBE0     		b	.L100
 1829              	.L101:
1292:Drivers/STM32L4xx_HAL_Driver/Src/stm32l4xx_hal_dfsdm.c ****   }
1293:Drivers/STM32L4xx_HAL_Driver/Src/stm32l4xx_hal_dfsdm.c **** 
1294:Drivers/STM32L4xx_HAL_Driver/Src/stm32l4xx_hal_dfsdm.c ****   /* Initialize DFSDM filter variables with default values */
1295:Drivers/STM32L4xx_HAL_Driver/Src/stm32l4xx_hal_dfsdm.c ****   hdfsdm_filter->RegularContMode     = DFSDM_CONTINUOUS_CONV_OFF;
 1830              		.loc 1 1295 38
 1831 0030 7B68     		ldr	r3, [r7, #4]
 1832 0032 0022     		movs	r2, #0
 1833 0034 1A63     		str	r2, [r3, #48]
1296:Drivers/STM32L4xx_HAL_Driver/Src/stm32l4xx_hal_dfsdm.c ****   hdfsdm_filter->InjectedChannelsNbr = 1;
 1834              		.loc 1 1296 38
 1835 0036 7B68     		ldr	r3, [r7, #4]
 1836 0038 0122     		movs	r2, #1
 1837 003a 5A64     		str	r2, [r3, #68]
1297:Drivers/STM32L4xx_HAL_Driver/Src/stm32l4xx_hal_dfsdm.c ****   hdfsdm_filter->InjConvRemaining    = 1;
 1838              		.loc 1 1297 38
 1839 003c 7B68     		ldr	r3, [r7, #4]
 1840 003e 0122     		movs	r2, #1
ARM GAS  /tmp/ccrDNuCE.s 			page 56


 1841 0040 9A64     		str	r2, [r3, #72]
1298:Drivers/STM32L4xx_HAL_Driver/Src/stm32l4xx_hal_dfsdm.c ****   hdfsdm_filter->ErrorCode           = DFSDM_FILTER_ERROR_NONE;
 1842              		.loc 1 1298 38
 1843 0042 7B68     		ldr	r3, [r7, #4]
 1844 0044 0022     		movs	r2, #0
 1845 0046 1A65     		str	r2, [r3, #80]
1299:Drivers/STM32L4xx_HAL_Driver/Src/stm32l4xx_hal_dfsdm.c **** 
1300:Drivers/STM32L4xx_HAL_Driver/Src/stm32l4xx_hal_dfsdm.c **** #if (USE_HAL_DFSDM_REGISTER_CALLBACKS == 1)
1301:Drivers/STM32L4xx_HAL_Driver/Src/stm32l4xx_hal_dfsdm.c ****   /* Reset callback pointers to the weak predefined callbacks */
1302:Drivers/STM32L4xx_HAL_Driver/Src/stm32l4xx_hal_dfsdm.c ****   hdfsdm_filter->AwdCallback             = HAL_DFSDM_FilterAwdCallback;
1303:Drivers/STM32L4xx_HAL_Driver/Src/stm32l4xx_hal_dfsdm.c ****   hdfsdm_filter->RegConvCpltCallback     = HAL_DFSDM_FilterRegConvCpltCallback;
1304:Drivers/STM32L4xx_HAL_Driver/Src/stm32l4xx_hal_dfsdm.c ****   hdfsdm_filter->RegConvHalfCpltCallback = HAL_DFSDM_FilterRegConvHalfCpltCallback;
1305:Drivers/STM32L4xx_HAL_Driver/Src/stm32l4xx_hal_dfsdm.c ****   hdfsdm_filter->InjConvCpltCallback     = HAL_DFSDM_FilterInjConvCpltCallback;
1306:Drivers/STM32L4xx_HAL_Driver/Src/stm32l4xx_hal_dfsdm.c ****   hdfsdm_filter->InjConvHalfCpltCallback = HAL_DFSDM_FilterInjConvHalfCpltCallback;
1307:Drivers/STM32L4xx_HAL_Driver/Src/stm32l4xx_hal_dfsdm.c ****   hdfsdm_filter->ErrorCallback           = HAL_DFSDM_FilterErrorCallback;
1308:Drivers/STM32L4xx_HAL_Driver/Src/stm32l4xx_hal_dfsdm.c **** 
1309:Drivers/STM32L4xx_HAL_Driver/Src/stm32l4xx_hal_dfsdm.c ****   /* Call MSP init function */
1310:Drivers/STM32L4xx_HAL_Driver/Src/stm32l4xx_hal_dfsdm.c ****   if (hdfsdm_filter->MspInitCallback == NULL)
1311:Drivers/STM32L4xx_HAL_Driver/Src/stm32l4xx_hal_dfsdm.c ****   {
1312:Drivers/STM32L4xx_HAL_Driver/Src/stm32l4xx_hal_dfsdm.c ****     hdfsdm_filter->MspInitCallback = HAL_DFSDM_FilterMspInit;
1313:Drivers/STM32L4xx_HAL_Driver/Src/stm32l4xx_hal_dfsdm.c ****   }
1314:Drivers/STM32L4xx_HAL_Driver/Src/stm32l4xx_hal_dfsdm.c ****   hdfsdm_filter->MspInitCallback(hdfsdm_filter);
1315:Drivers/STM32L4xx_HAL_Driver/Src/stm32l4xx_hal_dfsdm.c **** #else
1316:Drivers/STM32L4xx_HAL_Driver/Src/stm32l4xx_hal_dfsdm.c ****   /* Call MSP init function */
1317:Drivers/STM32L4xx_HAL_Driver/Src/stm32l4xx_hal_dfsdm.c ****   HAL_DFSDM_FilterMspInit(hdfsdm_filter);
 1846              		.loc 1 1317 3
 1847 0048 7868     		ldr	r0, [r7, #4]
 1848 004a FFF7FEFF 		bl	HAL_DFSDM_FilterMspInit
1318:Drivers/STM32L4xx_HAL_Driver/Src/stm32l4xx_hal_dfsdm.c **** #endif
1319:Drivers/STM32L4xx_HAL_Driver/Src/stm32l4xx_hal_dfsdm.c **** 
1320:Drivers/STM32L4xx_HAL_Driver/Src/stm32l4xx_hal_dfsdm.c ****   /* Set regular parameters */
1321:Drivers/STM32L4xx_HAL_Driver/Src/stm32l4xx_hal_dfsdm.c ****   hdfsdm_filter->Instance->FLTCR1 &= ~(DFSDM_FLTCR1_RSYNC);
 1849              		.loc 1 1321 16
 1850 004e 7B68     		ldr	r3, [r7, #4]
 1851 0050 1B68     		ldr	r3, [r3]
 1852              		.loc 1 1321 26
 1853 0052 1A68     		ldr	r2, [r3]
 1854              		.loc 1 1321 16
 1855 0054 7B68     		ldr	r3, [r7, #4]
 1856 0056 1B68     		ldr	r3, [r3]
 1857              		.loc 1 1321 35
 1858 0058 22F40022 		bic	r2, r2, #524288
 1859 005c 1A60     		str	r2, [r3]
1322:Drivers/STM32L4xx_HAL_Driver/Src/stm32l4xx_hal_dfsdm.c ****   if (hdfsdm_filter->Init.RegularParam.FastMode == ENABLE)
 1860              		.loc 1 1322 39
 1861 005e 7B68     		ldr	r3, [r7, #4]
 1862 0060 1B7A     		ldrb	r3, [r3, #8]	@ zero_extendqisi2
 1863              		.loc 1 1322 6
 1864 0062 012B     		cmp	r3, #1
 1865 0064 08D1     		bne	.L103
1323:Drivers/STM32L4xx_HAL_Driver/Src/stm32l4xx_hal_dfsdm.c ****   {
1324:Drivers/STM32L4xx_HAL_Driver/Src/stm32l4xx_hal_dfsdm.c ****     hdfsdm_filter->Instance->FLTCR1 |= DFSDM_FLTCR1_FAST;
 1866              		.loc 1 1324 18
 1867 0066 7B68     		ldr	r3, [r7, #4]
 1868 0068 1B68     		ldr	r3, [r3]
 1869              		.loc 1 1324 28
 1870 006a 1A68     		ldr	r2, [r3]
ARM GAS  /tmp/ccrDNuCE.s 			page 57


 1871              		.loc 1 1324 18
 1872 006c 7B68     		ldr	r3, [r7, #4]
 1873 006e 1B68     		ldr	r3, [r3]
 1874              		.loc 1 1324 37
 1875 0070 42F00052 		orr	r2, r2, #536870912
 1876 0074 1A60     		str	r2, [r3]
 1877 0076 07E0     		b	.L104
 1878              	.L103:
1325:Drivers/STM32L4xx_HAL_Driver/Src/stm32l4xx_hal_dfsdm.c ****   }
1326:Drivers/STM32L4xx_HAL_Driver/Src/stm32l4xx_hal_dfsdm.c ****   else
1327:Drivers/STM32L4xx_HAL_Driver/Src/stm32l4xx_hal_dfsdm.c ****   {
1328:Drivers/STM32L4xx_HAL_Driver/Src/stm32l4xx_hal_dfsdm.c ****     hdfsdm_filter->Instance->FLTCR1 &= ~(DFSDM_FLTCR1_FAST);
 1879              		.loc 1 1328 18
 1880 0078 7B68     		ldr	r3, [r7, #4]
 1881 007a 1B68     		ldr	r3, [r3]
 1882              		.loc 1 1328 28
 1883 007c 1A68     		ldr	r2, [r3]
 1884              		.loc 1 1328 18
 1885 007e 7B68     		ldr	r3, [r7, #4]
 1886 0080 1B68     		ldr	r3, [r3]
 1887              		.loc 1 1328 37
 1888 0082 22F00052 		bic	r2, r2, #536870912
 1889 0086 1A60     		str	r2, [r3]
 1890              	.L104:
1329:Drivers/STM32L4xx_HAL_Driver/Src/stm32l4xx_hal_dfsdm.c ****   }
1330:Drivers/STM32L4xx_HAL_Driver/Src/stm32l4xx_hal_dfsdm.c **** 
1331:Drivers/STM32L4xx_HAL_Driver/Src/stm32l4xx_hal_dfsdm.c ****   if (hdfsdm_filter->Init.RegularParam.DmaMode == ENABLE)
 1891              		.loc 1 1331 39
 1892 0088 7B68     		ldr	r3, [r7, #4]
 1893 008a 5B7A     		ldrb	r3, [r3, #9]	@ zero_extendqisi2
 1894              		.loc 1 1331 6
 1895 008c 012B     		cmp	r3, #1
 1896 008e 08D1     		bne	.L105
1332:Drivers/STM32L4xx_HAL_Driver/Src/stm32l4xx_hal_dfsdm.c ****   {
1333:Drivers/STM32L4xx_HAL_Driver/Src/stm32l4xx_hal_dfsdm.c ****     hdfsdm_filter->Instance->FLTCR1 |= DFSDM_FLTCR1_RDMAEN;
 1897              		.loc 1 1333 18
 1898 0090 7B68     		ldr	r3, [r7, #4]
 1899 0092 1B68     		ldr	r3, [r3]
 1900              		.loc 1 1333 28
 1901 0094 1A68     		ldr	r2, [r3]
 1902              		.loc 1 1333 18
 1903 0096 7B68     		ldr	r3, [r7, #4]
 1904 0098 1B68     		ldr	r3, [r3]
 1905              		.loc 1 1333 37
 1906 009a 42F40012 		orr	r2, r2, #2097152
 1907 009e 1A60     		str	r2, [r3]
 1908 00a0 07E0     		b	.L106
 1909              	.L105:
1334:Drivers/STM32L4xx_HAL_Driver/Src/stm32l4xx_hal_dfsdm.c ****   }
1335:Drivers/STM32L4xx_HAL_Driver/Src/stm32l4xx_hal_dfsdm.c ****   else
1336:Drivers/STM32L4xx_HAL_Driver/Src/stm32l4xx_hal_dfsdm.c ****   {
1337:Drivers/STM32L4xx_HAL_Driver/Src/stm32l4xx_hal_dfsdm.c ****     hdfsdm_filter->Instance->FLTCR1 &= ~(DFSDM_FLTCR1_RDMAEN);
 1910              		.loc 1 1337 18
 1911 00a2 7B68     		ldr	r3, [r7, #4]
 1912 00a4 1B68     		ldr	r3, [r3]
 1913              		.loc 1 1337 28
 1914 00a6 1A68     		ldr	r2, [r3]
ARM GAS  /tmp/ccrDNuCE.s 			page 58


 1915              		.loc 1 1337 18
 1916 00a8 7B68     		ldr	r3, [r7, #4]
 1917 00aa 1B68     		ldr	r3, [r3]
 1918              		.loc 1 1337 37
 1919 00ac 22F40012 		bic	r2, r2, #2097152
 1920 00b0 1A60     		str	r2, [r3]
 1921              	.L106:
1338:Drivers/STM32L4xx_HAL_Driver/Src/stm32l4xx_hal_dfsdm.c ****   }
1339:Drivers/STM32L4xx_HAL_Driver/Src/stm32l4xx_hal_dfsdm.c **** 
1340:Drivers/STM32L4xx_HAL_Driver/Src/stm32l4xx_hal_dfsdm.c ****   /* Set injected parameters */
1341:Drivers/STM32L4xx_HAL_Driver/Src/stm32l4xx_hal_dfsdm.c ****   hdfsdm_filter->Instance->FLTCR1 &= ~(DFSDM_FLTCR1_JSYNC | DFSDM_FLTCR1_JEXTEN | DFSDM_FLTCR1_JEXT
 1922              		.loc 1 1341 16
 1923 00b2 7B68     		ldr	r3, [r7, #4]
 1924 00b4 1B68     		ldr	r3, [r3]
 1925              		.loc 1 1341 26
 1926 00b6 1B68     		ldr	r3, [r3]
 1927              		.loc 1 1341 16
 1928 00b8 7A68     		ldr	r2, [r7, #4]
 1929 00ba 1268     		ldr	r2, [r2]
 1930              		.loc 1 1341 35
 1931 00bc 23F4CE43 		bic	r3, r3, #26368
 1932 00c0 23F00803 		bic	r3, r3, #8
 1933 00c4 1360     		str	r3, [r2]
1342:Drivers/STM32L4xx_HAL_Driver/Src/stm32l4xx_hal_dfsdm.c ****   if (hdfsdm_filter->Init.InjectedParam.Trigger == DFSDM_FILTER_EXT_TRIGGER)
 1934              		.loc 1 1342 40
 1935 00c6 7B68     		ldr	r3, [r7, #4]
 1936 00c8 DB68     		ldr	r3, [r3, #12]
 1937              		.loc 1 1342 6
 1938 00ca 022B     		cmp	r3, #2
 1939 00cc 08D1     		bne	.L107
1343:Drivers/STM32L4xx_HAL_Driver/Src/stm32l4xx_hal_dfsdm.c ****   {
1344:Drivers/STM32L4xx_HAL_Driver/Src/stm32l4xx_hal_dfsdm.c ****     assert_param(IS_DFSDM_FILTER_EXT_TRIG(hdfsdm_filter->Init.InjectedParam.ExtTrigger));
1345:Drivers/STM32L4xx_HAL_Driver/Src/stm32l4xx_hal_dfsdm.c ****     assert_param(IS_DFSDM_FILTER_EXT_TRIG_EDGE(hdfsdm_filter->Init.InjectedParam.ExtTriggerEdge));
1346:Drivers/STM32L4xx_HAL_Driver/Src/stm32l4xx_hal_dfsdm.c ****     hdfsdm_filter->Instance->FLTCR1 |= (hdfsdm_filter->Init.InjectedParam.ExtTrigger);
 1940              		.loc 1 1346 18
 1941 00ce 7B68     		ldr	r3, [r7, #4]
 1942 00d0 1B68     		ldr	r3, [r3]
 1943              		.loc 1 1346 28
 1944 00d2 1968     		ldr	r1, [r3]
 1945              		.loc 1 1346 74
 1946 00d4 7B68     		ldr	r3, [r7, #4]
 1947 00d6 5A69     		ldr	r2, [r3, #20]
 1948              		.loc 1 1346 18
 1949 00d8 7B68     		ldr	r3, [r7, #4]
 1950 00da 1B68     		ldr	r3, [r3]
 1951              		.loc 1 1346 37
 1952 00dc 0A43     		orrs	r2, r2, r1
 1953 00de 1A60     		str	r2, [r3]
 1954              	.L107:
1347:Drivers/STM32L4xx_HAL_Driver/Src/stm32l4xx_hal_dfsdm.c ****   }
1348:Drivers/STM32L4xx_HAL_Driver/Src/stm32l4xx_hal_dfsdm.c **** 
1349:Drivers/STM32L4xx_HAL_Driver/Src/stm32l4xx_hal_dfsdm.c ****   if (hdfsdm_filter->Init.InjectedParam.ScanMode == ENABLE)
 1955              		.loc 1 1349 40
 1956 00e0 7B68     		ldr	r3, [r7, #4]
 1957 00e2 1B7C     		ldrb	r3, [r3, #16]	@ zero_extendqisi2
 1958              		.loc 1 1349 6
 1959 00e4 012B     		cmp	r3, #1
ARM GAS  /tmp/ccrDNuCE.s 			page 59


 1960 00e6 08D1     		bne	.L108
1350:Drivers/STM32L4xx_HAL_Driver/Src/stm32l4xx_hal_dfsdm.c ****   {
1351:Drivers/STM32L4xx_HAL_Driver/Src/stm32l4xx_hal_dfsdm.c ****     hdfsdm_filter->Instance->FLTCR1 |= DFSDM_FLTCR1_JSCAN;
 1961              		.loc 1 1351 18
 1962 00e8 7B68     		ldr	r3, [r7, #4]
 1963 00ea 1B68     		ldr	r3, [r3]
 1964              		.loc 1 1351 28
 1965 00ec 1A68     		ldr	r2, [r3]
 1966              		.loc 1 1351 18
 1967 00ee 7B68     		ldr	r3, [r7, #4]
 1968 00f0 1B68     		ldr	r3, [r3]
 1969              		.loc 1 1351 37
 1970 00f2 42F01002 		orr	r2, r2, #16
 1971 00f6 1A60     		str	r2, [r3]
 1972 00f8 07E0     		b	.L109
 1973              	.L108:
1352:Drivers/STM32L4xx_HAL_Driver/Src/stm32l4xx_hal_dfsdm.c ****   }
1353:Drivers/STM32L4xx_HAL_Driver/Src/stm32l4xx_hal_dfsdm.c ****   else
1354:Drivers/STM32L4xx_HAL_Driver/Src/stm32l4xx_hal_dfsdm.c ****   {
1355:Drivers/STM32L4xx_HAL_Driver/Src/stm32l4xx_hal_dfsdm.c ****     hdfsdm_filter->Instance->FLTCR1 &= ~(DFSDM_FLTCR1_JSCAN);
 1974              		.loc 1 1355 18
 1975 00fa 7B68     		ldr	r3, [r7, #4]
 1976 00fc 1B68     		ldr	r3, [r3]
 1977              		.loc 1 1355 28
 1978 00fe 1A68     		ldr	r2, [r3]
 1979              		.loc 1 1355 18
 1980 0100 7B68     		ldr	r3, [r7, #4]
 1981 0102 1B68     		ldr	r3, [r3]
 1982              		.loc 1 1355 37
 1983 0104 22F01002 		bic	r2, r2, #16
 1984 0108 1A60     		str	r2, [r3]
 1985              	.L109:
1356:Drivers/STM32L4xx_HAL_Driver/Src/stm32l4xx_hal_dfsdm.c ****   }
1357:Drivers/STM32L4xx_HAL_Driver/Src/stm32l4xx_hal_dfsdm.c **** 
1358:Drivers/STM32L4xx_HAL_Driver/Src/stm32l4xx_hal_dfsdm.c ****   if (hdfsdm_filter->Init.InjectedParam.DmaMode == ENABLE)
 1986              		.loc 1 1358 40
 1987 010a 7B68     		ldr	r3, [r7, #4]
 1988 010c 5B7C     		ldrb	r3, [r3, #17]	@ zero_extendqisi2
 1989              		.loc 1 1358 6
 1990 010e 012B     		cmp	r3, #1
 1991 0110 08D1     		bne	.L110
1359:Drivers/STM32L4xx_HAL_Driver/Src/stm32l4xx_hal_dfsdm.c ****   {
1360:Drivers/STM32L4xx_HAL_Driver/Src/stm32l4xx_hal_dfsdm.c ****     hdfsdm_filter->Instance->FLTCR1 |= DFSDM_FLTCR1_JDMAEN;
 1992              		.loc 1 1360 18
 1993 0112 7B68     		ldr	r3, [r7, #4]
 1994 0114 1B68     		ldr	r3, [r3]
 1995              		.loc 1 1360 28
 1996 0116 1A68     		ldr	r2, [r3]
 1997              		.loc 1 1360 18
 1998 0118 7B68     		ldr	r3, [r7, #4]
 1999 011a 1B68     		ldr	r3, [r3]
 2000              		.loc 1 1360 37
 2001 011c 42F02002 		orr	r2, r2, #32
 2002 0120 1A60     		str	r2, [r3]
 2003 0122 07E0     		b	.L111
 2004              	.L110:
1361:Drivers/STM32L4xx_HAL_Driver/Src/stm32l4xx_hal_dfsdm.c ****   }
ARM GAS  /tmp/ccrDNuCE.s 			page 60


1362:Drivers/STM32L4xx_HAL_Driver/Src/stm32l4xx_hal_dfsdm.c ****   else
1363:Drivers/STM32L4xx_HAL_Driver/Src/stm32l4xx_hal_dfsdm.c ****   {
1364:Drivers/STM32L4xx_HAL_Driver/Src/stm32l4xx_hal_dfsdm.c ****     hdfsdm_filter->Instance->FLTCR1 &= ~(DFSDM_FLTCR1_JDMAEN);
 2005              		.loc 1 1364 18
 2006 0124 7B68     		ldr	r3, [r7, #4]
 2007 0126 1B68     		ldr	r3, [r3]
 2008              		.loc 1 1364 28
 2009 0128 1A68     		ldr	r2, [r3]
 2010              		.loc 1 1364 18
 2011 012a 7B68     		ldr	r3, [r7, #4]
 2012 012c 1B68     		ldr	r3, [r3]
 2013              		.loc 1 1364 37
 2014 012e 22F02002 		bic	r2, r2, #32
 2015 0132 1A60     		str	r2, [r3]
 2016              	.L111:
1365:Drivers/STM32L4xx_HAL_Driver/Src/stm32l4xx_hal_dfsdm.c ****   }
1366:Drivers/STM32L4xx_HAL_Driver/Src/stm32l4xx_hal_dfsdm.c **** 
1367:Drivers/STM32L4xx_HAL_Driver/Src/stm32l4xx_hal_dfsdm.c ****   /* Set filter parameters */
1368:Drivers/STM32L4xx_HAL_Driver/Src/stm32l4xx_hal_dfsdm.c ****   hdfsdm_filter->Instance->FLTFCR &= ~(DFSDM_FLTFCR_FORD | DFSDM_FLTFCR_FOSR | DFSDM_FLTFCR_IOSR);
 2017              		.loc 1 1368 16
 2018 0134 7B68     		ldr	r3, [r7, #4]
 2019 0136 1B68     		ldr	r3, [r3]
 2020              		.loc 1 1368 26
 2021 0138 5B69     		ldr	r3, [r3, #20]
 2022              		.loc 1 1368 16
 2023 013a 7A68     		ldr	r2, [r7, #4]
 2024 013c 1268     		ldr	r2, [r2]
 2025              		.loc 1 1368 35
 2026 013e 23F06343 		bic	r3, r3, #-486539264
 2027 0142 03F0FF23 		and	r3, r3, #-16711936
 2028 0146 5361     		str	r3, [r2, #20]
1369:Drivers/STM32L4xx_HAL_Driver/Src/stm32l4xx_hal_dfsdm.c ****   hdfsdm_filter->Instance->FLTFCR |= (hdfsdm_filter->Init.FilterParam.SincOrder |
 2029              		.loc 1 1369 16
 2030 0148 7B68     		ldr	r3, [r7, #4]
 2031 014a 1B68     		ldr	r3, [r3]
 2032              		.loc 1 1369 26
 2033 014c 5969     		ldr	r1, [r3, #20]
 2034              		.loc 1 1369 70
 2035 014e 7B68     		ldr	r3, [r7, #4]
 2036 0150 DA69     		ldr	r2, [r3, #28]
1370:Drivers/STM32L4xx_HAL_Driver/Src/stm32l4xx_hal_dfsdm.c ****                                       ((hdfsdm_filter->Init.FilterParam.Oversampling - 1U) << DFSDM
 2037              		.loc 1 1370 72
 2038 0152 7B68     		ldr	r3, [r7, #4]
 2039 0154 1B6A     		ldr	r3, [r3, #32]
 2040              		.loc 1 1370 86
 2041 0156 013B     		subs	r3, r3, #1
 2042              		.loc 1 1370 92
 2043 0158 1B04     		lsls	r3, r3, #16
1369:Drivers/STM32L4xx_HAL_Driver/Src/stm32l4xx_hal_dfsdm.c ****   hdfsdm_filter->Instance->FLTFCR |= (hdfsdm_filter->Init.FilterParam.SincOrder |
 2044              		.loc 1 1369 81
 2045 015a 1A43     		orrs	r2, r2, r3
1371:Drivers/STM32L4xx_HAL_Driver/Src/stm32l4xx_hal_dfsdm.c ****                                       (hdfsdm_filter->Init.FilterParam.IntOversampling - 1U));
 2046              		.loc 1 1371 71
 2047 015c 7B68     		ldr	r3, [r7, #4]
 2048 015e 5B6A     		ldr	r3, [r3, #36]
 2049              		.loc 1 1371 88
 2050 0160 013B     		subs	r3, r3, #1
ARM GAS  /tmp/ccrDNuCE.s 			page 61


1370:Drivers/STM32L4xx_HAL_Driver/Src/stm32l4xx_hal_dfsdm.c ****                                       ((hdfsdm_filter->Init.FilterParam.Oversampling - 1U) << DFSDM
 2051              		.loc 1 1370 118
 2052 0162 1A43     		orrs	r2, r2, r3
1369:Drivers/STM32L4xx_HAL_Driver/Src/stm32l4xx_hal_dfsdm.c ****   hdfsdm_filter->Instance->FLTFCR |= (hdfsdm_filter->Init.FilterParam.SincOrder |
 2053              		.loc 1 1369 16
 2054 0164 7B68     		ldr	r3, [r7, #4]
 2055 0166 1B68     		ldr	r3, [r3]
1369:Drivers/STM32L4xx_HAL_Driver/Src/stm32l4xx_hal_dfsdm.c ****   hdfsdm_filter->Instance->FLTFCR |= (hdfsdm_filter->Init.FilterParam.SincOrder |
 2056              		.loc 1 1369 35
 2057 0168 0A43     		orrs	r2, r2, r1
 2058 016a 5A61     		str	r2, [r3, #20]
1372:Drivers/STM32L4xx_HAL_Driver/Src/stm32l4xx_hal_dfsdm.c **** 
1373:Drivers/STM32L4xx_HAL_Driver/Src/stm32l4xx_hal_dfsdm.c ****   /* Store regular and injected triggers and injected scan mode*/
1374:Drivers/STM32L4xx_HAL_Driver/Src/stm32l4xx_hal_dfsdm.c ****   hdfsdm_filter->RegularTrigger   = hdfsdm_filter->Init.RegularParam.Trigger;
 2059              		.loc 1 1374 69
 2060 016c 7B68     		ldr	r3, [r7, #4]
 2061 016e 5A68     		ldr	r2, [r3, #4]
 2062              		.loc 1 1374 35
 2063 0170 7B68     		ldr	r3, [r7, #4]
 2064 0172 5A63     		str	r2, [r3, #52]
1375:Drivers/STM32L4xx_HAL_Driver/Src/stm32l4xx_hal_dfsdm.c ****   hdfsdm_filter->InjectedTrigger  = hdfsdm_filter->Init.InjectedParam.Trigger;
 2065              		.loc 1 1375 70
 2066 0174 7B68     		ldr	r3, [r7, #4]
 2067 0176 DA68     		ldr	r2, [r3, #12]
 2068              		.loc 1 1375 35
 2069 0178 7B68     		ldr	r3, [r7, #4]
 2070 017a 9A63     		str	r2, [r3, #56]
1376:Drivers/STM32L4xx_HAL_Driver/Src/stm32l4xx_hal_dfsdm.c ****   hdfsdm_filter->ExtTriggerEdge   = hdfsdm_filter->Init.InjectedParam.ExtTriggerEdge;
 2071              		.loc 1 1376 70
 2072 017c 7B68     		ldr	r3, [r7, #4]
 2073 017e 9A69     		ldr	r2, [r3, #24]
 2074              		.loc 1 1376 35
 2075 0180 7B68     		ldr	r3, [r7, #4]
 2076 0182 DA63     		str	r2, [r3, #60]
1377:Drivers/STM32L4xx_HAL_Driver/Src/stm32l4xx_hal_dfsdm.c ****   hdfsdm_filter->InjectedScanMode = hdfsdm_filter->Init.InjectedParam.ScanMode;
 2077              		.loc 1 1377 70
 2078 0184 7B68     		ldr	r3, [r7, #4]
 2079 0186 1A7C     		ldrb	r2, [r3, #16]	@ zero_extendqisi2
 2080              		.loc 1 1377 35
 2081 0188 7B68     		ldr	r3, [r7, #4]
 2082 018a 83F84020 		strb	r2, [r3, #64]
1378:Drivers/STM32L4xx_HAL_Driver/Src/stm32l4xx_hal_dfsdm.c **** 
1379:Drivers/STM32L4xx_HAL_Driver/Src/stm32l4xx_hal_dfsdm.c ****   /* Enable DFSDM filter */
1380:Drivers/STM32L4xx_HAL_Driver/Src/stm32l4xx_hal_dfsdm.c ****   hdfsdm_filter->Instance->FLTCR1 |= DFSDM_FLTCR1_DFEN;
 2083              		.loc 1 1380 16
 2084 018e 7B68     		ldr	r3, [r7, #4]
 2085 0190 1B68     		ldr	r3, [r3]
 2086              		.loc 1 1380 26
 2087 0192 1A68     		ldr	r2, [r3]
 2088              		.loc 1 1380 16
 2089 0194 7B68     		ldr	r3, [r7, #4]
 2090 0196 1B68     		ldr	r3, [r3]
 2091              		.loc 1 1380 35
 2092 0198 42F00102 		orr	r2, r2, #1
 2093 019c 1A60     		str	r2, [r3]
1381:Drivers/STM32L4xx_HAL_Driver/Src/stm32l4xx_hal_dfsdm.c **** 
1382:Drivers/STM32L4xx_HAL_Driver/Src/stm32l4xx_hal_dfsdm.c ****   /* Set DFSDM filter to ready state */
ARM GAS  /tmp/ccrDNuCE.s 			page 62


1383:Drivers/STM32L4xx_HAL_Driver/Src/stm32l4xx_hal_dfsdm.c ****   hdfsdm_filter->State = HAL_DFSDM_FILTER_STATE_READY;
 2094              		.loc 1 1383 24
 2095 019e 7B68     		ldr	r3, [r7, #4]
 2096 01a0 0122     		movs	r2, #1
 2097 01a2 83F84C20 		strb	r2, [r3, #76]
1384:Drivers/STM32L4xx_HAL_Driver/Src/stm32l4xx_hal_dfsdm.c **** 
1385:Drivers/STM32L4xx_HAL_Driver/Src/stm32l4xx_hal_dfsdm.c ****   return HAL_OK;
 2098              		.loc 1 1385 10
 2099 01a6 0023     		movs	r3, #0
 2100              	.L100:
1386:Drivers/STM32L4xx_HAL_Driver/Src/stm32l4xx_hal_dfsdm.c **** }
 2101              		.loc 1 1386 1
 2102 01a8 1846     		mov	r0, r3
 2103 01aa 0837     		adds	r7, r7, #8
 2104              		.cfi_def_cfa_offset 8
 2105 01ac BD46     		mov	sp, r7
 2106              		.cfi_def_cfa_register 13
 2107              		@ sp needed
 2108 01ae 80BD     		pop	{r7, pc}
 2109              	.L113:
 2110              		.align	2
 2111              	.L112:
 2112 01b0 00610140 		.word	1073832192
 2113              		.cfi_endproc
 2114              	.LFE464:
 2116              		.section	.text.HAL_DFSDM_FilterDeInit,"ax",%progbits
 2117              		.align	1
 2118              		.global	HAL_DFSDM_FilterDeInit
 2119              		.syntax unified
 2120              		.thumb
 2121              		.thumb_func
 2123              	HAL_DFSDM_FilterDeInit:
 2124              	.LFB465:
1387:Drivers/STM32L4xx_HAL_Driver/Src/stm32l4xx_hal_dfsdm.c **** 
1388:Drivers/STM32L4xx_HAL_Driver/Src/stm32l4xx_hal_dfsdm.c **** /**
1389:Drivers/STM32L4xx_HAL_Driver/Src/stm32l4xx_hal_dfsdm.c ****   * @brief  De-initializes the DFSDM filter.
1390:Drivers/STM32L4xx_HAL_Driver/Src/stm32l4xx_hal_dfsdm.c ****   * @param  hdfsdm_filter DFSDM filter handle.
1391:Drivers/STM32L4xx_HAL_Driver/Src/stm32l4xx_hal_dfsdm.c ****   * @retval HAL status.
1392:Drivers/STM32L4xx_HAL_Driver/Src/stm32l4xx_hal_dfsdm.c ****   */
1393:Drivers/STM32L4xx_HAL_Driver/Src/stm32l4xx_hal_dfsdm.c **** HAL_StatusTypeDef HAL_DFSDM_FilterDeInit(DFSDM_Filter_HandleTypeDef *hdfsdm_filter)
1394:Drivers/STM32L4xx_HAL_Driver/Src/stm32l4xx_hal_dfsdm.c **** {
 2125              		.loc 1 1394 1
 2126              		.cfi_startproc
 2127              		@ args = 0, pretend = 0, frame = 8
 2128              		@ frame_needed = 1, uses_anonymous_args = 0
 2129 0000 80B5     		push	{r7, lr}
 2130              		.cfi_def_cfa_offset 8
 2131              		.cfi_offset 7, -8
 2132              		.cfi_offset 14, -4
 2133 0002 82B0     		sub	sp, sp, #8
 2134              		.cfi_def_cfa_offset 16
 2135 0004 00AF     		add	r7, sp, #0
 2136              		.cfi_def_cfa_register 7
 2137 0006 7860     		str	r0, [r7, #4]
1395:Drivers/STM32L4xx_HAL_Driver/Src/stm32l4xx_hal_dfsdm.c ****   /* Check DFSDM filter handle */
1396:Drivers/STM32L4xx_HAL_Driver/Src/stm32l4xx_hal_dfsdm.c ****   if (hdfsdm_filter == NULL)
 2138              		.loc 1 1396 6
ARM GAS  /tmp/ccrDNuCE.s 			page 63


 2139 0008 7B68     		ldr	r3, [r7, #4]
 2140 000a 002B     		cmp	r3, #0
 2141 000c 01D1     		bne	.L115
1397:Drivers/STM32L4xx_HAL_Driver/Src/stm32l4xx_hal_dfsdm.c ****   {
1398:Drivers/STM32L4xx_HAL_Driver/Src/stm32l4xx_hal_dfsdm.c ****     return HAL_ERROR;
 2142              		.loc 1 1398 12
 2143 000e 0123     		movs	r3, #1
 2144 0010 0FE0     		b	.L116
 2145              	.L115:
1399:Drivers/STM32L4xx_HAL_Driver/Src/stm32l4xx_hal_dfsdm.c ****   }
1400:Drivers/STM32L4xx_HAL_Driver/Src/stm32l4xx_hal_dfsdm.c **** 
1401:Drivers/STM32L4xx_HAL_Driver/Src/stm32l4xx_hal_dfsdm.c ****   /* Check parameters */
1402:Drivers/STM32L4xx_HAL_Driver/Src/stm32l4xx_hal_dfsdm.c ****   assert_param(IS_DFSDM_FILTER_ALL_INSTANCE(hdfsdm_filter->Instance));
1403:Drivers/STM32L4xx_HAL_Driver/Src/stm32l4xx_hal_dfsdm.c **** 
1404:Drivers/STM32L4xx_HAL_Driver/Src/stm32l4xx_hal_dfsdm.c ****   /* Disable the DFSDM filter */
1405:Drivers/STM32L4xx_HAL_Driver/Src/stm32l4xx_hal_dfsdm.c ****   hdfsdm_filter->Instance->FLTCR1 &= ~(DFSDM_FLTCR1_DFEN);
 2146              		.loc 1 1405 16
 2147 0012 7B68     		ldr	r3, [r7, #4]
 2148 0014 1B68     		ldr	r3, [r3]
 2149              		.loc 1 1405 26
 2150 0016 1A68     		ldr	r2, [r3]
 2151              		.loc 1 1405 16
 2152 0018 7B68     		ldr	r3, [r7, #4]
 2153 001a 1B68     		ldr	r3, [r3]
 2154              		.loc 1 1405 35
 2155 001c 22F00102 		bic	r2, r2, #1
 2156 0020 1A60     		str	r2, [r3]
1406:Drivers/STM32L4xx_HAL_Driver/Src/stm32l4xx_hal_dfsdm.c **** 
1407:Drivers/STM32L4xx_HAL_Driver/Src/stm32l4xx_hal_dfsdm.c ****   /* Call MSP deinit function */
1408:Drivers/STM32L4xx_HAL_Driver/Src/stm32l4xx_hal_dfsdm.c **** #if (USE_HAL_DFSDM_REGISTER_CALLBACKS == 1)
1409:Drivers/STM32L4xx_HAL_Driver/Src/stm32l4xx_hal_dfsdm.c ****   if (hdfsdm_filter->MspDeInitCallback == NULL)
1410:Drivers/STM32L4xx_HAL_Driver/Src/stm32l4xx_hal_dfsdm.c ****   {
1411:Drivers/STM32L4xx_HAL_Driver/Src/stm32l4xx_hal_dfsdm.c ****     hdfsdm_filter->MspDeInitCallback = HAL_DFSDM_FilterMspDeInit;
1412:Drivers/STM32L4xx_HAL_Driver/Src/stm32l4xx_hal_dfsdm.c ****   }
1413:Drivers/STM32L4xx_HAL_Driver/Src/stm32l4xx_hal_dfsdm.c ****   hdfsdm_filter->MspDeInitCallback(hdfsdm_filter);
1414:Drivers/STM32L4xx_HAL_Driver/Src/stm32l4xx_hal_dfsdm.c **** #else
1415:Drivers/STM32L4xx_HAL_Driver/Src/stm32l4xx_hal_dfsdm.c ****   HAL_DFSDM_FilterMspDeInit(hdfsdm_filter);
 2157              		.loc 1 1415 3
 2158 0022 7868     		ldr	r0, [r7, #4]
 2159 0024 FFF7FEFF 		bl	HAL_DFSDM_FilterMspDeInit
1416:Drivers/STM32L4xx_HAL_Driver/Src/stm32l4xx_hal_dfsdm.c **** #endif
1417:Drivers/STM32L4xx_HAL_Driver/Src/stm32l4xx_hal_dfsdm.c **** 
1418:Drivers/STM32L4xx_HAL_Driver/Src/stm32l4xx_hal_dfsdm.c ****   /* Set DFSDM filter in reset state */
1419:Drivers/STM32L4xx_HAL_Driver/Src/stm32l4xx_hal_dfsdm.c ****   hdfsdm_filter->State = HAL_DFSDM_FILTER_STATE_RESET;
 2160              		.loc 1 1419 24
 2161 0028 7B68     		ldr	r3, [r7, #4]
 2162 002a 0022     		movs	r2, #0
 2163 002c 83F84C20 		strb	r2, [r3, #76]
1420:Drivers/STM32L4xx_HAL_Driver/Src/stm32l4xx_hal_dfsdm.c **** 
1421:Drivers/STM32L4xx_HAL_Driver/Src/stm32l4xx_hal_dfsdm.c ****   return HAL_OK;
 2164              		.loc 1 1421 10
 2165 0030 0023     		movs	r3, #0
 2166              	.L116:
1422:Drivers/STM32L4xx_HAL_Driver/Src/stm32l4xx_hal_dfsdm.c **** }
 2167              		.loc 1 1422 1
 2168 0032 1846     		mov	r0, r3
 2169 0034 0837     		adds	r7, r7, #8
ARM GAS  /tmp/ccrDNuCE.s 			page 64


 2170              		.cfi_def_cfa_offset 8
 2171 0036 BD46     		mov	sp, r7
 2172              		.cfi_def_cfa_register 13
 2173              		@ sp needed
 2174 0038 80BD     		pop	{r7, pc}
 2175              		.cfi_endproc
 2176              	.LFE465:
 2178              		.section	.text.HAL_DFSDM_FilterMspInit,"ax",%progbits
 2179              		.align	1
 2180              		.weak	HAL_DFSDM_FilterMspInit
 2181              		.syntax unified
 2182              		.thumb
 2183              		.thumb_func
 2185              	HAL_DFSDM_FilterMspInit:
 2186              	.LFB466:
1423:Drivers/STM32L4xx_HAL_Driver/Src/stm32l4xx_hal_dfsdm.c **** 
1424:Drivers/STM32L4xx_HAL_Driver/Src/stm32l4xx_hal_dfsdm.c **** /**
1425:Drivers/STM32L4xx_HAL_Driver/Src/stm32l4xx_hal_dfsdm.c ****   * @brief  Initializes the DFSDM filter MSP.
1426:Drivers/STM32L4xx_HAL_Driver/Src/stm32l4xx_hal_dfsdm.c ****   * @param  hdfsdm_filter DFSDM filter handle.
1427:Drivers/STM32L4xx_HAL_Driver/Src/stm32l4xx_hal_dfsdm.c ****   * @retval None
1428:Drivers/STM32L4xx_HAL_Driver/Src/stm32l4xx_hal_dfsdm.c ****   */
1429:Drivers/STM32L4xx_HAL_Driver/Src/stm32l4xx_hal_dfsdm.c **** __weak void HAL_DFSDM_FilterMspInit(DFSDM_Filter_HandleTypeDef *hdfsdm_filter)
1430:Drivers/STM32L4xx_HAL_Driver/Src/stm32l4xx_hal_dfsdm.c **** {
 2187              		.loc 1 1430 1
 2188              		.cfi_startproc
 2189              		@ args = 0, pretend = 0, frame = 8
 2190              		@ frame_needed = 1, uses_anonymous_args = 0
 2191              		@ link register save eliminated.
 2192 0000 80B4     		push	{r7}
 2193              		.cfi_def_cfa_offset 4
 2194              		.cfi_offset 7, -4
 2195 0002 83B0     		sub	sp, sp, #12
 2196              		.cfi_def_cfa_offset 16
 2197 0004 00AF     		add	r7, sp, #0
 2198              		.cfi_def_cfa_register 7
 2199 0006 7860     		str	r0, [r7, #4]
1431:Drivers/STM32L4xx_HAL_Driver/Src/stm32l4xx_hal_dfsdm.c ****   /* Prevent unused argument(s) compilation warning */
1432:Drivers/STM32L4xx_HAL_Driver/Src/stm32l4xx_hal_dfsdm.c ****   UNUSED(hdfsdm_filter);
1433:Drivers/STM32L4xx_HAL_Driver/Src/stm32l4xx_hal_dfsdm.c **** 
1434:Drivers/STM32L4xx_HAL_Driver/Src/stm32l4xx_hal_dfsdm.c ****   /* NOTE : This function should not be modified, when the function is needed,
1435:Drivers/STM32L4xx_HAL_Driver/Src/stm32l4xx_hal_dfsdm.c ****             the HAL_DFSDM_FilterMspInit could be implemented in the user file.
1436:Drivers/STM32L4xx_HAL_Driver/Src/stm32l4xx_hal_dfsdm.c ****    */
1437:Drivers/STM32L4xx_HAL_Driver/Src/stm32l4xx_hal_dfsdm.c **** }
 2200              		.loc 1 1437 1
 2201 0008 00BF     		nop
 2202 000a 0C37     		adds	r7, r7, #12
 2203              		.cfi_def_cfa_offset 4
 2204 000c BD46     		mov	sp, r7
 2205              		.cfi_def_cfa_register 13
 2206              		@ sp needed
 2207 000e 5DF8047B 		ldr	r7, [sp], #4
 2208              		.cfi_restore 7
 2209              		.cfi_def_cfa_offset 0
 2210 0012 7047     		bx	lr
 2211              		.cfi_endproc
 2212              	.LFE466:
 2214              		.section	.text.HAL_DFSDM_FilterMspDeInit,"ax",%progbits
ARM GAS  /tmp/ccrDNuCE.s 			page 65


 2215              		.align	1
 2216              		.weak	HAL_DFSDM_FilterMspDeInit
 2217              		.syntax unified
 2218              		.thumb
 2219              		.thumb_func
 2221              	HAL_DFSDM_FilterMspDeInit:
 2222              	.LFB467:
1438:Drivers/STM32L4xx_HAL_Driver/Src/stm32l4xx_hal_dfsdm.c **** 
1439:Drivers/STM32L4xx_HAL_Driver/Src/stm32l4xx_hal_dfsdm.c **** /**
1440:Drivers/STM32L4xx_HAL_Driver/Src/stm32l4xx_hal_dfsdm.c ****   * @brief  De-initializes the DFSDM filter MSP.
1441:Drivers/STM32L4xx_HAL_Driver/Src/stm32l4xx_hal_dfsdm.c ****   * @param  hdfsdm_filter DFSDM filter handle.
1442:Drivers/STM32L4xx_HAL_Driver/Src/stm32l4xx_hal_dfsdm.c ****   * @retval None
1443:Drivers/STM32L4xx_HAL_Driver/Src/stm32l4xx_hal_dfsdm.c ****   */
1444:Drivers/STM32L4xx_HAL_Driver/Src/stm32l4xx_hal_dfsdm.c **** __weak void HAL_DFSDM_FilterMspDeInit(DFSDM_Filter_HandleTypeDef *hdfsdm_filter)
1445:Drivers/STM32L4xx_HAL_Driver/Src/stm32l4xx_hal_dfsdm.c **** {
 2223              		.loc 1 1445 1
 2224              		.cfi_startproc
 2225              		@ args = 0, pretend = 0, frame = 8
 2226              		@ frame_needed = 1, uses_anonymous_args = 0
 2227              		@ link register save eliminated.
 2228 0000 80B4     		push	{r7}
 2229              		.cfi_def_cfa_offset 4
 2230              		.cfi_offset 7, -4
 2231 0002 83B0     		sub	sp, sp, #12
 2232              		.cfi_def_cfa_offset 16
 2233 0004 00AF     		add	r7, sp, #0
 2234              		.cfi_def_cfa_register 7
 2235 0006 7860     		str	r0, [r7, #4]
1446:Drivers/STM32L4xx_HAL_Driver/Src/stm32l4xx_hal_dfsdm.c ****   /* Prevent unused argument(s) compilation warning */
1447:Drivers/STM32L4xx_HAL_Driver/Src/stm32l4xx_hal_dfsdm.c ****   UNUSED(hdfsdm_filter);
1448:Drivers/STM32L4xx_HAL_Driver/Src/stm32l4xx_hal_dfsdm.c **** 
1449:Drivers/STM32L4xx_HAL_Driver/Src/stm32l4xx_hal_dfsdm.c ****   /* NOTE : This function should not be modified, when the function is needed,
1450:Drivers/STM32L4xx_HAL_Driver/Src/stm32l4xx_hal_dfsdm.c ****             the HAL_DFSDM_FilterMspDeInit could be implemented in the user file.
1451:Drivers/STM32L4xx_HAL_Driver/Src/stm32l4xx_hal_dfsdm.c ****    */
1452:Drivers/STM32L4xx_HAL_Driver/Src/stm32l4xx_hal_dfsdm.c **** }
 2236              		.loc 1 1452 1
 2237 0008 00BF     		nop
 2238 000a 0C37     		adds	r7, r7, #12
 2239              		.cfi_def_cfa_offset 4
 2240 000c BD46     		mov	sp, r7
 2241              		.cfi_def_cfa_register 13
 2242              		@ sp needed
 2243 000e 5DF8047B 		ldr	r7, [sp], #4
 2244              		.cfi_restore 7
 2245              		.cfi_def_cfa_offset 0
 2246 0012 7047     		bx	lr
 2247              		.cfi_endproc
 2248              	.LFE467:
 2250              		.section	.text.HAL_DFSDM_FilterConfigRegChannel,"ax",%progbits
 2251              		.align	1
 2252              		.global	HAL_DFSDM_FilterConfigRegChannel
 2253              		.syntax unified
 2254              		.thumb
 2255              		.thumb_func
 2257              	HAL_DFSDM_FilterConfigRegChannel:
 2258              	.LFB468:
1453:Drivers/STM32L4xx_HAL_Driver/Src/stm32l4xx_hal_dfsdm.c **** 
ARM GAS  /tmp/ccrDNuCE.s 			page 66


1454:Drivers/STM32L4xx_HAL_Driver/Src/stm32l4xx_hal_dfsdm.c **** #if (USE_HAL_DFSDM_REGISTER_CALLBACKS == 1)
1455:Drivers/STM32L4xx_HAL_Driver/Src/stm32l4xx_hal_dfsdm.c **** /**
1456:Drivers/STM32L4xx_HAL_Driver/Src/stm32l4xx_hal_dfsdm.c ****   * @brief  Register a user DFSDM filter callback
1457:Drivers/STM32L4xx_HAL_Driver/Src/stm32l4xx_hal_dfsdm.c ****   *         to be used instead of the weak predefined callback.
1458:Drivers/STM32L4xx_HAL_Driver/Src/stm32l4xx_hal_dfsdm.c ****   * @param  hdfsdm_filter DFSDM filter handle.
1459:Drivers/STM32L4xx_HAL_Driver/Src/stm32l4xx_hal_dfsdm.c ****   * @param  CallbackID ID of the callback to be registered.
1460:Drivers/STM32L4xx_HAL_Driver/Src/stm32l4xx_hal_dfsdm.c ****   *         This parameter can be one of the following values:
1461:Drivers/STM32L4xx_HAL_Driver/Src/stm32l4xx_hal_dfsdm.c ****   *           @arg @ref HAL_DFSDM_FILTER_REGCONV_COMPLETE_CB_ID regular conversion complete callbac
1462:Drivers/STM32L4xx_HAL_Driver/Src/stm32l4xx_hal_dfsdm.c ****   *           @arg @ref HAL_DFSDM_FILTER_REGCONV_HALFCOMPLETE_CB_ID half regular conversion complet
1463:Drivers/STM32L4xx_HAL_Driver/Src/stm32l4xx_hal_dfsdm.c ****   *           @arg @ref HAL_DFSDM_FILTER_INJCONV_COMPLETE_CB_ID injected conversion complete callba
1464:Drivers/STM32L4xx_HAL_Driver/Src/stm32l4xx_hal_dfsdm.c ****   *           @arg @ref HAL_DFSDM_FILTER_INJCONV_HALFCOMPLETE_CB_ID half injected conversion comple
1465:Drivers/STM32L4xx_HAL_Driver/Src/stm32l4xx_hal_dfsdm.c ****   *           @arg @ref HAL_DFSDM_FILTER_ERROR_CB_ID error callback ID.
1466:Drivers/STM32L4xx_HAL_Driver/Src/stm32l4xx_hal_dfsdm.c ****   *           @arg @ref HAL_DFSDM_FILTER_MSPINIT_CB_ID MSP init callback ID.
1467:Drivers/STM32L4xx_HAL_Driver/Src/stm32l4xx_hal_dfsdm.c ****   *           @arg @ref HAL_DFSDM_FILTER_MSPDEINIT_CB_ID MSP de-init callback ID.
1468:Drivers/STM32L4xx_HAL_Driver/Src/stm32l4xx_hal_dfsdm.c ****   * @param  pCallback pointer to the callback function.
1469:Drivers/STM32L4xx_HAL_Driver/Src/stm32l4xx_hal_dfsdm.c ****   * @retval HAL status.
1470:Drivers/STM32L4xx_HAL_Driver/Src/stm32l4xx_hal_dfsdm.c ****   */
1471:Drivers/STM32L4xx_HAL_Driver/Src/stm32l4xx_hal_dfsdm.c **** HAL_StatusTypeDef HAL_DFSDM_Filter_RegisterCallback(DFSDM_Filter_HandleTypeDef        *hdfsdm_filte
1472:Drivers/STM32L4xx_HAL_Driver/Src/stm32l4xx_hal_dfsdm.c ****                                                     HAL_DFSDM_Filter_CallbackIDTypeDef CallbackID,
1473:Drivers/STM32L4xx_HAL_Driver/Src/stm32l4xx_hal_dfsdm.c ****                                                     pDFSDM_Filter_CallbackTypeDef      pCallback)
1474:Drivers/STM32L4xx_HAL_Driver/Src/stm32l4xx_hal_dfsdm.c **** {
1475:Drivers/STM32L4xx_HAL_Driver/Src/stm32l4xx_hal_dfsdm.c ****   HAL_StatusTypeDef status = HAL_OK;
1476:Drivers/STM32L4xx_HAL_Driver/Src/stm32l4xx_hal_dfsdm.c **** 
1477:Drivers/STM32L4xx_HAL_Driver/Src/stm32l4xx_hal_dfsdm.c ****   if (pCallback == NULL)
1478:Drivers/STM32L4xx_HAL_Driver/Src/stm32l4xx_hal_dfsdm.c ****   {
1479:Drivers/STM32L4xx_HAL_Driver/Src/stm32l4xx_hal_dfsdm.c ****     /* update the error code */
1480:Drivers/STM32L4xx_HAL_Driver/Src/stm32l4xx_hal_dfsdm.c ****     hdfsdm_filter->ErrorCode = DFSDM_FILTER_ERROR_INVALID_CALLBACK;
1481:Drivers/STM32L4xx_HAL_Driver/Src/stm32l4xx_hal_dfsdm.c ****     /* update return status */
1482:Drivers/STM32L4xx_HAL_Driver/Src/stm32l4xx_hal_dfsdm.c ****     status = HAL_ERROR;
1483:Drivers/STM32L4xx_HAL_Driver/Src/stm32l4xx_hal_dfsdm.c ****   }
1484:Drivers/STM32L4xx_HAL_Driver/Src/stm32l4xx_hal_dfsdm.c ****   else
1485:Drivers/STM32L4xx_HAL_Driver/Src/stm32l4xx_hal_dfsdm.c ****   {
1486:Drivers/STM32L4xx_HAL_Driver/Src/stm32l4xx_hal_dfsdm.c ****     if (HAL_DFSDM_FILTER_STATE_READY == hdfsdm_filter->State)
1487:Drivers/STM32L4xx_HAL_Driver/Src/stm32l4xx_hal_dfsdm.c ****     {
1488:Drivers/STM32L4xx_HAL_Driver/Src/stm32l4xx_hal_dfsdm.c ****       switch (CallbackID)
1489:Drivers/STM32L4xx_HAL_Driver/Src/stm32l4xx_hal_dfsdm.c ****       {
1490:Drivers/STM32L4xx_HAL_Driver/Src/stm32l4xx_hal_dfsdm.c ****         case HAL_DFSDM_FILTER_REGCONV_COMPLETE_CB_ID :
1491:Drivers/STM32L4xx_HAL_Driver/Src/stm32l4xx_hal_dfsdm.c ****           hdfsdm_filter->RegConvCpltCallback = pCallback;
1492:Drivers/STM32L4xx_HAL_Driver/Src/stm32l4xx_hal_dfsdm.c ****           break;
1493:Drivers/STM32L4xx_HAL_Driver/Src/stm32l4xx_hal_dfsdm.c ****         case HAL_DFSDM_FILTER_REGCONV_HALFCOMPLETE_CB_ID :
1494:Drivers/STM32L4xx_HAL_Driver/Src/stm32l4xx_hal_dfsdm.c ****           hdfsdm_filter->RegConvHalfCpltCallback = pCallback;
1495:Drivers/STM32L4xx_HAL_Driver/Src/stm32l4xx_hal_dfsdm.c ****           break;
1496:Drivers/STM32L4xx_HAL_Driver/Src/stm32l4xx_hal_dfsdm.c ****         case HAL_DFSDM_FILTER_INJCONV_COMPLETE_CB_ID :
1497:Drivers/STM32L4xx_HAL_Driver/Src/stm32l4xx_hal_dfsdm.c ****           hdfsdm_filter->InjConvCpltCallback = pCallback;
1498:Drivers/STM32L4xx_HAL_Driver/Src/stm32l4xx_hal_dfsdm.c ****           break;
1499:Drivers/STM32L4xx_HAL_Driver/Src/stm32l4xx_hal_dfsdm.c ****         case HAL_DFSDM_FILTER_INJCONV_HALFCOMPLETE_CB_ID :
1500:Drivers/STM32L4xx_HAL_Driver/Src/stm32l4xx_hal_dfsdm.c ****           hdfsdm_filter->InjConvHalfCpltCallback = pCallback;
1501:Drivers/STM32L4xx_HAL_Driver/Src/stm32l4xx_hal_dfsdm.c ****           break;
1502:Drivers/STM32L4xx_HAL_Driver/Src/stm32l4xx_hal_dfsdm.c ****         case HAL_DFSDM_FILTER_ERROR_CB_ID :
1503:Drivers/STM32L4xx_HAL_Driver/Src/stm32l4xx_hal_dfsdm.c ****           hdfsdm_filter->ErrorCallback = pCallback;
1504:Drivers/STM32L4xx_HAL_Driver/Src/stm32l4xx_hal_dfsdm.c ****           break;
1505:Drivers/STM32L4xx_HAL_Driver/Src/stm32l4xx_hal_dfsdm.c ****         case HAL_DFSDM_FILTER_MSPINIT_CB_ID :
1506:Drivers/STM32L4xx_HAL_Driver/Src/stm32l4xx_hal_dfsdm.c ****           hdfsdm_filter->MspInitCallback = pCallback;
1507:Drivers/STM32L4xx_HAL_Driver/Src/stm32l4xx_hal_dfsdm.c ****           break;
1508:Drivers/STM32L4xx_HAL_Driver/Src/stm32l4xx_hal_dfsdm.c ****         case HAL_DFSDM_FILTER_MSPDEINIT_CB_ID :
1509:Drivers/STM32L4xx_HAL_Driver/Src/stm32l4xx_hal_dfsdm.c ****           hdfsdm_filter->MspDeInitCallback = pCallback;
1510:Drivers/STM32L4xx_HAL_Driver/Src/stm32l4xx_hal_dfsdm.c ****           break;
ARM GAS  /tmp/ccrDNuCE.s 			page 67


1511:Drivers/STM32L4xx_HAL_Driver/Src/stm32l4xx_hal_dfsdm.c ****         default :
1512:Drivers/STM32L4xx_HAL_Driver/Src/stm32l4xx_hal_dfsdm.c ****           /* update the error code */
1513:Drivers/STM32L4xx_HAL_Driver/Src/stm32l4xx_hal_dfsdm.c ****           hdfsdm_filter->ErrorCode = DFSDM_FILTER_ERROR_INVALID_CALLBACK;
1514:Drivers/STM32L4xx_HAL_Driver/Src/stm32l4xx_hal_dfsdm.c ****           /* update return status */
1515:Drivers/STM32L4xx_HAL_Driver/Src/stm32l4xx_hal_dfsdm.c ****           status = HAL_ERROR;
1516:Drivers/STM32L4xx_HAL_Driver/Src/stm32l4xx_hal_dfsdm.c ****           break;
1517:Drivers/STM32L4xx_HAL_Driver/Src/stm32l4xx_hal_dfsdm.c ****       }
1518:Drivers/STM32L4xx_HAL_Driver/Src/stm32l4xx_hal_dfsdm.c ****     }
1519:Drivers/STM32L4xx_HAL_Driver/Src/stm32l4xx_hal_dfsdm.c ****     else if (HAL_DFSDM_FILTER_STATE_RESET == hdfsdm_filter->State)
1520:Drivers/STM32L4xx_HAL_Driver/Src/stm32l4xx_hal_dfsdm.c ****     {
1521:Drivers/STM32L4xx_HAL_Driver/Src/stm32l4xx_hal_dfsdm.c ****       switch (CallbackID)
1522:Drivers/STM32L4xx_HAL_Driver/Src/stm32l4xx_hal_dfsdm.c ****       {
1523:Drivers/STM32L4xx_HAL_Driver/Src/stm32l4xx_hal_dfsdm.c ****         case HAL_DFSDM_FILTER_MSPINIT_CB_ID :
1524:Drivers/STM32L4xx_HAL_Driver/Src/stm32l4xx_hal_dfsdm.c ****           hdfsdm_filter->MspInitCallback = pCallback;
1525:Drivers/STM32L4xx_HAL_Driver/Src/stm32l4xx_hal_dfsdm.c ****           break;
1526:Drivers/STM32L4xx_HAL_Driver/Src/stm32l4xx_hal_dfsdm.c ****         case HAL_DFSDM_FILTER_MSPDEINIT_CB_ID :
1527:Drivers/STM32L4xx_HAL_Driver/Src/stm32l4xx_hal_dfsdm.c ****           hdfsdm_filter->MspDeInitCallback = pCallback;
1528:Drivers/STM32L4xx_HAL_Driver/Src/stm32l4xx_hal_dfsdm.c ****           break;
1529:Drivers/STM32L4xx_HAL_Driver/Src/stm32l4xx_hal_dfsdm.c ****         default :
1530:Drivers/STM32L4xx_HAL_Driver/Src/stm32l4xx_hal_dfsdm.c ****           /* update the error code */
1531:Drivers/STM32L4xx_HAL_Driver/Src/stm32l4xx_hal_dfsdm.c ****           hdfsdm_filter->ErrorCode = DFSDM_FILTER_ERROR_INVALID_CALLBACK;
1532:Drivers/STM32L4xx_HAL_Driver/Src/stm32l4xx_hal_dfsdm.c ****           /* update return status */
1533:Drivers/STM32L4xx_HAL_Driver/Src/stm32l4xx_hal_dfsdm.c ****           status = HAL_ERROR;
1534:Drivers/STM32L4xx_HAL_Driver/Src/stm32l4xx_hal_dfsdm.c ****           break;
1535:Drivers/STM32L4xx_HAL_Driver/Src/stm32l4xx_hal_dfsdm.c ****       }
1536:Drivers/STM32L4xx_HAL_Driver/Src/stm32l4xx_hal_dfsdm.c ****     }
1537:Drivers/STM32L4xx_HAL_Driver/Src/stm32l4xx_hal_dfsdm.c ****     else
1538:Drivers/STM32L4xx_HAL_Driver/Src/stm32l4xx_hal_dfsdm.c ****     {
1539:Drivers/STM32L4xx_HAL_Driver/Src/stm32l4xx_hal_dfsdm.c ****       /* update the error code */
1540:Drivers/STM32L4xx_HAL_Driver/Src/stm32l4xx_hal_dfsdm.c ****       hdfsdm_filter->ErrorCode = DFSDM_FILTER_ERROR_INVALID_CALLBACK;
1541:Drivers/STM32L4xx_HAL_Driver/Src/stm32l4xx_hal_dfsdm.c ****       /* update return status */
1542:Drivers/STM32L4xx_HAL_Driver/Src/stm32l4xx_hal_dfsdm.c ****       status = HAL_ERROR;
1543:Drivers/STM32L4xx_HAL_Driver/Src/stm32l4xx_hal_dfsdm.c ****     }
1544:Drivers/STM32L4xx_HAL_Driver/Src/stm32l4xx_hal_dfsdm.c ****   }
1545:Drivers/STM32L4xx_HAL_Driver/Src/stm32l4xx_hal_dfsdm.c ****   return status;
1546:Drivers/STM32L4xx_HAL_Driver/Src/stm32l4xx_hal_dfsdm.c **** }
1547:Drivers/STM32L4xx_HAL_Driver/Src/stm32l4xx_hal_dfsdm.c **** 
1548:Drivers/STM32L4xx_HAL_Driver/Src/stm32l4xx_hal_dfsdm.c **** /**
1549:Drivers/STM32L4xx_HAL_Driver/Src/stm32l4xx_hal_dfsdm.c ****   * @brief  Unregister a user DFSDM filter callback.
1550:Drivers/STM32L4xx_HAL_Driver/Src/stm32l4xx_hal_dfsdm.c ****   *         DFSDM filter callback is redirected to the weak predefined callback.
1551:Drivers/STM32L4xx_HAL_Driver/Src/stm32l4xx_hal_dfsdm.c ****   * @param  hdfsdm_filter DFSDM filter handle.
1552:Drivers/STM32L4xx_HAL_Driver/Src/stm32l4xx_hal_dfsdm.c ****   * @param  CallbackID ID of the callback to be unregistered.
1553:Drivers/STM32L4xx_HAL_Driver/Src/stm32l4xx_hal_dfsdm.c ****   *         This parameter can be one of the following values:
1554:Drivers/STM32L4xx_HAL_Driver/Src/stm32l4xx_hal_dfsdm.c ****   *           @arg @ref HAL_DFSDM_FILTER_REGCONV_COMPLETE_CB_ID regular conversion complete callbac
1555:Drivers/STM32L4xx_HAL_Driver/Src/stm32l4xx_hal_dfsdm.c ****   *           @arg @ref HAL_DFSDM_FILTER_REGCONV_HALFCOMPLETE_CB_ID half regular conversion complet
1556:Drivers/STM32L4xx_HAL_Driver/Src/stm32l4xx_hal_dfsdm.c ****   *           @arg @ref HAL_DFSDM_FILTER_INJCONV_COMPLETE_CB_ID injected conversion complete callba
1557:Drivers/STM32L4xx_HAL_Driver/Src/stm32l4xx_hal_dfsdm.c ****   *           @arg @ref HAL_DFSDM_FILTER_INJCONV_HALFCOMPLETE_CB_ID half injected conversion comple
1558:Drivers/STM32L4xx_HAL_Driver/Src/stm32l4xx_hal_dfsdm.c ****   *           @arg @ref HAL_DFSDM_FILTER_ERROR_CB_ID error callback ID.
1559:Drivers/STM32L4xx_HAL_Driver/Src/stm32l4xx_hal_dfsdm.c ****   *           @arg @ref HAL_DFSDM_FILTER_MSPINIT_CB_ID MSP init callback ID.
1560:Drivers/STM32L4xx_HAL_Driver/Src/stm32l4xx_hal_dfsdm.c ****   *           @arg @ref HAL_DFSDM_FILTER_MSPDEINIT_CB_ID MSP de-init callback ID.
1561:Drivers/STM32L4xx_HAL_Driver/Src/stm32l4xx_hal_dfsdm.c ****   * @retval HAL status.
1562:Drivers/STM32L4xx_HAL_Driver/Src/stm32l4xx_hal_dfsdm.c ****   */
1563:Drivers/STM32L4xx_HAL_Driver/Src/stm32l4xx_hal_dfsdm.c **** HAL_StatusTypeDef HAL_DFSDM_Filter_UnRegisterCallback(DFSDM_Filter_HandleTypeDef        *hdfsdm_fil
